
Dekrispator_v2.elf:     file format elf32-littlearm
Dekrispator_v2.elf
architecture: armv7e-m, flags 0x00000112:
EXEC_P, HAS_SYMS, D_PAGED
start address 0x0800d2cd

Program Header:
    LOAD off    0x00010000 vaddr 0x08000000 paddr 0x08000000 align 2**16
         filesz 0x0001e0fc memsz 0x0001e0fc flags rwx
    LOAD off    0x00030000 vaddr 0x20000000 paddr 0x0801e0fc align 2**16
         filesz 0x000008a4 memsz 0x000008a4 flags rw-
    LOAD off    0x00040000 vaddr 0x10000000 paddr 0x0801e9a0 align 2**16
         filesz 0x00003ed8 memsz 0x00003ed8 flags rw-
    LOAD off    0x00003ed8 vaddr 0x10003ed8 paddr 0x10003ed8 align 2**16
         filesz 0x00000000 memsz 0x00002000 flags rw-
    LOAD off    0x000008a4 vaddr 0x200008a4 paddr 0x200008a4 align 2**16
         filesz 0x00000000 memsz 0x0001ef1c flags rw-
private flags = 5000400: [Version5 EABI] [hard-float ABI]

Sections:
Idx Name              Size      VMA       LMA       File off  Algn  Flags
  0 .isr_vector       00000188  08000000  08000000  00010000  2**0  CONTENTS, ALLOC, LOAD, READONLY, DATA
  1 .text             0000f1f8  08000188  08000188  00010188  2**2  CONTENTS, ALLOC, LOAD, READONLY, CODE
  2 .rodata           0000ed70  0800f380  0800f380  0001f380  2**2  CONTENTS, ALLOC, LOAD, READONLY, DATA
  3 .init_array       00000008  0801e0f0  0801e0f0  0002e0f0  2**2  CONTENTS, ALLOC, LOAD, DATA
  4 .fini_array       00000004  0801e0f8  0801e0f8  0002e0f8  2**2  CONTENTS, ALLOC, LOAD, DATA
  5 .data             000008a4  20000000  0801e0fc  00030000  2**3  CONTENTS, ALLOC, LOAD, DATA
  6 .ccmram           00003ed8  10000000  0801e9a0  00040000  2**2  CONTENTS, ALLOC, LOAD, DATA
  7 .bss              0001ef1c  200008a4  200008a4  000508a4  2**2  ALLOC
  8 ._user_heap_stack 00002000  10003ed8  10003ed8  00043ed8  2**0  ALLOC
  9 .ARM.attributes   00000030  00000000  00000000  00043ed8  2**0  CONTENTS, READONLY
 10 .comment          0000001e  00000000  00000000  00043f08  2**0  CONTENTS, READONLY
 11 .debug_frame      00000780  00000000  00000000  00043f28  2**2  CONTENTS, READONLY, DEBUGGING, OCTETS
SYMBOL TABLE:
08000000 l    d  .isr_vector	00000000 .isr_vector
08000188 l    d  .text	00000000 .text
0800f380 l    d  .rodata	00000000 .rodata
0801e0f0 l    d  .init_array	00000000 .init_array
0801e0f8 l    d  .fini_array	00000000 .fini_array
20000000 l    d  .data	00000000 .data
10000000 l    d  .ccmram	00000000 .ccmram
200008a4 l    d  .bss	00000000 .bss
10003ed8 l    d  ._user_heap_stack	00000000 ._user_heap_stack
00000000 l    d  .ARM.attributes	00000000 .ARM.attributes
00000000 l    d  .comment	00000000 .comment
00000000 l    d  .debug_frame	00000000 .debug_frame
00000000 l    df *ABS*	00000000 ./Synth/startup_stm32f407xx.o
0800d2dc l       .text	00000000 LoopCopyDataInit
0800d2d4 l       .text	00000000 CopyDataInit
0800d2f0 l       .text	00000000 LoopFillZerobss
0800d2ea l       .text	00000000 FillZerobss
0800d31c l       .text	00000000 Infinite_Loop
00000000 l    df *ABS*	00000000 lib_a-memcpy.o
00000000 l    df *ABS*	00000000 crtstuff.c
0800f368 l     O .text	00000000 __EH_FRAME_BEGIN__
080002bc l     F .text	00000000 __do_global_dtors_aux
200008a4 l     O .bss	00000000 completed.1
0801e0f8 l     O .fini_array	00000000 __do_global_dtors_aux_fini_array_entry
080002e0 l     F .text	00000000 frame_dummy
200008a8 l     O .bss	00000000 object.0
0801e0f4 l     O .init_array	00000000 __frame_dummy_init_array_entry
00000000 l    df *ABS*	00000000 
0800078c l     F .text	00000080 USB_DoPing
08000c60 l     F .text	00000030 USB_WritePacket
08000c0c l     F .text	0000000e USB_DisableGlobalInt
08000c1c l     F .text	00000024 USB_FlushTxFifo
08000c40 l     F .text	00000020 USB_FlushRxFifo
08000910 l     F .text	0000000e USBH_MIDI_ClassRequest
08000920 l     F .text	00000004 USBH_MIDI_SOFProcess
08000924 l     F .text	0000001c HAL_Delay
08000940 l     F .text	00000290 HAL_GPIO_Init
08000bd0 l     F .text	0000002c I2S_DMAError
08000c90 l     F .text	00000004 cs43l22_SetFrequency
08000c94 l     F .text	00000310 BSP_LED_Init
08000fa4 l     F .text	000000c4 Delay_compute
08001068 l     F .text	00000068 USBH_UserProcess_callback
080010d0 l     F .text	00000010 Error_Handler
080010e0 l     F .text	00000108 MorphingSaw_SampleCompute
080011e8 l     F .text	00000508 USBH_MIDI_InterfaceInit
080016f0 l     F .text	00000408 MagicFX.part.0
08001af8 l     F .text	00000bfc MagicPatch.part.0
080026f4 l     F .text	000000d0 drifter_nextSample
080027c4 l     F .text	00000144 delay_read
08002908 l     F .text	0000014c mono_chorus_compute
08002a54 l     F .text	00001b88 waveCompute
08014b58 l     O .rodata	00009008 step_dd_table
08010454 l     O .rodata	00004704 slope_dd_table
080045dc l     F .text	00000614 I2S_DMATxCplt
08004bf0 l     F .text	000005bc I2S_DMATxHalfCplt
08006ec4 l     F .text	00000002 BSP_AUDIO_OUT_Error_CallBack
08006f7c l     F .text	000001f4 I2Cx_Init.part.0
08007170 l     F .text	00000220 cs43l22_Play
08007390 l     F .text	0000020c cs43l22_Pause
0800759c l     F .text	0000032c cs43l22_Resume
080078c8 l     F .text	00000210 cs43l22_Stop
08007ad8 l     F .text	000003b4 cs43l22_SetVolume
08007e8c l     F .text	000001a4 cs43l22_SetMute
08008030 l     F .text	0000010c I2Cx_WriteData
0800813c l     F .text	00000174 cs43l22_SetOutputMode
080082b0 l     F .text	00000078 AUDIO_IO_Init
08008328 l     F .text	000000fc cs43l22_Init
08008424 l     F .text	000001c0 cs43l22_ReadID
080085e4 l     F .text	000000a8 USBH_MIDI_InterfaceDeInit
08008914 l     F .text	00001430 USBH_MIDI_Process
200008c0 l     O .bss	00000001 Appli_state
2000090c l     O .bss	00000040 MIDI_RX_Buffer
2000094c l     O .bss	00000001 OutputDev
20000950 l     O .bss	00000008 RngHandle
20000958 l     O .bss	00000fa0 audiobuff
2001f6b8 l     O .bss	00000050 hdma_i2sTx.1
2001f70c l     O .bss	00000004 old_dy
2001f710 l     O .bss	00000004 pAudioDrv
20000000 l     O .data	00000001 Is_cs43l22_Stop
20000004 l     O .data	00000020 MIDI_Class
20000024 l     O .data	00000004 centralFreq
20000028 l     O .data	0000002c cs43l22_drv
20000058 l     O .data	00000004 fdb
2000005c l     O .data	00000004 wet.lto_priv.0
0800f388 l     O .rodata	00000010 APBAHBPrescTable
0800f398 l     O .rodata	0000003c CSWTCH.13
0800f44c l     O .rodata	00000003 MIDIscale14
0800f41c l     O .rodata	00000003 MIDIscale07
0800f420 l     O .rodata	00000003 MIDIscale08
0800f424 l     O .rodata	00000004 MIDIscale09
0800f428 l     O .rodata	00000005 MIDIscale10
0800f404 l     O .rodata	00000005 MIDIscale04
0800f3ec l     O .rodata	00000006 MIDIscale01
0800f3fc l     O .rodata	00000007 MIDIscale03
0800f430 l     O .rodata	00000008 MIDIscale11
0800f3f4 l     O .rodata	00000007 MIDIscale02
0800f414 l     O .rodata	00000008 MIDIscale06
0800f40c l     O .rodata	00000007 MIDIscale05
0800f438 l     O .rodata	0000000d MIDIscale12
00000000 l    df *ABS*	00000000 
0800b288 l     F .text	00000268 seq_sequence_new
2001f72c l     O .bss	00000001 DebouncedKeyPress
2001f730 l     O .bss	00000004 TimingDelay
2001f734 l     O .bss	00000004 TimingDelay1
2001f738 l     O .bss	00000004 dmax
2001f73c l     O .bss	00000004 dmin
2001f740 l     O .bss	00000004 lfoPhase
2001f744 l     O .bss	00000018 old
2001f75c l     O .bss	00000004 zm1
20000060 l     O .data	00000001 Count
0801db60 l     O .rodata	000001ac notesFreq
00000000 l    df *ABS*	00000000 sf_floor.c
00000000 l    df *ABS*	00000000 sf_lrint.c
0801dd0c l     O .rodata	00000008 TWO23
00000000 l    df *ABS*	00000000 sf_rint.c
0801dd14 l     O .rodata	00000008 TWO23
00000000 l    df *ABS*	00000000 sf_sin.c
00000000 l    df *ABS*	00000000 wf_pow.c
00000000 l    df *ABS*	00000000 ef_pow.c
00000000 l    df *ABS*	00000000 ef_rem_pio2.c
0801dd1c l     O .rodata	00000080 npio2_hw
0801dd9c l     O .rodata	00000318 two_over_pi
00000000 l    df *ABS*	00000000 ef_sqrt.c
00000000 l    df *ABS*	00000000 kf_cos.c
00000000 l    df *ABS*	00000000 kf_rem_pio2.c
0801e0b4 l     O .rodata	0000002c PIo2
0801e0e0 l     O .rodata	0000000c init_jk
00000000 l    df *ABS*	00000000 kf_sin.c
00000000 l    df *ABS*	00000000 sf_fabs.c
00000000 l    df *ABS*	00000000 sf_finite.c
00000000 l    df *ABS*	00000000 sf_nan.c
00000000 l    df *ABS*	00000000 sf_scalbn.c
00000000 l    df *ABS*	00000000 atexit.c
00000000 l    df *ABS*	00000000 errno.c
00000000 l    df *ABS*	00000000 fini.c
00000000 l    df *ABS*	00000000 init.c
00000000 l    df *ABS*	00000000 memset.c
00000000 l    df *ABS*	00000000 rand.c
00000000 l    df *ABS*	00000000 __atexit.c
00000000 l    df *ABS*	00000000 __call_atexit.c
0800eaa8 l     F .text	00000014 register_fini
00000000 l    df *ABS*	00000000 lock.c
00000000 l    df *ABS*	00000000 malloc.c
00000000 l    df *ABS*	00000000 mallocr.c
00000000 l    df *ABS*	00000000 mlock.c
00000000 l    df *ABS*	00000000 sbrkr.c
00000000 l    df *ABS*	00000000 mallocr.c
00000000 l    df *ABS*	00000000 sbrk.c
2001f794 l     O .bss	00000004 heap_end.5507
00000000 l    df *ABS*	00000000 /usr/lib/gcc/arm-none-eabi/10.2.0/thumb/v7e-m+fp/hard/crti.o
00000000 l    df *ABS*	00000000 /usr/lib/gcc/arm-none-eabi/10.2.0/thumb/v7e-m+fp/hard/crtn.o
00000000 l    df *ABS*	00000000 impure.c
20000068 l     O .data	00000428 impure_data
00000000 l    df *ABS*	00000000 s_lib_ver.c
00000000 l    df *ABS*	00000000 reent.c
00000000 l    df *ABS*	00000000 
0801e0fc l       .fini_array	00000000 __fini_array_end
0801e0f8 l       .fini_array	00000000 __fini_array_start
0801e0f8 l       .init_array	00000000 __init_array_end
0801e0f0 l       .init_array	00000000 __preinit_array_end
0801e0f0 l       .init_array	00000000 __init_array_start
0801e0f0 l       .init_array	00000000 __preinit_array_start
0800d31c  w    F .text	00000002 RTC_Alarm_IRQHandler
0800d31c  w    F .text	00000002 HASH_RNG_IRQHandler
0800d31c  w    F .text	00000002 EXTI2_IRQHandler
0800d31c  w    F .text	00000002 TIM8_CC_IRQHandler
10000230 g     O .ccmram	00000020 .hidden SVFilter2
0800c468 g     F .text	00000002 DebugMon_Handler
10000210 g     O .ccmram	00000020 .hidden filt_lfo
10000024 g     O .ccmram	00000001 .hidden phaserON.lto_priv.0
2001f798 g     O .bss	00000001 __lock___atexit_recursive_mutex
0800d31c  w    F .text	00000002 TIM1_CC_IRQHandler
0800d31c  w    F .text	00000002 DMA2_Stream5_IRQHandler
08006ec4 g     F .text	00000002 HardFault_Handler
0800d31c  w    F .text	00000002 DMA1_Stream5_IRQHandler
0800f068 g     F .text	0000000c __malloc_unlock
00001000 g       *ABS*	00000000 _Min_Stack_Size
0800c5bc g     F .text	0000009c .hidden HAL_I2C_Mem_Write.part.0.constprop.0
0800c470 g     F .text	000000bc SysTick_Handler
2001f79c g     O .bss	00000001 __lock___arc4random_mutex
0800d31c  w    F .text	00000002 PVD_IRQHandler
0800d31c  w    F .text	00000002 SDIO_IRQHandler
0800d31c  w    F .text	00000002 TAMP_STAMP_IRQHandler
0801e0fc g       *ABS*	00000000 _sidata
08006ecc g     F .text	000000b0 .hidden HAL_RCC_GetHCLKFreq
0800c46c g     F .text	00000002 PendSV_Handler
0800d594 g     F .text	00000140 powf
08006ec8 g     F .text	00000002 NMI_Handler
0801e0f0 g       .init_array	00000000 __exidx_end
0800d31c  w    F .text	00000002 CAN2_RX1_IRQHandler
0800d31c  w    F .text	00000002 EXTI3_IRQHandler
20000490 g     O .data	00000004 __atexit_recursive_mutex
0800e8b4 g     F .text	0000000c __errno
10000004 g     O .ccmram	00000010 .hidden lfoL.lto_priv.0
0800dcd4 g     F .text	0000029c __ieee754_rem_pio2f
0800d31c  w    F .text	00000002 TIM8_TRG_COM_TIM14_IRQHandler
100012e4 g     O .ccmram	00000004 .hidden env.lto_priv.0
08006ec8 g     F .text	00000002 .hidden HAL_MspInit
2001f0a0 g     O .bss	00000618 .hidden hUSBHost
0800d31c  w    F .text	00000002 TIM1_UP_TIM10_IRQHandler
0800f448 g     O .rodata	00000002 .hidden MIDIscale13
2001f7bc g     O .bss	00000004 errno
0800f380 g       .text	00000000 _etext
200008a4 g       .bss	00000000 _sbss
2001f718 g     O .bss	00000004 .hidden readpos.lto_priv.0
0800d31c  w    F .text	00000002 TIM8_UP_TIM13_IRQHandler
0800d31c  w    F .text	00000002 I2C3_ER_IRQHandler
1000014c g     O .ccmram	00000020 .hidden op4
08000bfc g     F .text	0000000e .hidden USB_EnableGlobalInt
100001c4 g     O .ccmram	0000002c .hidden d1
1000010c g     O .ccmram	00000020 .hidden op2
100002dc g     O .ccmram	00000558 .hidden mbTriOsc
08000188 g     F .text	00000134 memcpy
2001f724 g     O .bss	00000004 .hidden wet.lto_priv.1
0800c52c g     F .text	00000014 EXTI0_IRQHandler
0800d31c  w    F .text	00000002 I2C2_EV_IRQHandler
0800d31c  w    F .text	00000002 DMA1_Stream2_IRQHandler
0800d31c  w    F .text	00000002 CAN1_RX0_IRQHandler
0800d31c  w    F .text	00000002 FPU_IRQHandler
0800d31c  w    F .text	00000002 OTG_HS_WKUP_IRQHandler
0800eac4 g     F .text	00000010 malloc
100012e8 g     O .ccmram	000015f8 .hidden delL.lto_priv.0
0800c460 g     F .text	00000002 UsageFault_Handler
0800d244 g     F .text	00000088 .hidden USBH_CtlSendData.constprop.0.isra.0
0800d31c  w    F .text	00000002 CAN2_SCE_IRQHandler
2001f790 g     O .bss	00000004 __malloc_top_pad
0800d31c  w    F .text	00000002 DMA2_Stream2_IRQHandler
200008a4 g       .bss	00000000 __bss_start__
0800f3d4 g     O .rodata	00000008 .hidden GPIO_PIN
20000000 g       .data	00000000 _sdata
0800d31c  w    F .text	00000002 SPI1_IRQHandler
0800e79c g     F .text	0000001a finitef
0800f074 g     F .text	00000024 _sbrk_r
0800d31c  w    F .text	00000002 TIM6_DAC_IRQHandler
0800e78c g     F .text	0000000e fabsf
2001f728 g     O .bss	00000004 .hidden writepos.lto_priv.0
0800d31c  w    F .text	00000002 TIM1_BRK_TIM9_IRQHandler
0800d31c  w    F .text	00000002 DCMI_IRQHandler
1000007c g     O .ccmram	00000014 .hidden noteG
0800d31c  w    F .text	00000002 CAN2_RX0_IRQHandler
2001f788 g     O .bss	00000004 __malloc_max_sbrked_mem
0801e0f0 g       .init_array	00000000 __exidx_start
2001f7a0 g     O .bss	00000001 __lock___env_recursive_mutex
0800d31c  w    F .text	00000002 DMA2_Stream3_IRQHandler
20000061 g     O .data	00000001 __fdlib_version
0800bed0 g     F .text	00000588 .hidden sequencer_newStep_action
2001f7a4 g     O .bss	00000001 __lock___sinit_recursive_mutex
0801e0ec g     O .rodata	00000004 _global_impure_ptr
0800e8ec g     F .text	00000048 __libc_init_array
0800e6fc g     F .text	00000090 __kernel_sinf
0800f34c g     F .text	0000001c _sbrk
100002bc g     O .ccmram	00000020 .hidden amp_lfo
0800d31c  w    F .text	00000002 USART6_IRQHandler
0800f368 g     F .text	00000000 _init
0800d31c  w    F .text	00000002 USART3_IRQHandler
0800e8c0 g     F .text	0000002c __libc_fini_array
10000000 g     O .ccmram	00000001 .hidden delayON.lto_priv.0
2001f7c0 g       .bss	00000000 _ebss
2001edc4 g     O .bss	00000004 .hidden filterFreq
0800d2cc  w    F .text	00000038 Reset_Handler
0800d31c  w    F .text	00000002 CAN1_RX1_IRQHandler
0800d31c  w    F .text	00000002 UART5_IRQHandler
2001f7a8 g     O .bss	00000001 __lock___malloc_recursive_mutex
0800df78 g     F .text	00000104 __kernel_cosf
100001f0 g     O .ccmram	00000020 .hidden SVFilter
0800d31c  w    F .text	00000002 DMA2_Stream0_IRQHandler
0800d3ac g     F .text	00000098 lrintf
0800c568 g     F .text	00000002 TIM4_IRQHandler
100028e0 g     O .ccmram	000015f8 .hidden delR.lto_priv.0
0800b8c4 g     F .text	0000060c .hidden Synth_Init
10003ed8 g       ._user_heap_stack	00000000 end
0800d31c  w    F .text	00000002 I2C1_EV_IRQHandler
0800eac0 g     F .text	00000002 __retarget_lock_release_recursive
0800d31c  w    F .text	00000002 DMA1_Stream6_IRQHandler
0800f450 g     O .rodata	00001004 .hidden sinetable
0800080c g     F .text	00000104 .hidden USB_StopHost
0800d31c  w    F .text	00000002 DMA1_Stream1_IRQHandler
0800d31c  w    F .text	00000002 UART4_IRQHandler
2001f7c0 g       .bss	00000000 __bss_end__
0800f138 g     F .text	00000214 _free_r
0800f3dc g     O .rodata	00000010 .hidden GPIO_PORT
0800d31c  w    F .text	00000002 TIM3_IRQHandler
0800d31c  w    F .text	00000002 RCC_IRQHandler
20000054 g     O .data	00000001 .hidden demoMode
10000270 g     O .ccmram	00000001 .hidden autoFilterON.lto_priv.0
0800d31c  w    F .text	00000002 TIM8_BRK_TIM12_IRQHandler
00001000 g       *ABS*	00000000 _Min_Heap_Size
100000ec g     O .ccmram	00000020 .hidden op1
0800d31c g       .text	00000002 Default_Handler
2000089c g     O .data	00000004 __malloc_sbrk_base
0800e9e4 g     F .text	0000003c rand
0800d31c  w    F .text	00000002 EXTI15_10_IRQHandler
0800ea20 g     F .text	00000088 __register_exitproc
2001f720 g     O .bss	00000004 .hidden uwTick.lto_priv.0
0800d31c  w    F .text	00000002 ADC_IRQHandler
10000091 g     O .ccmram	00000001 .hidden sound.lto_priv.0
2001ee10 g     O .bss	00000290 .hidden hHCD
2001f760 g     O .bss	00000028 __malloc_current_mallinfo
2001f714 g     O .bss	00000004 .hidden rateCoeff
0800c554 g     F .text	0000000c DMA1_Stream7_IRQHandler
10000274 g     O .ccmram	00000028 .hidden adsr
10000198 g     O .ccmram	0000002c .hidden d2
0800d31c  w    F .text	00000002 TIM7_IRQHandler
0800d31c  w    F .text	00000002 CAN2_TX_IRQHandler
0800d31c  w    F .text	00000002 TIM5_IRQHandler
0800d31c  w    F .text	00000002 DMA2_Stream7_IRQHandler
10000d90 g     O .ccmram	0000054c .hidden mbSawOsc
0800d31c  w    F .text	00000002 I2C3_EV_IRQHandler
10000250 g     O .ccmram	00000020 .hidden filt2_lfo
0800c7c8 g     F .text	00000044 .hidden HAL_InitTick.constprop.0.isra.0
0800d31c  w    F .text	00000002 EXTI9_5_IRQHandler
0800d31c  w    F .text	00000002 RTC_WKUP_IRQHandler
20000494 g     O .data	00000408 __malloc_av_
200008c4 g     O .bss	00000038 .hidden I2cHandle.lto_priv.0
0800d6d4 g     F .text	00000600 __ieee754_powf
0800c8f0 g     F .text	0000002c .hidden USB_CoreReset.isra.0
0800d31c  w    F .text	00000002 ETH_WKUP_IRQHandler
0800c80c g     F .text	000000e2 .hidden USBH_LL_OpenPipe.isra.0
0800f05c g     F .text	0000000c __malloc_lock
0800e7c4 g     F .text	000000e4 scalbnf
2001edc0 g     O .bss	00000004 .hidden fb.lto_priv.0
0800d31c  w    F .text	00000002 SPI2_IRQHandler
0800eabc g     F .text	00000002 __retarget_lock_acquire_recursive
0800d31c  w    F .text	00000002 OTG_HS_EP1_IN_IRQHandler
0800e934 g     F .text	000000a0 memset
0800df70 g     F .text	00000006 __ieee754_sqrtf
0800c458 g     F .text	00000002 MemManage_Handler
08009d44 g     F .text	00001544 main
0800b4f0 g     F .text	00000170 .hidden Phaser_compute
2001f78c g     O .bss	00000004 __malloc_max_total_mem
0800d31c  w    F .text	00000002 DMA1_Stream0_IRQHandler
0800e9d4 g     F .text	00000010 srand
0801e9a0 g       *ABS*	00000000 _siccmram
0800d31c  w    F .text	00000002 CAN1_TX_IRQHandler
0800c464 g     F .text	00000002 SVC_Handler
10000028 g     O .ccmram	00000054 .hidden seq
0800eae4 g     F .text	00000578 _malloc_r
10000014 g     O .ccmram	00000010 .hidden lfoR.lto_priv.0
200008fc g     O .bss	00000010 .hidden LED_counter
0800d31c  w    F .text	00000002 EXTI4_IRQHandler
0800f098 g     F .text	000000a0 _malloc_trim_r
2001edd0 g     O .bss	00000040 .hidden hAudioOutI2s
0800c658 g     F .text	00000058 .hidden HAL_NVIC_SetPriority.constprop.0
1000029c g     O .ccmram	00000020 .hidden vibr_lfo
0800c56c g     F .text	00000050 SystemInit
0800f374 g     F .text	00000000 _fini
0800e8a8 g     F .text	0000000c atexit
100000c0 g     O .ccmram	0000002c .hidden ph.lto_priv.0
10003ed8 g       .ccmram	00000000 _eccmram
2001edc8 g     O .bss	00000004 .hidden filterFreq2
1000012c g     O .ccmram	00000020 .hidden op3
0800d31c  w    F .text	00000002 FSMC_IRQHandler
0800d31c  w    F .text	00000002 ETH_IRQHandler
0800e7b8 g     F .text	0000000c nanf
20000064 g     O .data	00000004 _impure_ptr
2001f708 g     O .bss	00000004 .hidden lfoInc.lto_priv.0
0800d31c  w    F .text	00000002 OTG_HS_EP1_OUT_IRQHandler
080051ac g     F .text	00001d18 .hidden HAL_DMA_IRQHandler
0800d31c  w    F .text	00000002 WWDG_IRQHandler
0800d31c  w    F .text	00000002 TIM2_IRQHandler
0800d500 g     F .text	00000094 sinf
0800c6b0 g     F .text	000000a0 .hidden USBH_Get_DevDesc.constprop.0
0800d31c  w    F .text	00000002 OTG_FS_WKUP_IRQHandler
0800d31c  w    F .text	00000002 TIM1_TRG_COM_TIM11_IRQHandler
0800d31c  w    F .text	00000002 OTG_HS_IRQHandler
2001ffff g       *ABS*	00000000 _estack
0800c540 g     F .text	00000014 EXTI1_IRQHandler
08000578 g     F .text	0000001e .hidden USB_HC_ReadInterrupt
200008a4 g       .data	00000000 _edata
10000000 g       .ccmram	00000000 _sccmram
2001f71c g     O .bss	00000004 .hidden shift.lto_priv.0
08000598 g     F .text	000001f2 .hidden USB_HC_Halt
2001f7ac g     O .bss	00000001 __lock___at_quick_exit_mutex
0800d31c  w    F .text	00000002 USART2_IRQHandler
200008a0 g     O .data	00000004 __malloc_trim_threshold
08000000 g     O .isr_vector	00000000 g_pfnVectors
100012dc g     O .ccmram	00000004 .hidden f0.lto_priv.0
200018f8 g     O .bss	0001d4c8 .hidden delayline.lto_priv.0
0800d31c  w    F .text	00000002 I2C2_ER_IRQHandler
10000834 g     O .ccmram	0000055c .hidden mbRectOsc
10000001 g     O .ccmram	00000001 .hidden chorusON.lto_priv.0
0800d31c  w    F .text	00000002 DMA2_Stream1_IRQHandler
0800d31c  w    F .text	00000002 CAN1_SCE_IRQHandler
0800d31c  w    F .text	00000002 FLASH_IRQHandler
100012e0 g     O .ccmram	00000004 .hidden vol.lto_priv.0
0800e07c g     F .text	00000680 __kernel_rem_pio2f
2001edcc g     O .bss	00000001 .hidden freeze
0800d31c  w    F .text	00000002 DMA2_Stream4_IRQHandler
0800c45c g     F .text	00000002 BusFault_Handler
0800d31c  w    F .text	00000002 USART1_IRQHandler
2001f7b0 g     O .bss	00000001 __lock___dd_hash_mutex
0800868c g     F .text	00000288 .hidden USBH_CtlReq.part.0
2001f7b4 g     O .bss	00000001 __lock___tz_mutex
0800c91c g     F .text	00000928 OTG_FS_IRQHandler
0800d444 g     F .text	000000bc rintf
0800d31c  w    F .text	00000002 SPI3_IRQHandler
0800d31c  w    F .text	00000002 DMA1_Stream4_IRQHandler
0800d31c  w    F .text	00000002 I2C1_ER_IRQHandler
0800d320 g     F .text	0000008c floorf
10000094 g     O .ccmram	0000002c .hidden a.lto_priv.0
080002fc g     F .text	0000027c .hidden USB_HC_StartXfer
0800b660 g     F .text	00000264 .hidden SVF_calcSample
10000090 g     O .ccmram	00000001 .hidden autoSound.lto_priv.0
0800d31c  w    F .text	00000002 DMA2_Stream6_IRQHandler
0800c750 g     F .text	00000078 .hidden USBH_Get_StringDesc.constprop.0
1000016c g     O .ccmram	0000002c .hidden d3
0800c560 g     F .text	00000006 DMA1_Stream3_IRQHandler
2001f7b8 g     O .bss	00000001 __lock___sfp_recursive_mutex
0800ead4 g     F .text	00000010 free



Disassembly of section .text:

08000188 <memcpy>:
memcpy():
 8000188:	4684      	mov	ip, r0
 800018a:	ea41 0300 	orr.w	r3, r1, r0
 800018e:	f013 0303 	ands.w	r3, r3, #3
 8000192:	d16d      	bne.n	8000270 <memcpy+0xe8>
 8000194:	3a40      	subs	r2, #64	; 0x40
 8000196:	d341      	bcc.n	800021c <memcpy+0x94>
 8000198:	f851 3b04 	ldr.w	r3, [r1], #4
 800019c:	f840 3b04 	str.w	r3, [r0], #4
 80001a0:	f851 3b04 	ldr.w	r3, [r1], #4
 80001a4:	f840 3b04 	str.w	r3, [r0], #4
 80001a8:	f851 3b04 	ldr.w	r3, [r1], #4
 80001ac:	f840 3b04 	str.w	r3, [r0], #4
 80001b0:	f851 3b04 	ldr.w	r3, [r1], #4
 80001b4:	f840 3b04 	str.w	r3, [r0], #4
 80001b8:	f851 3b04 	ldr.w	r3, [r1], #4
 80001bc:	f840 3b04 	str.w	r3, [r0], #4
 80001c0:	f851 3b04 	ldr.w	r3, [r1], #4
 80001c4:	f840 3b04 	str.w	r3, [r0], #4
 80001c8:	f851 3b04 	ldr.w	r3, [r1], #4
 80001cc:	f840 3b04 	str.w	r3, [r0], #4
 80001d0:	f851 3b04 	ldr.w	r3, [r1], #4
 80001d4:	f840 3b04 	str.w	r3, [r0], #4
 80001d8:	f851 3b04 	ldr.w	r3, [r1], #4
 80001dc:	f840 3b04 	str.w	r3, [r0], #4
 80001e0:	f851 3b04 	ldr.w	r3, [r1], #4
 80001e4:	f840 3b04 	str.w	r3, [r0], #4
 80001e8:	f851 3b04 	ldr.w	r3, [r1], #4
 80001ec:	f840 3b04 	str.w	r3, [r0], #4
 80001f0:	f851 3b04 	ldr.w	r3, [r1], #4
 80001f4:	f840 3b04 	str.w	r3, [r0], #4
 80001f8:	f851 3b04 	ldr.w	r3, [r1], #4
 80001fc:	f840 3b04 	str.w	r3, [r0], #4
 8000200:	f851 3b04 	ldr.w	r3, [r1], #4
 8000204:	f840 3b04 	str.w	r3, [r0], #4
 8000208:	f851 3b04 	ldr.w	r3, [r1], #4
 800020c:	f840 3b04 	str.w	r3, [r0], #4
 8000210:	f851 3b04 	ldr.w	r3, [r1], #4
 8000214:	f840 3b04 	str.w	r3, [r0], #4
 8000218:	3a40      	subs	r2, #64	; 0x40
 800021a:	d2bd      	bcs.n	8000198 <memcpy+0x10>
 800021c:	3230      	adds	r2, #48	; 0x30
 800021e:	d311      	bcc.n	8000244 <memcpy+0xbc>
 8000220:	f851 3b04 	ldr.w	r3, [r1], #4
 8000224:	f840 3b04 	str.w	r3, [r0], #4
 8000228:	f851 3b04 	ldr.w	r3, [r1], #4
 800022c:	f840 3b04 	str.w	r3, [r0], #4
 8000230:	f851 3b04 	ldr.w	r3, [r1], #4
 8000234:	f840 3b04 	str.w	r3, [r0], #4
 8000238:	f851 3b04 	ldr.w	r3, [r1], #4
 800023c:	f840 3b04 	str.w	r3, [r0], #4
 8000240:	3a10      	subs	r2, #16
 8000242:	d2ed      	bcs.n	8000220 <memcpy+0x98>
 8000244:	320c      	adds	r2, #12
 8000246:	d305      	bcc.n	8000254 <memcpy+0xcc>
 8000248:	f851 3b04 	ldr.w	r3, [r1], #4
 800024c:	f840 3b04 	str.w	r3, [r0], #4
 8000250:	3a04      	subs	r2, #4
 8000252:	d2f9      	bcs.n	8000248 <memcpy+0xc0>
 8000254:	3204      	adds	r2, #4
 8000256:	d008      	beq.n	800026a <memcpy+0xe2>
 8000258:	07d2      	lsls	r2, r2, #31
 800025a:	bf1c      	itt	ne
 800025c:	f811 3b01 	ldrbne.w	r3, [r1], #1
 8000260:	f800 3b01 	strbne.w	r3, [r0], #1
 8000264:	d301      	bcc.n	800026a <memcpy+0xe2>
 8000266:	880b      	ldrh	r3, [r1, #0]
 8000268:	8003      	strh	r3, [r0, #0]
 800026a:	4660      	mov	r0, ip
 800026c:	4770      	bx	lr
 800026e:	bf00      	nop
 8000270:	2a08      	cmp	r2, #8
 8000272:	d313      	bcc.n	800029c <memcpy+0x114>
 8000274:	078b      	lsls	r3, r1, #30
 8000276:	d08d      	beq.n	8000194 <memcpy+0xc>
 8000278:	f010 0303 	ands.w	r3, r0, #3
 800027c:	d08a      	beq.n	8000194 <memcpy+0xc>
 800027e:	f1c3 0304 	rsb	r3, r3, #4
 8000282:	1ad2      	subs	r2, r2, r3
 8000284:	07db      	lsls	r3, r3, #31
 8000286:	bf1c      	itt	ne
 8000288:	f811 3b01 	ldrbne.w	r3, [r1], #1
 800028c:	f800 3b01 	strbne.w	r3, [r0], #1
 8000290:	d380      	bcc.n	8000194 <memcpy+0xc>
 8000292:	f831 3b02 	ldrh.w	r3, [r1], #2
 8000296:	f820 3b02 	strh.w	r3, [r0], #2
 800029a:	e77b      	b.n	8000194 <memcpy+0xc>
 800029c:	3a04      	subs	r2, #4
 800029e:	d3d9      	bcc.n	8000254 <memcpy+0xcc>
 80002a0:	3a01      	subs	r2, #1
 80002a2:	f811 3b01 	ldrb.w	r3, [r1], #1
 80002a6:	f800 3b01 	strb.w	r3, [r0], #1
 80002aa:	d2f9      	bcs.n	80002a0 <memcpy+0x118>
 80002ac:	780b      	ldrb	r3, [r1, #0]
 80002ae:	7003      	strb	r3, [r0, #0]
 80002b0:	784b      	ldrb	r3, [r1, #1]
 80002b2:	7043      	strb	r3, [r0, #1]
 80002b4:	788b      	ldrb	r3, [r1, #2]
 80002b6:	7083      	strb	r3, [r0, #2]
 80002b8:	4660      	mov	r0, ip
 80002ba:	4770      	bx	lr

080002bc <__do_global_dtors_aux>:
__do_global_dtors_aux():
 80002bc:	b510      	push	{r4, lr}
 80002be:	4c05      	ldr	r4, [pc, #20]	; (80002d4 <__do_global_dtors_aux+0x18>)
 80002c0:	7823      	ldrb	r3, [r4, #0]
 80002c2:	b933      	cbnz	r3, 80002d2 <__do_global_dtors_aux+0x16>
 80002c4:	4b04      	ldr	r3, [pc, #16]	; (80002d8 <__do_global_dtors_aux+0x1c>)
 80002c6:	b113      	cbz	r3, 80002ce <__do_global_dtors_aux+0x12>
 80002c8:	4804      	ldr	r0, [pc, #16]	; (80002dc <__do_global_dtors_aux+0x20>)
 80002ca:	f3af 8000 	nop.w
 80002ce:	2301      	movs	r3, #1
 80002d0:	7023      	strb	r3, [r4, #0]
 80002d2:	bd10      	pop	{r4, pc}
 80002d4:	200008a4 	.word	0x200008a4
 80002d8:	00000000 	.word	0x00000000
 80002dc:	0800f368 	.word	0x0800f368

080002e0 <frame_dummy>:
frame_dummy():
 80002e0:	b508      	push	{r3, lr}
 80002e2:	4b03      	ldr	r3, [pc, #12]	; (80002f0 <frame_dummy+0x10>)
 80002e4:	b11b      	cbz	r3, 80002ee <frame_dummy+0xe>
 80002e6:	4903      	ldr	r1, [pc, #12]	; (80002f4 <frame_dummy+0x14>)
 80002e8:	4803      	ldr	r0, [pc, #12]	; (80002f8 <frame_dummy+0x18>)
 80002ea:	f3af 8000 	nop.w
 80002ee:	bd08      	pop	{r3, pc}
 80002f0:	00000000 	.word	0x00000000
 80002f4:	200008a8 	.word	0x200008a8
 80002f8:	0800f368 	.word	0x0800f368

080002fc <USB_HC_StartXfer>:
USB_HC_StartXfer():
 80002fc:	b580      	push	{r7, lr}
 80002fe:	b088      	sub	sp, #32
 8000300:	af02      	add	r7, sp, #8
 8000302:	60f8      	str	r0, [r7, #12]
 8000304:	60b9      	str	r1, [r7, #8]
 8000306:	4613      	mov	r3, r2
 8000308:	71fb      	strb	r3, [r7, #7]
 800030a:	2300      	movs	r3, #0
 800030c:	757b      	strb	r3, [r7, #21]
 800030e:	2300      	movs	r3, #0
 8000310:	827b      	strh	r3, [r7, #18]
 8000312:	2300      	movs	r3, #0
 8000314:	82fb      	strh	r3, [r7, #22]
 8000316:	f44f 7380 	mov.w	r3, #256	; 0x100
 800031a:	823b      	strh	r3, [r7, #16]
 800031c:	68fb      	ldr	r3, [r7, #12]
 800031e:	f1b3 4fa0 	cmp.w	r3, #1342177280	; 0x50000000
 8000322:	d02a      	beq.n	800037a <USB_HC_StartXfer+0x7e>
 8000324:	68bb      	ldr	r3, [r7, #8]
 8000326:	791b      	ldrb	r3, [r3, #4]
 8000328:	2b00      	cmp	r3, #0
 800032a:	d126      	bne.n	800037a <USB_HC_StartXfer+0x7e>
 800032c:	79fb      	ldrb	r3, [r7, #7]
 800032e:	2b00      	cmp	r3, #0
 8000330:	d10b      	bne.n	800034a <USB_HC_StartXfer+0x4e>
 8000332:	68bb      	ldr	r3, [r7, #8]
 8000334:	795b      	ldrb	r3, [r3, #5]
 8000336:	2b01      	cmp	r3, #1
 8000338:	d107      	bne.n	800034a <USB_HC_StartXfer+0x4e>
 800033a:	68bb      	ldr	r3, [r7, #8]
 800033c:	785b      	ldrb	r3, [r3, #1]
 800033e:	4619      	mov	r1, r3
 8000340:	68f8      	ldr	r0, [r7, #12]
 8000342:	f000 fa23 	bl	800078c <USB_DoPing>
 8000346:	2300      	movs	r3, #0
 8000348:	e110      	b.n	800056c <USB_HC_StartXfer+0x270>
 800034a:	79fb      	ldrb	r3, [r7, #7]
 800034c:	2b01      	cmp	r3, #1
 800034e:	d114      	bne.n	800037a <USB_HC_StartXfer+0x7e>
 8000350:	68bb      	ldr	r3, [r7, #8]
 8000352:	785b      	ldrb	r3, [r3, #1]
 8000354:	015a      	lsls	r2, r3, #5
 8000356:	68fb      	ldr	r3, [r7, #12]
 8000358:	4413      	add	r3, r2
 800035a:	f503 63a0 	add.w	r3, r3, #1280	; 0x500
 800035e:	68db      	ldr	r3, [r3, #12]
 8000360:	68ba      	ldr	r2, [r7, #8]
 8000362:	7852      	ldrb	r2, [r2, #1]
 8000364:	0151      	lsls	r1, r2, #5
 8000366:	68fa      	ldr	r2, [r7, #12]
 8000368:	440a      	add	r2, r1
 800036a:	f502 62a0 	add.w	r2, r2, #1280	; 0x500
 800036e:	f023 0360 	bic.w	r3, r3, #96	; 0x60
 8000372:	60d3      	str	r3, [r2, #12]
 8000374:	68bb      	ldr	r3, [r7, #8]
 8000376:	2200      	movs	r2, #0
 8000378:	715a      	strb	r2, [r3, #5]
 800037a:	68bb      	ldr	r3, [r7, #8]
 800037c:	691b      	ldr	r3, [r3, #16]
 800037e:	2b00      	cmp	r3, #0
 8000380:	d019      	beq.n	80003b6 <USB_HC_StartXfer+0xba>
 8000382:	68bb      	ldr	r3, [r7, #8]
 8000384:	691b      	ldr	r3, [r3, #16]
 8000386:	68ba      	ldr	r2, [r7, #8]
 8000388:	8912      	ldrh	r2, [r2, #8]
 800038a:	4413      	add	r3, r2
 800038c:	3b01      	subs	r3, #1
 800038e:	68ba      	ldr	r2, [r7, #8]
 8000390:	8912      	ldrh	r2, [r2, #8]
 8000392:	fbb3 f3f2 	udiv	r3, r3, r2
 8000396:	82fb      	strh	r3, [r7, #22]
 8000398:	8afa      	ldrh	r2, [r7, #22]
 800039a:	8a3b      	ldrh	r3, [r7, #16]
 800039c:	429a      	cmp	r2, r3
 800039e:	d90c      	bls.n	80003ba <USB_HC_StartXfer+0xbe>
 80003a0:	8a3b      	ldrh	r3, [r7, #16]
 80003a2:	82fb      	strh	r3, [r7, #22]
 80003a4:	8afb      	ldrh	r3, [r7, #22]
 80003a6:	68ba      	ldr	r2, [r7, #8]
 80003a8:	8912      	ldrh	r2, [r2, #8]
 80003aa:	fb02 f303 	mul.w	r3, r2, r3
 80003ae:	461a      	mov	r2, r3
 80003b0:	68bb      	ldr	r3, [r7, #8]
 80003b2:	611a      	str	r2, [r3, #16]
 80003b4:	e001      	b.n	80003ba <USB_HC_StartXfer+0xbe>
 80003b6:	2301      	movs	r3, #1
 80003b8:	82fb      	strh	r3, [r7, #22]
 80003ba:	68bb      	ldr	r3, [r7, #8]
 80003bc:	78db      	ldrb	r3, [r3, #3]
 80003be:	2b00      	cmp	r3, #0
 80003c0:	d007      	beq.n	80003d2 <USB_HC_StartXfer+0xd6>
 80003c2:	8afb      	ldrh	r3, [r7, #22]
 80003c4:	68ba      	ldr	r2, [r7, #8]
 80003c6:	8912      	ldrh	r2, [r2, #8]
 80003c8:	fb02 f303 	mul.w	r3, r2, r3
 80003cc:	461a      	mov	r2, r3
 80003ce:	68bb      	ldr	r3, [r7, #8]
 80003d0:	611a      	str	r2, [r3, #16]
 80003d2:	68bb      	ldr	r3, [r7, #8]
 80003d4:	691b      	ldr	r3, [r3, #16]
 80003d6:	f3c3 0212 	ubfx	r2, r3, #0, #19
 80003da:	8afb      	ldrh	r3, [r7, #22]
 80003dc:	04db      	lsls	r3, r3, #19
 80003de:	4619      	mov	r1, r3
 80003e0:	4b64      	ldr	r3, [pc, #400]	; (8000574 <USB_HC_StartXfer+0x278>)
 80003e2:	400b      	ands	r3, r1
 80003e4:	431a      	orrs	r2, r3
 80003e6:	68bb      	ldr	r3, [r7, #8]
 80003e8:	7a9b      	ldrb	r3, [r3, #10]
 80003ea:	075b      	lsls	r3, r3, #29
 80003ec:	f003 43c0 	and.w	r3, r3, #1610612736	; 0x60000000
 80003f0:	68b9      	ldr	r1, [r7, #8]
 80003f2:	7849      	ldrb	r1, [r1, #1]
 80003f4:	0148      	lsls	r0, r1, #5
 80003f6:	68f9      	ldr	r1, [r7, #12]
 80003f8:	4401      	add	r1, r0
 80003fa:	f501 61a0 	add.w	r1, r1, #1280	; 0x500
 80003fe:	4313      	orrs	r3, r2
 8000400:	610b      	str	r3, [r1, #16]
 8000402:	79fb      	ldrb	r3, [r7, #7]
 8000404:	2b00      	cmp	r3, #0
 8000406:	d00a      	beq.n	800041e <USB_HC_StartXfer+0x122>
 8000408:	68bb      	ldr	r3, [r7, #8]
 800040a:	68d9      	ldr	r1, [r3, #12]
 800040c:	68bb      	ldr	r3, [r7, #8]
 800040e:	785b      	ldrb	r3, [r3, #1]
 8000410:	015a      	lsls	r2, r3, #5
 8000412:	68fb      	ldr	r3, [r7, #12]
 8000414:	4413      	add	r3, r2
 8000416:	f503 63a0 	add.w	r3, r3, #1280	; 0x500
 800041a:	460a      	mov	r2, r1
 800041c:	615a      	str	r2, [r3, #20]
 800041e:	68fb      	ldr	r3, [r7, #12]
 8000420:	f503 6380 	add.w	r3, r3, #1024	; 0x400
 8000424:	689b      	ldr	r3, [r3, #8]
 8000426:	f003 0301 	and.w	r3, r3, #1
 800042a:	2b00      	cmp	r3, #0
 800042c:	bf0c      	ite	eq
 800042e:	2301      	moveq	r3, #1
 8000430:	2300      	movne	r3, #0
 8000432:	b2db      	uxtb	r3, r3
 8000434:	757b      	strb	r3, [r7, #21]
 8000436:	68bb      	ldr	r3, [r7, #8]
 8000438:	785b      	ldrb	r3, [r3, #1]
 800043a:	015a      	lsls	r2, r3, #5
 800043c:	68fb      	ldr	r3, [r7, #12]
 800043e:	4413      	add	r3, r2
 8000440:	f503 63a0 	add.w	r3, r3, #1280	; 0x500
 8000444:	681b      	ldr	r3, [r3, #0]
 8000446:	68ba      	ldr	r2, [r7, #8]
 8000448:	7852      	ldrb	r2, [r2, #1]
 800044a:	0151      	lsls	r1, r2, #5
 800044c:	68fa      	ldr	r2, [r7, #12]
 800044e:	440a      	add	r2, r1
 8000450:	f502 62a0 	add.w	r2, r2, #1280	; 0x500
 8000454:	f023 5300 	bic.w	r3, r3, #536870912	; 0x20000000
 8000458:	6013      	str	r3, [r2, #0]
 800045a:	68bb      	ldr	r3, [r7, #8]
 800045c:	785b      	ldrb	r3, [r3, #1]
 800045e:	015a      	lsls	r2, r3, #5
 8000460:	68fb      	ldr	r3, [r7, #12]
 8000462:	4413      	add	r3, r2
 8000464:	f503 63a0 	add.w	r3, r3, #1280	; 0x500
 8000468:	681b      	ldr	r3, [r3, #0]
 800046a:	7d7a      	ldrb	r2, [r7, #21]
 800046c:	0752      	lsls	r2, r2, #29
 800046e:	4610      	mov	r0, r2
 8000470:	68ba      	ldr	r2, [r7, #8]
 8000472:	7852      	ldrb	r2, [r2, #1]
 8000474:	0151      	lsls	r1, r2, #5
 8000476:	68fa      	ldr	r2, [r7, #12]
 8000478:	440a      	add	r2, r1
 800047a:	f502 62a0 	add.w	r2, r2, #1280	; 0x500
 800047e:	4303      	orrs	r3, r0
 8000480:	6013      	str	r3, [r2, #0]
 8000482:	68bb      	ldr	r3, [r7, #8]
 8000484:	785b      	ldrb	r3, [r3, #1]
 8000486:	015a      	lsls	r2, r3, #5
 8000488:	68fb      	ldr	r3, [r7, #12]
 800048a:	4413      	add	r3, r2
 800048c:	f503 63a0 	add.w	r3, r3, #1280	; 0x500
 8000490:	681b      	ldr	r3, [r3, #0]
 8000492:	68ba      	ldr	r2, [r7, #8]
 8000494:	7852      	ldrb	r2, [r2, #1]
 8000496:	0151      	lsls	r1, r2, #5
 8000498:	68fa      	ldr	r2, [r7, #12]
 800049a:	440a      	add	r2, r1
 800049c:	f502 62a0 	add.w	r2, r2, #1280	; 0x500
 80004a0:	f023 4380 	bic.w	r3, r3, #1073741824	; 0x40000000
 80004a4:	6013      	str	r3, [r2, #0]
 80004a6:	68bb      	ldr	r3, [r7, #8]
 80004a8:	785b      	ldrb	r3, [r3, #1]
 80004aa:	015a      	lsls	r2, r3, #5
 80004ac:	68fb      	ldr	r3, [r7, #12]
 80004ae:	4413      	add	r3, r2
 80004b0:	f503 63a0 	add.w	r3, r3, #1280	; 0x500
 80004b4:	681b      	ldr	r3, [r3, #0]
 80004b6:	68ba      	ldr	r2, [r7, #8]
 80004b8:	7852      	ldrb	r2, [r2, #1]
 80004ba:	0151      	lsls	r1, r2, #5
 80004bc:	68fa      	ldr	r2, [r7, #12]
 80004be:	440a      	add	r2, r1
 80004c0:	f502 62a0 	add.w	r2, r2, #1280	; 0x500
 80004c4:	f043 4300 	orr.w	r3, r3, #2147483648	; 0x80000000
 80004c8:	6013      	str	r3, [r2, #0]
 80004ca:	79fb      	ldrb	r3, [r7, #7]
 80004cc:	2b00      	cmp	r3, #0
 80004ce:	d14c      	bne.n	800056a <USB_HC_StartXfer+0x26e>
 80004d0:	68bb      	ldr	r3, [r7, #8]
 80004d2:	78db      	ldrb	r3, [r3, #3]
 80004d4:	2b00      	cmp	r3, #0
 80004d6:	d148      	bne.n	800056a <USB_HC_StartXfer+0x26e>
 80004d8:	68bb      	ldr	r3, [r7, #8]
 80004da:	691b      	ldr	r3, [r3, #16]
 80004dc:	2b00      	cmp	r3, #0
 80004de:	d044      	beq.n	800056a <USB_HC_StartXfer+0x26e>
 80004e0:	68bb      	ldr	r3, [r7, #8]
 80004e2:	79db      	ldrb	r3, [r3, #7]
 80004e4:	2b03      	cmp	r3, #3
 80004e6:	d834      	bhi.n	8000552 <USB_HC_StartXfer+0x256>
 80004e8:	a201      	add	r2, pc, #4	; (adr r2, 80004f0 <USB_HC_StartXfer+0x1f4>)
 80004ea:	f852 f023 	ldr.w	pc, [r2, r3, lsl #2]
 80004ee:	bf00      	nop
 80004f0:	08000501 	.word	0x08000501
 80004f4:	08000525 	.word	0x08000525
 80004f8:	08000501 	.word	0x08000501
 80004fc:	08000525 	.word	0x08000525
 8000500:	68bb      	ldr	r3, [r7, #8]
 8000502:	691b      	ldr	r3, [r3, #16]
 8000504:	3303      	adds	r3, #3
 8000506:	089b      	lsrs	r3, r3, #2
 8000508:	827b      	strh	r3, [r7, #18]
 800050a:	8a7a      	ldrh	r2, [r7, #18]
 800050c:	68fb      	ldr	r3, [r7, #12]
 800050e:	6adb      	ldr	r3, [r3, #44]	; 0x2c
 8000510:	b29b      	uxth	r3, r3
 8000512:	429a      	cmp	r2, r3
 8000514:	d91a      	bls.n	800054c <USB_HC_StartXfer+0x250>
 8000516:	68fb      	ldr	r3, [r7, #12]
 8000518:	699b      	ldr	r3, [r3, #24]
 800051a:	f043 0220 	orr.w	r2, r3, #32
 800051e:	68fb      	ldr	r3, [r7, #12]
 8000520:	619a      	str	r2, [r3, #24]
 8000522:	e016      	b.n	8000552 <USB_HC_StartXfer+0x256>
 8000524:	68bb      	ldr	r3, [r7, #8]
 8000526:	691b      	ldr	r3, [r3, #16]
 8000528:	3303      	adds	r3, #3
 800052a:	089b      	lsrs	r3, r3, #2
 800052c:	827b      	strh	r3, [r7, #18]
 800052e:	8a7a      	ldrh	r2, [r7, #18]
 8000530:	68fb      	ldr	r3, [r7, #12]
 8000532:	f503 6380 	add.w	r3, r3, #1024	; 0x400
 8000536:	691b      	ldr	r3, [r3, #16]
 8000538:	b29b      	uxth	r3, r3
 800053a:	429a      	cmp	r2, r3
 800053c:	d908      	bls.n	8000550 <USB_HC_StartXfer+0x254>
 800053e:	68fb      	ldr	r3, [r7, #12]
 8000540:	699b      	ldr	r3, [r3, #24]
 8000542:	f043 6280 	orr.w	r2, r3, #67108864	; 0x4000000
 8000546:	68fb      	ldr	r3, [r7, #12]
 8000548:	619a      	str	r2, [r3, #24]
 800054a:	e002      	b.n	8000552 <USB_HC_StartXfer+0x256>
 800054c:	bf00      	nop
 800054e:	e000      	b.n	8000552 <USB_HC_StartXfer+0x256>
 8000550:	bf00      	nop
 8000552:	68bb      	ldr	r3, [r7, #8]
 8000554:	68d9      	ldr	r1, [r3, #12]
 8000556:	68bb      	ldr	r3, [r7, #8]
 8000558:	785a      	ldrb	r2, [r3, #1]
 800055a:	68bb      	ldr	r3, [r7, #8]
 800055c:	691b      	ldr	r3, [r3, #16]
 800055e:	b29b      	uxth	r3, r3
 8000560:	2000      	movs	r0, #0
 8000562:	9000      	str	r0, [sp, #0]
 8000564:	68f8      	ldr	r0, [r7, #12]
 8000566:	f000 fb7b 	bl	8000c60 <USB_WritePacket>
 800056a:	2300      	movs	r3, #0
 800056c:	4618      	mov	r0, r3
 800056e:	3718      	adds	r7, #24
 8000570:	46bd      	mov	sp, r7
 8000572:	bd80      	pop	{r7, pc}
 8000574:	1ff80000 	.word	0x1ff80000

08000578 <USB_HC_ReadInterrupt>:
USB_HC_ReadInterrupt():
 8000578:	b480      	push	{r7}
 800057a:	b083      	sub	sp, #12
 800057c:	af00      	add	r7, sp, #0
 800057e:	6078      	str	r0, [r7, #4]
 8000580:	687b      	ldr	r3, [r7, #4]
 8000582:	f503 6380 	add.w	r3, r3, #1024	; 0x400
 8000586:	695b      	ldr	r3, [r3, #20]
 8000588:	b29b      	uxth	r3, r3
 800058a:	4618      	mov	r0, r3
 800058c:	370c      	adds	r7, #12
 800058e:	46bd      	mov	sp, r7
 8000590:	f85d 7b04 	ldr.w	r7, [sp], #4
 8000594:	4770      	bx	lr
 8000596:	bf00      	nop

08000598 <USB_HC_Halt>:
USB_HC_Halt():
 8000598:	b480      	push	{r7}
 800059a:	b085      	sub	sp, #20
 800059c:	af00      	add	r7, sp, #0
 800059e:	6078      	str	r0, [r7, #4]
 80005a0:	460b      	mov	r3, r1
 80005a2:	70fb      	strb	r3, [r7, #3]
 80005a4:	2300      	movs	r3, #0
 80005a6:	60fb      	str	r3, [r7, #12]
 80005a8:	78fb      	ldrb	r3, [r7, #3]
 80005aa:	015a      	lsls	r2, r3, #5
 80005ac:	687b      	ldr	r3, [r7, #4]
 80005ae:	4413      	add	r3, r2
 80005b0:	f503 63a0 	add.w	r3, r3, #1280	; 0x500
 80005b4:	681b      	ldr	r3, [r3, #0]
 80005b6:	78fb      	ldrb	r3, [r7, #3]
 80005b8:	015a      	lsls	r2, r3, #5
 80005ba:	687b      	ldr	r3, [r7, #4]
 80005bc:	4413      	add	r3, r2
 80005be:	f503 63a0 	add.w	r3, r3, #1280	; 0x500
 80005c2:	681b      	ldr	r3, [r3, #0]
 80005c4:	f403 2300 	and.w	r3, r3, #524288	; 0x80000
 80005c8:	2b00      	cmp	r3, #0
 80005ca:	d06a      	beq.n	80006a2 <USB_HC_Halt+0x10a>
 80005cc:	78fb      	ldrb	r3, [r7, #3]
 80005ce:	015a      	lsls	r2, r3, #5
 80005d0:	687b      	ldr	r3, [r7, #4]
 80005d2:	4413      	add	r3, r2
 80005d4:	f503 63a0 	add.w	r3, r3, #1280	; 0x500
 80005d8:	681b      	ldr	r3, [r3, #0]
 80005da:	78fa      	ldrb	r2, [r7, #3]
 80005dc:	0151      	lsls	r1, r2, #5
 80005de:	687a      	ldr	r2, [r7, #4]
 80005e0:	440a      	add	r2, r1
 80005e2:	f502 62a0 	add.w	r2, r2, #1280	; 0x500
 80005e6:	f043 4380 	orr.w	r3, r3, #1073741824	; 0x40000000
 80005ea:	6013      	str	r3, [r2, #0]
 80005ec:	687b      	ldr	r3, [r7, #4]
 80005ee:	6adb      	ldr	r3, [r3, #44]	; 0x2c
 80005f0:	b29b      	uxth	r3, r3
 80005f2:	2b00      	cmp	r3, #0
 80005f4:	d144      	bne.n	8000680 <USB_HC_Halt+0xe8>
 80005f6:	78fb      	ldrb	r3, [r7, #3]
 80005f8:	015a      	lsls	r2, r3, #5
 80005fa:	687b      	ldr	r3, [r7, #4]
 80005fc:	4413      	add	r3, r2
 80005fe:	f503 63a0 	add.w	r3, r3, #1280	; 0x500
 8000602:	681b      	ldr	r3, [r3, #0]
 8000604:	78fa      	ldrb	r2, [r7, #3]
 8000606:	0151      	lsls	r1, r2, #5
 8000608:	687a      	ldr	r2, [r7, #4]
 800060a:	440a      	add	r2, r1
 800060c:	f502 62a0 	add.w	r2, r2, #1280	; 0x500
 8000610:	f023 4300 	bic.w	r3, r3, #2147483648	; 0x80000000
 8000614:	6013      	str	r3, [r2, #0]
 8000616:	78fb      	ldrb	r3, [r7, #3]
 8000618:	015a      	lsls	r2, r3, #5
 800061a:	687b      	ldr	r3, [r7, #4]
 800061c:	4413      	add	r3, r2
 800061e:	f503 63a0 	add.w	r3, r3, #1280	; 0x500
 8000622:	681b      	ldr	r3, [r3, #0]
 8000624:	78fa      	ldrb	r2, [r7, #3]
 8000626:	0151      	lsls	r1, r2, #5
 8000628:	687a      	ldr	r2, [r7, #4]
 800062a:	440a      	add	r2, r1
 800062c:	f502 62a0 	add.w	r2, r2, #1280	; 0x500
 8000630:	f043 4300 	orr.w	r3, r3, #2147483648	; 0x80000000
 8000634:	6013      	str	r3, [r2, #0]
 8000636:	78fb      	ldrb	r3, [r7, #3]
 8000638:	015a      	lsls	r2, r3, #5
 800063a:	687b      	ldr	r3, [r7, #4]
 800063c:	4413      	add	r3, r2
 800063e:	f503 63a0 	add.w	r3, r3, #1280	; 0x500
 8000642:	681b      	ldr	r3, [r3, #0]
 8000644:	78fa      	ldrb	r2, [r7, #3]
 8000646:	0151      	lsls	r1, r2, #5
 8000648:	687a      	ldr	r2, [r7, #4]
 800064a:	440a      	add	r2, r1
 800064c:	f502 62a0 	add.w	r2, r2, #1280	; 0x500
 8000650:	f423 4300 	bic.w	r3, r3, #32768	; 0x8000
 8000654:	6013      	str	r3, [r2, #0]
 8000656:	68fb      	ldr	r3, [r7, #12]
 8000658:	3301      	adds	r3, #1
 800065a:	60fb      	str	r3, [r7, #12]
 800065c:	68fb      	ldr	r3, [r7, #12]
 800065e:	f5b3 7f7a 	cmp.w	r3, #1000	; 0x3e8
 8000662:	f200 808a 	bhi.w	800077a <USB_HC_Halt+0x1e2>
 8000666:	78fb      	ldrb	r3, [r7, #3]
 8000668:	015a      	lsls	r2, r3, #5
 800066a:	687b      	ldr	r3, [r7, #4]
 800066c:	4413      	add	r3, r2
 800066e:	f503 63a0 	add.w	r3, r3, #1280	; 0x500
 8000672:	681b      	ldr	r3, [r3, #0]
 8000674:	f003 4300 	and.w	r3, r3, #2147483648	; 0x80000000
 8000678:	f1b3 4f00 	cmp.w	r3, #2147483648	; 0x80000000
 800067c:	d0eb      	beq.n	8000656 <USB_HC_Halt+0xbe>
 800067e:	e07c      	b.n	800077a <USB_HC_Halt+0x1e2>
 8000680:	78fb      	ldrb	r3, [r7, #3]
 8000682:	015a      	lsls	r2, r3, #5
 8000684:	687b      	ldr	r3, [r7, #4]
 8000686:	4413      	add	r3, r2
 8000688:	f503 63a0 	add.w	r3, r3, #1280	; 0x500
 800068c:	681b      	ldr	r3, [r3, #0]
 800068e:	78fa      	ldrb	r2, [r7, #3]
 8000690:	0151      	lsls	r1, r2, #5
 8000692:	687a      	ldr	r2, [r7, #4]
 8000694:	440a      	add	r2, r1
 8000696:	f502 62a0 	add.w	r2, r2, #1280	; 0x500
 800069a:	f043 4300 	orr.w	r3, r3, #2147483648	; 0x80000000
 800069e:	6013      	str	r3, [r2, #0]
 80006a0:	e06c      	b.n	800077c <USB_HC_Halt+0x1e4>
 80006a2:	78fb      	ldrb	r3, [r7, #3]
 80006a4:	015a      	lsls	r2, r3, #5
 80006a6:	687b      	ldr	r3, [r7, #4]
 80006a8:	4413      	add	r3, r2
 80006aa:	f503 63a0 	add.w	r3, r3, #1280	; 0x500
 80006ae:	681b      	ldr	r3, [r3, #0]
 80006b0:	78fa      	ldrb	r2, [r7, #3]
 80006b2:	0151      	lsls	r1, r2, #5
 80006b4:	687a      	ldr	r2, [r7, #4]
 80006b6:	440a      	add	r2, r1
 80006b8:	f502 62a0 	add.w	r2, r2, #1280	; 0x500
 80006bc:	f043 4380 	orr.w	r3, r3, #1073741824	; 0x40000000
 80006c0:	6013      	str	r3, [r2, #0]
 80006c2:	687b      	ldr	r3, [r7, #4]
 80006c4:	f503 6380 	add.w	r3, r3, #1024	; 0x400
 80006c8:	691b      	ldr	r3, [r3, #16]
 80006ca:	b29b      	uxth	r3, r3
 80006cc:	2b00      	cmp	r3, #0
 80006ce:	d143      	bne.n	8000758 <USB_HC_Halt+0x1c0>
 80006d0:	78fb      	ldrb	r3, [r7, #3]
 80006d2:	015a      	lsls	r2, r3, #5
 80006d4:	687b      	ldr	r3, [r7, #4]
 80006d6:	4413      	add	r3, r2
 80006d8:	f503 63a0 	add.w	r3, r3, #1280	; 0x500
 80006dc:	681b      	ldr	r3, [r3, #0]
 80006de:	78fa      	ldrb	r2, [r7, #3]
 80006e0:	0151      	lsls	r1, r2, #5
 80006e2:	687a      	ldr	r2, [r7, #4]
 80006e4:	440a      	add	r2, r1
 80006e6:	f502 62a0 	add.w	r2, r2, #1280	; 0x500
 80006ea:	f023 4300 	bic.w	r3, r3, #2147483648	; 0x80000000
 80006ee:	6013      	str	r3, [r2, #0]
 80006f0:	78fb      	ldrb	r3, [r7, #3]
 80006f2:	015a      	lsls	r2, r3, #5
 80006f4:	687b      	ldr	r3, [r7, #4]
 80006f6:	4413      	add	r3, r2
 80006f8:	f503 63a0 	add.w	r3, r3, #1280	; 0x500
 80006fc:	681b      	ldr	r3, [r3, #0]
 80006fe:	78fa      	ldrb	r2, [r7, #3]
 8000700:	0151      	lsls	r1, r2, #5
 8000702:	687a      	ldr	r2, [r7, #4]
 8000704:	440a      	add	r2, r1
 8000706:	f502 62a0 	add.w	r2, r2, #1280	; 0x500
 800070a:	f043 4300 	orr.w	r3, r3, #2147483648	; 0x80000000
 800070e:	6013      	str	r3, [r2, #0]
 8000710:	78fb      	ldrb	r3, [r7, #3]
 8000712:	015a      	lsls	r2, r3, #5
 8000714:	687b      	ldr	r3, [r7, #4]
 8000716:	4413      	add	r3, r2
 8000718:	f503 63a0 	add.w	r3, r3, #1280	; 0x500
 800071c:	681b      	ldr	r3, [r3, #0]
 800071e:	78fa      	ldrb	r2, [r7, #3]
 8000720:	0151      	lsls	r1, r2, #5
 8000722:	687a      	ldr	r2, [r7, #4]
 8000724:	440a      	add	r2, r1
 8000726:	f502 62a0 	add.w	r2, r2, #1280	; 0x500
 800072a:	f423 4300 	bic.w	r3, r3, #32768	; 0x8000
 800072e:	6013      	str	r3, [r2, #0]
 8000730:	68fb      	ldr	r3, [r7, #12]
 8000732:	3301      	adds	r3, #1
 8000734:	60fb      	str	r3, [r7, #12]
 8000736:	68fb      	ldr	r3, [r7, #12]
 8000738:	f5b3 7f7a 	cmp.w	r3, #1000	; 0x3e8
 800073c:	d81e      	bhi.n	800077c <USB_HC_Halt+0x1e4>
 800073e:	78fb      	ldrb	r3, [r7, #3]
 8000740:	015a      	lsls	r2, r3, #5
 8000742:	687b      	ldr	r3, [r7, #4]
 8000744:	4413      	add	r3, r2
 8000746:	f503 63a0 	add.w	r3, r3, #1280	; 0x500
 800074a:	681b      	ldr	r3, [r3, #0]
 800074c:	f003 4300 	and.w	r3, r3, #2147483648	; 0x80000000
 8000750:	f1b3 4f00 	cmp.w	r3, #2147483648	; 0x80000000
 8000754:	d0ec      	beq.n	8000730 <USB_HC_Halt+0x198>
 8000756:	e011      	b.n	800077c <USB_HC_Halt+0x1e4>
 8000758:	78fb      	ldrb	r3, [r7, #3]
 800075a:	015a      	lsls	r2, r3, #5
 800075c:	687b      	ldr	r3, [r7, #4]
 800075e:	4413      	add	r3, r2
 8000760:	f503 63a0 	add.w	r3, r3, #1280	; 0x500
 8000764:	681b      	ldr	r3, [r3, #0]
 8000766:	78fa      	ldrb	r2, [r7, #3]
 8000768:	0151      	lsls	r1, r2, #5
 800076a:	687a      	ldr	r2, [r7, #4]
 800076c:	440a      	add	r2, r1
 800076e:	f502 62a0 	add.w	r2, r2, #1280	; 0x500
 8000772:	f043 4300 	orr.w	r3, r3, #2147483648	; 0x80000000
 8000776:	6013      	str	r3, [r2, #0]
 8000778:	e000      	b.n	800077c <USB_HC_Halt+0x1e4>
 800077a:	bf00      	nop
 800077c:	2300      	movs	r3, #0
 800077e:	4618      	mov	r0, r3
 8000780:	3714      	adds	r7, #20
 8000782:	46bd      	mov	sp, r7
 8000784:	f85d 7b04 	ldr.w	r7, [sp], #4
 8000788:	4770      	bx	lr
 800078a:	bf00      	nop

0800078c <USB_DoPing>:
USB_DoPing():
 800078c:	b480      	push	{r7}
 800078e:	b085      	sub	sp, #20
 8000790:	af00      	add	r7, sp, #0
 8000792:	6078      	str	r0, [r7, #4]
 8000794:	460b      	mov	r3, r1
 8000796:	70fb      	strb	r3, [r7, #3]
 8000798:	2301      	movs	r3, #1
 800079a:	73fb      	strb	r3, [r7, #15]
 800079c:	7bfb      	ldrb	r3, [r7, #15]
 800079e:	04db      	lsls	r3, r3, #19
 80007a0:	461a      	mov	r2, r3
 80007a2:	4b19      	ldr	r3, [pc, #100]	; (8000808 <USB_DoPing+0x7c>)
 80007a4:	4013      	ands	r3, r2
 80007a6:	78fa      	ldrb	r2, [r7, #3]
 80007a8:	0151      	lsls	r1, r2, #5
 80007aa:	687a      	ldr	r2, [r7, #4]
 80007ac:	440a      	add	r2, r1
 80007ae:	f502 62a0 	add.w	r2, r2, #1280	; 0x500
 80007b2:	f043 4300 	orr.w	r3, r3, #2147483648	; 0x80000000
 80007b6:	6113      	str	r3, [r2, #16]
 80007b8:	78fb      	ldrb	r3, [r7, #3]
 80007ba:	015a      	lsls	r2, r3, #5
 80007bc:	687b      	ldr	r3, [r7, #4]
 80007be:	4413      	add	r3, r2
 80007c0:	f503 63a0 	add.w	r3, r3, #1280	; 0x500
 80007c4:	681b      	ldr	r3, [r3, #0]
 80007c6:	78fa      	ldrb	r2, [r7, #3]
 80007c8:	0151      	lsls	r1, r2, #5
 80007ca:	687a      	ldr	r2, [r7, #4]
 80007cc:	440a      	add	r2, r1
 80007ce:	f502 62a0 	add.w	r2, r2, #1280	; 0x500
 80007d2:	f023 4380 	bic.w	r3, r3, #1073741824	; 0x40000000
 80007d6:	6013      	str	r3, [r2, #0]
 80007d8:	78fb      	ldrb	r3, [r7, #3]
 80007da:	015a      	lsls	r2, r3, #5
 80007dc:	687b      	ldr	r3, [r7, #4]
 80007de:	4413      	add	r3, r2
 80007e0:	f503 63a0 	add.w	r3, r3, #1280	; 0x500
 80007e4:	681b      	ldr	r3, [r3, #0]
 80007e6:	78fa      	ldrb	r2, [r7, #3]
 80007e8:	0151      	lsls	r1, r2, #5
 80007ea:	687a      	ldr	r2, [r7, #4]
 80007ec:	440a      	add	r2, r1
 80007ee:	f502 62a0 	add.w	r2, r2, #1280	; 0x500
 80007f2:	f043 4300 	orr.w	r3, r3, #2147483648	; 0x80000000
 80007f6:	6013      	str	r3, [r2, #0]
 80007f8:	2300      	movs	r3, #0
 80007fa:	4618      	mov	r0, r3
 80007fc:	3714      	adds	r7, #20
 80007fe:	46bd      	mov	sp, r7
 8000800:	f85d 7b04 	ldr.w	r7, [sp], #4
 8000804:	4770      	bx	lr
 8000806:	bf00      	nop
 8000808:	1ff80000 	.word	0x1ff80000

0800080c <USB_StopHost>:
USB_StopHost():
 800080c:	b580      	push	{r7, lr}
 800080e:	b086      	sub	sp, #24
 8000810:	af00      	add	r7, sp, #0
 8000812:	6078      	str	r0, [r7, #4]
 8000814:	2300      	movs	r3, #0
 8000816:	613b      	str	r3, [r7, #16]
 8000818:	6878      	ldr	r0, [r7, #4]
 800081a:	f000 f9f7 	bl	8000c0c <USB_DisableGlobalInt>
 800081e:	2110      	movs	r1, #16
 8000820:	6878      	ldr	r0, [r7, #4]
 8000822:	f000 f9fb 	bl	8000c1c <USB_FlushTxFifo>
 8000826:	6878      	ldr	r0, [r7, #4]
 8000828:	f000 fa0a 	bl	8000c40 <USB_FlushRxFifo>
 800082c:	2300      	movs	r3, #0
 800082e:	75fb      	strb	r3, [r7, #23]
 8000830:	e01f      	b.n	8000872 <USB_StopHost+0x66>
 8000832:	7dfb      	ldrb	r3, [r7, #23]
 8000834:	015a      	lsls	r2, r3, #5
 8000836:	687b      	ldr	r3, [r7, #4]
 8000838:	4413      	add	r3, r2
 800083a:	f503 63a0 	add.w	r3, r3, #1280	; 0x500
 800083e:	681b      	ldr	r3, [r3, #0]
 8000840:	60fb      	str	r3, [r7, #12]
 8000842:	68fb      	ldr	r3, [r7, #12]
 8000844:	f043 4380 	orr.w	r3, r3, #1073741824	; 0x40000000
 8000848:	60fb      	str	r3, [r7, #12]
 800084a:	68fb      	ldr	r3, [r7, #12]
 800084c:	f023 4300 	bic.w	r3, r3, #2147483648	; 0x80000000
 8000850:	60fb      	str	r3, [r7, #12]
 8000852:	68fb      	ldr	r3, [r7, #12]
 8000854:	f423 4300 	bic.w	r3, r3, #32768	; 0x8000
 8000858:	60fb      	str	r3, [r7, #12]
 800085a:	7dfb      	ldrb	r3, [r7, #23]
 800085c:	015a      	lsls	r2, r3, #5
 800085e:	687b      	ldr	r3, [r7, #4]
 8000860:	4413      	add	r3, r2
 8000862:	f503 63a0 	add.w	r3, r3, #1280	; 0x500
 8000866:	461a      	mov	r2, r3
 8000868:	68fb      	ldr	r3, [r7, #12]
 800086a:	6013      	str	r3, [r2, #0]
 800086c:	7dfb      	ldrb	r3, [r7, #23]
 800086e:	3301      	adds	r3, #1
 8000870:	75fb      	strb	r3, [r7, #23]
 8000872:	7dfb      	ldrb	r3, [r7, #23]
 8000874:	2b0f      	cmp	r3, #15
 8000876:	d9dc      	bls.n	8000832 <USB_StopHost+0x26>
 8000878:	2300      	movs	r3, #0
 800087a:	75fb      	strb	r3, [r7, #23]
 800087c:	e032      	b.n	80008e4 <USB_StopHost+0xd8>
 800087e:	7dfb      	ldrb	r3, [r7, #23]
 8000880:	015a      	lsls	r2, r3, #5
 8000882:	687b      	ldr	r3, [r7, #4]
 8000884:	4413      	add	r3, r2
 8000886:	f503 63a0 	add.w	r3, r3, #1280	; 0x500
 800088a:	681b      	ldr	r3, [r3, #0]
 800088c:	60fb      	str	r3, [r7, #12]
 800088e:	68fb      	ldr	r3, [r7, #12]
 8000890:	f043 4380 	orr.w	r3, r3, #1073741824	; 0x40000000
 8000894:	60fb      	str	r3, [r7, #12]
 8000896:	68fb      	ldr	r3, [r7, #12]
 8000898:	f043 4300 	orr.w	r3, r3, #2147483648	; 0x80000000
 800089c:	60fb      	str	r3, [r7, #12]
 800089e:	68fb      	ldr	r3, [r7, #12]
 80008a0:	f423 4300 	bic.w	r3, r3, #32768	; 0x8000
 80008a4:	60fb      	str	r3, [r7, #12]
 80008a6:	7dfb      	ldrb	r3, [r7, #23]
 80008a8:	015a      	lsls	r2, r3, #5
 80008aa:	687b      	ldr	r3, [r7, #4]
 80008ac:	4413      	add	r3, r2
 80008ae:	f503 63a0 	add.w	r3, r3, #1280	; 0x500
 80008b2:	461a      	mov	r2, r3
 80008b4:	68fb      	ldr	r3, [r7, #12]
 80008b6:	6013      	str	r3, [r2, #0]
 80008b8:	693b      	ldr	r3, [r7, #16]
 80008ba:	3301      	adds	r3, #1
 80008bc:	613b      	str	r3, [r7, #16]
 80008be:	693b      	ldr	r3, [r7, #16]
 80008c0:	f5b3 7f7a 	cmp.w	r3, #1000	; 0x3e8
 80008c4:	d80b      	bhi.n	80008de <USB_StopHost+0xd2>
 80008c6:	7dfb      	ldrb	r3, [r7, #23]
 80008c8:	015a      	lsls	r2, r3, #5
 80008ca:	687b      	ldr	r3, [r7, #4]
 80008cc:	4413      	add	r3, r2
 80008ce:	f503 63a0 	add.w	r3, r3, #1280	; 0x500
 80008d2:	681b      	ldr	r3, [r3, #0]
 80008d4:	f003 4300 	and.w	r3, r3, #2147483648	; 0x80000000
 80008d8:	f1b3 4f00 	cmp.w	r3, #2147483648	; 0x80000000
 80008dc:	d0ec      	beq.n	80008b8 <USB_StopHost+0xac>
 80008de:	7dfb      	ldrb	r3, [r7, #23]
 80008e0:	3301      	adds	r3, #1
 80008e2:	75fb      	strb	r3, [r7, #23]
 80008e4:	7dfb      	ldrb	r3, [r7, #23]
 80008e6:	2b0f      	cmp	r3, #15
 80008e8:	d9c9      	bls.n	800087e <USB_StopHost+0x72>
 80008ea:	687b      	ldr	r3, [r7, #4]
 80008ec:	f503 6380 	add.w	r3, r3, #1024	; 0x400
 80008f0:	461a      	mov	r2, r3
 80008f2:	f04f 33ff 	mov.w	r3, #4294967295	; 0xffffffff
 80008f6:	6153      	str	r3, [r2, #20]
 80008f8:	687b      	ldr	r3, [r7, #4]
 80008fa:	f04f 32ff 	mov.w	r2, #4294967295	; 0xffffffff
 80008fe:	615a      	str	r2, [r3, #20]
 8000900:	6878      	ldr	r0, [r7, #4]
 8000902:	f000 f97b 	bl	8000bfc <USB_EnableGlobalInt>
 8000906:	2300      	movs	r3, #0
 8000908:	4618      	mov	r0, r3
 800090a:	3718      	adds	r7, #24
 800090c:	46bd      	mov	sp, r7
 800090e:	bd80      	pop	{r7, pc}

08000910 <USBH_MIDI_ClassRequest>:
USBH_MIDI_ClassRequest():
 8000910:	b508      	push	{r3, lr}
 8000912:	2102      	movs	r1, #2
 8000914:	f8d0 3614 	ldr.w	r3, [r0, #1556]	; 0x614
 8000918:	4798      	blx	r3
 800091a:	2000      	movs	r0, #0
 800091c:	bd08      	pop	{r3, pc}
 800091e:	bf00      	nop

08000920 <USBH_MIDI_SOFProcess>:
USBH_MIDI_SOFProcess():
 8000920:	2000      	movs	r0, #0
 8000922:	4770      	bx	lr

08000924 <HAL_Delay>:
HAL_Delay():
 8000924:	b082      	sub	sp, #8
 8000926:	4905      	ldr	r1, [pc, #20]	; (800093c <HAL_Delay+0x18>)
 8000928:	9001      	str	r0, [sp, #4]
 800092a:	6808      	ldr	r0, [r1, #0]
 800092c:	680b      	ldr	r3, [r1, #0]
 800092e:	9a01      	ldr	r2, [sp, #4]
 8000930:	1a1b      	subs	r3, r3, r0
 8000932:	4293      	cmp	r3, r2
 8000934:	d3fa      	bcc.n	800092c <HAL_Delay+0x8>
 8000936:	b002      	add	sp, #8
 8000938:	4770      	bx	lr
 800093a:	bf00      	nop
 800093c:	2001f720 	.word	0x2001f720

08000940 <HAL_GPIO_Init>:
HAL_GPIO_Init():
 8000940:	e92d 4f70 	stmdb	sp!, {r4, r5, r6, r8, r9, sl, fp, lr}
 8000944:	2300      	movs	r3, #0
 8000946:	680d      	ldr	r5, [r1, #0]
 8000948:	f8df 8274 	ldr.w	r8, [pc, #628]	; 8000bc0 <HAL_GPIO_Init+0x280>
 800094c:	b082      	sub	sp, #8
 800094e:	e003      	b.n	8000958 <HAL_GPIO_Init+0x18>
 8000950:	3301      	adds	r3, #1
 8000952:	2b10      	cmp	r3, #16
 8000954:	f000 80aa 	beq.w	8000aac <HAL_GPIO_Init+0x16c>
 8000958:	2201      	movs	r2, #1
 800095a:	409a      	lsls	r2, r3
 800095c:	ea32 0405 	bics.w	r4, r2, r5
 8000960:	ea02 0c05 	and.w	ip, r2, r5
 8000964:	d1f4      	bne.n	8000950 <HAL_GPIO_Init+0x10>
 8000966:	684e      	ldr	r6, [r1, #4]
 8000968:	f026 0910 	bic.w	r9, r6, #16
 800096c:	f1b9 0f02 	cmp.w	r9, #2
 8000970:	f000 809f 	beq.w	8000ab2 <HAL_GPIO_Init+0x172>
 8000974:	f8d0 b000 	ldr.w	fp, [r0]
 8000978:	ea4f 0e43 	mov.w	lr, r3, lsl #1
 800097c:	2403      	movs	r4, #3
 800097e:	fa04 f40e 	lsl.w	r4, r4, lr
 8000982:	f006 0a03 	and.w	sl, r6, #3
 8000986:	ea2b 0b04 	bic.w	fp, fp, r4
 800098a:	f109 39ff 	add.w	r9, r9, #4294967295	; 0xffffffff
 800098e:	fa0a fa0e 	lsl.w	sl, sl, lr
 8000992:	43e4      	mvns	r4, r4
 8000994:	ea4a 0a0b 	orr.w	sl, sl, fp
 8000998:	f1b9 0f01 	cmp.w	r9, #1
 800099c:	9401      	str	r4, [sp, #4]
 800099e:	f8c0 a000 	str.w	sl, [r0]
 80009a2:	f240 80b0 	bls.w	8000b06 <HAL_GPIO_Init+0x1c6>
 80009a6:	68c2      	ldr	r2, [r0, #12]
 80009a8:	9c01      	ldr	r4, [sp, #4]
 80009aa:	4014      	ands	r4, r2
 80009ac:	688a      	ldr	r2, [r1, #8]
 80009ae:	fa02 f20e 	lsl.w	r2, r2, lr
 80009b2:	4322      	orrs	r2, r4
 80009b4:	60c2      	str	r2, [r0, #12]
 80009b6:	00f2      	lsls	r2, r6, #3
 80009b8:	d5ca      	bpl.n	8000950 <HAL_GPIO_Init+0x10>
 80009ba:	4c7a      	ldr	r4, [pc, #488]	; (8000ba4 <HAL_GPIO_Init+0x264>)
 80009bc:	6c62      	ldr	r2, [r4, #68]	; 0x44
 80009be:	f442 4280 	orr.w	r2, r2, #16384	; 0x4000
 80009c2:	6462      	str	r2, [r4, #68]	; 0x44
 80009c4:	f023 0203 	bic.w	r2, r3, #3
 80009c8:	f102 4280 	add.w	r2, r2, #1073741824	; 0x40000000
 80009cc:	f502 329c 	add.w	r2, r2, #79872	; 0x13800
 80009d0:	f003 0903 	and.w	r9, r3, #3
 80009d4:	f8d2 e008 	ldr.w	lr, [r2, #8]
 80009d8:	ea4f 0989 	mov.w	r9, r9, lsl #2
 80009dc:	240f      	movs	r4, #15
 80009de:	fa04 f409 	lsl.w	r4, r4, r9
 80009e2:	ea2e 0a04 	bic.w	sl, lr, r4
 80009e6:	4c70      	ldr	r4, [pc, #448]	; (8000ba8 <HAL_GPIO_Init+0x268>)
 80009e8:	42a0      	cmp	r0, r4
 80009ea:	d02e      	beq.n	8000a4a <HAL_GPIO_Init+0x10a>
 80009ec:	f504 6480 	add.w	r4, r4, #1024	; 0x400
 80009f0:	42a0      	cmp	r0, r4
 80009f2:	f000 809e 	beq.w	8000b32 <HAL_GPIO_Init+0x1f2>
 80009f6:	4c6d      	ldr	r4, [pc, #436]	; (8000bac <HAL_GPIO_Init+0x26c>)
 80009f8:	42a0      	cmp	r0, r4
 80009fa:	f000 80a1 	beq.w	8000b40 <HAL_GPIO_Init+0x200>
 80009fe:	4c6c      	ldr	r4, [pc, #432]	; (8000bb0 <HAL_GPIO_Init+0x270>)
 8000a00:	42a0      	cmp	r0, r4
 8000a02:	f000 80a4 	beq.w	8000b4e <HAL_GPIO_Init+0x20e>
 8000a06:	4c6b      	ldr	r4, [pc, #428]	; (8000bb4 <HAL_GPIO_Init+0x274>)
 8000a08:	42a0      	cmp	r0, r4
 8000a0a:	f000 80a7 	beq.w	8000b5c <HAL_GPIO_Init+0x21c>
 8000a0e:	4c6a      	ldr	r4, [pc, #424]	; (8000bb8 <HAL_GPIO_Init+0x278>)
 8000a10:	42a0      	cmp	r0, r4
 8000a12:	f000 80b1 	beq.w	8000b78 <HAL_GPIO_Init+0x238>
 8000a16:	4c69      	ldr	r4, [pc, #420]	; (8000bbc <HAL_GPIO_Init+0x27c>)
 8000a18:	42a0      	cmp	r0, r4
 8000a1a:	f000 80b4 	beq.w	8000b86 <HAL_GPIO_Init+0x246>
 8000a1e:	f8df e1a4 	ldr.w	lr, [pc, #420]	; 8000bc4 <HAL_GPIO_Init+0x284>
 8000a22:	4570      	cmp	r0, lr
 8000a24:	f000 80a1 	beq.w	8000b6a <HAL_GPIO_Init+0x22a>
 8000a28:	f8df e19c 	ldr.w	lr, [pc, #412]	; 8000bc8 <HAL_GPIO_Init+0x288>
 8000a2c:	4570      	cmp	r0, lr
 8000a2e:	f000 80b1 	beq.w	8000b94 <HAL_GPIO_Init+0x254>
 8000a32:	f8df e198 	ldr.w	lr, [pc, #408]	; 8000bcc <HAL_GPIO_Init+0x28c>
 8000a36:	4570      	cmp	r0, lr
 8000a38:	bf0c      	ite	eq
 8000a3a:	f04f 0e09 	moveq.w	lr, #9
 8000a3e:	f04f 0e0a 	movne.w	lr, #10
 8000a42:	fa0e f909 	lsl.w	r9, lr, r9
 8000a46:	ea4a 0a09 	orr.w	sl, sl, r9
 8000a4a:	f8c2 a008 	str.w	sl, [r2, #8]
 8000a4e:	f8d8 2000 	ldr.w	r2, [r8]
 8000a52:	ea6f 0e0c 	mvn.w	lr, ip
 8000a56:	03f4      	lsls	r4, r6, #15
 8000a58:	bf54      	ite	pl
 8000a5a:	ea0e 0202 	andpl.w	r2, lr, r2
 8000a5e:	ea4c 0202 	orrmi.w	r2, ip, r2
 8000a62:	f8c8 2000 	str.w	r2, [r8]
 8000a66:	f8d8 4004 	ldr.w	r4, [r8, #4]
 8000a6a:	03b2      	lsls	r2, r6, #14
 8000a6c:	bf54      	ite	pl
 8000a6e:	ea0e 0404 	andpl.w	r4, lr, r4
 8000a72:	ea4c 0404 	orrmi.w	r4, ip, r4
 8000a76:	f8c8 4004 	str.w	r4, [r8, #4]
 8000a7a:	f8d8 4008 	ldr.w	r4, [r8, #8]
 8000a7e:	02f2      	lsls	r2, r6, #11
 8000a80:	bf54      	ite	pl
 8000a82:	ea0e 0404 	andpl.w	r4, lr, r4
 8000a86:	ea4c 0404 	orrmi.w	r4, ip, r4
 8000a8a:	f8c8 4008 	str.w	r4, [r8, #8]
 8000a8e:	f8d8 200c 	ldr.w	r2, [r8, #12]
 8000a92:	02b4      	lsls	r4, r6, #10
 8000a94:	f103 0301 	add.w	r3, r3, #1
 8000a98:	bf54      	ite	pl
 8000a9a:	ea0e 0202 	andpl.w	r2, lr, r2
 8000a9e:	ea4c 0202 	orrmi.w	r2, ip, r2
 8000aa2:	2b10      	cmp	r3, #16
 8000aa4:	f8c8 200c 	str.w	r2, [r8, #12]
 8000aa8:	f47f af56 	bne.w	8000958 <HAL_GPIO_Init+0x18>
 8000aac:	b002      	add	sp, #8
 8000aae:	e8bd 8f70 	ldmia.w	sp!, {r4, r5, r6, r8, r9, sl, fp, pc}
 8000ab2:	ea4f 0ed3 	mov.w	lr, r3, lsr #3
 8000ab6:	eb00 0e8e 	add.w	lr, r0, lr, lsl #2
 8000aba:	690c      	ldr	r4, [r1, #16]
 8000abc:	f8de a020 	ldr.w	sl, [lr, #32]
 8000ac0:	f003 0907 	and.w	r9, r3, #7
 8000ac4:	ea4f 0989 	mov.w	r9, r9, lsl #2
 8000ac8:	f04f 0b0f 	mov.w	fp, #15
 8000acc:	fa04 f409 	lsl.w	r4, r4, r9
 8000ad0:	fa0b f909 	lsl.w	r9, fp, r9
 8000ad4:	ea2a 0909 	bic.w	r9, sl, r9
 8000ad8:	ea44 0409 	orr.w	r4, r4, r9
 8000adc:	f8ce 4020 	str.w	r4, [lr, #32]
 8000ae0:	f8d0 a000 	ldr.w	sl, [r0]
 8000ae4:	ea4f 0e43 	mov.w	lr, r3, lsl #1
 8000ae8:	2403      	movs	r4, #3
 8000aea:	fa04 f40e 	lsl.w	r4, r4, lr
 8000aee:	f006 0903 	and.w	r9, r6, #3
 8000af2:	ea2a 0a04 	bic.w	sl, sl, r4
 8000af6:	fa09 f90e 	lsl.w	r9, r9, lr
 8000afa:	43e4      	mvns	r4, r4
 8000afc:	ea49 090a 	orr.w	r9, r9, sl
 8000b00:	9401      	str	r4, [sp, #4]
 8000b02:	f8c0 9000 	str.w	r9, [r0]
 8000b06:	f8d0 a008 	ldr.w	sl, [r0, #8]
 8000b0a:	ea0a 0a04 	and.w	sl, sl, r4
 8000b0e:	68cc      	ldr	r4, [r1, #12]
 8000b10:	fa04 f90e 	lsl.w	r9, r4, lr
 8000b14:	ea49 090a 	orr.w	r9, r9, sl
 8000b18:	f8c0 9008 	str.w	r9, [r0, #8]
 8000b1c:	f8d0 9004 	ldr.w	r9, [r0, #4]
 8000b20:	ea29 0902 	bic.w	r9, r9, r2
 8000b24:	f3c6 1200 	ubfx	r2, r6, #4, #1
 8000b28:	409a      	lsls	r2, r3
 8000b2a:	ea42 0209 	orr.w	r2, r2, r9
 8000b2e:	6042      	str	r2, [r0, #4]
 8000b30:	e739      	b.n	80009a6 <HAL_GPIO_Init+0x66>
 8000b32:	f04f 0e01 	mov.w	lr, #1
 8000b36:	fa0e f909 	lsl.w	r9, lr, r9
 8000b3a:	ea4a 0a09 	orr.w	sl, sl, r9
 8000b3e:	e784      	b.n	8000a4a <HAL_GPIO_Init+0x10a>
 8000b40:	f04f 0e02 	mov.w	lr, #2
 8000b44:	fa0e f909 	lsl.w	r9, lr, r9
 8000b48:	ea4a 0a09 	orr.w	sl, sl, r9
 8000b4c:	e77d      	b.n	8000a4a <HAL_GPIO_Init+0x10a>
 8000b4e:	f04f 0e03 	mov.w	lr, #3
 8000b52:	fa0e f909 	lsl.w	r9, lr, r9
 8000b56:	ea4a 0a09 	orr.w	sl, sl, r9
 8000b5a:	e776      	b.n	8000a4a <HAL_GPIO_Init+0x10a>
 8000b5c:	f04f 0e04 	mov.w	lr, #4
 8000b60:	fa0e f909 	lsl.w	r9, lr, r9
 8000b64:	ea4a 0a09 	orr.w	sl, sl, r9
 8000b68:	e76f      	b.n	8000a4a <HAL_GPIO_Init+0x10a>
 8000b6a:	f04f 0e07 	mov.w	lr, #7
 8000b6e:	fa0e f909 	lsl.w	r9, lr, r9
 8000b72:	ea4a 0a09 	orr.w	sl, sl, r9
 8000b76:	e768      	b.n	8000a4a <HAL_GPIO_Init+0x10a>
 8000b78:	f04f 0e05 	mov.w	lr, #5
 8000b7c:	fa0e f909 	lsl.w	r9, lr, r9
 8000b80:	ea4a 0a09 	orr.w	sl, sl, r9
 8000b84:	e761      	b.n	8000a4a <HAL_GPIO_Init+0x10a>
 8000b86:	f04f 0e06 	mov.w	lr, #6
 8000b8a:	fa0e f909 	lsl.w	r9, lr, r9
 8000b8e:	ea4a 0a09 	orr.w	sl, sl, r9
 8000b92:	e75a      	b.n	8000a4a <HAL_GPIO_Init+0x10a>
 8000b94:	f04f 0e08 	mov.w	lr, #8
 8000b98:	fa0e f909 	lsl.w	r9, lr, r9
 8000b9c:	ea4a 0a09 	orr.w	sl, sl, r9
 8000ba0:	e753      	b.n	8000a4a <HAL_GPIO_Init+0x10a>
 8000ba2:	bf00      	nop
 8000ba4:	40023800 	.word	0x40023800
 8000ba8:	40020000 	.word	0x40020000
 8000bac:	40020800 	.word	0x40020800
 8000bb0:	40020c00 	.word	0x40020c00
 8000bb4:	40021000 	.word	0x40021000
 8000bb8:	40021400 	.word	0x40021400
 8000bbc:	40021800 	.word	0x40021800
 8000bc0:	40013c00 	.word	0x40013c00
 8000bc4:	40021c00 	.word	0x40021c00
 8000bc8:	40022000 	.word	0x40022000
 8000bcc:	40022400 	.word	0x40022400

08000bd0 <I2S_DMAError>:
I2S_DMAError():
 8000bd0:	6b83      	ldr	r3, [r0, #56]	; 0x38
 8000bd2:	2200      	movs	r2, #0
 8000bd4:	2101      	movs	r1, #1
 8000bd6:	855a      	strh	r2, [r3, #42]	; 0x2a
 8000bd8:	865a      	strh	r2, [r3, #50]	; 0x32
 8000bda:	f883 103d 	strb.w	r1, [r3, #61]	; 0x3d
 8000bde:	f893 203e 	ldrb.w	r2, [r3, #62]	; 0x3e
 8000be2:	4905      	ldr	r1, [pc, #20]	; (8000bf8 <I2S_DMAError+0x28>)
 8000be4:	6818      	ldr	r0, [r3, #0]
 8000be6:	f042 0220 	orr.w	r2, r2, #32
 8000bea:	4288      	cmp	r0, r1
 8000bec:	f883 203e 	strb.w	r2, [r3, #62]	; 0x3e
 8000bf0:	d000      	beq.n	8000bf4 <I2S_DMAError+0x24>
 8000bf2:	4770      	bx	lr
 8000bf4:	e7fe      	b.n	8000bf4 <I2S_DMAError+0x24>
 8000bf6:	bf00      	nop
 8000bf8:	40003c00 	.word	0x40003c00

08000bfc <USB_EnableGlobalInt>:
USB_EnableGlobalInt():
 8000bfc:	4603      	mov	r3, r0
 8000bfe:	2000      	movs	r0, #0
 8000c00:	689a      	ldr	r2, [r3, #8]
 8000c02:	f042 0201 	orr.w	r2, r2, #1
 8000c06:	609a      	str	r2, [r3, #8]
 8000c08:	4770      	bx	lr
 8000c0a:	bf00      	nop

08000c0c <USB_DisableGlobalInt>:
USB_DisableGlobalInt():
 8000c0c:	4603      	mov	r3, r0
 8000c0e:	2000      	movs	r0, #0
 8000c10:	689a      	ldr	r2, [r3, #8]
 8000c12:	f022 0201 	bic.w	r2, r2, #1
 8000c16:	609a      	str	r2, [r3, #8]
 8000c18:	4770      	bx	lr
 8000c1a:	bf00      	nop

08000c1c <USB_FlushTxFifo>:
USB_FlushTxFifo():
 8000c1c:	0149      	lsls	r1, r1, #5
 8000c1e:	f041 0120 	orr.w	r1, r1, #32
 8000c22:	4a06      	ldr	r2, [pc, #24]	; (8000c3c <USB_FlushTxFifo+0x20>)
 8000c24:	6101      	str	r1, [r0, #16]
 8000c26:	e001      	b.n	8000c2c <USB_FlushTxFifo+0x10>
 8000c28:	3a01      	subs	r2, #1
 8000c2a:	d005      	beq.n	8000c38 <USB_FlushTxFifo+0x1c>
 8000c2c:	6903      	ldr	r3, [r0, #16]
 8000c2e:	f013 0320 	ands.w	r3, r3, #32
 8000c32:	d1f9      	bne.n	8000c28 <USB_FlushTxFifo+0xc>
 8000c34:	4618      	mov	r0, r3
 8000c36:	4770      	bx	lr
 8000c38:	2003      	movs	r0, #3
 8000c3a:	4770      	bx	lr
 8000c3c:	00030d40 	.word	0x00030d40

08000c40 <USB_FlushRxFifo>:
USB_FlushRxFifo():
 8000c40:	2310      	movs	r3, #16
 8000c42:	4a06      	ldr	r2, [pc, #24]	; (8000c5c <USB_FlushRxFifo+0x1c>)
 8000c44:	6103      	str	r3, [r0, #16]
 8000c46:	e001      	b.n	8000c4c <USB_FlushRxFifo+0xc>
 8000c48:	3a01      	subs	r2, #1
 8000c4a:	d005      	beq.n	8000c58 <USB_FlushRxFifo+0x18>
 8000c4c:	6903      	ldr	r3, [r0, #16]
 8000c4e:	f013 0310 	ands.w	r3, r3, #16
 8000c52:	d1f9      	bne.n	8000c48 <USB_FlushRxFifo+0x8>
 8000c54:	4618      	mov	r0, r3
 8000c56:	4770      	bx	lr
 8000c58:	2003      	movs	r0, #3
 8000c5a:	4770      	bx	lr
 8000c5c:	00030d40 	.word	0x00030d40

08000c60 <USB_WritePacket>:
USB_WritePacket():
 8000c60:	b410      	push	{r4}
 8000c62:	f89d 4004 	ldrb.w	r4, [sp, #4]
 8000c66:	b97c      	cbnz	r4, 8000c88 <USB_WritePacket+0x28>
 8000c68:	f103 0c03 	add.w	ip, r3, #3
 8000c6c:	ea5f 0cac 	movs.w	ip, ip, asr #2
 8000c70:	d00a      	beq.n	8000c88 <USB_WritePacket+0x28>
 8000c72:	f500 5080 	add.w	r0, r0, #4096	; 0x1000
 8000c76:	eb00 3202 	add.w	r2, r0, r2, lsl #12
 8000c7a:	4623      	mov	r3, r4
 8000c7c:	3301      	adds	r3, #1
 8000c7e:	f851 0b04 	ldr.w	r0, [r1], #4
 8000c82:	6010      	str	r0, [r2, #0]
 8000c84:	459c      	cmp	ip, r3
 8000c86:	d1f9      	bne.n	8000c7c <USB_WritePacket+0x1c>
 8000c88:	2000      	movs	r0, #0
 8000c8a:	f85d 4b04 	ldr.w	r4, [sp], #4
 8000c8e:	4770      	bx	lr

08000c90 <cs43l22_SetFrequency>:
cs43l22_SetFrequency():
 8000c90:	2000      	movs	r0, #0
 8000c92:	4770      	bx	lr

08000c94 <BSP_LED_Init>:
BSP_LED_Init():
 8000c94:	b150      	cbz	r0, 8000cac <BSP_LED_Init+0x18>
 8000c96:	2801      	cmp	r0, #1
 8000c98:	d008      	beq.n	8000cac <BSP_LED_Init+0x18>
 8000c9a:	4a03      	ldr	r2, [pc, #12]	; (8000ca8 <BSP_LED_Init+0x14>)
 8000c9c:	6b13      	ldr	r3, [r2, #48]	; 0x30
 8000c9e:	f043 0308 	orr.w	r3, r3, #8
 8000ca2:	6313      	str	r3, [r2, #48]	; 0x30
 8000ca4:	e007      	b.n	8000cb6 <BSP_LED_Init+0x22>
 8000ca6:	bf00      	nop
 8000ca8:	40023800 	.word	0x40023800
 8000cac:	4aad      	ldr	r2, [pc, #692]	; (8000f64 <BSP_LED_Init+0x2d0>)
 8000cae:	6b13      	ldr	r3, [r2, #48]	; 0x30
 8000cb0:	f043 0308 	orr.w	r3, r3, #8
 8000cb4:	6313      	str	r3, [r2, #48]	; 0x30
 8000cb6:	4aac      	ldr	r2, [pc, #688]	; (8000f68 <BSP_LED_Init+0x2d4>)
 8000cb8:	4bac      	ldr	r3, [pc, #688]	; (8000f6c <BSP_LED_Init+0x2d8>)
 8000cba:	f832 2010 	ldrh.w	r2, [r2, r0, lsl #1]
 8000cbe:	f853 3020 	ldr.w	r3, [r3, r0, lsl #2]
 8000cc2:	0791      	lsls	r1, r2, #30
 8000cc4:	d515      	bpl.n	8000cf2 <BSP_LED_Init+0x5e>
 8000cc6:	6819      	ldr	r1, [r3, #0]
 8000cc8:	f021 010c 	bic.w	r1, r1, #12
 8000ccc:	f041 0104 	orr.w	r1, r1, #4
 8000cd0:	6019      	str	r1, [r3, #0]
 8000cd2:	6899      	ldr	r1, [r3, #8]
 8000cd4:	f021 010c 	bic.w	r1, r1, #12
 8000cd8:	f041 0108 	orr.w	r1, r1, #8
 8000cdc:	6099      	str	r1, [r3, #8]
 8000cde:	6859      	ldr	r1, [r3, #4]
 8000ce0:	f021 0102 	bic.w	r1, r1, #2
 8000ce4:	6059      	str	r1, [r3, #4]
 8000ce6:	68d9      	ldr	r1, [r3, #12]
 8000ce8:	f021 010c 	bic.w	r1, r1, #12
 8000cec:	f041 0104 	orr.w	r1, r1, #4
 8000cf0:	60d9      	str	r1, [r3, #12]
 8000cf2:	0751      	lsls	r1, r2, #29
 8000cf4:	d515      	bpl.n	8000d22 <BSP_LED_Init+0x8e>
 8000cf6:	6819      	ldr	r1, [r3, #0]
 8000cf8:	f021 0130 	bic.w	r1, r1, #48	; 0x30
 8000cfc:	f041 0110 	orr.w	r1, r1, #16
 8000d00:	6019      	str	r1, [r3, #0]
 8000d02:	6899      	ldr	r1, [r3, #8]
 8000d04:	f021 0130 	bic.w	r1, r1, #48	; 0x30
 8000d08:	f041 0120 	orr.w	r1, r1, #32
 8000d0c:	6099      	str	r1, [r3, #8]
 8000d0e:	6859      	ldr	r1, [r3, #4]
 8000d10:	f021 0104 	bic.w	r1, r1, #4
 8000d14:	6059      	str	r1, [r3, #4]
 8000d16:	68d9      	ldr	r1, [r3, #12]
 8000d18:	f021 0130 	bic.w	r1, r1, #48	; 0x30
 8000d1c:	f041 0110 	orr.w	r1, r1, #16
 8000d20:	60d9      	str	r1, [r3, #12]
 8000d22:	0710      	lsls	r0, r2, #28
 8000d24:	d515      	bpl.n	8000d52 <BSP_LED_Init+0xbe>
 8000d26:	6819      	ldr	r1, [r3, #0]
 8000d28:	f021 01c0 	bic.w	r1, r1, #192	; 0xc0
 8000d2c:	f041 0140 	orr.w	r1, r1, #64	; 0x40
 8000d30:	6019      	str	r1, [r3, #0]
 8000d32:	6899      	ldr	r1, [r3, #8]
 8000d34:	f021 01c0 	bic.w	r1, r1, #192	; 0xc0
 8000d38:	f041 0180 	orr.w	r1, r1, #128	; 0x80
 8000d3c:	6099      	str	r1, [r3, #8]
 8000d3e:	6859      	ldr	r1, [r3, #4]
 8000d40:	f021 0108 	bic.w	r1, r1, #8
 8000d44:	6059      	str	r1, [r3, #4]
 8000d46:	68d9      	ldr	r1, [r3, #12]
 8000d48:	f021 01c0 	bic.w	r1, r1, #192	; 0xc0
 8000d4c:	f041 0140 	orr.w	r1, r1, #64	; 0x40
 8000d50:	60d9      	str	r1, [r3, #12]
 8000d52:	06d1      	lsls	r1, r2, #27
 8000d54:	d515      	bpl.n	8000d82 <BSP_LED_Init+0xee>
 8000d56:	6819      	ldr	r1, [r3, #0]
 8000d58:	f421 7140 	bic.w	r1, r1, #768	; 0x300
 8000d5c:	f441 7180 	orr.w	r1, r1, #256	; 0x100
 8000d60:	6019      	str	r1, [r3, #0]
 8000d62:	6899      	ldr	r1, [r3, #8]
 8000d64:	f421 7140 	bic.w	r1, r1, #768	; 0x300
 8000d68:	f441 7100 	orr.w	r1, r1, #512	; 0x200
 8000d6c:	6099      	str	r1, [r3, #8]
 8000d6e:	6859      	ldr	r1, [r3, #4]
 8000d70:	f021 0110 	bic.w	r1, r1, #16
 8000d74:	6059      	str	r1, [r3, #4]
 8000d76:	68d9      	ldr	r1, [r3, #12]
 8000d78:	f421 7140 	bic.w	r1, r1, #768	; 0x300
 8000d7c:	f441 7180 	orr.w	r1, r1, #256	; 0x100
 8000d80:	60d9      	str	r1, [r3, #12]
 8000d82:	0690      	lsls	r0, r2, #26
 8000d84:	d515      	bpl.n	8000db2 <BSP_LED_Init+0x11e>
 8000d86:	6819      	ldr	r1, [r3, #0]
 8000d88:	f421 6140 	bic.w	r1, r1, #3072	; 0xc00
 8000d8c:	f441 6180 	orr.w	r1, r1, #1024	; 0x400
 8000d90:	6019      	str	r1, [r3, #0]
 8000d92:	6899      	ldr	r1, [r3, #8]
 8000d94:	f421 6140 	bic.w	r1, r1, #3072	; 0xc00
 8000d98:	f441 6100 	orr.w	r1, r1, #2048	; 0x800
 8000d9c:	6099      	str	r1, [r3, #8]
 8000d9e:	6859      	ldr	r1, [r3, #4]
 8000da0:	f021 0120 	bic.w	r1, r1, #32
 8000da4:	6059      	str	r1, [r3, #4]
 8000da6:	68d9      	ldr	r1, [r3, #12]
 8000da8:	f421 6140 	bic.w	r1, r1, #3072	; 0xc00
 8000dac:	f441 6180 	orr.w	r1, r1, #1024	; 0x400
 8000db0:	60d9      	str	r1, [r3, #12]
 8000db2:	0651      	lsls	r1, r2, #25
 8000db4:	d515      	bpl.n	8000de2 <BSP_LED_Init+0x14e>
 8000db6:	6819      	ldr	r1, [r3, #0]
 8000db8:	f421 5140 	bic.w	r1, r1, #12288	; 0x3000
 8000dbc:	f441 5180 	orr.w	r1, r1, #4096	; 0x1000
 8000dc0:	6019      	str	r1, [r3, #0]
 8000dc2:	6899      	ldr	r1, [r3, #8]
 8000dc4:	f421 5140 	bic.w	r1, r1, #12288	; 0x3000
 8000dc8:	f441 5100 	orr.w	r1, r1, #8192	; 0x2000
 8000dcc:	6099      	str	r1, [r3, #8]
 8000dce:	6859      	ldr	r1, [r3, #4]
 8000dd0:	f021 0140 	bic.w	r1, r1, #64	; 0x40
 8000dd4:	6059      	str	r1, [r3, #4]
 8000dd6:	68d9      	ldr	r1, [r3, #12]
 8000dd8:	f421 5140 	bic.w	r1, r1, #12288	; 0x3000
 8000ddc:	f441 5180 	orr.w	r1, r1, #4096	; 0x1000
 8000de0:	60d9      	str	r1, [r3, #12]
 8000de2:	0610      	lsls	r0, r2, #24
 8000de4:	d515      	bpl.n	8000e12 <BSP_LED_Init+0x17e>
 8000de6:	6819      	ldr	r1, [r3, #0]
 8000de8:	f421 4140 	bic.w	r1, r1, #49152	; 0xc000
 8000dec:	f441 4180 	orr.w	r1, r1, #16384	; 0x4000
 8000df0:	6019      	str	r1, [r3, #0]
 8000df2:	6899      	ldr	r1, [r3, #8]
 8000df4:	f421 4140 	bic.w	r1, r1, #49152	; 0xc000
 8000df8:	f441 4100 	orr.w	r1, r1, #32768	; 0x8000
 8000dfc:	6099      	str	r1, [r3, #8]
 8000dfe:	6859      	ldr	r1, [r3, #4]
 8000e00:	f021 0180 	bic.w	r1, r1, #128	; 0x80
 8000e04:	6059      	str	r1, [r3, #4]
 8000e06:	68d9      	ldr	r1, [r3, #12]
 8000e08:	f421 4140 	bic.w	r1, r1, #49152	; 0xc000
 8000e0c:	f441 4180 	orr.w	r1, r1, #16384	; 0x4000
 8000e10:	60d9      	str	r1, [r3, #12]
 8000e12:	05d1      	lsls	r1, r2, #23
 8000e14:	d515      	bpl.n	8000e42 <BSP_LED_Init+0x1ae>
 8000e16:	6819      	ldr	r1, [r3, #0]
 8000e18:	f421 3140 	bic.w	r1, r1, #196608	; 0x30000
 8000e1c:	f441 3180 	orr.w	r1, r1, #65536	; 0x10000
 8000e20:	6019      	str	r1, [r3, #0]
 8000e22:	6899      	ldr	r1, [r3, #8]
 8000e24:	f421 3140 	bic.w	r1, r1, #196608	; 0x30000
 8000e28:	f441 3100 	orr.w	r1, r1, #131072	; 0x20000
 8000e2c:	6099      	str	r1, [r3, #8]
 8000e2e:	6859      	ldr	r1, [r3, #4]
 8000e30:	f421 7180 	bic.w	r1, r1, #256	; 0x100
 8000e34:	6059      	str	r1, [r3, #4]
 8000e36:	68d9      	ldr	r1, [r3, #12]
 8000e38:	f421 3140 	bic.w	r1, r1, #196608	; 0x30000
 8000e3c:	f441 3180 	orr.w	r1, r1, #65536	; 0x10000
 8000e40:	60d9      	str	r1, [r3, #12]
 8000e42:	0590      	lsls	r0, r2, #22
 8000e44:	d515      	bpl.n	8000e72 <BSP_LED_Init+0x1de>
 8000e46:	6819      	ldr	r1, [r3, #0]
 8000e48:	f421 2140 	bic.w	r1, r1, #786432	; 0xc0000
 8000e4c:	f441 2180 	orr.w	r1, r1, #262144	; 0x40000
 8000e50:	6019      	str	r1, [r3, #0]
 8000e52:	6899      	ldr	r1, [r3, #8]
 8000e54:	f421 2140 	bic.w	r1, r1, #786432	; 0xc0000
 8000e58:	f441 2100 	orr.w	r1, r1, #524288	; 0x80000
 8000e5c:	6099      	str	r1, [r3, #8]
 8000e5e:	6859      	ldr	r1, [r3, #4]
 8000e60:	f421 7100 	bic.w	r1, r1, #512	; 0x200
 8000e64:	6059      	str	r1, [r3, #4]
 8000e66:	68d9      	ldr	r1, [r3, #12]
 8000e68:	f421 2140 	bic.w	r1, r1, #786432	; 0xc0000
 8000e6c:	f441 2180 	orr.w	r1, r1, #262144	; 0x40000
 8000e70:	60d9      	str	r1, [r3, #12]
 8000e72:	0551      	lsls	r1, r2, #21
 8000e74:	d515      	bpl.n	8000ea2 <BSP_LED_Init+0x20e>
 8000e76:	6819      	ldr	r1, [r3, #0]
 8000e78:	f421 1140 	bic.w	r1, r1, #3145728	; 0x300000
 8000e7c:	f441 1180 	orr.w	r1, r1, #1048576	; 0x100000
 8000e80:	6019      	str	r1, [r3, #0]
 8000e82:	6899      	ldr	r1, [r3, #8]
 8000e84:	f421 1140 	bic.w	r1, r1, #3145728	; 0x300000
 8000e88:	f441 1100 	orr.w	r1, r1, #2097152	; 0x200000
 8000e8c:	6099      	str	r1, [r3, #8]
 8000e8e:	6859      	ldr	r1, [r3, #4]
 8000e90:	f421 6180 	bic.w	r1, r1, #1024	; 0x400
 8000e94:	6059      	str	r1, [r3, #4]
 8000e96:	68d9      	ldr	r1, [r3, #12]
 8000e98:	f421 1140 	bic.w	r1, r1, #3145728	; 0x300000
 8000e9c:	f441 1180 	orr.w	r1, r1, #1048576	; 0x100000
 8000ea0:	60d9      	str	r1, [r3, #12]
 8000ea2:	0510      	lsls	r0, r2, #20
 8000ea4:	d515      	bpl.n	8000ed2 <BSP_LED_Init+0x23e>
 8000ea6:	6819      	ldr	r1, [r3, #0]
 8000ea8:	f421 0140 	bic.w	r1, r1, #12582912	; 0xc00000
 8000eac:	f441 0180 	orr.w	r1, r1, #4194304	; 0x400000
 8000eb0:	6019      	str	r1, [r3, #0]
 8000eb2:	6899      	ldr	r1, [r3, #8]
 8000eb4:	f421 0140 	bic.w	r1, r1, #12582912	; 0xc00000
 8000eb8:	f441 0100 	orr.w	r1, r1, #8388608	; 0x800000
 8000ebc:	6099      	str	r1, [r3, #8]
 8000ebe:	6859      	ldr	r1, [r3, #4]
 8000ec0:	f421 6100 	bic.w	r1, r1, #2048	; 0x800
 8000ec4:	6059      	str	r1, [r3, #4]
 8000ec6:	68d9      	ldr	r1, [r3, #12]
 8000ec8:	f421 0140 	bic.w	r1, r1, #12582912	; 0xc00000
 8000ecc:	f441 0180 	orr.w	r1, r1, #4194304	; 0x400000
 8000ed0:	60d9      	str	r1, [r3, #12]
 8000ed2:	04d1      	lsls	r1, r2, #19
 8000ed4:	d515      	bpl.n	8000f02 <BSP_LED_Init+0x26e>
 8000ed6:	6819      	ldr	r1, [r3, #0]
 8000ed8:	f021 7140 	bic.w	r1, r1, #50331648	; 0x3000000
 8000edc:	f041 7180 	orr.w	r1, r1, #16777216	; 0x1000000
 8000ee0:	6019      	str	r1, [r3, #0]
 8000ee2:	6899      	ldr	r1, [r3, #8]
 8000ee4:	f021 7140 	bic.w	r1, r1, #50331648	; 0x3000000
 8000ee8:	f041 7100 	orr.w	r1, r1, #33554432	; 0x2000000
 8000eec:	6099      	str	r1, [r3, #8]
 8000eee:	6859      	ldr	r1, [r3, #4]
 8000ef0:	f421 5180 	bic.w	r1, r1, #4096	; 0x1000
 8000ef4:	6059      	str	r1, [r3, #4]
 8000ef6:	68d9      	ldr	r1, [r3, #12]
 8000ef8:	f021 7140 	bic.w	r1, r1, #50331648	; 0x3000000
 8000efc:	f041 7180 	orr.w	r1, r1, #16777216	; 0x1000000
 8000f00:	60d9      	str	r1, [r3, #12]
 8000f02:	0490      	lsls	r0, r2, #18
 8000f04:	d515      	bpl.n	8000f32 <BSP_LED_Init+0x29e>
 8000f06:	6819      	ldr	r1, [r3, #0]
 8000f08:	f021 6140 	bic.w	r1, r1, #201326592	; 0xc000000
 8000f0c:	f041 6180 	orr.w	r1, r1, #67108864	; 0x4000000
 8000f10:	6019      	str	r1, [r3, #0]
 8000f12:	6899      	ldr	r1, [r3, #8]
 8000f14:	f021 6140 	bic.w	r1, r1, #201326592	; 0xc000000
 8000f18:	f041 6100 	orr.w	r1, r1, #134217728	; 0x8000000
 8000f1c:	6099      	str	r1, [r3, #8]
 8000f1e:	6859      	ldr	r1, [r3, #4]
 8000f20:	f421 5100 	bic.w	r1, r1, #8192	; 0x2000
 8000f24:	6059      	str	r1, [r3, #4]
 8000f26:	68d9      	ldr	r1, [r3, #12]
 8000f28:	f021 6140 	bic.w	r1, r1, #201326592	; 0xc000000
 8000f2c:	f041 6180 	orr.w	r1, r1, #67108864	; 0x4000000
 8000f30:	60d9      	str	r1, [r3, #12]
 8000f32:	0451      	lsls	r1, r2, #17
 8000f34:	d51c      	bpl.n	8000f70 <BSP_LED_Init+0x2dc>
 8000f36:	6819      	ldr	r1, [r3, #0]
 8000f38:	f021 5140 	bic.w	r1, r1, #805306368	; 0x30000000
 8000f3c:	f041 5180 	orr.w	r1, r1, #268435456	; 0x10000000
 8000f40:	6019      	str	r1, [r3, #0]
 8000f42:	6899      	ldr	r1, [r3, #8]
 8000f44:	f021 5140 	bic.w	r1, r1, #805306368	; 0x30000000
 8000f48:	f041 5100 	orr.w	r1, r1, #536870912	; 0x20000000
 8000f4c:	6099      	str	r1, [r3, #8]
 8000f4e:	6859      	ldr	r1, [r3, #4]
 8000f50:	f421 4180 	bic.w	r1, r1, #16384	; 0x4000
 8000f54:	6059      	str	r1, [r3, #4]
 8000f56:	68d9      	ldr	r1, [r3, #12]
 8000f58:	f021 5140 	bic.w	r1, r1, #805306368	; 0x30000000
 8000f5c:	f041 5180 	orr.w	r1, r1, #268435456	; 0x10000000
 8000f60:	60d9      	str	r1, [r3, #12]
 8000f62:	e005      	b.n	8000f70 <BSP_LED_Init+0x2dc>
 8000f64:	40023800 	.word	0x40023800
 8000f68:	0800f3d4 	.word	0x0800f3d4
 8000f6c:	0800f3dc 	.word	0x0800f3dc
 8000f70:	0410      	lsls	r0, r2, #16
 8000f72:	d515      	bpl.n	8000fa0 <BSP_LED_Init+0x30c>
 8000f74:	6819      	ldr	r1, [r3, #0]
 8000f76:	f021 4140 	bic.w	r1, r1, #3221225472	; 0xc0000000
 8000f7a:	f041 4180 	orr.w	r1, r1, #1073741824	; 0x40000000
 8000f7e:	6019      	str	r1, [r3, #0]
 8000f80:	6899      	ldr	r1, [r3, #8]
 8000f82:	f021 4140 	bic.w	r1, r1, #3221225472	; 0xc0000000
 8000f86:	f041 4100 	orr.w	r1, r1, #2147483648	; 0x80000000
 8000f8a:	6099      	str	r1, [r3, #8]
 8000f8c:	6859      	ldr	r1, [r3, #4]
 8000f8e:	f421 4100 	bic.w	r1, r1, #32768	; 0x8000
 8000f92:	6059      	str	r1, [r3, #4]
 8000f94:	68d9      	ldr	r1, [r3, #12]
 8000f96:	f021 4140 	bic.w	r1, r1, #3221225472	; 0xc0000000
 8000f9a:	f041 4180 	orr.w	r1, r1, #1073741824	; 0x40000000
 8000f9e:	60d9      	str	r1, [r3, #12]
 8000fa0:	835a      	strh	r2, [r3, #26]
 8000fa2:	4770      	bx	lr

08000fa4 <Delay_compute>:
Delay_compute():
 8000fa4:	4827      	ldr	r0, [pc, #156]	; (8001044 <Delay_compute+0xa0>)
 8000fa6:	4a28      	ldr	r2, [pc, #160]	; (8001048 <Delay_compute+0xa4>)
 8000fa8:	6803      	ldr	r3, [r0, #0]
 8000faa:	edd2 7a00 	vldr	s15, [r2]
 8000fae:	eddf 6a27 	vldr	s13, [pc, #156]	; 800104c <Delay_compute+0xa8>
 8000fb2:	ed93 7a00 	vldr	s14, [r3]
 8000fb6:	ed9f 6a26 	vldr	s12, [pc, #152]	; 8001050 <Delay_compute+0xac>
 8000fba:	4926      	ldr	r1, [pc, #152]	; (8001054 <Delay_compute+0xb0>)
 8000fbc:	ee67 7aa6 	vmul.f32	s15, s15, s13
 8000fc0:	ee27 7a06 	vmul.f32	s14, s14, s12
 8000fc4:	eef7 6a00 	vmov.f32	s13, #112	; 0x3f800000  1.0
 8000fc8:	ee37 7a27 	vadd.f32	s14, s14, s15
 8000fcc:	edd1 7a00 	vldr	s15, [r1]
 8000fd0:	ee67 7a27 	vmul.f32	s15, s14, s15
 8000fd4:	b430      	push	{r4, r5}
 8000fd6:	ee77 7a80 	vadd.f32	s15, s15, s0
 8000fda:	ed82 7a00 	vstr	s14, [r2]
 8000fde:	eef4 7ae6 	vcmpe.f32	s15, s13
 8000fe2:	eef1 fa10 	vmrs	APSR_nzcv, fpscr
 8000fe6:	dd22      	ble.n	800102e <Delay_compute+0x8a>
 8000fe8:	eef0 7a66 	vmov.f32	s15, s13
 8000fec:	4d1a      	ldr	r5, [pc, #104]	; (8001058 <Delay_compute+0xb4>)
 8000fee:	4c1b      	ldr	r4, [pc, #108]	; (800105c <Delay_compute+0xb8>)
 8000ff0:	682a      	ldr	r2, [r5, #0]
 8000ff2:	491b      	ldr	r1, [pc, #108]	; (8001060 <Delay_compute+0xbc>)
 8000ff4:	ed94 6a00 	vldr	s12, [r4]
 8000ff8:	ece2 7a01 	vstmia	r2!, {s15}
 8000ffc:	4c19      	ldr	r4, [pc, #100]	; (8001064 <Delay_compute+0xc0>)
 8000ffe:	eef7 6a00 	vmov.f32	s13, #112	; 0x3f800000  1.0
 8001002:	ee76 6ac6 	vsub.f32	s13, s13, s12
 8001006:	eba2 0c01 	sub.w	ip, r2, r1
 800100a:	45a4      	cmp	ip, r4
 800100c:	bfc8      	it	gt
 800100e:	460a      	movgt	r2, r1
 8001010:	3304      	adds	r3, #4
 8001012:	602a      	str	r2, [r5, #0]
 8001014:	ee66 7a27 	vmul.f32	s15, s12, s15
 8001018:	ee26 0a80 	vmul.f32	s0, s13, s0
 800101c:	1a5a      	subs	r2, r3, r1
 800101e:	42a2      	cmp	r2, r4
 8001020:	bfc8      	it	gt
 8001022:	460b      	movgt	r3, r1
 8001024:	ee30 0a27 	vadd.f32	s0, s0, s15
 8001028:	bc30      	pop	{r4, r5}
 800102a:	6003      	str	r3, [r0, #0]
 800102c:	4770      	bx	lr
 800102e:	eebf 7a00 	vmov.f32	s14, #240	; 0xbf800000 -1.0
 8001032:	eef4 7a47 	vcmp.f32	s15, s14
 8001036:	eef1 fa10 	vmrs	APSR_nzcv, fpscr
 800103a:	bf48      	it	mi
 800103c:	eef0 7a47 	vmovmi.f32	s15, s14
 8001040:	e7d4      	b.n	8000fec <Delay_compute+0x48>
 8001042:	bf00      	nop
 8001044:	2001f718 	.word	0x2001f718
 8001048:	2001f70c 	.word	0x2001f70c
 800104c:	3f19999a 	.word	0x3f19999a
 8001050:	3ecccccc 	.word	0x3ecccccc
 8001054:	20000058 	.word	0x20000058
 8001058:	2001f728 	.word	0x2001f728
 800105c:	2000005c 	.word	0x2000005c
 8001060:	200018f8 	.word	0x200018f8
 8001064:	0001d4bc 	.word	0x0001d4bc

08001068 <USBH_UserProcess_callback>:
USBH_UserProcess_callback():
 8001068:	2904      	cmp	r1, #4
 800106a:	d007      	beq.n	800107c <USBH_UserProcess_callback+0x14>
 800106c:	2905      	cmp	r1, #5
 800106e:	b410      	push	{r4}
 8001070:	d01c      	beq.n	80010ac <USBH_UserProcess_callback+0x44>
 8001072:	2902      	cmp	r1, #2
 8001074:	d00a      	beq.n	800108c <USBH_UserProcess_callback+0x24>
 8001076:	f85d 4b04 	ldr.w	r4, [sp], #4
 800107a:	4770      	bx	lr
 800107c:	4912      	ldr	r1, [pc, #72]	; (80010c8 <USBH_UserProcess_callback+0x60>)
 800107e:	4b13      	ldr	r3, [pc, #76]	; (80010cc <USBH_UserProcess_callback+0x64>)
 8001080:	2001      	movs	r0, #1
 8001082:	f44f 4200 	mov.w	r2, #32768	; 0x8000
 8001086:	7008      	strb	r0, [r1, #0]
 8001088:	831a      	strh	r2, [r3, #24]
 800108a:	4770      	bx	lr
 800108c:	4c0e      	ldr	r4, [pc, #56]	; (80010c8 <USBH_UserProcess_callback+0x60>)
 800108e:	4b0f      	ldr	r3, [pc, #60]	; (80010cc <USBH_UserProcess_callback+0x64>)
 8001090:	7021      	strb	r1, [r4, #0]
 8001092:	f44f 5c80 	mov.w	ip, #4096	; 0x1000
 8001096:	f44f 4000 	mov.w	r0, #32768	; 0x8000
 800109a:	f44f 4280 	mov.w	r2, #16384	; 0x4000
 800109e:	f8a3 c018 	strh.w	ip, [r3, #24]
 80010a2:	f85d 4b04 	ldr.w	r4, [sp], #4
 80010a6:	8358      	strh	r0, [r3, #26]
 80010a8:	835a      	strh	r2, [r3, #26]
 80010aa:	4770      	bx	lr
 80010ac:	4806      	ldr	r0, [pc, #24]	; (80010c8 <USBH_UserProcess_callback+0x60>)
 80010ae:	4b07      	ldr	r3, [pc, #28]	; (80010cc <USBH_UserProcess_callback+0x64>)
 80010b0:	2404      	movs	r4, #4
 80010b2:	7004      	strb	r4, [r0, #0]
 80010b4:	f44f 5180 	mov.w	r1, #4096	; 0x1000
 80010b8:	f44f 4200 	mov.w	r2, #32768	; 0x8000
 80010bc:	8359      	strh	r1, [r3, #26]
 80010be:	f85d 4b04 	ldr.w	r4, [sp], #4
 80010c2:	835a      	strh	r2, [r3, #26]
 80010c4:	4770      	bx	lr
 80010c6:	bf00      	nop
 80010c8:	200008c0 	.word	0x200008c0
 80010cc:	40020c00 	.word	0x40020c00

080010d0 <Error_Handler>:
Error_Handler():
 80010d0:	4b02      	ldr	r3, [pc, #8]	; (80010dc <Error_Handler+0xc>)
 80010d2:	f44f 4280 	mov.w	r2, #16384	; 0x4000
 80010d6:	831a      	strh	r2, [r3, #24]
 80010d8:	e7fe      	b.n	80010d8 <Error_Handler+0x8>
 80010da:	bf00      	nop
 80010dc:	40020c00 	.word	0x40020c00

080010e0 <MorphingSaw_SampleCompute>:
MorphingSaw_SampleCompute():
 80010e0:	edd0 7a03 	vldr	s15, [r0, #12]
 80010e4:	eef5 7ac0 	vcmpe.f32	s15, #0.0
 80010e8:	eef1 fa10 	vmrs	APSR_nzcv, fpscr
 80010ec:	d50a      	bpl.n	8001104 <MorphingSaw_SampleCompute+0x24>
 80010ee:	ed9f 7a38 	vldr	s14, [pc, #224]	; 80011d0 <MorphingSaw_SampleCompute+0xf0>
 80010f2:	ee77 7a87 	vadd.f32	s15, s15, s14
 80010f6:	eef5 7ac0 	vcmpe.f32	s15, #0.0
 80010fa:	eef1 fa10 	vmrs	APSR_nzcv, fpscr
 80010fe:	d4f8      	bmi.n	80010f2 <MorphingSaw_SampleCompute+0x12>
 8001100:	edc0 7a03 	vstr	s15, [r0, #12]
 8001104:	ed9f 7a32 	vldr	s14, [pc, #200]	; 80011d0 <MorphingSaw_SampleCompute+0xf0>
 8001108:	eef4 7ac7 	vcmpe.f32	s15, s14
 800110c:	eef1 fa10 	vmrs	APSR_nzcv, fpscr
 8001110:	db08      	blt.n	8001124 <MorphingSaw_SampleCompute+0x44>
 8001112:	ee77 7ac7 	vsub.f32	s15, s15, s14
 8001116:	eef4 7ac7 	vcmpe.f32	s15, s14
 800111a:	eef1 fa10 	vmrs	APSR_nzcv, fpscr
 800111e:	daf8      	bge.n	8001112 <MorphingSaw_SampleCompute+0x32>
 8001120:	edc0 7a03 	vstr	s15, [r0, #12]
 8001124:	ed90 7a02 	vldr	s14, [r0, #8]
 8001128:	eddf 6a2a 	vldr	s13, [pc, #168]	; 80011d4 <MorphingSaw_SampleCompute+0xf4>
 800112c:	eeb4 7ae6 	vcmpe.f32	s14, s13
 8001130:	eef1 fa10 	vmrs	APSR_nzcv, fpscr
 8001134:	d52f      	bpl.n	8001196 <MorphingSaw_SampleCompute+0xb6>
 8001136:	eddf 6a28 	vldr	s13, [pc, #160]	; 80011d8 <MorphingSaw_SampleCompute+0xf8>
 800113a:	ed9f 6a28 	vldr	s12, [pc, #160]	; 80011dc <MorphingSaw_SampleCompute+0xfc>
 800113e:	edd0 5a00 	vldr	s11, [r0]
 8001142:	ee67 6a26 	vmul.f32	s13, s14, s13
 8001146:	eef4 6ac6 	vcmpe.f32	s13, s12
 800114a:	eef1 fa10 	vmrs	APSR_nzcv, fpscr
 800114e:	bf98      	it	ls
 8001150:	eef0 6a46 	vmovls.f32	s13, s12
 8001154:	eef4 7ae6 	vcmpe.f32	s15, s13
 8001158:	bf8c      	ite	hi
 800115a:	edc0 6a04 	vstrhi	s13, [r0, #16]
 800115e:	ed80 6a04 	vstrls	s12, [r0, #16]
 8001162:	eef1 fa10 	vmrs	APSR_nzcv, fpscr
 8001166:	d523      	bpl.n	80011b0 <MorphingSaw_SampleCompute+0xd0>
 8001168:	eeb8 6a00 	vmov.f32	s12, #128	; 0xc0000000 -2.0
 800116c:	ee86 0a26 	vdiv.f32	s0, s12, s13
 8001170:	eef7 6a00 	vmov.f32	s13, #112	; 0x3f800000  1.0
 8001174:	ee20 0a27 	vmul.f32	s0, s0, s15
 8001178:	ee30 0a26 	vadd.f32	s0, s0, s13
 800117c:	ee20 0a25 	vmul.f32	s0, s0, s11
 8001180:	eddf 6a17 	vldr	s13, [pc, #92]	; 80011e0 <MorphingSaw_SampleCompute+0x100>
 8001184:	ed80 0a07 	vstr	s0, [r0, #28]
 8001188:	ee27 7a26 	vmul.f32	s14, s14, s13
 800118c:	ee77 7a27 	vadd.f32	s15, s14, s15
 8001190:	edc0 7a03 	vstr	s15, [r0, #12]
 8001194:	4770      	bx	lr
 8001196:	ed9f 6a13 	vldr	s12, [pc, #76]	; 80011e4 <MorphingSaw_SampleCompute+0x104>
 800119a:	edd0 5a00 	vldr	s11, [r0]
 800119e:	ed80 6a04 	vstr	s12, [r0, #16]
 80011a2:	eef0 6a46 	vmov.f32	s13, s12
 80011a6:	eef4 7ae6 	vcmpe.f32	s15, s13
 80011aa:	eef1 fa10 	vmrs	APSR_nzcv, fpscr
 80011ae:	d4db      	bmi.n	8001168 <MorphingSaw_SampleCompute+0x88>
 80011b0:	ed9f 5a07 	vldr	s10, [pc, #28]	; 80011d0 <MorphingSaw_SampleCompute+0xf0>
 80011b4:	ee37 6aa7 	vadd.f32	s12, s15, s15
 80011b8:	ee75 4a66 	vsub.f32	s9, s10, s13
 80011bc:	ee36 6a45 	vsub.f32	s12, s12, s10
 80011c0:	ee76 6a66 	vsub.f32	s13, s12, s13
 80011c4:	ee66 6aa5 	vmul.f32	s13, s13, s11
 80011c8:	ee86 0aa4 	vdiv.f32	s0, s13, s9
 80011cc:	e7d8      	b.n	8001180 <MorphingSaw_SampleCompute+0xa0>
 80011ce:	bf00      	nop
 80011d0:	40c90fdb 	.word	0x40c90fdb
 80011d4:	45fa0000 	.word	0x45fa0000
 80011d8:	39cde32e 	.word	0x39cde32e
 80011dc:	38d1b717 	.word	0x38d1b717
 80011e0:	39156592 	.word	0x39156592
 80011e4:	40490fdb 	.word	0x40490fdb

080011e8 <USBH_MIDI_InterfaceInit>:
USBH_MIDI_InterfaceInit():
 80011e8:	e92d 4f70 	stmdb	sp!, {r4, r5, r6, r8, r9, sl, fp, lr}
 80011ec:	f890 3241 	ldrb.w	r3, [r0, #577]	; 0x241
 80011f0:	2b01      	cmp	r3, #1
 80011f2:	b086      	sub	sp, #24
 80011f4:	4604      	mov	r4, r0
 80011f6:	f000 81c9 	beq.w	800158c <USBH_MIDI_InterfaceInit+0x3a4>
 80011fa:	f894 329b 	ldrb.w	r3, [r4, #667]	; 0x29b
 80011fe:	2b01      	cmp	r3, #1
 8001200:	f000 81d3 	beq.w	80015aa <USBH_MIDI_InterfaceInit+0x3c2>
 8001204:	f894 32f5 	ldrb.w	r3, [r4, #757]	; 0x2f5
 8001208:	2b01      	cmp	r3, #1
 800120a:	f000 81d8 	beq.w	80015be <USBH_MIDI_InterfaceInit+0x3d6>
 800120e:	f894 334f 	ldrb.w	r3, [r4, #847]	; 0x34f
 8001212:	2b01      	cmp	r3, #1
 8001214:	d021      	beq.n	800125a <USBH_MIDI_InterfaceInit+0x72>
 8001216:	f894 33a9 	ldrb.w	r3, [r4, #937]	; 0x3a9
 800121a:	2b01      	cmp	r3, #1
 800121c:	f000 81af 	beq.w	800157e <USBH_MIDI_InterfaceInit+0x396>
 8001220:	f894 3403 	ldrb.w	r3, [r4, #1027]	; 0x403
 8001224:	2b01      	cmp	r3, #1
 8001226:	f000 81e5 	beq.w	80015f4 <USBH_MIDI_InterfaceInit+0x40c>
 800122a:	f894 345d 	ldrb.w	r3, [r4, #1117]	; 0x45d
 800122e:	2b01      	cmp	r3, #1
 8001230:	f000 81e7 	beq.w	8001602 <USBH_MIDI_InterfaceInit+0x41a>
 8001234:	f894 34b7 	ldrb.w	r3, [r4, #1207]	; 0x4b7
 8001238:	2b01      	cmp	r3, #1
 800123a:	f000 81ee 	beq.w	800161a <USBH_MIDI_InterfaceInit+0x432>
 800123e:	f894 3511 	ldrb.w	r3, [r4, #1297]	; 0x511
 8001242:	2b01      	cmp	r3, #1
 8001244:	f000 81f0 	beq.w	8001628 <USBH_MIDI_InterfaceInit+0x440>
 8001248:	f894 356b 	ldrb.w	r3, [r4, #1387]	; 0x56b
 800124c:	2b01      	cmp	r3, #1
 800124e:	f000 81f2 	beq.w	8001636 <USBH_MIDI_InterfaceInit+0x44e>
 8001252:	2002      	movs	r0, #2
 8001254:	b006      	add	sp, #24
 8001256:	e8bd 8f70 	ldmia.w	sp!, {r4, r5, r6, r8, r9, sl, fp, pc}
 800125a:	f894 3350 	ldrb.w	r3, [r4, #848]	; 0x350
 800125e:	2b03      	cmp	r3, #3
 8001260:	d1d9      	bne.n	8001216 <USBH_MIDI_InterfaceInit+0x2e>
 8001262:	f894 2236 	ldrb.w	r2, [r4, #566]	; 0x236
 8001266:	429a      	cmp	r2, r3
 8001268:	b2d9      	uxtb	r1, r3
 800126a:	d901      	bls.n	8001270 <USBH_MIDI_InterfaceInit+0x88>
 800126c:	f884 121f 	strb.w	r1, [r4, #543]	; 0x21f
 8001270:	201c      	movs	r0, #28
 8001272:	f8d4 55c4 	ldr.w	r5, [r4, #1476]	; 0x5c4
 8001276:	f00d fc25 	bl	800eac4 <malloc>
 800127a:	61e8      	str	r0, [r5, #28]
 800127c:	2800      	cmp	r0, #0
 800127e:	d0e8      	beq.n	8001252 <USBH_MIDI_InterfaceInit+0x6a>
 8001280:	f894 221f 	ldrb.w	r2, [r4, #543]	; 0x21f
 8001284:	215a      	movs	r1, #90	; 0x5a
 8001286:	fb01 4102 	mla	r1, r1, r2, r4
 800128a:	2300      	movs	r3, #0
 800128c:	e9c0 3300 	strd	r3, r3, [r0]
 8001290:	e9c0 3302 	strd	r3, r3, [r0, #8]
 8001294:	e9c0 3304 	strd	r3, r3, [r0, #16]
 8001298:	6183      	str	r3, [r0, #24]
 800129a:	f991 3248 	ldrsb.w	r3, [r1, #584]	; 0x248
 800129e:	f891 5248 	ldrb.w	r5, [r1, #584]	; 0x248
 80012a2:	2b00      	cmp	r3, #0
 80012a4:	f8b1 324a 	ldrh.w	r3, [r1, #586]	; 0x24a
 80012a8:	bfb4      	ite	lt
 80012aa:	8103      	strhlt	r3, [r0, #8]
 80012ac:	80c3      	strhge	r3, [r0, #6]
 80012ae:	f04f 035a 	mov.w	r3, #90	; 0x5a
 80012b2:	fb03 4302 	mla	r3, r3, r2, r4
 80012b6:	bfb8      	it	lt
 80012b8:	7105      	strblt	r5, [r0, #4]
 80012ba:	f993 1250 	ldrsb.w	r1, [r3, #592]	; 0x250
 80012be:	bfa8      	it	ge
 80012c0:	70c5      	strbge	r5, [r0, #3]
 80012c2:	2900      	cmp	r1, #0
 80012c4:	f893 2250 	ldrb.w	r2, [r3, #592]	; 0x250
 80012c8:	f8b3 3252 	ldrh.w	r3, [r3, #594]	; 0x252
 80012cc:	f2c0 817e 	blt.w	80015cc <USBH_MIDI_InterfaceInit+0x3e4>
 80012d0:	f890 e004 	ldrb.w	lr, [r0, #4]
 80012d4:	70c2      	strb	r2, [r0, #3]
 80012d6:	80c3      	strh	r3, [r0, #6]
 80012d8:	f8d4 55cc 	ldr.w	r5, [r4, #1484]	; 0x5cc
 80012dc:	f415 4100 	ands.w	r1, r5, #32768	; 0x8000
 80012e0:	f000 81bb 	beq.w	800165a <USBH_MIDI_InterfaceInit+0x472>
 80012e4:	f8d4 15d0 	ldr.w	r1, [r4, #1488]	; 0x5d0
 80012e8:	040e      	lsls	r6, r1, #16
 80012ea:	f140 81c4 	bpl.w	8001676 <USBH_MIDI_InterfaceInit+0x48e>
 80012ee:	f8d4 15d4 	ldr.w	r1, [r4, #1492]	; 0x5d4
 80012f2:	0409      	lsls	r1, r1, #16
 80012f4:	f140 81c6 	bpl.w	8001684 <USBH_MIDI_InterfaceInit+0x49c>
 80012f8:	f8d4 15d8 	ldr.w	r1, [r4, #1496]	; 0x5d8
 80012fc:	040e      	lsls	r6, r1, #16
 80012fe:	f140 81c8 	bpl.w	8001692 <USBH_MIDI_InterfaceInit+0x4aa>
 8001302:	f8d4 15dc 	ldr.w	r1, [r4, #1500]	; 0x5dc
 8001306:	0409      	lsls	r1, r1, #16
 8001308:	f140 81c6 	bpl.w	8001698 <USBH_MIDI_InterfaceInit+0x4b0>
 800130c:	f8d4 15e0 	ldr.w	r1, [r4, #1504]	; 0x5e0
 8001310:	040e      	lsls	r6, r1, #16
 8001312:	f140 81cc 	bpl.w	80016ae <USBH_MIDI_InterfaceInit+0x4c6>
 8001316:	f8d4 15e4 	ldr.w	r1, [r4, #1508]	; 0x5e4
 800131a:	0409      	lsls	r1, r1, #16
 800131c:	f140 81ce 	bpl.w	80016bc <USBH_MIDI_InterfaceInit+0x4d4>
 8001320:	f8d4 15e8 	ldr.w	r1, [r4, #1512]	; 0x5e8
 8001324:	040e      	lsls	r6, r1, #16
 8001326:	f140 81d0 	bpl.w	80016ca <USBH_MIDI_InterfaceInit+0x4e2>
 800132a:	f8d4 15ec 	ldr.w	r1, [r4, #1516]	; 0x5ec
 800132e:	0409      	lsls	r1, r1, #16
 8001330:	f140 81ce 	bpl.w	80016d0 <USBH_MIDI_InterfaceInit+0x4e8>
 8001334:	f8d4 15f0 	ldr.w	r1, [r4, #1520]	; 0x5f0
 8001338:	040e      	lsls	r6, r1, #16
 800133a:	f140 818d 	bpl.w	8001658 <USBH_MIDI_InterfaceInit+0x470>
 800133e:	f8d4 15f4 	ldr.w	r1, [r4, #1524]	; 0x5f4
 8001342:	0409      	lsls	r1, r1, #16
 8001344:	f140 81cf 	bpl.w	80016e6 <USBH_MIDI_InterfaceInit+0x4fe>
 8001348:	f04f 0cff 	mov.w	ip, #255	; 0xff
 800134c:	4661      	mov	r1, ip
 800134e:	f415 4500 	ands.w	r5, r5, #32768	; 0x8000
 8001352:	7081      	strb	r1, [r0, #2]
 8001354:	f000 8177 	beq.w	8001646 <USBH_MIDI_InterfaceInit+0x45e>
 8001358:	f8d4 55d0 	ldr.w	r5, [r4, #1488]	; 0x5d0
 800135c:	042e      	lsls	r6, r5, #16
 800135e:	f140 8186 	bpl.w	800166e <USBH_MIDI_InterfaceInit+0x486>
 8001362:	f8d4 55d4 	ldr.w	r5, [r4, #1492]	; 0x5d4
 8001366:	042d      	lsls	r5, r5, #16
 8001368:	f140 8188 	bpl.w	800167c <USBH_MIDI_InterfaceInit+0x494>
 800136c:	f8d4 55d8 	ldr.w	r5, [r4, #1496]	; 0x5d8
 8001370:	042e      	lsls	r6, r5, #16
 8001372:	f140 818a 	bpl.w	800168a <USBH_MIDI_InterfaceInit+0x4a2>
 8001376:	f8d4 55dc 	ldr.w	r5, [r4, #1500]	; 0x5dc
 800137a:	042d      	lsls	r5, r5, #16
 800137c:	f140 818f 	bpl.w	800169e <USBH_MIDI_InterfaceInit+0x4b6>
 8001380:	f8d4 55e0 	ldr.w	r5, [r4, #1504]	; 0x5e0
 8001384:	042e      	lsls	r6, r5, #16
 8001386:	f140 818e 	bpl.w	80016a6 <USBH_MIDI_InterfaceInit+0x4be>
 800138a:	f8d4 55e4 	ldr.w	r5, [r4, #1508]	; 0x5e4
 800138e:	042d      	lsls	r5, r5, #16
 8001390:	f140 8190 	bpl.w	80016b4 <USBH_MIDI_InterfaceInit+0x4cc>
 8001394:	f8d4 55e8 	ldr.w	r5, [r4, #1512]	; 0x5e8
 8001398:	042e      	lsls	r6, r5, #16
 800139a:	f140 8192 	bpl.w	80016c2 <USBH_MIDI_InterfaceInit+0x4da>
 800139e:	f8d4 55ec 	ldr.w	r5, [r4, #1516]	; 0x5ec
 80013a2:	042d      	lsls	r5, r5, #16
 80013a4:	f140 8197 	bpl.w	80016d6 <USBH_MIDI_InterfaceInit+0x4ee>
 80013a8:	f8d4 55f0 	ldr.w	r5, [r4, #1520]	; 0x5f0
 80013ac:	042e      	lsls	r6, r5, #16
 80013ae:	f140 8149 	bpl.w	8001644 <USBH_MIDI_InterfaceInit+0x45c>
 80013b2:	f8d4 55f4 	ldr.w	r5, [r4, #1524]	; 0x5f4
 80013b6:	042d      	lsls	r5, r5, #16
 80013b8:	f140 8191 	bpl.w	80016de <USBH_MIDI_InterfaceInit+0x4f6>
 80013bc:	26ff      	movs	r6, #255	; 0xff
 80013be:	9600      	str	r6, [sp, #0]
 80013c0:	9d00      	ldr	r5, [sp, #0]
 80013c2:	f8d4 8610 	ldr.w	r8, [r4, #1552]	; 0x610
 80013c6:	7045      	strb	r5, [r0, #1]
 80013c8:	f898 9288 	ldrb.w	r9, [r8, #648]	; 0x288
 80013cc:	f1b9 0f01 	cmp.w	r9, #1
 80013d0:	f000 811e 	beq.w	8001610 <USBH_MIDI_InterfaceInit+0x428>
 80013d4:	eb0c 0a8c 	add.w	sl, ip, ip, lsl #2
 80013d8:	eb08 0aca 	add.w	sl, r8, sl, lsl #3
 80013dc:	f894 521c 	ldrb.w	r5, [r4, #540]	; 0x21c
 80013e0:	f894 421d 	ldrb.w	r4, [r4, #541]	; 0x21d
 80013e4:	f88a 4034 	strb.w	r4, [sl, #52]	; 0x34
 80013e8:	9402      	str	r4, [sp, #8]
 80013ea:	2402      	movs	r4, #2
 80013ec:	f88a 4037 	strb.w	r4, [sl, #55]	; 0x37
 80013f0:	ea4f 19d2 	mov.w	r9, r2, lsr #7
 80013f4:	f002 047f 	and.w	r4, r2, #127	; 0x7f
 80013f8:	f88a 5030 	strb.w	r5, [sl, #48]	; 0x30
 80013fc:	f88a 1031 	strb.w	r1, [sl, #49]	; 0x31
 8001400:	f88a 4032 	strb.w	r4, [sl, #50]	; 0x32
 8001404:	f88a 9033 	strb.w	r9, [sl, #51]	; 0x33
 8001408:	f8d8 4000 	ldr.w	r4, [r8]
 800140c:	9501      	str	r5, [sp, #4]
 800140e:	f504 65a0 	add.w	r5, r4, #1280	; 0x500
 8001412:	eb05 1141 	add.w	r1, r5, r1, lsl #5
 8001416:	f8aa 3038 	strh.w	r3, [sl, #56]	; 0x38
 800141a:	f04f 3aff 	mov.w	sl, #4294967295	; 0xffffffff
 800141e:	f8c1 a008 	str.w	sl, [r1, #8]
 8001422:	9504      	str	r5, [sp, #16]
 8001424:	f240 4a9d 	movw	sl, #1181	; 0x49d
 8001428:	ea4f 058c 	mov.w	r5, ip, lsl #2
 800142c:	f8c1 a00c 	str.w	sl, [r1, #12]
 8001430:	9503      	str	r5, [sp, #12]
 8001432:	fa4f fa82 	sxtb.w	sl, r2
 8001436:	f1b9 0f00 	cmp.w	r9, #0
 800143a:	f040 80d4 	bne.w	80015e6 <USBH_MIDI_InterfaceInit+0x3fe>
 800143e:	f1b4 4fa0 	cmp.w	r4, #1342177280	; 0x50000000
 8001442:	d005      	beq.n	8001450 <USBH_MIDI_InterfaceInit+0x268>
 8001444:	f8d1 900c 	ldr.w	r9, [r1, #12]
 8001448:	f049 0960 	orr.w	r9, r9, #96	; 0x60
 800144c:	f8c1 900c 	str.w	r9, [r1, #12]
 8001450:	f8d4 b418 	ldr.w	fp, [r4, #1048]	; 0x418
 8001454:	9d01      	ldr	r5, [sp, #4]
 8001456:	f04f 0901 	mov.w	r9, #1
 800145a:	fa09 f90c 	lsl.w	r9, r9, ip
 800145e:	ea49 090b 	orr.w	r9, r9, fp
 8001462:	f8c4 9418 	str.w	r9, [r4, #1048]	; 0x418
 8001466:	f8d4 9018 	ldr.w	r9, [r4, #24]
 800146a:	f049 7900 	orr.w	r9, r9, #33554432	; 0x2000000
 800146e:	f8c4 9018 	str.w	r9, [r4, #24]
 8001472:	ea4f 5985 	mov.w	r9, r5, lsl #22
 8001476:	9d02      	ldr	r5, [sp, #8]
 8001478:	f009 59fe 	and.w	r9, r9, #532676608	; 0x1fc00000
 800147c:	2d02      	cmp	r5, #2
 800147e:	bf08      	it	eq
 8001480:	f449 3900 	orreq.w	r9, r9, #131072	; 0x20000
 8001484:	f3c3 030a 	ubfx	r3, r3, #0, #11
 8001488:	f40a 4a00 	and.w	sl, sl, #32768	; 0x8000
 800148c:	02d2      	lsls	r2, r2, #11
 800148e:	ea43 0309 	orr.w	r3, r3, r9
 8001492:	f402 42f0 	and.w	r2, r2, #30720	; 0x7800
 8001496:	ea43 030a 	orr.w	r3, r3, sl
 800149a:	4313      	orrs	r3, r2
 800149c:	9d00      	ldr	r5, [sp, #0]
 800149e:	9305      	str	r3, [sp, #20]
 80014a0:	9b04      	ldr	r3, [sp, #16]
 80014a2:	eb03 1a45 	add.w	sl, r3, r5, lsl #5
 80014a6:	9b05      	ldr	r3, [sp, #20]
 80014a8:	f443 2200 	orr.w	r2, r3, #524288	; 0x80000
 80014ac:	600a      	str	r2, [r1, #0]
 80014ae:	eb06 0286 	add.w	r2, r6, r6, lsl #2
 80014b2:	eb08 02c2 	add.w	r2, r8, r2, lsl #3
 80014b6:	9901      	ldr	r1, [sp, #4]
 80014b8:	8903      	ldrh	r3, [r0, #8]
 80014ba:	f882 1030 	strb.w	r1, [r2, #48]	; 0x30
 80014be:	9902      	ldr	r1, [sp, #8]
 80014c0:	f882 1034 	strb.w	r1, [r2, #52]	; 0x34
 80014c4:	2102      	movs	r1, #2
 80014c6:	f882 1037 	strb.w	r1, [r2, #55]	; 0x37
 80014ca:	f00e 017f 	and.w	r1, lr, #127	; 0x7f
 80014ce:	f882 1032 	strb.w	r1, [r2, #50]	; 0x32
 80014d2:	ea4f 11de 	mov.w	r1, lr, lsr #7
 80014d6:	f882 5031 	strb.w	r5, [r2, #49]	; 0x31
 80014da:	8713      	strh	r3, [r2, #56]	; 0x38
 80014dc:	f882 1033 	strb.w	r1, [r2, #51]	; 0x33
 80014e0:	f04f 32ff 	mov.w	r2, #4294967295	; 0xffffffff
 80014e4:	f8ca 2008 	str.w	r2, [sl, #8]
 80014e8:	f240 429d 	movw	r2, #1181	; 0x49d
 80014ec:	f8ca 200c 	str.w	r2, [sl, #12]
 80014f0:	f504 6b80 	add.w	fp, r4, #1024	; 0x400
 80014f4:	00b2      	lsls	r2, r6, #2
 80014f6:	fa4f f58e 	sxtb.w	r5, lr
 80014fa:	2900      	cmp	r1, #0
 80014fc:	d16c      	bne.n	80015d8 <USBH_MIDI_InterfaceInit+0x3f0>
 80014fe:	f1b4 4fa0 	cmp.w	r4, #1342177280	; 0x50000000
 8001502:	d005      	beq.n	8001510 <USBH_MIDI_InterfaceInit+0x328>
 8001504:	f8da 100c 	ldr.w	r1, [sl, #12]
 8001508:	f041 0160 	orr.w	r1, r1, #96	; 0x60
 800150c:	f8ca 100c 	str.w	r1, [sl, #12]
 8001510:	f3c3 030a 	ubfx	r3, r3, #0, #11
 8001514:	f405 4500 	and.w	r5, r5, #32768	; 0x8000
 8001518:	ea43 0309 	orr.w	r3, r3, r9
 800151c:	432b      	orrs	r3, r5
 800151e:	2101      	movs	r1, #1
 8001520:	f8db 5018 	ldr.w	r5, [fp, #24]
 8001524:	40b1      	lsls	r1, r6
 8001526:	4329      	orrs	r1, r5
 8001528:	f8cb 1018 	str.w	r1, [fp, #24]
 800152c:	ea4f 2ece 	mov.w	lr, lr, lsl #11
 8001530:	69a1      	ldr	r1, [r4, #24]
 8001532:	f40e 4ef0 	and.w	lr, lr, #30720	; 0x7800
 8001536:	ea43 030e 	orr.w	r3, r3, lr
 800153a:	f443 2300 	orr.w	r3, r3, #524288	; 0x80000
 800153e:	f041 7100 	orr.w	r1, r1, #33554432	; 0x2000000
 8001542:	61a1      	str	r1, [r4, #24]
 8001544:	f8ca 3000 	str.w	r3, [sl]
 8001548:	2300      	movs	r3, #0
 800154a:	f888 3288 	strb.w	r3, [r8, #648]	; 0x288
 800154e:	4b67      	ldr	r3, [pc, #412]	; (80016ec <USBH_MIDI_InterfaceInit+0x504>)
 8001550:	4432      	add	r2, r6
 8001552:	eb03 02c2 	add.w	r2, r3, r2, lsl #3
 8001556:	2400      	movs	r4, #0
 8001558:	f892 1033 	ldrb.w	r1, [r2, #51]	; 0x33
 800155c:	7004      	strb	r4, [r0, #0]
 800155e:	b309      	cbz	r1, 80015a4 <USBH_MIDI_InterfaceInit+0x3bc>
 8001560:	f882 4048 	strb.w	r4, [r2, #72]	; 0x48
 8001564:	9a03      	ldr	r2, [sp, #12]
 8001566:	4462      	add	r2, ip
 8001568:	eb03 03c2 	add.w	r3, r3, r2, lsl #3
 800156c:	f893 0033 	ldrb.w	r0, [r3, #51]	; 0x33
 8001570:	b198      	cbz	r0, 800159a <USBH_MIDI_InterfaceInit+0x3b2>
 8001572:	2000      	movs	r0, #0
 8001574:	f883 0048 	strb.w	r0, [r3, #72]	; 0x48
 8001578:	b006      	add	sp, #24
 800157a:	e8bd 8f70 	ldmia.w	sp!, {r4, r5, r6, r8, r9, sl, fp, pc}
 800157e:	f894 33aa 	ldrb.w	r3, [r4, #938]	; 0x3aa
 8001582:	2b03      	cmp	r3, #3
 8001584:	f47f ae4c 	bne.w	8001220 <USBH_MIDI_InterfaceInit+0x38>
 8001588:	2304      	movs	r3, #4
 800158a:	e66a      	b.n	8001262 <USBH_MIDI_InterfaceInit+0x7a>
 800158c:	f890 3242 	ldrb.w	r3, [r0, #578]	; 0x242
 8001590:	2b03      	cmp	r3, #3
 8001592:	f47f ae32 	bne.w	80011fa <USBH_MIDI_InterfaceInit+0x12>
 8001596:	2300      	movs	r3, #0
 8001598:	e663      	b.n	8001262 <USBH_MIDI_InterfaceInit+0x7a>
 800159a:	f883 0049 	strb.w	r0, [r3, #73]	; 0x49
 800159e:	b006      	add	sp, #24
 80015a0:	e8bd 8f70 	ldmia.w	sp!, {r4, r5, r6, r8, r9, sl, fp, pc}
 80015a4:	f882 1049 	strb.w	r1, [r2, #73]	; 0x49
 80015a8:	e7dc      	b.n	8001564 <USBH_MIDI_InterfaceInit+0x37c>
 80015aa:	f894 229c 	ldrb.w	r2, [r4, #668]	; 0x29c
 80015ae:	2a03      	cmp	r2, #3
 80015b0:	f43f ae57 	beq.w	8001262 <USBH_MIDI_InterfaceInit+0x7a>
 80015b4:	f894 32f5 	ldrb.w	r3, [r4, #757]	; 0x2f5
 80015b8:	2b01      	cmp	r3, #1
 80015ba:	f47f ae28 	bne.w	800120e <USBH_MIDI_InterfaceInit+0x26>
 80015be:	f894 32f6 	ldrb.w	r3, [r4, #758]	; 0x2f6
 80015c2:	2b03      	cmp	r3, #3
 80015c4:	f47f ae23 	bne.w	800120e <USBH_MIDI_InterfaceInit+0x26>
 80015c8:	2302      	movs	r3, #2
 80015ca:	e64a      	b.n	8001262 <USBH_MIDI_InterfaceInit+0x7a>
 80015cc:	7102      	strb	r2, [r0, #4]
 80015ce:	8103      	strh	r3, [r0, #8]
 80015d0:	4696      	mov	lr, r2
 80015d2:	88c3      	ldrh	r3, [r0, #6]
 80015d4:	78c2      	ldrb	r2, [r0, #3]
 80015d6:	e67f      	b.n	80012d8 <USBH_MIDI_InterfaceInit+0xf0>
 80015d8:	f8da 100c 	ldr.w	r1, [sl, #12]
 80015dc:	f441 7180 	orr.w	r1, r1, #256	; 0x100
 80015e0:	f8ca 100c 	str.w	r1, [sl, #12]
 80015e4:	e794      	b.n	8001510 <USBH_MIDI_InterfaceInit+0x328>
 80015e6:	f8d1 900c 	ldr.w	r9, [r1, #12]
 80015ea:	f449 7980 	orr.w	r9, r9, #256	; 0x100
 80015ee:	f8c1 900c 	str.w	r9, [r1, #12]
 80015f2:	e72d      	b.n	8001450 <USBH_MIDI_InterfaceInit+0x268>
 80015f4:	f894 3404 	ldrb.w	r3, [r4, #1028]	; 0x404
 80015f8:	2b03      	cmp	r3, #3
 80015fa:	f47f ae16 	bne.w	800122a <USBH_MIDI_InterfaceInit+0x42>
 80015fe:	2305      	movs	r3, #5
 8001600:	e62f      	b.n	8001262 <USBH_MIDI_InterfaceInit+0x7a>
 8001602:	f894 345e 	ldrb.w	r3, [r4, #1118]	; 0x45e
 8001606:	2b03      	cmp	r3, #3
 8001608:	f47f ae14 	bne.w	8001234 <USBH_MIDI_InterfaceInit+0x4c>
 800160c:	2306      	movs	r3, #6
 800160e:	e628      	b.n	8001262 <USBH_MIDI_InterfaceInit+0x7a>
 8001610:	ea4f 038c 	mov.w	r3, ip, lsl #2
 8001614:	9303      	str	r3, [sp, #12]
 8001616:	00b2      	lsls	r2, r6, #2
 8001618:	e799      	b.n	800154e <USBH_MIDI_InterfaceInit+0x366>
 800161a:	f894 34b8 	ldrb.w	r3, [r4, #1208]	; 0x4b8
 800161e:	2b03      	cmp	r3, #3
 8001620:	f47f ae0d 	bne.w	800123e <USBH_MIDI_InterfaceInit+0x56>
 8001624:	2307      	movs	r3, #7
 8001626:	e61c      	b.n	8001262 <USBH_MIDI_InterfaceInit+0x7a>
 8001628:	f894 3512 	ldrb.w	r3, [r4, #1298]	; 0x512
 800162c:	2b03      	cmp	r3, #3
 800162e:	f47f ae0b 	bne.w	8001248 <USBH_MIDI_InterfaceInit+0x60>
 8001632:	2308      	movs	r3, #8
 8001634:	e615      	b.n	8001262 <USBH_MIDI_InterfaceInit+0x7a>
 8001636:	f894 356c 	ldrb.w	r3, [r4, #1388]	; 0x56c
 800163a:	2b03      	cmp	r3, #3
 800163c:	f47f ae09 	bne.w	8001252 <USBH_MIDI_InterfaceInit+0x6a>
 8001640:	2309      	movs	r3, #9
 8001642:	e60e      	b.n	8001262 <USBH_MIDI_InterfaceInit+0x7a>
 8001644:	2509      	movs	r5, #9
 8001646:	9500      	str	r5, [sp, #0]
 8001648:	462e      	mov	r6, r5
 800164a:	eb04 0886 	add.w	r8, r4, r6, lsl #2
 800164e:	f44e 4900 	orr.w	r9, lr, #32768	; 0x8000
 8001652:	f8c8 95cc 	str.w	r9, [r8, #1484]	; 0x5cc
 8001656:	e6b3      	b.n	80013c0 <USBH_MIDI_InterfaceInit+0x1d8>
 8001658:	2109      	movs	r1, #9
 800165a:	468c      	mov	ip, r1
 800165c:	eb04 058c 	add.w	r5, r4, ip, lsl #2
 8001660:	f442 4600 	orr.w	r6, r2, #32768	; 0x8000
 8001664:	f8c5 65cc 	str.w	r6, [r5, #1484]	; 0x5cc
 8001668:	f8d4 55cc 	ldr.w	r5, [r4, #1484]	; 0x5cc
 800166c:	e66f      	b.n	800134e <USBH_MIDI_InterfaceInit+0x166>
 800166e:	2501      	movs	r5, #1
 8001670:	9500      	str	r5, [sp, #0]
 8001672:	462e      	mov	r6, r5
 8001674:	e7e9      	b.n	800164a <USBH_MIDI_InterfaceInit+0x462>
 8001676:	2101      	movs	r1, #1
 8001678:	468c      	mov	ip, r1
 800167a:	e7ef      	b.n	800165c <USBH_MIDI_InterfaceInit+0x474>
 800167c:	2502      	movs	r5, #2
 800167e:	9500      	str	r5, [sp, #0]
 8001680:	462e      	mov	r6, r5
 8001682:	e7e2      	b.n	800164a <USBH_MIDI_InterfaceInit+0x462>
 8001684:	2102      	movs	r1, #2
 8001686:	468c      	mov	ip, r1
 8001688:	e7e8      	b.n	800165c <USBH_MIDI_InterfaceInit+0x474>
 800168a:	2503      	movs	r5, #3
 800168c:	9500      	str	r5, [sp, #0]
 800168e:	462e      	mov	r6, r5
 8001690:	e7db      	b.n	800164a <USBH_MIDI_InterfaceInit+0x462>
 8001692:	2103      	movs	r1, #3
 8001694:	468c      	mov	ip, r1
 8001696:	e7e1      	b.n	800165c <USBH_MIDI_InterfaceInit+0x474>
 8001698:	2104      	movs	r1, #4
 800169a:	468c      	mov	ip, r1
 800169c:	e7de      	b.n	800165c <USBH_MIDI_InterfaceInit+0x474>
 800169e:	2504      	movs	r5, #4
 80016a0:	9500      	str	r5, [sp, #0]
 80016a2:	462e      	mov	r6, r5
 80016a4:	e7d1      	b.n	800164a <USBH_MIDI_InterfaceInit+0x462>
 80016a6:	2505      	movs	r5, #5
 80016a8:	9500      	str	r5, [sp, #0]
 80016aa:	462e      	mov	r6, r5
 80016ac:	e7cd      	b.n	800164a <USBH_MIDI_InterfaceInit+0x462>
 80016ae:	2105      	movs	r1, #5
 80016b0:	468c      	mov	ip, r1
 80016b2:	e7d3      	b.n	800165c <USBH_MIDI_InterfaceInit+0x474>
 80016b4:	2506      	movs	r5, #6
 80016b6:	9500      	str	r5, [sp, #0]
 80016b8:	462e      	mov	r6, r5
 80016ba:	e7c6      	b.n	800164a <USBH_MIDI_InterfaceInit+0x462>
 80016bc:	2106      	movs	r1, #6
 80016be:	468c      	mov	ip, r1
 80016c0:	e7cc      	b.n	800165c <USBH_MIDI_InterfaceInit+0x474>
 80016c2:	2507      	movs	r5, #7
 80016c4:	9500      	str	r5, [sp, #0]
 80016c6:	462e      	mov	r6, r5
 80016c8:	e7bf      	b.n	800164a <USBH_MIDI_InterfaceInit+0x462>
 80016ca:	2107      	movs	r1, #7
 80016cc:	468c      	mov	ip, r1
 80016ce:	e7c5      	b.n	800165c <USBH_MIDI_InterfaceInit+0x474>
 80016d0:	2108      	movs	r1, #8
 80016d2:	468c      	mov	ip, r1
 80016d4:	e7c2      	b.n	800165c <USBH_MIDI_InterfaceInit+0x474>
 80016d6:	2508      	movs	r5, #8
 80016d8:	9500      	str	r5, [sp, #0]
 80016da:	462e      	mov	r6, r5
 80016dc:	e7b5      	b.n	800164a <USBH_MIDI_InterfaceInit+0x462>
 80016de:	250a      	movs	r5, #10
 80016e0:	9500      	str	r5, [sp, #0]
 80016e2:	462e      	mov	r6, r5
 80016e4:	e7b1      	b.n	800164a <USBH_MIDI_InterfaceInit+0x462>
 80016e6:	210a      	movs	r1, #10
 80016e8:	468c      	mov	ip, r1
 80016ea:	e7b7      	b.n	800165c <USBH_MIDI_InterfaceInit+0x474>
 80016ec:	2001ee10 	.word	0x2001ee10

080016f0 <MagicFX.part.0>:
MagicFX.part.0():
 80016f0:	e92d 4778 	stmdb	sp!, {r3, r4, r5, r6, r8, r9, sl, lr}
 80016f4:	4ce3      	ldr	r4, [pc, #908]	; (8001a84 <MagicFX.part.0+0x394>)
 80016f6:	f8df a3f8 	ldr.w	sl, [pc, #1016]	; 8001af0 <MagicFX.part.0+0x400>
 80016fa:	4de3      	ldr	r5, [pc, #908]	; (8001a88 <MagicFX.part.0+0x398>)
 80016fc:	f8df 93f4 	ldr.w	r9, [pc, #1012]	; 8001af4 <MagicFX.part.0+0x404>
 8001700:	ed2d 8b04 	vpush	{d8-d9}
 8001704:	2301      	movs	r3, #1
 8001706:	7023      	strb	r3, [r4, #0]
 8001708:	f00d f96c 	bl	800e9e4 <rand>
 800170c:	ee07 0a90 	vmov	s15, r0
 8001710:	ed9f 7ade 	vldr	s14, [pc, #888]	; 8001a8c <MagicFX.part.0+0x39c>
 8001714:	ed9f 0ade 	vldr	s0, [pc, #888]	; 8001a90 <MagicFX.part.0+0x3a0>
 8001718:	ed9f 9ade 	vldr	s18, [pc, #888]	; 8001a94 <MagicFX.part.0+0x3a4>
 800171c:	ed9f 8adb 	vldr	s16, [pc, #876]	; 8001a8c <MagicFX.part.0+0x39c>
 8001720:	eddf 8adb 	vldr	s17, [pc, #876]	; 8001a90 <MagicFX.part.0+0x3a0>
 8001724:	eefa 7ae0 	vcvt.f32.s32	s15, s15, #31
 8001728:	2601      	movs	r6, #1
 800172a:	ee67 7a87 	vmul.f32	s15, s15, s14
 800172e:	f505 5880 	add.w	r8, r5, #4096	; 0x1000
 8001732:	ee37 0a80 	vadd.f32	s0, s15, s0
 8001736:	f00b fe39 	bl	800d3ac <lrintf>
 800173a:	b2c3      	uxtb	r3, r0
 800173c:	ee07 3a90 	vmov	s15, r3
 8001740:	ed9f 7ad5 	vldr	s14, [pc, #852]	; 8001a98 <MagicFX.part.0+0x3a8>
 8001744:	ed9f 0ad5 	vldr	s0, [pc, #852]	; 8001a9c <MagicFX.part.0+0x3ac>
 8001748:	eef8 7ae7 	vcvt.f32.s32	s15, s15
 800174c:	ee67 7a87 	vmul.f32	s15, s15, s14
 8001750:	ee37 0a80 	vadd.f32	s0, s15, s0
 8001754:	f00b fe2a 	bl	800d3ac <lrintf>
 8001758:	4bd1      	ldr	r3, [pc, #836]	; (8001aa0 <MagicFX.part.0+0x3b0>)
 800175a:	4ad2      	ldr	r2, [pc, #840]	; (8001aa4 <MagicFX.part.0+0x3b4>)
 800175c:	681b      	ldr	r3, [r3, #0]
 800175e:	49d2      	ldr	r1, [pc, #840]	; (8001aa8 <MagicFX.part.0+0x3b8>)
 8001760:	eba3 0380 	sub.w	r3, r3, r0, lsl #2
 8001764:	4293      	cmp	r3, r2
 8001766:	bf38      	it	cc
 8001768:	f503 33ea 	addcc.w	r3, r3, #119808	; 0x1d400
 800176c:	4acf      	ldr	r2, [pc, #828]	; (8001aac <MagicFX.part.0+0x3bc>)
 800176e:	6008      	str	r0, [r1, #0]
 8001770:	bf38      	it	cc
 8001772:	33bc      	addcc	r3, #188	; 0xbc
 8001774:	6013      	str	r3, [r2, #0]
 8001776:	f00d f935 	bl	800e9e4 <rand>
 800177a:	ee07 0a90 	vmov	s15, r0
 800177e:	eeb8 0ae7 	vcvt.f32.s32	s0, s15
 8001782:	ee20 0a09 	vmul.f32	s0, s0, s18
 8001786:	ee20 0a08 	vmul.f32	s0, s0, s16
 800178a:	ee30 0a28 	vadd.f32	s0, s0, s17
 800178e:	f00b fe0d 	bl	800d3ac <lrintf>
 8001792:	b2c0      	uxtb	r0, r0
 8001794:	ee07 0a90 	vmov	s15, r0
 8001798:	eef8 7ae7 	vcvt.f32.s32	s15, s15
 800179c:	4bc4      	ldr	r3, [pc, #784]	; (8001ab0 <MagicFX.part.0+0x3c0>)
 800179e:	ee87 7a88 	vdiv.f32	s14, s15, s16
 80017a2:	ed83 7a00 	vstr	s14, [r3]
 80017a6:	f00d f91d 	bl	800e9e4 <rand>
 80017aa:	ee07 0a90 	vmov	s15, r0
 80017ae:	eeb8 0ae7 	vcvt.f32.s32	s0, s15
 80017b2:	ee20 0a09 	vmul.f32	s0, s0, s18
 80017b6:	ee20 0a08 	vmul.f32	s0, s0, s16
 80017ba:	ee30 0a28 	vadd.f32	s0, s0, s17
 80017be:	f00b fdf5 	bl	800d3ac <lrintf>
 80017c2:	b2c0      	uxtb	r0, r0
 80017c4:	ee07 0a90 	vmov	s15, r0
 80017c8:	eef8 7ae7 	vcvt.f32.s32	s15, s15
 80017cc:	4bb9      	ldr	r3, [pc, #740]	; (8001ab4 <MagicFX.part.0+0x3c4>)
 80017ce:	7066      	strb	r6, [r4, #1]
 80017d0:	ee87 7a88 	vdiv.f32	s14, s15, s16
 80017d4:	ed83 7a00 	vstr	s14, [r3]
 80017d8:	f00d f904 	bl	800e9e4 <rand>
 80017dc:	ee07 0a90 	vmov	s15, r0
 80017e0:	eeb8 0ae7 	vcvt.f32.s32	s0, s15
 80017e4:	ee20 0a09 	vmul.f32	s0, s0, s18
 80017e8:	ee20 0a08 	vmul.f32	s0, s0, s16
 80017ec:	ee30 0a28 	vadd.f32	s0, s0, s17
 80017f0:	f00b fddc 	bl	800d3ac <lrintf>
 80017f4:	b2c3      	uxtb	r3, r0
 80017f6:	ee07 3a90 	vmov	s15, r3
 80017fa:	ed9f 7aaf 	vldr	s14, [pc, #700]	; 8001ab8 <MagicFX.part.0+0x3c8>
 80017fe:	eddf 6aaf 	vldr	s13, [pc, #700]	; 8001abc <MagicFX.part.0+0x3cc>
 8001802:	eef8 7ae7 	vcvt.f32.s32	s15, s15
 8001806:	ee67 7a87 	vmul.f32	s15, s15, s14
 800180a:	ed9a 7a00 	vldr	s14, [sl]
 800180e:	ee77 7aa6 	vadd.f32	s15, s15, s13
 8001812:	ee27 7a27 	vmul.f32	s14, s14, s15
 8001816:	edc4 7a02 	vstr	s15, [r4, #8]
 800181a:	ed84 7a06 	vstr	s14, [r4, #24]
 800181e:	f00d f8e1 	bl	800e9e4 <rand>
 8001822:	ee07 0a90 	vmov	s15, r0
 8001826:	eeb8 0ae7 	vcvt.f32.s32	s0, s15
 800182a:	ee20 0a09 	vmul.f32	s0, s0, s18
 800182e:	ee20 0a08 	vmul.f32	s0, s0, s16
 8001832:	ee30 0a28 	vadd.f32	s0, s0, s17
 8001836:	f00b fdb9 	bl	800d3ac <lrintf>
 800183a:	b2c3      	uxtb	r3, r0
 800183c:	ee07 3a90 	vmov	s15, r3
 8001840:	ed9f 7a9f 	vldr	s14, [pc, #636]	; 8001ac0 <MagicFX.part.0+0x3d0>
 8001844:	eddf 6a9f 	vldr	s13, [pc, #636]	; 8001ac4 <MagicFX.part.0+0x3d4>
 8001848:	eef8 7ae7 	vcvt.f32.s32	s15, s15
 800184c:	ee67 7a87 	vmul.f32	s15, s15, s14
 8001850:	ed94 7a02 	vldr	s14, [r4, #8]
 8001854:	ee77 7aa6 	vadd.f32	s15, s15, s13
 8001858:	ee27 7a27 	vmul.f32	s14, s14, s15
 800185c:	edca 7a00 	vstr	s15, [sl]
 8001860:	ed84 7a06 	vstr	s14, [r4, #24]
 8001864:	f00d f8be 	bl	800e9e4 <rand>
 8001868:	ee07 0a90 	vmov	s15, r0
 800186c:	eeb8 0ae7 	vcvt.f32.s32	s0, s15
 8001870:	f509 5a80 	add.w	sl, r9, #4096	; 0x1000
 8001874:	ee20 0a09 	vmul.f32	s0, s0, s18
 8001878:	ee20 0a08 	vmul.f32	s0, s0, s16
 800187c:	ee30 0a28 	vadd.f32	s0, s0, s17
 8001880:	f00b fd94 	bl	800d3ac <lrintf>
 8001884:	b2c3      	uxtb	r3, r0
 8001886:	ee07 3a90 	vmov	s15, r3
 800188a:	ed9f 7a8f 	vldr	s14, [pc, #572]	; 8001ac8 <MagicFX.part.0+0x3d8>
 800188e:	eef8 7ae7 	vcvt.f32.s32	s15, s15
 8001892:	f508 63be 	add.w	r3, r8, #1520	; 0x5f0
 8001896:	ee67 7a87 	vmul.f32	s15, s15, s14
 800189a:	edc3 7a00 	vstr	s15, [r3]
 800189e:	f50a 63be 	add.w	r3, sl, #1520	; 0x5f0
 80018a2:	edc3 7a00 	vstr	s15, [r3]
 80018a6:	f00d f89d 	bl	800e9e4 <rand>
 80018aa:	ee07 0a90 	vmov	s15, r0
 80018ae:	eeb8 0ae7 	vcvt.f32.s32	s0, s15
 80018b2:	ee20 0a09 	vmul.f32	s0, s0, s18
 80018b6:	ee20 0a08 	vmul.f32	s0, s0, s16
 80018ba:	ee30 0a28 	vadd.f32	s0, s0, s17
 80018be:	f00b fd75 	bl	800d3ac <lrintf>
 80018c2:	b2c3      	uxtb	r3, r0
 80018c4:	ee07 3a90 	vmov	s15, r3
 80018c8:	ed9f 7a80 	vldr	s14, [pc, #512]	; 8001acc <MagicFX.part.0+0x3dc>
 80018cc:	eef8 7ae7 	vcvt.f32.s32	s15, s15
 80018d0:	ee67 7a87 	vmul.f32	s15, s15, s14
 80018d4:	edc4 7a01 	vstr	s15, [r4, #4]
 80018d8:	edc4 7a05 	vstr	s15, [r4, #20]
 80018dc:	f00d f882 	bl	800e9e4 <rand>
 80018e0:	ee07 0a90 	vmov	s15, r0
 80018e4:	eeb8 0ae7 	vcvt.f32.s32	s0, s15
 80018e8:	ee20 0a09 	vmul.f32	s0, s0, s18
 80018ec:	ee20 0a08 	vmul.f32	s0, s0, s16
 80018f0:	ee30 0a28 	vadd.f32	s0, s0, s17
 80018f4:	f00b fd5a 	bl	800d3ac <lrintf>
 80018f8:	b2c3      	uxtb	r3, r0
 80018fa:	ee07 3a90 	vmov	s15, r3
 80018fe:	ed9f 7a74 	vldr	s14, [pc, #464]	; 8001ad0 <MagicFX.part.0+0x3e0>
 8001902:	eef8 7ae7 	vcvt.f32.s32	s15, s15
 8001906:	ee67 7a87 	vmul.f32	s15, s15, s14
 800190a:	ee87 7a88 	vdiv.f32	s14, s15, s16
 800190e:	ed85 7a01 	vstr	s14, [r5, #4]
 8001912:	ed89 7a01 	vstr	s14, [r9, #4]
 8001916:	f00d f865 	bl	800e9e4 <rand>
 800191a:	ee07 0a90 	vmov	s15, r0
 800191e:	eeb8 0ae7 	vcvt.f32.s32	s0, s15
 8001922:	ee20 0a09 	vmul.f32	s0, s0, s18
 8001926:	ee20 0a08 	vmul.f32	s0, s0, s16
 800192a:	ee30 0a28 	vadd.f32	s0, s0, s17
 800192e:	f00b fd3d 	bl	800d3ac <lrintf>
 8001932:	f010 00ff 	ands.w	r0, r0, #255	; 0xff
 8001936:	f000 808f 	beq.w	8001a58 <MagicFX.part.0+0x368>
 800193a:	287f      	cmp	r0, #127	; 0x7f
 800193c:	d104      	bne.n	8001948 <MagicFX.part.0+0x258>
 800193e:	23ff      	movs	r3, #255	; 0xff
 8001940:	f888 35f4 	strb.w	r3, [r8, #1524]	; 0x5f4
 8001944:	f88a 35f4 	strb.w	r3, [sl, #1524]	; 0x5f4
 8001948:	f00d f84c 	bl	800e9e4 <rand>
 800194c:	ee07 0a90 	vmov	s15, r0
 8001950:	ed9f 7a4e 	vldr	s14, [pc, #312]	; 8001a8c <MagicFX.part.0+0x39c>
 8001954:	ed9f 0a4e 	vldr	s0, [pc, #312]	; 8001a90 <MagicFX.part.0+0x3a0>
 8001958:	eefa 7ae0 	vcvt.f32.s32	s15, s15, #31
 800195c:	ee67 7a87 	vmul.f32	s15, s15, s14
 8001960:	ee37 0a80 	vadd.f32	s0, s15, s0
 8001964:	f00b fd22 	bl	800d3ac <lrintf>
 8001968:	f010 00ff 	ands.w	r0, r0, #255	; 0xff
 800196c:	d079      	beq.n	8001a62 <MagicFX.part.0+0x372>
 800196e:	287f      	cmp	r0, #127	; 0x7f
 8001970:	d10b      	bne.n	800198a <MagicFX.part.0+0x29a>
 8001972:	ed99 7a01 	vldr	s14, [r9, #4]
 8001976:	edd5 7a01 	vldr	s15, [r5, #4]
 800197a:	eeb0 7ac7 	vabs.f32	s14, s14
 800197e:	eef0 7ae7 	vabs.f32	s15, s15
 8001982:	ed89 7a01 	vstr	s14, [r9, #4]
 8001986:	edc5 7a01 	vstr	s15, [r5, #4]
 800198a:	2301      	movs	r3, #1
 800198c:	f884 3024 	strb.w	r3, [r4, #36]	; 0x24
 8001990:	f00d f828 	bl	800e9e4 <rand>
 8001994:	ee07 0a90 	vmov	s15, r0
 8001998:	ed9f 9a3e 	vldr	s18, [pc, #248]	; 8001a94 <MagicFX.part.0+0x3a4>
 800199c:	ed9f 8a3b 	vldr	s16, [pc, #236]	; 8001a8c <MagicFX.part.0+0x39c>
 80019a0:	eddf 8a3b 	vldr	s17, [pc, #236]	; 8001a90 <MagicFX.part.0+0x3a0>
 80019a4:	eeb8 0ae7 	vcvt.f32.s32	s0, s15
 80019a8:	ee20 0a09 	vmul.f32	s0, s0, s18
 80019ac:	ee20 0a08 	vmul.f32	s0, s0, s16
 80019b0:	ee30 0a28 	vadd.f32	s0, s0, s17
 80019b4:	f00b fcfa 	bl	800d3ac <lrintf>
 80019b8:	b2c3      	uxtb	r3, r0
 80019ba:	ee07 3a90 	vmov	s15, r3
 80019be:	ed9f 7a45 	vldr	s14, [pc, #276]	; 8001ad4 <MagicFX.part.0+0x3e4>
 80019c2:	eddf 6a3e 	vldr	s13, [pc, #248]	; 8001abc <MagicFX.part.0+0x3cc>
 80019c6:	4b44      	ldr	r3, [pc, #272]	; (8001ad8 <MagicFX.part.0+0x3e8>)
 80019c8:	eef8 7ae7 	vcvt.f32.s32	s15, s15
 80019cc:	ee67 7a87 	vmul.f32	s15, s15, s14
 80019d0:	ed9f 7a42 	vldr	s14, [pc, #264]	; 8001adc <MagicFX.part.0+0x3ec>
 80019d4:	ee77 7aa6 	vadd.f32	s15, s15, s13
 80019d8:	eddf 6a41 	vldr	s13, [pc, #260]	; 8001ae0 <MagicFX.part.0+0x3f0>
 80019dc:	ee67 7a87 	vmul.f32	s15, s15, s14
 80019e0:	ee87 7aa6 	vdiv.f32	s14, s15, s13
 80019e4:	ed83 7a00 	vstr	s14, [r3]
 80019e8:	f00c fffc 	bl	800e9e4 <rand>
 80019ec:	ee07 0a90 	vmov	s15, r0
 80019f0:	eeb8 0ae7 	vcvt.f32.s32	s0, s15
 80019f4:	ee20 0a09 	vmul.f32	s0, s0, s18
 80019f8:	ee20 0a08 	vmul.f32	s0, s0, s16
 80019fc:	ee30 0a28 	vadd.f32	s0, s0, s17
 8001a00:	f00b fcd4 	bl	800d3ac <lrintf>
 8001a04:	b2c3      	uxtb	r3, r0
 8001a06:	ee07 3a90 	vmov	s15, r3
 8001a0a:	ed9f 7a36 	vldr	s14, [pc, #216]	; 8001ae4 <MagicFX.part.0+0x3f4>
 8001a0e:	4b36      	ldr	r3, [pc, #216]	; (8001ae8 <MagicFX.part.0+0x3f8>)
 8001a10:	eef8 7ae7 	vcvt.f32.s32	s15, s15
 8001a14:	ee67 7a87 	vmul.f32	s15, s15, s14
 8001a18:	ee87 7a88 	vdiv.f32	s14, s15, s16
 8001a1c:	ed83 7a00 	vstr	s14, [r3]
 8001a20:	f00c ffe0 	bl	800e9e4 <rand>
 8001a24:	ee07 0a90 	vmov	s15, r0
 8001a28:	eeb8 0ae7 	vcvt.f32.s32	s0, s15
 8001a2c:	ee20 0a09 	vmul.f32	s0, s0, s18
 8001a30:	ee20 0a08 	vmul.f32	s0, s0, s16
 8001a34:	ee30 0a28 	vadd.f32	s0, s0, s17
 8001a38:	f00b fcb8 	bl	800d3ac <lrintf>
 8001a3c:	b2c0      	uxtb	r0, r0
 8001a3e:	ee07 0a90 	vmov	s15, r0
 8001a42:	eef8 7ae7 	vcvt.f32.s32	s15, s15
 8001a46:	4b29      	ldr	r3, [pc, #164]	; (8001aec <MagicFX.part.0+0x3fc>)
 8001a48:	ee87 7a88 	vdiv.f32	s14, s15, s16
 8001a4c:	ecbd 8b04 	vpop	{d8-d9}
 8001a50:	ed83 7a00 	vstr	s14, [r3]
 8001a54:	e8bd 8778 	ldmia.w	sp!, {r3, r4, r5, r6, r8, r9, sl, pc}
 8001a58:	f888 65f4 	strb.w	r6, [r8, #1524]	; 0x5f4
 8001a5c:	f88a 65f4 	strb.w	r6, [sl, #1524]	; 0x5f4
 8001a60:	e772      	b.n	8001948 <MagicFX.part.0+0x258>
 8001a62:	ed99 7a01 	vldr	s14, [r9, #4]
 8001a66:	edd5 7a01 	vldr	s15, [r5, #4]
 8001a6a:	eeb0 7ac7 	vabs.f32	s14, s14
 8001a6e:	eef0 7ae7 	vabs.f32	s15, s15
 8001a72:	eeb1 7a47 	vneg.f32	s14, s14
 8001a76:	eef1 7a67 	vneg.f32	s15, s15
 8001a7a:	ed89 7a01 	vstr	s14, [r9, #4]
 8001a7e:	edc5 7a01 	vstr	s15, [r5, #4]
 8001a82:	e782      	b.n	800198a <MagicFX.part.0+0x29a>
 8001a84:	10000000 	.word	0x10000000
 8001a88:	100012e8 	.word	0x100012e8
 8001a8c:	42fe0000 	.word	0x42fe0000
 8001a90:	00000000 	.word	0x00000000
 8001a94:	30000000 	.word	0x30000000
 8001a98:	436a3e7d 	.word	0x436a3e7d
 8001a9c:	437a0000 	.word	0x437a0000
 8001aa0:	2001f728 	.word	0x2001f728
 8001aa4:	200018f8 	.word	0x200018f8
 8001aa8:	2001f71c 	.word	0x2001f71c
 8001aac:	2001f718 	.word	0x2001f718
 8001ab0:	2000005c 	.word	0x2000005c
 8001ab4:	20000058 	.word	0x20000058
 8001ab8:	3d61c387 	.word	0x3d61c387
 8001abc:	3ca3d70a 	.word	0x3ca3d70a
 8001ac0:	3be836d4 	.word	0x3be836d4
 8001ac4:	3dcccccd 	.word	0x3dcccccd
 8001ac8:	40b060c2 	.word	0x40b060c2
 8001acc:	3f8c7f66 	.word	0x3f8c7f66
 8001ad0:	3f733333 	.word	0x3f733333
 8001ad4:	3d611e66 	.word	0x3d611e66
 8001ad8:	2001f708 	.word	0x2001f708
 8001adc:	40c90fdb 	.word	0x40c90fdb
 8001ae0:	472c4400 	.word	0x472c4400
 8001ae4:	3f7fbe77 	.word	0x3f7fbe77
 8001ae8:	2001edc0 	.word	0x2001edc0
 8001aec:	2001f724 	.word	0x2001f724
 8001af0:	2001f714 	.word	0x2001f714
 8001af4:	100028e0 	.word	0x100028e0

08001af8 <MagicPatch.part.0>:
MagicPatch.part.0():
 8001af8:	e92d 4170 	stmdb	sp!, {r4, r5, r6, r8, lr}
 8001afc:	ed2d 8b08 	vpush	{d8-d11}
 8001b00:	b083      	sub	sp, #12
 8001b02:	f00c ff6f 	bl	800e9e4 <rand>
 8001b06:	ee07 0a90 	vmov	s15, r0
 8001b0a:	ed9f 9af0 	vldr	s18, [pc, #960]	; 8001ecc <MagicPatch.part.0+0x3d4>
 8001b0e:	ed9f 8af0 	vldr	s16, [pc, #960]	; 8001ed0 <MagicPatch.part.0+0x3d8>
 8001b12:	eddf 8af0 	vldr	s17, [pc, #960]	; 8001ed4 <MagicPatch.part.0+0x3dc>
 8001b16:	4cf0      	ldr	r4, [pc, #960]	; (8001ed8 <MagicPatch.part.0+0x3e0>)
 8001b18:	eeb8 0ae7 	vcvt.f32.s32	s0, s15
 8001b1c:	2501      	movs	r5, #1
 8001b1e:	ee20 0a09 	vmul.f32	s0, s0, s18
 8001b22:	ee20 0a08 	vmul.f32	s0, s0, s16
 8001b26:	ee30 0a28 	vadd.f32	s0, s0, s17
 8001b2a:	f00b fc3f 	bl	800d3ac <lrintf>
 8001b2e:	b2c3      	uxtb	r3, r0
 8001b30:	ee07 3a90 	vmov	s15, r3
 8001b34:	ed9f 7ae9 	vldr	s14, [pc, #932]	; 8001edc <MagicPatch.part.0+0x3e4>
 8001b38:	ed9f 0ae9 	vldr	s0, [pc, #932]	; 8001ee0 <MagicPatch.part.0+0x3e8>
 8001b3c:	eef8 7ae7 	vcvt.f32.s32	s15, s15
 8001b40:	eef3 6a04 	vmov.f32	s13, #52	; 0x41a00000  20.0
 8001b44:	ee67 7a87 	vmul.f32	s15, s15, s14
 8001b48:	ee87 7a88 	vdiv.f32	s14, s15, s16
 8001b4c:	ee77 7a26 	vadd.f32	s15, s14, s13
 8001b50:	ee80 0a27 	vdiv.f32	s0, s0, s15
 8001b54:	edc4 7a1a 	vstr	s15, [r4, #104]	; 0x68
 8001b58:	f00b fc28 	bl	800d3ac <lrintf>
 8001b5c:	66e0      	str	r0, [r4, #108]	; 0x6c
 8001b5e:	f00c ff41 	bl	800e9e4 <rand>
 8001b62:	ee07 0a90 	vmov	s15, r0
 8001b66:	eeb8 0ae7 	vcvt.f32.s32	s0, s15
 8001b6a:	ee20 0a09 	vmul.f32	s0, s0, s18
 8001b6e:	ee20 0a08 	vmul.f32	s0, s0, s16
 8001b72:	ee30 0a28 	vadd.f32	s0, s0, s17
 8001b76:	f00b fc19 	bl	800d3ac <lrintf>
 8001b7a:	b2c3      	uxtb	r3, r0
 8001b7c:	ee07 3a90 	vmov	s15, r3
 8001b80:	ed9f 7ad8 	vldr	s14, [pc, #864]	; 8001ee4 <MagicPatch.part.0+0x3ec>
 8001b84:	eef8 7ae7 	vcvt.f32.s32	s15, s15
 8001b88:	2301      	movs	r3, #1
 8001b8a:	ee67 7a87 	vmul.f32	s15, s15, s14
 8001b8e:	f884 308c 	strb.w	r3, [r4, #140]	; 0x8c
 8001b92:	eefc 7ae7 	vcvt.u32.f32	s15, s15
 8001b96:	edcd 7a01 	vstr	s15, [sp, #4]
 8001b9a:	f89d 3004 	ldrb.w	r3, [sp, #4]
 8001b9e:	f8a4 3084 	strh.w	r3, [r4, #132]	; 0x84
 8001ba2:	f00c ff1f 	bl	800e9e4 <rand>
 8001ba6:	ee07 0a90 	vmov	s15, r0
 8001baa:	eeb8 0ae7 	vcvt.f32.s32	s0, s15
 8001bae:	ee20 0a09 	vmul.f32	s0, s0, s18
 8001bb2:	ed9f 9ac6 	vldr	s18, [pc, #792]	; 8001ecc <MagicPatch.part.0+0x3d4>
 8001bb6:	ee20 0a08 	vmul.f32	s0, s0, s16
 8001bba:	ed9f 8ac6 	vldr	s16, [pc, #792]	; 8001ed4 <MagicPatch.part.0+0x3dc>
 8001bbe:	ee30 0a28 	vadd.f32	s0, s0, s17
 8001bc2:	f00b fbf3 	bl	800d3ac <lrintf>
 8001bc6:	b2c0      	uxtb	r0, r0
 8001bc8:	ee07 0a90 	vmov	s15, r0
 8001bcc:	ed9f 0ac6 	vldr	s0, [pc, #792]	; 8001ee8 <MagicPatch.part.0+0x3f0>
 8001bd0:	eddf 8abf 	vldr	s17, [pc, #764]	; 8001ed0 <MagicPatch.part.0+0x3d8>
 8001bd4:	eef8 7ae7 	vcvt.f32.s32	s15, s15
 8001bd8:	ee27 0a80 	vmul.f32	s0, s15, s0
 8001bdc:	f00b fc32 	bl	800d444 <rintf>
 8001be0:	eefc 7ac0 	vcvt.u32.f32	s15, s0
 8001be4:	f884 508c 	strb.w	r5, [r4, #140]	; 0x8c
 8001be8:	edcd 7a01 	vstr	s15, [sp, #4]
 8001bec:	f89d 3004 	ldrb.w	r3, [sp, #4]
 8001bf0:	f8a4 307c 	strh.w	r3, [r4, #124]	; 0x7c
 8001bf4:	2b0e      	cmp	r3, #14
 8001bf6:	bf9b      	ittet	ls
 8001bf8:	b29a      	uxthls	r2, r3
 8001bfa:	4bbc      	ldrls	r3, [pc, #752]	; (8001eec <MagicPatch.part.0+0x3f4>)
 8001bfc:	4bbc      	ldrhi	r3, [pc, #752]	; (8001ef0 <MagicPatch.part.0+0x3f8>)
 8001bfe:	f853 3022 	ldrls.w	r3, [r3, r2, lsl #2]
 8001c02:	f8c4 3080 	str.w	r3, [r4, #128]	; 0x80
 8001c06:	f00c feed 	bl	800e9e4 <rand>
 8001c0a:	ee07 0a90 	vmov	s15, r0
 8001c0e:	eeb8 0ae7 	vcvt.f32.s32	s0, s15
 8001c12:	ee20 0a09 	vmul.f32	s0, s0, s18
 8001c16:	ee20 0a28 	vmul.f32	s0, s0, s17
 8001c1a:	ee30 0a08 	vadd.f32	s0, s0, s16
 8001c1e:	f00b fbc5 	bl	800d3ac <lrintf>
 8001c22:	b2c0      	uxtb	r0, r0
 8001c24:	283f      	cmp	r0, #63	; 0x3f
 8001c26:	bf94      	ite	ls
 8001c28:	2000      	movls	r0, #0
 8001c2a:	2001      	movhi	r0, #1
 8001c2c:	f884 008a 	strb.w	r0, [r4, #138]	; 0x8a
 8001c30:	f00c fed8 	bl	800e9e4 <rand>
 8001c34:	ee07 0a90 	vmov	s15, r0
 8001c38:	eeb8 0ae7 	vcvt.f32.s32	s0, s15
 8001c3c:	ee20 0a09 	vmul.f32	s0, s0, s18
 8001c40:	ee20 0a28 	vmul.f32	s0, s0, s17
 8001c44:	ee30 0a08 	vadd.f32	s0, s0, s16
 8001c48:	f00b fbb0 	bl	800d3ac <lrintf>
 8001c4c:	f010 00ff 	ands.w	r0, r0, #255	; 0xff
 8001c50:	f000 8440 	beq.w	80024d4 <MagicPatch.part.0+0x9dc>
 8001c54:	287f      	cmp	r0, #127	; 0x7f
 8001c56:	d101      	bne.n	8001c5c <MagicPatch.part.0+0x164>
 8001c58:	f884 508d 	strb.w	r5, [r4, #141]	; 0x8d
 8001c5c:	f00c fec2 	bl	800e9e4 <rand>
 8001c60:	ee07 0a90 	vmov	s15, r0
 8001c64:	eddf 8a99 	vldr	s17, [pc, #612]	; 8001ecc <MagicPatch.part.0+0x3d4>
 8001c68:	ed9f 9a99 	vldr	s18, [pc, #612]	; 8001ed0 <MagicPatch.part.0+0x3d8>
 8001c6c:	ed9f 8a99 	vldr	s16, [pc, #612]	; 8001ed4 <MagicPatch.part.0+0x3dc>
 8001c70:	eeb8 0ae7 	vcvt.f32.s32	s0, s15
 8001c74:	ee20 0a28 	vmul.f32	s0, s0, s17
 8001c78:	ee20 0a09 	vmul.f32	s0, s0, s18
 8001c7c:	ee30 0a08 	vadd.f32	s0, s0, s16
 8001c80:	f00b fb94 	bl	800d3ac <lrintf>
 8001c84:	b2c3      	uxtb	r3, r0
 8001c86:	ee07 3a10 	vmov	s14, r3
 8001c8a:	eddf 7a9a 	vldr	s15, [pc, #616]	; 8001ef4 <MagicPatch.part.0+0x3fc>
 8001c8e:	eddf 6a9a 	vldr	s13, [pc, #616]	; 8001ef8 <MagicPatch.part.0+0x400>
 8001c92:	eeb8 7ac7 	vcvt.f32.s32	s14, s14
 8001c96:	ee27 7a27 	vmul.f32	s14, s14, s15
 8001c9a:	eec7 7a09 	vdiv.f32	s15, s14, s18
 8001c9e:	ed94 7a1b 	vldr	s14, [r4, #108]	; 0x6c
 8001ca2:	ee77 7aa6 	vadd.f32	s15, s15, s13
 8001ca6:	eeb8 7ac7 	vcvt.f32.s32	s14, s14
 8001caa:	ee67 7a87 	vmul.f32	s15, s15, s14
 8001cae:	eefd 7ae7 	vcvt.s32.f32	s15, s15
 8001cb2:	edc4 7a1e 	vstr	s15, [r4, #120]	; 0x78
 8001cb6:	f00c fe95 	bl	800e9e4 <rand>
 8001cba:	4b90      	ldr	r3, [pc, #576]	; (8001efc <MagicPatch.part.0+0x404>)
 8001cbc:	fb83 2300 	smull	r2, r3, r3, r0
 8001cc0:	eba3 73e0 	sub.w	r3, r3, r0, asr #31
 8001cc4:	eb03 0343 	add.w	r3, r3, r3, lsl #1
 8001cc8:	1ac3      	subs	r3, r0, r3
 8001cca:	f884 3090 	strb.w	r3, [r4, #144]	; 0x90
 8001cce:	f00c fe89 	bl	800e9e4 <rand>
 8001cd2:	ee07 0a90 	vmov	s15, r0
 8001cd6:	eeb8 0ae7 	vcvt.f32.s32	s0, s15
 8001cda:	ee20 0a28 	vmul.f32	s0, s0, s17
 8001cde:	ee20 0a09 	vmul.f32	s0, s0, s18
 8001ce2:	ee30 0a08 	vadd.f32	s0, s0, s16
 8001ce6:	f00b fb61 	bl	800d3ac <lrintf>
 8001cea:	b2c0      	uxtb	r0, r0
 8001cec:	ee07 0a90 	vmov	s15, r0
 8001cf0:	ed9f 0a83 	vldr	s0, [pc, #524]	; 8001f00 <MagicPatch.part.0+0x408>
 8001cf4:	eef8 7ae7 	vcvt.f32.s32	s15, s15
 8001cf8:	ee27 0a80 	vmul.f32	s0, s15, s0
 8001cfc:	f00b fba2 	bl	800d444 <rintf>
 8001d00:	eefc 7ac0 	vcvt.u32.f32	s15, s0
 8001d04:	edcd 7a01 	vstr	s15, [sp, #4]
 8001d08:	f89d 3004 	ldrb.w	r3, [sp, #4]
 8001d0c:	f884 3091 	strb.w	r3, [r4, #145]	; 0x91
 8001d10:	2b04      	cmp	r3, #4
 8001d12:	f040 8319 	bne.w	8002348 <MagicPatch.part.0+0x850>
 8001d16:	f00c fe65 	bl	800e9e4 <rand>
 8001d1a:	ee07 0a90 	vmov	s15, r0
 8001d1e:	ed9f 8a6c 	vldr	s16, [pc, #432]	; 8001ed0 <MagicPatch.part.0+0x3d8>
 8001d22:	ed9f 0a6c 	vldr	s0, [pc, #432]	; 8001ed4 <MagicPatch.part.0+0x3dc>
 8001d26:	eefa 7ae0 	vcvt.f32.s32	s15, s15, #31
 8001d2a:	ee67 7a88 	vmul.f32	s15, s15, s16
 8001d2e:	ee37 0a80 	vadd.f32	s0, s15, s0
 8001d32:	f00b fb3b 	bl	800d3ac <lrintf>
 8001d36:	b2c0      	uxtb	r0, r0
 8001d38:	ee07 0a90 	vmov	s15, r0
 8001d3c:	eef8 0ae7 	vcvt.f32.s32	s1, s15
 8001d40:	ed9f 0a78 	vldr	s0, [pc, #480]	; 8001f24 <MagicPatch.part.0+0x42c>
 8001d44:	eec0 0a88 	vdiv.f32	s1, s1, s16
 8001d48:	f00b fc24 	bl	800d594 <powf>
 8001d4c:	4b6d      	ldr	r3, [pc, #436]	; (8001f04 <MagicPatch.part.0+0x40c>)
 8001d4e:	eddf 7a6e 	vldr	s15, [pc, #440]	; 8001f08 <MagicPatch.part.0+0x410>
 8001d52:	ed9f 7a6e 	vldr	s14, [pc, #440]	; 8001f0c <MagicPatch.part.0+0x414>
 8001d56:	ee20 0a27 	vmul.f32	s0, s0, s15
 8001d5a:	eec0 7a07 	vdiv.f32	s15, s0, s14
 8001d5e:	ed9f 7a6c 	vldr	s14, [pc, #432]	; 8001f10 <MagicPatch.part.0+0x418>
 8001d62:	edc3 7a00 	vstr	s15, [r3]
 8001d66:	eef4 7ac7 	vcmpe.f32	s15, s14
 8001d6a:	eef1 fa10 	vmrs	APSR_nzcv, fpscr
 8001d6e:	f300 82be 	bgt.w	80022ee <MagicPatch.part.0+0x7f6>
 8001d72:	eeb6 7a00 	vmov.f32	s14, #96	; 0x3f000000  0.5
 8001d76:	ee67 7a87 	vmul.f32	s15, s15, s14
 8001d7a:	ed9f 7a66 	vldr	s14, [pc, #408]	; 8001f14 <MagicPatch.part.0+0x41c>
 8001d7e:	ee27 7a87 	vmul.f32	s14, s15, s14
 8001d82:	eef1 5a04 	vmov.f32	s11, #20	; 0x40a00000  5.0
 8001d86:	ee77 6a07 	vadd.f32	s13, s14, s14
 8001d8a:	ee27 6a07 	vmul.f32	s12, s14, s14
 8001d8e:	ee66 6a87 	vmul.f32	s13, s13, s14
 8001d92:	eeba 5a0e 	vmov.f32	s10, #174	; 0xc1700000 -15.0
 8001d96:	ee26 6a07 	vmul.f32	s12, s12, s14
 8001d9a:	ee76 6ae5 	vsub.f32	s13, s13, s11
 8001d9e:	ee27 7a05 	vmul.f32	s14, s14, s10
 8001da2:	eef0 5a08 	vmov.f32	s11, #8	; 0x40400000  3.0
 8001da6:	ee36 7a07 	vadd.f32	s14, s12, s14
 8001daa:	ee66 6aa5 	vmul.f32	s13, s13, s11
 8001dae:	ee87 6a26 	vdiv.f32	s12, s14, s13
 8001db2:	ed84 6a7e 	vstr	s12, [r4, #504]	; 0x1f8
 8001db6:	edc4 7a7d 	vstr	s15, [r4, #500]	; 0x1f4
 8001dba:	f00c fe13 	bl	800e9e4 <rand>
 8001dbe:	ee07 0a90 	vmov	s15, r0
 8001dc2:	ed9f 9a42 	vldr	s18, [pc, #264]	; 8001ecc <MagicPatch.part.0+0x3d4>
 8001dc6:	ed9f 8a42 	vldr	s16, [pc, #264]	; 8001ed0 <MagicPatch.part.0+0x3d8>
 8001dca:	eddf 8a42 	vldr	s17, [pc, #264]	; 8001ed4 <MagicPatch.part.0+0x3dc>
 8001dce:	eeb8 0ae7 	vcvt.f32.s32	s0, s15
 8001dd2:	ee20 0a09 	vmul.f32	s0, s0, s18
 8001dd6:	ee20 0a08 	vmul.f32	s0, s0, s16
 8001dda:	ee30 0a28 	vadd.f32	s0, s0, s17
 8001dde:	f00b fae5 	bl	800d3ac <lrintf>
 8001de2:	b2c0      	uxtb	r0, r0
 8001de4:	ee07 0a90 	vmov	s15, r0
 8001de8:	eef8 7ae7 	vcvt.f32.s32	s15, s15
 8001dec:	eeb7 7a00 	vmov.f32	s14, #112	; 0x3f800000  1.0
 8001df0:	eec7 6a88 	vdiv.f32	s13, s15, s16
 8001df4:	eddf 7a48 	vldr	s15, [pc, #288]	; 8001f18 <MagicPatch.part.0+0x420>
 8001df8:	ee37 7a66 	vsub.f32	s14, s14, s13
 8001dfc:	eeb4 7ae7 	vcmpe.f32	s14, s15
 8001e00:	eef1 fa10 	vmrs	APSR_nzcv, fpscr
 8001e04:	bf58      	it	pl
 8001e06:	eef0 7a47 	vmovpl.f32	s15, s14
 8001e0a:	edc4 7a7f 	vstr	s15, [r4, #508]	; 0x1fc
 8001e0e:	f00c fde9 	bl	800e9e4 <rand>
 8001e12:	ee07 0a90 	vmov	s15, r0
 8001e16:	eeb8 0ae7 	vcvt.f32.s32	s0, s15
 8001e1a:	ee20 0a09 	vmul.f32	s0, s0, s18
 8001e1e:	ee20 0a08 	vmul.f32	s0, s0, s16
 8001e22:	ee30 0a28 	vadd.f32	s0, s0, s17
 8001e26:	f00b fac1 	bl	800d3ac <lrintf>
 8001e2a:	b2c0      	uxtb	r0, r0
 8001e2c:	ee07 0a90 	vmov	s15, r0
 8001e30:	eeb8 7ae7 	vcvt.f32.s32	s14, s15
 8001e34:	eef1 6a08 	vmov.f32	s13, #24	; 0x40c00000  6.0
 8001e38:	eec7 7a08 	vdiv.f32	s15, s14, s16
 8001e3c:	ee67 7aa7 	vmul.f32	s15, s15, s15
 8001e40:	ee67 7aa6 	vmul.f32	s15, s15, s13
 8001e44:	edc4 7a82 	vstr	s15, [r4, #520]	; 0x208
 8001e48:	f00c fdcc 	bl	800e9e4 <rand>
 8001e4c:	ee07 0a90 	vmov	s15, r0
 8001e50:	eeb8 0ae7 	vcvt.f32.s32	s0, s15
 8001e54:	ee20 0a09 	vmul.f32	s0, s0, s18
 8001e58:	ee20 0a08 	vmul.f32	s0, s0, s16
 8001e5c:	ee30 0a28 	vadd.f32	s0, s0, s17
 8001e60:	f00b faa4 	bl	800d3ac <lrintf>
 8001e64:	b2c0      	uxtb	r0, r0
 8001e66:	eb00 0080 	add.w	r0, r0, r0, lsl #2
 8001e6a:	ee07 0a90 	vmov	s15, r0
 8001e6e:	eeb8 0ae7 	vcvt.f32.s32	s0, s15
 8001e72:	ee80 0a08 	vdiv.f32	s0, s0, s16
 8001e76:	f00b fa99 	bl	800d3ac <lrintf>
 8001e7a:	f884 01f0 	strb.w	r0, [r4, #496]	; 0x1f0
 8001e7e:	f00c fdb1 	bl	800e9e4 <rand>
 8001e82:	ee07 0a90 	vmov	s15, r0
 8001e86:	eeb8 0ae7 	vcvt.f32.s32	s0, s15
 8001e8a:	ee20 0a09 	vmul.f32	s0, s0, s18
 8001e8e:	ee20 0a08 	vmul.f32	s0, s0, s16
 8001e92:	ee30 0a28 	vadd.f32	s0, s0, s17
 8001e96:	f00b fa89 	bl	800d3ac <lrintf>
 8001e9a:	b2c3      	uxtb	r3, r0
 8001e9c:	ee07 3a90 	vmov	s15, r3
 8001ea0:	ed9f 7a1e 	vldr	s14, [pc, #120]	; 8001f1c <MagicPatch.part.0+0x424>
 8001ea4:	eef8 7ae7 	vcvt.f32.s32	s15, s15
 8001ea8:	ee67 7a87 	vmul.f32	s15, s15, s14
 8001eac:	edc4 7a84 	vstr	s15, [r4, #528]	; 0x210
 8001eb0:	f00c fd98 	bl	800e9e4 <rand>
 8001eb4:	ee07 0a90 	vmov	s15, r0
 8001eb8:	eeb8 0ae7 	vcvt.f32.s32	s0, s15
 8001ebc:	ee20 0a09 	vmul.f32	s0, s0, s18
 8001ec0:	ee20 0a08 	vmul.f32	s0, s0, s16
 8001ec4:	ee30 0a28 	vadd.f32	s0, s0, s17
 8001ec8:	e02e      	b.n	8001f28 <MagicPatch.part.0+0x430>
 8001eca:	bf00      	nop
 8001ecc:	30000000 	.word	0x30000000
 8001ed0:	42fe0000 	.word	0x42fe0000
 8001ed4:	00000000 	.word	0x00000000
 8001ed8:	10000000 	.word	0x10000000
 8001edc:	43fa0000 	.word	0x43fa0000
 8001ee0:	4a217fc0 	.word	0x4a217fc0
 8001ee4:	3d810204 	.word	0x3d810204
 8001ee8:	3de1c387 	.word	0x3de1c387
 8001eec:	0800f398 	.word	0x0800f398
 8001ef0:	0800f430 	.word	0x0800f430
 8001ef4:	3f4ccccc 	.word	0x3f4ccccc
 8001ef8:	3dcccccd 	.word	0x3dcccccd
 8001efc:	55555556 	.word	0x55555556
 8001f00:	3df1e3c8 	.word	0x3df1e3c8
 8001f04:	2001edc4 	.word	0x2001edc4
 8001f08:	42a00000 	.word	0x42a00000
 8001f0c:	472c4400 	.word	0x472c4400
 8001f10:	3f733333 	.word	0x3f733333
 8001f14:	40490fdb 	.word	0x40490fdb
 8001f18:	3c23d70a 	.word	0x3c23d70a
 8001f1c:	3e810204 	.word	0x3e810204
 8001f20:	3dc18306 	.word	0x3dc18306
 8001f24:	42c80000 	.word	0x42c80000
 8001f28:	f00b fa40 	bl	800d3ac <lrintf>
 8001f2c:	b2c3      	uxtb	r3, r0
 8001f2e:	ee07 3a90 	vmov	s15, r3
 8001f32:	ed1f 7a05 	vldr	s14, [pc, #-20]	; 8001f20 <MagicPatch.part.0+0x428>
 8001f36:	eef8 7ae7 	vcvt.f32.s32	s15, s15
 8001f3a:	ee67 7a87 	vmul.f32	s15, s15, s14
 8001f3e:	edc4 7a86 	vstr	s15, [r4, #536]	; 0x218
 8001f42:	f00c fd4f 	bl	800e9e4 <rand>
 8001f46:	ee07 0a90 	vmov	s15, r0
 8001f4a:	eeb8 0ae7 	vcvt.f32.s32	s0, s15
 8001f4e:	ee20 0a09 	vmul.f32	s0, s0, s18
 8001f52:	ee20 0a08 	vmul.f32	s0, s0, s16
 8001f56:	ee30 0a28 	vadd.f32	s0, s0, s17
 8001f5a:	f00b fa27 	bl	800d3ac <lrintf>
 8001f5e:	b2c0      	uxtb	r0, r0
 8001f60:	ee07 0a90 	vmov	s15, r0
 8001f64:	eef8 0ae7 	vcvt.f32.s32	s1, s15
 8001f68:	ed1f 0a12 	vldr	s0, [pc, #-72]	; 8001f24 <MagicPatch.part.0+0x42c>
 8001f6c:	eec0 0a88 	vdiv.f32	s1, s1, s16
 8001f70:	f00b fb10 	bl	800d594 <powf>
 8001f74:	4be3      	ldr	r3, [pc, #908]	; (8002304 <MagicPatch.part.0+0x80c>)
 8001f76:	eddf 7ae4 	vldr	s15, [pc, #912]	; 8002308 <MagicPatch.part.0+0x810>
 8001f7a:	ed9f 7ae4 	vldr	s14, [pc, #912]	; 800230c <MagicPatch.part.0+0x814>
 8001f7e:	ee20 0a27 	vmul.f32	s0, s0, s15
 8001f82:	eec0 7a07 	vdiv.f32	s15, s0, s14
 8001f86:	ed9f 7ae2 	vldr	s14, [pc, #904]	; 8002310 <MagicPatch.part.0+0x818>
 8001f8a:	edc3 7a00 	vstr	s15, [r3]
 8001f8e:	eef4 7ac7 	vcmpe.f32	s15, s14
 8001f92:	eef1 fa10 	vmrs	APSR_nzcv, fpscr
 8001f96:	f300 81af 	bgt.w	80022f8 <MagicPatch.part.0+0x800>
 8001f9a:	eeb6 7a00 	vmov.f32	s14, #96	; 0x3f000000  0.5
 8001f9e:	ee67 7a87 	vmul.f32	s15, s15, s14
 8001fa2:	ed9f 7adc 	vldr	s14, [pc, #880]	; 8002314 <MagicPatch.part.0+0x81c>
 8001fa6:	ee27 7a87 	vmul.f32	s14, s15, s14
 8001faa:	eef1 5a04 	vmov.f32	s11, #20	; 0x40a00000  5.0
 8001fae:	ee77 6a07 	vadd.f32	s13, s14, s14
 8001fb2:	ee27 6a07 	vmul.f32	s12, s14, s14
 8001fb6:	ee66 6a87 	vmul.f32	s13, s13, s14
 8001fba:	eeba 5a0e 	vmov.f32	s10, #174	; 0xc1700000 -15.0
 8001fbe:	ee26 6a07 	vmul.f32	s12, s12, s14
 8001fc2:	ee76 6ae5 	vsub.f32	s13, s13, s11
 8001fc6:	ee27 7a05 	vmul.f32	s14, s14, s10
 8001fca:	eef0 5a08 	vmov.f32	s11, #8	; 0x40400000  3.0
 8001fce:	ee36 7a07 	vadd.f32	s14, s12, s14
 8001fd2:	ee66 6aa5 	vmul.f32	s13, s13, s11
 8001fd6:	ee87 6a26 	vdiv.f32	s12, s14, s13
 8001fda:	ed84 6a8e 	vstr	s12, [r4, #568]	; 0x238
 8001fde:	edc4 7a8d 	vstr	s15, [r4, #564]	; 0x234
 8001fe2:	f00c fcff 	bl	800e9e4 <rand>
 8001fe6:	ee07 0a90 	vmov	s15, r0
 8001fea:	ed9f 9acb 	vldr	s18, [pc, #812]	; 8002318 <MagicPatch.part.0+0x820>
 8001fee:	ed9f 8acb 	vldr	s16, [pc, #812]	; 800231c <MagicPatch.part.0+0x824>
 8001ff2:	eddf 8acb 	vldr	s17, [pc, #812]	; 8002320 <MagicPatch.part.0+0x828>
 8001ff6:	eddf 9acb 	vldr	s19, [pc, #812]	; 8002324 <MagicPatch.part.0+0x82c>
 8001ffa:	eddf aacb 	vldr	s21, [pc, #812]	; 8002328 <MagicPatch.part.0+0x830>
 8001ffe:	ed9f aac3 	vldr	s20, [pc, #780]	; 800230c <MagicPatch.part.0+0x814>
 8002002:	eeb8 0ae7 	vcvt.f32.s32	s0, s15
 8002006:	eeb7 ba00 	vmov.f32	s22, #112	; 0x3f800000  1.0
 800200a:	ee20 0a09 	vmul.f32	s0, s0, s18
 800200e:	ee20 0a08 	vmul.f32	s0, s0, s16
 8002012:	ee30 0a28 	vadd.f32	s0, s0, s17
 8002016:	f00b f9c9 	bl	800d3ac <lrintf>
 800201a:	b2c0      	uxtb	r0, r0
 800201c:	ee07 0a90 	vmov	s15, r0
 8002020:	eef8 7ae7 	vcvt.f32.s32	s15, s15
 8002024:	ed9f 7ac1 	vldr	s14, [pc, #772]	; 800232c <MagicPatch.part.0+0x834>
 8002028:	eec7 6a88 	vdiv.f32	s13, s15, s16
 800202c:	ee7b 7a66 	vsub.f32	s15, s22, s13
 8002030:	eef4 7ac7 	vcmpe.f32	s15, s14
 8002034:	eef1 fa10 	vmrs	APSR_nzcv, fpscr
 8002038:	bf58      	it	pl
 800203a:	eeb0 7a67 	vmovpl.f32	s14, s15
 800203e:	ed84 7a8f 	vstr	s14, [r4, #572]	; 0x23c
 8002042:	f00c fccf 	bl	800e9e4 <rand>
 8002046:	ee07 0a90 	vmov	s15, r0
 800204a:	eeb8 0ae7 	vcvt.f32.s32	s0, s15
 800204e:	ee20 0a09 	vmul.f32	s0, s0, s18
 8002052:	ee20 0a08 	vmul.f32	s0, s0, s16
 8002056:	ee30 0a28 	vadd.f32	s0, s0, s17
 800205a:	f00b f9a7 	bl	800d3ac <lrintf>
 800205e:	b2c0      	uxtb	r0, r0
 8002060:	ee07 0a90 	vmov	s15, r0
 8002064:	eeb8 7ae7 	vcvt.f32.s32	s14, s15
 8002068:	eef1 6a08 	vmov.f32	s13, #24	; 0x40c00000  6.0
 800206c:	eec7 7a08 	vdiv.f32	s15, s14, s16
 8002070:	ee67 7aa7 	vmul.f32	s15, s15, s15
 8002074:	ee67 7aa6 	vmul.f32	s15, s15, s13
 8002078:	edc4 7a92 	vstr	s15, [r4, #584]	; 0x248
 800207c:	f00c fcb2 	bl	800e9e4 <rand>
 8002080:	ee07 0a90 	vmov	s15, r0
 8002084:	eeb8 0ae7 	vcvt.f32.s32	s0, s15
 8002088:	ee20 0a09 	vmul.f32	s0, s0, s18
 800208c:	ee20 0a08 	vmul.f32	s0, s0, s16
 8002090:	ee30 0a28 	vadd.f32	s0, s0, s17
 8002094:	f00b f98a 	bl	800d3ac <lrintf>
 8002098:	b2c0      	uxtb	r0, r0
 800209a:	eb00 0080 	add.w	r0, r0, r0, lsl #2
 800209e:	ee07 0a90 	vmov	s15, r0
 80020a2:	eeb8 0ae7 	vcvt.f32.s32	s0, s15
 80020a6:	ee80 0a08 	vdiv.f32	s0, s0, s16
 80020aa:	f00b f97f 	bl	800d3ac <lrintf>
 80020ae:	f884 0230 	strb.w	r0, [r4, #560]	; 0x230
 80020b2:	f00c fc97 	bl	800e9e4 <rand>
 80020b6:	ee07 0a90 	vmov	s15, r0
 80020ba:	eeb8 0ae7 	vcvt.f32.s32	s0, s15
 80020be:	ee20 0a09 	vmul.f32	s0, s0, s18
 80020c2:	ee20 0a08 	vmul.f32	s0, s0, s16
 80020c6:	ee30 0a28 	vadd.f32	s0, s0, s17
 80020ca:	f00b f96f 	bl	800d3ac <lrintf>
 80020ce:	b2c3      	uxtb	r3, r0
 80020d0:	ee07 3a90 	vmov	s15, r3
 80020d4:	ed9f 7a96 	vldr	s14, [pc, #600]	; 8002330 <MagicPatch.part.0+0x838>
 80020d8:	eef8 7ae7 	vcvt.f32.s32	s15, s15
 80020dc:	ee67 7a87 	vmul.f32	s15, s15, s14
 80020e0:	edc4 7a94 	vstr	s15, [r4, #592]	; 0x250
 80020e4:	f00c fc7e 	bl	800e9e4 <rand>
 80020e8:	ee07 0a90 	vmov	s15, r0
 80020ec:	eeb8 0ae7 	vcvt.f32.s32	s0, s15
 80020f0:	ee20 0a09 	vmul.f32	s0, s0, s18
 80020f4:	ee20 0a08 	vmul.f32	s0, s0, s16
 80020f8:	ee30 0a28 	vadd.f32	s0, s0, s17
 80020fc:	f00b f956 	bl	800d3ac <lrintf>
 8002100:	b2c3      	uxtb	r3, r0
 8002102:	ee07 3a90 	vmov	s15, r3
 8002106:	eef8 7ae7 	vcvt.f32.s32	s15, s15
 800210a:	ee67 7aa9 	vmul.f32	s15, s15, s19
 800210e:	edc4 7a96 	vstr	s15, [r4, #600]	; 0x258
 8002112:	f00c fc67 	bl	800e9e4 <rand>
 8002116:	ee07 0a90 	vmov	s15, r0
 800211a:	eeb8 0ae7 	vcvt.f32.s32	s0, s15
 800211e:	ee20 0a09 	vmul.f32	s0, s0, s18
 8002122:	ee20 0a08 	vmul.f32	s0, s0, s16
 8002126:	ee30 0a28 	vadd.f32	s0, s0, s17
 800212a:	f00b f93f 	bl	800d3ac <lrintf>
 800212e:	b2c0      	uxtb	r0, r0
 8002130:	283f      	cmp	r0, #63	; 0x3f
 8002132:	bf94      	ite	ls
 8002134:	2000      	movls	r0, #0
 8002136:	2001      	movhi	r0, #1
 8002138:	f884 0270 	strb.w	r0, [r4, #624]	; 0x270
 800213c:	f00c fc52 	bl	800e9e4 <rand>
 8002140:	ee07 0a90 	vmov	s15, r0
 8002144:	eeb8 0ae7 	vcvt.f32.s32	s0, s15
 8002148:	eddf 7a7a 	vldr	s15, [pc, #488]	; 8002334 <MagicPatch.part.0+0x83c>
 800214c:	ee20 0a09 	vmul.f32	s0, s0, s18
 8002150:	ee20 0a27 	vmul.f32	s0, s0, s15
 8002154:	ee30 0a28 	vadd.f32	s0, s0, s17
 8002158:	f00b f928 	bl	800d3ac <lrintf>
 800215c:	b2c0      	uxtb	r0, r0
 800215e:	ee07 0a90 	vmov	s15, r0
 8002162:	eeb8 7ae7 	vcvt.f32.s32	s14, s15
 8002166:	eec7 7a08 	vdiv.f32	s15, s14, s16
 800216a:	ee77 7aaa 	vadd.f32	s15, s15, s21
 800216e:	ee67 7a8a 	vmul.f32	s15, s15, s20
 8002172:	ee8b 7a27 	vdiv.f32	s14, s22, s15
 8002176:	ed84 7a9d 	vstr	s14, [r4, #628]	; 0x274
 800217a:	f00c fc33 	bl	800e9e4 <rand>
 800217e:	ee07 0a90 	vmov	s15, r0
 8002182:	eeb8 0ae7 	vcvt.f32.s32	s0, s15
 8002186:	ee20 0a09 	vmul.f32	s0, s0, s18
 800218a:	ee20 0a08 	vmul.f32	s0, s0, s16
 800218e:	ee30 0a28 	vadd.f32	s0, s0, s17
 8002192:	f00b f90b 	bl	800d3ac <lrintf>
 8002196:	b2c3      	uxtb	r3, r0
 8002198:	ee07 3a90 	vmov	s15, r3
 800219c:	ed9f 7a66 	vldr	s14, [pc, #408]	; 8002338 <MagicPatch.part.0+0x840>
 80021a0:	eef8 7ae7 	vcvt.f32.s32	s15, s15
 80021a4:	ee67 7a87 	vmul.f32	s15, s15, s14
 80021a8:	ee87 7a88 	vdiv.f32	s14, s15, s16
 80021ac:	ee77 7a2a 	vadd.f32	s15, s14, s21
 80021b0:	ee67 7a8a 	vmul.f32	s15, s15, s20
 80021b4:	ee8b 7a27 	vdiv.f32	s14, s22, s15
 80021b8:	ed84 7a9e 	vstr	s14, [r4, #632]	; 0x278
 80021bc:	f00c fc12 	bl	800e9e4 <rand>
 80021c0:	ee07 0a90 	vmov	s15, r0
 80021c4:	eeb8 0ae7 	vcvt.f32.s32	s0, s15
 80021c8:	ee20 0a09 	vmul.f32	s0, s0, s18
 80021cc:	ee20 0a08 	vmul.f32	s0, s0, s16
 80021d0:	ee30 0a28 	vadd.f32	s0, s0, s17
 80021d4:	f00b f8ea 	bl	800d3ac <lrintf>
 80021d8:	b2c0      	uxtb	r0, r0
 80021da:	ee07 0a90 	vmov	s15, r0
 80021de:	eef8 7ae7 	vcvt.f32.s32	s15, s15
 80021e2:	ee87 7a88 	vdiv.f32	s14, s15, s16
 80021e6:	ed84 7a9f 	vstr	s14, [r4, #636]	; 0x27c
 80021ea:	f00c fbfb 	bl	800e9e4 <rand>
 80021ee:	ee07 0a90 	vmov	s15, r0
 80021f2:	eeb8 0ae7 	vcvt.f32.s32	s0, s15
 80021f6:	ee20 0a09 	vmul.f32	s0, s0, s18
 80021fa:	ee20 0a08 	vmul.f32	s0, s0, s16
 80021fe:	ee30 0a28 	vadd.f32	s0, s0, s17
 8002202:	f00b f8d3 	bl	800d3ac <lrintf>
 8002206:	b2c3      	uxtb	r3, r0
 8002208:	ee07 3a10 	vmov	s14, r3
 800220c:	eeba 7aef 	vcvt.f32.s32	s14, s14, #1
 8002210:	edd4 6a9f 	vldr	s13, [r4, #636]	; 0x27c
 8002214:	eec7 7a08 	vdiv.f32	s15, s14, s16
 8002218:	ee77 aaaa 	vadd.f32	s21, s15, s21
 800221c:	ee2a aa8a 	vmul.f32	s20, s21, s20
 8002220:	eec6 7a8a 	vdiv.f32	s15, s13, s20
 8002224:	edc4 7aa0 	vstr	s15, [r4, #640]	; 0x280
 8002228:	f00c fbdc 	bl	800e9e4 <rand>
 800222c:	ee07 0a90 	vmov	s15, r0
 8002230:	eeb8 0ae7 	vcvt.f32.s32	s0, s15
 8002234:	ee20 0a09 	vmul.f32	s0, s0, s18
 8002238:	ee20 0a08 	vmul.f32	s0, s0, s16
 800223c:	ee30 0a28 	vadd.f32	s0, s0, s17
 8002240:	f00b f8b4 	bl	800d3ac <lrintf>
 8002244:	b2c3      	uxtb	r3, r0
 8002246:	ee07 3a90 	vmov	s15, r3
 800224a:	ed9f 7a3c 	vldr	s14, [pc, #240]	; 800233c <MagicPatch.part.0+0x844>
 800224e:	eef8 7ae7 	vcvt.f32.s32	s15, s15
 8002252:	ee67 7a87 	vmul.f32	s15, s15, s14
 8002256:	edc4 7aa7 	vstr	s15, [r4, #668]	; 0x29c
 800225a:	f00c fbc3 	bl	800e9e4 <rand>
 800225e:	ee07 0a90 	vmov	s15, r0
 8002262:	eeb8 0ae7 	vcvt.f32.s32	s0, s15
 8002266:	ee20 0a09 	vmul.f32	s0, s0, s18
 800226a:	ee20 0a08 	vmul.f32	s0, s0, s16
 800226e:	ee30 0a28 	vadd.f32	s0, s0, s17
 8002272:	f00b f89b 	bl	800d3ac <lrintf>
 8002276:	b2c3      	uxtb	r3, r0
 8002278:	ee07 3a90 	vmov	s15, r3
 800227c:	eef8 7ae7 	vcvt.f32.s32	s15, s15
 8002280:	ee67 7aa9 	vmul.f32	s15, s15, s19
 8002284:	edc4 7aa9 	vstr	s15, [r4, #676]	; 0x2a4
 8002288:	f00c fbac 	bl	800e9e4 <rand>
 800228c:	ee07 0a90 	vmov	s15, r0
 8002290:	eeb8 0ae7 	vcvt.f32.s32	s0, s15
 8002294:	ee20 0a09 	vmul.f32	s0, s0, s18
 8002298:	ee20 0a08 	vmul.f32	s0, s0, s16
 800229c:	ee30 0a28 	vadd.f32	s0, s0, s17
 80022a0:	f00b f884 	bl	800d3ac <lrintf>
 80022a4:	b2c0      	uxtb	r0, r0
 80022a6:	ee07 0a90 	vmov	s15, r0
 80022aa:	eef8 7ae7 	vcvt.f32.s32	s15, s15
 80022ae:	ee87 7a88 	vdiv.f32	s14, s15, s16
 80022b2:	ed84 7aaf 	vstr	s14, [r4, #700]	; 0x2bc
 80022b6:	f00c fb95 	bl	800e9e4 <rand>
 80022ba:	ee07 0a90 	vmov	s15, r0
 80022be:	eeb8 0ae7 	vcvt.f32.s32	s0, s15
 80022c2:	ee20 0a09 	vmul.f32	s0, s0, s18
 80022c6:	ee20 0a08 	vmul.f32	s0, s0, s16
 80022ca:	ee30 0a28 	vadd.f32	s0, s0, s17
 80022ce:	f00b f86d 	bl	800d3ac <lrintf>
 80022d2:	b2c3      	uxtb	r3, r0
 80022d4:	ee07 3a90 	vmov	s15, r3
 80022d8:	eef8 7ae7 	vcvt.f32.s32	s15, s15
 80022dc:	ee67 7aa9 	vmul.f32	s15, s15, s19
 80022e0:	edc4 7ab1 	vstr	s15, [r4, #708]	; 0x2c4
 80022e4:	b003      	add	sp, #12
 80022e6:	ecbd 8b08 	vpop	{d8-d11}
 80022ea:	e8bd 8170 	ldmia.w	sp!, {r4, r5, r6, r8, pc}
 80022ee:	ed9f 6a14 	vldr	s12, [pc, #80]	; 8002340 <MagicPatch.part.0+0x848>
 80022f2:	eddf 7a14 	vldr	s15, [pc, #80]	; 8002344 <MagicPatch.part.0+0x84c>
 80022f6:	e55c      	b.n	8001db2 <MagicPatch.part.0+0x2ba>
 80022f8:	ed9f 6a11 	vldr	s12, [pc, #68]	; 8002340 <MagicPatch.part.0+0x848>
 80022fc:	eddf 7a11 	vldr	s15, [pc, #68]	; 8002344 <MagicPatch.part.0+0x84c>
 8002300:	e66b      	b.n	8001fda <MagicPatch.part.0+0x4e2>
 8002302:	bf00      	nop
 8002304:	2001edc8 	.word	0x2001edc8
 8002308:	42a00000 	.word	0x42a00000
 800230c:	472c4400 	.word	0x472c4400
 8002310:	3f733333 	.word	0x3f733333
 8002314:	40490fdb 	.word	0x40490fdb
 8002318:	30000000 	.word	0x30000000
 800231c:	42fe0000 	.word	0x42fe0000
 8002320:	00000000 	.word	0x00000000
 8002324:	3dc18306 	.word	0x3dc18306
 8002328:	38d1b717 	.word	0x38d1b717
 800232c:	3c23d70a 	.word	0x3c23d70a
 8002330:	3e810204 	.word	0x3e810204
 8002334:	414b3333 	.word	0x414b3333
 8002338:	3e4ccccd 	.word	0x3e4ccccd
 800233c:	3b810204 	.word	0x3b810204
 8002340:	413a1203 	.word	0x413a1203
 8002344:	3ef33333 	.word	0x3ef33333
 8002348:	4ddd      	ldr	r5, [pc, #884]	; (80026c0 <MagicPatch.part.0+0xbc8>)
 800234a:	eddf 9ade 	vldr	s19, [pc, #888]	; 80026c4 <MagicPatch.part.0+0xbcc>
 800234e:	ed9f 9ade 	vldr	s18, [pc, #888]	; 80026c8 <MagicPatch.part.0+0xbd0>
 8002352:	ed84 8a31 	vstr	s16, [r4, #196]	; 0xc4
 8002356:	f04f 537e 	mov.w	r3, #1065353216	; 0x3f800000
 800235a:	f8c4 3098 	str.w	r3, [r4, #152]	; 0x98
 800235e:	f8c4 3094 	str.w	r3, [r4, #148]	; 0x94
 8002362:	ed84 8a30 	vstr	s16, [r4, #192]	; 0xc0
 8002366:	f105 062c 	add.w	r6, r5, #44	; 0x2c
 800236a:	f105 0824 	add.w	r8, r5, #36	; 0x24
 800236e:	f00c fb39 	bl	800e9e4 <rand>
 8002372:	ee07 0a90 	vmov	s15, r0
 8002376:	eef8 7ae7 	vcvt.f32.s32	s15, s15
 800237a:	eca6 8a01 	vstmia	r6!, {s16}
 800237e:	ee67 7aa8 	vmul.f32	s15, s15, s17
 8002382:	ee67 7aa9 	vmul.f32	s15, s15, s19
 8002386:	ee77 7a89 	vadd.f32	s15, s15, s18
 800238a:	ece5 7a01 	vstmia	r5!, {s15}
 800238e:	ed94 7a25 	vldr	s14, [r4, #148]	; 0x94
 8002392:	ee77 7a87 	vadd.f32	s15, s15, s14
 8002396:	45a8      	cmp	r8, r5
 8002398:	edc4 7a25 	vstr	s15, [r4, #148]	; 0x94
 800239c:	d1e7      	bne.n	800236e <MagicPatch.part.0+0x876>
 800239e:	eef7 9a00 	vmov.f32	s19, #112	; 0x3f800000  1.0
 80023a2:	ee89 7aa7 	vdiv.f32	s14, s19, s15
 80023a6:	f894 3091 	ldrb.w	r3, [r4, #145]	; 0x91
 80023aa:	2b0e      	cmp	r3, #14
 80023ac:	ed84 7a25 	vstr	s14, [r4, #148]	; 0x94
 80023b0:	f000 8094 	beq.w	80024dc <MagicPatch.part.0+0x9e4>
 80023b4:	2b0d      	cmp	r3, #13
 80023b6:	f47f acae 	bne.w	8001d16 <MagicPatch.part.0+0x21e>
 80023ba:	f00c fb13 	bl	800e9e4 <rand>
 80023be:	ee07 0a90 	vmov	s15, r0
 80023c2:	eeb8 0ae7 	vcvt.f32.s32	s0, s15
 80023c6:	ed9f 9ac1 	vldr	s18, [pc, #772]	; 80026cc <MagicPatch.part.0+0xbd4>
 80023ca:	ee20 0a28 	vmul.f32	s0, s0, s17
 80023ce:	ee20 0a09 	vmul.f32	s0, s0, s18
 80023d2:	ee30 0a08 	vadd.f32	s0, s0, s16
 80023d6:	f00a ffe9 	bl	800d3ac <lrintf>
 80023da:	b2c0      	uxtb	r0, r0
 80023dc:	ee07 0a90 	vmov	s15, r0
 80023e0:	eeb8 7ae7 	vcvt.f32.s32	s14, s15
 80023e4:	eec7 7a09 	vdiv.f32	s15, s14, s18
 80023e8:	ee67 7aa7 	vmul.f32	s15, s15, s15
 80023ec:	edc4 7a5d 	vstr	s15, [r4, #372]	; 0x174
 80023f0:	edc4 7a68 	vstr	s15, [r4, #416]	; 0x1a0
 80023f4:	edc4 7a73 	vstr	s15, [r4, #460]	; 0x1cc
 80023f8:	f00c faf4 	bl	800e9e4 <rand>
 80023fc:	ee07 0a90 	vmov	s15, r0
 8002400:	eeb8 0ae7 	vcvt.f32.s32	s0, s15
 8002404:	ee20 0a28 	vmul.f32	s0, s0, s17
 8002408:	ee20 0a09 	vmul.f32	s0, s0, s18
 800240c:	ee30 0a08 	vadd.f32	s0, s0, s16
 8002410:	f00a ffcc 	bl	800d3ac <lrintf>
 8002414:	2332      	movs	r3, #50	; 0x32
 8002416:	b2c0      	uxtb	r0, r0
 8002418:	fb03 f000 	mul.w	r0, r3, r0
 800241c:	ee07 0a90 	vmov	s15, r0
 8002420:	eef8 7ae7 	vcvt.f32.s32	s15, s15
 8002424:	eddf 6aaa 	vldr	s13, [pc, #680]	; 80026d0 <MagicPatch.part.0+0xbd8>
 8002428:	ee87 7a89 	vdiv.f32	s14, s15, s18
 800242c:	ee77 7a26 	vadd.f32	s15, s14, s13
 8002430:	edc4 7a5c 	vstr	s15, [r4, #368]	; 0x170
 8002434:	edc4 7a67 	vstr	s15, [r4, #412]	; 0x19c
 8002438:	edc4 7a72 	vstr	s15, [r4, #456]	; 0x1c8
 800243c:	f00c fad2 	bl	800e9e4 <rand>
 8002440:	ee07 0a90 	vmov	s15, r0
 8002444:	eeb8 0ae7 	vcvt.f32.s32	s0, s15
 8002448:	ee20 0a28 	vmul.f32	s0, s0, s17
 800244c:	ee20 0a09 	vmul.f32	s0, s0, s18
 8002450:	ee30 0a08 	vadd.f32	s0, s0, s16
 8002454:	f00a ffaa 	bl	800d3ac <lrintf>
 8002458:	b2c0      	uxtb	r0, r0
 800245a:	eb00 03c0 	add.w	r3, r0, r0, lsl #3
 800245e:	eb00 0043 	add.w	r0, r0, r3, lsl #1
 8002462:	ee07 0a90 	vmov	s15, r0
 8002466:	eef8 7ae7 	vcvt.f32.s32	s15, s15
 800246a:	ed94 6a72 	vldr	s12, [r4, #456]	; 0x1c8
 800246e:	eddf 6a99 	vldr	s13, [pc, #612]	; 80026d4 <MagicPatch.part.0+0xbdc>
 8002472:	ee87 7a89 	vdiv.f32	s14, s15, s18
 8002476:	ee77 7a29 	vadd.f32	s15, s14, s19
 800247a:	ee67 7a86 	vmul.f32	s15, s15, s12
 800247e:	eef4 7ae6 	vcmpe.f32	s15, s13
 8002482:	eef1 fa10 	vmrs	APSR_nzcv, fpscr
 8002486:	f340 8113 	ble.w	80026b0 <MagicPatch.part.0+0xbb8>
 800248a:	edc4 6a5b 	vstr	s13, [r4, #364]	; 0x16c
 800248e:	edc4 6a66 	vstr	s13, [r4, #408]	; 0x198
 8002492:	edc4 6a71 	vstr	s13, [r4, #452]	; 0x1c4
 8002496:	f00c faa5 	bl	800e9e4 <rand>
 800249a:	ee07 0a90 	vmov	s15, r0
 800249e:	ed9f 8a8b 	vldr	s16, [pc, #556]	; 80026cc <MagicPatch.part.0+0xbd4>
 80024a2:	ed9f 0a8d 	vldr	s0, [pc, #564]	; 80026d8 <MagicPatch.part.0+0xbe0>
 80024a6:	eefa 7ae0 	vcvt.f32.s32	s15, s15, #31
 80024aa:	ee67 7a88 	vmul.f32	s15, s15, s16
 80024ae:	ee37 0a80 	vadd.f32	s0, s15, s0
 80024b2:	f00a ff7b 	bl	800d3ac <lrintf>
 80024b6:	b2c0      	uxtb	r0, r0
 80024b8:	ee07 0a90 	vmov	s15, r0
 80024bc:	eef8 0ae7 	vcvt.f32.s32	s1, s15
 80024c0:	ed9f 0a86 	vldr	s0, [pc, #536]	; 80026dc <MagicPatch.part.0+0xbe4>
 80024c4:	eec0 0a88 	vdiv.f32	s1, s1, s16
 80024c8:	f00b f864 	bl	800d594 <powf>
 80024cc:	4b84      	ldr	r3, [pc, #528]	; (80026e0 <MagicPatch.part.0+0xbe8>)
 80024ce:	ed83 0a00 	vstr	s0, [r3]
 80024d2:	e420      	b.n	8001d16 <MagicPatch.part.0+0x21e>
 80024d4:	f884 008d 	strb.w	r0, [r4, #141]	; 0x8d
 80024d8:	f7ff bbc0 	b.w	8001c5c <MagicPatch.part.0+0x164>
 80024dc:	f00c fa82 	bl	800e9e4 <rand>
 80024e0:	ee07 0a90 	vmov	s15, r0
 80024e4:	eeb8 0ae7 	vcvt.f32.s32	s0, s15
 80024e8:	ed9f 9a78 	vldr	s18, [pc, #480]	; 80026cc <MagicPatch.part.0+0xbd4>
 80024ec:	eddf 9a7d 	vldr	s19, [pc, #500]	; 80026e4 <MagicPatch.part.0+0xbec>
 80024f0:	ed9f aa7d 	vldr	s20, [pc, #500]	; 80026e8 <MagicPatch.part.0+0xbf0>
 80024f4:	ee20 0a28 	vmul.f32	s0, s0, s17
 80024f8:	ee20 0a09 	vmul.f32	s0, s0, s18
 80024fc:	ee30 0a08 	vadd.f32	s0, s0, s16
 8002500:	f00a ff54 	bl	800d3ac <lrintf>
 8002504:	b2c0      	uxtb	r0, r0
 8002506:	ee07 0a90 	vmov	s15, r0
 800250a:	eef8 0ae7 	vcvt.f32.s32	s1, s15
 800250e:	ed9f 0a77 	vldr	s0, [pc, #476]	; 80026ec <MagicPatch.part.0+0xbf4>
 8002512:	eec0 0a89 	vdiv.f32	s1, s1, s18
 8002516:	f00b f83d 	bl	800d594 <powf>
 800251a:	eef6 7a00 	vmov.f32	s15, #96	; 0x3f000000  0.5
 800251e:	ee20 0a27 	vmul.f32	s0, s0, s15
 8002522:	ed84 0a3d 	vstr	s0, [r4, #244]	; 0xf4
 8002526:	f00c fa5d 	bl	800e9e4 <rand>
 800252a:	ee07 0a90 	vmov	s15, r0
 800252e:	eeb8 0ae7 	vcvt.f32.s32	s0, s15
 8002532:	ee20 0a28 	vmul.f32	s0, s0, s17
 8002536:	ee20 0a09 	vmul.f32	s0, s0, s18
 800253a:	ee30 0a08 	vadd.f32	s0, s0, s16
 800253e:	f00a ff35 	bl	800d3ac <lrintf>
 8002542:	b2c3      	uxtb	r3, r0
 8002544:	ee07 3a90 	vmov	s15, r3
 8002548:	eef8 7ae7 	vcvt.f32.s32	s15, s15
 800254c:	ee67 7aa9 	vmul.f32	s15, s15, s19
 8002550:	ee87 7a89 	vdiv.f32	s14, s15, s18
 8002554:	ee27 7a07 	vmul.f32	s14, s14, s14
 8002558:	ed84 7a40 	vstr	s14, [r4, #256]	; 0x100
 800255c:	f00c fa42 	bl	800e9e4 <rand>
 8002560:	ee07 0a90 	vmov	s15, r0
 8002564:	eeb8 0ae7 	vcvt.f32.s32	s0, s15
 8002568:	ee20 0a28 	vmul.f32	s0, s0, s17
 800256c:	ee20 0a09 	vmul.f32	s0, s0, s18
 8002570:	ee30 0a08 	vadd.f32	s0, s0, s16
 8002574:	f00a ff1a 	bl	800d3ac <lrintf>
 8002578:	b2c0      	uxtb	r0, r0
 800257a:	ee07 0a90 	vmov	s15, r0
 800257e:	eef8 0ae7 	vcvt.f32.s32	s1, s15
 8002582:	ed9f 0a5b 	vldr	s0, [pc, #364]	; 80026f0 <MagicPatch.part.0+0xbf8>
 8002586:	eec0 0a89 	vdiv.f32	s1, s1, s18
 800258a:	f00b f803 	bl	800d594 <powf>
 800258e:	ee20 0a0a 	vmul.f32	s0, s0, s20
 8002592:	ed84 0a49 	vstr	s0, [r4, #292]	; 0x124
 8002596:	f00c fa25 	bl	800e9e4 <rand>
 800259a:	ee07 0a90 	vmov	s15, r0
 800259e:	eeb8 0ae7 	vcvt.f32.s32	s0, s15
 80025a2:	ee20 0a28 	vmul.f32	s0, s0, s17
 80025a6:	ee20 0a09 	vmul.f32	s0, s0, s18
 80025aa:	ee30 0a08 	vadd.f32	s0, s0, s16
 80025ae:	f00a fefd 	bl	800d3ac <lrintf>
 80025b2:	b2c3      	uxtb	r3, r0
 80025b4:	ee07 3a90 	vmov	s15, r3
 80025b8:	eef8 7ae7 	vcvt.f32.s32	s15, s15
 80025bc:	ee67 7aa9 	vmul.f32	s15, s15, s19
 80025c0:	ee87 7a89 	vdiv.f32	s14, s15, s18
 80025c4:	ee27 7a07 	vmul.f32	s14, s14, s14
 80025c8:	ed84 7a48 	vstr	s14, [r4, #288]	; 0x120
 80025cc:	f00c fa0a 	bl	800e9e4 <rand>
 80025d0:	ee07 0a90 	vmov	s15, r0
 80025d4:	eeb8 0ae7 	vcvt.f32.s32	s0, s15
 80025d8:	ee20 0a28 	vmul.f32	s0, s0, s17
 80025dc:	ee20 0a09 	vmul.f32	s0, s0, s18
 80025e0:	ee30 0a08 	vadd.f32	s0, s0, s16
 80025e4:	f00a fee2 	bl	800d3ac <lrintf>
 80025e8:	b2c0      	uxtb	r0, r0
 80025ea:	ee07 0a90 	vmov	s15, r0
 80025ee:	eef8 0ae7 	vcvt.f32.s32	s1, s15
 80025f2:	ed9f 0a3f 	vldr	s0, [pc, #252]	; 80026f0 <MagicPatch.part.0+0xbf8>
 80025f6:	eec0 0a89 	vdiv.f32	s1, s1, s18
 80025fa:	f00a ffcb 	bl	800d594 <powf>
 80025fe:	ee20 0a0a 	vmul.f32	s0, s0, s20
 8002602:	ed84 0a51 	vstr	s0, [r4, #324]	; 0x144
 8002606:	f00c f9ed 	bl	800e9e4 <rand>
 800260a:	ee07 0a90 	vmov	s15, r0
 800260e:	eeb8 0ae7 	vcvt.f32.s32	s0, s15
 8002612:	ee20 0a28 	vmul.f32	s0, s0, s17
 8002616:	ee20 0a09 	vmul.f32	s0, s0, s18
 800261a:	ee30 0a08 	vadd.f32	s0, s0, s16
 800261e:	f00a fec5 	bl	800d3ac <lrintf>
 8002622:	b2c3      	uxtb	r3, r0
 8002624:	ee07 3a90 	vmov	s15, r3
 8002628:	eef8 7ae7 	vcvt.f32.s32	s15, s15
 800262c:	ee67 7aa9 	vmul.f32	s15, s15, s19
 8002630:	ee87 7a89 	vdiv.f32	s14, s15, s18
 8002634:	ee27 7a07 	vmul.f32	s14, s14, s14
 8002638:	ed84 7a50 	vstr	s14, [r4, #320]	; 0x140
 800263c:	f00c f9d2 	bl	800e9e4 <rand>
 8002640:	ee07 0a90 	vmov	s15, r0
 8002644:	eeb8 0ae7 	vcvt.f32.s32	s0, s15
 8002648:	ee20 0a28 	vmul.f32	s0, s0, s17
 800264c:	ee20 0a09 	vmul.f32	s0, s0, s18
 8002650:	ee30 0a08 	vadd.f32	s0, s0, s16
 8002654:	f00a feaa 	bl	800d3ac <lrintf>
 8002658:	b2c0      	uxtb	r0, r0
 800265a:	ee07 0a90 	vmov	s15, r0
 800265e:	eef8 0ae7 	vcvt.f32.s32	s1, s15
 8002662:	ed9f 0a23 	vldr	s0, [pc, #140]	; 80026f0 <MagicPatch.part.0+0xbf8>
 8002666:	eec0 0a89 	vdiv.f32	s1, s1, s18
 800266a:	f00a ff93 	bl	800d594 <powf>
 800266e:	ee20 0a0a 	vmul.f32	s0, s0, s20
 8002672:	ed84 0a59 	vstr	s0, [r4, #356]	; 0x164
 8002676:	f00c f9b5 	bl	800e9e4 <rand>
 800267a:	ee07 0a90 	vmov	s15, r0
 800267e:	eeb8 0ae7 	vcvt.f32.s32	s0, s15
 8002682:	ee20 0a28 	vmul.f32	s0, s0, s17
 8002686:	ee20 0a09 	vmul.f32	s0, s0, s18
 800268a:	ee30 0a08 	vadd.f32	s0, s0, s16
 800268e:	f00a fe8d 	bl	800d3ac <lrintf>
 8002692:	b2c3      	uxtb	r3, r0
 8002694:	ee07 3a90 	vmov	s15, r3
 8002698:	eef8 7ae7 	vcvt.f32.s32	s15, s15
 800269c:	ee67 7aa9 	vmul.f32	s15, s15, s19
 80026a0:	ee87 7a89 	vdiv.f32	s14, s15, s18
 80026a4:	ee27 7a07 	vmul.f32	s14, s14, s14
 80026a8:	ed84 7a58 	vstr	s14, [r4, #352]	; 0x160
 80026ac:	f7ff bb33 	b.w	8001d16 <MagicPatch.part.0+0x21e>
 80026b0:	edc4 7a5b 	vstr	s15, [r4, #364]	; 0x16c
 80026b4:	edc4 7a66 	vstr	s15, [r4, #408]	; 0x198
 80026b8:	edc4 7a71 	vstr	s15, [r4, #452]	; 0x1c4
 80026bc:	e6eb      	b.n	8002496 <MagicPatch.part.0+0x99e>
 80026be:	bf00      	nop
 80026c0:	1000009c 	.word	0x1000009c
 80026c4:	3f7a9fbf 	.word	0x3f7a9fbf
 80026c8:	3a83126f 	.word	0x3a83126f
 80026cc:	42fe0000 	.word	0x42fe0000
 80026d0:	3dcccccd 	.word	0x3dcccccd
 80026d4:	461c4000 	.word	0x461c4000
 80026d8:	00000000 	.word	0x00000000
 80026dc:	45bb8000 	.word	0x45bb8000
 80026e0:	20000024 	.word	0x20000024
 80026e4:	3fb33333 	.word	0x3fb33333
 80026e8:	3e4ccccd 	.word	0x3e4ccccd
 80026ec:	467a0000 	.word	0x467a0000
 80026f0:	43200000 	.word	0x43200000

080026f4 <drifter_nextSample>:
drifter_nextSample():
 80026f4:	edd0 7a06 	vldr	s15, [r0, #24]
 80026f8:	edd0 6a09 	vldr	s13, [r0, #36]	; 0x24
 80026fc:	ed90 7a07 	vldr	s14, [r0, #28]
 8002700:	6983      	ldr	r3, [r0, #24]
 8002702:	6942      	ldr	r2, [r0, #20]
 8002704:	eeb8 0a67 	vcvt.f32.u32	s0, s15
 8002708:	edd0 7a02 	vldr	s15, [r0, #8]
 800270c:	ee20 0a26 	vmul.f32	s0, s0, s13
 8002710:	3301      	adds	r3, #1
 8002712:	ee30 0a07 	vadd.f32	s0, s0, s14
 8002716:	4293      	cmp	r3, r2
 8002718:	ee20 0a27 	vmul.f32	s0, s0, s15
 800271c:	6183      	str	r3, [r0, #24]
 800271e:	ed80 0a0a 	vstr	s0, [r0, #40]	; 0x28
 8002722:	d200      	bcs.n	8002726 <drifter_nextSample+0x32>
 8002724:	4770      	bx	lr
 8002726:	b510      	push	{r4, lr}
 8002728:	eddf 7a24 	vldr	s15, [pc, #144]	; 80027bc <drifter_nextSample+0xc8>
 800272c:	edd0 6a00 	vldr	s13, [r0]
 8002730:	ed90 7a01 	vldr	s14, [r0, #4]
 8002734:	6a03      	ldr	r3, [r0, #32]
 8002736:	ed2d 8b04 	vpush	{d8-d9}
 800273a:	eec7 8aa6 	vdiv.f32	s17, s15, s13
 800273e:	2200      	movs	r2, #0
 8002740:	6182      	str	r2, [r0, #24]
 8002742:	61c3      	str	r3, [r0, #28]
 8002744:	4604      	mov	r4, r0
 8002746:	ee87 8a87 	vdiv.f32	s16, s15, s14
 800274a:	edc0 8a03 	vstr	s17, [r0, #12]
 800274e:	ed80 8a04 	vstr	s16, [r0, #16]
 8002752:	f00c f947 	bl	800e9e4 <rand>
 8002756:	ee07 0a90 	vmov	s15, r0
 800275a:	ed9f 9a19 	vldr	s18, [pc, #100]	; 80027c0 <drifter_nextSample+0xcc>
 800275e:	eef8 7ae7 	vcvt.f32.s32	s15, s15
 8002762:	ee38 8a68 	vsub.f32	s16, s16, s17
 8002766:	ee67 7a89 	vmul.f32	s15, s15, s18
 800276a:	ee67 7a88 	vmul.f32	s15, s15, s16
 800276e:	ee77 7aa8 	vadd.f32	s15, s15, s17
 8002772:	eefc 7ae7 	vcvt.u32.f32	s15, s15
 8002776:	edc4 7a05 	vstr	s15, [r4, #20]
 800277a:	f00c f933 	bl	800e9e4 <rand>
 800277e:	ee07 0a90 	vmov	s15, r0
 8002782:	eef8 7ae7 	vcvt.f32.s32	s15, s15
 8002786:	eeb7 7a00 	vmov.f32	s14, #112	; 0x3f800000  1.0
 800278a:	ee67 7a89 	vmul.f32	s15, s15, s18
 800278e:	edd4 6a07 	vldr	s13, [r4, #28]
 8002792:	ed94 0a0a 	vldr	s0, [r4, #40]	; 0x28
 8002796:	ee77 7aa7 	vadd.f32	s15, s15, s15
 800279a:	ecbd 8b04 	vpop	{d8-d9}
 800279e:	ee77 7ac7 	vsub.f32	s15, s15, s14
 80027a2:	ed94 7a05 	vldr	s14, [r4, #20]
 80027a6:	edc4 7a08 	vstr	s15, [r4, #32]
 80027aa:	eeb8 7a47 	vcvt.f32.u32	s14, s14
 80027ae:	ee77 6ae6 	vsub.f32	s13, s15, s13
 80027b2:	ee86 6a87 	vdiv.f32	s12, s13, s14
 80027b6:	ed84 6a09 	vstr	s12, [r4, #36]	; 0x24
 80027ba:	bd10      	pop	{r4, pc}
 80027bc:	46ac4400 	.word	0x46ac4400
 80027c0:	30000000 	.word	0x30000000

080027c4 <delay_read>:
delay_read():
 80027c4:	b500      	push	{lr}
 80027c6:	eeb1 7a08 	vmov.f32	s14, #24	; 0x40c00000  6.0
 80027ca:	ed2d 8b02 	vpush	{d8}
 80027ce:	eeb4 0ac7 	vcmpe.f32	s0, s14
 80027d2:	eef1 fa10 	vmrs	APSR_nzcv, fpscr
 80027d6:	b083      	sub	sp, #12
 80027d8:	d44e      	bmi.n	8002878 <delay_read+0xb4>
 80027da:	eddf 7a45 	vldr	s15, [pc, #276]	; 80028f0 <delay_read+0x12c>
 80027de:	eeb4 0ae7 	vcmpe.f32	s0, s15
 80027e2:	eef1 fa10 	vmrs	APSR_nzcv, fpscr
 80027e6:	eeb0 8a40 	vmov.f32	s16, s0
 80027ea:	dd53      	ble.n	8002894 <delay_read+0xd0>
 80027ec:	eddf 7a41 	vldr	s15, [pc, #260]	; 80028f4 <delay_read+0x130>
 80027f0:	eddf 6a41 	vldr	s13, [pc, #260]	; 80028f8 <delay_read+0x134>
 80027f4:	eddf 4a41 	vldr	s9, [pc, #260]	; 80028fc <delay_read+0x138>
 80027f8:	ed9f 4a41 	vldr	s8, [pc, #260]	; 8002900 <delay_read+0x13c>
 80027fc:	eeb0 6a47 	vmov.f32	s12, s14
 8002800:	f240 5272 	movw	r2, #1394	; 0x572
 8002804:	eeb7 5a08 	vmov.f32	s10, #120	; 0x3fc00000  1.5
 8002808:	68c3      	ldr	r3, [r0, #12]
 800280a:	1a9b      	subs	r3, r3, r2
 800280c:	bf48      	it	mi
 800280e:	f503 63af 	addmi.w	r3, r3, #1400	; 0x578
 8002812:	eb00 0283 	add.w	r2, r0, r3, lsl #2
 8002816:	ed92 0a04 	vldr	s0, [r2, #16]
 800281a:	1e5a      	subs	r2, r3, #1
 800281c:	bf48      	it	mi
 800281e:	f203 5277 	addwmi	r2, r3, #1399	; 0x577
 8002822:	eb00 0382 	add.w	r3, r0, r2, lsl #2
 8002826:	ed93 7a04 	vldr	s14, [r3, #16]
 800282a:	1e53      	subs	r3, r2, #1
 800282c:	bf48      	it	mi
 800282e:	f202 5377 	addwmi	r3, r2, #1399	; 0x577
 8002832:	eb00 0283 	add.w	r2, r0, r3, lsl #2
 8002836:	edd2 5a04 	vldr	s11, [r2, #16]
 800283a:	1e5a      	subs	r2, r3, #1
 800283c:	bf48      	it	mi
 800283e:	f203 5277 	addwmi	r2, r3, #1399	; 0x577
 8002842:	eb00 0082 	add.w	r0, r0, r2, lsl #2
 8002846:	edd0 3a04 	vldr	s7, [r0, #16]
 800284a:	ee65 5a85 	vmul.f32	s11, s11, s10
 800284e:	ee67 7aa3 	vmul.f32	s15, s15, s7
 8002852:	ee20 0a04 	vmul.f32	s0, s0, s8
 8002856:	ee27 7a24 	vmul.f32	s14, s14, s9
 800285a:	ee77 7aa5 	vadd.f32	s15, s15, s11
 800285e:	ee30 0a07 	vadd.f32	s0, s0, s14
 8002862:	ee67 7aa6 	vmul.f32	s15, s15, s13
 8002866:	ee20 0a06 	vmul.f32	s0, s0, s12
 800286a:	ee37 0a80 	vadd.f32	s0, s15, s0
 800286e:	b003      	add	sp, #12
 8002870:	ecbd 8b02 	vpop	{d8}
 8002874:	f85d fb04 	ldr.w	pc, [sp], #4
 8002878:	eddf 7a1e 	vldr	s15, [pc, #120]	; 80028f4 <delay_read+0x130>
 800287c:	eddf 6a1e 	vldr	s13, [pc, #120]	; 80028f8 <delay_read+0x134>
 8002880:	eddf 4a1e 	vldr	s9, [pc, #120]	; 80028fc <delay_read+0x138>
 8002884:	ed9f 4a1e 	vldr	s8, [pc, #120]	; 8002900 <delay_read+0x13c>
 8002888:	eeb0 6a47 	vmov.f32	s12, s14
 800288c:	2206      	movs	r2, #6
 800288e:	eeb7 5a08 	vmov.f32	s10, #120	; 0x3fc00000  1.5
 8002892:	e7b9      	b.n	8002808 <delay_read+0x44>
 8002894:	9001      	str	r0, [sp, #4]
 8002896:	f00a fd43 	bl	800d320 <floorf>
 800289a:	eebd 7ac0 	vcvt.s32.f32	s14, s0
 800289e:	eef0 7a00 	vmov.f32	s15, #0	; 0x40000000  2.0
 80028a2:	eef8 6ac7 	vcvt.f32.s32	s13, s14
 80028a6:	eeb7 6a00 	vmov.f32	s12, #112	; 0x3f800000  1.0
 80028aa:	ee78 6a66 	vsub.f32	s13, s16, s13
 80028ae:	eef0 5a08 	vmov.f32	s11, #8	; 0x40400000  3.0
 80028b2:	ee76 5ae5 	vsub.f32	s11, s13, s11
 80028b6:	ee17 2a10 	vmov	r2, s14
 80028ba:	ed9f 4a12 	vldr	s8, [pc, #72]	; 8002904 <delay_read+0x140>
 80028be:	eddf 3a10 	vldr	s7, [pc, #64]	; 8002900 <delay_read+0x13c>
 80028c2:	9801      	ldr	r0, [sp, #4]
 80028c4:	ee36 7ae7 	vsub.f32	s14, s13, s15
 80028c8:	ee76 7ac6 	vsub.f32	s15, s13, s12
 80028cc:	eef6 4a00 	vmov.f32	s9, #96	; 0x3f000000  0.5
 80028d0:	eebe 5a00 	vmov.f32	s10, #224	; 0xbf000000 -0.5
 80028d4:	ee27 4a84 	vmul.f32	s8, s15, s8
 80028d8:	ee66 4aa4 	vmul.f32	s9, s13, s9
 80028dc:	ee27 6a25 	vmul.f32	s12, s14, s11
 80028e0:	ee66 6aa7 	vmul.f32	s13, s13, s15
 80028e4:	ee25 5a85 	vmul.f32	s10, s11, s10
 80028e8:	ee67 7a23 	vmul.f32	s15, s14, s7
 80028ec:	e78c      	b.n	8002808 <delay_read+0x44>
 80028ee:	bf00      	nop
 80028f0:	44ae4000 	.word	0x44ae4000
 80028f4:	beaaaaab 	.word	0xbeaaaaab
 80028f8:	80000000 	.word	0x80000000
 80028fc:	00000000 	.word	0x00000000
 8002900:	3e2aaaab 	.word	0x3e2aaaab
 8002904:	be2aaaab 	.word	0xbe2aaaab

08002908 <mono_chorus_compute>:
mono_chorus_compute():
 8002908:	edd1 7a01 	vldr	s15, [r1, #4]
 800290c:	eddf 6a4d 	vldr	s13, [pc, #308]	; 8002a44 <mono_chorus_compute+0x13c>
 8002910:	ed91 7a02 	vldr	s14, [r1, #8]
 8002914:	ee67 7aa6 	vmul.f32	s15, s15, s13
 8002918:	b570      	push	{r4, r5, r6, lr}
 800291a:	ee77 7a87 	vadd.f32	s15, s15, s14
 800291e:	f500 5680 	add.w	r6, r0, #4096	; 0x1000
 8002922:	eef5 7ac0 	vcmpe.f32	s15, #0.0
 8002926:	f506 63be 	add.w	r3, r6, #1520	; 0x5f0
 800292a:	eef1 fa10 	vmrs	APSR_nzcv, fpscr
 800292e:	ed2d 8b04 	vpush	{d8-d9}
 8002932:	460d      	mov	r5, r1
 8002934:	edd3 8a00 	vldr	s17, [r3]
 8002938:	edc1 7a02 	vstr	s15, [r1, #8]
 800293c:	4604      	mov	r4, r0
 800293e:	eeb0 8a40 	vmov.f32	s16, s0
 8002942:	d50a      	bpl.n	800295a <mono_chorus_compute+0x52>
 8002944:	ed9f 7a40 	vldr	s14, [pc, #256]	; 8002a48 <mono_chorus_compute+0x140>
 8002948:	ee77 7a87 	vadd.f32	s15, s15, s14
 800294c:	eef5 7ac0 	vcmpe.f32	s15, #0.0
 8002950:	eef1 fa10 	vmrs	APSR_nzcv, fpscr
 8002954:	d4f8      	bmi.n	8002948 <mono_chorus_compute+0x40>
 8002956:	edc5 7a02 	vstr	s15, [r5, #8]
 800295a:	ed9f 7a3b 	vldr	s14, [pc, #236]	; 8002a48 <mono_chorus_compute+0x140>
 800295e:	eef4 7ac7 	vcmpe.f32	s15, s14
 8002962:	eef1 fa10 	vmrs	APSR_nzcv, fpscr
 8002966:	db08      	blt.n	800297a <mono_chorus_compute+0x72>
 8002968:	ee77 7ac7 	vsub.f32	s15, s15, s14
 800296c:	eef4 7ac7 	vcmpe.f32	s15, s14
 8002970:	eef1 fa10 	vmrs	APSR_nzcv, fpscr
 8002974:	daf8      	bge.n	8002968 <mono_chorus_compute+0x60>
 8002976:	edc5 7a02 	vstr	s15, [r5, #8]
 800297a:	ed9f 0a34 	vldr	s0, [pc, #208]	; 8002a4c <mono_chorus_compute+0x144>
 800297e:	ee27 0a80 	vmul.f32	s0, s15, s0
 8002982:	f00a fd13 	bl	800d3ac <lrintf>
 8002986:	4b32      	ldr	r3, [pc, #200]	; (8002a50 <mono_chorus_compute+0x148>)
 8002988:	ed95 7a00 	vldr	s14, [r5]
 800298c:	eb03 0080 	add.w	r0, r3, r0, lsl #2
 8002990:	edd0 7a00 	vldr	s15, [r0]
 8002994:	eef7 6a00 	vmov.f32	s13, #112	; 0x3f800000  1.0
 8002998:	ee77 7aa6 	vadd.f32	s15, s15, s13
 800299c:	eeb1 9a08 	vmov.f32	s18, #24	; 0x40c00000  6.0
 80029a0:	ee67 7a87 	vmul.f32	s15, s15, s14
 80029a4:	4620      	mov	r0, r4
 80029a6:	ee38 0aa7 	vadd.f32	s0, s17, s15
 80029aa:	edc5 7a03 	vstr	s15, [r5, #12]
 80029ae:	ee30 0a09 	vadd.f32	s0, s0, s18
 80029b2:	f7ff ff07 	bl	80027c4 <delay_read>
 80029b6:	f996 35f4 	ldrsb.w	r3, [r6, #1524]	; 0x5f4
 80029ba:	2b01      	cmp	r3, #1
 80029bc:	eef0 8a40 	vmov.f32	s17, s0
 80029c0:	d039      	beq.n	8002a36 <mono_chorus_compute+0x12e>
 80029c2:	f506 66be 	add.w	r6, r6, #1520	; 0x5f0
 80029c6:	ed96 0a00 	vldr	s0, [r6]
 80029ca:	4620      	mov	r0, r4
 80029cc:	ee30 0a09 	vadd.f32	s0, s0, s18
 80029d0:	f7ff fef8 	bl	80027c4 <delay_read>
 80029d4:	edd4 7a01 	vldr	s15, [r4, #4]
 80029d8:	ee20 0a27 	vmul.f32	s0, s0, s15
 80029dc:	ee70 7a08 	vadd.f32	s15, s0, s16
 80029e0:	eeb7 7a00 	vmov.f32	s14, #112	; 0x3f800000  1.0
 80029e4:	eef4 7ac7 	vcmpe.f32	s15, s14
 80029e8:	eef1 fa10 	vmrs	APSR_nzcv, fpscr
 80029ec:	dd19      	ble.n	8002a22 <mono_chorus_compute+0x11a>
 80029ee:	eef0 7a47 	vmov.f32	s15, s14
 80029f2:	ed94 0a00 	vldr	s0, [r4]
 80029f6:	ed94 7a02 	vldr	s14, [r4, #8]
 80029fa:	68e3      	ldr	r3, [r4, #12]
 80029fc:	ee68 8a87 	vmul.f32	s17, s17, s14
 8002a00:	ee27 0a80 	vmul.f32	s0, s15, s0
 8002a04:	eb04 0283 	add.w	r2, r4, r3, lsl #2
 8002a08:	ee30 0a28 	vadd.f32	s0, s0, s17
 8002a0c:	ecbd 8b04 	vpop	{d8-d9}
 8002a10:	3301      	adds	r3, #1
 8002a12:	f5b3 6faf 	cmp.w	r3, #1400	; 0x578
 8002a16:	bfa8      	it	ge
 8002a18:	2300      	movge	r3, #0
 8002a1a:	edc2 7a04 	vstr	s15, [r2, #16]
 8002a1e:	60e3      	str	r3, [r4, #12]
 8002a20:	bd70      	pop	{r4, r5, r6, pc}
 8002a22:	eebf 7a00 	vmov.f32	s14, #240	; 0xbf800000 -1.0
 8002a26:	eef4 7a47 	vcmp.f32	s15, s14
 8002a2a:	eef1 fa10 	vmrs	APSR_nzcv, fpscr
 8002a2e:	bf48      	it	mi
 8002a30:	eef0 7a47 	vmovmi.f32	s15, s14
 8002a34:	e7dd      	b.n	80029f2 <mono_chorus_compute+0xea>
 8002a36:	edd4 7a01 	vldr	s15, [r4, #4]
 8002a3a:	ee60 7a27 	vmul.f32	s15, s0, s15
 8002a3e:	ee77 7a88 	vadd.f32	s15, s15, s16
 8002a42:	e7cd      	b.n	80029e0 <mono_chorus_compute+0xd8>
 8002a44:	39156592 	.word	0x39156592
 8002a48:	40c90fdb 	.word	0x40c90fdb
 8002a4c:	4322f983 	.word	0x4322f983
 8002a50:	0800f450 	.word	0x0800f450

08002a54 <waveCompute>:
waveCompute():
 8002a54:	e92d 4f70 	stmdb	sp!, {r4, r5, r6, r8, r9, sl, fp, lr}
 8002a58:	ed2d 8b0c 	vpush	{d8-d13}
 8002a5c:	4cc4      	ldr	r4, [pc, #784]	; (8002d70 <waveCompute+0x31c>)
 8002a5e:	b082      	sub	sp, #8
 8002a60:	eef0 8a40 	vmov.f32	s17, s0
 8002a64:	ed84 0a3d 	vstr	s0, [r4, #244]	; 0xf4
 8002a68:	280f      	cmp	r0, #15
 8002a6a:	f201 85aa 	bhi.w	80045c2 <waveCompute+0x1b6e>
 8002a6e:	e8df f010 	tbh	[pc, r0, lsl #1]
 8002a72:	00ba      	.short	0x00ba
 8002a74:	011300c6 	.word	0x011300c6
 8002a78:	02c8013a 	.word	0x02c8013a
 8002a7c:	01dc01a3 	.word	0x01dc01a3
 8002a80:	03c40317 	.word	0x03c40317
 8002a84:	03ec03d7 	.word	0x03ec03d7
 8002a88:	04390410 	.word	0x04390410
 8002a8c:	047d044f 	.word	0x047d044f
 8002a90:	0010      	.short	0x0010
 8002a92:	4db8      	ldr	r5, [pc, #736]	; (8002d74 <waveCompute+0x320>)
 8002a94:	ed9f 7ac4 	vldr	s14, [pc, #784]	; 8002da8 <waveCompute+0x354>
 8002a98:	f895 3548 	ldrb.w	r3, [r5, #1352]	; 0x548
 8002a9c:	edd5 aa04 	vldr	s21, [r5, #16]
 8002aa0:	edd5 9a08 	vldr	s19, [r5, #32]
 8002aa4:	ed85 0a03 	vstr	s0, [r5, #12]
 8002aa8:	f505 761c 	add.w	r6, r5, #624	; 0x270
 8002aac:	eec0 7a07 	vdiv.f32	s15, s0, s14
 8002ab0:	f8d6 92d4 	ldr.w	r9, [r6, #724]	; 0x2d4
 8002ab4:	2b00      	cmp	r3, #0
 8002ab6:	f040 8580 	bne.w	80035ba <waveCompute+0xb66>
 8002aba:	ed95 8a06 	vldr	s16, [r5, #24]
 8002abe:	edd5 8a07 	vldr	s17, [r5, #28]
 8002ac2:	ed9f 7aba 	vldr	s14, [pc, #744]	; 8002dac <waveCompute+0x358>
 8002ac6:	eef4 7ac7 	vcmpe.f32	s15, s14
 8002aca:	eef1 fa10 	vmrs	APSR_nzcv, fpscr
 8002ace:	f100 8673 	bmi.w	80037b8 <waveCompute+0xd64>
 8002ad2:	eeb6 7a00 	vmov.f32	s14, #96	; 0x3f000000  0.5
 8002ad6:	eef4 7a47 	vcmp.f32	s15, s14
 8002ada:	eef1 fa10 	vmrs	APSR_nzcv, fpscr
 8002ade:	bfc8      	it	gt
 8002ae0:	eef0 7a47 	vmovgt.f32	s15, s14
 8002ae4:	ee77 7ae8 	vsub.f32	s15, s15, s17
 8002ae8:	ed9f 7ab1 	vldr	s14, [pc, #708]	; 8002db0 <waveCompute+0x35c>
 8002aec:	ee78 8aa7 	vadd.f32	s17, s17, s15
 8002af0:	eef4 aac7 	vcmpe.f32	s21, s14
 8002af4:	eef1 fa10 	vmrs	APSR_nzcv, fpscr
 8002af8:	ee38 8a88 	vadd.f32	s16, s17, s16
 8002afc:	f2c0 8614 	blt.w	8003728 <waveCompute+0xcd4>
 8002b00:	ee3a 7ac7 	vsub.f32	s14, s21, s14
 8002b04:	eef7 7a00 	vmov.f32	s15, #112	; 0x3f800000  1.0
 8002b08:	ee27 aa28 	vmul.f32	s20, s14, s17
 8002b0c:	ee38 8a4a 	vsub.f32	s16, s16, s20
 8002b10:	eeb4 8ae7 	vcmpe.f32	s16, s15
 8002b14:	eef1 fa10 	vmrs	APSR_nzcv, fpscr
 8002b18:	f280 87a7 	bge.w	8003a6a <waveCompute+0x1016>
 8002b1c:	f8df 8278 	ldr.w	r8, [pc, #632]	; 8002d98 <waveCompute+0x344>
 8002b20:	f8df a278 	ldr.w	sl, [pc, #632]	; 8002d9c <waveCompute+0x348>
 8002b24:	f109 0409 	add.w	r4, r9, #9
 8002b28:	f109 0b47 	add.w	fp, r9, #71	; 0x47
 8002b2c:	eddf 7aa1 	vldr	s15, [pc, #644]	; 8002db4 <waveCompute+0x360>
 8002b30:	ee6a 7a27 	vmul.f32	s15, s20, s15
 8002b34:	eeb6 0a00 	vmov.f32	s0, #96	; 0x3f000000  0.5
 8002b38:	ee87 9aa8 	vdiv.f32	s18, s15, s17
 8002b3c:	ee39 0a40 	vsub.f32	s0, s18, s0
 8002b40:	f00a fc34 	bl	800d3ac <lrintf>
 8002b44:	ee07 0a90 	vmov	s15, r0
 8002b48:	eeb8 6ae7 	vcvt.f32.s32	s12, s15
 8002b4c:	f000 033f 	and.w	r3, r0, #63	; 0x3f
 8002b50:	ee39 6a46 	vsub.f32	s12, s18, s12
 8002b54:	eb0a 018b 	add.w	r1, sl, fp, lsl #2
 8002b58:	eb08 03c3 	add.w	r3, r8, r3, lsl #3
 8002b5c:	eb05 0284 	add.w	r2, r5, r4, lsl #2
 8002b60:	edd3 7a01 	vldr	s15, [r3, #4]
 8002b64:	edd3 6a00 	vldr	s13, [r3]
 8002b68:	ed92 7a00 	vldr	s14, [r2]
 8002b6c:	ee66 7a27 	vmul.f32	s15, s12, s15
 8002b70:	f503 7300 	add.w	r3, r3, #512	; 0x200
 8002b74:	ee77 7aa6 	vadd.f32	s15, s15, s13
 8002b78:	ee67 7a88 	vmul.f32	s15, s15, s16
 8002b7c:	ee77 7a87 	vadd.f32	s15, s15, s14
 8002b80:	ece2 7a01 	vstmia	r2!, {s15}
 8002b84:	4291      	cmp	r1, r2
 8002b86:	d1eb      	bne.n	8002b60 <waveCompute+0x10c>
 8002b88:	edc5 aa05 	vstr	s21, [r5, #20]
 8002b8c:	f109 030c 	add.w	r3, r9, #12
 8002b90:	eb05 0383 	add.w	r3, r5, r3, lsl #2
 8002b94:	eef6 6a00 	vmov.f32	s13, #96	; 0x3f000000  0.5
 8002b98:	ed93 7a01 	vldr	s14, [r3, #4]
 8002b9c:	ed95 8a01 	vldr	s16, [r5, #4]
 8002ba0:	ee76 7aca 	vsub.f32	s15, s13, s20
 8002ba4:	eb05 0289 	add.w	r2, r5, r9, lsl #2
 8002ba8:	ee37 7a27 	vadd.f32	s14, s14, s15
 8002bac:	f1b9 0fff 	cmp.w	r9, #255	; 0xff
 8002bb0:	ed83 7a01 	vstr	s14, [r3, #4]
 8002bb4:	edd2 7a09 	vldr	s15, [r2, #36]	; 0x24
 8002bb8:	ee77 7ae9 	vsub.f32	s15, s15, s19
 8002bbc:	f109 0301 	add.w	r3, r9, #1
 8002bc0:	ee67 7aa6 	vmul.f32	s15, s15, s13
 8002bc4:	ee79 9aa7 	vadd.f32	s19, s19, s15
 8002bc8:	ee29 0a88 	vmul.f32	s0, s19, s16
 8002bcc:	ed85 0a00 	vstr	s0, [r5]
 8002bd0:	f000 8799 	beq.w	8003b06 <waveCompute+0x10b2>
 8002bd4:	ed85 aa06 	vstr	s20, [r5, #24]
 8002bd8:	edc5 8a07 	vstr	s17, [r5, #28]
 8002bdc:	edc5 9a08 	vstr	s19, [r5, #32]
 8002be0:	f8c6 32d4 	str.w	r3, [r6, #724]	; 0x2d4
 8002be4:	e006      	b.n	8002bf4 <waveCompute+0x1a0>
 8002be6:	4864      	ldr	r0, [pc, #400]	; (8002d78 <waveCompute+0x324>)
 8002be8:	ed9f 8a64 	vldr	s16, [pc, #400]	; 8002d7c <waveCompute+0x328>
 8002bec:	f7fe fa78 	bl	80010e0 <MorphingSaw_SampleCompute>
 8002bf0:	ee20 0a08 	vmul.f32	s0, s0, s16
 8002bf4:	b002      	add	sp, #8
 8002bf6:	ecbd 8b0c 	vpop	{d8-d13}
 8002bfa:	e8bd 8f70 	ldmia.w	sp!, {r4, r5, r6, r8, r9, sl, fp, pc}
 8002bfe:	eddf 7a60 	vldr	s15, [pc, #384]	; 8002d80 <waveCompute+0x32c>
 8002c02:	ed94 7a3e 	vldr	s14, [r4, #248]	; 0xf8
 8002c06:	eeb4 0ae7 	vcmpe.f32	s0, s15
 8002c0a:	eef1 fa10 	vmrs	APSR_nzcv, fpscr
 8002c0e:	f100 8555 	bmi.w	80036bc <waveCompute+0xc68>
 8002c12:	eddf 7a5c 	vldr	s15, [pc, #368]	; 8002d84 <waveCompute+0x330>
 8002c16:	eeb4 0ae7 	vcmpe.f32	s0, s15
 8002c1a:	eef1 fa10 	vmrs	APSR_nzcv, fpscr
 8002c1e:	eeb5 7ac0 	vcmpe.f32	s14, #0.0
 8002c22:	f100 85d0 	bmi.w	80037c6 <waveCompute+0xd72>
 8002c26:	eef1 fa10 	vmrs	APSR_nzcv, fpscr
 8002c2a:	d508      	bpl.n	8002c3e <waveCompute+0x1ea>
 8002c2c:	eddf 7a5c 	vldr	s15, [pc, #368]	; 8002da0 <waveCompute+0x34c>
 8002c30:	ee37 7a27 	vadd.f32	s14, s14, s15
 8002c34:	eeb5 7ac0 	vcmpe.f32	s14, #0.0
 8002c38:	eef1 fa10 	vmrs	APSR_nzcv, fpscr
 8002c3c:	d4f8      	bmi.n	8002c30 <waveCompute+0x1dc>
 8002c3e:	eddf 7a58 	vldr	s15, [pc, #352]	; 8002da0 <waveCompute+0x34c>
 8002c42:	eeb4 7ae7 	vcmpe.f32	s14, s15
 8002c46:	eef1 fa10 	vmrs	APSR_nzcv, fpscr
 8002c4a:	db06      	blt.n	8002c5a <waveCompute+0x206>
 8002c4c:	ee37 7a67 	vsub.f32	s14, s14, s15
 8002c50:	eeb4 7ae7 	vcmpe.f32	s14, s15
 8002c54:	eef1 fa10 	vmrs	APSR_nzcv, fpscr
 8002c58:	daf8      	bge.n	8002c4c <waveCompute+0x1f8>
 8002c5a:	eddf 7a4b 	vldr	s15, [pc, #300]	; 8002d88 <waveCompute+0x334>
 8002c5e:	ed94 8a3b 	vldr	s16, [r4, #236]	; 0xec
 8002c62:	eeb4 7ae7 	vcmpe.f32	s14, s15
 8002c66:	eef1 fa10 	vmrs	APSR_nzcv, fpscr
 8002c6a:	f140 87a6 	bpl.w	8003bba <waveCompute+0x1166>
 8002c6e:	eddf 7a47 	vldr	s15, [pc, #284]	; 8002d8c <waveCompute+0x338>
 8002c72:	ee67 7a27 	vmul.f32	s15, s14, s15
 8002c76:	eef7 6a00 	vmov.f32	s13, #112	; 0x3f800000  1.0
 8002c7a:	ee77 7aa6 	vadd.f32	s15, s15, s13
 8002c7e:	ee27 0a88 	vmul.f32	s0, s15, s16
 8002c82:	eddf 7a48 	vldr	s15, [pc, #288]	; 8002da4 <waveCompute+0x350>
 8002c86:	ed84 0a42 	vstr	s0, [r4, #264]	; 0x108
 8002c8a:	ee68 8aa7 	vmul.f32	s17, s17, s15
 8002c8e:	ee38 7a87 	vadd.f32	s14, s17, s14
 8002c92:	ed84 7a3e 	vstr	s14, [r4, #248]	; 0xf8
 8002c96:	e7ad      	b.n	8002bf4 <waveCompute+0x1a0>
 8002c98:	ed94 9a3e 	vldr	s18, [r4, #248]	; 0xf8
 8002c9c:	eddf 7a40 	vldr	s15, [pc, #256]	; 8002da0 <waveCompute+0x34c>
 8002ca0:	eeb4 9ae7 	vcmpe.f32	s18, s15
 8002ca4:	eef1 fa10 	vmrs	APSR_nzcv, fpscr
 8002ca8:	db06      	blt.n	8002cb8 <waveCompute+0x264>
 8002caa:	ee39 9a67 	vsub.f32	s18, s18, s15
 8002cae:	eeb4 9ae7 	vcmpe.f32	s18, s15
 8002cb2:	eef1 fa10 	vmrs	APSR_nzcv, fpscr
 8002cb6:	daf8      	bge.n	8002caa <waveCompute+0x256>
 8002cb8:	eeb0 0a49 	vmov.f32	s0, s18
 8002cbc:	f00a fc20 	bl	800d500 <sinf>
 8002cc0:	eddf 7a38 	vldr	s15, [pc, #224]	; 8002da4 <waveCompute+0x350>
 8002cc4:	ed94 7a3b 	vldr	s14, [r4, #236]	; 0xec
 8002cc8:	ed9f 8a2c 	vldr	s16, [pc, #176]	; 8002d7c <waveCompute+0x328>
 8002ccc:	ee68 8aa7 	vmul.f32	s17, s17, s15
 8002cd0:	ee20 0a07 	vmul.f32	s0, s0, s14
 8002cd4:	ee38 9a89 	vadd.f32	s18, s17, s18
 8002cd8:	ed84 0a42 	vstr	s0, [r4, #264]	; 0x108
 8002cdc:	ed84 9a3e 	vstr	s18, [r4, #248]	; 0xf8
 8002ce0:	ee20 0a08 	vmul.f32	s0, s0, s16
 8002ce4:	e786      	b.n	8002bf4 <waveCompute+0x1a0>
 8002ce6:	edd4 7a3e 	vldr	s15, [r4, #248]	; 0xf8
 8002cea:	eef5 7ac0 	vcmpe.f32	s15, #0.0
 8002cee:	eef1 fa10 	vmrs	APSR_nzcv, fpscr
 8002cf2:	d50a      	bpl.n	8002d0a <waveCompute+0x2b6>
 8002cf4:	ed9f 7a2a 	vldr	s14, [pc, #168]	; 8002da0 <waveCompute+0x34c>
 8002cf8:	ee77 7a87 	vadd.f32	s15, s15, s14
 8002cfc:	eef5 7ac0 	vcmpe.f32	s15, #0.0
 8002d00:	eef1 fa10 	vmrs	APSR_nzcv, fpscr
 8002d04:	d4f8      	bmi.n	8002cf8 <waveCompute+0x2a4>
 8002d06:	edc4 7a3e 	vstr	s15, [r4, #248]	; 0xf8
 8002d0a:	ed9f 7a25 	vldr	s14, [pc, #148]	; 8002da0 <waveCompute+0x34c>
 8002d0e:	eef4 7ac7 	vcmpe.f32	s15, s14
 8002d12:	eef1 fa10 	vmrs	APSR_nzcv, fpscr
 8002d16:	db08      	blt.n	8002d2a <waveCompute+0x2d6>
 8002d18:	ee77 7ac7 	vsub.f32	s15, s15, s14
 8002d1c:	eef4 7ac7 	vcmpe.f32	s15, s14
 8002d20:	eef1 fa10 	vmrs	APSR_nzcv, fpscr
 8002d24:	daf8      	bge.n	8002d18 <waveCompute+0x2c4>
 8002d26:	edc4 7a3e 	vstr	s15, [r4, #248]	; 0xf8
 8002d2a:	ed9f 0a19 	vldr	s0, [pc, #100]	; 8002d90 <waveCompute+0x33c>
 8002d2e:	ed94 8a3b 	vldr	s16, [r4, #236]	; 0xec
 8002d32:	ee27 0a80 	vmul.f32	s0, s15, s0
 8002d36:	f00a fb39 	bl	800d3ac <lrintf>
 8002d3a:	4b16      	ldr	r3, [pc, #88]	; (8002d94 <waveCompute+0x340>)
 8002d3c:	edd4 7a3d 	vldr	s15, [r4, #244]	; 0xf4
 8002d40:	eddf 6a18 	vldr	s13, [pc, #96]	; 8002da4 <waveCompute+0x350>
 8002d44:	ed94 7a3e 	vldr	s14, [r4, #248]	; 0xf8
 8002d48:	eb03 0080 	add.w	r0, r3, r0, lsl #2
 8002d4c:	ed90 0a00 	vldr	s0, [r0]
 8002d50:	ee67 7aa6 	vmul.f32	s15, s15, s13
 8002d54:	ee28 8a00 	vmul.f32	s16, s16, s0
 8002d58:	ee77 7a87 	vadd.f32	s15, s15, s14
 8002d5c:	ed9f 0a07 	vldr	s0, [pc, #28]	; 8002d7c <waveCompute+0x328>
 8002d60:	ed84 8a42 	vstr	s16, [r4, #264]	; 0x108
 8002d64:	ee28 0a00 	vmul.f32	s0, s16, s0
 8002d68:	edc4 7a3e 	vstr	s15, [r4, #248]	; 0xf8
 8002d6c:	e742      	b.n	8002bf4 <waveCompute+0x1a0>
 8002d6e:	bf00      	nop
 8002d70:	10000000 	.word	0x10000000
 8002d74:	10000d90 	.word	0x10000d90
 8002d78:	100000ec 	.word	0x100000ec
 8002d7c:	3f4ccccd 	.word	0x3f4ccccd
 8002d80:	43480000 	.word	0x43480000
 8002d84:	44160000 	.word	0x44160000
 8002d88:	40490fdb 	.word	0x40490fdb
 8002d8c:	bf22f983 	.word	0xbf22f983
 8002d90:	4322f983 	.word	0x4322f983
 8002d94:	0800f450 	.word	0x0800f450
 8002d98:	08014b58 	.word	0x08014b58
 8002d9c:	10000db8 	.word	0x10000db8
 8002da0:	40c90fdb 	.word	0x40c90fdb
 8002da4:	39156592 	.word	0x39156592
 8002da8:	472c4400 	.word	0x472c4400
 8002dac:	3727c5ac 	.word	0x3727c5ac
 8002db0:	1e3ce508 	.word	0x1e3ce508
 8002db4:	42800000 	.word	0x42800000
 8002db8:	ed94 9a3e 	vldr	s18, [r4, #248]	; 0xf8
 8002dbc:	eeb5 9ac0 	vcmpe.f32	s18, #0.0
 8002dc0:	eef1 fa10 	vmrs	APSR_nzcv, fpscr
 8002dc4:	d508      	bpl.n	8002dd8 <waveCompute+0x384>
 8002dc6:	ed5f 7a0a 	vldr	s15, [pc, #-40]	; 8002da0 <waveCompute+0x34c>
 8002dca:	ee39 9a27 	vadd.f32	s18, s18, s15
 8002dce:	eeb5 9ac0 	vcmpe.f32	s18, #0.0
 8002dd2:	eef1 fa10 	vmrs	APSR_nzcv, fpscr
 8002dd6:	d4f8      	bmi.n	8002dca <waveCompute+0x376>
 8002dd8:	ed5f 7a0f 	vldr	s15, [pc, #-60]	; 8002da0 <waveCompute+0x34c>
 8002ddc:	eeb4 9ae7 	vcmpe.f32	s18, s15
 8002de0:	eef1 fa10 	vmrs	APSR_nzcv, fpscr
 8002de4:	db06      	blt.n	8002df4 <waveCompute+0x3a0>
 8002de6:	ee39 9a67 	vsub.f32	s18, s18, s15
 8002dea:	eeb4 9ae7 	vcmpe.f32	s18, s15
 8002dee:	eef1 fa10 	vmrs	APSR_nzcv, fpscr
 8002df2:	daf8      	bge.n	8002de6 <waveCompute+0x392>
 8002df4:	eeb0 0a49 	vmov.f32	s0, s18
 8002df8:	f00a fb82 	bl	800d500 <sinf>
 8002dfc:	edd4 7a3b 	vldr	s15, [r4, #236]	; 0xec
 8002e00:	ed1f 7a18 	vldr	s14, [pc, #-96]	; 8002da4 <waveCompute+0x350>
 8002e04:	ee60 7a27 	vmul.f32	s15, s0, s15
 8002e08:	ee68 8a87 	vmul.f32	s17, s17, s14
 8002e0c:	ee67 7a80 	vmul.f32	s15, s15, s0
 8002e10:	ee38 9a89 	vadd.f32	s18, s17, s18
 8002e14:	ee67 7a80 	vmul.f32	s15, s15, s0
 8002e18:	ed84 9a3e 	vstr	s18, [r4, #248]	; 0xf8
 8002e1c:	ee67 7a80 	vmul.f32	s15, s15, s0
 8002e20:	ee27 0a80 	vmul.f32	s0, s15, s0
 8002e24:	ed84 0a42 	vstr	s0, [r4, #264]	; 0x108
 8002e28:	e6e4      	b.n	8002bf4 <waveCompute+0x1a0>
 8002e2a:	edd4 7abb 	vldr	s15, [r4, #748]	; 0x2ec
 8002e2e:	ed1f 7a22 	vldr	s14, [pc, #-136]	; 8002da8 <waveCompute+0x354>
 8002e32:	f894 3830 	ldrb.w	r3, [r4, #2096]	; 0x830
 8002e36:	edd4 aabc 	vldr	s21, [r4, #752]	; 0x2f0
 8002e3a:	ed94 9ac1 	vldr	s18, [r4, #772]	; 0x304
 8002e3e:	f8d4 8828 	ldr.w	r8, [r4, #2088]	; 0x828
 8002e42:	ed84 0aba 	vstr	s0, [r4, #744]	; 0x2e8
 8002e46:	eef7 5a00 	vmov.f32	s11, #112	; 0x3f800000  1.0
 8002e4a:	ee77 7aa5 	vadd.f32	s15, s15, s11
 8002e4e:	eeb6 6a00 	vmov.f32	s12, #96	; 0x3f000000  0.5
 8002e52:	eec0 6a07 	vdiv.f32	s13, s0, s14
 8002e56:	ee67 7a86 	vmul.f32	s15, s15, s12
 8002e5a:	2b00      	cmp	r3, #0
 8002e5c:	f040 83c4 	bne.w	80035e8 <waveCompute+0xb94>
 8002e60:	ed94 7abf 	vldr	s14, [r4, #764]	; 0x2fc
 8002e64:	edd4 babe 	vldr	s23, [r4, #760]	; 0x2f8
 8002e68:	edd4 9ac0 	vldr	s19, [r4, #768]	; 0x300
 8002e6c:	f8d4 582c 	ldr.w	r5, [r4, #2092]	; 0x82c
 8002e70:	ee35 6ac7 	vsub.f32	s12, s11, s14
 8002e74:	ed5f 5a33 	vldr	s11, [pc, #-204]	; 8002dac <waveCompute+0x358>
 8002e78:	eef4 6ae5 	vcmpe.f32	s13, s11
 8002e7c:	eef1 fa10 	vmrs	APSR_nzcv, fpscr
 8002e80:	f100 844e 	bmi.w	8003720 <waveCompute+0xccc>
 8002e84:	eef6 5a00 	vmov.f32	s11, #96	; 0x3f000000  0.5
 8002e88:	eef4 6a65 	vcmp.f32	s13, s11
 8002e8c:	eef1 fa10 	vmrs	APSR_nzcv, fpscr
 8002e90:	bfc8      	it	gt
 8002e92:	eef0 6a65 	vmovgt.f32	s13, s11
 8002e96:	eeb4 7a67 	vcmp.f32	s14, s15
 8002e9a:	eef1 fa10 	vmrs	APSR_nzcv, fpscr
 8002e9e:	bfc8      	it	gt
 8002ea0:	eef0 7a47 	vmovgt.f32	s15, s14
 8002ea4:	eef4 7a46 	vcmp.f32	s15, s12
 8002ea8:	eef1 fa10 	vmrs	APSR_nzcv, fpscr
 8002eac:	bfc8      	it	gt
 8002eae:	eef0 7a46 	vmovgt.f32	s15, s12
 8002eb2:	ee77 7ae9 	vsub.f32	s15, s15, s19
 8002eb6:	ee76 8ac7 	vsub.f32	s17, s13, s14
 8002eba:	ee79 9aa7 	vadd.f32	s19, s19, s15
 8002ebe:	ed5f 7a44 	vldr	s15, [pc, #-272]	; 8002db0 <waveCompute+0x35c>
 8002ec2:	ee77 8a28 	vadd.f32	s17, s14, s17
 8002ec6:	eef4 aae7 	vcmpe.f32	s21, s15
 8002eca:	eeb7 ca00 	vmov.f32	s24, #112	; 0x3f800000  1.0
 8002ece:	eef1 fa10 	vmrs	APSR_nzcv, fpscr
 8002ed2:	ee3c 8a69 	vsub.f32	s16, s24, s19
 8002ed6:	ee78 baab 	vadd.f32	s23, s17, s23
 8002eda:	f2c0 8433 	blt.w	8003744 <waveCompute+0xcf0>
 8002ede:	ee7a 7ae7 	vsub.f32	s15, s21, s15
 8002ee2:	ee27 aaa8 	vmul.f32	s20, s15, s17
 8002ee6:	ee7b baca 	vsub.f32	s23, s23, s20
 8002eea:	2d00      	cmp	r5, #0
 8002eec:	f040 84dd 	bne.w	80038aa <waveCompute+0xe56>
 8002ef0:	eef4 9aeb 	vcmpe.f32	s19, s23
 8002ef4:	eef1 fa10 	vmrs	APSR_nzcv, fpscr
 8002ef8:	f241 8167 	bls.w	80041ca <waveCompute+0x1776>
 8002efc:	eef4 bacc 	vcmpe.f32	s23, s24
 8002f00:	eef1 fa10 	vmrs	APSR_nzcv, fpscr
 8002f04:	f281 81bd 	bge.w	8004282 <waveCompute+0x182e>
 8002f08:	ed5f 7a56 	vldr	s15, [pc, #-344]	; 8002db4 <waveCompute+0x360>
 8002f0c:	4ee2      	ldr	r6, [pc, #904]	; (8003298 <waveCompute+0x844>)
 8002f0e:	ee6a 7a27 	vmul.f32	s15, s20, s15
 8002f12:	ee8b baa9 	vdiv.f32	s22, s23, s19
 8002f16:	f108 090b 	add.w	r9, r8, #11
 8002f1a:	f106 0530 	add.w	r5, r6, #48	; 0x30
 8002f1e:	eec7 caa8 	vdiv.f32	s25, s15, s17
 8002f22:	eeb6 0a00 	vmov.f32	s0, #96	; 0x3f000000  0.5
 8002f26:	ee7b ba40 	vsub.f32	s23, s22, s0
 8002f2a:	ee3c 0ac0 	vsub.f32	s0, s25, s0
 8002f2e:	f00a fa3d 	bl	800d3ac <lrintf>
 8002f32:	ee07 0a90 	vmov	s15, r0
 8002f36:	eeb8 6ae7 	vcvt.f32.s32	s12, s15
 8002f3a:	4ad8      	ldr	r2, [pc, #864]	; (800329c <waveCompute+0x848>)
 8002f3c:	eebe ba00 	vmov.f32	s22, #224	; 0xbf000000 -0.5
 8002f40:	eb06 0689 	add.w	r6, r6, r9, lsl #2
 8002f44:	f000 033f 	and.w	r3, r0, #63	; 0x3f
 8002f48:	f108 0147 	add.w	r1, r8, #71	; 0x47
 8002f4c:	ee3b ba6b 	vsub.f32	s22, s22, s23
 8002f50:	ee3c 6ac6 	vsub.f32	s12, s25, s12
 8002f54:	eb02 03c3 	add.w	r3, r2, r3, lsl #3
 8002f58:	eb05 0181 	add.w	r1, r5, r1, lsl #2
 8002f5c:	4632      	mov	r2, r6
 8002f5e:	edd3 7a01 	vldr	s15, [r3, #4]
 8002f62:	edd3 6a00 	vldr	s13, [r3]
 8002f66:	ed92 7a00 	vldr	s14, [r2]
 8002f6a:	ee66 7a27 	vmul.f32	s15, s12, s15
 8002f6e:	f503 7300 	add.w	r3, r3, #512	; 0x200
 8002f72:	ee77 7aa6 	vadd.f32	s15, s15, s13
 8002f76:	ee67 7a8b 	vmul.f32	s15, s15, s22
 8002f7a:	ee77 7a87 	vadd.f32	s15, s15, s14
 8002f7e:	ece2 7a01 	vstmia	r2!, {s15}
 8002f82:	4291      	cmp	r1, r2
 8002f84:	d1eb      	bne.n	8002f5e <waveCompute+0x50a>
 8002f86:	eef4 9aca 	vcmpe.f32	s19, s20
 8002f8a:	eef1 fa10 	vmrs	APSR_nzcv, fpscr
 8002f8e:	f240 85ce 	bls.w	8003b2e <waveCompute+0x10da>
 8002f92:	ee8a ba29 	vdiv.f32	s22, s20, s19
 8002f96:	2500      	movs	r5, #0
 8002f98:	eef6 7a00 	vmov.f32	s15, #96	; 0x3f000000  0.5
 8002f9c:	ee3b ba67 	vsub.f32	s22, s22, s15
 8002fa0:	edc4 aabd 	vstr	s21, [r4, #756]	; 0x2f4
 8002fa4:	f108 030e 	add.w	r3, r8, #14
 8002fa8:	eb04 0383 	add.w	r3, r4, r3, lsl #2
 8002fac:	edd3 7ab8 	vldr	s15, [r3, #736]	; 0x2e0
 8002fb0:	ed94 8ab8 	vldr	s16, [r4, #736]	; 0x2e0
 8002fb4:	ee37 ba8b 	vadd.f32	s22, s15, s22
 8002fb8:	eb04 0288 	add.w	r2, r4, r8, lsl #2
 8002fbc:	ed83 bab8 	vstr	s22, [r3, #736]	; 0x2e0
 8002fc0:	edd2 7ac2 	vldr	s15, [r2, #776]	; 0x308
 8002fc4:	ee77 7ac9 	vsub.f32	s15, s15, s18
 8002fc8:	eeb6 7a00 	vmov.f32	s14, #96	; 0x3f000000  0.5
 8002fcc:	ee67 7a87 	vmul.f32	s15, s15, s14
 8002fd0:	f1b8 0fff 	cmp.w	r8, #255	; 0xff
 8002fd4:	ee39 9a27 	vadd.f32	s18, s18, s15
 8002fd8:	f108 0301 	add.w	r3, r8, #1
 8002fdc:	ee29 0a08 	vmul.f32	s0, s18, s16
 8002fe0:	ed84 0ab7 	vstr	s0, [r4, #732]	; 0x2dc
 8002fe4:	f000 852d 	beq.w	8003a42 <waveCompute+0xfee>
 8002fe8:	ed84 aabe 	vstr	s20, [r4, #760]	; 0x2f8
 8002fec:	edc4 8abf 	vstr	s17, [r4, #764]	; 0x2fc
 8002ff0:	edc4 9ac0 	vstr	s19, [r4, #768]	; 0x300
 8002ff4:	ed84 9ac1 	vstr	s18, [r4, #772]	; 0x304
 8002ff8:	f8c4 3828 	str.w	r3, [r4, #2088]	; 0x828
 8002ffc:	f8c4 582c 	str.w	r5, [r4, #2092]	; 0x82c
 8003000:	e5f8      	b.n	8002bf4 <waveCompute+0x1a0>
 8003002:	48a7      	ldr	r0, [pc, #668]	; (80032a0 <waveCompute+0x84c>)
 8003004:	ed9f 7aa7 	vldr	s14, [pc, #668]	; 80032a4 <waveCompute+0x850>
 8003008:	eddf 4aa7 	vldr	s9, [pc, #668]	; 80032a8 <waveCompute+0x854>
 800300c:	eddf 6aa7 	vldr	s13, [pc, #668]	; 80032ac <waveCompute+0x858>
 8003010:	4da7      	ldr	r5, [pc, #668]	; (80032b0 <waveCompute+0x85c>)
 8003012:	eddf 3aa8 	vldr	s7, [pc, #672]	; 80032b4 <waveCompute+0x860>
 8003016:	ed9f 4aa8 	vldr	s8, [pc, #672]	; 80032b8 <waveCompute+0x864>
 800301a:	f100 012c 	add.w	r1, r0, #44	; 0x2c
 800301e:	2201      	movs	r2, #1
 8003020:	ee07 2a90 	vmov	s15, r2
 8003024:	eeb8 6ae7 	vcvt.f32.s32	s12, s15
 8003028:	ee68 7a86 	vmul.f32	s15, s17, s12
 800302c:	eef4 7ae4 	vcmpe.f32	s15, s9
 8003030:	eef1 fa10 	vmrs	APSR_nzcv, fpscr
 8003034:	d529      	bpl.n	800308a <waveCompute+0x636>
 8003036:	edd1 7a00 	vldr	s15, [r1]
 800303a:	eef4 7ae6 	vcmpe.f32	s15, s13
 800303e:	eef1 fa10 	vmrs	APSR_nzcv, fpscr
 8003042:	db06      	blt.n	8003052 <waveCompute+0x5fe>
 8003044:	ee77 7ae6 	vsub.f32	s15, s15, s13
 8003048:	eef4 7ae6 	vcmpe.f32	s15, s13
 800304c:	eef1 fa10 	vmrs	APSR_nzcv, fpscr
 8003050:	daf8      	bge.n	8003044 <waveCompute+0x5f0>
 8003052:	ee67 5aa3 	vmul.f32	s11, s15, s7
 8003056:	ee26 6a04 	vmul.f32	s12, s12, s8
 800305a:	eefc 5ae5 	vcvt.u32.f32	s11, s11
 800305e:	ecb0 5a01 	vldmia	r0!, {s10}
 8003062:	ee15 3a90 	vmov	r3, s11
 8003066:	b29b      	uxth	r3, r3
 8003068:	eb05 0383 	add.w	r3, r5, r3, lsl #2
 800306c:	edd3 5a00 	vldr	s11, [r3]
 8003070:	ee26 6a28 	vmul.f32	s12, s12, s17
 8003074:	ee65 5a25 	vmul.f32	s11, s10, s11
 8003078:	ee76 7a27 	vadd.f32	s15, s12, s15
 800307c:	3201      	adds	r2, #1
 800307e:	2a0b      	cmp	r2, #11
 8003080:	ee37 7a25 	vadd.f32	s14, s14, s11
 8003084:	ece1 7a01 	vstmia	r1!, {s15}
 8003088:	d1ca      	bne.n	8003020 <waveCompute+0x5cc>
 800308a:	ed94 0a25 	vldr	s0, [r4, #148]	; 0x94
 800308e:	ed94 8a3b 	vldr	s16, [r4, #236]	; 0xec
 8003092:	ee27 7a00 	vmul.f32	s14, s14, s0
 8003096:	ee27 0a08 	vmul.f32	s0, s14, s16
 800309a:	ed84 0a42 	vstr	s0, [r4, #264]	; 0x108
 800309e:	e5a9      	b.n	8002bf4 <waveCompute+0x1a0>
 80030a0:	4d86      	ldr	r5, [pc, #536]	; (80032bc <waveCompute+0x868>)
 80030a2:	ed9f 7a87 	vldr	s14, [pc, #540]	; 80032c0 <waveCompute+0x86c>
 80030a6:	edd5 7a04 	vldr	s15, [r5, #16]
 80030aa:	f894 3d8c 	ldrb.w	r3, [r4, #3468]	; 0xd8c
 80030ae:	ed95 9a05 	vldr	s18, [r5, #20]
 80030b2:	ed95 aa0b 	vldr	s20, [r5, #44]	; 0x2c
 80030b6:	f8d4 6d84 	ldr.w	r6, [r4, #3460]	; 0xd84
 80030ba:	ed85 0a03 	vstr	s0, [r5, #12]
 80030be:	eeb7 5a00 	vmov.f32	s10, #112	; 0x3f800000  1.0
 80030c2:	ee77 7a85 	vadd.f32	s15, s15, s10
 80030c6:	eef6 5a00 	vmov.f32	s11, #96	; 0x3f000000  0.5
 80030ca:	eec0 6a07 	vdiv.f32	s13, s0, s14
 80030ce:	ee67 7aa5 	vmul.f32	s15, s15, s11
 80030d2:	2b00      	cmp	r3, #0
 80030d4:	f040 82ca 	bne.w	800366c <waveCompute+0xc18>
 80030d8:	ed95 7a08 	vldr	s14, [r5, #32]
 80030dc:	ed95 8a07 	vldr	s16, [r5, #28]
 80030e0:	ed95 6a09 	vldr	s12, [r5, #36]	; 0x24
 80030e4:	ed95 ba0a 	vldr	s22, [r5, #40]	; 0x28
 80030e8:	f8d4 8d88 	ldr.w	r8, [r4, #3464]	; 0xd88
 80030ec:	ee75 5a47 	vsub.f32	s11, s10, s14
 80030f0:	ed9f 5a74 	vldr	s10, [pc, #464]	; 80032c4 <waveCompute+0x870>
 80030f4:	eef4 6ac5 	vcmpe.f32	s13, s10
 80030f8:	eef1 fa10 	vmrs	APSR_nzcv, fpscr
 80030fc:	f100 8360 	bmi.w	80037c0 <waveCompute+0xd6c>
 8003100:	eeb6 5a00 	vmov.f32	s10, #96	; 0x3f000000  0.5
 8003104:	eef4 6a45 	vcmp.f32	s13, s10
 8003108:	eef1 fa10 	vmrs	APSR_nzcv, fpscr
 800310c:	bfc8      	it	gt
 800310e:	eef0 6a45 	vmovgt.f32	s13, s10
 8003112:	eeb4 7a67 	vcmp.f32	s14, s15
 8003116:	eef1 fa10 	vmrs	APSR_nzcv, fpscr
 800311a:	bfc8      	it	gt
 800311c:	eef0 7a47 	vmovgt.f32	s15, s14
 8003120:	ee76 8ac7 	vsub.f32	s17, s13, s14
 8003124:	eef4 7a65 	vcmp.f32	s15, s11
 8003128:	eef1 fa10 	vmrs	APSR_nzcv, fpscr
 800312c:	ee77 8a28 	vadd.f32	s17, s14, s17
 8003130:	ed9f 7a65 	vldr	s14, [pc, #404]	; 80032c8 <waveCompute+0x874>
 8003134:	bfc8      	it	gt
 8003136:	eef0 7a65 	vmovgt.f32	s15, s11
 800313a:	ee77 7ac6 	vsub.f32	s15, s15, s12
 800313e:	eeb4 9ac7 	vcmpe.f32	s18, s14
 8003142:	eef1 fa10 	vmrs	APSR_nzcv, fpscr
 8003146:	ee76 9a27 	vadd.f32	s19, s12, s15
 800314a:	ee38 8a88 	vadd.f32	s16, s17, s16
 800314e:	f2c0 8318 	blt.w	8003782 <waveCompute+0xd2e>
 8003152:	ee39 7a47 	vsub.f32	s14, s18, s14
 8003156:	ee67 aa28 	vmul.f32	s21, s14, s17
 800315a:	ee38 8a6a 	vsub.f32	s16, s16, s21
 800315e:	f1b8 0f00 	cmp.w	r8, #0
 8003162:	f040 8362 	bne.w	800382a <waveCompute+0xdd6>
 8003166:	eef4 9ac8 	vcmpe.f32	s19, s16
 800316a:	eef1 fa10 	vmrs	APSR_nzcv, fpscr
 800316e:	f241 80d4 	bls.w	800431a <waveCompute+0x18c6>
 8003172:	eef7 7a00 	vmov.f32	s15, #112	; 0x3f800000  1.0
 8003176:	eeb4 8ae7 	vcmpe.f32	s16, s15
 800317a:	eef1 fa10 	vmrs	APSR_nzcv, fpscr
 800317e:	f281 814b 	bge.w	8004418 <waveCompute+0x19c4>
 8003182:	f106 090c 	add.w	r9, r6, #12
 8003186:	eef4 9aea 	vcmpe.f32	s19, s21
 800318a:	eef1 fa10 	vmrs	APSR_nzcv, fpscr
 800318e:	f240 8549 	bls.w	8003c24 <waveCompute+0x11d0>
 8003192:	f04f 0800 	mov.w	r8, #0
 8003196:	ed85 9a06 	vstr	s18, [r5, #24]
 800319a:	f106 0310 	add.w	r3, r6, #16
 800319e:	eb05 0383 	add.w	r3, r5, r3, lsl #2
 80031a2:	edd3 7a00 	vldr	s15, [r3]
 80031a6:	ed95 8a01 	vldr	s16, [r5, #4]
 80031aa:	ee77 7a8b 	vadd.f32	s15, s15, s22
 80031ae:	eb05 0989 	add.w	r9, r5, r9, lsl #2
 80031b2:	edc3 7a00 	vstr	s15, [r3]
 80031b6:	ed99 9a00 	vldr	s18, [r9]
 80031ba:	ee39 9a4a 	vsub.f32	s18, s18, s20
 80031be:	eeb6 7a00 	vmov.f32	s14, #96	; 0x3f000000  0.5
 80031c2:	ee29 9a07 	vmul.f32	s18, s18, s14
 80031c6:	2eff      	cmp	r6, #255	; 0xff
 80031c8:	ee3a 9a09 	vadd.f32	s18, s20, s18
 80031cc:	f106 0301 	add.w	r3, r6, #1
 80031d0:	ee29 0a08 	vmul.f32	s0, s18, s16
 80031d4:	ed85 0a00 	vstr	s0, [r5]
 80031d8:	f000 8481 	beq.w	8003ade <waveCompute+0x108a>
 80031dc:	edc5 aa07 	vstr	s21, [r5, #28]
 80031e0:	edc5 8a08 	vstr	s17, [r5, #32]
 80031e4:	edc5 9a09 	vstr	s19, [r5, #36]	; 0x24
 80031e8:	ed85 ba0a 	vstr	s22, [r5, #40]	; 0x28
 80031ec:	ed85 9a0b 	vstr	s18, [r5, #44]	; 0x2c
 80031f0:	f8c4 3d84 	str.w	r3, [r4, #3460]	; 0xd84
 80031f4:	f8c4 8d88 	str.w	r8, [r4, #3464]	; 0xd88
 80031f8:	e4fc      	b.n	8002bf4 <waveCompute+0x1a0>
 80031fa:	edd4 8a3b 	vldr	s17, [r4, #236]	; 0xec
 80031fe:	f00b fbf1 	bl	800e9e4 <rand>
 8003202:	ee08 0a10 	vmov	s16, r0
 8003206:	eddf 7a31 	vldr	s15, [pc, #196]	; 80032cc <waveCompute+0x878>
 800320a:	ed9f 0a31 	vldr	s0, [pc, #196]	; 80032d0 <waveCompute+0x87c>
 800320e:	eeba 8ae0 	vcvt.f32.s32	s16, s16, #31
 8003212:	ee28 8a27 	vmul.f32	s16, s16, s15
 8003216:	ee38 8a40 	vsub.f32	s16, s16, s0
 800321a:	ee28 0a28 	vmul.f32	s0, s16, s17
 800321e:	e4e9      	b.n	8002bf4 <waveCompute+0x1a0>
 8003220:	eef7 7a08 	vmov.f32	s15, #120	; 0x3fc00000  1.5
 8003224:	ee60 8a27 	vmul.f32	s17, s0, s15
 8003228:	482a      	ldr	r0, [pc, #168]	; (80032d4 <waveCompute+0x880>)
 800322a:	edc4 8a45 	vstr	s17, [r4, #276]	; 0x114
 800322e:	f7fd ff57 	bl	80010e0 <MorphingSaw_SampleCompute>
 8003232:	3020      	adds	r0, #32
 8003234:	eeb0 8a40 	vmov.f32	s16, s0
 8003238:	f7fd ff52 	bl	80010e0 <MorphingSaw_SampleCompute>
 800323c:	ee38 0a00 	vadd.f32	s0, s16, s0
 8003240:	eef6 7a00 	vmov.f32	s15, #96	; 0x3f000000  0.5
 8003244:	ee20 0a27 	vmul.f32	s0, s0, s15
 8003248:	e4d4      	b.n	8002bf4 <waveCompute+0x1a0>
 800324a:	ed9f 7a23 	vldr	s14, [pc, #140]	; 80032d8 <waveCompute+0x884>
 800324e:	4821      	ldr	r0, [pc, #132]	; (80032d4 <waveCompute+0x880>)
 8003250:	eef7 7a08 	vmov.f32	s15, #120	; 0x3fc00000  1.5
 8003254:	ee28 7a87 	vmul.f32	s14, s17, s14
 8003258:	ee68 8aa7 	vmul.f32	s17, s17, s15
 800325c:	ed84 7a45 	vstr	s14, [r4, #276]	; 0x114
 8003260:	edc4 8a4d 	vstr	s17, [r4, #308]	; 0x134
 8003264:	f7fd ff3c 	bl	80010e0 <MorphingSaw_SampleCompute>
 8003268:	3020      	adds	r0, #32
 800326a:	eeb0 4a40 	vmov.f32	s8, s0
 800326e:	f7fd ff37 	bl	80010e0 <MorphingSaw_SampleCompute>
 8003272:	3020      	adds	r0, #32
 8003274:	ee34 4a00 	vadd.f32	s8, s8, s0
 8003278:	f7fd ff32 	bl	80010e0 <MorphingSaw_SampleCompute>
 800327c:	eddf 7a17 	vldr	s15, [pc, #92]	; 80032dc <waveCompute+0x888>
 8003280:	ee34 0a00 	vadd.f32	s0, s8, s0
 8003284:	ee20 0a27 	vmul.f32	s0, s0, s15
 8003288:	b002      	add	sp, #8
 800328a:	ecbd 8b0c 	vpop	{d8-d13}
 800328e:	e8bd 8f70 	ldmia.w	sp!, {r4, r5, r6, r8, r9, sl, fp, pc}
 8003292:	ed9f 7a13 	vldr	s14, [pc, #76]	; 80032e0 <waveCompute+0x88c>
 8003296:	e7da      	b.n	800324e <waveCompute+0x7fa>
 8003298:	100002dc 	.word	0x100002dc
 800329c:	08014b58 	.word	0x08014b58
 80032a0:	10000098 	.word	0x10000098
 80032a4:	00000000 	.word	0x00000000
 80032a8:	46ac4400 	.word	0x46ac4400
 80032ac:	40c90fdb 	.word	0x40c90fdb
 80032b0:	0800f450 	.word	0x0800f450
 80032b4:	4322f983 	.word	0x4322f983
 80032b8:	39156592 	.word	0x39156592
 80032bc:	10000834 	.word	0x10000834
 80032c0:	472c4400 	.word	0x472c4400
 80032c4:	3727c5ac 	.word	0x3727c5ac
 80032c8:	1e3ce508 	.word	0x1e3ce508
 80032cc:	3fcccccd 	.word	0x3fcccccd
 80032d0:	3f4ccccd 	.word	0x3f4ccccd
 80032d4:	100000ec 	.word	0x100000ec
 80032d8:	3fa147ae 	.word	0x3fa147ae
 80032dc:	3ea8f5c3 	.word	0x3ea8f5c3
 80032e0:	3f9837b5 	.word	0x3f9837b5
 80032e4:	48d5      	ldr	r0, [pc, #852]	; (800363c <waveCompute+0xbe8>)
 80032e6:	f7ff fa05 	bl	80026f4 <drifter_nextSample>
 80032ea:	eeb7 8a00 	vmov.f32	s16, #112	; 0x3f800000  1.0
 80032ee:	ee30 0a08 	vadd.f32	s0, s0, s16
 80032f2:	48d3      	ldr	r0, [pc, #844]	; (8003640 <waveCompute+0xbec>)
 80032f4:	ee60 7a28 	vmul.f32	s15, s0, s17
 80032f8:	edc4 7a45 	vstr	s15, [r4, #276]	; 0x114
 80032fc:	f7ff f9fa 	bl	80026f4 <drifter_nextSample>
 8003300:	ee30 0a08 	vadd.f32	s0, s0, s16
 8003304:	48cf      	ldr	r0, [pc, #828]	; (8003644 <waveCompute+0xbf0>)
 8003306:	ee60 8a28 	vmul.f32	s17, s0, s17
 800330a:	edc4 8a4d 	vstr	s17, [r4, #308]	; 0x134
 800330e:	e7a9      	b.n	8003264 <waveCompute+0x810>
 8003310:	48ca      	ldr	r0, [pc, #808]	; (800363c <waveCompute+0xbe8>)
 8003312:	4dcd      	ldr	r5, [pc, #820]	; (8003648 <waveCompute+0xbf4>)
 8003314:	f7ff f9ee 	bl	80026f4 <drifter_nextSample>
 8003318:	eef7 8a00 	vmov.f32	s17, #112	; 0x3f800000  1.0
 800331c:	ee30 0a28 	vadd.f32	s0, s0, s17
 8003320:	ed95 7a00 	vldr	s14, [r5]
 8003324:	48c6      	ldr	r0, [pc, #792]	; (8003640 <waveCompute+0xbec>)
 8003326:	ee20 7a07 	vmul.f32	s14, s0, s14
 800332a:	eeb3 8a09 	vmov.f32	s16, #57	; 0x41c80000  25.0
 800332e:	ee37 7a08 	vadd.f32	s14, s14, s16
 8003332:	ed84 7a3d 	vstr	s14, [r4, #244]	; 0xf4
 8003336:	f7ff f9dd 	bl	80026f4 <drifter_nextSample>
 800333a:	ed95 7a00 	vldr	s14, [r5]
 800333e:	48c3      	ldr	r0, [pc, #780]	; (800364c <waveCompute+0xbf8>)
 8003340:	ee30 0a28 	vadd.f32	s0, s0, s17
 8003344:	ee20 7a07 	vmul.f32	s14, s0, s14
 8003348:	ee37 7a08 	vadd.f32	s14, s14, s16
 800334c:	ed84 7a45 	vstr	s14, [r4, #276]	; 0x114
 8003350:	f7ff f9d0 	bl	80026f4 <drifter_nextSample>
 8003354:	edd5 7a00 	vldr	s15, [r5]
 8003358:	48ba      	ldr	r0, [pc, #744]	; (8003644 <waveCompute+0xbf0>)
 800335a:	ee30 0a28 	vadd.f32	s0, s0, s17
 800335e:	ee60 7a27 	vmul.f32	s15, s0, s15
 8003362:	ee77 7a88 	vadd.f32	s15, s15, s16
 8003366:	edc4 7a4d 	vstr	s15, [r4, #308]	; 0x134
 800336a:	e77b      	b.n	8003264 <waveCompute+0x810>
 800336c:	ed94 7a49 	vldr	s14, [r4, #292]	; 0x124
 8003370:	eddf 6abb 	vldr	s13, [pc, #748]	; 8003660 <waveCompute+0xc0c>
 8003374:	edd4 7a48 	vldr	s15, [r4, #288]	; 0x120
 8003378:	edd4 5a46 	vldr	s11, [r4, #280]	; 0x118
 800337c:	ed94 6a51 	vldr	s12, [r4, #324]	; 0x144
 8003380:	ee20 7a07 	vmul.f32	s14, s0, s14
 8003384:	ed9f 0ab2 	vldr	s0, [pc, #712]	; 8003650 <waveCompute+0xbfc>
 8003388:	ed84 7a45 	vstr	s14, [r4, #276]	; 0x114
 800338c:	ee67 7aa6 	vmul.f32	s15, s15, s13
 8003390:	ee27 0a00 	vmul.f32	s0, s14, s0
 8003394:	edd4 6a59 	vldr	s13, [r4, #356]	; 0x164
 8003398:	ee77 7a80 	vadd.f32	s15, s15, s0
 800339c:	ee26 6a28 	vmul.f32	s12, s12, s17
 80033a0:	ee77 7aa5 	vadd.f32	s15, s15, s11
 80033a4:	ee66 8aa8 	vmul.f32	s17, s13, s17
 80033a8:	eef5 7ac0 	vcmpe.f32	s15, #0.0
 80033ac:	eef1 fa10 	vmrs	APSR_nzcv, fpscr
 80033b0:	ed84 6a4d 	vstr	s12, [r4, #308]	; 0x134
 80033b4:	edc4 8a55 	vstr	s17, [r4, #340]	; 0x154
 80033b8:	edc4 7a46 	vstr	s15, [r4, #280]	; 0x118
 80033bc:	d50a      	bpl.n	80033d4 <waveCompute+0x980>
 80033be:	ed9f 7aa9 	vldr	s14, [pc, #676]	; 8003664 <waveCompute+0xc10>
 80033c2:	ee77 7a87 	vadd.f32	s15, s15, s14
 80033c6:	eef5 7ac0 	vcmpe.f32	s15, #0.0
 80033ca:	eef1 fa10 	vmrs	APSR_nzcv, fpscr
 80033ce:	d4f8      	bmi.n	80033c2 <waveCompute+0x96e>
 80033d0:	edc4 7a46 	vstr	s15, [r4, #280]	; 0x118
 80033d4:	ed9f 7aa3 	vldr	s14, [pc, #652]	; 8003664 <waveCompute+0xc10>
 80033d8:	eef4 7ac7 	vcmpe.f32	s15, s14
 80033dc:	eef1 fa10 	vmrs	APSR_nzcv, fpscr
 80033e0:	db08      	blt.n	80033f4 <waveCompute+0x9a0>
 80033e2:	ee77 7ac7 	vsub.f32	s15, s15, s14
 80033e6:	eef4 7ac7 	vcmpe.f32	s15, s14
 80033ea:	eef1 fa10 	vmrs	APSR_nzcv, fpscr
 80033ee:	daf8      	bge.n	80033e2 <waveCompute+0x98e>
 80033f0:	edc4 7a46 	vstr	s15, [r4, #280]	; 0x118
 80033f4:	ed9f 0a97 	vldr	s0, [pc, #604]	; 8003654 <waveCompute+0xc00>
 80033f8:	ed94 8a43 	vldr	s16, [r4, #268]	; 0x10c
 80033fc:	4d96      	ldr	r5, [pc, #600]	; (8003658 <waveCompute+0xc04>)
 80033fe:	ee27 0a80 	vmul.f32	s0, s15, s0
 8003402:	f009 ffd3 	bl	800d3ac <lrintf>
 8003406:	eb05 0080 	add.w	r0, r5, r0, lsl #2
 800340a:	ed90 7a00 	vldr	s14, [r0]
 800340e:	eddf 6a90 	vldr	s13, [pc, #576]	; 8003650 <waveCompute+0xbfc>
 8003412:	edd4 7a3d 	vldr	s15, [r4, #244]	; 0xf4
 8003416:	ed94 0a40 	vldr	s0, [r4, #256]	; 0x100
 800341a:	ee28 7a07 	vmul.f32	s14, s16, s14
 800341e:	ee67 7aa6 	vmul.f32	s15, s15, s13
 8003422:	ee27 0a00 	vmul.f32	s0, s14, s0
 8003426:	edd4 6a3e 	vldr	s13, [r4, #248]	; 0xf8
 800342a:	ed84 7a4a 	vstr	s14, [r4, #296]	; 0x128
 800342e:	ee77 7a80 	vadd.f32	s15, s15, s0
 8003432:	ee77 7aa6 	vadd.f32	s15, s15, s13
 8003436:	eef5 7ac0 	vcmpe.f32	s15, #0.0
 800343a:	eef1 fa10 	vmrs	APSR_nzcv, fpscr
 800343e:	edc4 7a3e 	vstr	s15, [r4, #248]	; 0xf8
 8003442:	d50a      	bpl.n	800345a <waveCompute+0xa06>
 8003444:	ed9f 7a87 	vldr	s14, [pc, #540]	; 8003664 <waveCompute+0xc10>
 8003448:	ee77 7a87 	vadd.f32	s15, s15, s14
 800344c:	eef5 7ac0 	vcmpe.f32	s15, #0.0
 8003450:	eef1 fa10 	vmrs	APSR_nzcv, fpscr
 8003454:	d4f8      	bmi.n	8003448 <waveCompute+0x9f4>
 8003456:	edc4 7a3e 	vstr	s15, [r4, #248]	; 0xf8
 800345a:	ed9f 7a82 	vldr	s14, [pc, #520]	; 8003664 <waveCompute+0xc10>
 800345e:	eef4 7ac7 	vcmpe.f32	s15, s14
 8003462:	eef1 fa10 	vmrs	APSR_nzcv, fpscr
 8003466:	db08      	blt.n	800347a <waveCompute+0xa26>
 8003468:	ee77 7ac7 	vsub.f32	s15, s15, s14
 800346c:	eef4 7ac7 	vcmpe.f32	s15, s14
 8003470:	eef1 fa10 	vmrs	APSR_nzcv, fpscr
 8003474:	daf8      	bge.n	8003468 <waveCompute+0xa14>
 8003476:	edc4 7a3e 	vstr	s15, [r4, #248]	; 0xf8
 800347a:	ed9f 0a76 	vldr	s0, [pc, #472]	; 8003654 <waveCompute+0xc00>
 800347e:	ed94 8a3b 	vldr	s16, [r4, #236]	; 0xec
 8003482:	ee27 0a80 	vmul.f32	s0, s15, s0
 8003486:	f009 ff91 	bl	800d3ac <lrintf>
 800348a:	eddf 6a71 	vldr	s13, [pc, #452]	; 8003650 <waveCompute+0xbfc>
 800348e:	ed9f 7a74 	vldr	s14, [pc, #464]	; 8003660 <waveCompute+0xc0c>
 8003492:	edd4 7a55 	vldr	s15, [r4, #340]	; 0x154
 8003496:	ed94 0a58 	vldr	s0, [r4, #352]	; 0x160
 800349a:	ee67 7aa6 	vmul.f32	s15, s15, s13
 800349e:	ee20 0a07 	vmul.f32	s0, s0, s14
 80034a2:	edd4 6a56 	vldr	s13, [r4, #344]	; 0x158
 80034a6:	ee77 7a80 	vadd.f32	s15, s15, s0
 80034aa:	eb05 0080 	add.w	r0, r5, r0, lsl #2
 80034ae:	ee77 7aa6 	vadd.f32	s15, s15, s13
 80034b2:	ed90 7a00 	vldr	s14, [r0]
 80034b6:	edc4 7a56 	vstr	s15, [r4, #344]	; 0x158
 80034ba:	ee27 7a08 	vmul.f32	s14, s14, s16
 80034be:	eef5 7ac0 	vcmpe.f32	s15, #0.0
 80034c2:	eef1 fa10 	vmrs	APSR_nzcv, fpscr
 80034c6:	ed84 7a42 	vstr	s14, [r4, #264]	; 0x108
 80034ca:	d50a      	bpl.n	80034e2 <waveCompute+0xa8e>
 80034cc:	ed9f 7a65 	vldr	s14, [pc, #404]	; 8003664 <waveCompute+0xc10>
 80034d0:	ee77 7a87 	vadd.f32	s15, s15, s14
 80034d4:	eef5 7ac0 	vcmpe.f32	s15, #0.0
 80034d8:	eef1 fa10 	vmrs	APSR_nzcv, fpscr
 80034dc:	d4f8      	bmi.n	80034d0 <waveCompute+0xa7c>
 80034de:	edc4 7a56 	vstr	s15, [r4, #344]	; 0x158
 80034e2:	ed9f 7a60 	vldr	s14, [pc, #384]	; 8003664 <waveCompute+0xc10>
 80034e6:	eef4 7ac7 	vcmpe.f32	s15, s14
 80034ea:	eef1 fa10 	vmrs	APSR_nzcv, fpscr
 80034ee:	db08      	blt.n	8003502 <waveCompute+0xaae>
 80034f0:	ee77 7ac7 	vsub.f32	s15, s15, s14
 80034f4:	eef4 7ac7 	vcmpe.f32	s15, s14
 80034f8:	eef1 fa10 	vmrs	APSR_nzcv, fpscr
 80034fc:	daf8      	bge.n	80034f0 <waveCompute+0xa9c>
 80034fe:	edc4 7a56 	vstr	s15, [r4, #344]	; 0x158
 8003502:	ed9f 0a54 	vldr	s0, [pc, #336]	; 8003654 <waveCompute+0xc00>
 8003506:	ed94 8a53 	vldr	s16, [r4, #332]	; 0x14c
 800350a:	ee27 0a80 	vmul.f32	s0, s15, s0
 800350e:	f009 ff4d 	bl	800d3ac <lrintf>
 8003512:	eb05 0080 	add.w	r0, r5, r0, lsl #2
 8003516:	ed90 7a00 	vldr	s14, [r0]
 800351a:	eddf 6a4d 	vldr	s13, [pc, #308]	; 8003650 <waveCompute+0xbfc>
 800351e:	edd4 7a4d 	vldr	s15, [r4, #308]	; 0x134
 8003522:	ed94 0a50 	vldr	s0, [r4, #320]	; 0x140
 8003526:	ee28 7a07 	vmul.f32	s14, s16, s14
 800352a:	ee67 7aa6 	vmul.f32	s15, s15, s13
 800352e:	ee27 0a00 	vmul.f32	s0, s14, s0
 8003532:	edd4 6a4e 	vldr	s13, [r4, #312]	; 0x138
 8003536:	ed84 7a5a 	vstr	s14, [r4, #360]	; 0x168
 800353a:	ee77 7a80 	vadd.f32	s15, s15, s0
 800353e:	ee77 7aa6 	vadd.f32	s15, s15, s13
 8003542:	eef5 7ac0 	vcmpe.f32	s15, #0.0
 8003546:	eef1 fa10 	vmrs	APSR_nzcv, fpscr
 800354a:	edc4 7a4e 	vstr	s15, [r4, #312]	; 0x138
 800354e:	d50a      	bpl.n	8003566 <waveCompute+0xb12>
 8003550:	ed9f 7a44 	vldr	s14, [pc, #272]	; 8003664 <waveCompute+0xc10>
 8003554:	ee77 7a87 	vadd.f32	s15, s15, s14
 8003558:	eef5 7ac0 	vcmpe.f32	s15, #0.0
 800355c:	eef1 fa10 	vmrs	APSR_nzcv, fpscr
 8003560:	d4f8      	bmi.n	8003554 <waveCompute+0xb00>
 8003562:	edc4 7a4e 	vstr	s15, [r4, #312]	; 0x138
 8003566:	ed9f 7a3f 	vldr	s14, [pc, #252]	; 8003664 <waveCompute+0xc10>
 800356a:	eef4 7ac7 	vcmpe.f32	s15, s14
 800356e:	eef1 fa10 	vmrs	APSR_nzcv, fpscr
 8003572:	db08      	blt.n	8003586 <waveCompute+0xb32>
 8003574:	ee77 7ac7 	vsub.f32	s15, s15, s14
 8003578:	eef4 7ac7 	vcmpe.f32	s15, s14
 800357c:	eef1 fa10 	vmrs	APSR_nzcv, fpscr
 8003580:	daf8      	bge.n	8003574 <waveCompute+0xb20>
 8003582:	edc4 7a4e 	vstr	s15, [r4, #312]	; 0x138
 8003586:	ed9f 0a33 	vldr	s0, [pc, #204]	; 8003654 <waveCompute+0xc00>
 800358a:	edd4 8a4b 	vldr	s17, [r4, #300]	; 0x12c
 800358e:	ee27 0a80 	vmul.f32	s0, s15, s0
 8003592:	f009 ff0b 	bl	800d3ac <lrintf>
 8003596:	eb05 0080 	add.w	r0, r5, r0, lsl #2
 800359a:	edd0 7a00 	vldr	s15, [r0]
 800359e:	ed94 8a42 	vldr	s16, [r4, #264]	; 0x108
 80035a2:	ee68 7aa7 	vmul.f32	s15, s17, s15
 80035a6:	eeb6 0a00 	vmov.f32	s0, #96	; 0x3f000000  0.5
 80035aa:	ee37 8a88 	vadd.f32	s16, s15, s16
 80035ae:	edc4 7a52 	vstr	s15, [r4, #328]	; 0x148
 80035b2:	ee28 0a00 	vmul.f32	s0, s16, s0
 80035b6:	f7ff bb1d 	b.w	8002bf4 <waveCompute+0x1a0>
 80035ba:	eddf 8a28 	vldr	s17, [pc, #160]	; 800365c <waveCompute+0xc08>
 80035be:	eef4 7ae8 	vcmpe.f32	s15, s17
 80035c2:	eef1 fa10 	vmrs	APSR_nzcv, fpscr
 80035c6:	d408      	bmi.n	80035da <waveCompute+0xb86>
 80035c8:	eef6 8a00 	vmov.f32	s17, #96	; 0x3f000000  0.5
 80035cc:	eef4 7ae8 	vcmpe.f32	s15, s17
 80035d0:	eef1 fa10 	vmrs	APSR_nzcv, fpscr
 80035d4:	bfd8      	it	le
 80035d6:	eef0 8a67 	vmovle.f32	s17, s15
 80035da:	2300      	movs	r3, #0
 80035dc:	f886 32d8 	strb.w	r3, [r6, #728]	; 0x2d8
 80035e0:	eeb6 8a00 	vmov.f32	s16, #96	; 0x3f000000  0.5
 80035e4:	f7ff ba6d 	b.w	8002ac2 <waveCompute+0x6e>
 80035e8:	ed9f 7a1c 	vldr	s14, [pc, #112]	; 800365c <waveCompute+0xc08>
 80035ec:	eef4 6ac7 	vcmpe.f32	s13, s14
 80035f0:	eef1 fa10 	vmrs	APSR_nzcv, fpscr
 80035f4:	f100 81b9 	bmi.w	800396a <waveCompute+0xf16>
 80035f8:	eef4 6ac6 	vcmpe.f32	s13, s12
 80035fc:	eef1 fa10 	vmrs	APSR_nzcv, fpscr
 8003600:	f340 87c1 	ble.w	8004586 <waveCompute+0x1b32>
 8003604:	eef4 7ac6 	vcmpe.f32	s15, s12
 8003608:	eef1 fa10 	vmrs	APSR_nzcv, fpscr
 800360c:	f100 8353 	bmi.w	8003cb6 <waveCompute+0x1262>
 8003610:	eef0 9a67 	vmov.f32	s19, s15
 8003614:	eeb0 7a46 	vmov.f32	s14, s12
 8003618:	eef4 9ac6 	vcmpe.f32	s19, s12
 800361c:	eef1 fa10 	vmrs	APSR_nzcv, fpscr
 8003620:	eef6 ba00 	vmov.f32	s23, #96	; 0x3f000000  0.5
 8003624:	bfd2      	itee	le
 8003626:	ee69 baab 	vmulle.f32	s23, s19, s23
 800362a:	ee66 ba2b 	vmulgt.f32	s23, s12, s23
 800362e:	eef0 9a46 	vmovgt.f32	s19, s12
 8003632:	2500      	movs	r5, #0
 8003634:	f884 5830 	strb.w	r5, [r4, #2096]	; 0x830
 8003638:	e41c      	b.n	8002e74 <waveCompute+0x420>
 800363a:	bf00      	nop
 800363c:	100001c4 	.word	0x100001c4
 8003640:	10000198 	.word	0x10000198
 8003644:	100000ec 	.word	0x100000ec
 8003648:	20000024 	.word	0x20000024
 800364c:	1000016c 	.word	0x1000016c
 8003650:	39156592 	.word	0x39156592
 8003654:	4322f983 	.word	0x4322f983
 8003658:	0800f450 	.word	0x0800f450
 800365c:	3727c5ac 	.word	0x3727c5ac
 8003660:	00000000 	.word	0x00000000
 8003664:	40c90fdb 	.word	0x40c90fdb
 8003668:	40490fdb 	.word	0x40490fdb
 800366c:	ed1f 7a05 	vldr	s14, [pc, #-20]	; 800365c <waveCompute+0xc08>
 8003670:	eef4 6ac7 	vcmpe.f32	s13, s14
 8003674:	eef1 fa10 	vmrs	APSR_nzcv, fpscr
 8003678:	f100 816c 	bmi.w	8003954 <waveCompute+0xf00>
 800367c:	eef4 6ae5 	vcmpe.f32	s13, s11
 8003680:	eef1 fa10 	vmrs	APSR_nzcv, fpscr
 8003684:	f340 878e 	ble.w	80045a4 <waveCompute+0x1b50>
 8003688:	eef4 7ae5 	vcmpe.f32	s15, s11
 800368c:	eef1 fa10 	vmrs	APSR_nzcv, fpscr
 8003690:	f100 8300 	bmi.w	8003c94 <waveCompute+0x1240>
 8003694:	eeb0 6a67 	vmov.f32	s12, s15
 8003698:	eeb0 7a65 	vmov.f32	s14, s11
 800369c:	eeb4 6a65 	vcmp.f32	s12, s11
 80036a0:	eef1 fa10 	vmrs	APSR_nzcv, fpscr
 80036a4:	bfc8      	it	gt
 80036a6:	eeb0 6a65 	vmovgt.f32	s12, s11
 80036aa:	f04f 0800 	mov.w	r8, #0
 80036ae:	ed1f 8a14 	vldr	s16, [pc, #-80]	; 8003660 <waveCompute+0xc0c>
 80036b2:	f884 8d8c 	strb.w	r8, [r4, #3468]	; 0xd8c
 80036b6:	eeb6 ba00 	vmov.f32	s22, #96	; 0x3f000000  0.5
 80036ba:	e519      	b.n	80030f0 <waveCompute+0x69c>
 80036bc:	eeb5 7ac0 	vcmpe.f32	s14, #0.0
 80036c0:	eef1 fa10 	vmrs	APSR_nzcv, fpscr
 80036c4:	d508      	bpl.n	80036d8 <waveCompute+0xc84>
 80036c6:	ed5f 7a19 	vldr	s15, [pc, #-100]	; 8003664 <waveCompute+0xc10>
 80036ca:	ee37 7a27 	vadd.f32	s14, s14, s15
 80036ce:	eeb5 7ac0 	vcmpe.f32	s14, #0.0
 80036d2:	eef1 fa10 	vmrs	APSR_nzcv, fpscr
 80036d6:	d4f8      	bmi.n	80036ca <waveCompute+0xc76>
 80036d8:	ed5f 7a1e 	vldr	s15, [pc, #-120]	; 8003664 <waveCompute+0xc10>
 80036dc:	eeb4 7ae7 	vcmpe.f32	s14, s15
 80036e0:	eef1 fa10 	vmrs	APSR_nzcv, fpscr
 80036e4:	db06      	blt.n	80036f4 <waveCompute+0xca0>
 80036e6:	ee37 7a67 	vsub.f32	s14, s14, s15
 80036ea:	eeb4 7ae7 	vcmpe.f32	s14, s15
 80036ee:	eef1 fa10 	vmrs	APSR_nzcv, fpscr
 80036f2:	daf8      	bge.n	80036e6 <waveCompute+0xc92>
 80036f4:	ed1f 6a24 	vldr	s12, [pc, #-144]	; 8003668 <waveCompute+0xc14>
 80036f8:	edd4 7a3b 	vldr	s15, [r4, #236]	; 0xec
 80036fc:	eeb4 7ac6 	vcmpe.f32	s14, s12
 8003700:	eef1 fa10 	vmrs	APSR_nzcv, fpscr
 8003704:	eec7 6a06 	vdiv.f32	s13, s14, s12
 8003708:	f140 8260 	bpl.w	8003bcc <waveCompute+0x1178>
 800370c:	eeb6 8a00 	vmov.f32	s16, #96	; 0x3f000000  0.5
 8003710:	ee27 8a88 	vmul.f32	s16, s15, s16
 8003714:	ee28 8a26 	vmul.f32	s16, s16, s13
 8003718:	ee28 0a26 	vmul.f32	s0, s16, s13
 800371c:	f7ff bab1 	b.w	8002c82 <waveCompute+0x22e>
 8003720:	eef0 6a65 	vmov.f32	s13, s11
 8003724:	f7ff bbb7 	b.w	8002e96 <waveCompute+0x442>
 8003728:	eeb7 aa00 	vmov.f32	s20, #112	; 0x3f800000  1.0
 800372c:	eeb4 8aca 	vcmpe.f32	s16, s20
 8003730:	eef1 fa10 	vmrs	APSR_nzcv, fpscr
 8003734:	f280 8149 	bge.w	80039ca <waveCompute+0xf76>
 8003738:	2300      	movs	r3, #0
 800373a:	eeb0 aa48 	vmov.f32	s20, s16
 800373e:	616b      	str	r3, [r5, #20]
 8003740:	f7ff ba24 	b.w	8002b8c <waveCompute+0x138>
 8003744:	2d00      	cmp	r5, #0
 8003746:	f040 811b 	bne.w	8003980 <waveCompute+0xf2c>
 800374a:	eef4 9aeb 	vcmpe.f32	s19, s23
 800374e:	eef1 fa10 	vmrs	APSR_nzcv, fpscr
 8003752:	f240 84f1 	bls.w	8004138 <waveCompute+0x16e4>
 8003756:	ee8b baa9 	vdiv.f32	s22, s23, s19
 800375a:	462b      	mov	r3, r5
 800375c:	eef6 7a00 	vmov.f32	s15, #96	; 0x3f000000  0.5
 8003760:	ee3b ba67 	vsub.f32	s22, s22, s15
 8003764:	eeb7 ca00 	vmov.f32	s24, #112	; 0x3f800000  1.0
 8003768:	eef4 bacc 	vcmpe.f32	s23, s24
 800376c:	eef1 fa10 	vmrs	APSR_nzcv, fpscr
 8003770:	f280 835f 	bge.w	8003e32 <waveCompute+0x13de>
 8003774:	2200      	movs	r2, #0
 8003776:	eeb0 aa6b 	vmov.f32	s20, s23
 800377a:	f8c4 22f4 	str.w	r2, [r4, #756]	; 0x2f4
 800377e:	461d      	mov	r5, r3
 8003780:	e410      	b.n	8002fa4 <waveCompute+0x550>
 8003782:	f1b8 0f00 	cmp.w	r8, #0
 8003786:	f040 8110 	bne.w	80039aa <waveCompute+0xf56>
 800378a:	eef4 9ac8 	vcmpe.f32	s19, s16
 800378e:	eef1 fa10 	vmrs	APSR_nzcv, fpscr
 8003792:	f240 8498 	bls.w	80040c6 <waveCompute+0x1672>
 8003796:	4643      	mov	r3, r8
 8003798:	f106 090c 	add.w	r9, r6, #12
 800379c:	eef7 aa00 	vmov.f32	s21, #112	; 0x3f800000  1.0
 80037a0:	eeb4 8aea 	vcmpe.f32	s16, s21
 80037a4:	eef1 fa10 	vmrs	APSR_nzcv, fpscr
 80037a8:	f280 83e9 	bge.w	8003f7e <waveCompute+0x152a>
 80037ac:	2200      	movs	r2, #0
 80037ae:	eef0 aa48 	vmov.f32	s21, s16
 80037b2:	61aa      	str	r2, [r5, #24]
 80037b4:	4698      	mov	r8, r3
 80037b6:	e4f0      	b.n	800319a <waveCompute+0x746>
 80037b8:	eef0 7a47 	vmov.f32	s15, s14
 80037bc:	f7ff b992 	b.w	8002ae4 <waveCompute+0x90>
 80037c0:	eef0 6a45 	vmov.f32	s13, s10
 80037c4:	e4a5      	b.n	8003112 <waveCompute+0x6be>
 80037c6:	eef1 fa10 	vmrs	APSR_nzcv, fpscr
 80037ca:	d508      	bpl.n	80037de <waveCompute+0xd8a>
 80037cc:	ed5f 7a5b 	vldr	s15, [pc, #-364]	; 8003664 <waveCompute+0xc10>
 80037d0:	ee37 7a27 	vadd.f32	s14, s14, s15
 80037d4:	eeb5 7ac0 	vcmpe.f32	s14, #0.0
 80037d8:	eef1 fa10 	vmrs	APSR_nzcv, fpscr
 80037dc:	d4f8      	bmi.n	80037d0 <waveCompute+0xd7c>
 80037de:	ed5f 7a5f 	vldr	s15, [pc, #-380]	; 8003664 <waveCompute+0xc10>
 80037e2:	eeb4 7ae7 	vcmpe.f32	s14, s15
 80037e6:	eef1 fa10 	vmrs	APSR_nzcv, fpscr
 80037ea:	db06      	blt.n	80037fa <waveCompute+0xda6>
 80037ec:	ee37 7a67 	vsub.f32	s14, s14, s15
 80037f0:	eeb4 7ae7 	vcmpe.f32	s14, s15
 80037f4:	eef1 fa10 	vmrs	APSR_nzcv, fpscr
 80037f8:	daf8      	bge.n	80037ec <waveCompute+0xd98>
 80037fa:	ed5f 6a65 	vldr	s13, [pc, #-404]	; 8003668 <waveCompute+0xc14>
 80037fe:	ed94 8a3b 	vldr	s16, [r4, #236]	; 0xec
 8003802:	eec7 7a26 	vdiv.f32	s15, s14, s13
 8003806:	eeb4 7ae6 	vcmpe.f32	s14, s13
 800380a:	eef1 fa10 	vmrs	APSR_nzcv, fpscr
 800380e:	eeb6 6a00 	vmov.f32	s12, #96	; 0x3f000000  0.5
 8003812:	bf58      	it	pl
 8003814:	eef0 6a00 	vmovpl.f32	s13, #0	; 0x40000000  2.0
 8003818:	ee28 8a06 	vmul.f32	s16, s16, s12
 800381c:	bf58      	it	pl
 800381e:	ee77 7ae6 	vsubpl.f32	s15, s15, s13
 8003822:	ee27 0a88 	vmul.f32	s0, s15, s16
 8003826:	f7ff ba2c 	b.w	8002c82 <waveCompute+0x22e>
 800382a:	eef7 7a00 	vmov.f32	s15, #112	; 0x3f800000  1.0
 800382e:	eeb4 8ae7 	vcmpe.f32	s16, s15
 8003832:	eef1 fa10 	vmrs	APSR_nzcv, fpscr
 8003836:	f280 828d 	bge.w	8003d54 <waveCompute+0x1300>
 800383a:	f8df 83bc 	ldr.w	r8, [pc, #956]	; 8003bf8 <waveCompute+0x11a4>
 800383e:	4aea      	ldr	r2, [pc, #936]	; (8003be8 <waveCompute+0x1194>)
 8003840:	f106 090c 	add.w	r9, r6, #12
 8003844:	f106 0b47 	add.w	fp, r6, #71	; 0x47
 8003848:	eddf 7ae8 	vldr	s15, [pc, #928]	; 8003bec <waveCompute+0x1198>
 800384c:	9200      	str	r2, [sp, #0]
 800384e:	ee6a 7aa7 	vmul.f32	s15, s21, s15
 8003852:	eeb6 0a00 	vmov.f32	s0, #96	; 0x3f000000  0.5
 8003856:	ee87 8aa8 	vdiv.f32	s16, s15, s17
 800385a:	ee38 0a40 	vsub.f32	s0, s16, s0
 800385e:	f009 fda5 	bl	800d3ac <lrintf>
 8003862:	ee07 0a90 	vmov	s15, r0
 8003866:	eeb8 6ae7 	vcvt.f32.s32	s12, s15
 800386a:	9a00      	ldr	r2, [sp, #0]
 800386c:	f000 033f 	and.w	r3, r0, #63	; 0x3f
 8003870:	ee38 6a46 	vsub.f32	s12, s16, s12
 8003874:	eb02 0b8b 	add.w	fp, r2, fp, lsl #2
 8003878:	eb08 03c3 	add.w	r3, r8, r3, lsl #3
 800387c:	eb05 0289 	add.w	r2, r5, r9, lsl #2
 8003880:	ed93 7a01 	vldr	s14, [r3, #4]
 8003884:	edd3 6a00 	vldr	s13, [r3]
 8003888:	edd2 7a00 	vldr	s15, [r2]
 800388c:	ee26 7a07 	vmul.f32	s14, s12, s14
 8003890:	f503 7300 	add.w	r3, r3, #512	; 0x200
 8003894:	ee37 7a26 	vadd.f32	s14, s14, s13
 8003898:	ee37 7a27 	vadd.f32	s14, s14, s15
 800389c:	eca2 7a01 	vstmia	r2!, {s14}
 80038a0:	4593      	cmp	fp, r2
 80038a2:	d1ed      	bne.n	8003880 <waveCompute+0xe2c>
 80038a4:	eeb6 ba00 	vmov.f32	s22, #96	; 0x3f000000  0.5
 80038a8:	e46d      	b.n	8003186 <waveCompute+0x732>
 80038aa:	ee8c da29 	vdiv.f32	s26, s24, s19
 80038ae:	eecc 5a08 	vdiv.f32	s11, s24, s16
 80038b2:	eef4 bacc 	vcmpe.f32	s23, s24
 80038b6:	eef1 fa10 	vmrs	APSR_nzcv, fpscr
 80038ba:	ee75 ca8d 	vadd.f32	s25, s11, s26
 80038be:	f280 8306 	bge.w	8003ece <waveCompute+0x147a>
 80038c2:	ee7b bae9 	vsub.f32	s23, s23, s19
 80038c6:	4eca      	ldr	r6, [pc, #808]	; (8003bf0 <waveCompute+0x119c>)
 80038c8:	f8df b34c 	ldr.w	fp, [pc, #844]	; 8003c18 <waveCompute+0x11c4>
 80038cc:	eecb 7a88 	vdiv.f32	s15, s23, s16
 80038d0:	f108 090b 	add.w	r9, r8, #11
 80038d4:	f108 0a46 	add.w	sl, r8, #70	; 0x46
 80038d8:	f106 0530 	add.w	r5, r6, #48	; 0x30
 80038dc:	eeb6 ba00 	vmov.f32	s22, #96	; 0x3f000000  0.5
 80038e0:	ee28 caac 	vmul.f32	s24, s17, s25
 80038e4:	ee7b ba67 	vsub.f32	s23, s22, s15
 80038e8:	eddf 7ac0 	vldr	s15, [pc, #768]	; 8003bec <waveCompute+0x1198>
 80038ec:	ee6a 7a27 	vmul.f32	s15, s20, s15
 80038f0:	eeb6 0a00 	vmov.f32	s0, #96	; 0x3f000000  0.5
 80038f4:	eec7 caa8 	vdiv.f32	s25, s15, s17
 80038f8:	eb05 0a8a 	add.w	sl, r5, sl, lsl #2
 80038fc:	ee3c 0ac0 	vsub.f32	s0, s25, s0
 8003900:	ed8d 0a00 	vstr	s0, [sp]
 8003904:	f009 fd52 	bl	800d3ac <lrintf>
 8003908:	ee07 0a90 	vmov	s15, r0
 800390c:	eeb8 6ae7 	vcvt.f32.s32	s12, s15
 8003910:	f000 033f 	and.w	r3, r0, #63	; 0x3f
 8003914:	ee3c 6ac6 	vsub.f32	s12, s25, s12
 8003918:	ed9d 0a00 	vldr	s0, [sp]
 800391c:	eb0b 0383 	add.w	r3, fp, r3, lsl #2
 8003920:	eb06 0289 	add.w	r2, r6, r9, lsl #2
 8003924:	ed93 7a00 	vldr	s14, [r3]
 8003928:	edd3 7a01 	vldr	s15, [r3, #4]
 800392c:	edd2 6a00 	vldr	s13, [r2]
 8003930:	ee77 7ac7 	vsub.f32	s15, s15, s14
 8003934:	f503 7380 	add.w	r3, r3, #256	; 0x100
 8003938:	ee67 7a86 	vmul.f32	s15, s15, s12
 800393c:	ee77 7a87 	vadd.f32	s15, s15, s14
 8003940:	ee67 7a8c 	vmul.f32	s15, s15, s24
 8003944:	ee77 7aa6 	vadd.f32	s15, s15, s13
 8003948:	ece2 7a01 	vstmia	r2!, {s15}
 800394c:	4592      	cmp	sl, r2
 800394e:	d1e9      	bne.n	8003924 <waveCompute+0xed0>
 8003950:	f7ff baed 	b.w	8002f2e <waveCompute+0x4da>
 8003954:	eef4 7ac7 	vcmpe.f32	s15, s14
 8003958:	eef1 fa10 	vmrs	APSR_nzcv, fpscr
 800395c:	f100 81a6 	bmi.w	8003cac <waveCompute+0x1258>
 8003960:	eddf 5aa4 	vldr	s11, [pc, #656]	; 8003bf4 <waveCompute+0x11a0>
 8003964:	eeb0 6a67 	vmov.f32	s12, s15
 8003968:	e698      	b.n	800369c <waveCompute+0xc48>
 800396a:	eef4 7ac7 	vcmpe.f32	s15, s14
 800396e:	eef1 fa10 	vmrs	APSR_nzcv, fpscr
 8003972:	f100 8194 	bmi.w	8003c9e <waveCompute+0x124a>
 8003976:	ed9f 6a9f 	vldr	s12, [pc, #636]	; 8003bf4 <waveCompute+0x11a0>
 800397a:	eef0 9a67 	vmov.f32	s19, s15
 800397e:	e64b      	b.n	8003618 <waveCompute+0xbc4>
 8003980:	eef4 bacc 	vcmpe.f32	s23, s24
 8003984:	eef1 fa10 	vmrs	APSR_nzcv, fpscr
 8003988:	f280 8348 	bge.w	800401c <waveCompute+0x15c8>
 800398c:	ee3b 7ae9 	vsub.f32	s14, s23, s19
 8003990:	2300      	movs	r3, #0
 8003992:	eec7 7a08 	vdiv.f32	s15, s14, s16
 8003996:	f8c4 32f4 	str.w	r3, [r4, #756]	; 0x2f4
 800399a:	eeb6 ba00 	vmov.f32	s22, #96	; 0x3f000000  0.5
 800399e:	ee3b ba67 	vsub.f32	s22, s22, s15
 80039a2:	eeb0 aa6b 	vmov.f32	s20, s23
 80039a6:	f7ff bafd 	b.w	8002fa4 <waveCompute+0x550>
 80039aa:	eef7 aa00 	vmov.f32	s21, #112	; 0x3f800000  1.0
 80039ae:	eeb4 8aea 	vcmpe.f32	s16, s21
 80039b2:	eef1 fa10 	vmrs	APSR_nzcv, fpscr
 80039b6:	f280 8185 	bge.w	8003cc4 <waveCompute+0x1270>
 80039ba:	2300      	movs	r3, #0
 80039bc:	eef0 aa48 	vmov.f32	s21, s16
 80039c0:	61ab      	str	r3, [r5, #24]
 80039c2:	f106 090c 	add.w	r9, r6, #12
 80039c6:	f7ff bbe8 	b.w	800319a <waveCompute+0x746>
 80039ca:	ee38 aa4a 	vsub.f32	s20, s16, s20
 80039ce:	eddf 6a87 	vldr	s13, [pc, #540]	; 8003bec <waveCompute+0x1198>
 80039d2:	ee6a 6a26 	vmul.f32	s13, s20, s13
 80039d6:	eeca 7a28 	vdiv.f32	s15, s20, s17
 80039da:	ee86 8aa8 	vdiv.f32	s16, s13, s17
 80039de:	ee37 7a87 	vadd.f32	s14, s15, s14
 80039e2:	eeb6 0a00 	vmov.f32	s0, #96	; 0x3f000000  0.5
 80039e6:	ee38 0a40 	vsub.f32	s0, s16, s0
 80039ea:	ed85 7a05 	vstr	s14, [r5, #20]
 80039ee:	f009 fcdd 	bl	800d3ac <lrintf>
 80039f2:	ee07 0a90 	vmov	s15, r0
 80039f6:	4a80      	ldr	r2, [pc, #512]	; (8003bf8 <waveCompute+0x11a4>)
 80039f8:	4980      	ldr	r1, [pc, #512]	; (8003bfc <waveCompute+0x11a8>)
 80039fa:	eeb8 6ae7 	vcvt.f32.s32	s12, s15
 80039fe:	f000 003f 	and.w	r0, r0, #63	; 0x3f
 8003a02:	f109 0309 	add.w	r3, r9, #9
 8003a06:	eb02 02c0 	add.w	r2, r2, r0, lsl #3
 8003a0a:	ee38 6a46 	vsub.f32	s12, s16, s12
 8003a0e:	f109 0047 	add.w	r0, r9, #71	; 0x47
 8003a12:	eb05 0383 	add.w	r3, r5, r3, lsl #2
 8003a16:	eb01 0180 	add.w	r1, r1, r0, lsl #2
 8003a1a:	edd2 7a01 	vldr	s15, [r2, #4]
 8003a1e:	edd2 6a00 	vldr	s13, [r2]
 8003a22:	ed93 7a00 	vldr	s14, [r3]
 8003a26:	ee66 7a27 	vmul.f32	s15, s12, s15
 8003a2a:	f502 7200 	add.w	r2, r2, #512	; 0x200
 8003a2e:	ee77 7aa6 	vadd.f32	s15, s15, s13
 8003a32:	ee77 7a87 	vadd.f32	s15, s15, s14
 8003a36:	ece3 7a01 	vstmia	r3!, {s15}
 8003a3a:	4299      	cmp	r1, r3
 8003a3c:	d1ed      	bne.n	8003a1a <waveCompute+0xfc6>
 8003a3e:	f7ff b8a5 	b.w	8002b8c <waveCompute+0x138>
 8003a42:	496f      	ldr	r1, [pc, #444]	; (8003c00 <waveCompute+0x11ac>)
 8003a44:	ed8d 0a00 	vstr	s0, [sp]
 8003a48:	f44f 7290 	mov.w	r2, #288	; 0x120
 8003a4c:	f5a1 6080 	sub.w	r0, r1, #1024	; 0x400
 8003a50:	f7fc fb9a 	bl	8000188 <memcpy>
 8003a54:	486b      	ldr	r0, [pc, #428]	; (8003c04 <waveCompute+0x11b0>)
 8003a56:	f44f 6280 	mov.w	r2, #1024	; 0x400
 8003a5a:	2100      	movs	r1, #0
 8003a5c:	f00a ff6a 	bl	800e934 <memset>
 8003a60:	ed9d 0a00 	vldr	s0, [sp]
 8003a64:	2300      	movs	r3, #0
 8003a66:	f7ff babf 	b.w	8002fe8 <waveCompute+0x594>
 8003a6a:	ee38 8a67 	vsub.f32	s16, s16, s15
 8003a6e:	ed9f 7a5f 	vldr	s14, [pc, #380]	; 8003bec <waveCompute+0x1198>
 8003a72:	f8df 8184 	ldr.w	r8, [pc, #388]	; 8003bf8 <waveCompute+0x11a4>
 8003a76:	f8df a184 	ldr.w	sl, [pc, #388]	; 8003bfc <waveCompute+0x11a8>
 8003a7a:	ee7a 7a08 	vadd.f32	s15, s20, s16
 8003a7e:	eeb6 0a00 	vmov.f32	s0, #96	; 0x3f000000  0.5
 8003a82:	ee67 7a87 	vmul.f32	s15, s15, s14
 8003a86:	f109 0409 	add.w	r4, r9, #9
 8003a8a:	ee87 9aa8 	vdiv.f32	s18, s15, s17
 8003a8e:	f109 0b47 	add.w	fp, r9, #71	; 0x47
 8003a92:	ee39 0a40 	vsub.f32	s0, s18, s0
 8003a96:	f009 fc89 	bl	800d3ac <lrintf>
 8003a9a:	ee07 0a90 	vmov	s15, r0
 8003a9e:	eeb8 6ae7 	vcvt.f32.s32	s12, s15
 8003aa2:	f000 033f 	and.w	r3, r0, #63	; 0x3f
 8003aa6:	ee39 6a46 	vsub.f32	s12, s18, s12
 8003aaa:	eb05 0284 	add.w	r2, r5, r4, lsl #2
 8003aae:	eb08 03c3 	add.w	r3, r8, r3, lsl #3
 8003ab2:	eb0a 018b 	add.w	r1, sl, fp, lsl #2
 8003ab6:	edd3 7a01 	vldr	s15, [r3, #4]
 8003aba:	edd3 6a00 	vldr	s13, [r3]
 8003abe:	ed92 7a00 	vldr	s14, [r2]
 8003ac2:	ee66 7a27 	vmul.f32	s15, s12, s15
 8003ac6:	f503 7300 	add.w	r3, r3, #512	; 0x200
 8003aca:	ee77 7aa6 	vadd.f32	s15, s15, s13
 8003ace:	ee77 7a87 	vadd.f32	s15, s15, s14
 8003ad2:	ece2 7a01 	vstmia	r2!, {s15}
 8003ad6:	4291      	cmp	r1, r2
 8003ad8:	d1ed      	bne.n	8003ab6 <waveCompute+0x1062>
 8003ada:	f7ff b827 	b.w	8002b2c <waveCompute+0xd8>
 8003ade:	494a      	ldr	r1, [pc, #296]	; (8003c08 <waveCompute+0x11b4>)
 8003ae0:	ed8d 0a00 	vstr	s0, [sp]
 8003ae4:	f44f 7290 	mov.w	r2, #288	; 0x120
 8003ae8:	f5a1 6080 	sub.w	r0, r1, #1024	; 0x400
 8003aec:	f7fc fb4c 	bl	8000188 <memcpy>
 8003af0:	4846      	ldr	r0, [pc, #280]	; (8003c0c <waveCompute+0x11b8>)
 8003af2:	f44f 6280 	mov.w	r2, #1024	; 0x400
 8003af6:	2100      	movs	r1, #0
 8003af8:	f00a ff1c 	bl	800e934 <memset>
 8003afc:	ed9d 0a00 	vldr	s0, [sp]
 8003b00:	2300      	movs	r3, #0
 8003b02:	f7ff bb6b 	b.w	80031dc <waveCompute+0x788>
 8003b06:	f44f 7290 	mov.w	r2, #288	; 0x120
 8003b0a:	f205 4124 	addw	r1, r5, #1060	; 0x424
 8003b0e:	4840      	ldr	r0, [pc, #256]	; (8003c10 <waveCompute+0x11bc>)
 8003b10:	ed8d 0a00 	vstr	s0, [sp]
 8003b14:	f7fc fb38 	bl	8000188 <memcpy>
 8003b18:	483e      	ldr	r0, [pc, #248]	; (8003c14 <waveCompute+0x11c0>)
 8003b1a:	f44f 6280 	mov.w	r2, #1024	; 0x400
 8003b1e:	2100      	movs	r1, #0
 8003b20:	f00a ff08 	bl	800e934 <memset>
 8003b24:	ed9d 0a00 	vldr	s0, [sp]
 8003b28:	2300      	movs	r3, #0
 8003b2a:	f7ff b853 	b.w	8002bd4 <waveCompute+0x180>
 8003b2e:	ed9f 7a2f 	vldr	s14, [pc, #188]	; 8003bec <waveCompute+0x1198>
 8003b32:	ee7a 7a69 	vsub.f32	s15, s20, s19
 8003b36:	eeb6 0a00 	vmov.f32	s0, #96	; 0x3f000000  0.5
 8003b3a:	ee87 ba88 	vdiv.f32	s22, s15, s16
 8003b3e:	ee67 7a87 	vmul.f32	s15, s15, s14
 8003b42:	ee30 ba4b 	vsub.f32	s22, s0, s22
 8003b46:	eec7 baa8 	vdiv.f32	s23, s15, s17
 8003b4a:	ee3b 0ac0 	vsub.f32	s0, s23, s0
 8003b4e:	f009 fc2d 	bl	800d3ac <lrintf>
 8003b52:	eeff 7a00 	vmov.f32	s15, #240	; 0xbf800000 -1.0
 8003b56:	eeb7 7a00 	vmov.f32	s14, #112	; 0x3f800000  1.0
 8003b5a:	ee87 6a88 	vdiv.f32	s12, s15, s16
 8003b5e:	4b2e      	ldr	r3, [pc, #184]	; (8003c18 <waveCompute+0x11c4>)
 8003b60:	f108 0246 	add.w	r2, r8, #70	; 0x46
 8003b64:	eb05 0582 	add.w	r5, r5, r2, lsl #2
 8003b68:	eec7 7a29 	vdiv.f32	s15, s14, s19
 8003b6c:	ee07 0a10 	vmov	s14, r0
 8003b70:	ee36 6a67 	vsub.f32	s12, s12, s15
 8003b74:	eef8 5ac7 	vcvt.f32.s32	s11, s14
 8003b78:	f000 003f 	and.w	r0, r0, #63	; 0x3f
 8003b7c:	ee7b 5ae5 	vsub.f32	s11, s23, s11
 8003b80:	ee26 6a28 	vmul.f32	s12, s12, s17
 8003b84:	eb03 0380 	add.w	r3, r3, r0, lsl #2
 8003b88:	ed93 7a00 	vldr	s14, [r3]
 8003b8c:	edd3 7a01 	vldr	s15, [r3, #4]
 8003b90:	edd6 6a00 	vldr	s13, [r6]
 8003b94:	ee77 7ac7 	vsub.f32	s15, s15, s14
 8003b98:	f503 7380 	add.w	r3, r3, #256	; 0x100
 8003b9c:	ee67 7aa5 	vmul.f32	s15, s15, s11
 8003ba0:	ee77 7a87 	vadd.f32	s15, s15, s14
 8003ba4:	ee67 7a86 	vmul.f32	s15, s15, s12
 8003ba8:	ee77 7aa6 	vadd.f32	s15, s15, s13
 8003bac:	ece6 7a01 	vstmia	r6!, {s15}
 8003bb0:	42b5      	cmp	r5, r6
 8003bb2:	d1e9      	bne.n	8003b88 <waveCompute+0x1134>
 8003bb4:	2501      	movs	r5, #1
 8003bb6:	f7ff b9f3 	b.w	8002fa0 <waveCompute+0x54c>
 8003bba:	eddf 7a18 	vldr	s15, [pc, #96]	; 8003c1c <waveCompute+0x11c8>
 8003bbe:	ee67 7a27 	vmul.f32	s15, s14, s15
 8003bc2:	eef0 6a08 	vmov.f32	s13, #8	; 0x40400000  3.0
 8003bc6:	ee77 7ae6 	vsub.f32	s15, s15, s13
 8003bca:	e62a      	b.n	8003822 <waveCompute+0xdce>
 8003bcc:	eeb0 8a00 	vmov.f32	s16, #0	; 0x40000000  2.0
 8003bd0:	ee76 6ac8 	vsub.f32	s13, s13, s16
 8003bd4:	eebe 6a00 	vmov.f32	s12, #224	; 0xbf000000 -0.5
 8003bd8:	ee26 8aa7 	vmul.f32	s16, s13, s15
 8003bdc:	ee28 8a26 	vmul.f32	s16, s16, s13
 8003be0:	ee28 0a06 	vmul.f32	s0, s16, s12
 8003be4:	f7ff b84d 	b.w	8002c82 <waveCompute+0x22e>
 8003be8:	10000868 	.word	0x10000868
 8003bec:	42800000 	.word	0x42800000
 8003bf0:	100002dc 	.word	0x100002dc
 8003bf4:	3f7fff58 	.word	0x3f7fff58
 8003bf8:	08014b58 	.word	0x08014b58
 8003bfc:	10000db8 	.word	0x10000db8
 8003c00:	10000708 	.word	0x10000708
 8003c04:	10000428 	.word	0x10000428
 8003c08:	10000c64 	.word	0x10000c64
 8003c0c:	10000984 	.word	0x10000984
 8003c10:	10000db4 	.word	0x10000db4
 8003c14:	10000ed4 	.word	0x10000ed4
 8003c18:	08010454 	.word	0x08010454
 8003c1c:	3f22f983 	.word	0x3f22f983
 8003c20:	42800000 	.word	0x42800000
 8003c24:	ed1f 7a02 	vldr	s14, [pc, #-8]	; 8003c20 <waveCompute+0x11cc>
 8003c28:	ee7a 7ae9 	vsub.f32	s15, s21, s19
 8003c2c:	eeb6 0a00 	vmov.f32	s0, #96	; 0x3f000000  0.5
 8003c30:	ee67 7a87 	vmul.f32	s15, s15, s14
 8003c34:	ee87 8aa8 	vdiv.f32	s16, s15, s17
 8003c38:	ee38 0a40 	vsub.f32	s0, s16, s0
 8003c3c:	f009 fbb6 	bl	800d3ac <lrintf>
 8003c40:	ee07 0a90 	vmov	s15, r0
 8003c44:	4bed      	ldr	r3, [pc, #948]	; (8003ffc <waveCompute+0x15a8>)
 8003c46:	49ee      	ldr	r1, [pc, #952]	; (8004000 <waveCompute+0x15ac>)
 8003c48:	eeb8 6ae7 	vcvt.f32.s32	s12, s15
 8003c4c:	f000 003f 	and.w	r0, r0, #63	; 0x3f
 8003c50:	eb03 03c0 	add.w	r3, r3, r0, lsl #3
 8003c54:	ee38 6a46 	vsub.f32	s12, s16, s12
 8003c58:	f106 0047 	add.w	r0, r6, #71	; 0x47
 8003c5c:	eb05 0289 	add.w	r2, r5, r9, lsl #2
 8003c60:	eb01 0180 	add.w	r1, r1, r0, lsl #2
 8003c64:	ed93 7a01 	vldr	s14, [r3, #4]
 8003c68:	edd3 6a00 	vldr	s13, [r3]
 8003c6c:	edd2 7a00 	vldr	s15, [r2]
 8003c70:	ee26 7a07 	vmul.f32	s14, s12, s14
 8003c74:	f503 7300 	add.w	r3, r3, #512	; 0x200
 8003c78:	ee37 7a26 	vadd.f32	s14, s14, s13
 8003c7c:	ee37 7ac7 	vsub.f32	s14, s15, s14
 8003c80:	eca2 7a01 	vstmia	r2!, {s14}
 8003c84:	4291      	cmp	r1, r2
 8003c86:	d1ed      	bne.n	8003c64 <waveCompute+0x1210>
 8003c88:	eebe ba00 	vmov.f32	s22, #224	; 0xbf000000 -0.5
 8003c8c:	f04f 0801 	mov.w	r8, #1
 8003c90:	f7ff ba81 	b.w	8003196 <waveCompute+0x742>
 8003c94:	eeb0 7a65 	vmov.f32	s14, s11
 8003c98:	eeb0 6a65 	vmov.f32	s12, s11
 8003c9c:	e505      	b.n	80036aa <waveCompute+0xc56>
 8003c9e:	ed9f 6ad9 	vldr	s12, [pc, #868]	; 8004004 <waveCompute+0x15b0>
 8003ca2:	eddf bad9 	vldr	s23, [pc, #868]	; 8004008 <waveCompute+0x15b4>
 8003ca6:	eef0 9a47 	vmov.f32	s19, s14
 8003caa:	e4c2      	b.n	8003632 <waveCompute+0xbde>
 8003cac:	eddf 5ad5 	vldr	s11, [pc, #852]	; 8004004 <waveCompute+0x15b0>
 8003cb0:	eeb0 6a47 	vmov.f32	s12, s14
 8003cb4:	e4f9      	b.n	80036aa <waveCompute+0xc56>
 8003cb6:	eef5 ba00 	vmov.f32	s23, #80	; 0x3e800000  0.250
 8003cba:	eeb0 7a46 	vmov.f32	s14, s12
 8003cbe:	eef0 9a46 	vmov.f32	s19, s12
 8003cc2:	e4b6      	b.n	8003632 <waveCompute+0xbde>
 8003cc4:	ee78 aa6a 	vsub.f32	s21, s16, s21
 8003cc8:	eddf 6ad3 	vldr	s13, [pc, #844]	; 8004018 <waveCompute+0x15c4>
 8003ccc:	f8df 832c 	ldr.w	r8, [pc, #812]	; 8003ffc <waveCompute+0x15a8>
 8003cd0:	ee6a 6aa6 	vmul.f32	s13, s21, s13
 8003cd4:	eeca 7aa8 	vdiv.f32	s15, s21, s17
 8003cd8:	f106 090c 	add.w	r9, r6, #12
 8003cdc:	eb05 0a89 	add.w	sl, r5, r9, lsl #2
 8003ce0:	f106 0b47 	add.w	fp, r6, #71	; 0x47
 8003ce4:	ee86 8aa8 	vdiv.f32	s16, s13, s17
 8003ce8:	ee37 7a87 	vadd.f32	s14, s15, s14
 8003cec:	eeb6 0a00 	vmov.f32	s0, #96	; 0x3f000000  0.5
 8003cf0:	ee38 0a40 	vsub.f32	s0, s16, s0
 8003cf4:	ed85 7a06 	vstr	s14, [r5, #24]
 8003cf8:	f009 fb58 	bl	800d3ac <lrintf>
 8003cfc:	ee07 0a90 	vmov	s15, r0
 8003d00:	eeb8 6ae7 	vcvt.f32.s32	s12, s15
 8003d04:	4abe      	ldr	r2, [pc, #760]	; (8004000 <waveCompute+0x15ac>)
 8003d06:	f000 033f 	and.w	r3, r0, #63	; 0x3f
 8003d0a:	ee38 6a46 	vsub.f32	s12, s16, s12
 8003d0e:	eb02 0b8b 	add.w	fp, r2, fp, lsl #2
 8003d12:	eb08 03c3 	add.w	r3, r8, r3, lsl #3
 8003d16:	4652      	mov	r2, sl
 8003d18:	edd3 7a01 	vldr	s15, [r3, #4]
 8003d1c:	edd3 6a00 	vldr	s13, [r3]
 8003d20:	ed92 7a00 	vldr	s14, [r2]
 8003d24:	ee66 7a27 	vmul.f32	s15, s12, s15
 8003d28:	f503 7300 	add.w	r3, r3, #512	; 0x200
 8003d2c:	ee77 7aa6 	vadd.f32	s15, s15, s13
 8003d30:	ee77 7a87 	vadd.f32	s15, s15, s14
 8003d34:	ece2 7a01 	vstmia	r2!, {s15}
 8003d38:	4593      	cmp	fp, r2
 8003d3a:	d1ed      	bne.n	8003d18 <waveCompute+0x12c4>
 8003d3c:	eef4 9aea 	vcmpe.f32	s19, s21
 8003d40:	eef1 fa10 	vmrs	APSR_nzcv, fpscr
 8003d44:	f240 8370 	bls.w	8004428 <waveCompute+0x19d4>
 8003d48:	eeb6 ba00 	vmov.f32	s22, #96	; 0x3f000000  0.5
 8003d4c:	f04f 0800 	mov.w	r8, #0
 8003d50:	f7ff ba23 	b.w	800319a <waveCompute+0x746>
 8003d54:	ee38 8a67 	vsub.f32	s16, s16, s15
 8003d58:	ed9f 7aaf 	vldr	s14, [pc, #700]	; 8004018 <waveCompute+0x15c4>
 8003d5c:	f8df 829c 	ldr.w	r8, [pc, #668]	; 8003ffc <waveCompute+0x15a8>
 8003d60:	ee7a 7a88 	vadd.f32	s15, s21, s16
 8003d64:	eeb6 0a00 	vmov.f32	s0, #96	; 0x3f000000  0.5
 8003d68:	ee67 7a87 	vmul.f32	s15, s15, s14
 8003d6c:	f106 090c 	add.w	r9, r6, #12
 8003d70:	ee87 baa8 	vdiv.f32	s22, s15, s17
 8003d74:	eb05 0a89 	add.w	sl, r5, r9, lsl #2
 8003d78:	f106 0b47 	add.w	fp, r6, #71	; 0x47
 8003d7c:	ee3b 0a40 	vsub.f32	s0, s22, s0
 8003d80:	f009 fb14 	bl	800d3ac <lrintf>
 8003d84:	ee07 0a90 	vmov	s15, r0
 8003d88:	eeb8 6ae7 	vcvt.f32.s32	s12, s15
 8003d8c:	4a9c      	ldr	r2, [pc, #624]	; (8004000 <waveCompute+0x15ac>)
 8003d8e:	f000 033f 	and.w	r3, r0, #63	; 0x3f
 8003d92:	ee3b 6a46 	vsub.f32	s12, s22, s12
 8003d96:	eb08 03c3 	add.w	r3, r8, r3, lsl #3
 8003d9a:	eb02 018b 	add.w	r1, r2, fp, lsl #2
 8003d9e:	4650      	mov	r0, sl
 8003da0:	edd3 7a01 	vldr	s15, [r3, #4]
 8003da4:	edd3 6a00 	vldr	s13, [r3]
 8003da8:	ed90 7a00 	vldr	s14, [r0]
 8003dac:	ee66 7a27 	vmul.f32	s15, s12, s15
 8003db0:	f503 7300 	add.w	r3, r3, #512	; 0x200
 8003db4:	ee77 7aa6 	vadd.f32	s15, s15, s13
 8003db8:	ee77 7a87 	vadd.f32	s15, s15, s14
 8003dbc:	ece0 7a01 	vstmia	r0!, {s15}
 8003dc0:	4281      	cmp	r1, r0
 8003dc2:	d1ed      	bne.n	8003da0 <waveCompute+0x134c>
 8003dc4:	eef4 9ac8 	vcmpe.f32	s19, s16
 8003dc8:	eef1 fa10 	vmrs	APSR_nzcv, fpscr
 8003dcc:	f63f ad6a 	bhi.w	80038a4 <waveCompute+0xe50>
 8003dd0:	ee78 7a69 	vsub.f32	s15, s16, s19
 8003dd4:	ed9f 7a90 	vldr	s14, [pc, #576]	; 8004018 <waveCompute+0x15c4>
 8003dd8:	ee77 7aaa 	vadd.f32	s15, s15, s21
 8003ddc:	eeb6 0a00 	vmov.f32	s0, #96	; 0x3f000000  0.5
 8003de0:	ee67 7a87 	vmul.f32	s15, s15, s14
 8003de4:	e9cd 1200 	strd	r1, r2, [sp]
 8003de8:	ee87 8aa8 	vdiv.f32	s16, s15, s17
 8003dec:	ee38 0a40 	vsub.f32	s0, s16, s0
 8003df0:	f009 fadc 	bl	800d3ac <lrintf>
 8003df4:	ee07 0a90 	vmov	s15, r0
 8003df8:	eeb8 6ae7 	vcvt.f32.s32	s12, s15
 8003dfc:	e9dd 1200 	ldrd	r1, r2, [sp]
 8003e00:	f000 033f 	and.w	r3, r0, #63	; 0x3f
 8003e04:	ee38 6a46 	vsub.f32	s12, s16, s12
 8003e08:	eb08 03c3 	add.w	r3, r8, r3, lsl #3
 8003e0c:	edd3 7a01 	vldr	s15, [r3, #4]
 8003e10:	edd3 6a00 	vldr	s13, [r3]
 8003e14:	ed9a 7a00 	vldr	s14, [sl]
 8003e18:	ee66 7a27 	vmul.f32	s15, s12, s15
 8003e1c:	f503 7300 	add.w	r3, r3, #512	; 0x200
 8003e20:	ee77 7aa6 	vadd.f32	s15, s15, s13
 8003e24:	ee77 7a67 	vsub.f32	s15, s14, s15
 8003e28:	ecea 7a01 	vstmia	sl!, {s15}
 8003e2c:	4551      	cmp	r1, sl
 8003e2e:	d1ed      	bne.n	8003e0c <waveCompute+0x13b8>
 8003e30:	e50a      	b.n	8003848 <waveCompute+0xdf4>
 8003e32:	ee3b aacc 	vsub.f32	s20, s23, s24
 8003e36:	ed9f 7a78 	vldr	s14, [pc, #480]	; 8004018 <waveCompute+0x15c4>
 8003e3a:	ee2a 7a07 	vmul.f32	s14, s20, s14
 8003e3e:	eeca 7a28 	vdiv.f32	s15, s20, s17
 8003e42:	eec7 aa28 	vdiv.f32	s21, s14, s17
 8003e46:	ee8a ba29 	vdiv.f32	s22, s20, s19
 8003e4a:	ed9f 7a70 	vldr	s14, [pc, #448]	; 800400c <waveCompute+0x15b8>
 8003e4e:	eeb6 0a00 	vmov.f32	s0, #96	; 0x3f000000  0.5
 8003e52:	ee77 7a87 	vadd.f32	s15, s15, s14
 8003e56:	ee3b ba40 	vsub.f32	s22, s22, s0
 8003e5a:	ee3a 0ac0 	vsub.f32	s0, s21, s0
 8003e5e:	edc4 7abd 	vstr	s15, [r4, #756]	; 0x2f4
 8003e62:	f009 faa3 	bl	800d3ac <lrintf>
 8003e66:	ee8c 6a29 	vdiv.f32	s12, s24, s19
 8003e6a:	4969      	ldr	r1, [pc, #420]	; (8004010 <waveCompute+0x15bc>)
 8003e6c:	4a69      	ldr	r2, [pc, #420]	; (8004014 <waveCompute+0x15c0>)
 8003e6e:	f108 030b 	add.w	r3, r8, #11
 8003e72:	eb01 0383 	add.w	r3, r1, r3, lsl #2
 8003e76:	eb01 0188 	add.w	r1, r1, r8, lsl #2
 8003e7a:	f501 71a4 	add.w	r1, r1, #328	; 0x148
 8003e7e:	eecc 7a08 	vdiv.f32	s15, s24, s16
 8003e82:	ee07 0a10 	vmov	s14, r0
 8003e86:	ee36 6a27 	vadd.f32	s12, s12, s15
 8003e8a:	eef8 5ac7 	vcvt.f32.s32	s11, s14
 8003e8e:	f000 003f 	and.w	r0, r0, #63	; 0x3f
 8003e92:	ee7a 5ae5 	vsub.f32	s11, s21, s11
 8003e96:	ee26 6a28 	vmul.f32	s12, s12, s17
 8003e9a:	eb02 0280 	add.w	r2, r2, r0, lsl #2
 8003e9e:	edd2 7a00 	vldr	s15, [r2]
 8003ea2:	ed92 7a01 	vldr	s14, [r2, #4]
 8003ea6:	edd3 6a00 	vldr	s13, [r3]
 8003eaa:	ee37 7a67 	vsub.f32	s14, s14, s15
 8003eae:	f502 7280 	add.w	r2, r2, #256	; 0x100
 8003eb2:	ee27 7a25 	vmul.f32	s14, s14, s11
 8003eb6:	ee37 7a27 	vadd.f32	s14, s14, s15
 8003eba:	ee27 7a06 	vmul.f32	s14, s14, s12
 8003ebe:	ee37 7a26 	vadd.f32	s14, s14, s13
 8003ec2:	eca3 7a01 	vstmia	r3!, {s14}
 8003ec6:	4299      	cmp	r1, r3
 8003ec8:	d1e9      	bne.n	8003e9e <waveCompute+0x144a>
 8003eca:	f7ff b86b 	b.w	8002fa4 <waveCompute+0x550>
 8003ece:	ee3b bacc 	vsub.f32	s22, s23, s24
 8003ed2:	ed9f 7a51 	vldr	s14, [pc, #324]	; 8004018 <waveCompute+0x15c4>
 8003ed6:	4e4e      	ldr	r6, [pc, #312]	; (8004010 <waveCompute+0x15bc>)
 8003ed8:	f8df b138 	ldr.w	fp, [pc, #312]	; 8004014 <waveCompute+0x15c0>
 8003edc:	ee7a 7a0b 	vadd.f32	s15, s20, s22
 8003ee0:	eecb ba29 	vdiv.f32	s23, s22, s19
 8003ee4:	f108 090b 	add.w	r9, r8, #11
 8003ee8:	eb06 0289 	add.w	r2, r6, r9, lsl #2
 8003eec:	9200      	str	r2, [sp, #0]
 8003eee:	f108 0a46 	add.w	sl, r8, #70	; 0x46
 8003ef2:	f106 0530 	add.w	r5, r6, #48	; 0x30
 8003ef6:	ee67 7a87 	vmul.f32	s15, s15, s14
 8003efa:	eeb6 0a00 	vmov.f32	s0, #96	; 0x3f000000  0.5
 8003efe:	ee87 caa8 	vdiv.f32	s24, s15, s17
 8003f02:	ee7b bac0 	vsub.f32	s23, s23, s0
 8003f06:	ee3c 0a40 	vsub.f32	s0, s24, s0
 8003f0a:	f009 fa4f 	bl	800d3ac <lrintf>
 8003f0e:	ee07 0a90 	vmov	s15, r0
 8003f12:	eeb8 6ae7 	vcvt.f32.s32	s12, s15
 8003f16:	9a00      	ldr	r2, [sp, #0]
 8003f18:	f000 033f 	and.w	r3, r0, #63	; 0x3f
 8003f1c:	ee3c 6a46 	vsub.f32	s12, s24, s12
 8003f20:	ee28 caac 	vmul.f32	s24, s17, s25
 8003f24:	eb0b 0383 	add.w	r3, fp, r3, lsl #2
 8003f28:	eb05 018a 	add.w	r1, r5, sl, lsl #2
 8003f2c:	4610      	mov	r0, r2
 8003f2e:	ed93 7a00 	vldr	s14, [r3]
 8003f32:	edd3 7a01 	vldr	s15, [r3, #4]
 8003f36:	edd0 6a00 	vldr	s13, [r0]
 8003f3a:	ee77 7ac7 	vsub.f32	s15, s15, s14
 8003f3e:	f503 7380 	add.w	r3, r3, #256	; 0x100
 8003f42:	ee67 7a86 	vmul.f32	s15, s15, s12
 8003f46:	ee77 7a87 	vadd.f32	s15, s15, s14
 8003f4a:	ee67 7a8c 	vmul.f32	s15, s15, s24
 8003f4e:	ee77 7aa6 	vadd.f32	s15, s15, s13
 8003f52:	ece0 7a01 	vstmia	r0!, {s15}
 8003f56:	4281      	cmp	r1, r0
 8003f58:	d1e9      	bne.n	8003f2e <waveCompute+0x14da>
 8003f5a:	eef4 9acb 	vcmpe.f32	s19, s22
 8003f5e:	eef1 fa10 	vmrs	APSR_nzcv, fpscr
 8003f62:	f240 8291 	bls.w	8004488 <waveCompute+0x1a34>
 8003f66:	eddf 7a2c 	vldr	s15, [pc, #176]	; 8004018 <waveCompute+0x15c4>
 8003f6a:	ee6a 7a27 	vmul.f32	s15, s20, s15
 8003f6e:	eeb6 0a00 	vmov.f32	s0, #96	; 0x3f000000  0.5
 8003f72:	eec7 caa8 	vdiv.f32	s25, s15, s17
 8003f76:	ee3c 0ac0 	vsub.f32	s0, s25, s0
 8003f7a:	f7fe bfd8 	b.w	8002f2e <waveCompute+0x4da>
 8003f7e:	ee78 aa6a 	vsub.f32	s21, s16, s21
 8003f82:	ed9f 7a25 	vldr	s14, [pc, #148]	; 8004018 <waveCompute+0x15c4>
 8003f86:	eddf 6a21 	vldr	s13, [pc, #132]	; 800400c <waveCompute+0x15b8>
 8003f8a:	ee2a 7a87 	vmul.f32	s14, s21, s14
 8003f8e:	eeca 7aa8 	vdiv.f32	s15, s21, s17
 8003f92:	ee87 8a28 	vdiv.f32	s16, s14, s17
 8003f96:	ee77 7aa6 	vadd.f32	s15, s15, s13
 8003f9a:	eeb6 0a00 	vmov.f32	s0, #96	; 0x3f000000  0.5
 8003f9e:	ee38 0a40 	vsub.f32	s0, s16, s0
 8003fa2:	edc5 7a06 	vstr	s15, [r5, #24]
 8003fa6:	f009 fa01 	bl	800d3ac <lrintf>
 8003faa:	ee07 0a90 	vmov	s15, r0
 8003fae:	eeb8 6ae7 	vcvt.f32.s32	s12, s15
 8003fb2:	4b12      	ldr	r3, [pc, #72]	; (8003ffc <waveCompute+0x15a8>)
 8003fb4:	4912      	ldr	r1, [pc, #72]	; (8004000 <waveCompute+0x15ac>)
 8003fb6:	f106 0247 	add.w	r2, r6, #71	; 0x47
 8003fba:	f000 003f 	and.w	r0, r0, #63	; 0x3f
 8003fbe:	ee38 6a46 	vsub.f32	s12, s16, s12
 8003fc2:	eb01 0182 	add.w	r1, r1, r2, lsl #2
 8003fc6:	eb03 03c0 	add.w	r3, r3, r0, lsl #3
 8003fca:	eb05 0289 	add.w	r2, r5, r9, lsl #2
 8003fce:	edd3 7a01 	vldr	s15, [r3, #4]
 8003fd2:	edd3 6a00 	vldr	s13, [r3]
 8003fd6:	ed92 7a00 	vldr	s14, [r2]
 8003fda:	ee66 7a27 	vmul.f32	s15, s12, s15
 8003fde:	f503 7300 	add.w	r3, r3, #512	; 0x200
 8003fe2:	ee77 7aa6 	vadd.f32	s15, s15, s13
 8003fe6:	ee77 7a87 	vadd.f32	s15, s15, s14
 8003fea:	ece2 7a01 	vstmia	r2!, {s15}
 8003fee:	4291      	cmp	r1, r2
 8003ff0:	d1ed      	bne.n	8003fce <waveCompute+0x157a>
 8003ff2:	eeb6 ba00 	vmov.f32	s22, #96	; 0x3f000000  0.5
 8003ff6:	f7ff b8d0 	b.w	800319a <waveCompute+0x746>
 8003ffa:	bf00      	nop
 8003ffc:	08014b58 	.word	0x08014b58
 8004000:	10000868 	.word	0x10000868
 8004004:	3f7fff58 	.word	0x3f7fff58
 8004008:	36a7c5ac 	.word	0x36a7c5ac
 800400c:	1e3ce508 	.word	0x1e3ce508
 8004010:	100002dc 	.word	0x100002dc
 8004014:	08010454 	.word	0x08010454
 8004018:	42800000 	.word	0x42800000
 800401c:	ee3b aacc 	vsub.f32	s20, s23, s24
 8004020:	ed5f 6a03 	vldr	s13, [pc, #-12]	; 8004018 <waveCompute+0x15c4>
 8004024:	f8df b3ec 	ldr.w	fp, [pc, #1004]	; 8004414 <waveCompute+0x19c0>
 8004028:	ee6a 6a26 	vmul.f32	s13, s20, s13
 800402c:	ee8a 7a28 	vdiv.f32	s14, s20, s17
 8004030:	f108 050b 	add.w	r5, r8, #11
 8004034:	eec6 baa8 	vdiv.f32	s23, s13, s17
 8004038:	ee8a ba29 	vdiv.f32	s22, s20, s19
 800403c:	ee77 7a27 	vadd.f32	s15, s14, s15
 8004040:	eeb6 0a00 	vmov.f32	s0, #96	; 0x3f000000  0.5
 8004044:	ee3b ba40 	vsub.f32	s22, s22, s0
 8004048:	ee3b 0ac0 	vsub.f32	s0, s23, s0
 800404c:	edc4 7abd 	vstr	s15, [r4, #756]	; 0x2f4
 8004050:	eecc aa29 	vdiv.f32	s21, s24, s19
 8004054:	f009 f9aa 	bl	800d3ac <lrintf>
 8004058:	4aea      	ldr	r2, [pc, #936]	; (8004404 <waveCompute+0x19b0>)
 800405a:	f000 033f 	and.w	r3, r0, #63	; 0x3f
 800405e:	eb02 0585 	add.w	r5, r2, r5, lsl #2
 8004062:	eb02 0288 	add.w	r2, r2, r8, lsl #2
 8004066:	f502 76a4 	add.w	r6, r2, #328	; 0x148
 800406a:	eb0b 0383 	add.w	r3, fp, r3, lsl #2
 800406e:	462a      	mov	r2, r5
 8004070:	ee8c 6a08 	vdiv.f32	s12, s24, s16
 8004074:	ee07 0a90 	vmov	s15, r0
 8004078:	ee36 6a2a 	vadd.f32	s12, s12, s21
 800407c:	eef8 5ae7 	vcvt.f32.s32	s11, s15
 8004080:	ee26 6a28 	vmul.f32	s12, s12, s17
 8004084:	ee7b 5ae5 	vsub.f32	s11, s23, s11
 8004088:	edd3 7a00 	vldr	s15, [r3]
 800408c:	ed93 7a01 	vldr	s14, [r3, #4]
 8004090:	edd2 6a00 	vldr	s13, [r2]
 8004094:	ee37 7a67 	vsub.f32	s14, s14, s15
 8004098:	f503 7380 	add.w	r3, r3, #256	; 0x100
 800409c:	ee27 7a25 	vmul.f32	s14, s14, s11
 80040a0:	ee37 7a27 	vadd.f32	s14, s14, s15
 80040a4:	ee27 7a06 	vmul.f32	s14, s14, s12
 80040a8:	ee37 7a26 	vadd.f32	s14, s14, s13
 80040ac:	eca2 7a01 	vstmia	r2!, {s14}
 80040b0:	4296      	cmp	r6, r2
 80040b2:	d1e9      	bne.n	8004088 <waveCompute+0x1634>
 80040b4:	eef4 9aca 	vcmpe.f32	s19, s20
 80040b8:	eef1 fa10 	vmrs	APSR_nzcv, fpscr
 80040bc:	f240 8226 	bls.w	800450c <waveCompute+0x1ab8>
 80040c0:	2500      	movs	r5, #0
 80040c2:	f7fe bf6f 	b.w	8002fa4 <waveCompute+0x550>
 80040c6:	ed9f 7ad0 	vldr	s14, [pc, #832]	; 8004408 <waveCompute+0x19b4>
 80040ca:	ee78 7a69 	vsub.f32	s15, s16, s19
 80040ce:	eeb6 0a00 	vmov.f32	s0, #96	; 0x3f000000  0.5
 80040d2:	ee67 7a87 	vmul.f32	s15, s15, s14
 80040d6:	f106 090c 	add.w	r9, r6, #12
 80040da:	ee87 9aa8 	vdiv.f32	s18, s15, s17
 80040de:	ee39 0a40 	vsub.f32	s0, s18, s0
 80040e2:	f009 f963 	bl	800d3ac <lrintf>
 80040e6:	ee07 0a90 	vmov	s15, r0
 80040ea:	eeb8 6ae7 	vcvt.f32.s32	s12, s15
 80040ee:	4bc7      	ldr	r3, [pc, #796]	; (800440c <waveCompute+0x19b8>)
 80040f0:	49c7      	ldr	r1, [pc, #796]	; (8004410 <waveCompute+0x19bc>)
 80040f2:	f106 0247 	add.w	r2, r6, #71	; 0x47
 80040f6:	f000 003f 	and.w	r0, r0, #63	; 0x3f
 80040fa:	ee39 6a46 	vsub.f32	s12, s18, s12
 80040fe:	eb01 0182 	add.w	r1, r1, r2, lsl #2
 8004102:	eb03 03c0 	add.w	r3, r3, r0, lsl #3
 8004106:	eb05 0289 	add.w	r2, r5, r9, lsl #2
 800410a:	edd3 7a01 	vldr	s15, [r3, #4]
 800410e:	edd3 6a00 	vldr	s13, [r3]
 8004112:	ed92 7a00 	vldr	s14, [r2]
 8004116:	ee66 7a27 	vmul.f32	s15, s12, s15
 800411a:	f503 7300 	add.w	r3, r3, #512	; 0x200
 800411e:	ee77 7aa6 	vadd.f32	s15, s15, s13
 8004122:	ee77 7a67 	vsub.f32	s15, s14, s15
 8004126:	ece2 7a01 	vstmia	r2!, {s15}
 800412a:	4291      	cmp	r1, r2
 800412c:	d1ed      	bne.n	800410a <waveCompute+0x16b6>
 800412e:	eebe ba00 	vmov.f32	s22, #224	; 0xbf000000 -0.5
 8004132:	2301      	movs	r3, #1
 8004134:	f7ff bb32 	b.w	800379c <waveCompute+0xd48>
 8004138:	ed9f 7ab3 	vldr	s14, [pc, #716]	; 8004408 <waveCompute+0x19b4>
 800413c:	ee7b 7ae9 	vsub.f32	s15, s23, s19
 8004140:	eeb6 0a00 	vmov.f32	s0, #96	; 0x3f000000  0.5
 8004144:	ee87 ba88 	vdiv.f32	s22, s15, s16
 8004148:	ee67 7a87 	vmul.f32	s15, s15, s14
 800414c:	ee30 ba4b 	vsub.f32	s22, s0, s22
 8004150:	ee87 aaa8 	vdiv.f32	s20, s15, s17
 8004154:	ee3a 0a40 	vsub.f32	s0, s20, s0
 8004158:	f009 f928 	bl	800d3ac <lrintf>
 800415c:	eeff 7a00 	vmov.f32	s15, #240	; 0xbf800000 -1.0
 8004160:	ee87 6a88 	vdiv.f32	s12, s15, s16
 8004164:	49a7      	ldr	r1, [pc, #668]	; (8004404 <waveCompute+0x19b0>)
 8004166:	4aab      	ldr	r2, [pc, #684]	; (8004414 <waveCompute+0x19c0>)
 8004168:	f108 030b 	add.w	r3, r8, #11
 800416c:	eb01 0383 	add.w	r3, r1, r3, lsl #2
 8004170:	eb01 0188 	add.w	r1, r1, r8, lsl #2
 8004174:	f501 71a4 	add.w	r1, r1, #328	; 0x148
 8004178:	eecc 7a29 	vdiv.f32	s15, s24, s19
 800417c:	ee07 0a10 	vmov	s14, r0
 8004180:	ee36 6a67 	vsub.f32	s12, s12, s15
 8004184:	eef8 5ac7 	vcvt.f32.s32	s11, s14
 8004188:	f000 003f 	and.w	r0, r0, #63	; 0x3f
 800418c:	ee7a 5a65 	vsub.f32	s11, s20, s11
 8004190:	ee26 6a28 	vmul.f32	s12, s12, s17
 8004194:	eb02 0280 	add.w	r2, r2, r0, lsl #2
 8004198:	ed92 7a00 	vldr	s14, [r2]
 800419c:	edd2 7a01 	vldr	s15, [r2, #4]
 80041a0:	edd3 6a00 	vldr	s13, [r3]
 80041a4:	ee77 7ac7 	vsub.f32	s15, s15, s14
 80041a8:	f502 7280 	add.w	r2, r2, #256	; 0x100
 80041ac:	ee67 7aa5 	vmul.f32	s15, s15, s11
 80041b0:	ee77 7a87 	vadd.f32	s15, s15, s14
 80041b4:	ee67 7a86 	vmul.f32	s15, s15, s12
 80041b8:	ee77 7aa6 	vadd.f32	s15, s15, s13
 80041bc:	ece3 7a01 	vstmia	r3!, {s15}
 80041c0:	4299      	cmp	r1, r3
 80041c2:	d1e9      	bne.n	8004198 <waveCompute+0x1744>
 80041c4:	2301      	movs	r3, #1
 80041c6:	f7ff bacd 	b.w	8003764 <waveCompute+0xd10>
 80041ca:	ee3b dae9 	vsub.f32	s26, s23, s19
 80041ce:	ed9f 7a8e 	vldr	s14, [pc, #568]	; 8004408 <waveCompute+0x19b4>
 80041d2:	4e8c      	ldr	r6, [pc, #560]	; (8004404 <waveCompute+0x19b0>)
 80041d4:	f8df b23c 	ldr.w	fp, [pc, #572]	; 8004414 <waveCompute+0x19c0>
 80041d8:	ee7a 7a0d 	vadd.f32	s15, s20, s26
 80041dc:	eeb6 0a00 	vmov.f32	s0, #96	; 0x3f000000  0.5
 80041e0:	ee67 7a87 	vmul.f32	s15, s15, s14
 80041e4:	eecc ca29 	vdiv.f32	s25, s24, s19
 80041e8:	f108 090b 	add.w	r9, r8, #11
 80041ec:	f108 0a46 	add.w	sl, r8, #70	; 0x46
 80041f0:	f106 0530 	add.w	r5, r6, #48	; 0x30
 80041f4:	ee87 baa8 	vdiv.f32	s22, s15, s17
 80041f8:	ee3b 0a40 	vsub.f32	s0, s22, s0
 80041fc:	f009 f8d6 	bl	800d3ac <lrintf>
 8004200:	eeff 7a00 	vmov.f32	s15, #240	; 0xbf800000 -1.0
 8004204:	ee87 6a88 	vdiv.f32	s12, s15, s16
 8004208:	f000 033f 	and.w	r3, r0, #63	; 0x3f
 800420c:	eb06 0289 	add.w	r2, r6, r9, lsl #2
 8004210:	eb0b 0383 	add.w	r3, fp, r3, lsl #2
 8004214:	eb05 018a 	add.w	r1, r5, sl, lsl #2
 8004218:	ee07 0a90 	vmov	s15, r0
 800421c:	ee36 6a6c 	vsub.f32	s12, s12, s25
 8004220:	eef8 5ae7 	vcvt.f32.s32	s11, s15
 8004224:	ee26 6a28 	vmul.f32	s12, s12, s17
 8004228:	ee7b 5a65 	vsub.f32	s11, s22, s11
 800422c:	ed93 7a00 	vldr	s14, [r3]
 8004230:	edd3 7a01 	vldr	s15, [r3, #4]
 8004234:	edd2 6a00 	vldr	s13, [r2]
 8004238:	ee77 7ac7 	vsub.f32	s15, s15, s14
 800423c:	f503 7380 	add.w	r3, r3, #256	; 0x100
 8004240:	ee67 7aa5 	vmul.f32	s15, s15, s11
 8004244:	ee77 7a87 	vadd.f32	s15, s15, s14
 8004248:	ee67 7a86 	vmul.f32	s15, s15, s12
 800424c:	ee77 7aa6 	vadd.f32	s15, s15, s13
 8004250:	ece2 7a01 	vstmia	r2!, {s15}
 8004254:	4291      	cmp	r1, r2
 8004256:	d1e9      	bne.n	800422c <waveCompute+0x17d8>
 8004258:	eef7 7a00 	vmov.f32	s15, #112	; 0x3f800000  1.0
 800425c:	eec7 5a88 	vdiv.f32	s11, s15, s16
 8004260:	eef4 bae7 	vcmpe.f32	s23, s15
 8004264:	eef1 fa10 	vmrs	APSR_nzcv, fpscr
 8004268:	ee75 caac 	vadd.f32	s25, s11, s25
 800426c:	da18      	bge.n	80042a0 <waveCompute+0x184c>
 800426e:	eecd 7a08 	vdiv.f32	s15, s26, s16
 8004272:	eeb6 ba00 	vmov.f32	s22, #96	; 0x3f000000  0.5
 8004276:	ee28 caac 	vmul.f32	s24, s17, s25
 800427a:	ee7b ba67 	vsub.f32	s23, s22, s15
 800427e:	f7ff bb33 	b.w	80038e8 <waveCompute+0xe94>
 8004282:	eecc 5a29 	vdiv.f32	s11, s24, s19
 8004286:	4e5f      	ldr	r6, [pc, #380]	; (8004404 <waveCompute+0x19b0>)
 8004288:	f8df b188 	ldr.w	fp, [pc, #392]	; 8004414 <waveCompute+0x19c0>
 800428c:	f108 090b 	add.w	r9, r8, #11
 8004290:	f108 0a46 	add.w	sl, r8, #70	; 0x46
 8004294:	f106 0530 	add.w	r5, r6, #48	; 0x30
 8004298:	eecc 7a08 	vdiv.f32	s15, s24, s16
 800429c:	ee75 caa7 	vadd.f32	s25, s11, s15
 80042a0:	eef7 7a00 	vmov.f32	s15, #112	; 0x3f800000  1.0
 80042a4:	ee7b bae7 	vsub.f32	s23, s23, s15
 80042a8:	eddf 6a57 	vldr	s13, [pc, #348]	; 8004408 <waveCompute+0x19b4>
 80042ac:	ee7a 7a2b 	vadd.f32	s15, s20, s23
 80042b0:	ee8b 7aa9 	vdiv.f32	s14, s23, s19
 80042b4:	eb05 0a8a 	add.w	sl, r5, sl, lsl #2
 80042b8:	ee67 7aa6 	vmul.f32	s15, s15, s13
 80042bc:	eeb6 0a00 	vmov.f32	s0, #96	; 0x3f000000  0.5
 80042c0:	ee87 baa8 	vdiv.f32	s22, s15, s17
 80042c4:	ee77 ba40 	vsub.f32	s23, s14, s0
 80042c8:	ee3b 0a40 	vsub.f32	s0, s22, s0
 80042cc:	f009 f86e 	bl	800d3ac <lrintf>
 80042d0:	ee07 0a90 	vmov	s15, r0
 80042d4:	eeb8 6ae7 	vcvt.f32.s32	s12, s15
 80042d8:	f000 033f 	and.w	r3, r0, #63	; 0x3f
 80042dc:	ee3b 6a46 	vsub.f32	s12, s22, s12
 80042e0:	ee68 5aac 	vmul.f32	s11, s17, s25
 80042e4:	eb0b 0383 	add.w	r3, fp, r3, lsl #2
 80042e8:	eb06 0289 	add.w	r2, r6, r9, lsl #2
 80042ec:	ed93 7a00 	vldr	s14, [r3]
 80042f0:	edd3 7a01 	vldr	s15, [r3, #4]
 80042f4:	edd2 6a00 	vldr	s13, [r2]
 80042f8:	ee77 7ac7 	vsub.f32	s15, s15, s14
 80042fc:	f503 7380 	add.w	r3, r3, #256	; 0x100
 8004300:	ee67 7a86 	vmul.f32	s15, s15, s12
 8004304:	ee77 7a87 	vadd.f32	s15, s15, s14
 8004308:	ee67 7aa5 	vmul.f32	s15, s15, s11
 800430c:	ee77 7aa6 	vadd.f32	s15, s15, s13
 8004310:	ece2 7a01 	vstmia	r2!, {s15}
 8004314:	4592      	cmp	sl, r2
 8004316:	d1e9      	bne.n	80042ec <waveCompute+0x1898>
 8004318:	e625      	b.n	8003f66 <waveCompute+0x1512>
 800431a:	ee78 7a69 	vsub.f32	s15, s16, s19
 800431e:	ed9f 7a3a 	vldr	s14, [pc, #232]	; 8004408 <waveCompute+0x19b4>
 8004322:	f8df 80e8 	ldr.w	r8, [pc, #232]	; 800440c <waveCompute+0x19b8>
 8004326:	ee77 7aaa 	vadd.f32	s15, s15, s21
 800432a:	eeb6 0a00 	vmov.f32	s0, #96	; 0x3f000000  0.5
 800432e:	ee67 7a87 	vmul.f32	s15, s15, s14
 8004332:	f106 090c 	add.w	r9, r6, #12
 8004336:	ee87 baa8 	vdiv.f32	s22, s15, s17
 800433a:	f106 0b47 	add.w	fp, r6, #71	; 0x47
 800433e:	ee3b 0a40 	vsub.f32	s0, s22, s0
 8004342:	f009 f833 	bl	800d3ac <lrintf>
 8004346:	ee07 0a90 	vmov	s15, r0
 800434a:	eeb8 6ae7 	vcvt.f32.s32	s12, s15
 800434e:	4a30      	ldr	r2, [pc, #192]	; (8004410 <waveCompute+0x19bc>)
 8004350:	f000 033f 	and.w	r3, r0, #63	; 0x3f
 8004354:	ee3b 6a46 	vsub.f32	s12, s22, s12
 8004358:	eb05 0189 	add.w	r1, r5, r9, lsl #2
 800435c:	eb08 03c3 	add.w	r3, r8, r3, lsl #3
 8004360:	eb02 008b 	add.w	r0, r2, fp, lsl #2
 8004364:	edd3 7a01 	vldr	s15, [r3, #4]
 8004368:	edd3 6a00 	vldr	s13, [r3]
 800436c:	ed91 7a00 	vldr	s14, [r1]
 8004370:	ee66 7a27 	vmul.f32	s15, s12, s15
 8004374:	f503 7300 	add.w	r3, r3, #512	; 0x200
 8004378:	ee77 7aa6 	vadd.f32	s15, s15, s13
 800437c:	ee77 7a67 	vsub.f32	s15, s14, s15
 8004380:	ece1 7a01 	vstmia	r1!, {s15}
 8004384:	4288      	cmp	r0, r1
 8004386:	d1ed      	bne.n	8004364 <waveCompute+0x1910>
 8004388:	eef7 7a00 	vmov.f32	s15, #112	; 0x3f800000  1.0
 800438c:	eeb4 8ae7 	vcmpe.f32	s16, s15
 8004390:	eef1 fa10 	vmrs	APSR_nzcv, fpscr
 8004394:	f6ff aa58 	blt.w	8003848 <waveCompute+0xdf4>
 8004398:	eef7 7a00 	vmov.f32	s15, #112	; 0x3f800000  1.0
 800439c:	ee78 7a67 	vsub.f32	s15, s16, s15
 80043a0:	ed9f 7a19 	vldr	s14, [pc, #100]	; 8004408 <waveCompute+0x19b4>
 80043a4:	9200      	str	r2, [sp, #0]
 80043a6:	ee77 7aaa 	vadd.f32	s15, s15, s21
 80043aa:	eeb6 0a00 	vmov.f32	s0, #96	; 0x3f000000  0.5
 80043ae:	ee67 7a87 	vmul.f32	s15, s15, s14
 80043b2:	ee87 8aa8 	vdiv.f32	s16, s15, s17
 80043b6:	ee38 0a40 	vsub.f32	s0, s16, s0
 80043ba:	f008 fff7 	bl	800d3ac <lrintf>
 80043be:	ee07 0a90 	vmov	s15, r0
 80043c2:	eeb8 6ae7 	vcvt.f32.s32	s12, s15
 80043c6:	9a00      	ldr	r2, [sp, #0]
 80043c8:	f000 033f 	and.w	r3, r0, #63	; 0x3f
 80043cc:	ee38 6a46 	vsub.f32	s12, s16, s12
 80043d0:	eb02 0b8b 	add.w	fp, r2, fp, lsl #2
 80043d4:	eb08 03c3 	add.w	r3, r8, r3, lsl #3
 80043d8:	eb05 0289 	add.w	r2, r5, r9, lsl #2
 80043dc:	edd3 7a01 	vldr	s15, [r3, #4]
 80043e0:	edd3 6a00 	vldr	s13, [r3]
 80043e4:	ed92 7a00 	vldr	s14, [r2]
 80043e8:	ee66 7a27 	vmul.f32	s15, s12, s15
 80043ec:	f503 7300 	add.w	r3, r3, #512	; 0x200
 80043f0:	ee77 7aa6 	vadd.f32	s15, s15, s13
 80043f4:	ee77 7a87 	vadd.f32	s15, s15, s14
 80043f8:	ece2 7a01 	vstmia	r2!, {s15}
 80043fc:	4593      	cmp	fp, r2
 80043fe:	d1ed      	bne.n	80043dc <waveCompute+0x1988>
 8004400:	f7ff ba50 	b.w	80038a4 <waveCompute+0xe50>
 8004404:	100002dc 	.word	0x100002dc
 8004408:	42800000 	.word	0x42800000
 800440c:	08014b58 	.word	0x08014b58
 8004410:	10000868 	.word	0x10000868
 8004414:	08010454 	.word	0x08010454
 8004418:	f8df 81bc 	ldr.w	r8, [pc, #444]	; 80045d8 <waveCompute+0x1b84>
 800441c:	4a6b      	ldr	r2, [pc, #428]	; (80045cc <waveCompute+0x1b78>)
 800441e:	f106 090c 	add.w	r9, r6, #12
 8004422:	f106 0b47 	add.w	fp, r6, #71	; 0x47
 8004426:	e7b7      	b.n	8004398 <waveCompute+0x1944>
 8004428:	ed9f 7a69 	vldr	s14, [pc, #420]	; 80045d0 <waveCompute+0x1b7c>
 800442c:	ee7a 7ae9 	vsub.f32	s15, s21, s19
 8004430:	eeb6 0a00 	vmov.f32	s0, #96	; 0x3f000000  0.5
 8004434:	ee67 7a87 	vmul.f32	s15, s15, s14
 8004438:	ee87 8aa8 	vdiv.f32	s16, s15, s17
 800443c:	ee38 0a40 	vsub.f32	s0, s16, s0
 8004440:	f008 ffb4 	bl	800d3ac <lrintf>
 8004444:	ee07 0a90 	vmov	s15, r0
 8004448:	eeb8 6ae7 	vcvt.f32.s32	s12, s15
 800444c:	f000 033f 	and.w	r3, r0, #63	; 0x3f
 8004450:	ee38 6a46 	vsub.f32	s12, s16, s12
 8004454:	eb08 03c3 	add.w	r3, r8, r3, lsl #3
 8004458:	edd3 7a01 	vldr	s15, [r3, #4]
 800445c:	edd3 6a00 	vldr	s13, [r3]
 8004460:	ed9a 7a00 	vldr	s14, [sl]
 8004464:	ee66 7a27 	vmul.f32	s15, s12, s15
 8004468:	f503 7300 	add.w	r3, r3, #512	; 0x200
 800446c:	ee77 7aa6 	vadd.f32	s15, s15, s13
 8004470:	ee77 7a67 	vsub.f32	s15, s14, s15
 8004474:	ecea 7a01 	vstmia	sl!, {s15}
 8004478:	45d3      	cmp	fp, sl
 800447a:	d1ed      	bne.n	8004458 <waveCompute+0x1a04>
 800447c:	eebe ba00 	vmov.f32	s22, #224	; 0xbf000000 -0.5
 8004480:	f04f 0801 	mov.w	r8, #1
 8004484:	f7fe be89 	b.w	800319a <waveCompute+0x746>
 8004488:	ee7b 7a69 	vsub.f32	s15, s22, s19
 800448c:	eddf 6a50 	vldr	s13, [pc, #320]	; 80045d0 <waveCompute+0x1b7c>
 8004490:	ee3a 7a27 	vadd.f32	s14, s20, s15
 8004494:	ee87 ba88 	vdiv.f32	s22, s15, s16
 8004498:	e9cd 1200 	strd	r1, r2, [sp]
 800449c:	ee67 7a26 	vmul.f32	s15, s14, s13
 80044a0:	eeb6 0a00 	vmov.f32	s0, #96	; 0x3f000000  0.5
 80044a4:	eec7 caa8 	vdiv.f32	s25, s15, s17
 80044a8:	ee70 ba4b 	vsub.f32	s23, s0, s22
 80044ac:	ee3c 0ac0 	vsub.f32	s0, s25, s0
 80044b0:	f008 ff7c 	bl	800d3ac <lrintf>
 80044b4:	eeff 7a00 	vmov.f32	s15, #240	; 0xbf800000 -1.0
 80044b8:	ee87 6a88 	vdiv.f32	s12, s15, s16
 80044bc:	e9dd 1200 	ldrd	r1, r2, [sp]
 80044c0:	f000 033f 	and.w	r3, r0, #63	; 0x3f
 80044c4:	eb0b 0383 	add.w	r3, fp, r3, lsl #2
 80044c8:	ee07 0a90 	vmov	s15, r0
 80044cc:	ee36 6a4d 	vsub.f32	s12, s12, s26
 80044d0:	eef8 5ae7 	vcvt.f32.s32	s11, s15
 80044d4:	ee26 6a28 	vmul.f32	s12, s12, s17
 80044d8:	ee7c 5ae5 	vsub.f32	s11, s25, s11
 80044dc:	ed93 7a00 	vldr	s14, [r3]
 80044e0:	edd3 7a01 	vldr	s15, [r3, #4]
 80044e4:	edd2 6a00 	vldr	s13, [r2]
 80044e8:	ee77 7ac7 	vsub.f32	s15, s15, s14
 80044ec:	f503 7380 	add.w	r3, r3, #256	; 0x100
 80044f0:	ee67 7aa5 	vmul.f32	s15, s15, s11
 80044f4:	ee77 7a87 	vadd.f32	s15, s15, s14
 80044f8:	ee67 7a86 	vmul.f32	s15, s15, s12
 80044fc:	ee77 7aa6 	vadd.f32	s15, s15, s13
 8004500:	ece2 7a01 	vstmia	r2!, {s15}
 8004504:	4291      	cmp	r1, r2
 8004506:	d1e9      	bne.n	80044dc <waveCompute+0x1a88>
 8004508:	f7ff b9ee 	b.w	80038e8 <waveCompute+0xe94>
 800450c:	ee7a 7a69 	vsub.f32	s15, s20, s19
 8004510:	ed9f 7a2f 	vldr	s14, [pc, #188]	; 80045d0 <waveCompute+0x1b7c>
 8004514:	ee87 ba88 	vdiv.f32	s22, s15, s16
 8004518:	ee67 7a87 	vmul.f32	s15, s15, s14
 800451c:	eeb6 0a00 	vmov.f32	s0, #96	; 0x3f000000  0.5
 8004520:	eec7 baa8 	vdiv.f32	s23, s15, s17
 8004524:	ee30 ba4b 	vsub.f32	s22, s0, s22
 8004528:	ee3b 0ac0 	vsub.f32	s0, s23, s0
 800452c:	f008 ff3e 	bl	800d3ac <lrintf>
 8004530:	eeff 7a00 	vmov.f32	s15, #240	; 0xbf800000 -1.0
 8004534:	ee87 6a88 	vdiv.f32	s12, s15, s16
 8004538:	f000 033f 	and.w	r3, r0, #63	; 0x3f
 800453c:	eb0b 0383 	add.w	r3, fp, r3, lsl #2
 8004540:	ee07 0a90 	vmov	s15, r0
 8004544:	ee36 6a6a 	vsub.f32	s12, s12, s21
 8004548:	eef8 5ae7 	vcvt.f32.s32	s11, s15
 800454c:	ee26 6a28 	vmul.f32	s12, s12, s17
 8004550:	ee7b 5ae5 	vsub.f32	s11, s23, s11
 8004554:	ed93 7a00 	vldr	s14, [r3]
 8004558:	edd3 7a01 	vldr	s15, [r3, #4]
 800455c:	edd5 6a00 	vldr	s13, [r5]
 8004560:	ee77 7ac7 	vsub.f32	s15, s15, s14
 8004564:	f503 7380 	add.w	r3, r3, #256	; 0x100
 8004568:	ee67 7aa5 	vmul.f32	s15, s15, s11
 800456c:	ee77 7a87 	vadd.f32	s15, s15, s14
 8004570:	ee67 7a86 	vmul.f32	s15, s15, s12
 8004574:	ee77 7aa6 	vadd.f32	s15, s15, s13
 8004578:	ece5 7a01 	vstmia	r5!, {s15}
 800457c:	42ae      	cmp	r6, r5
 800457e:	d1e9      	bne.n	8004554 <waveCompute+0x1b00>
 8004580:	2501      	movs	r5, #1
 8004582:	f7fe bd0f 	b.w	8002fa4 <waveCompute+0x550>
 8004586:	eef4 6ae7 	vcmpe.f32	s13, s15
 800458a:	eef1 fa10 	vmrs	APSR_nzcv, fpscr
 800458e:	ee35 6ae6 	vsub.f32	s12, s11, s13
 8004592:	eeb0 7a66 	vmov.f32	s14, s13
 8004596:	bfcc      	ite	gt
 8004598:	eef0 9a66 	vmovgt.f32	s19, s13
 800459c:	eef0 9a67 	vmovle.f32	s19, s15
 80045a0:	f7ff b83a 	b.w	8003618 <waveCompute+0xbc4>
 80045a4:	eef4 6ae7 	vcmpe.f32	s13, s15
 80045a8:	eef1 fa10 	vmrs	APSR_nzcv, fpscr
 80045ac:	ee75 5a66 	vsub.f32	s11, s10, s13
 80045b0:	eeb0 7a66 	vmov.f32	s14, s13
 80045b4:	bfcc      	ite	gt
 80045b6:	eeb0 6a66 	vmovgt.f32	s12, s13
 80045ba:	eeb0 6a67 	vmovle.f32	s12, s15
 80045be:	f7ff b86d 	b.w	800369c <waveCompute+0xc48>
 80045c2:	ed9f 0a04 	vldr	s0, [pc, #16]	; 80045d4 <waveCompute+0x1b80>
 80045c6:	f7fe bb15 	b.w	8002bf4 <waveCompute+0x1a0>
 80045ca:	bf00      	nop
 80045cc:	10000868 	.word	0x10000868
 80045d0:	42800000 	.word	0x42800000
 80045d4:	00000000 	.word	0x00000000
 80045d8:	08014b58 	.word	0x08014b58

080045dc <I2S_DMATxCplt>:
I2S_DMATxCplt():
 80045dc:	6803      	ldr	r3, [r0, #0]
 80045de:	6b82      	ldr	r2, [r0, #56]	; 0x38
 80045e0:	681b      	ldr	r3, [r3, #0]
 80045e2:	6811      	ldr	r1, [r2, #0]
 80045e4:	f413 7380 	ands.w	r3, r3, #256	; 0x100
 80045e8:	d10e      	bne.n	8004608 <I2S_DMATxCplt+0x2c>
 80045ea:	8553      	strh	r3, [r2, #42]	; 0x2a
 80045ec:	684b      	ldr	r3, [r1, #4]
 80045ee:	6a10      	ldr	r0, [r2, #32]
 80045f0:	f023 0302 	bic.w	r3, r3, #2
 80045f4:	2801      	cmp	r0, #1
 80045f6:	604b      	str	r3, [r1, #4]
 80045f8:	d00f      	beq.n	800461a <I2S_DMATxCplt+0x3e>
 80045fa:	f892 303d 	ldrb.w	r3, [r2, #61]	; 0x3d
 80045fe:	2b32      	cmp	r3, #50	; 0x32
 8004600:	d006      	beq.n	8004610 <I2S_DMATxCplt+0x34>
 8004602:	2301      	movs	r3, #1
 8004604:	f882 303d 	strb.w	r3, [r2, #61]	; 0x3d
 8004608:	4bc3      	ldr	r3, [pc, #780]	; (8004918 <I2S_DMATxCplt+0x33c>)
 800460a:	4299      	cmp	r1, r3
 800460c:	d014      	beq.n	8004638 <I2S_DMATxCplt+0x5c>
 800460e:	4770      	bx	lr
 8004610:	8e53      	ldrh	r3, [r2, #50]	; 0x32
 8004612:	b29b      	uxth	r3, r3
 8004614:	2b00      	cmp	r3, #0
 8004616:	d1f7      	bne.n	8004608 <I2S_DMATxCplt+0x2c>
 8004618:	e7f3      	b.n	8004602 <I2S_DMATxCplt+0x26>
 800461a:	48c0      	ldr	r0, [pc, #768]	; (800491c <I2S_DMATxCplt+0x340>)
 800461c:	4bc0      	ldr	r3, [pc, #768]	; (8004920 <I2S_DMATxCplt+0x344>)
 800461e:	4281      	cmp	r1, r0
 8004620:	bf18      	it	ne
 8004622:	f04f 2340 	movne.w	r3, #1073758208	; 0x40004000
 8004626:	6858      	ldr	r0, [r3, #4]
 8004628:	f020 0001 	bic.w	r0, r0, #1
 800462c:	6058      	str	r0, [r3, #4]
 800462e:	f892 303d 	ldrb.w	r3, [r2, #61]	; 0x3d
 8004632:	2b32      	cmp	r3, #50	; 0x32
 8004634:	d1e5      	bne.n	8004602 <I2S_DMATxCplt+0x26>
 8004636:	e7eb      	b.n	8004610 <I2S_DMATxCplt+0x34>
 8004638:	e92d 4370 	stmdb	sp!, {r4, r5, r6, r8, r9, lr}
 800463c:	f503 33e8 	add.w	r3, r3, #118784	; 0x1d000
 8004640:	4db8      	ldr	r5, [pc, #736]	; (8004924 <I2S_DMATxCplt+0x348>)
 8004642:	4cb9      	ldr	r4, [pc, #740]	; (8004928 <I2S_DMATxCplt+0x34c>)
 8004644:	4eb9      	ldr	r6, [pc, #740]	; (800492c <I2S_DMATxCplt+0x350>)
 8004646:	f8df 831c 	ldr.w	r8, [pc, #796]	; 8004964 <I2S_DMATxCplt+0x388>
 800464a:	ed2d 8b0a 	vpush	{d8-d12}
 800464e:	f44f 5200 	mov.w	r2, #8192	; 0x2000
 8004652:	ed9f 8ab7 	vldr	s16, [pc, #732]	; 8004930 <I2S_DMATxCplt+0x354>
 8004656:	ed9f aab7 	vldr	s20, [pc, #732]	; 8004934 <I2S_DMATxCplt+0x358>
 800465a:	eddf 9ab7 	vldr	s19, [pc, #732]	; 8004938 <I2S_DMATxCplt+0x35c>
 800465e:	eddf aab7 	vldr	s21, [pc, #732]	; 800493c <I2S_DMATxCplt+0x360>
 8004662:	ed9f bab7 	vldr	s22, [pc, #732]	; 8004940 <I2S_DMATxCplt+0x364>
 8004666:	835a      	strh	r2, [r3, #26]
 8004668:	f505 69fa 	add.w	r9, r5, #2000	; 0x7d0
 800466c:	eeb7 9a00 	vmov.f32	s18, #112	; 0x3f800000  1.0
 8004670:	6f23      	ldr	r3, [r4, #112]	; 0x70
 8004672:	1e5a      	subs	r2, r3, #1
 8004674:	2b00      	cmp	r3, #0
 8004676:	6722      	str	r2, [r4, #112]	; 0x70
 8004678:	f340 80ea 	ble.w	8004850 <I2S_DMATxCplt+0x274>
 800467c:	ed94 0aaa 	vldr	s0, [r4, #680]	; 0x2a8
 8004680:	eeb5 0ac0 	vcmpe.f32	s0, #0.0
 8004684:	eef1 fa10 	vmrs	APSR_nzcv, fpscr
 8004688:	d508      	bpl.n	800469c <I2S_DMATxCplt+0xc0>
 800468a:	ee30 0a08 	vadd.f32	s0, s0, s16
 800468e:	eeb5 0ac0 	vcmpe.f32	s0, #0.0
 8004692:	eef1 fa10 	vmrs	APSR_nzcv, fpscr
 8004696:	d4f8      	bmi.n	800468a <I2S_DMATxCplt+0xae>
 8004698:	ed84 0aaa 	vstr	s0, [r4, #680]	; 0x2a8
 800469c:	eeb4 0ac8 	vcmpe.f32	s0, s16
 80046a0:	eef1 fa10 	vmrs	APSR_nzcv, fpscr
 80046a4:	db08      	blt.n	80046b8 <I2S_DMATxCplt+0xdc>
 80046a6:	ee30 0a48 	vsub.f32	s0, s0, s16
 80046aa:	eeb4 0ac8 	vcmpe.f32	s0, s16
 80046ae:	eef1 fa10 	vmrs	APSR_nzcv, fpscr
 80046b2:	daf8      	bge.n	80046a6 <I2S_DMATxCplt+0xca>
 80046b4:	ed84 0aaa 	vstr	s0, [r4, #680]	; 0x2a8
 80046b8:	ee20 0a0a 	vmul.f32	s0, s0, s20
 80046bc:	edd4 8aa7 	vldr	s17, [r4, #668]	; 0x29c
 80046c0:	f008 fe74 	bl	800d3ac <lrintf>
 80046c4:	eb06 0080 	add.w	r0, r6, r0, lsl #2
 80046c8:	ed90 7a00 	vldr	s14, [r0]
 80046cc:	edd4 7aa9 	vldr	s15, [r4, #676]	; 0x2a4
 80046d0:	ed94 6aaa 	vldr	s12, [r4, #680]	; 0x2a8
 80046d4:	edd8 6a79 	vldr	s13, [r8, #484]	; 0x1e4
 80046d8:	f894 0091 	ldrb.w	r0, [r4, #145]	; 0x91
 80046dc:	ee28 7a87 	vmul.f32	s14, s17, s14
 80046e0:	ee67 7aa9 	vmul.f32	s15, s15, s19
 80046e4:	ee37 0a09 	vadd.f32	s0, s14, s18
 80046e8:	ee77 7a86 	vadd.f32	s15, s15, s12
 80046ec:	ee20 0a26 	vmul.f32	s0, s0, s13
 80046f0:	ed84 7aae 	vstr	s14, [r4, #696]	; 0x2b8
 80046f4:	edc4 7aaa 	vstr	s15, [r4, #680]	; 0x2a8
 80046f8:	f7fe f9ac 	bl	8002a54 <waveCompute>
 80046fc:	e9d4 32a5 	ldrd	r3, r2, [r4, #660]	; 0x294
 8004700:	3201      	adds	r2, #1
 8004702:	2b01      	cmp	r3, #1
 8004704:	edd4 8aa1 	vldr	s17, [r4, #644]	; 0x284
 8004708:	f8c4 2298 	str.w	r2, [r4, #664]	; 0x298
 800470c:	eef0 ba40 	vmov.f32	s23, s0
 8004710:	f000 8194 	beq.w	8004a3c <I2S_DMATxCplt+0x460>
 8004714:	2b03      	cmp	r3, #3
 8004716:	f000 81c7 	beq.w	8004aa8 <I2S_DMATxCplt+0x4cc>
 800471a:	2b00      	cmp	r3, #0
 800471c:	f000 81a6 	beq.w	8004a6c <I2S_DMATxCplt+0x490>
 8004720:	ed94 0ab2 	vldr	s0, [r4, #712]	; 0x2c8
 8004724:	edc4 8aa2 	vstr	s17, [r4, #648]	; 0x288
 8004728:	eeb5 0ac0 	vcmpe.f32	s0, #0.0
 800472c:	eef1 fa10 	vmrs	APSR_nzcv, fpscr
 8004730:	d508      	bpl.n	8004744 <I2S_DMATxCplt+0x168>
 8004732:	ee30 0a08 	vadd.f32	s0, s0, s16
 8004736:	eeb5 0ac0 	vcmpe.f32	s0, #0.0
 800473a:	eef1 fa10 	vmrs	APSR_nzcv, fpscr
 800473e:	d4f8      	bmi.n	8004732 <I2S_DMATxCplt+0x156>
 8004740:	ed84 0ab2 	vstr	s0, [r4, #712]	; 0x2c8
 8004744:	eeb4 0ac8 	vcmpe.f32	s0, s16
 8004748:	eef1 fa10 	vmrs	APSR_nzcv, fpscr
 800474c:	db08      	blt.n	8004760 <I2S_DMATxCplt+0x184>
 800474e:	ee30 0a48 	vsub.f32	s0, s0, s16
 8004752:	eeb4 0ac8 	vcmpe.f32	s0, s16
 8004756:	eef1 fa10 	vmrs	APSR_nzcv, fpscr
 800475a:	daf8      	bge.n	800474e <I2S_DMATxCplt+0x172>
 800475c:	ed84 0ab2 	vstr	s0, [r4, #712]	; 0x2c8
 8004760:	ee20 0a0a 	vmul.f32	s0, s0, s20
 8004764:	ed94 caaf 	vldr	s24, [r4, #700]	; 0x2bc
 8004768:	f008 fe20 	bl	800d3ac <lrintf>
 800476c:	eb06 0080 	add.w	r0, r6, r0, lsl #2
 8004770:	edd0 6a00 	vldr	s13, [r0]
 8004774:	ed94 7ab1 	vldr	s14, [r4, #708]	; 0x2c4
 8004778:	edd4 5ab2 	vldr	s11, [r4, #712]	; 0x2c8
 800477c:	ed98 6a7a 	vldr	s12, [r8, #488]	; 0x1e8
 8004780:	f8d4 2298 	ldr.w	r2, [r4, #664]	; 0x298
 8004784:	6fa3      	ldr	r3, [r4, #120]	; 0x78
 8004786:	ee6c 6a26 	vmul.f32	s13, s24, s13
 800478a:	ee27 7a29 	vmul.f32	s14, s14, s19
 800478e:	ee76 7a89 	vadd.f32	s15, s13, s18
 8004792:	429a      	cmp	r2, r3
 8004794:	ee67 8aa8 	vmul.f32	s17, s15, s17
 8004798:	ee77 7a25 	vadd.f32	s15, s14, s11
 800479c:	ee68 8a86 	vmul.f32	s17, s17, s12
 80047a0:	edc4 6ab6 	vstr	s13, [r4, #728]	; 0x2d8
 80047a4:	ee68 baab 	vmul.f32	s23, s17, s23
 80047a8:	edc4 7ab2 	vstr	s15, [r4, #712]	; 0x2c8
 80047ac:	f080 808b 	bcs.w	80048c6 <I2S_DMATxCplt+0x2ea>
 80047b0:	f894 3270 	ldrb.w	r3, [r4, #624]	; 0x270
 80047b4:	b93b      	cbnz	r3, 80047c6 <I2S_DMATxCplt+0x1ea>
 80047b6:	edd4 8a84 	vldr	s17, [r4, #528]	; 0x210
 80047ba:	eef5 8a40 	vcmp.f32	s17, #0.0
 80047be:	eef1 fa10 	vmrs	APSR_nzcv, fpscr
 80047c2:	f040 817d 	bne.w	8004ac0 <I2S_DMATxCplt+0x4e4>
 80047c6:	edd4 8a94 	vldr	s17, [r4, #592]	; 0x250
 80047ca:	eef5 8a40 	vcmp.f32	s17, #0.0
 80047ce:	eef1 fa10 	vmrs	APSR_nzcv, fpscr
 80047d2:	f040 80c9 	bne.w	8004968 <I2S_DMATxCplt+0x38c>
 80047d6:	485b      	ldr	r0, [pc, #364]	; (8004944 <I2S_DMATxCplt+0x368>)
 80047d8:	eeb0 0a6b 	vmov.f32	s0, s23
 80047dc:	f006 ff40 	bl	800b660 <SVF_calcSample>
 80047e0:	4859      	ldr	r0, [pc, #356]	; (8004948 <I2S_DMATxCplt+0x36c>)
 80047e2:	eef0 8a40 	vmov.f32	s17, s0
 80047e6:	eeb0 0a6b 	vmov.f32	s0, s23
 80047ea:	f006 ff39 	bl	800b660 <SVF_calcSample>
 80047ee:	7823      	ldrb	r3, [r4, #0]
 80047f0:	ee38 0a80 	vadd.f32	s0, s17, s0
 80047f4:	eef6 8a00 	vmov.f32	s17, #96	; 0x3f000000  0.5
 80047f8:	ee60 8a28 	vmul.f32	s17, s0, s17
 80047fc:	2b00      	cmp	r3, #0
 80047fe:	f040 8083 	bne.w	8004908 <I2S_DMATxCplt+0x32c>
 8004802:	f894 3024 	ldrb.w	r3, [r4, #36]	; 0x24
 8004806:	2b00      	cmp	r3, #0
 8004808:	d177      	bne.n	80048fa <I2S_DMATxCplt+0x31e>
 800480a:	7863      	ldrb	r3, [r4, #1]
 800480c:	eeb0 0a68 	vmov.f32	s0, s17
 8004810:	2b00      	cmp	r3, #0
 8004812:	d163      	bne.n	80048dc <I2S_DMATxCplt+0x300>
 8004814:	eef4 8ac9 	vcmpe.f32	s17, s18
 8004818:	eef1 fa10 	vmrs	APSR_nzcv, fpscr
 800481c:	dd3f      	ble.n	800489e <I2S_DMATxCplt+0x2c2>
 800481e:	f647 73ff 	movw	r3, #32767	; 0x7fff
 8004822:	eeb4 0ac9 	vcmpe.f32	s0, s18
 8004826:	eef1 fa10 	vmrs	APSR_nzcv, fpscr
 800482a:	dd24      	ble.n	8004876 <I2S_DMATxCplt+0x29a>
 800482c:	f647 72ff 	movw	r2, #32767	; 0x7fff
 8004830:	f825 3c04 	strh.w	r3, [r5, #-4]
 8004834:	f825 2c02 	strh.w	r2, [r5, #-2]
 8004838:	3504      	adds	r5, #4
 800483a:	454d      	cmp	r5, r9
 800483c:	f47f af18 	bne.w	8004670 <I2S_DMATxCplt+0x94>
 8004840:	ecbd 8b0a 	vpop	{d8-d12}
 8004844:	4b41      	ldr	r3, [pc, #260]	; (800494c <I2S_DMATxCplt+0x370>)
 8004846:	f44f 5200 	mov.w	r2, #8192	; 0x2000
 800484a:	831a      	strh	r2, [r3, #24]
 800484c:	e8bd 8370 	ldmia.w	sp!, {r4, r5, r6, r8, r9, pc}
 8004850:	f9b4 3074 	ldrsh.w	r3, [r4, #116]	; 0x74
 8004854:	2b00      	cmp	r3, #0
 8004856:	f000 81a1 	beq.w	8004b9c <I2S_DMATxCplt+0x5c0>
 800485a:	f007 fb39 	bl	800bed0 <sequencer_newStep_action>
 800485e:	6ee3      	ldr	r3, [r4, #108]	; 0x6c
 8004860:	6723      	str	r3, [r4, #112]	; 0x70
 8004862:	f8b4 3074 	ldrh.w	r3, [r4, #116]	; 0x74
 8004866:	3301      	adds	r3, #1
 8004868:	b21b      	sxth	r3, r3
 800486a:	2b0f      	cmp	r3, #15
 800486c:	bfc8      	it	gt
 800486e:	2300      	movgt	r3, #0
 8004870:	f8a4 3074 	strh.w	r3, [r4, #116]	; 0x74
 8004874:	e702      	b.n	800467c <I2S_DMATxCplt+0xa0>
 8004876:	eeff 7a00 	vmov.f32	s15, #240	; 0xbf800000 -1.0
 800487a:	eeb4 0ae7 	vcmpe.f32	s0, s15
 800487e:	eef1 fa10 	vmrs	APSR_nzcv, fpscr
 8004882:	bf48      	it	mi
 8004884:	f248 0201 	movwmi	r2, #32769	; 0x8001
 8004888:	d4d2      	bmi.n	8004830 <I2S_DMATxCplt+0x254>
 800488a:	eddf 7a31 	vldr	s15, [pc, #196]	; 8004950 <I2S_DMATxCplt+0x374>
 800488e:	ee60 7a27 	vmul.f32	s15, s0, s15
 8004892:	eefd 7ae7 	vcvt.s32.f32	s15, s15
 8004896:	ee17 2a90 	vmov	r2, s15
 800489a:	b292      	uxth	r2, r2
 800489c:	e7c8      	b.n	8004830 <I2S_DMATxCplt+0x254>
 800489e:	eeff 7a00 	vmov.f32	s15, #240	; 0xbf800000 -1.0
 80048a2:	eef4 8ae7 	vcmpe.f32	s17, s15
 80048a6:	eef1 fa10 	vmrs	APSR_nzcv, fpscr
 80048aa:	bf48      	it	mi
 80048ac:	f248 0301 	movwmi	r3, #32769	; 0x8001
 80048b0:	d4b7      	bmi.n	8004822 <I2S_DMATxCplt+0x246>
 80048b2:	eddf 7a27 	vldr	s15, [pc, #156]	; 8004950 <I2S_DMATxCplt+0x374>
 80048b6:	ee68 7aa7 	vmul.f32	s15, s17, s15
 80048ba:	eefd 7ae7 	vcvt.s32.f32	s15, s15
 80048be:	ee17 3a90 	vmov	r3, s15
 80048c2:	b29b      	uxth	r3, r3
 80048c4:	e7ad      	b.n	8004822 <I2S_DMATxCplt+0x246>
 80048c6:	f8d4 3280 	ldr.w	r3, [r4, #640]	; 0x280
 80048ca:	f8c4 3290 	str.w	r3, [r4, #656]	; 0x290
 80048ce:	2200      	movs	r2, #0
 80048d0:	2303      	movs	r3, #3
 80048d2:	e9c4 32a5 	strd	r3, r2, [r4, #660]	; 0x294
 80048d6:	edc4 aaa3 	vstr	s21, [r4, #652]	; 0x28c
 80048da:	e769      	b.n	80047b0 <I2S_DMATxCplt+0x1d4>
 80048dc:	491d      	ldr	r1, [pc, #116]	; (8004954 <I2S_DMATxCplt+0x378>)
 80048de:	481e      	ldr	r0, [pc, #120]	; (8004958 <I2S_DMATxCplt+0x37c>)
 80048e0:	f7fe f812 	bl	8002908 <mono_chorus_compute>
 80048e4:	491d      	ldr	r1, [pc, #116]	; (800495c <I2S_DMATxCplt+0x380>)
 80048e6:	481e      	ldr	r0, [pc, #120]	; (8004960 <I2S_DMATxCplt+0x384>)
 80048e8:	eef0 7a40 	vmov.f32	s15, s0
 80048ec:	eeb0 0a68 	vmov.f32	s0, s17
 80048f0:	eef0 8a67 	vmov.f32	s17, s15
 80048f4:	f7fe f808 	bl	8002908 <mono_chorus_compute>
 80048f8:	e78c      	b.n	8004814 <I2S_DMATxCplt+0x238>
 80048fa:	eeb0 0a68 	vmov.f32	s0, s17
 80048fe:	f006 fdf7 	bl	800b4f0 <Phaser_compute>
 8004902:	eef0 8a40 	vmov.f32	s17, s0
 8004906:	e780      	b.n	800480a <I2S_DMATxCplt+0x22e>
 8004908:	eeb0 0a68 	vmov.f32	s0, s17
 800490c:	f7fc fb4a 	bl	8000fa4 <Delay_compute>
 8004910:	eef0 8a40 	vmov.f32	s17, s0
 8004914:	e775      	b.n	8004802 <I2S_DMATxCplt+0x226>
 8004916:	bf00      	nop
 8004918:	40003c00 	.word	0x40003c00
 800491c:	40003800 	.word	0x40003800
 8004920:	40003400 	.word	0x40003400
 8004924:	2000112c 	.word	0x2000112c
 8004928:	10000000 	.word	0x10000000
 800492c:	0800f450 	.word	0x0800f450
 8004930:	40c90fdb 	.word	0x40c90fdb
 8004934:	4322f983 	.word	0x4322f983
 8004938:	39156592 	.word	0x39156592
 800493c:	00000000 	.word	0x00000000
 8004940:	3f733333 	.word	0x3f733333
 8004944:	100001f0 	.word	0x100001f0
 8004948:	10000230 	.word	0x10000230
 800494c:	40020c00 	.word	0x40020c00
 8004950:	46fffe00 	.word	0x46fffe00
 8004954:	10000004 	.word	0x10000004
 8004958:	100012e8 	.word	0x100012e8
 800495c:	10000014 	.word	0x10000014
 8004960:	100028e0 	.word	0x100028e0
 8004964:	100010f8 	.word	0x100010f8
 8004968:	ed94 0a97 	vldr	s0, [r4, #604]	; 0x25c
 800496c:	eeb5 0ac0 	vcmpe.f32	s0, #0.0
 8004970:	eef1 fa10 	vmrs	APSR_nzcv, fpscr
 8004974:	d508      	bpl.n	8004988 <I2S_DMATxCplt+0x3ac>
 8004976:	ee30 0a08 	vadd.f32	s0, s0, s16
 800497a:	eeb5 0ac0 	vcmpe.f32	s0, #0.0
 800497e:	eef1 fa10 	vmrs	APSR_nzcv, fpscr
 8004982:	d4f8      	bmi.n	8004976 <I2S_DMATxCplt+0x39a>
 8004984:	ed84 0a97 	vstr	s0, [r4, #604]	; 0x25c
 8004988:	eeb4 0ac8 	vcmpe.f32	s0, s16
 800498c:	eef1 fa10 	vmrs	APSR_nzcv, fpscr
 8004990:	db08      	blt.n	80049a4 <I2S_DMATxCplt+0x3c8>
 8004992:	ee30 0a48 	vsub.f32	s0, s0, s16
 8004996:	eeb4 0ac8 	vcmpe.f32	s0, s16
 800499a:	eef1 fa10 	vmrs	APSR_nzcv, fpscr
 800499e:	daf8      	bge.n	8004992 <I2S_DMATxCplt+0x3b6>
 80049a0:	ed84 0a97 	vstr	s0, [r4, #604]	; 0x25c
 80049a4:	ee20 0a0a 	vmul.f32	s0, s0, s20
 80049a8:	f008 fd00 	bl	800d3ac <lrintf>
 80049ac:	eb06 0080 	add.w	r0, r6, r0, lsl #2
 80049b0:	ed90 7a00 	vldr	s14, [r0]
 80049b4:	edd4 6a96 	vldr	s13, [r4, #600]	; 0x258
 80049b8:	edd4 5a97 	vldr	s11, [r4, #604]	; 0x25c
 80049bc:	4b85      	ldr	r3, [pc, #532]	; (8004bd4 <I2S_DMATxCplt+0x5f8>)
 80049be:	eeb6 6a00 	vmov.f32	s12, #96	; 0x3f000000  0.5
 80049c2:	ee37 7a09 	vadd.f32	s14, s14, s18
 80049c6:	ee68 8a86 	vmul.f32	s17, s17, s12
 80049ca:	ee67 8a28 	vmul.f32	s17, s14, s17
 80049ce:	ee26 7aa9 	vmul.f32	s14, s13, s19
 80049d2:	ee78 7a89 	vadd.f32	s15, s17, s18
 80049d6:	ee37 7a25 	vadd.f32	s14, s14, s11
 80049da:	edc4 8a9b 	vstr	s17, [r4, #620]	; 0x26c
 80049de:	ed84 7a97 	vstr	s14, [r4, #604]	; 0x25c
 80049e2:	ed93 7a00 	vldr	s14, [r3]
 80049e6:	ee67 7a87 	vmul.f32	s15, s15, s14
 80049ea:	eef4 7acb 	vcmpe.f32	s15, s22
 80049ee:	eef1 fa10 	vmrs	APSR_nzcv, fpscr
 80049f2:	f300 80ce 	bgt.w	8004b92 <I2S_DMATxCplt+0x5b6>
 80049f6:	ee67 7a86 	vmul.f32	s15, s15, s12
 80049fa:	ed9f 7a77 	vldr	s14, [pc, #476]	; 8004bd8 <I2S_DMATxCplt+0x5fc>
 80049fe:	ee27 7a87 	vmul.f32	s14, s15, s14
 8004a02:	eef1 5a04 	vmov.f32	s11, #20	; 0x40a00000  5.0
 8004a06:	ee77 6a07 	vadd.f32	s13, s14, s14
 8004a0a:	ee27 6a07 	vmul.f32	s12, s14, s14
 8004a0e:	ee66 6a87 	vmul.f32	s13, s13, s14
 8004a12:	eeba 5a0e 	vmov.f32	s10, #174	; 0xc1700000 -15.0
 8004a16:	ee26 6a07 	vmul.f32	s12, s12, s14
 8004a1a:	ee76 6ae5 	vsub.f32	s13, s13, s11
 8004a1e:	ee27 7a05 	vmul.f32	s14, s14, s10
 8004a22:	eef0 5a08 	vmov.f32	s11, #8	; 0x40400000  3.0
 8004a26:	ee36 7a07 	vadd.f32	s14, s12, s14
 8004a2a:	ee66 6aa5 	vmul.f32	s13, s13, s11
 8004a2e:	ee87 6a26 	vdiv.f32	s12, s14, s13
 8004a32:	edc4 7a8d 	vstr	s15, [r4, #564]	; 0x234
 8004a36:	ed84 6a8e 	vstr	s12, [r4, #568]	; 0x238
 8004a3a:	e6cc      	b.n	80047d6 <I2S_DMATxCplt+0x1fa>
 8004a3c:	ed94 7a9e 	vldr	s14, [r4, #632]	; 0x278
 8004a40:	edd4 7a9f 	vldr	s15, [r4, #636]	; 0x27c
 8004a44:	ee78 8ac7 	vsub.f32	s17, s17, s14
 8004a48:	eef4 8ae7 	vcmpe.f32	s17, s15
 8004a4c:	eef1 fa10 	vmrs	APSR_nzcv, fpscr
 8004a50:	edc4 8aa1 	vstr	s17, [r4, #644]	; 0x284
 8004a54:	f63f ae64 	bhi.w	8004720 <I2S_DMATxCplt+0x144>
 8004a58:	2302      	movs	r3, #2
 8004a5a:	eef0 8a67 	vmov.f32	s17, s15
 8004a5e:	edc4 7aa1 	vstr	s15, [r4, #644]	; 0x284
 8004a62:	edc4 aaa4 	vstr	s21, [r4, #656]	; 0x290
 8004a66:	f8c4 3294 	str.w	r3, [r4, #660]	; 0x294
 8004a6a:	e659      	b.n	8004720 <I2S_DMATxCplt+0x144>
 8004a6c:	ed94 7aa4 	vldr	s14, [r4, #656]	; 0x290
 8004a70:	edd4 7aa3 	vldr	s15, [r4, #652]	; 0x28c
 8004a74:	ee78 8a87 	vadd.f32	s17, s17, s14
 8004a78:	eef4 8ae7 	vcmpe.f32	s17, s15
 8004a7c:	eef1 fa10 	vmrs	APSR_nzcv, fpscr
 8004a80:	edc4 8aa1 	vstr	s17, [r4, #644]	; 0x284
 8004a84:	f6ff ae4c 	blt.w	8004720 <I2S_DMATxCplt+0x144>
 8004a88:	f8d4 3278 	ldr.w	r3, [r4, #632]	; 0x278
 8004a8c:	f8c4 3290 	str.w	r3, [r4, #656]	; 0x290
 8004a90:	f8d4 327c 	ldr.w	r3, [r4, #636]	; 0x27c
 8004a94:	f8c4 328c 	str.w	r3, [r4, #652]	; 0x28c
 8004a98:	2301      	movs	r3, #1
 8004a9a:	eef0 8a67 	vmov.f32	s17, s15
 8004a9e:	edc4 7aa1 	vstr	s15, [r4, #644]	; 0x284
 8004aa2:	f8c4 3294 	str.w	r3, [r4, #660]	; 0x294
 8004aa6:	e63b      	b.n	8004720 <I2S_DMATxCplt+0x144>
 8004aa8:	edd4 7aa0 	vldr	s15, [r4, #640]	; 0x280
 8004aac:	ee78 8ae7 	vsub.f32	s17, s17, s15
 8004ab0:	eef5 8ac0 	vcmpe.f32	s17, #0.0
 8004ab4:	eef1 fa10 	vmrs	APSR_nzcv, fpscr
 8004ab8:	d97f      	bls.n	8004bba <I2S_DMATxCplt+0x5de>
 8004aba:	edc4 8aa1 	vstr	s17, [r4, #644]	; 0x284
 8004abe:	e62f      	b.n	8004720 <I2S_DMATxCplt+0x144>
 8004ac0:	ed94 0a87 	vldr	s0, [r4, #540]	; 0x21c
 8004ac4:	eeb5 0ac0 	vcmpe.f32	s0, #0.0
 8004ac8:	eef1 fa10 	vmrs	APSR_nzcv, fpscr
 8004acc:	d508      	bpl.n	8004ae0 <I2S_DMATxCplt+0x504>
 8004ace:	ee30 0a08 	vadd.f32	s0, s0, s16
 8004ad2:	eeb5 0ac0 	vcmpe.f32	s0, #0.0
 8004ad6:	eef1 fa10 	vmrs	APSR_nzcv, fpscr
 8004ada:	d4f8      	bmi.n	8004ace <I2S_DMATxCplt+0x4f2>
 8004adc:	ed84 0a87 	vstr	s0, [r4, #540]	; 0x21c
 8004ae0:	eeb4 0ac8 	vcmpe.f32	s0, s16
 8004ae4:	eef1 fa10 	vmrs	APSR_nzcv, fpscr
 8004ae8:	db08      	blt.n	8004afc <I2S_DMATxCplt+0x520>
 8004aea:	ee30 0a48 	vsub.f32	s0, s0, s16
 8004aee:	eeb4 0ac8 	vcmpe.f32	s0, s16
 8004af2:	eef1 fa10 	vmrs	APSR_nzcv, fpscr
 8004af6:	daf8      	bge.n	8004aea <I2S_DMATxCplt+0x50e>
 8004af8:	ed84 0a87 	vstr	s0, [r4, #540]	; 0x21c
 8004afc:	ee20 0a0a 	vmul.f32	s0, s0, s20
 8004b00:	f008 fc54 	bl	800d3ac <lrintf>
 8004b04:	eb06 0080 	add.w	r0, r6, r0, lsl #2
 8004b08:	edd0 7a00 	vldr	s15, [r0]
 8004b0c:	ed94 7a86 	vldr	s14, [r4, #536]	; 0x218
 8004b10:	ed94 6a87 	vldr	s12, [r4, #540]	; 0x21c
 8004b14:	4b31      	ldr	r3, [pc, #196]	; (8004bdc <I2S_DMATxCplt+0x600>)
 8004b16:	eef6 6a00 	vmov.f32	s13, #96	; 0x3f000000  0.5
 8004b1a:	ee77 7a89 	vadd.f32	s15, s15, s18
 8004b1e:	ee68 8aa6 	vmul.f32	s17, s17, s13
 8004b22:	ee27 7a29 	vmul.f32	s14, s14, s19
 8004b26:	ee67 8aa8 	vmul.f32	s17, s15, s17
 8004b2a:	ee37 7a06 	vadd.f32	s14, s14, s12
 8004b2e:	ee78 7a89 	vadd.f32	s15, s17, s18
 8004b32:	ed84 7a87 	vstr	s14, [r4, #540]	; 0x21c
 8004b36:	ed93 7a00 	vldr	s14, [r3]
 8004b3a:	edc4 8a8b 	vstr	s17, [r4, #556]	; 0x22c
 8004b3e:	ee67 7a87 	vmul.f32	s15, s15, s14
 8004b42:	eef4 7acb 	vcmpe.f32	s15, s22
 8004b46:	eef1 fa10 	vmrs	APSR_nzcv, fpscr
 8004b4a:	dc3e      	bgt.n	8004bca <I2S_DMATxCplt+0x5ee>
 8004b4c:	ee67 7aa6 	vmul.f32	s15, s15, s13
 8004b50:	ed9f 7a21 	vldr	s14, [pc, #132]	; 8004bd8 <I2S_DMATxCplt+0x5fc>
 8004b54:	ee27 7a87 	vmul.f32	s14, s15, s14
 8004b58:	eef1 5a04 	vmov.f32	s11, #20	; 0x40a00000  5.0
 8004b5c:	ee77 6a07 	vadd.f32	s13, s14, s14
 8004b60:	ee27 6a07 	vmul.f32	s12, s14, s14
 8004b64:	ee66 6a87 	vmul.f32	s13, s13, s14
 8004b68:	eeba 5a0e 	vmov.f32	s10, #174	; 0xc1700000 -15.0
 8004b6c:	ee76 6ae5 	vsub.f32	s13, s13, s11
 8004b70:	ee26 6a07 	vmul.f32	s12, s12, s14
 8004b74:	ee27 7a05 	vmul.f32	s14, s14, s10
 8004b78:	eef0 5a08 	vmov.f32	s11, #8	; 0x40400000  3.0
 8004b7c:	ee36 6a07 	vadd.f32	s12, s12, s14
 8004b80:	ee26 7aa5 	vmul.f32	s14, s13, s11
 8004b84:	eec6 6a07 	vdiv.f32	s13, s12, s14
 8004b88:	edc4 7a7d 	vstr	s15, [r4, #500]	; 0x1f4
 8004b8c:	edc4 6a7e 	vstr	s13, [r4, #504]	; 0x1f8
 8004b90:	e619      	b.n	80047c6 <I2S_DMATxCplt+0x1ea>
 8004b92:	ed9f 6a13 	vldr	s12, [pc, #76]	; 8004be0 <I2S_DMATxCplt+0x604>
 8004b96:	eddf 7a13 	vldr	s15, [pc, #76]	; 8004be4 <I2S_DMATxCplt+0x608>
 8004b9a:	e74a      	b.n	8004a32 <I2S_DMATxCplt+0x456>
 8004b9c:	4b12      	ldr	r3, [pc, #72]	; (8004be8 <I2S_DMATxCplt+0x60c>)
 8004b9e:	781b      	ldrb	r3, [r3, #0]
 8004ba0:	2b00      	cmp	r3, #0
 8004ba2:	f43f ae5a 	beq.w	800485a <I2S_DMATxCplt+0x27e>
 8004ba6:	4b11      	ldr	r3, [pc, #68]	; (8004bec <I2S_DMATxCplt+0x610>)
 8004ba8:	781b      	ldrb	r3, [r3, #0]
 8004baa:	2b00      	cmp	r3, #0
 8004bac:	f47f ae55 	bne.w	800485a <I2S_DMATxCplt+0x27e>
 8004bb0:	f7fc ffa2 	bl	8001af8 <MagicPatch.part.0>
 8004bb4:	f7fc fd9c 	bl	80016f0 <MagicFX.part.0>
 8004bb8:	e64f      	b.n	800485a <I2S_DMATxCplt+0x27e>
 8004bba:	2304      	movs	r3, #4
 8004bbc:	eef0 8a6a 	vmov.f32	s17, s21
 8004bc0:	edc4 aaa1 	vstr	s21, [r4, #644]	; 0x284
 8004bc4:	f8c4 3294 	str.w	r3, [r4, #660]	; 0x294
 8004bc8:	e5aa      	b.n	8004720 <I2S_DMATxCplt+0x144>
 8004bca:	eddf 6a05 	vldr	s13, [pc, #20]	; 8004be0 <I2S_DMATxCplt+0x604>
 8004bce:	eddf 7a05 	vldr	s15, [pc, #20]	; 8004be4 <I2S_DMATxCplt+0x608>
 8004bd2:	e7d9      	b.n	8004b88 <I2S_DMATxCplt+0x5ac>
 8004bd4:	2001edc8 	.word	0x2001edc8
 8004bd8:	40490fdb 	.word	0x40490fdb
 8004bdc:	2001edc4 	.word	0x2001edc4
 8004be0:	413a1203 	.word	0x413a1203
 8004be4:	3ef33333 	.word	0x3ef33333
 8004be8:	20000054 	.word	0x20000054
 8004bec:	2001edcc 	.word	0x2001edcc

08004bf0 <I2S_DMATxHalfCplt>:
I2S_DMATxHalfCplt():
 8004bf0:	6b82      	ldr	r2, [r0, #56]	; 0x38
 8004bf2:	4bba      	ldr	r3, [pc, #744]	; (8004edc <I2S_DMATxHalfCplt+0x2ec>)
 8004bf4:	6812      	ldr	r2, [r2, #0]
 8004bf6:	429a      	cmp	r2, r3
 8004bf8:	d000      	beq.n	8004bfc <I2S_DMATxHalfCplt+0xc>
 8004bfa:	4770      	bx	lr
 8004bfc:	e92d 4370 	stmdb	sp!, {r4, r5, r6, r8, r9, lr}
 8004c00:	f503 33e8 	add.w	r3, r3, #118784	; 0x1d000
 8004c04:	4db6      	ldr	r5, [pc, #728]	; (8004ee0 <I2S_DMATxHalfCplt+0x2f0>)
 8004c06:	4cb7      	ldr	r4, [pc, #732]	; (8004ee4 <I2S_DMATxHalfCplt+0x2f4>)
 8004c08:	4eb7      	ldr	r6, [pc, #732]	; (8004ee8 <I2S_DMATxHalfCplt+0x2f8>)
 8004c0a:	f8df 8314 	ldr.w	r8, [pc, #788]	; 8004f20 <I2S_DMATxHalfCplt+0x330>
 8004c0e:	ed2d 8b0a 	vpush	{d8-d12}
 8004c12:	f44f 5200 	mov.w	r2, #8192	; 0x2000
 8004c16:	ed9f 8ab5 	vldr	s16, [pc, #724]	; 8004eec <I2S_DMATxHalfCplt+0x2fc>
 8004c1a:	ed9f aab5 	vldr	s20, [pc, #724]	; 8004ef0 <I2S_DMATxHalfCplt+0x300>
 8004c1e:	eddf 9ab5 	vldr	s19, [pc, #724]	; 8004ef4 <I2S_DMATxHalfCplt+0x304>
 8004c22:	eddf aab5 	vldr	s21, [pc, #724]	; 8004ef8 <I2S_DMATxHalfCplt+0x308>
 8004c26:	ed9f bab5 	vldr	s22, [pc, #724]	; 8004efc <I2S_DMATxHalfCplt+0x30c>
 8004c2a:	835a      	strh	r2, [r3, #26]
 8004c2c:	f505 69fa 	add.w	r9, r5, #2000	; 0x7d0
 8004c30:	eeb7 9a00 	vmov.f32	s18, #112	; 0x3f800000  1.0
 8004c34:	6f23      	ldr	r3, [r4, #112]	; 0x70
 8004c36:	1e5a      	subs	r2, r3, #1
 8004c38:	2b00      	cmp	r3, #0
 8004c3a:	6722      	str	r2, [r4, #112]	; 0x70
 8004c3c:	f340 80ea 	ble.w	8004e14 <I2S_DMATxHalfCplt+0x224>
 8004c40:	ed94 0aaa 	vldr	s0, [r4, #680]	; 0x2a8
 8004c44:	eeb5 0ac0 	vcmpe.f32	s0, #0.0
 8004c48:	eef1 fa10 	vmrs	APSR_nzcv, fpscr
 8004c4c:	d508      	bpl.n	8004c60 <I2S_DMATxHalfCplt+0x70>
 8004c4e:	ee30 0a08 	vadd.f32	s0, s0, s16
 8004c52:	eeb5 0ac0 	vcmpe.f32	s0, #0.0
 8004c56:	eef1 fa10 	vmrs	APSR_nzcv, fpscr
 8004c5a:	d4f8      	bmi.n	8004c4e <I2S_DMATxHalfCplt+0x5e>
 8004c5c:	ed84 0aaa 	vstr	s0, [r4, #680]	; 0x2a8
 8004c60:	eeb4 0ac8 	vcmpe.f32	s0, s16
 8004c64:	eef1 fa10 	vmrs	APSR_nzcv, fpscr
 8004c68:	db08      	blt.n	8004c7c <I2S_DMATxHalfCplt+0x8c>
 8004c6a:	ee30 0a48 	vsub.f32	s0, s0, s16
 8004c6e:	eeb4 0ac8 	vcmpe.f32	s0, s16
 8004c72:	eef1 fa10 	vmrs	APSR_nzcv, fpscr
 8004c76:	daf8      	bge.n	8004c6a <I2S_DMATxHalfCplt+0x7a>
 8004c78:	ed84 0aaa 	vstr	s0, [r4, #680]	; 0x2a8
 8004c7c:	ee20 0a0a 	vmul.f32	s0, s0, s20
 8004c80:	edd4 8aa7 	vldr	s17, [r4, #668]	; 0x29c
 8004c84:	f008 fb92 	bl	800d3ac <lrintf>
 8004c88:	eb06 0080 	add.w	r0, r6, r0, lsl #2
 8004c8c:	ed90 7a00 	vldr	s14, [r0]
 8004c90:	edd4 7aa9 	vldr	s15, [r4, #676]	; 0x2a4
 8004c94:	ed94 6aaa 	vldr	s12, [r4, #680]	; 0x2a8
 8004c98:	edd8 6a79 	vldr	s13, [r8, #484]	; 0x1e4
 8004c9c:	f894 0091 	ldrb.w	r0, [r4, #145]	; 0x91
 8004ca0:	ee28 7a87 	vmul.f32	s14, s17, s14
 8004ca4:	ee67 7aa9 	vmul.f32	s15, s15, s19
 8004ca8:	ee37 0a09 	vadd.f32	s0, s14, s18
 8004cac:	ee77 7a86 	vadd.f32	s15, s15, s12
 8004cb0:	ee20 0a26 	vmul.f32	s0, s0, s13
 8004cb4:	ed84 7aae 	vstr	s14, [r4, #696]	; 0x2b8
 8004cb8:	edc4 7aaa 	vstr	s15, [r4, #680]	; 0x2a8
 8004cbc:	f7fd feca 	bl	8002a54 <waveCompute>
 8004cc0:	e9d4 32a5 	ldrd	r3, r2, [r4, #660]	; 0x294
 8004cc4:	3201      	adds	r2, #1
 8004cc6:	2b01      	cmp	r3, #1
 8004cc8:	edd4 8aa1 	vldr	s17, [r4, #644]	; 0x284
 8004ccc:	f8c4 2298 	str.w	r2, [r4, #664]	; 0x298
 8004cd0:	eef0 ba40 	vmov.f32	s23, s0
 8004cd4:	f000 8190 	beq.w	8004ff8 <I2S_DMATxHalfCplt+0x408>
 8004cd8:	2b03      	cmp	r3, #3
 8004cda:	f000 81c3 	beq.w	8005064 <I2S_DMATxHalfCplt+0x474>
 8004cde:	2b00      	cmp	r3, #0
 8004ce0:	f000 81a2 	beq.w	8005028 <I2S_DMATxHalfCplt+0x438>
 8004ce4:	ed94 0ab2 	vldr	s0, [r4, #712]	; 0x2c8
 8004ce8:	edc4 8aa2 	vstr	s17, [r4, #648]	; 0x288
 8004cec:	eeb5 0ac0 	vcmpe.f32	s0, #0.0
 8004cf0:	eef1 fa10 	vmrs	APSR_nzcv, fpscr
 8004cf4:	d508      	bpl.n	8004d08 <I2S_DMATxHalfCplt+0x118>
 8004cf6:	ee30 0a08 	vadd.f32	s0, s0, s16
 8004cfa:	eeb5 0ac0 	vcmpe.f32	s0, #0.0
 8004cfe:	eef1 fa10 	vmrs	APSR_nzcv, fpscr
 8004d02:	d4f8      	bmi.n	8004cf6 <I2S_DMATxHalfCplt+0x106>
 8004d04:	ed84 0ab2 	vstr	s0, [r4, #712]	; 0x2c8
 8004d08:	eeb4 0ac8 	vcmpe.f32	s0, s16
 8004d0c:	eef1 fa10 	vmrs	APSR_nzcv, fpscr
 8004d10:	db08      	blt.n	8004d24 <I2S_DMATxHalfCplt+0x134>
 8004d12:	ee30 0a48 	vsub.f32	s0, s0, s16
 8004d16:	eeb4 0ac8 	vcmpe.f32	s0, s16
 8004d1a:	eef1 fa10 	vmrs	APSR_nzcv, fpscr
 8004d1e:	daf8      	bge.n	8004d12 <I2S_DMATxHalfCplt+0x122>
 8004d20:	ed84 0ab2 	vstr	s0, [r4, #712]	; 0x2c8
 8004d24:	ee20 0a0a 	vmul.f32	s0, s0, s20
 8004d28:	ed94 caaf 	vldr	s24, [r4, #700]	; 0x2bc
 8004d2c:	f008 fb3e 	bl	800d3ac <lrintf>
 8004d30:	eb06 0080 	add.w	r0, r6, r0, lsl #2
 8004d34:	edd0 6a00 	vldr	s13, [r0]
 8004d38:	ed94 7ab1 	vldr	s14, [r4, #708]	; 0x2c4
 8004d3c:	edd4 5ab2 	vldr	s11, [r4, #712]	; 0x2c8
 8004d40:	ed98 6a7a 	vldr	s12, [r8, #488]	; 0x1e8
 8004d44:	f8d4 2298 	ldr.w	r2, [r4, #664]	; 0x298
 8004d48:	6fa3      	ldr	r3, [r4, #120]	; 0x78
 8004d4a:	ee6c 6a26 	vmul.f32	s13, s24, s13
 8004d4e:	ee27 7a29 	vmul.f32	s14, s14, s19
 8004d52:	ee76 7a89 	vadd.f32	s15, s13, s18
 8004d56:	429a      	cmp	r2, r3
 8004d58:	ee67 8aa8 	vmul.f32	s17, s15, s17
 8004d5c:	ee77 7a25 	vadd.f32	s15, s14, s11
 8004d60:	ee68 8a86 	vmul.f32	s17, s17, s12
 8004d64:	edc4 6ab6 	vstr	s13, [r4, #728]	; 0x2d8
 8004d68:	ee68 baab 	vmul.f32	s23, s17, s23
 8004d6c:	edc4 7ab2 	vstr	s15, [r4, #712]	; 0x2c8
 8004d70:	f080 808b 	bcs.w	8004e8a <I2S_DMATxHalfCplt+0x29a>
 8004d74:	f894 3270 	ldrb.w	r3, [r4, #624]	; 0x270
 8004d78:	b93b      	cbnz	r3, 8004d8a <I2S_DMATxHalfCplt+0x19a>
 8004d7a:	edd4 8a84 	vldr	s17, [r4, #528]	; 0x210
 8004d7e:	eef5 8a40 	vcmp.f32	s17, #0.0
 8004d82:	eef1 fa10 	vmrs	APSR_nzcv, fpscr
 8004d86:	f040 8179 	bne.w	800507c <I2S_DMATxHalfCplt+0x48c>
 8004d8a:	edd4 8a94 	vldr	s17, [r4, #592]	; 0x250
 8004d8e:	eef5 8a40 	vcmp.f32	s17, #0.0
 8004d92:	eef1 fa10 	vmrs	APSR_nzcv, fpscr
 8004d96:	f040 80c5 	bne.w	8004f24 <I2S_DMATxHalfCplt+0x334>
 8004d9a:	4859      	ldr	r0, [pc, #356]	; (8004f00 <I2S_DMATxHalfCplt+0x310>)
 8004d9c:	eeb0 0a6b 	vmov.f32	s0, s23
 8004da0:	f006 fc5e 	bl	800b660 <SVF_calcSample>
 8004da4:	4857      	ldr	r0, [pc, #348]	; (8004f04 <I2S_DMATxHalfCplt+0x314>)
 8004da6:	eef0 8a40 	vmov.f32	s17, s0
 8004daa:	eeb0 0a6b 	vmov.f32	s0, s23
 8004dae:	f006 fc57 	bl	800b660 <SVF_calcSample>
 8004db2:	7823      	ldrb	r3, [r4, #0]
 8004db4:	ee38 0a80 	vadd.f32	s0, s17, s0
 8004db8:	eef6 8a00 	vmov.f32	s17, #96	; 0x3f000000  0.5
 8004dbc:	ee60 8a28 	vmul.f32	s17, s0, s17
 8004dc0:	2b00      	cmp	r3, #0
 8004dc2:	f040 8083 	bne.w	8004ecc <I2S_DMATxHalfCplt+0x2dc>
 8004dc6:	f894 3024 	ldrb.w	r3, [r4, #36]	; 0x24
 8004dca:	2b00      	cmp	r3, #0
 8004dcc:	d177      	bne.n	8004ebe <I2S_DMATxHalfCplt+0x2ce>
 8004dce:	7863      	ldrb	r3, [r4, #1]
 8004dd0:	eeb0 0a68 	vmov.f32	s0, s17
 8004dd4:	2b00      	cmp	r3, #0
 8004dd6:	d163      	bne.n	8004ea0 <I2S_DMATxHalfCplt+0x2b0>
 8004dd8:	eef4 8ac9 	vcmpe.f32	s17, s18
 8004ddc:	eef1 fa10 	vmrs	APSR_nzcv, fpscr
 8004de0:	dd3f      	ble.n	8004e62 <I2S_DMATxHalfCplt+0x272>
 8004de2:	f647 73ff 	movw	r3, #32767	; 0x7fff
 8004de6:	eeb4 0ac9 	vcmpe.f32	s0, s18
 8004dea:	eef1 fa10 	vmrs	APSR_nzcv, fpscr
 8004dee:	dd24      	ble.n	8004e3a <I2S_DMATxHalfCplt+0x24a>
 8004df0:	f647 72ff 	movw	r2, #32767	; 0x7fff
 8004df4:	f825 3c04 	strh.w	r3, [r5, #-4]
 8004df8:	f825 2c02 	strh.w	r2, [r5, #-2]
 8004dfc:	3504      	adds	r5, #4
 8004dfe:	454d      	cmp	r5, r9
 8004e00:	f47f af18 	bne.w	8004c34 <I2S_DMATxHalfCplt+0x44>
 8004e04:	ecbd 8b0a 	vpop	{d8-d12}
 8004e08:	4b3f      	ldr	r3, [pc, #252]	; (8004f08 <I2S_DMATxHalfCplt+0x318>)
 8004e0a:	f44f 5200 	mov.w	r2, #8192	; 0x2000
 8004e0e:	831a      	strh	r2, [r3, #24]
 8004e10:	e8bd 8370 	ldmia.w	sp!, {r4, r5, r6, r8, r9, pc}
 8004e14:	f9b4 3074 	ldrsh.w	r3, [r4, #116]	; 0x74
 8004e18:	2b00      	cmp	r3, #0
 8004e1a:	f000 819d 	beq.w	8005158 <I2S_DMATxHalfCplt+0x568>
 8004e1e:	f007 f857 	bl	800bed0 <sequencer_newStep_action>
 8004e22:	6ee3      	ldr	r3, [r4, #108]	; 0x6c
 8004e24:	6723      	str	r3, [r4, #112]	; 0x70
 8004e26:	f8b4 3074 	ldrh.w	r3, [r4, #116]	; 0x74
 8004e2a:	3301      	adds	r3, #1
 8004e2c:	b21b      	sxth	r3, r3
 8004e2e:	2b0f      	cmp	r3, #15
 8004e30:	bfc8      	it	gt
 8004e32:	2300      	movgt	r3, #0
 8004e34:	f8a4 3074 	strh.w	r3, [r4, #116]	; 0x74
 8004e38:	e702      	b.n	8004c40 <I2S_DMATxHalfCplt+0x50>
 8004e3a:	eeff 7a00 	vmov.f32	s15, #240	; 0xbf800000 -1.0
 8004e3e:	eeb4 0ae7 	vcmpe.f32	s0, s15
 8004e42:	eef1 fa10 	vmrs	APSR_nzcv, fpscr
 8004e46:	bf48      	it	mi
 8004e48:	f248 0201 	movwmi	r2, #32769	; 0x8001
 8004e4c:	d4d2      	bmi.n	8004df4 <I2S_DMATxHalfCplt+0x204>
 8004e4e:	eddf 7a2f 	vldr	s15, [pc, #188]	; 8004f0c <I2S_DMATxHalfCplt+0x31c>
 8004e52:	ee60 7a27 	vmul.f32	s15, s0, s15
 8004e56:	eefd 7ae7 	vcvt.s32.f32	s15, s15
 8004e5a:	ee17 2a90 	vmov	r2, s15
 8004e5e:	b292      	uxth	r2, r2
 8004e60:	e7c8      	b.n	8004df4 <I2S_DMATxHalfCplt+0x204>
 8004e62:	eeff 7a00 	vmov.f32	s15, #240	; 0xbf800000 -1.0
 8004e66:	eef4 8ae7 	vcmpe.f32	s17, s15
 8004e6a:	eef1 fa10 	vmrs	APSR_nzcv, fpscr
 8004e6e:	bf48      	it	mi
 8004e70:	f248 0301 	movwmi	r3, #32769	; 0x8001
 8004e74:	d4b7      	bmi.n	8004de6 <I2S_DMATxHalfCplt+0x1f6>
 8004e76:	eddf 7a25 	vldr	s15, [pc, #148]	; 8004f0c <I2S_DMATxHalfCplt+0x31c>
 8004e7a:	ee68 7aa7 	vmul.f32	s15, s17, s15
 8004e7e:	eefd 7ae7 	vcvt.s32.f32	s15, s15
 8004e82:	ee17 3a90 	vmov	r3, s15
 8004e86:	b29b      	uxth	r3, r3
 8004e88:	e7ad      	b.n	8004de6 <I2S_DMATxHalfCplt+0x1f6>
 8004e8a:	f8d4 3280 	ldr.w	r3, [r4, #640]	; 0x280
 8004e8e:	f8c4 3290 	str.w	r3, [r4, #656]	; 0x290
 8004e92:	2200      	movs	r2, #0
 8004e94:	2303      	movs	r3, #3
 8004e96:	e9c4 32a5 	strd	r3, r2, [r4, #660]	; 0x294
 8004e9a:	edc4 aaa3 	vstr	s21, [r4, #652]	; 0x28c
 8004e9e:	e769      	b.n	8004d74 <I2S_DMATxHalfCplt+0x184>
 8004ea0:	491b      	ldr	r1, [pc, #108]	; (8004f10 <I2S_DMATxHalfCplt+0x320>)
 8004ea2:	481c      	ldr	r0, [pc, #112]	; (8004f14 <I2S_DMATxHalfCplt+0x324>)
 8004ea4:	f7fd fd30 	bl	8002908 <mono_chorus_compute>
 8004ea8:	491b      	ldr	r1, [pc, #108]	; (8004f18 <I2S_DMATxHalfCplt+0x328>)
 8004eaa:	481c      	ldr	r0, [pc, #112]	; (8004f1c <I2S_DMATxHalfCplt+0x32c>)
 8004eac:	eef0 7a40 	vmov.f32	s15, s0
 8004eb0:	eeb0 0a68 	vmov.f32	s0, s17
 8004eb4:	eef0 8a67 	vmov.f32	s17, s15
 8004eb8:	f7fd fd26 	bl	8002908 <mono_chorus_compute>
 8004ebc:	e78c      	b.n	8004dd8 <I2S_DMATxHalfCplt+0x1e8>
 8004ebe:	eeb0 0a68 	vmov.f32	s0, s17
 8004ec2:	f006 fb15 	bl	800b4f0 <Phaser_compute>
 8004ec6:	eef0 8a40 	vmov.f32	s17, s0
 8004eca:	e780      	b.n	8004dce <I2S_DMATxHalfCplt+0x1de>
 8004ecc:	eeb0 0a68 	vmov.f32	s0, s17
 8004ed0:	f7fc f868 	bl	8000fa4 <Delay_compute>
 8004ed4:	eef0 8a40 	vmov.f32	s17, s0
 8004ed8:	e775      	b.n	8004dc6 <I2S_DMATxHalfCplt+0x1d6>
 8004eda:	bf00      	nop
 8004edc:	40003c00 	.word	0x40003c00
 8004ee0:	2000095c 	.word	0x2000095c
 8004ee4:	10000000 	.word	0x10000000
 8004ee8:	0800f450 	.word	0x0800f450
 8004eec:	40c90fdb 	.word	0x40c90fdb
 8004ef0:	4322f983 	.word	0x4322f983
 8004ef4:	39156592 	.word	0x39156592
 8004ef8:	00000000 	.word	0x00000000
 8004efc:	3f733333 	.word	0x3f733333
 8004f00:	100001f0 	.word	0x100001f0
 8004f04:	10000230 	.word	0x10000230
 8004f08:	40020c00 	.word	0x40020c00
 8004f0c:	46fffe00 	.word	0x46fffe00
 8004f10:	10000004 	.word	0x10000004
 8004f14:	100012e8 	.word	0x100012e8
 8004f18:	10000014 	.word	0x10000014
 8004f1c:	100028e0 	.word	0x100028e0
 8004f20:	100010f8 	.word	0x100010f8
 8004f24:	ed94 0a97 	vldr	s0, [r4, #604]	; 0x25c
 8004f28:	eeb5 0ac0 	vcmpe.f32	s0, #0.0
 8004f2c:	eef1 fa10 	vmrs	APSR_nzcv, fpscr
 8004f30:	d508      	bpl.n	8004f44 <I2S_DMATxHalfCplt+0x354>
 8004f32:	ee30 0a08 	vadd.f32	s0, s0, s16
 8004f36:	eeb5 0ac0 	vcmpe.f32	s0, #0.0
 8004f3a:	eef1 fa10 	vmrs	APSR_nzcv, fpscr
 8004f3e:	d4f8      	bmi.n	8004f32 <I2S_DMATxHalfCplt+0x342>
 8004f40:	ed84 0a97 	vstr	s0, [r4, #604]	; 0x25c
 8004f44:	eeb4 0ac8 	vcmpe.f32	s0, s16
 8004f48:	eef1 fa10 	vmrs	APSR_nzcv, fpscr
 8004f4c:	db08      	blt.n	8004f60 <I2S_DMATxHalfCplt+0x370>
 8004f4e:	ee30 0a48 	vsub.f32	s0, s0, s16
 8004f52:	eeb4 0ac8 	vcmpe.f32	s0, s16
 8004f56:	eef1 fa10 	vmrs	APSR_nzcv, fpscr
 8004f5a:	daf8      	bge.n	8004f4e <I2S_DMATxHalfCplt+0x35e>
 8004f5c:	ed84 0a97 	vstr	s0, [r4, #604]	; 0x25c
 8004f60:	ee20 0a0a 	vmul.f32	s0, s0, s20
 8004f64:	f008 fa22 	bl	800d3ac <lrintf>
 8004f68:	eb06 0080 	add.w	r0, r6, r0, lsl #2
 8004f6c:	ed90 7a00 	vldr	s14, [r0]
 8004f70:	edd4 6a96 	vldr	s13, [r4, #600]	; 0x258
 8004f74:	edd4 5a97 	vldr	s11, [r4, #604]	; 0x25c
 8004f78:	4b85      	ldr	r3, [pc, #532]	; (8005190 <I2S_DMATxHalfCplt+0x5a0>)
 8004f7a:	eeb6 6a00 	vmov.f32	s12, #96	; 0x3f000000  0.5
 8004f7e:	ee37 7a09 	vadd.f32	s14, s14, s18
 8004f82:	ee68 8a86 	vmul.f32	s17, s17, s12
 8004f86:	ee67 8a28 	vmul.f32	s17, s14, s17
 8004f8a:	ee26 7aa9 	vmul.f32	s14, s13, s19
 8004f8e:	ee78 7a89 	vadd.f32	s15, s17, s18
 8004f92:	ee37 7a25 	vadd.f32	s14, s14, s11
 8004f96:	edc4 8a9b 	vstr	s17, [r4, #620]	; 0x26c
 8004f9a:	ed84 7a97 	vstr	s14, [r4, #604]	; 0x25c
 8004f9e:	ed93 7a00 	vldr	s14, [r3]
 8004fa2:	ee67 7a87 	vmul.f32	s15, s15, s14
 8004fa6:	eef4 7acb 	vcmpe.f32	s15, s22
 8004faa:	eef1 fa10 	vmrs	APSR_nzcv, fpscr
 8004fae:	f300 80ce 	bgt.w	800514e <I2S_DMATxHalfCplt+0x55e>
 8004fb2:	ee67 7a86 	vmul.f32	s15, s15, s12
 8004fb6:	ed9f 7a77 	vldr	s14, [pc, #476]	; 8005194 <I2S_DMATxHalfCplt+0x5a4>
 8004fba:	ee27 7a87 	vmul.f32	s14, s15, s14
 8004fbe:	eef1 5a04 	vmov.f32	s11, #20	; 0x40a00000  5.0
 8004fc2:	ee77 6a07 	vadd.f32	s13, s14, s14
 8004fc6:	ee27 6a07 	vmul.f32	s12, s14, s14
 8004fca:	ee66 6a87 	vmul.f32	s13, s13, s14
 8004fce:	eeba 5a0e 	vmov.f32	s10, #174	; 0xc1700000 -15.0
 8004fd2:	ee26 6a07 	vmul.f32	s12, s12, s14
 8004fd6:	ee76 6ae5 	vsub.f32	s13, s13, s11
 8004fda:	ee27 7a05 	vmul.f32	s14, s14, s10
 8004fde:	eef0 5a08 	vmov.f32	s11, #8	; 0x40400000  3.0
 8004fe2:	ee36 7a07 	vadd.f32	s14, s12, s14
 8004fe6:	ee66 6aa5 	vmul.f32	s13, s13, s11
 8004fea:	ee87 6a26 	vdiv.f32	s12, s14, s13
 8004fee:	edc4 7a8d 	vstr	s15, [r4, #564]	; 0x234
 8004ff2:	ed84 6a8e 	vstr	s12, [r4, #568]	; 0x238
 8004ff6:	e6d0      	b.n	8004d9a <I2S_DMATxHalfCplt+0x1aa>
 8004ff8:	ed94 7a9e 	vldr	s14, [r4, #632]	; 0x278
 8004ffc:	edd4 7a9f 	vldr	s15, [r4, #636]	; 0x27c
 8005000:	ee78 8ac7 	vsub.f32	s17, s17, s14
 8005004:	eef4 8ae7 	vcmpe.f32	s17, s15
 8005008:	eef1 fa10 	vmrs	APSR_nzcv, fpscr
 800500c:	edc4 8aa1 	vstr	s17, [r4, #644]	; 0x284
 8005010:	f63f ae68 	bhi.w	8004ce4 <I2S_DMATxHalfCplt+0xf4>
 8005014:	2302      	movs	r3, #2
 8005016:	eef0 8a67 	vmov.f32	s17, s15
 800501a:	edc4 7aa1 	vstr	s15, [r4, #644]	; 0x284
 800501e:	edc4 aaa4 	vstr	s21, [r4, #656]	; 0x290
 8005022:	f8c4 3294 	str.w	r3, [r4, #660]	; 0x294
 8005026:	e65d      	b.n	8004ce4 <I2S_DMATxHalfCplt+0xf4>
 8005028:	ed94 7aa4 	vldr	s14, [r4, #656]	; 0x290
 800502c:	edd4 7aa3 	vldr	s15, [r4, #652]	; 0x28c
 8005030:	ee78 8a87 	vadd.f32	s17, s17, s14
 8005034:	eef4 8ae7 	vcmpe.f32	s17, s15
 8005038:	eef1 fa10 	vmrs	APSR_nzcv, fpscr
 800503c:	edc4 8aa1 	vstr	s17, [r4, #644]	; 0x284
 8005040:	f6ff ae50 	blt.w	8004ce4 <I2S_DMATxHalfCplt+0xf4>
 8005044:	f8d4 3278 	ldr.w	r3, [r4, #632]	; 0x278
 8005048:	f8c4 3290 	str.w	r3, [r4, #656]	; 0x290
 800504c:	f8d4 327c 	ldr.w	r3, [r4, #636]	; 0x27c
 8005050:	f8c4 328c 	str.w	r3, [r4, #652]	; 0x28c
 8005054:	2301      	movs	r3, #1
 8005056:	eef0 8a67 	vmov.f32	s17, s15
 800505a:	edc4 7aa1 	vstr	s15, [r4, #644]	; 0x284
 800505e:	f8c4 3294 	str.w	r3, [r4, #660]	; 0x294
 8005062:	e63f      	b.n	8004ce4 <I2S_DMATxHalfCplt+0xf4>
 8005064:	edd4 7aa0 	vldr	s15, [r4, #640]	; 0x280
 8005068:	ee78 8ae7 	vsub.f32	s17, s17, s15
 800506c:	eef5 8ac0 	vcmpe.f32	s17, #0.0
 8005070:	eef1 fa10 	vmrs	APSR_nzcv, fpscr
 8005074:	d97f      	bls.n	8005176 <I2S_DMATxHalfCplt+0x586>
 8005076:	edc4 8aa1 	vstr	s17, [r4, #644]	; 0x284
 800507a:	e633      	b.n	8004ce4 <I2S_DMATxHalfCplt+0xf4>
 800507c:	ed94 0a87 	vldr	s0, [r4, #540]	; 0x21c
 8005080:	eeb5 0ac0 	vcmpe.f32	s0, #0.0
 8005084:	eef1 fa10 	vmrs	APSR_nzcv, fpscr
 8005088:	d508      	bpl.n	800509c <I2S_DMATxHalfCplt+0x4ac>
 800508a:	ee30 0a08 	vadd.f32	s0, s0, s16
 800508e:	eeb5 0ac0 	vcmpe.f32	s0, #0.0
 8005092:	eef1 fa10 	vmrs	APSR_nzcv, fpscr
 8005096:	d4f8      	bmi.n	800508a <I2S_DMATxHalfCplt+0x49a>
 8005098:	ed84 0a87 	vstr	s0, [r4, #540]	; 0x21c
 800509c:	eeb4 0ac8 	vcmpe.f32	s0, s16
 80050a0:	eef1 fa10 	vmrs	APSR_nzcv, fpscr
 80050a4:	db08      	blt.n	80050b8 <I2S_DMATxHalfCplt+0x4c8>
 80050a6:	ee30 0a48 	vsub.f32	s0, s0, s16
 80050aa:	eeb4 0ac8 	vcmpe.f32	s0, s16
 80050ae:	eef1 fa10 	vmrs	APSR_nzcv, fpscr
 80050b2:	daf8      	bge.n	80050a6 <I2S_DMATxHalfCplt+0x4b6>
 80050b4:	ed84 0a87 	vstr	s0, [r4, #540]	; 0x21c
 80050b8:	ee20 0a0a 	vmul.f32	s0, s0, s20
 80050bc:	f008 f976 	bl	800d3ac <lrintf>
 80050c0:	eb06 0080 	add.w	r0, r6, r0, lsl #2
 80050c4:	edd0 7a00 	vldr	s15, [r0]
 80050c8:	ed94 7a86 	vldr	s14, [r4, #536]	; 0x218
 80050cc:	ed94 6a87 	vldr	s12, [r4, #540]	; 0x21c
 80050d0:	4b31      	ldr	r3, [pc, #196]	; (8005198 <I2S_DMATxHalfCplt+0x5a8>)
 80050d2:	eef6 6a00 	vmov.f32	s13, #96	; 0x3f000000  0.5
 80050d6:	ee77 7a89 	vadd.f32	s15, s15, s18
 80050da:	ee68 8aa6 	vmul.f32	s17, s17, s13
 80050de:	ee27 7a29 	vmul.f32	s14, s14, s19
 80050e2:	ee67 8aa8 	vmul.f32	s17, s15, s17
 80050e6:	ee37 7a06 	vadd.f32	s14, s14, s12
 80050ea:	ee78 7a89 	vadd.f32	s15, s17, s18
 80050ee:	ed84 7a87 	vstr	s14, [r4, #540]	; 0x21c
 80050f2:	ed93 7a00 	vldr	s14, [r3]
 80050f6:	edc4 8a8b 	vstr	s17, [r4, #556]	; 0x22c
 80050fa:	ee67 7a87 	vmul.f32	s15, s15, s14
 80050fe:	eef4 7acb 	vcmpe.f32	s15, s22
 8005102:	eef1 fa10 	vmrs	APSR_nzcv, fpscr
 8005106:	dc3e      	bgt.n	8005186 <I2S_DMATxHalfCplt+0x596>
 8005108:	ee67 7aa6 	vmul.f32	s15, s15, s13
 800510c:	ed9f 7a21 	vldr	s14, [pc, #132]	; 8005194 <I2S_DMATxHalfCplt+0x5a4>
 8005110:	ee27 7a87 	vmul.f32	s14, s15, s14
 8005114:	eef1 5a04 	vmov.f32	s11, #20	; 0x40a00000  5.0
 8005118:	ee77 6a07 	vadd.f32	s13, s14, s14
 800511c:	ee27 6a07 	vmul.f32	s12, s14, s14
 8005120:	ee66 6a87 	vmul.f32	s13, s13, s14
 8005124:	eeba 5a0e 	vmov.f32	s10, #174	; 0xc1700000 -15.0
 8005128:	ee76 6ae5 	vsub.f32	s13, s13, s11
 800512c:	ee26 6a07 	vmul.f32	s12, s12, s14
 8005130:	ee27 7a05 	vmul.f32	s14, s14, s10
 8005134:	eef0 5a08 	vmov.f32	s11, #8	; 0x40400000  3.0
 8005138:	ee36 6a07 	vadd.f32	s12, s12, s14
 800513c:	ee26 7aa5 	vmul.f32	s14, s13, s11
 8005140:	eec6 6a07 	vdiv.f32	s13, s12, s14
 8005144:	edc4 7a7d 	vstr	s15, [r4, #500]	; 0x1f4
 8005148:	edc4 6a7e 	vstr	s13, [r4, #504]	; 0x1f8
 800514c:	e61d      	b.n	8004d8a <I2S_DMATxHalfCplt+0x19a>
 800514e:	ed9f 6a13 	vldr	s12, [pc, #76]	; 800519c <I2S_DMATxHalfCplt+0x5ac>
 8005152:	eddf 7a13 	vldr	s15, [pc, #76]	; 80051a0 <I2S_DMATxHalfCplt+0x5b0>
 8005156:	e74a      	b.n	8004fee <I2S_DMATxHalfCplt+0x3fe>
 8005158:	4b12      	ldr	r3, [pc, #72]	; (80051a4 <I2S_DMATxHalfCplt+0x5b4>)
 800515a:	781b      	ldrb	r3, [r3, #0]
 800515c:	2b00      	cmp	r3, #0
 800515e:	f43f ae5e 	beq.w	8004e1e <I2S_DMATxHalfCplt+0x22e>
 8005162:	4b11      	ldr	r3, [pc, #68]	; (80051a8 <I2S_DMATxHalfCplt+0x5b8>)
 8005164:	781b      	ldrb	r3, [r3, #0]
 8005166:	2b00      	cmp	r3, #0
 8005168:	f47f ae59 	bne.w	8004e1e <I2S_DMATxHalfCplt+0x22e>
 800516c:	f7fc fcc4 	bl	8001af8 <MagicPatch.part.0>
 8005170:	f7fc fabe 	bl	80016f0 <MagicFX.part.0>
 8005174:	e653      	b.n	8004e1e <I2S_DMATxHalfCplt+0x22e>
 8005176:	2304      	movs	r3, #4
 8005178:	eef0 8a6a 	vmov.f32	s17, s21
 800517c:	edc4 aaa1 	vstr	s21, [r4, #644]	; 0x284
 8005180:	f8c4 3294 	str.w	r3, [r4, #660]	; 0x294
 8005184:	e5ae      	b.n	8004ce4 <I2S_DMATxHalfCplt+0xf4>
 8005186:	eddf 6a05 	vldr	s13, [pc, #20]	; 800519c <I2S_DMATxHalfCplt+0x5ac>
 800518a:	eddf 7a05 	vldr	s15, [pc, #20]	; 80051a0 <I2S_DMATxHalfCplt+0x5b0>
 800518e:	e7d9      	b.n	8005144 <I2S_DMATxHalfCplt+0x554>
 8005190:	2001edc8 	.word	0x2001edc8
 8005194:	40490fdb 	.word	0x40490fdb
 8005198:	2001edc4 	.word	0x2001edc4
 800519c:	413a1203 	.word	0x413a1203
 80051a0:	3ef33333 	.word	0x3ef33333
 80051a4:	20000054 	.word	0x20000054
 80051a8:	2001edcc 	.word	0x2001edcc

080051ac <HAL_DMA_IRQHandler>:
HAL_DMA_IRQHandler():
 80051ac:	6803      	ldr	r3, [r0, #0]
 80051ae:	4aac      	ldr	r2, [pc, #688]	; (8005460 <HAL_DMA_IRQHandler+0x2b4>)
 80051b0:	4293      	cmp	r3, r2
 80051b2:	b570      	push	{r4, r5, r6, lr}
 80051b4:	4619      	mov	r1, r3
 80051b6:	4604      	mov	r4, r0
 80051b8:	d93d      	bls.n	8005236 <HAL_DMA_IRQHandler+0x8a>
 80051ba:	48aa      	ldr	r0, [pc, #680]	; (8005464 <HAL_DMA_IRQHandler+0x2b8>)
 80051bc:	f5a2 6289 	sub.w	r2, r2, #1096	; 0x448
 80051c0:	4293      	cmp	r3, r2
 80051c2:	6840      	ldr	r0, [r0, #4]
 80051c4:	d040      	beq.n	8005248 <HAL_DMA_IRQHandler+0x9c>
 80051c6:	f502 6280 	add.w	r2, r2, #1024	; 0x400
 80051ca:	4293      	cmp	r3, r2
 80051cc:	d03c      	beq.n	8005248 <HAL_DMA_IRQHandler+0x9c>
 80051ce:	f5a2 7268 	sub.w	r2, r2, #928	; 0x3a0
 80051d2:	4293      	cmp	r3, r2
 80051d4:	d038      	beq.n	8005248 <HAL_DMA_IRQHandler+0x9c>
 80051d6:	f502 6280 	add.w	r2, r2, #1024	; 0x400
 80051da:	4293      	cmp	r3, r2
 80051dc:	d034      	beq.n	8005248 <HAL_DMA_IRQHandler+0x9c>
 80051de:	f5a2 6289 	sub.w	r2, r2, #1096	; 0x448
 80051e2:	4293      	cmp	r3, r2
 80051e4:	f000 8718 	beq.w	8006018 <HAL_DMA_IRQHandler+0xe6c>
 80051e8:	f502 6280 	add.w	r2, r2, #1024	; 0x400
 80051ec:	4293      	cmp	r3, r2
 80051ee:	f000 8713 	beq.w	8006018 <HAL_DMA_IRQHandler+0xe6c>
 80051f2:	f5a2 7268 	sub.w	r2, r2, #928	; 0x3a0
 80051f6:	4293      	cmp	r3, r2
 80051f8:	f000 870e 	beq.w	8006018 <HAL_DMA_IRQHandler+0xe6c>
 80051fc:	f502 6280 	add.w	r2, r2, #1024	; 0x400
 8005200:	4293      	cmp	r3, r2
 8005202:	f000 8709 	beq.w	8006018 <HAL_DMA_IRQHandler+0xe6c>
 8005206:	f5a2 6289 	sub.w	r2, r2, #1096	; 0x448
 800520a:	4293      	cmp	r3, r2
 800520c:	f001 82da 	beq.w	80067c4 <HAL_DMA_IRQHandler+0x1618>
 8005210:	f502 6280 	add.w	r2, r2, #1024	; 0x400
 8005214:	4293      	cmp	r3, r2
 8005216:	f001 82d5 	beq.w	80067c4 <HAL_DMA_IRQHandler+0x1618>
 800521a:	f5a2 7268 	sub.w	r2, r2, #928	; 0x3a0
 800521e:	4293      	cmp	r3, r2
 8005220:	f001 82d0 	beq.w	80067c4 <HAL_DMA_IRQHandler+0x1618>
 8005224:	f502 6280 	add.w	r2, r2, #1024	; 0x400
 8005228:	4293      	cmp	r3, r2
 800522a:	bf0c      	ite	eq
 800522c:	f44f 2200 	moveq.w	r2, #524288	; 0x80000
 8005230:	f04f 7200 	movne.w	r2, #33554432	; 0x2000000
 8005234:	e009      	b.n	800524a <HAL_DMA_IRQHandler+0x9e>
 8005236:	4a8c      	ldr	r2, [pc, #560]	; (8005468 <HAL_DMA_IRQHandler+0x2bc>)
 8005238:	4293      	cmp	r3, r2
 800523a:	f240 83d5 	bls.w	80059e8 <HAL_DMA_IRQHandler+0x83c>
 800523e:	4889      	ldr	r0, [pc, #548]	; (8005464 <HAL_DMA_IRQHandler+0x2b8>)
 8005240:	3aa8      	subs	r2, #168	; 0xa8
 8005242:	4293      	cmp	r3, r2
 8005244:	6800      	ldr	r0, [r0, #0]
 8005246:	d1be      	bne.n	80051c6 <HAL_DMA_IRQHandler+0x1a>
 8005248:	2208      	movs	r2, #8
 800524a:	4210      	tst	r0, r2
 800524c:	bf14      	ite	ne
 800524e:	2201      	movne	r2, #1
 8005250:	2200      	moveq	r2, #0
 8005252:	2a00      	cmp	r2, #0
 8005254:	d06d      	beq.n	8005332 <HAL_DMA_IRQHandler+0x186>
 8005256:	681a      	ldr	r2, [r3, #0]
 8005258:	0755      	lsls	r5, r2, #29
 800525a:	d56a      	bpl.n	8005332 <HAL_DMA_IRQHandler+0x186>
 800525c:	681a      	ldr	r2, [r3, #0]
 800525e:	4880      	ldr	r0, [pc, #512]	; (8005460 <HAL_DMA_IRQHandler+0x2b4>)
 8005260:	f022 0204 	bic.w	r2, r2, #4
 8005264:	4283      	cmp	r3, r0
 8005266:	601a      	str	r2, [r3, #0]
 8005268:	f240 84c7 	bls.w	8005bfa <HAL_DMA_IRQHandler+0xa4e>
 800526c:	4a7f      	ldr	r2, [pc, #508]	; (800546c <HAL_DMA_IRQHandler+0x2c0>)
 800526e:	4293      	cmp	r3, r2
 8005270:	d049      	beq.n	8005306 <HAL_DMA_IRQHandler+0x15a>
 8005272:	f502 6280 	add.w	r2, r2, #1024	; 0x400
 8005276:	4293      	cmp	r3, r2
 8005278:	d045      	beq.n	8005306 <HAL_DMA_IRQHandler+0x15a>
 800527a:	f5a2 7268 	sub.w	r2, r2, #928	; 0x3a0
 800527e:	4293      	cmp	r3, r2
 8005280:	d041      	beq.n	8005306 <HAL_DMA_IRQHandler+0x15a>
 8005282:	f502 6280 	add.w	r2, r2, #1024	; 0x400
 8005286:	4293      	cmp	r3, r2
 8005288:	f001 8406 	beq.w	8006a98 <HAL_DMA_IRQHandler+0x18ec>
 800528c:	f5a2 6289 	sub.w	r2, r2, #1096	; 0x448
 8005290:	4293      	cmp	r3, r2
 8005292:	f000 86c5 	beq.w	8006020 <HAL_DMA_IRQHandler+0xe74>
 8005296:	f502 6280 	add.w	r2, r2, #1024	; 0x400
 800529a:	4293      	cmp	r3, r2
 800529c:	f001 8448 	beq.w	8006b30 <HAL_DMA_IRQHandler+0x1984>
 80052a0:	f5a2 7268 	sub.w	r2, r2, #928	; 0x3a0
 80052a4:	4293      	cmp	r3, r2
 80052a6:	f000 86bb 	beq.w	8006020 <HAL_DMA_IRQHandler+0xe74>
 80052aa:	f502 6280 	add.w	r2, r2, #1024	; 0x400
 80052ae:	4293      	cmp	r3, r2
 80052b0:	f001 850c 	beq.w	8006ccc <HAL_DMA_IRQHandler+0x1b20>
 80052b4:	f5a2 6289 	sub.w	r2, r2, #1096	; 0x448
 80052b8:	4293      	cmp	r3, r2
 80052ba:	f001 8470 	beq.w	8006b9e <HAL_DMA_IRQHandler+0x19f2>
 80052be:	f502 6280 	add.w	r2, r2, #1024	; 0x400
 80052c2:	4293      	cmp	r3, r2
 80052c4:	f001 846b 	beq.w	8006b9e <HAL_DMA_IRQHandler+0x19f2>
 80052c8:	f5a2 7268 	sub.w	r2, r2, #928	; 0x3a0
 80052cc:	4293      	cmp	r3, r2
 80052ce:	f001 8466 	beq.w	8006b9e <HAL_DMA_IRQHandler+0x19f2>
 80052d2:	f502 6280 	add.w	r2, r2, #1024	; 0x400
 80052d6:	4293      	cmp	r3, r2
 80052d8:	f001 85b7 	beq.w	8006e4a <HAL_DMA_IRQHandler+0x1c9e>
 80052dc:	4d61      	ldr	r5, [pc, #388]	; (8005464 <HAL_DMA_IRQHandler+0x2b8>)
 80052de:	f04f 7200 	mov.w	r2, #33554432	; 0x2000000
 80052e2:	60ea      	str	r2, [r5, #12]
 80052e4:	6ce0      	ldr	r0, [r4, #76]	; 0x4c
 80052e6:	6ca2      	ldr	r2, [r4, #72]	; 0x48
 80052e8:	f040 0001 	orr.w	r0, r0, #1
 80052ec:	64e0      	str	r0, [r4, #76]	; 0x4c
 80052ee:	f04f 0c04 	mov.w	ip, #4
 80052f2:	2000      	movs	r0, #0
 80052f4:	f884 c035 	strb.w	ip, [r4, #53]	; 0x35
 80052f8:	f884 0034 	strb.w	r0, [r4, #52]	; 0x34
 80052fc:	b9aa      	cbnz	r2, 800532a <HAL_DMA_IRQHandler+0x17e>
 80052fe:	6868      	ldr	r0, [r5, #4]
 8005300:	f44f 0280 	mov.w	r2, #4194304	; 0x400000
 8005304:	e060      	b.n	80053c8 <HAL_DMA_IRQHandler+0x21c>
 8005306:	4d57      	ldr	r5, [pc, #348]	; (8005464 <HAL_DMA_IRQHandler+0x2b8>)
 8005308:	2208      	movs	r2, #8
 800530a:	60ea      	str	r2, [r5, #12]
 800530c:	6ce0      	ldr	r0, [r4, #76]	; 0x4c
 800530e:	6ca2      	ldr	r2, [r4, #72]	; 0x48
 8005310:	f040 0001 	orr.w	r0, r0, #1
 8005314:	64e0      	str	r0, [r4, #76]	; 0x4c
 8005316:	f04f 0c04 	mov.w	ip, #4
 800531a:	2000      	movs	r0, #0
 800531c:	f884 c035 	strb.w	ip, [r4, #53]	; 0x35
 8005320:	f884 0034 	strb.w	r0, [r4, #52]	; 0x34
 8005324:	2a00      	cmp	r2, #0
 8005326:	f001 8266 	beq.w	80067f6 <HAL_DMA_IRQHandler+0x164a>
 800532a:	4620      	mov	r0, r4
 800532c:	4790      	blx	r2
 800532e:	6823      	ldr	r3, [r4, #0]
 8005330:	4619      	mov	r1, r3
 8005332:	4a4b      	ldr	r2, [pc, #300]	; (8005460 <HAL_DMA_IRQHandler+0x2b4>)
 8005334:	4293      	cmp	r3, r2
 8005336:	d93d      	bls.n	80053b4 <HAL_DMA_IRQHandler+0x208>
 8005338:	484a      	ldr	r0, [pc, #296]	; (8005464 <HAL_DMA_IRQHandler+0x2b8>)
 800533a:	f5a2 6289 	sub.w	r2, r2, #1096	; 0x448
 800533e:	4293      	cmp	r3, r2
 8005340:	6840      	ldr	r0, [r0, #4]
 8005342:	d040      	beq.n	80053c6 <HAL_DMA_IRQHandler+0x21a>
 8005344:	f502 6280 	add.w	r2, r2, #1024	; 0x400
 8005348:	4293      	cmp	r3, r2
 800534a:	d03c      	beq.n	80053c6 <HAL_DMA_IRQHandler+0x21a>
 800534c:	f5a2 7268 	sub.w	r2, r2, #928	; 0x3a0
 8005350:	4293      	cmp	r3, r2
 8005352:	d038      	beq.n	80053c6 <HAL_DMA_IRQHandler+0x21a>
 8005354:	f502 6280 	add.w	r2, r2, #1024	; 0x400
 8005358:	4293      	cmp	r3, r2
 800535a:	d034      	beq.n	80053c6 <HAL_DMA_IRQHandler+0x21a>
 800535c:	f5a2 6289 	sub.w	r2, r2, #1096	; 0x448
 8005360:	4293      	cmp	r3, r2
 8005362:	f000 8671 	beq.w	8006048 <HAL_DMA_IRQHandler+0xe9c>
 8005366:	f502 6280 	add.w	r2, r2, #1024	; 0x400
 800536a:	4293      	cmp	r3, r2
 800536c:	f000 866c 	beq.w	8006048 <HAL_DMA_IRQHandler+0xe9c>
 8005370:	f5a2 7268 	sub.w	r2, r2, #928	; 0x3a0
 8005374:	4293      	cmp	r3, r2
 8005376:	f000 8667 	beq.w	8006048 <HAL_DMA_IRQHandler+0xe9c>
 800537a:	f502 6280 	add.w	r2, r2, #1024	; 0x400
 800537e:	4293      	cmp	r3, r2
 8005380:	f000 8662 	beq.w	8006048 <HAL_DMA_IRQHandler+0xe9c>
 8005384:	f5a2 6289 	sub.w	r2, r2, #1096	; 0x448
 8005388:	4293      	cmp	r3, r2
 800538a:	f001 8223 	beq.w	80067d4 <HAL_DMA_IRQHandler+0x1628>
 800538e:	f502 6280 	add.w	r2, r2, #1024	; 0x400
 8005392:	4293      	cmp	r3, r2
 8005394:	f001 821e 	beq.w	80067d4 <HAL_DMA_IRQHandler+0x1628>
 8005398:	f5a2 7268 	sub.w	r2, r2, #928	; 0x3a0
 800539c:	4293      	cmp	r3, r2
 800539e:	f001 8219 	beq.w	80067d4 <HAL_DMA_IRQHandler+0x1628>
 80053a2:	f502 6280 	add.w	r2, r2, #1024	; 0x400
 80053a6:	4293      	cmp	r3, r2
 80053a8:	bf0c      	ite	eq
 80053aa:	f44f 3280 	moveq.w	r2, #65536	; 0x10000
 80053ae:	f44f 0280 	movne.w	r2, #4194304	; 0x400000
 80053b2:	e009      	b.n	80053c8 <HAL_DMA_IRQHandler+0x21c>
 80053b4:	4a2c      	ldr	r2, [pc, #176]	; (8005468 <HAL_DMA_IRQHandler+0x2bc>)
 80053b6:	4293      	cmp	r3, r2
 80053b8:	f240 8375 	bls.w	8005aa6 <HAL_DMA_IRQHandler+0x8fa>
 80053bc:	4829      	ldr	r0, [pc, #164]	; (8005464 <HAL_DMA_IRQHandler+0x2b8>)
 80053be:	3aa8      	subs	r2, #168	; 0xa8
 80053c0:	4293      	cmp	r3, r2
 80053c2:	6800      	ldr	r0, [r0, #0]
 80053c4:	d1be      	bne.n	8005344 <HAL_DMA_IRQHandler+0x198>
 80053c6:	4a2a      	ldr	r2, [pc, #168]	; (8005470 <HAL_DMA_IRQHandler+0x2c4>)
 80053c8:	4202      	tst	r2, r0
 80053ca:	bf14      	ite	ne
 80053cc:	2201      	movne	r2, #1
 80053ce:	2200      	moveq	r2, #0
 80053d0:	2a00      	cmp	r2, #0
 80053d2:	d064      	beq.n	800549e <HAL_DMA_IRQHandler+0x2f2>
 80053d4:	695a      	ldr	r2, [r3, #20]
 80053d6:	0610      	lsls	r0, r2, #24
 80053d8:	d561      	bpl.n	800549e <HAL_DMA_IRQHandler+0x2f2>
 80053da:	695a      	ldr	r2, [r3, #20]
 80053dc:	4820      	ldr	r0, [pc, #128]	; (8005460 <HAL_DMA_IRQHandler+0x2b4>)
 80053de:	f022 0280 	bic.w	r2, r2, #128	; 0x80
 80053e2:	4281      	cmp	r1, r0
 80053e4:	615a      	str	r2, [r3, #20]
 80053e6:	f240 83ae 	bls.w	8005b46 <HAL_DMA_IRQHandler+0x99a>
 80053ea:	4a20      	ldr	r2, [pc, #128]	; (800546c <HAL_DMA_IRQHandler+0x2c0>)
 80053ec:	4293      	cmp	r3, r2
 80053ee:	d043      	beq.n	8005478 <HAL_DMA_IRQHandler+0x2cc>
 80053f0:	f502 6280 	add.w	r2, r2, #1024	; 0x400
 80053f4:	4293      	cmp	r3, r2
 80053f6:	d03f      	beq.n	8005478 <HAL_DMA_IRQHandler+0x2cc>
 80053f8:	f5a2 7268 	sub.w	r2, r2, #928	; 0x3a0
 80053fc:	4293      	cmp	r3, r2
 80053fe:	d03b      	beq.n	8005478 <HAL_DMA_IRQHandler+0x2cc>
 8005400:	f502 6280 	add.w	r2, r2, #1024	; 0x400
 8005404:	4293      	cmp	r3, r2
 8005406:	d037      	beq.n	8005478 <HAL_DMA_IRQHandler+0x2cc>
 8005408:	f5a2 6289 	sub.w	r2, r2, #1096	; 0x448
 800540c:	4293      	cmp	r3, r2
 800540e:	f001 820f 	beq.w	8006830 <HAL_DMA_IRQHandler+0x1684>
 8005412:	f502 6280 	add.w	r2, r2, #1024	; 0x400
 8005416:	4293      	cmp	r3, r2
 8005418:	f001 820a 	beq.w	8006830 <HAL_DMA_IRQHandler+0x1684>
 800541c:	f5a2 7268 	sub.w	r2, r2, #928	; 0x3a0
 8005420:	4293      	cmp	r3, r2
 8005422:	f001 8205 	beq.w	8006830 <HAL_DMA_IRQHandler+0x1684>
 8005426:	f502 6280 	add.w	r2, r2, #1024	; 0x400
 800542a:	4293      	cmp	r3, r2
 800542c:	f001 8200 	beq.w	8006830 <HAL_DMA_IRQHandler+0x1684>
 8005430:	f5a2 6289 	sub.w	r2, r2, #1096	; 0x448
 8005434:	4293      	cmp	r3, r2
 8005436:	f001 83ae 	beq.w	8006b96 <HAL_DMA_IRQHandler+0x19ea>
 800543a:	f502 6280 	add.w	r2, r2, #1024	; 0x400
 800543e:	4293      	cmp	r3, r2
 8005440:	f001 83a9 	beq.w	8006b96 <HAL_DMA_IRQHandler+0x19ea>
 8005444:	f5a2 7268 	sub.w	r2, r2, #928	; 0x3a0
 8005448:	4293      	cmp	r3, r2
 800544a:	f001 83a4 	beq.w	8006b96 <HAL_DMA_IRQHandler+0x19ea>
 800544e:	4909      	ldr	r1, [pc, #36]	; (8005474 <HAL_DMA_IRQHandler+0x2c8>)
 8005450:	428b      	cmp	r3, r1
 8005452:	bf0c      	ite	eq
 8005454:	f44f 3180 	moveq.w	r1, #65536	; 0x10000
 8005458:	f44f 0180 	movne.w	r1, #4194304	; 0x400000
 800545c:	e00d      	b.n	800547a <HAL_DMA_IRQHandler+0x2ce>
 800545e:	bf00      	nop
 8005460:	40026458 	.word	0x40026458
 8005464:	40026400 	.word	0x40026400
 8005468:	400260b8 	.word	0x400260b8
 800546c:	40026010 	.word	0x40026010
 8005470:	00800001 	.word	0x00800001
 8005474:	400264a0 	.word	0x400264a0
 8005478:	49a0      	ldr	r1, [pc, #640]	; (80056fc <HAL_DMA_IRQHandler+0x550>)
 800547a:	4aa1      	ldr	r2, [pc, #644]	; (8005700 <HAL_DMA_IRQHandler+0x554>)
 800547c:	6ca3      	ldr	r3, [r4, #72]	; 0x48
 800547e:	60d1      	str	r1, [r2, #12]
 8005480:	6ce2      	ldr	r2, [r4, #76]	; 0x4c
 8005482:	2104      	movs	r1, #4
 8005484:	f042 0202 	orr.w	r2, r2, #2
 8005488:	2000      	movs	r0, #0
 800548a:	64e2      	str	r2, [r4, #76]	; 0x4c
 800548c:	f884 0034 	strb.w	r0, [r4, #52]	; 0x34
 8005490:	f884 1035 	strb.w	r1, [r4, #53]	; 0x35
 8005494:	2b00      	cmp	r3, #0
 8005496:	f001 81ab 	beq.w	80067f0 <HAL_DMA_IRQHandler+0x1644>
 800549a:	4620      	mov	r0, r4
 800549c:	4798      	blx	r3
 800549e:	6823      	ldr	r3, [r4, #0]
 80054a0:	4a98      	ldr	r2, [pc, #608]	; (8005704 <HAL_DMA_IRQHandler+0x558>)
 80054a2:	4293      	cmp	r3, r2
 80054a4:	d93c      	bls.n	8005520 <HAL_DMA_IRQHandler+0x374>
 80054a6:	4a98      	ldr	r2, [pc, #608]	; (8005708 <HAL_DMA_IRQHandler+0x55c>)
 80054a8:	4995      	ldr	r1, [pc, #596]	; (8005700 <HAL_DMA_IRQHandler+0x554>)
 80054aa:	4293      	cmp	r3, r2
 80054ac:	6849      	ldr	r1, [r1, #4]
 80054ae:	d040      	beq.n	8005532 <HAL_DMA_IRQHandler+0x386>
 80054b0:	f502 6280 	add.w	r2, r2, #1024	; 0x400
 80054b4:	4293      	cmp	r3, r2
 80054b6:	d03c      	beq.n	8005532 <HAL_DMA_IRQHandler+0x386>
 80054b8:	f5a2 7268 	sub.w	r2, r2, #928	; 0x3a0
 80054bc:	4293      	cmp	r3, r2
 80054be:	d038      	beq.n	8005532 <HAL_DMA_IRQHandler+0x386>
 80054c0:	f502 6280 	add.w	r2, r2, #1024	; 0x400
 80054c4:	4293      	cmp	r3, r2
 80054c6:	d034      	beq.n	8005532 <HAL_DMA_IRQHandler+0x386>
 80054c8:	f5a2 6289 	sub.w	r2, r2, #1096	; 0x448
 80054cc:	4293      	cmp	r3, r2
 80054ce:	f000 85be 	beq.w	800604e <HAL_DMA_IRQHandler+0xea2>
 80054d2:	f502 6280 	add.w	r2, r2, #1024	; 0x400
 80054d6:	4293      	cmp	r3, r2
 80054d8:	f000 85b9 	beq.w	800604e <HAL_DMA_IRQHandler+0xea2>
 80054dc:	f5a2 7268 	sub.w	r2, r2, #928	; 0x3a0
 80054e0:	4293      	cmp	r3, r2
 80054e2:	f000 85b4 	beq.w	800604e <HAL_DMA_IRQHandler+0xea2>
 80054e6:	f502 6280 	add.w	r2, r2, #1024	; 0x400
 80054ea:	4293      	cmp	r3, r2
 80054ec:	f000 85af 	beq.w	800604e <HAL_DMA_IRQHandler+0xea2>
 80054f0:	f5a2 6289 	sub.w	r2, r2, #1096	; 0x448
 80054f4:	4293      	cmp	r3, r2
 80054f6:	f001 8181 	beq.w	80067fc <HAL_DMA_IRQHandler+0x1650>
 80054fa:	f502 6280 	add.w	r2, r2, #1024	; 0x400
 80054fe:	4293      	cmp	r3, r2
 8005500:	f001 817c 	beq.w	80067fc <HAL_DMA_IRQHandler+0x1650>
 8005504:	f5a2 7268 	sub.w	r2, r2, #928	; 0x3a0
 8005508:	4293      	cmp	r3, r2
 800550a:	f001 8177 	beq.w	80067fc <HAL_DMA_IRQHandler+0x1650>
 800550e:	f502 6280 	add.w	r2, r2, #1024	; 0x400
 8005512:	4293      	cmp	r3, r2
 8005514:	bf0c      	ite	eq
 8005516:	f44f 2280 	moveq.w	r2, #262144	; 0x40000
 800551a:	f04f 7280 	movne.w	r2, #16777216	; 0x1000000
 800551e:	e009      	b.n	8005534 <HAL_DMA_IRQHandler+0x388>
 8005520:	4a7a      	ldr	r2, [pc, #488]	; (800570c <HAL_DMA_IRQHandler+0x560>)
 8005522:	4293      	cmp	r3, r2
 8005524:	f240 82ca 	bls.w	8005abc <HAL_DMA_IRQHandler+0x910>
 8005528:	4a77      	ldr	r2, [pc, #476]	; (8005708 <HAL_DMA_IRQHandler+0x55c>)
 800552a:	4975      	ldr	r1, [pc, #468]	; (8005700 <HAL_DMA_IRQHandler+0x554>)
 800552c:	4293      	cmp	r3, r2
 800552e:	6809      	ldr	r1, [r1, #0]
 8005530:	d1be      	bne.n	80054b0 <HAL_DMA_IRQHandler+0x304>
 8005532:	4a77      	ldr	r2, [pc, #476]	; (8005710 <HAL_DMA_IRQHandler+0x564>)
 8005534:	4211      	tst	r1, r2
 8005536:	bf14      	ite	ne
 8005538:	2201      	movne	r2, #1
 800553a:	2200      	moveq	r2, #0
 800553c:	2a00      	cmp	r2, #0
 800553e:	d056      	beq.n	80055ee <HAL_DMA_IRQHandler+0x442>
 8005540:	681a      	ldr	r2, [r3, #0]
 8005542:	0791      	lsls	r1, r2, #30
 8005544:	d553      	bpl.n	80055ee <HAL_DMA_IRQHandler+0x442>
 8005546:	681a      	ldr	r2, [r3, #0]
 8005548:	496e      	ldr	r1, [pc, #440]	; (8005704 <HAL_DMA_IRQHandler+0x558>)
 800554a:	f022 0202 	bic.w	r2, r2, #2
 800554e:	428b      	cmp	r3, r1
 8005550:	601a      	str	r2, [r3, #0]
 8005552:	f240 8125 	bls.w	80057a0 <HAL_DMA_IRQHandler+0x5f4>
 8005556:	4a6c      	ldr	r2, [pc, #432]	; (8005708 <HAL_DMA_IRQHandler+0x55c>)
 8005558:	4293      	cmp	r3, r2
 800555a:	d036      	beq.n	80055ca <HAL_DMA_IRQHandler+0x41e>
 800555c:	f502 6280 	add.w	r2, r2, #1024	; 0x400
 8005560:	4293      	cmp	r3, r2
 8005562:	d032      	beq.n	80055ca <HAL_DMA_IRQHandler+0x41e>
 8005564:	f5a2 7268 	sub.w	r2, r2, #928	; 0x3a0
 8005568:	4293      	cmp	r3, r2
 800556a:	d02e      	beq.n	80055ca <HAL_DMA_IRQHandler+0x41e>
 800556c:	f502 6280 	add.w	r2, r2, #1024	; 0x400
 8005570:	4293      	cmp	r3, r2
 8005572:	d02a      	beq.n	80055ca <HAL_DMA_IRQHandler+0x41e>
 8005574:	f5a2 6289 	sub.w	r2, r2, #1096	; 0x448
 8005578:	4293      	cmp	r3, r2
 800557a:	f001 8155 	beq.w	8006828 <HAL_DMA_IRQHandler+0x167c>
 800557e:	f502 6280 	add.w	r2, r2, #1024	; 0x400
 8005582:	4293      	cmp	r3, r2
 8005584:	f001 8150 	beq.w	8006828 <HAL_DMA_IRQHandler+0x167c>
 8005588:	f5a2 7268 	sub.w	r2, r2, #928	; 0x3a0
 800558c:	4293      	cmp	r3, r2
 800558e:	f001 814b 	beq.w	8006828 <HAL_DMA_IRQHandler+0x167c>
 8005592:	f502 6280 	add.w	r2, r2, #1024	; 0x400
 8005596:	4293      	cmp	r3, r2
 8005598:	f001 8146 	beq.w	8006828 <HAL_DMA_IRQHandler+0x167c>
 800559c:	f5a2 6289 	sub.w	r2, r2, #1096	; 0x448
 80055a0:	4293      	cmp	r3, r2
 80055a2:	f001 82f4 	beq.w	8006b8e <HAL_DMA_IRQHandler+0x19e2>
 80055a6:	f502 6280 	add.w	r2, r2, #1024	; 0x400
 80055aa:	4293      	cmp	r3, r2
 80055ac:	f001 82ef 	beq.w	8006b8e <HAL_DMA_IRQHandler+0x19e2>
 80055b0:	f5a2 7268 	sub.w	r2, r2, #928	; 0x3a0
 80055b4:	4293      	cmp	r3, r2
 80055b6:	f001 82ea 	beq.w	8006b8e <HAL_DMA_IRQHandler+0x19e2>
 80055ba:	4856      	ldr	r0, [pc, #344]	; (8005714 <HAL_DMA_IRQHandler+0x568>)
 80055bc:	4283      	cmp	r3, r0
 80055be:	bf0c      	ite	eq
 80055c0:	f44f 2080 	moveq.w	r0, #262144	; 0x40000
 80055c4:	f04f 7080 	movne.w	r0, #16777216	; 0x1000000
 80055c8:	e000      	b.n	80055cc <HAL_DMA_IRQHandler+0x420>
 80055ca:	4851      	ldr	r0, [pc, #324]	; (8005710 <HAL_DMA_IRQHandler+0x564>)
 80055cc:	494c      	ldr	r1, [pc, #304]	; (8005700 <HAL_DMA_IRQHandler+0x554>)
 80055ce:	6ca2      	ldr	r2, [r4, #72]	; 0x48
 80055d0:	60c8      	str	r0, [r1, #12]
 80055d2:	6ce1      	ldr	r1, [r4, #76]	; 0x4c
 80055d4:	2004      	movs	r0, #4
 80055d6:	4301      	orrs	r1, r0
 80055d8:	f04f 0c00 	mov.w	ip, #0
 80055dc:	64e1      	str	r1, [r4, #76]	; 0x4c
 80055de:	f884 c034 	strb.w	ip, [r4, #52]	; 0x34
 80055e2:	f884 0035 	strb.w	r0, [r4, #53]	; 0x35
 80055e6:	b132      	cbz	r2, 80055f6 <HAL_DMA_IRQHandler+0x44a>
 80055e8:	4620      	mov	r0, r4
 80055ea:	4790      	blx	r2
 80055ec:	6823      	ldr	r3, [r4, #0]
 80055ee:	4a45      	ldr	r2, [pc, #276]	; (8005704 <HAL_DMA_IRQHandler+0x558>)
 80055f0:	4293      	cmp	r3, r2
 80055f2:	f240 8091 	bls.w	8005718 <HAL_DMA_IRQHandler+0x56c>
 80055f6:	4a44      	ldr	r2, [pc, #272]	; (8005708 <HAL_DMA_IRQHandler+0x55c>)
 80055f8:	4941      	ldr	r1, [pc, #260]	; (8005700 <HAL_DMA_IRQHandler+0x554>)
 80055fa:	4293      	cmp	r3, r2
 80055fc:	6849      	ldr	r1, [r1, #4]
 80055fe:	d037      	beq.n	8005670 <HAL_DMA_IRQHandler+0x4c4>
 8005600:	f502 6280 	add.w	r2, r2, #1024	; 0x400
 8005604:	4293      	cmp	r3, r2
 8005606:	d033      	beq.n	8005670 <HAL_DMA_IRQHandler+0x4c4>
 8005608:	f5a2 7268 	sub.w	r2, r2, #928	; 0x3a0
 800560c:	4293      	cmp	r3, r2
 800560e:	d02f      	beq.n	8005670 <HAL_DMA_IRQHandler+0x4c4>
 8005610:	f502 6280 	add.w	r2, r2, #1024	; 0x400
 8005614:	4293      	cmp	r3, r2
 8005616:	d02b      	beq.n	8005670 <HAL_DMA_IRQHandler+0x4c4>
 8005618:	f5a2 6289 	sub.w	r2, r2, #1096	; 0x448
 800561c:	4293      	cmp	r3, r2
 800561e:	f000 8532 	beq.w	8006086 <HAL_DMA_IRQHandler+0xeda>
 8005622:	f502 6280 	add.w	r2, r2, #1024	; 0x400
 8005626:	4293      	cmp	r3, r2
 8005628:	f000 852d 	beq.w	8006086 <HAL_DMA_IRQHandler+0xeda>
 800562c:	f5a2 7268 	sub.w	r2, r2, #928	; 0x3a0
 8005630:	4293      	cmp	r3, r2
 8005632:	f000 8528 	beq.w	8006086 <HAL_DMA_IRQHandler+0xeda>
 8005636:	f502 6280 	add.w	r2, r2, #1024	; 0x400
 800563a:	4293      	cmp	r3, r2
 800563c:	f000 8523 	beq.w	8006086 <HAL_DMA_IRQHandler+0xeda>
 8005640:	f5a2 6289 	sub.w	r2, r2, #1096	; 0x448
 8005644:	4293      	cmp	r3, r2
 8005646:	f001 80fc 	beq.w	8006842 <HAL_DMA_IRQHandler+0x1696>
 800564a:	f502 6280 	add.w	r2, r2, #1024	; 0x400
 800564e:	4293      	cmp	r3, r2
 8005650:	f001 80f7 	beq.w	8006842 <HAL_DMA_IRQHandler+0x1696>
 8005654:	f5a2 7268 	sub.w	r2, r2, #928	; 0x3a0
 8005658:	4293      	cmp	r3, r2
 800565a:	f001 80f2 	beq.w	8006842 <HAL_DMA_IRQHandler+0x1696>
 800565e:	f502 6280 	add.w	r2, r2, #1024	; 0x400
 8005662:	4293      	cmp	r3, r2
 8005664:	bf0c      	ite	eq
 8005666:	f44f 1280 	moveq.w	r2, #1048576	; 0x100000
 800566a:	f04f 6280 	movne.w	r2, #67108864	; 0x4000000
 800566e:	e000      	b.n	8005672 <HAL_DMA_IRQHandler+0x4c6>
 8005670:	2210      	movs	r2, #16
 8005672:	4211      	tst	r1, r2
 8005674:	f040 8156 	bne.w	8005924 <HAL_DMA_IRQHandler+0x778>
 8005678:	4a23      	ldr	r2, [pc, #140]	; (8005708 <HAL_DMA_IRQHandler+0x55c>)
 800567a:	4921      	ldr	r1, [pc, #132]	; (8005700 <HAL_DMA_IRQHandler+0x554>)
 800567c:	4293      	cmp	r3, r2
 800567e:	6849      	ldr	r1, [r1, #4]
 8005680:	f000 80e9 	beq.w	8005856 <HAL_DMA_IRQHandler+0x6aa>
 8005684:	f502 6280 	add.w	r2, r2, #1024	; 0x400
 8005688:	4293      	cmp	r3, r2
 800568a:	f000 80e4 	beq.w	8005856 <HAL_DMA_IRQHandler+0x6aa>
 800568e:	f5a2 7268 	sub.w	r2, r2, #928	; 0x3a0
 8005692:	4293      	cmp	r3, r2
 8005694:	f000 80df 	beq.w	8005856 <HAL_DMA_IRQHandler+0x6aa>
 8005698:	f502 6280 	add.w	r2, r2, #1024	; 0x400
 800569c:	4293      	cmp	r3, r2
 800569e:	f000 80da 	beq.w	8005856 <HAL_DMA_IRQHandler+0x6aa>
 80056a2:	f5a2 6289 	sub.w	r2, r2, #1096	; 0x448
 80056a6:	4293      	cmp	r3, r2
 80056a8:	f000 84b3 	beq.w	8006012 <HAL_DMA_IRQHandler+0xe66>
 80056ac:	f502 6280 	add.w	r2, r2, #1024	; 0x400
 80056b0:	4293      	cmp	r3, r2
 80056b2:	f000 84ae 	beq.w	8006012 <HAL_DMA_IRQHandler+0xe66>
 80056b6:	f5a2 7268 	sub.w	r2, r2, #928	; 0x3a0
 80056ba:	4293      	cmp	r3, r2
 80056bc:	f000 84a9 	beq.w	8006012 <HAL_DMA_IRQHandler+0xe66>
 80056c0:	f502 6280 	add.w	r2, r2, #1024	; 0x400
 80056c4:	4293      	cmp	r3, r2
 80056c6:	f000 84a4 	beq.w	8006012 <HAL_DMA_IRQHandler+0xe66>
 80056ca:	f5a2 6289 	sub.w	r2, r2, #1096	; 0x448
 80056ce:	4293      	cmp	r3, r2
 80056d0:	f001 807c 	beq.w	80067cc <HAL_DMA_IRQHandler+0x1620>
 80056d4:	f502 6280 	add.w	r2, r2, #1024	; 0x400
 80056d8:	4293      	cmp	r3, r2
 80056da:	f001 8077 	beq.w	80067cc <HAL_DMA_IRQHandler+0x1620>
 80056de:	f5a2 7268 	sub.w	r2, r2, #928	; 0x3a0
 80056e2:	4293      	cmp	r3, r2
 80056e4:	f001 8072 	beq.w	80067cc <HAL_DMA_IRQHandler+0x1620>
 80056e8:	f502 6280 	add.w	r2, r2, #1024	; 0x400
 80056ec:	4293      	cmp	r3, r2
 80056ee:	bf0c      	ite	eq
 80056f0:	f44f 1200 	moveq.w	r2, #2097152	; 0x200000
 80056f4:	f04f 6200 	movne.w	r2, #134217728	; 0x8000000
 80056f8:	e0ae      	b.n	8005858 <HAL_DMA_IRQHandler+0x6ac>
 80056fa:	bf00      	nop
 80056fc:	00800001 	.word	0x00800001
 8005700:	40026400 	.word	0x40026400
 8005704:	40026458 	.word	0x40026458
 8005708:	40026010 	.word	0x40026010
 800570c:	400260b8 	.word	0x400260b8
 8005710:	00800004 	.word	0x00800004
 8005714:	400264a0 	.word	0x400264a0
 8005718:	4ab9      	ldr	r2, [pc, #740]	; (8005a00 <HAL_DMA_IRQHandler+0x854>)
 800571a:	4293      	cmp	r3, r2
 800571c:	f240 817e 	bls.w	8005a1c <HAL_DMA_IRQHandler+0x870>
 8005720:	4ab8      	ldr	r2, [pc, #736]	; (8005a04 <HAL_DMA_IRQHandler+0x858>)
 8005722:	49b9      	ldr	r1, [pc, #740]	; (8005a08 <HAL_DMA_IRQHandler+0x85c>)
 8005724:	4293      	cmp	r3, r2
 8005726:	6809      	ldr	r1, [r1, #0]
 8005728:	f000 808c 	beq.w	8005844 <HAL_DMA_IRQHandler+0x698>
 800572c:	f502 6280 	add.w	r2, r2, #1024	; 0x400
 8005730:	4293      	cmp	r3, r2
 8005732:	f000 8087 	beq.w	8005844 <HAL_DMA_IRQHandler+0x698>
 8005736:	f5a2 7268 	sub.w	r2, r2, #928	; 0x3a0
 800573a:	4293      	cmp	r3, r2
 800573c:	f000 8082 	beq.w	8005844 <HAL_DMA_IRQHandler+0x698>
 8005740:	f502 6280 	add.w	r2, r2, #1024	; 0x400
 8005744:	4293      	cmp	r3, r2
 8005746:	d07d      	beq.n	8005844 <HAL_DMA_IRQHandler+0x698>
 8005748:	f5a2 6289 	sub.w	r2, r2, #1096	; 0x448
 800574c:	4293      	cmp	r3, r2
 800574e:	f001 8031 	beq.w	80067b4 <HAL_DMA_IRQHandler+0x1608>
 8005752:	f502 6280 	add.w	r2, r2, #1024	; 0x400
 8005756:	4293      	cmp	r3, r2
 8005758:	f001 802c 	beq.w	80067b4 <HAL_DMA_IRQHandler+0x1608>
 800575c:	f5a2 7268 	sub.w	r2, r2, #928	; 0x3a0
 8005760:	4293      	cmp	r3, r2
 8005762:	f001 8027 	beq.w	80067b4 <HAL_DMA_IRQHandler+0x1608>
 8005766:	f502 6280 	add.w	r2, r2, #1024	; 0x400
 800576a:	4293      	cmp	r3, r2
 800576c:	f001 8022 	beq.w	80067b4 <HAL_DMA_IRQHandler+0x1608>
 8005770:	f5a2 6289 	sub.w	r2, r2, #1096	; 0x448
 8005774:	4293      	cmp	r3, r2
 8005776:	f001 81d1 	beq.w	8006b1c <HAL_DMA_IRQHandler+0x1970>
 800577a:	f502 6280 	add.w	r2, r2, #1024	; 0x400
 800577e:	4293      	cmp	r3, r2
 8005780:	f001 81cc 	beq.w	8006b1c <HAL_DMA_IRQHandler+0x1970>
 8005784:	f5a2 7268 	sub.w	r2, r2, #928	; 0x3a0
 8005788:	4293      	cmp	r3, r2
 800578a:	f001 81c7 	beq.w	8006b1c <HAL_DMA_IRQHandler+0x1970>
 800578e:	f502 6280 	add.w	r2, r2, #1024	; 0x400
 8005792:	4293      	cmp	r3, r2
 8005794:	bf0c      	ite	eq
 8005796:	f44f 1280 	moveq.w	r2, #1048576	; 0x100000
 800579a:	f04f 6280 	movne.w	r2, #67108864	; 0x4000000
 800579e:	e052      	b.n	8005846 <HAL_DMA_IRQHandler+0x69a>
 80057a0:	4a97      	ldr	r2, [pc, #604]	; (8005a00 <HAL_DMA_IRQHandler+0x854>)
 80057a2:	4293      	cmp	r3, r2
 80057a4:	f240 83a1 	bls.w	8005eea <HAL_DMA_IRQHandler+0xd3e>
 80057a8:	3aa8      	subs	r2, #168	; 0xa8
 80057aa:	4293      	cmp	r3, r2
 80057ac:	f000 87d3 	beq.w	8006756 <HAL_DMA_IRQHandler+0x15aa>
 80057b0:	f502 6280 	add.w	r2, r2, #1024	; 0x400
 80057b4:	4293      	cmp	r3, r2
 80057b6:	f000 87ce 	beq.w	8006756 <HAL_DMA_IRQHandler+0x15aa>
 80057ba:	f5a2 7268 	sub.w	r2, r2, #928	; 0x3a0
 80057be:	4293      	cmp	r3, r2
 80057c0:	f000 87c9 	beq.w	8006756 <HAL_DMA_IRQHandler+0x15aa>
 80057c4:	f502 6280 	add.w	r2, r2, #1024	; 0x400
 80057c8:	4293      	cmp	r3, r2
 80057ca:	f000 87c4 	beq.w	8006756 <HAL_DMA_IRQHandler+0x15aa>
 80057ce:	f5a2 6289 	sub.w	r2, r2, #1096	; 0x448
 80057d2:	4293      	cmp	r3, r2
 80057d4:	f001 819c 	beq.w	8006b10 <HAL_DMA_IRQHandler+0x1964>
 80057d8:	f502 6280 	add.w	r2, r2, #1024	; 0x400
 80057dc:	4293      	cmp	r3, r2
 80057de:	f001 8197 	beq.w	8006b10 <HAL_DMA_IRQHandler+0x1964>
 80057e2:	f5a2 7268 	sub.w	r2, r2, #928	; 0x3a0
 80057e6:	4293      	cmp	r3, r2
 80057e8:	f001 8192 	beq.w	8006b10 <HAL_DMA_IRQHandler+0x1964>
 80057ec:	f502 6280 	add.w	r2, r2, #1024	; 0x400
 80057f0:	4293      	cmp	r3, r2
 80057f2:	f001 818d 	beq.w	8006b10 <HAL_DMA_IRQHandler+0x1964>
 80057f6:	f5a2 6289 	sub.w	r2, r2, #1096	; 0x448
 80057fa:	4293      	cmp	r3, r2
 80057fc:	f001 82a9 	beq.w	8006d52 <HAL_DMA_IRQHandler+0x1ba6>
 8005800:	f502 6280 	add.w	r2, r2, #1024	; 0x400
 8005804:	4293      	cmp	r3, r2
 8005806:	f001 82a4 	beq.w	8006d52 <HAL_DMA_IRQHandler+0x1ba6>
 800580a:	f5a2 7268 	sub.w	r2, r2, #928	; 0x3a0
 800580e:	4293      	cmp	r3, r2
 8005810:	f001 829f 	beq.w	8006d52 <HAL_DMA_IRQHandler+0x1ba6>
 8005814:	487d      	ldr	r0, [pc, #500]	; (8005a0c <HAL_DMA_IRQHandler+0x860>)
 8005816:	4283      	cmp	r3, r0
 8005818:	bf0c      	ite	eq
 800581a:	f44f 2080 	moveq.w	r0, #262144	; 0x40000
 800581e:	f04f 7080 	movne.w	r0, #16777216	; 0x1000000
 8005822:	4979      	ldr	r1, [pc, #484]	; (8005a08 <HAL_DMA_IRQHandler+0x85c>)
 8005824:	6ca2      	ldr	r2, [r4, #72]	; 0x48
 8005826:	6088      	str	r0, [r1, #8]
 8005828:	6ce1      	ldr	r1, [r4, #76]	; 0x4c
 800582a:	2004      	movs	r0, #4
 800582c:	4301      	orrs	r1, r0
 800582e:	f04f 0c00 	mov.w	ip, #0
 8005832:	64e1      	str	r1, [r4, #76]	; 0x4c
 8005834:	f884 c034 	strb.w	ip, [r4, #52]	; 0x34
 8005838:	f884 0035 	strb.w	r0, [r4, #53]	; 0x35
 800583c:	2a00      	cmp	r2, #0
 800583e:	f47f aed3 	bne.w	80055e8 <HAL_DMA_IRQHandler+0x43c>
 8005842:	e76d      	b.n	8005720 <HAL_DMA_IRQHandler+0x574>
 8005844:	2210      	movs	r2, #16
 8005846:	4211      	tst	r1, r2
 8005848:	d16c      	bne.n	8005924 <HAL_DMA_IRQHandler+0x778>
 800584a:	4a6e      	ldr	r2, [pc, #440]	; (8005a04 <HAL_DMA_IRQHandler+0x858>)
 800584c:	496e      	ldr	r1, [pc, #440]	; (8005a08 <HAL_DMA_IRQHandler+0x85c>)
 800584e:	4293      	cmp	r3, r2
 8005850:	6809      	ldr	r1, [r1, #0]
 8005852:	f47f af17 	bne.w	8005684 <HAL_DMA_IRQHandler+0x4d8>
 8005856:	2220      	movs	r2, #32
 8005858:	4211      	tst	r1, r2
 800585a:	bf14      	ite	ne
 800585c:	2201      	movne	r2, #1
 800585e:	2200      	moveq	r2, #0
 8005860:	2a00      	cmp	r2, #0
 8005862:	d05e      	beq.n	8005922 <HAL_DMA_IRQHandler+0x776>
 8005864:	681a      	ldr	r2, [r3, #0]
 8005866:	06d2      	lsls	r2, r2, #27
 8005868:	d55b      	bpl.n	8005922 <HAL_DMA_IRQHandler+0x776>
 800586a:	681a      	ldr	r2, [r3, #0]
 800586c:	0356      	lsls	r6, r2, #13
 800586e:	f100 8227 	bmi.w	8005cc0 <HAL_DMA_IRQHandler+0xb14>
 8005872:	681a      	ldr	r2, [r3, #0]
 8005874:	05d1      	lsls	r1, r2, #23
 8005876:	d403      	bmi.n	8005880 <HAL_DMA_IRQHandler+0x6d4>
 8005878:	681a      	ldr	r2, [r3, #0]
 800587a:	f022 0210 	bic.w	r2, r2, #16
 800587e:	601a      	str	r2, [r3, #0]
 8005880:	4a63      	ldr	r2, [pc, #396]	; (8005a10 <HAL_DMA_IRQHandler+0x864>)
 8005882:	4293      	cmp	r3, r2
 8005884:	f240 845a 	bls.w	800613c <HAL_DMA_IRQHandler+0xf90>
 8005888:	f5a2 6289 	sub.w	r2, r2, #1096	; 0x448
 800588c:	4293      	cmp	r3, r2
 800588e:	f000 8779 	beq.w	8006784 <HAL_DMA_IRQHandler+0x15d8>
 8005892:	f502 6280 	add.w	r2, r2, #1024	; 0x400
 8005896:	4293      	cmp	r3, r2
 8005898:	f000 8774 	beq.w	8006784 <HAL_DMA_IRQHandler+0x15d8>
 800589c:	f5a2 7268 	sub.w	r2, r2, #928	; 0x3a0
 80058a0:	4293      	cmp	r3, r2
 80058a2:	f000 876f 	beq.w	8006784 <HAL_DMA_IRQHandler+0x15d8>
 80058a6:	f502 6280 	add.w	r2, r2, #1024	; 0x400
 80058aa:	4293      	cmp	r3, r2
 80058ac:	f000 876a 	beq.w	8006784 <HAL_DMA_IRQHandler+0x15d8>
 80058b0:	f5a2 6289 	sub.w	r2, r2, #1096	; 0x448
 80058b4:	4293      	cmp	r3, r2
 80058b6:	f001 8118 	beq.w	8006aea <HAL_DMA_IRQHandler+0x193e>
 80058ba:	f502 6280 	add.w	r2, r2, #1024	; 0x400
 80058be:	4293      	cmp	r3, r2
 80058c0:	f001 8113 	beq.w	8006aea <HAL_DMA_IRQHandler+0x193e>
 80058c4:	f5a2 7268 	sub.w	r2, r2, #928	; 0x3a0
 80058c8:	4293      	cmp	r3, r2
 80058ca:	f001 810e 	beq.w	8006aea <HAL_DMA_IRQHandler+0x193e>
 80058ce:	f502 6280 	add.w	r2, r2, #1024	; 0x400
 80058d2:	4293      	cmp	r3, r2
 80058d4:	f001 8109 	beq.w	8006aea <HAL_DMA_IRQHandler+0x193e>
 80058d8:	f5a2 6289 	sub.w	r2, r2, #1096	; 0x448
 80058dc:	4293      	cmp	r3, r2
 80058de:	f001 823c 	beq.w	8006d5a <HAL_DMA_IRQHandler+0x1bae>
 80058e2:	f502 6280 	add.w	r2, r2, #1024	; 0x400
 80058e6:	4293      	cmp	r3, r2
 80058e8:	f001 8237 	beq.w	8006d5a <HAL_DMA_IRQHandler+0x1bae>
 80058ec:	f5a2 7268 	sub.w	r2, r2, #928	; 0x3a0
 80058f0:	4293      	cmp	r3, r2
 80058f2:	f001 8232 	beq.w	8006d5a <HAL_DMA_IRQHandler+0x1bae>
 80058f6:	f502 6280 	add.w	r2, r2, #1024	; 0x400
 80058fa:	4293      	cmp	r3, r2
 80058fc:	bf0c      	ite	eq
 80058fe:	f44f 1200 	moveq.w	r2, #2097152	; 0x200000
 8005902:	f04f 6200 	movne.w	r2, #134217728	; 0x8000000
 8005906:	4b40      	ldr	r3, [pc, #256]	; (8005a08 <HAL_DMA_IRQHandler+0x85c>)
 8005908:	60da      	str	r2, [r3, #12]
 800590a:	6be3      	ldr	r3, [r4, #60]	; 0x3c
 800590c:	6ce0      	ldr	r0, [r4, #76]	; 0x4c
 800590e:	64e0      	str	r0, [r4, #76]	; 0x4c
 8005910:	2211      	movs	r2, #17
 8005912:	2100      	movs	r1, #0
 8005914:	f884 1034 	strb.w	r1, [r4, #52]	; 0x34
 8005918:	f884 2035 	strb.w	r2, [r4, #53]	; 0x35
 800591c:	2b00      	cmp	r3, #0
 800591e:	f040 821b 	bne.w	8005d58 <HAL_DMA_IRQHandler+0xbac>
 8005922:	bd70      	pop	{r4, r5, r6, pc}
 8005924:	681a      	ldr	r2, [r3, #0]
 8005926:	0712      	lsls	r2, r2, #28
 8005928:	d40b      	bmi.n	8005942 <HAL_DMA_IRQHandler+0x796>
 800592a:	4a39      	ldr	r2, [pc, #228]	; (8005a10 <HAL_DMA_IRQHandler+0x864>)
 800592c:	4293      	cmp	r3, r2
 800592e:	f63f aea3 	bhi.w	8005678 <HAL_DMA_IRQHandler+0x4cc>
 8005932:	4a33      	ldr	r2, [pc, #204]	; (8005a00 <HAL_DMA_IRQHandler+0x854>)
 8005934:	4293      	cmp	r3, r2
 8005936:	d888      	bhi.n	800584a <HAL_DMA_IRQHandler+0x69e>
 8005938:	4a36      	ldr	r2, [pc, #216]	; (8005a14 <HAL_DMA_IRQHandler+0x868>)
 800593a:	4293      	cmp	r3, r2
 800593c:	f200 839b 	bhi.w	8006076 <HAL_DMA_IRQHandler+0xeca>
 8005940:	e38d      	b.n	800605e <HAL_DMA_IRQHandler+0xeb2>
 8005942:	681a      	ldr	r2, [r3, #0]
 8005944:	0356      	lsls	r6, r2, #13
 8005946:	f100 820b 	bmi.w	8005d60 <HAL_DMA_IRQHandler+0xbb4>
 800594a:	681a      	ldr	r2, [r3, #0]
 800594c:	05d1      	lsls	r1, r2, #23
 800594e:	d403      	bmi.n	8005958 <HAL_DMA_IRQHandler+0x7ac>
 8005950:	681a      	ldr	r2, [r3, #0]
 8005952:	f022 0208 	bic.w	r2, r2, #8
 8005956:	601a      	str	r2, [r3, #0]
 8005958:	4a2d      	ldr	r2, [pc, #180]	; (8005a10 <HAL_DMA_IRQHandler+0x864>)
 800595a:	4293      	cmp	r3, r2
 800595c:	f240 8481 	bls.w	8006262 <HAL_DMA_IRQHandler+0x10b6>
 8005960:	f5a2 6289 	sub.w	r2, r2, #1096	; 0x448
 8005964:	4293      	cmp	r3, r2
 8005966:	f000 86f9 	beq.w	800675c <HAL_DMA_IRQHandler+0x15b0>
 800596a:	f502 6280 	add.w	r2, r2, #1024	; 0x400
 800596e:	4293      	cmp	r3, r2
 8005970:	f000 86f4 	beq.w	800675c <HAL_DMA_IRQHandler+0x15b0>
 8005974:	f5a2 7268 	sub.w	r2, r2, #928	; 0x3a0
 8005978:	4293      	cmp	r3, r2
 800597a:	f000 86ef 	beq.w	800675c <HAL_DMA_IRQHandler+0x15b0>
 800597e:	f502 6280 	add.w	r2, r2, #1024	; 0x400
 8005982:	4293      	cmp	r3, r2
 8005984:	f000 86ea 	beq.w	800675c <HAL_DMA_IRQHandler+0x15b0>
 8005988:	f5a2 6289 	sub.w	r2, r2, #1096	; 0x448
 800598c:	4293      	cmp	r3, r2
 800598e:	f001 80b4 	beq.w	8006afa <HAL_DMA_IRQHandler+0x194e>
 8005992:	f502 6280 	add.w	r2, r2, #1024	; 0x400
 8005996:	4293      	cmp	r3, r2
 8005998:	f001 80af 	beq.w	8006afa <HAL_DMA_IRQHandler+0x194e>
 800599c:	f5a2 7268 	sub.w	r2, r2, #928	; 0x3a0
 80059a0:	4293      	cmp	r3, r2
 80059a2:	f001 80aa 	beq.w	8006afa <HAL_DMA_IRQHandler+0x194e>
 80059a6:	f502 6280 	add.w	r2, r2, #1024	; 0x400
 80059aa:	4293      	cmp	r3, r2
 80059ac:	f001 80a5 	beq.w	8006afa <HAL_DMA_IRQHandler+0x194e>
 80059b0:	f5a2 6289 	sub.w	r2, r2, #1096	; 0x448
 80059b4:	4293      	cmp	r3, r2
 80059b6:	f001 81c0 	beq.w	8006d3a <HAL_DMA_IRQHandler+0x1b8e>
 80059ba:	f502 6280 	add.w	r2, r2, #1024	; 0x400
 80059be:	4293      	cmp	r3, r2
 80059c0:	f001 81bb 	beq.w	8006d3a <HAL_DMA_IRQHandler+0x1b8e>
 80059c4:	f5a2 7268 	sub.w	r2, r2, #928	; 0x3a0
 80059c8:	4293      	cmp	r3, r2
 80059ca:	f001 81b6 	beq.w	8006d3a <HAL_DMA_IRQHandler+0x1b8e>
 80059ce:	490f      	ldr	r1, [pc, #60]	; (8005a0c <HAL_DMA_IRQHandler+0x860>)
 80059d0:	428b      	cmp	r3, r1
 80059d2:	bf0c      	ite	eq
 80059d4:	f44f 1180 	moveq.w	r1, #1048576	; 0x100000
 80059d8:	f04f 6180 	movne.w	r1, #67108864	; 0x4000000
 80059dc:	4a0a      	ldr	r2, [pc, #40]	; (8005a08 <HAL_DMA_IRQHandler+0x85c>)
 80059de:	60d1      	str	r1, [r2, #12]
 80059e0:	2231      	movs	r2, #49	; 0x31
 80059e2:	f884 2035 	strb.w	r2, [r4, #53]	; 0x35
 80059e6:	e209      	b.n	8005dfc <HAL_DMA_IRQHandler+0xc50>
 80059e8:	4a0a      	ldr	r2, [pc, #40]	; (8005a14 <HAL_DMA_IRQHandler+0x868>)
 80059ea:	480b      	ldr	r0, [pc, #44]	; (8005a18 <HAL_DMA_IRQHandler+0x86c>)
 80059ec:	4293      	cmp	r3, r2
 80059ee:	f240 80fd 	bls.w	8005bec <HAL_DMA_IRQHandler+0xa40>
 80059f2:	3a48      	subs	r2, #72	; 0x48
 80059f4:	4293      	cmp	r3, r2
 80059f6:	6840      	ldr	r0, [r0, #4]
 80059f8:	f47f abe5 	bne.w	80051c6 <HAL_DMA_IRQHandler+0x1a>
 80059fc:	e424      	b.n	8005248 <HAL_DMA_IRQHandler+0x9c>
 80059fe:	bf00      	nop
 8005a00:	400260b8 	.word	0x400260b8
 8005a04:	40026010 	.word	0x40026010
 8005a08:	40026400 	.word	0x40026400
 8005a0c:	400264a0 	.word	0x400264a0
 8005a10:	40026458 	.word	0x40026458
 8005a14:	40026058 	.word	0x40026058
 8005a18:	40026000 	.word	0x40026000
 8005a1c:	4aa2      	ldr	r2, [pc, #648]	; (8005ca8 <HAL_DMA_IRQHandler+0xafc>)
 8005a1e:	4293      	cmp	r3, r2
 8005a20:	f240 82b3 	bls.w	8005f8a <HAL_DMA_IRQHandler+0xdde>
 8005a24:	4aa1      	ldr	r2, [pc, #644]	; (8005cac <HAL_DMA_IRQHandler+0xb00>)
 8005a26:	49a2      	ldr	r1, [pc, #648]	; (8005cb0 <HAL_DMA_IRQHandler+0xb04>)
 8005a28:	4293      	cmp	r3, r2
 8005a2a:	6849      	ldr	r1, [r1, #4]
 8005a2c:	f000 831f 	beq.w	800606e <HAL_DMA_IRQHandler+0xec2>
 8005a30:	f502 6280 	add.w	r2, r2, #1024	; 0x400
 8005a34:	4293      	cmp	r3, r2
 8005a36:	f000 831a 	beq.w	800606e <HAL_DMA_IRQHandler+0xec2>
 8005a3a:	f5a2 7268 	sub.w	r2, r2, #928	; 0x3a0
 8005a3e:	4293      	cmp	r3, r2
 8005a40:	f000 8315 	beq.w	800606e <HAL_DMA_IRQHandler+0xec2>
 8005a44:	f502 6280 	add.w	r2, r2, #1024	; 0x400
 8005a48:	4293      	cmp	r3, r2
 8005a4a:	f000 8310 	beq.w	800606e <HAL_DMA_IRQHandler+0xec2>
 8005a4e:	f5a2 6289 	sub.w	r2, r2, #1096	; 0x448
 8005a52:	4293      	cmp	r3, r2
 8005a54:	f000 86f2 	beq.w	800683c <HAL_DMA_IRQHandler+0x1690>
 8005a58:	f502 6280 	add.w	r2, r2, #1024	; 0x400
 8005a5c:	4293      	cmp	r3, r2
 8005a5e:	f000 86ed 	beq.w	800683c <HAL_DMA_IRQHandler+0x1690>
 8005a62:	f5a2 7268 	sub.w	r2, r2, #928	; 0x3a0
 8005a66:	4293      	cmp	r3, r2
 8005a68:	f000 86e8 	beq.w	800683c <HAL_DMA_IRQHandler+0x1690>
 8005a6c:	f502 6280 	add.w	r2, r2, #1024	; 0x400
 8005a70:	4293      	cmp	r3, r2
 8005a72:	f000 86e3 	beq.w	800683c <HAL_DMA_IRQHandler+0x1690>
 8005a76:	f5a2 6289 	sub.w	r2, r2, #1096	; 0x448
 8005a7a:	4293      	cmp	r3, r2
 8005a7c:	f001 80ab 	beq.w	8006bd6 <HAL_DMA_IRQHandler+0x1a2a>
 8005a80:	f502 6280 	add.w	r2, r2, #1024	; 0x400
 8005a84:	4293      	cmp	r3, r2
 8005a86:	f001 80a6 	beq.w	8006bd6 <HAL_DMA_IRQHandler+0x1a2a>
 8005a8a:	f5a2 7268 	sub.w	r2, r2, #928	; 0x3a0
 8005a8e:	4293      	cmp	r3, r2
 8005a90:	f001 80a1 	beq.w	8006bd6 <HAL_DMA_IRQHandler+0x1a2a>
 8005a94:	f502 6280 	add.w	r2, r2, #1024	; 0x400
 8005a98:	4293      	cmp	r3, r2
 8005a9a:	bf0c      	ite	eq
 8005a9c:	f44f 1280 	moveq.w	r2, #1048576	; 0x100000
 8005aa0:	f04f 6280 	movne.w	r2, #67108864	; 0x4000000
 8005aa4:	e2e4      	b.n	8006070 <HAL_DMA_IRQHandler+0xec4>
 8005aa6:	4a80      	ldr	r2, [pc, #512]	; (8005ca8 <HAL_DMA_IRQHandler+0xafc>)
 8005aa8:	4881      	ldr	r0, [pc, #516]	; (8005cb0 <HAL_DMA_IRQHandler+0xb04>)
 8005aaa:	4293      	cmp	r3, r2
 8005aac:	f240 82aa 	bls.w	8006004 <HAL_DMA_IRQHandler+0xe58>
 8005ab0:	3a48      	subs	r2, #72	; 0x48
 8005ab2:	4293      	cmp	r3, r2
 8005ab4:	6840      	ldr	r0, [r0, #4]
 8005ab6:	f47f ac45 	bne.w	8005344 <HAL_DMA_IRQHandler+0x198>
 8005aba:	e484      	b.n	80053c6 <HAL_DMA_IRQHandler+0x21a>
 8005abc:	4a7a      	ldr	r2, [pc, #488]	; (8005ca8 <HAL_DMA_IRQHandler+0xafc>)
 8005abe:	4293      	cmp	r3, r2
 8005ac0:	f200 81fd 	bhi.w	8005ebe <HAL_DMA_IRQHandler+0xd12>
 8005ac4:	4a79      	ldr	r2, [pc, #484]	; (8005cac <HAL_DMA_IRQHandler+0xb00>)
 8005ac6:	497a      	ldr	r1, [pc, #488]	; (8005cb0 <HAL_DMA_IRQHandler+0xb04>)
 8005ac8:	4293      	cmp	r3, r2
 8005aca:	6809      	ldr	r1, [r1, #0]
 8005acc:	f000 81fd 	beq.w	8005eca <HAL_DMA_IRQHandler+0xd1e>
 8005ad0:	f502 6280 	add.w	r2, r2, #1024	; 0x400
 8005ad4:	4293      	cmp	r3, r2
 8005ad6:	f000 81f8 	beq.w	8005eca <HAL_DMA_IRQHandler+0xd1e>
 8005ada:	f5a2 7268 	sub.w	r2, r2, #928	; 0x3a0
 8005ade:	4293      	cmp	r3, r2
 8005ae0:	f000 81f3 	beq.w	8005eca <HAL_DMA_IRQHandler+0xd1e>
 8005ae4:	f502 6280 	add.w	r2, r2, #1024	; 0x400
 8005ae8:	4293      	cmp	r3, r2
 8005aea:	f000 81ee 	beq.w	8005eca <HAL_DMA_IRQHandler+0xd1e>
 8005aee:	f5a2 6289 	sub.w	r2, r2, #1096	; 0x448
 8005af2:	4293      	cmp	r3, r2
 8005af4:	f000 8662 	beq.w	80067bc <HAL_DMA_IRQHandler+0x1610>
 8005af8:	f502 6280 	add.w	r2, r2, #1024	; 0x400
 8005afc:	4293      	cmp	r3, r2
 8005afe:	f000 865d 	beq.w	80067bc <HAL_DMA_IRQHandler+0x1610>
 8005b02:	f5a2 7268 	sub.w	r2, r2, #928	; 0x3a0
 8005b06:	4293      	cmp	r3, r2
 8005b08:	f000 8658 	beq.w	80067bc <HAL_DMA_IRQHandler+0x1610>
 8005b0c:	f502 6280 	add.w	r2, r2, #1024	; 0x400
 8005b10:	4293      	cmp	r3, r2
 8005b12:	f000 8653 	beq.w	80067bc <HAL_DMA_IRQHandler+0x1610>
 8005b16:	f5a2 6289 	sub.w	r2, r2, #1096	; 0x448
 8005b1a:	4293      	cmp	r3, r2
 8005b1c:	f001 8002 	beq.w	8006b24 <HAL_DMA_IRQHandler+0x1978>
 8005b20:	f502 6280 	add.w	r2, r2, #1024	; 0x400
 8005b24:	4293      	cmp	r3, r2
 8005b26:	f000 87fd 	beq.w	8006b24 <HAL_DMA_IRQHandler+0x1978>
 8005b2a:	f5a2 7268 	sub.w	r2, r2, #928	; 0x3a0
 8005b2e:	4293      	cmp	r3, r2
 8005b30:	f000 87f8 	beq.w	8006b24 <HAL_DMA_IRQHandler+0x1978>
 8005b34:	f502 6280 	add.w	r2, r2, #1024	; 0x400
 8005b38:	4293      	cmp	r3, r2
 8005b3a:	bf0c      	ite	eq
 8005b3c:	f44f 2280 	moveq.w	r2, #262144	; 0x40000
 8005b40:	f04f 7280 	movne.w	r2, #16777216	; 0x1000000
 8005b44:	e1c2      	b.n	8005ecc <HAL_DMA_IRQHandler+0xd20>
 8005b46:	4a5b      	ldr	r2, [pc, #364]	; (8005cb4 <HAL_DMA_IRQHandler+0xb08>)
 8005b48:	4291      	cmp	r1, r2
 8005b4a:	f240 8165 	bls.w	8005e18 <HAL_DMA_IRQHandler+0xc6c>
 8005b4e:	3aa8      	subs	r2, #168	; 0xa8
 8005b50:	4293      	cmp	r3, r2
 8005b52:	f000 8614 	beq.w	800677e <HAL_DMA_IRQHandler+0x15d2>
 8005b56:	f502 6280 	add.w	r2, r2, #1024	; 0x400
 8005b5a:	4293      	cmp	r3, r2
 8005b5c:	f000 860f 	beq.w	800677e <HAL_DMA_IRQHandler+0x15d2>
 8005b60:	f5a2 7268 	sub.w	r2, r2, #928	; 0x3a0
 8005b64:	4293      	cmp	r3, r2
 8005b66:	f000 860a 	beq.w	800677e <HAL_DMA_IRQHandler+0x15d2>
 8005b6a:	f502 6280 	add.w	r2, r2, #1024	; 0x400
 8005b6e:	4293      	cmp	r3, r2
 8005b70:	f000 8605 	beq.w	800677e <HAL_DMA_IRQHandler+0x15d2>
 8005b74:	f5a2 6289 	sub.w	r2, r2, #1096	; 0x448
 8005b78:	4293      	cmp	r3, r2
 8005b7a:	f000 87c2 	beq.w	8006b02 <HAL_DMA_IRQHandler+0x1956>
 8005b7e:	f502 6280 	add.w	r2, r2, #1024	; 0x400
 8005b82:	4293      	cmp	r3, r2
 8005b84:	f000 87bd 	beq.w	8006b02 <HAL_DMA_IRQHandler+0x1956>
 8005b88:	f5a2 7268 	sub.w	r2, r2, #928	; 0x3a0
 8005b8c:	4293      	cmp	r3, r2
 8005b8e:	f000 87b8 	beq.w	8006b02 <HAL_DMA_IRQHandler+0x1956>
 8005b92:	f502 6280 	add.w	r2, r2, #1024	; 0x400
 8005b96:	4293      	cmp	r3, r2
 8005b98:	f000 87b3 	beq.w	8006b02 <HAL_DMA_IRQHandler+0x1956>
 8005b9c:	f5a2 6289 	sub.w	r2, r2, #1096	; 0x448
 8005ba0:	4293      	cmp	r3, r2
 8005ba2:	f001 80d2 	beq.w	8006d4a <HAL_DMA_IRQHandler+0x1b9e>
 8005ba6:	f502 6280 	add.w	r2, r2, #1024	; 0x400
 8005baa:	4293      	cmp	r3, r2
 8005bac:	f001 80cd 	beq.w	8006d4a <HAL_DMA_IRQHandler+0x1b9e>
 8005bb0:	f5a2 7268 	sub.w	r2, r2, #928	; 0x3a0
 8005bb4:	4293      	cmp	r3, r2
 8005bb6:	f001 80c8 	beq.w	8006d4a <HAL_DMA_IRQHandler+0x1b9e>
 8005bba:	493f      	ldr	r1, [pc, #252]	; (8005cb8 <HAL_DMA_IRQHandler+0xb0c>)
 8005bbc:	428b      	cmp	r3, r1
 8005bbe:	bf0c      	ite	eq
 8005bc0:	f44f 3180 	moveq.w	r1, #65536	; 0x10000
 8005bc4:	f44f 0180 	movne.w	r1, #4194304	; 0x400000
 8005bc8:	4a3c      	ldr	r2, [pc, #240]	; (8005cbc <HAL_DMA_IRQHandler+0xb10>)
 8005bca:	6ca3      	ldr	r3, [r4, #72]	; 0x48
 8005bcc:	6091      	str	r1, [r2, #8]
 8005bce:	6ce2      	ldr	r2, [r4, #76]	; 0x4c
 8005bd0:	2104      	movs	r1, #4
 8005bd2:	f042 0202 	orr.w	r2, r2, #2
 8005bd6:	2000      	movs	r0, #0
 8005bd8:	64e2      	str	r2, [r4, #76]	; 0x4c
 8005bda:	f884 0034 	strb.w	r0, [r4, #52]	; 0x34
 8005bde:	f884 1035 	strb.w	r1, [r4, #53]	; 0x35
 8005be2:	2b00      	cmp	r3, #0
 8005be4:	f47f ac59 	bne.w	800549a <HAL_DMA_IRQHandler+0x2ee>
 8005be8:	6823      	ldr	r3, [r4, #0]
 8005bea:	e49d      	b.n	8005528 <HAL_DMA_IRQHandler+0x37c>
 8005bec:	4a2f      	ldr	r2, [pc, #188]	; (8005cac <HAL_DMA_IRQHandler+0xb00>)
 8005bee:	6800      	ldr	r0, [r0, #0]
 8005bf0:	4293      	cmp	r3, r2
 8005bf2:	f47f aae8 	bne.w	80051c6 <HAL_DMA_IRQHandler+0x1a>
 8005bf6:	f7ff bb27 	b.w	8005248 <HAL_DMA_IRQHandler+0x9c>
 8005bfa:	4a2e      	ldr	r2, [pc, #184]	; (8005cb4 <HAL_DMA_IRQHandler+0xb08>)
 8005bfc:	4293      	cmp	r3, r2
 8005bfe:	f240 837a 	bls.w	80062f6 <HAL_DMA_IRQHandler+0x114a>
 8005c02:	3aa8      	subs	r2, #168	; 0xa8
 8005c04:	4293      	cmp	r3, r2
 8005c06:	f000 85c0 	beq.w	800678a <HAL_DMA_IRQHandler+0x15de>
 8005c0a:	f502 6280 	add.w	r2, r2, #1024	; 0x400
 8005c0e:	4293      	cmp	r3, r2
 8005c10:	f000 8722 	beq.w	8006a58 <HAL_DMA_IRQHandler+0x18ac>
 8005c14:	f5a2 7268 	sub.w	r2, r2, #928	; 0x3a0
 8005c18:	4293      	cmp	r3, r2
 8005c1a:	f000 85b6 	beq.w	800678a <HAL_DMA_IRQHandler+0x15de>
 8005c1e:	f502 6280 	add.w	r2, r2, #1024	; 0x400
 8005c22:	4293      	cmp	r3, r2
 8005c24:	f000 85b1 	beq.w	800678a <HAL_DMA_IRQHandler+0x15de>
 8005c28:	f5a2 6289 	sub.w	r2, r2, #1096	; 0x448
 8005c2c:	4293      	cmp	r3, r2
 8005c2e:	f000 87db 	beq.w	8006be8 <HAL_DMA_IRQHandler+0x1a3c>
 8005c32:	f502 6280 	add.w	r2, r2, #1024	; 0x400
 8005c36:	4293      	cmp	r3, r2
 8005c38:	f001 8005 	beq.w	8006c46 <HAL_DMA_IRQHandler+0x1a9a>
 8005c3c:	f5a2 7268 	sub.w	r2, r2, #928	; 0x3a0
 8005c40:	4293      	cmp	r3, r2
 8005c42:	f000 87e8 	beq.w	8006c16 <HAL_DMA_IRQHandler+0x1a6a>
 8005c46:	f502 6280 	add.w	r2, r2, #1024	; 0x400
 8005c4a:	4293      	cmp	r3, r2
 8005c4c:	f000 87e3 	beq.w	8006c16 <HAL_DMA_IRQHandler+0x1a6a>
 8005c50:	f5a2 6289 	sub.w	r2, r2, #1096	; 0x448
 8005c54:	4293      	cmp	r3, r2
 8005c56:	f001 80a5 	beq.w	8006da4 <HAL_DMA_IRQHandler+0x1bf8>
 8005c5a:	f502 6280 	add.w	r2, r2, #1024	; 0x400
 8005c5e:	4293      	cmp	r3, r2
 8005c60:	f001 80d9 	beq.w	8006e16 <HAL_DMA_IRQHandler+0x1c6a>
 8005c64:	f5a2 7268 	sub.w	r2, r2, #928	; 0x3a0
 8005c68:	4293      	cmp	r3, r2
 8005c6a:	f001 809b 	beq.w	8006da4 <HAL_DMA_IRQHandler+0x1bf8>
 8005c6e:	f502 6280 	add.w	r2, r2, #1024	; 0x400
 8005c72:	4293      	cmp	r3, r2
 8005c74:	f001 8096 	beq.w	8006da4 <HAL_DMA_IRQHandler+0x1bf8>
 8005c78:	4d10      	ldr	r5, [pc, #64]	; (8005cbc <HAL_DMA_IRQHandler+0xb10>)
 8005c7a:	f04f 7200 	mov.w	r2, #33554432	; 0x2000000
 8005c7e:	60aa      	str	r2, [r5, #8]
 8005c80:	6ce0      	ldr	r0, [r4, #76]	; 0x4c
 8005c82:	6ca2      	ldr	r2, [r4, #72]	; 0x48
 8005c84:	f040 0001 	orr.w	r0, r0, #1
 8005c88:	64e0      	str	r0, [r4, #76]	; 0x4c
 8005c8a:	f04f 0c04 	mov.w	ip, #4
 8005c8e:	2000      	movs	r0, #0
 8005c90:	f884 c035 	strb.w	ip, [r4, #53]	; 0x35
 8005c94:	f884 0034 	strb.w	r0, [r4, #52]	; 0x34
 8005c98:	2a00      	cmp	r2, #0
 8005c9a:	f47f ab46 	bne.w	800532a <HAL_DMA_IRQHandler+0x17e>
 8005c9e:	6828      	ldr	r0, [r5, #0]
 8005ca0:	f44f 0280 	mov.w	r2, #4194304	; 0x400000
 8005ca4:	f7ff bb90 	b.w	80053c8 <HAL_DMA_IRQHandler+0x21c>
 8005ca8:	40026058 	.word	0x40026058
 8005cac:	40026010 	.word	0x40026010
 8005cb0:	40026000 	.word	0x40026000
 8005cb4:	400260b8 	.word	0x400260b8
 8005cb8:	400264a0 	.word	0x400264a0
 8005cbc:	40026400 	.word	0x40026400
 8005cc0:	4a52      	ldr	r2, [pc, #328]	; (8005e0c <HAL_DMA_IRQHandler+0xc60>)
 8005cc2:	4293      	cmp	r3, r2
 8005cc4:	f240 81e3 	bls.w	800608e <HAL_DMA_IRQHandler+0xee2>
 8005cc8:	f5a2 6289 	sub.w	r2, r2, #1096	; 0x448
 8005ccc:	4293      	cmp	r3, r2
 8005cce:	f000 8548 	beq.w	8006762 <HAL_DMA_IRQHandler+0x15b6>
 8005cd2:	f502 6280 	add.w	r2, r2, #1024	; 0x400
 8005cd6:	4293      	cmp	r3, r2
 8005cd8:	f000 8543 	beq.w	8006762 <HAL_DMA_IRQHandler+0x15b6>
 8005cdc:	f5a2 7268 	sub.w	r2, r2, #928	; 0x3a0
 8005ce0:	4293      	cmp	r3, r2
 8005ce2:	f000 853e 	beq.w	8006762 <HAL_DMA_IRQHandler+0x15b6>
 8005ce6:	f502 6280 	add.w	r2, r2, #1024	; 0x400
 8005cea:	4293      	cmp	r3, r2
 8005cec:	f000 8539 	beq.w	8006762 <HAL_DMA_IRQHandler+0x15b6>
 8005cf0:	f5a2 6289 	sub.w	r2, r2, #1096	; 0x448
 8005cf4:	4293      	cmp	r3, r2
 8005cf6:	f000 86fc 	beq.w	8006af2 <HAL_DMA_IRQHandler+0x1946>
 8005cfa:	f502 6280 	add.w	r2, r2, #1024	; 0x400
 8005cfe:	4293      	cmp	r3, r2
 8005d00:	f000 86f7 	beq.w	8006af2 <HAL_DMA_IRQHandler+0x1946>
 8005d04:	f5a2 7268 	sub.w	r2, r2, #928	; 0x3a0
 8005d08:	4293      	cmp	r3, r2
 8005d0a:	f000 86f2 	beq.w	8006af2 <HAL_DMA_IRQHandler+0x1946>
 8005d0e:	f502 6280 	add.w	r2, r2, #1024	; 0x400
 8005d12:	4293      	cmp	r3, r2
 8005d14:	f000 86ed 	beq.w	8006af2 <HAL_DMA_IRQHandler+0x1946>
 8005d18:	f5a2 6289 	sub.w	r2, r2, #1096	; 0x448
 8005d1c:	4293      	cmp	r3, r2
 8005d1e:	f001 8008 	beq.w	8006d32 <HAL_DMA_IRQHandler+0x1b86>
 8005d22:	f502 6280 	add.w	r2, r2, #1024	; 0x400
 8005d26:	4293      	cmp	r3, r2
 8005d28:	f001 8003 	beq.w	8006d32 <HAL_DMA_IRQHandler+0x1b86>
 8005d2c:	f5a2 7268 	sub.w	r2, r2, #928	; 0x3a0
 8005d30:	4293      	cmp	r3, r2
 8005d32:	f000 87fe 	beq.w	8006d32 <HAL_DMA_IRQHandler+0x1b86>
 8005d36:	4936      	ldr	r1, [pc, #216]	; (8005e10 <HAL_DMA_IRQHandler+0xc64>)
 8005d38:	428b      	cmp	r3, r1
 8005d3a:	bf0c      	ite	eq
 8005d3c:	f44f 1100 	moveq.w	r1, #2097152	; 0x200000
 8005d40:	f04f 6100 	movne.w	r1, #134217728	; 0x8000000
 8005d44:	4a33      	ldr	r2, [pc, #204]	; (8005e14 <HAL_DMA_IRQHandler+0xc68>)
 8005d46:	60d1      	str	r1, [r2, #12]
 8005d48:	681a      	ldr	r2, [r3, #0]
 8005d4a:	0315      	lsls	r5, r2, #12
 8005d4c:	f100 8546 	bmi.w	80067dc <HAL_DMA_IRQHandler+0x1630>
 8005d50:	6c63      	ldr	r3, [r4, #68]	; 0x44
 8005d52:	2b00      	cmp	r3, #0
 8005d54:	f43f ade5 	beq.w	8005922 <HAL_DMA_IRQHandler+0x776>
 8005d58:	4620      	mov	r0, r4
 8005d5a:	e8bd 4070 	ldmia.w	sp!, {r4, r5, r6, lr}
 8005d5e:	4718      	bx	r3
 8005d60:	4a2a      	ldr	r2, [pc, #168]	; (8005e0c <HAL_DMA_IRQHandler+0xc60>)
 8005d62:	4293      	cmp	r3, r2
 8005d64:	f240 8234 	bls.w	80061d0 <HAL_DMA_IRQHandler+0x1024>
 8005d68:	f5a2 6289 	sub.w	r2, r2, #1096	; 0x448
 8005d6c:	4293      	cmp	r3, r2
 8005d6e:	f000 8503 	beq.w	8006778 <HAL_DMA_IRQHandler+0x15cc>
 8005d72:	f502 6280 	add.w	r2, r2, #1024	; 0x400
 8005d76:	4293      	cmp	r3, r2
 8005d78:	f000 84fe 	beq.w	8006778 <HAL_DMA_IRQHandler+0x15cc>
 8005d7c:	f5a2 7268 	sub.w	r2, r2, #928	; 0x3a0
 8005d80:	4293      	cmp	r3, r2
 8005d82:	f000 84f9 	beq.w	8006778 <HAL_DMA_IRQHandler+0x15cc>
 8005d86:	f502 6280 	add.w	r2, r2, #1024	; 0x400
 8005d8a:	4293      	cmp	r3, r2
 8005d8c:	f000 84f4 	beq.w	8006778 <HAL_DMA_IRQHandler+0x15cc>
 8005d90:	f5a2 6289 	sub.w	r2, r2, #1096	; 0x448
 8005d94:	4293      	cmp	r3, r2
 8005d96:	f000 86b7 	beq.w	8006b08 <HAL_DMA_IRQHandler+0x195c>
 8005d9a:	f502 6280 	add.w	r2, r2, #1024	; 0x400
 8005d9e:	4293      	cmp	r3, r2
 8005da0:	f000 86b2 	beq.w	8006b08 <HAL_DMA_IRQHandler+0x195c>
 8005da4:	f5a2 7268 	sub.w	r2, r2, #928	; 0x3a0
 8005da8:	4293      	cmp	r3, r2
 8005daa:	f000 86ad 	beq.w	8006b08 <HAL_DMA_IRQHandler+0x195c>
 8005dae:	f502 6280 	add.w	r2, r2, #1024	; 0x400
 8005db2:	4293      	cmp	r3, r2
 8005db4:	f000 86a8 	beq.w	8006b08 <HAL_DMA_IRQHandler+0x195c>
 8005db8:	f5a2 6289 	sub.w	r2, r2, #1096	; 0x448
 8005dbc:	4293      	cmp	r3, r2
 8005dbe:	f000 87c0 	beq.w	8006d42 <HAL_DMA_IRQHandler+0x1b96>
 8005dc2:	f502 6280 	add.w	r2, r2, #1024	; 0x400
 8005dc6:	4293      	cmp	r3, r2
 8005dc8:	f000 87bb 	beq.w	8006d42 <HAL_DMA_IRQHandler+0x1b96>
 8005dcc:	f5a2 7268 	sub.w	r2, r2, #928	; 0x3a0
 8005dd0:	4293      	cmp	r3, r2
 8005dd2:	f000 87b6 	beq.w	8006d42 <HAL_DMA_IRQHandler+0x1b96>
 8005dd6:	490e      	ldr	r1, [pc, #56]	; (8005e10 <HAL_DMA_IRQHandler+0xc64>)
 8005dd8:	428b      	cmp	r3, r1
 8005dda:	bf0c      	ite	eq
 8005ddc:	f44f 1180 	moveq.w	r1, #1048576	; 0x100000
 8005de0:	f04f 6180 	movne.w	r1, #67108864	; 0x4000000
 8005de4:	4a0b      	ldr	r2, [pc, #44]	; (8005e14 <HAL_DMA_IRQHandler+0xc68>)
 8005de6:	60d1      	str	r1, [r2, #12]
 8005de8:	681a      	ldr	r2, [r3, #0]
 8005dea:	0315      	lsls	r5, r2, #12
 8005dec:	f57f adf8 	bpl.w	80059e0 <HAL_DMA_IRQHandler+0x834>
 8005df0:	681a      	ldr	r2, [r3, #0]
 8005df2:	0310      	lsls	r0, r2, #12
 8005df4:	d502      	bpl.n	8005dfc <HAL_DMA_IRQHandler+0xc50>
 8005df6:	2241      	movs	r2, #65	; 0x41
 8005df8:	f884 2035 	strb.w	r2, [r4, #53]	; 0x35
 8005dfc:	6c22      	ldr	r2, [r4, #64]	; 0x40
 8005dfe:	2a00      	cmp	r2, #0
 8005e00:	f43f ad93 	beq.w	800592a <HAL_DMA_IRQHandler+0x77e>
 8005e04:	4620      	mov	r0, r4
 8005e06:	4790      	blx	r2
 8005e08:	6823      	ldr	r3, [r4, #0]
 8005e0a:	e58e      	b.n	800592a <HAL_DMA_IRQHandler+0x77e>
 8005e0c:	40026458 	.word	0x40026458
 8005e10:	400264a0 	.word	0x400264a0
 8005e14:	40026400 	.word	0x40026400
 8005e18:	4ac1      	ldr	r2, [pc, #772]	; (8006120 <HAL_DMA_IRQHandler+0xf74>)
 8005e1a:	4291      	cmp	r1, r2
 8005e1c:	f240 8408 	bls.w	8006630 <HAL_DMA_IRQHandler+0x1484>
 8005e20:	3a48      	subs	r2, #72	; 0x48
 8005e22:	4293      	cmp	r3, r2
 8005e24:	f000 84ee 	beq.w	8006804 <HAL_DMA_IRQHandler+0x1658>
 8005e28:	f502 6280 	add.w	r2, r2, #1024	; 0x400
 8005e2c:	4293      	cmp	r3, r2
 8005e2e:	f000 84e9 	beq.w	8006804 <HAL_DMA_IRQHandler+0x1658>
 8005e32:	f5a2 7268 	sub.w	r2, r2, #928	; 0x3a0
 8005e36:	4293      	cmp	r3, r2
 8005e38:	f000 84e4 	beq.w	8006804 <HAL_DMA_IRQHandler+0x1658>
 8005e3c:	f502 6280 	add.w	r2, r2, #1024	; 0x400
 8005e40:	4293      	cmp	r3, r2
 8005e42:	f000 84df 	beq.w	8006804 <HAL_DMA_IRQHandler+0x1658>
 8005e46:	f5a2 6289 	sub.w	r2, r2, #1096	; 0x448
 8005e4a:	4293      	cmp	r3, r2
 8005e4c:	f000 869a 	beq.w	8006b84 <HAL_DMA_IRQHandler+0x19d8>
 8005e50:	f502 6280 	add.w	r2, r2, #1024	; 0x400
 8005e54:	4293      	cmp	r3, r2
 8005e56:	f000 8695 	beq.w	8006b84 <HAL_DMA_IRQHandler+0x19d8>
 8005e5a:	f5a2 7268 	sub.w	r2, r2, #928	; 0x3a0
 8005e5e:	4293      	cmp	r3, r2
 8005e60:	f000 8690 	beq.w	8006b84 <HAL_DMA_IRQHandler+0x19d8>
 8005e64:	f502 6280 	add.w	r2, r2, #1024	; 0x400
 8005e68:	4293      	cmp	r3, r2
 8005e6a:	f000 868b 	beq.w	8006b84 <HAL_DMA_IRQHandler+0x19d8>
 8005e6e:	f5a2 6289 	sub.w	r2, r2, #1096	; 0x448
 8005e72:	4293      	cmp	r3, r2
 8005e74:	f000 87bc 	beq.w	8006df0 <HAL_DMA_IRQHandler+0x1c44>
 8005e78:	f502 6280 	add.w	r2, r2, #1024	; 0x400
 8005e7c:	4293      	cmp	r3, r2
 8005e7e:	f000 87b7 	beq.w	8006df0 <HAL_DMA_IRQHandler+0x1c44>
 8005e82:	f5a2 7268 	sub.w	r2, r2, #928	; 0x3a0
 8005e86:	4293      	cmp	r3, r2
 8005e88:	f000 87b2 	beq.w	8006df0 <HAL_DMA_IRQHandler+0x1c44>
 8005e8c:	f502 6280 	add.w	r2, r2, #1024	; 0x400
 8005e90:	4293      	cmp	r3, r2
 8005e92:	bf0c      	ite	eq
 8005e94:	f44f 3280 	moveq.w	r2, #65536	; 0x10000
 8005e98:	f44f 0280 	movne.w	r2, #4194304	; 0x400000
 8005e9c:	49a1      	ldr	r1, [pc, #644]	; (8006124 <HAL_DMA_IRQHandler+0xf78>)
 8005e9e:	6ca3      	ldr	r3, [r4, #72]	; 0x48
 8005ea0:	60ca      	str	r2, [r1, #12]
 8005ea2:	6ce2      	ldr	r2, [r4, #76]	; 0x4c
 8005ea4:	2104      	movs	r1, #4
 8005ea6:	f042 0202 	orr.w	r2, r2, #2
 8005eaa:	2000      	movs	r0, #0
 8005eac:	64e2      	str	r2, [r4, #76]	; 0x4c
 8005eae:	f884 0034 	strb.w	r0, [r4, #52]	; 0x34
 8005eb2:	f884 1035 	strb.w	r1, [r4, #53]	; 0x35
 8005eb6:	2b00      	cmp	r3, #0
 8005eb8:	f47f aaef 	bne.w	800549a <HAL_DMA_IRQHandler+0x2ee>
 8005ebc:	6823      	ldr	r3, [r4, #0]
 8005ebe:	4a9a      	ldr	r2, [pc, #616]	; (8006128 <HAL_DMA_IRQHandler+0xf7c>)
 8005ec0:	4998      	ldr	r1, [pc, #608]	; (8006124 <HAL_DMA_IRQHandler+0xf78>)
 8005ec2:	4293      	cmp	r3, r2
 8005ec4:	6849      	ldr	r1, [r1, #4]
 8005ec6:	f47f ae03 	bne.w	8005ad0 <HAL_DMA_IRQHandler+0x924>
 8005eca:	4a98      	ldr	r2, [pc, #608]	; (800612c <HAL_DMA_IRQHandler+0xf80>)
 8005ecc:	4211      	tst	r1, r2
 8005ece:	bf14      	ite	ne
 8005ed0:	2201      	movne	r2, #1
 8005ed2:	2200      	moveq	r2, #0
 8005ed4:	2a00      	cmp	r2, #0
 8005ed6:	f43f ada1 	beq.w	8005a1c <HAL_DMA_IRQHandler+0x870>
 8005eda:	681a      	ldr	r2, [r3, #0]
 8005edc:	0792      	lsls	r2, r2, #30
 8005ede:	f57f ab86 	bpl.w	80055ee <HAL_DMA_IRQHandler+0x442>
 8005ee2:	681a      	ldr	r2, [r3, #0]
 8005ee4:	f022 0202 	bic.w	r2, r2, #2
 8005ee8:	601a      	str	r2, [r3, #0]
 8005eea:	4a8d      	ldr	r2, [pc, #564]	; (8006120 <HAL_DMA_IRQHandler+0xf74>)
 8005eec:	4293      	cmp	r3, r2
 8005eee:	f200 8244 	bhi.w	800637a <HAL_DMA_IRQHandler+0x11ce>
 8005ef2:	4a8d      	ldr	r2, [pc, #564]	; (8006128 <HAL_DMA_IRQHandler+0xf7c>)
 8005ef4:	4293      	cmp	r3, r2
 8005ef6:	f000 8494 	beq.w	8006822 <HAL_DMA_IRQHandler+0x1676>
 8005efa:	f502 6280 	add.w	r2, r2, #1024	; 0x400
 8005efe:	4293      	cmp	r3, r2
 8005f00:	f000 848f 	beq.w	8006822 <HAL_DMA_IRQHandler+0x1676>
 8005f04:	f5a2 7268 	sub.w	r2, r2, #928	; 0x3a0
 8005f08:	4293      	cmp	r3, r2
 8005f0a:	f000 848a 	beq.w	8006822 <HAL_DMA_IRQHandler+0x1676>
 8005f0e:	f502 6280 	add.w	r2, r2, #1024	; 0x400
 8005f12:	4293      	cmp	r3, r2
 8005f14:	f000 8485 	beq.w	8006822 <HAL_DMA_IRQHandler+0x1676>
 8005f18:	f5a2 6289 	sub.w	r2, r2, #1096	; 0x448
 8005f1c:	4293      	cmp	r3, r2
 8005f1e:	f000 8621 	beq.w	8006b64 <HAL_DMA_IRQHandler+0x19b8>
 8005f22:	f502 6280 	add.w	r2, r2, #1024	; 0x400
 8005f26:	4293      	cmp	r3, r2
 8005f28:	f000 861c 	beq.w	8006b64 <HAL_DMA_IRQHandler+0x19b8>
 8005f2c:	f5a2 7268 	sub.w	r2, r2, #928	; 0x3a0
 8005f30:	4293      	cmp	r3, r2
 8005f32:	f000 8617 	beq.w	8006b64 <HAL_DMA_IRQHandler+0x19b8>
 8005f36:	f502 6280 	add.w	r2, r2, #1024	; 0x400
 8005f3a:	4293      	cmp	r3, r2
 8005f3c:	f000 8612 	beq.w	8006b64 <HAL_DMA_IRQHandler+0x19b8>
 8005f40:	f5a2 6289 	sub.w	r2, r2, #1096	; 0x448
 8005f44:	4293      	cmp	r3, r2
 8005f46:	f000 875e 	beq.w	8006e06 <HAL_DMA_IRQHandler+0x1c5a>
 8005f4a:	f502 6280 	add.w	r2, r2, #1024	; 0x400
 8005f4e:	4293      	cmp	r3, r2
 8005f50:	f000 8759 	beq.w	8006e06 <HAL_DMA_IRQHandler+0x1c5a>
 8005f54:	f5a2 7268 	sub.w	r2, r2, #928	; 0x3a0
 8005f58:	4293      	cmp	r3, r2
 8005f5a:	f000 8754 	beq.w	8006e06 <HAL_DMA_IRQHandler+0x1c5a>
 8005f5e:	4974      	ldr	r1, [pc, #464]	; (8006130 <HAL_DMA_IRQHandler+0xf84>)
 8005f60:	428b      	cmp	r3, r1
 8005f62:	bf0c      	ite	eq
 8005f64:	f44f 2180 	moveq.w	r1, #262144	; 0x40000
 8005f68:	f04f 7180 	movne.w	r1, #16777216	; 0x1000000
 8005f6c:	486d      	ldr	r0, [pc, #436]	; (8006124 <HAL_DMA_IRQHandler+0xf78>)
 8005f6e:	6ca2      	ldr	r2, [r4, #72]	; 0x48
 8005f70:	6081      	str	r1, [r0, #8]
 8005f72:	6ce1      	ldr	r1, [r4, #76]	; 0x4c
 8005f74:	2004      	movs	r0, #4
 8005f76:	4301      	orrs	r1, r0
 8005f78:	2500      	movs	r5, #0
 8005f7a:	64e1      	str	r1, [r4, #76]	; 0x4c
 8005f7c:	f884 5034 	strb.w	r5, [r4, #52]	; 0x34
 8005f80:	f884 0035 	strb.w	r0, [r4, #53]	; 0x35
 8005f84:	2a00      	cmp	r2, #0
 8005f86:	f47f ab2f 	bne.w	80055e8 <HAL_DMA_IRQHandler+0x43c>
 8005f8a:	4a67      	ldr	r2, [pc, #412]	; (8006128 <HAL_DMA_IRQHandler+0xf7c>)
 8005f8c:	4965      	ldr	r1, [pc, #404]	; (8006124 <HAL_DMA_IRQHandler+0xf78>)
 8005f8e:	4293      	cmp	r3, r2
 8005f90:	6809      	ldr	r1, [r1, #0]
 8005f92:	d060      	beq.n	8006056 <HAL_DMA_IRQHandler+0xeaa>
 8005f94:	f502 6280 	add.w	r2, r2, #1024	; 0x400
 8005f98:	4293      	cmp	r3, r2
 8005f9a:	d05c      	beq.n	8006056 <HAL_DMA_IRQHandler+0xeaa>
 8005f9c:	f5a2 7268 	sub.w	r2, r2, #928	; 0x3a0
 8005fa0:	4293      	cmp	r3, r2
 8005fa2:	d058      	beq.n	8006056 <HAL_DMA_IRQHandler+0xeaa>
 8005fa4:	f502 6280 	add.w	r2, r2, #1024	; 0x400
 8005fa8:	4293      	cmp	r3, r2
 8005faa:	d054      	beq.n	8006056 <HAL_DMA_IRQHandler+0xeaa>
 8005fac:	f5a2 6289 	sub.w	r2, r2, #1096	; 0x448
 8005fb0:	4293      	cmp	r3, r2
 8005fb2:	f000 8440 	beq.w	8006836 <HAL_DMA_IRQHandler+0x168a>
 8005fb6:	f502 6280 	add.w	r2, r2, #1024	; 0x400
 8005fba:	4293      	cmp	r3, r2
 8005fbc:	f000 843b 	beq.w	8006836 <HAL_DMA_IRQHandler+0x168a>
 8005fc0:	f5a2 7268 	sub.w	r2, r2, #928	; 0x3a0
 8005fc4:	4293      	cmp	r3, r2
 8005fc6:	f000 8436 	beq.w	8006836 <HAL_DMA_IRQHandler+0x168a>
 8005fca:	f502 6280 	add.w	r2, r2, #1024	; 0x400
 8005fce:	4293      	cmp	r3, r2
 8005fd0:	f000 8431 	beq.w	8006836 <HAL_DMA_IRQHandler+0x168a>
 8005fd4:	f5a2 6289 	sub.w	r2, r2, #1096	; 0x448
 8005fd8:	4293      	cmp	r3, r2
 8005fda:	f000 85f8 	beq.w	8006bce <HAL_DMA_IRQHandler+0x1a22>
 8005fde:	f502 6280 	add.w	r2, r2, #1024	; 0x400
 8005fe2:	4293      	cmp	r3, r2
 8005fe4:	f000 85f3 	beq.w	8006bce <HAL_DMA_IRQHandler+0x1a22>
 8005fe8:	f5a2 7268 	sub.w	r2, r2, #928	; 0x3a0
 8005fec:	4293      	cmp	r3, r2
 8005fee:	f000 85ee 	beq.w	8006bce <HAL_DMA_IRQHandler+0x1a22>
 8005ff2:	f502 6280 	add.w	r2, r2, #1024	; 0x400
 8005ff6:	4293      	cmp	r3, r2
 8005ff8:	bf0c      	ite	eq
 8005ffa:	f44f 1280 	moveq.w	r2, #1048576	; 0x100000
 8005ffe:	f04f 6280 	movne.w	r2, #67108864	; 0x4000000
 8006002:	e029      	b.n	8006058 <HAL_DMA_IRQHandler+0xeac>
 8006004:	4a48      	ldr	r2, [pc, #288]	; (8006128 <HAL_DMA_IRQHandler+0xf7c>)
 8006006:	6800      	ldr	r0, [r0, #0]
 8006008:	4293      	cmp	r3, r2
 800600a:	f47f a99b 	bne.w	8005344 <HAL_DMA_IRQHandler+0x198>
 800600e:	f7ff b9da 	b.w	80053c6 <HAL_DMA_IRQHandler+0x21a>
 8006012:	f44f 6200 	mov.w	r2, #2048	; 0x800
 8006016:	e41f      	b.n	8005858 <HAL_DMA_IRQHandler+0x6ac>
 8006018:	f44f 7200 	mov.w	r2, #512	; 0x200
 800601c:	f7ff b915 	b.w	800524a <HAL_DMA_IRQHandler+0x9e>
 8006020:	4d44      	ldr	r5, [pc, #272]	; (8006134 <HAL_DMA_IRQHandler+0xf88>)
 8006022:	f44f 7200 	mov.w	r2, #512	; 0x200
 8006026:	60ea      	str	r2, [r5, #12]
 8006028:	6ce0      	ldr	r0, [r4, #76]	; 0x4c
 800602a:	6ca2      	ldr	r2, [r4, #72]	; 0x48
 800602c:	f040 0001 	orr.w	r0, r0, #1
 8006030:	64e0      	str	r0, [r4, #76]	; 0x4c
 8006032:	f04f 0c04 	mov.w	ip, #4
 8006036:	2000      	movs	r0, #0
 8006038:	f884 c035 	strb.w	ip, [r4, #53]	; 0x35
 800603c:	f884 0034 	strb.w	r0, [r4, #52]	; 0x34
 8006040:	2a00      	cmp	r2, #0
 8006042:	f47f a972 	bne.w	800532a <HAL_DMA_IRQHandler+0x17e>
 8006046:	6868      	ldr	r0, [r5, #4]
 8006048:	2240      	movs	r2, #64	; 0x40
 800604a:	f7ff b9bd 	b.w	80053c8 <HAL_DMA_IRQHandler+0x21c>
 800604e:	f44f 7280 	mov.w	r2, #256	; 0x100
 8006052:	f7ff ba6f 	b.w	8005534 <HAL_DMA_IRQHandler+0x388>
 8006056:	2210      	movs	r2, #16
 8006058:	4211      	tst	r1, r2
 800605a:	f47f ac63 	bne.w	8005924 <HAL_DMA_IRQHandler+0x778>
 800605e:	4a32      	ldr	r2, [pc, #200]	; (8006128 <HAL_DMA_IRQHandler+0xf7c>)
 8006060:	4930      	ldr	r1, [pc, #192]	; (8006124 <HAL_DMA_IRQHandler+0xf78>)
 8006062:	4293      	cmp	r3, r2
 8006064:	6809      	ldr	r1, [r1, #0]
 8006066:	f47f ab0d 	bne.w	8005684 <HAL_DMA_IRQHandler+0x4d8>
 800606a:	f7ff bbf4 	b.w	8005856 <HAL_DMA_IRQHandler+0x6aa>
 800606e:	2210      	movs	r2, #16
 8006070:	4211      	tst	r1, r2
 8006072:	f47f ac57 	bne.w	8005924 <HAL_DMA_IRQHandler+0x778>
 8006076:	4a2c      	ldr	r2, [pc, #176]	; (8006128 <HAL_DMA_IRQHandler+0xf7c>)
 8006078:	492a      	ldr	r1, [pc, #168]	; (8006124 <HAL_DMA_IRQHandler+0xf78>)
 800607a:	4293      	cmp	r3, r2
 800607c:	6849      	ldr	r1, [r1, #4]
 800607e:	f47f ab01 	bne.w	8005684 <HAL_DMA_IRQHandler+0x4d8>
 8006082:	f7ff bbe8 	b.w	8005856 <HAL_DMA_IRQHandler+0x6aa>
 8006086:	f44f 6280 	mov.w	r2, #1024	; 0x400
 800608a:	f7ff baf2 	b.w	8005672 <HAL_DMA_IRQHandler+0x4c6>
 800608e:	4a2a      	ldr	r2, [pc, #168]	; (8006138 <HAL_DMA_IRQHandler+0xf8c>)
 8006090:	4293      	cmp	r3, r2
 8006092:	f200 8249 	bhi.w	8006528 <HAL_DMA_IRQHandler+0x137c>
 8006096:	4a22      	ldr	r2, [pc, #136]	; (8006120 <HAL_DMA_IRQHandler+0xf74>)
 8006098:	4293      	cmp	r3, r2
 800609a:	f240 845d 	bls.w	8006958 <HAL_DMA_IRQHandler+0x17ac>
 800609e:	3a48      	subs	r2, #72	; 0x48
 80060a0:	4293      	cmp	r3, r2
 80060a2:	f000 8516 	beq.w	8006ad2 <HAL_DMA_IRQHandler+0x1926>
 80060a6:	f502 6280 	add.w	r2, r2, #1024	; 0x400
 80060aa:	4293      	cmp	r3, r2
 80060ac:	f000 8511 	beq.w	8006ad2 <HAL_DMA_IRQHandler+0x1926>
 80060b0:	f5a2 7268 	sub.w	r2, r2, #928	; 0x3a0
 80060b4:	4293      	cmp	r3, r2
 80060b6:	f000 850c 	beq.w	8006ad2 <HAL_DMA_IRQHandler+0x1926>
 80060ba:	f502 6280 	add.w	r2, r2, #1024	; 0x400
 80060be:	4293      	cmp	r3, r2
 80060c0:	f000 8507 	beq.w	8006ad2 <HAL_DMA_IRQHandler+0x1926>
 80060c4:	f5a2 6289 	sub.w	r2, r2, #1096	; 0x448
 80060c8:	4293      	cmp	r3, r2
 80060ca:	f000 8624 	beq.w	8006d16 <HAL_DMA_IRQHandler+0x1b6a>
 80060ce:	f502 6280 	add.w	r2, r2, #1024	; 0x400
 80060d2:	4293      	cmp	r3, r2
 80060d4:	f000 861f 	beq.w	8006d16 <HAL_DMA_IRQHandler+0x1b6a>
 80060d8:	f5a2 7268 	sub.w	r2, r2, #928	; 0x3a0
 80060dc:	4293      	cmp	r3, r2
 80060de:	f000 861a 	beq.w	8006d16 <HAL_DMA_IRQHandler+0x1b6a>
 80060e2:	f502 6280 	add.w	r2, r2, #1024	; 0x400
 80060e6:	4293      	cmp	r3, r2
 80060e8:	f000 8615 	beq.w	8006d16 <HAL_DMA_IRQHandler+0x1b6a>
 80060ec:	f5a2 6289 	sub.w	r2, r2, #1096	; 0x448
 80060f0:	4293      	cmp	r3, r2
 80060f2:	f000 86d6 	beq.w	8006ea2 <HAL_DMA_IRQHandler+0x1cf6>
 80060f6:	f502 6280 	add.w	r2, r2, #1024	; 0x400
 80060fa:	4293      	cmp	r3, r2
 80060fc:	f000 86d1 	beq.w	8006ea2 <HAL_DMA_IRQHandler+0x1cf6>
 8006100:	f5a2 7268 	sub.w	r2, r2, #928	; 0x3a0
 8006104:	4293      	cmp	r3, r2
 8006106:	f000 86cc 	beq.w	8006ea2 <HAL_DMA_IRQHandler+0x1cf6>
 800610a:	f502 6280 	add.w	r2, r2, #1024	; 0x400
 800610e:	4293      	cmp	r3, r2
 8006110:	bf0c      	ite	eq
 8006112:	f44f 1200 	moveq.w	r2, #2097152	; 0x200000
 8006116:	f04f 6200 	movne.w	r2, #134217728	; 0x8000000
 800611a:	4902      	ldr	r1, [pc, #8]	; (8006124 <HAL_DMA_IRQHandler+0xf78>)
 800611c:	60ca      	str	r2, [r1, #12]
 800611e:	e613      	b.n	8005d48 <HAL_DMA_IRQHandler+0xb9c>
 8006120:	40026058 	.word	0x40026058
 8006124:	40026000 	.word	0x40026000
 8006128:	40026010 	.word	0x40026010
 800612c:	00800004 	.word	0x00800004
 8006130:	400264a0 	.word	0x400264a0
 8006134:	40026400 	.word	0x40026400
 8006138:	400260b8 	.word	0x400260b8
 800613c:	4ab6      	ldr	r2, [pc, #728]	; (8006418 <HAL_DMA_IRQHandler+0x126c>)
 800613e:	4293      	cmp	r3, r2
 8006140:	f200 81b0 	bhi.w	80064a4 <HAL_DMA_IRQHandler+0x12f8>
 8006144:	4ab5      	ldr	r2, [pc, #724]	; (800641c <HAL_DMA_IRQHandler+0x1270>)
 8006146:	4293      	cmp	r3, r2
 8006148:	f240 8448 	bls.w	80069dc <HAL_DMA_IRQHandler+0x1830>
 800614c:	3a48      	subs	r2, #72	; 0x48
 800614e:	4293      	cmp	r3, r2
 8006150:	f000 84ba 	beq.w	8006ac8 <HAL_DMA_IRQHandler+0x191c>
 8006154:	f502 6280 	add.w	r2, r2, #1024	; 0x400
 8006158:	4293      	cmp	r3, r2
 800615a:	f000 84b5 	beq.w	8006ac8 <HAL_DMA_IRQHandler+0x191c>
 800615e:	f5a2 7268 	sub.w	r2, r2, #928	; 0x3a0
 8006162:	4293      	cmp	r3, r2
 8006164:	f000 84b0 	beq.w	8006ac8 <HAL_DMA_IRQHandler+0x191c>
 8006168:	f502 6280 	add.w	r2, r2, #1024	; 0x400
 800616c:	4293      	cmp	r3, r2
 800616e:	f000 84ab 	beq.w	8006ac8 <HAL_DMA_IRQHandler+0x191c>
 8006172:	f5a2 6289 	sub.w	r2, r2, #1096	; 0x448
 8006176:	4293      	cmp	r3, r2
 8006178:	f000 85d1 	beq.w	8006d1e <HAL_DMA_IRQHandler+0x1b72>
 800617c:	f502 6280 	add.w	r2, r2, #1024	; 0x400
 8006180:	4293      	cmp	r3, r2
 8006182:	f000 85cc 	beq.w	8006d1e <HAL_DMA_IRQHandler+0x1b72>
 8006186:	f5a2 7268 	sub.w	r2, r2, #928	; 0x3a0
 800618a:	4293      	cmp	r3, r2
 800618c:	f000 85c7 	beq.w	8006d1e <HAL_DMA_IRQHandler+0x1b72>
 8006190:	f502 6280 	add.w	r2, r2, #1024	; 0x400
 8006194:	4293      	cmp	r3, r2
 8006196:	f000 85c2 	beq.w	8006d1e <HAL_DMA_IRQHandler+0x1b72>
 800619a:	f5a2 6289 	sub.w	r2, r2, #1096	; 0x448
 800619e:	4293      	cmp	r3, r2
 80061a0:	f000 8683 	beq.w	8006eaa <HAL_DMA_IRQHandler+0x1cfe>
 80061a4:	f502 6280 	add.w	r2, r2, #1024	; 0x400
 80061a8:	4293      	cmp	r3, r2
 80061aa:	f000 867e 	beq.w	8006eaa <HAL_DMA_IRQHandler+0x1cfe>
 80061ae:	f5a2 7268 	sub.w	r2, r2, #928	; 0x3a0
 80061b2:	4293      	cmp	r3, r2
 80061b4:	f000 8679 	beq.w	8006eaa <HAL_DMA_IRQHandler+0x1cfe>
 80061b8:	f502 6280 	add.w	r2, r2, #1024	; 0x400
 80061bc:	4293      	cmp	r3, r2
 80061be:	bf0c      	ite	eq
 80061c0:	f44f 1300 	moveq.w	r3, #2097152	; 0x200000
 80061c4:	f04f 6300 	movne.w	r3, #134217728	; 0x8000000
 80061c8:	4a95      	ldr	r2, [pc, #596]	; (8006420 <HAL_DMA_IRQHandler+0x1274>)
 80061ca:	60d3      	str	r3, [r2, #12]
 80061cc:	f7ff bb9d 	b.w	800590a <HAL_DMA_IRQHandler+0x75e>
 80061d0:	4a91      	ldr	r2, [pc, #580]	; (8006418 <HAL_DMA_IRQHandler+0x126c>)
 80061d2:	4293      	cmp	r3, r2
 80061d4:	f200 827d 	bhi.w	80066d2 <HAL_DMA_IRQHandler+0x1526>
 80061d8:	4a90      	ldr	r2, [pc, #576]	; (800641c <HAL_DMA_IRQHandler+0x1270>)
 80061da:	4293      	cmp	r3, r2
 80061dc:	f240 837a 	bls.w	80068d4 <HAL_DMA_IRQHandler+0x1728>
 80061e0:	3a48      	subs	r2, #72	; 0x48
 80061e2:	4293      	cmp	r3, r2
 80061e4:	f000 847a 	beq.w	8006adc <HAL_DMA_IRQHandler+0x1930>
 80061e8:	f502 6280 	add.w	r2, r2, #1024	; 0x400
 80061ec:	4293      	cmp	r3, r2
 80061ee:	f000 8475 	beq.w	8006adc <HAL_DMA_IRQHandler+0x1930>
 80061f2:	f5a2 7268 	sub.w	r2, r2, #928	; 0x3a0
 80061f6:	4293      	cmp	r3, r2
 80061f8:	f000 8470 	beq.w	8006adc <HAL_DMA_IRQHandler+0x1930>
 80061fc:	f502 6280 	add.w	r2, r2, #1024	; 0x400
 8006200:	4293      	cmp	r3, r2
 8006202:	f000 846b 	beq.w	8006adc <HAL_DMA_IRQHandler+0x1930>
 8006206:	f5a2 6289 	sub.w	r2, r2, #1096	; 0x448
 800620a:	4293      	cmp	r3, r2
 800620c:	f000 857f 	beq.w	8006d0e <HAL_DMA_IRQHandler+0x1b62>
 8006210:	f502 6280 	add.w	r2, r2, #1024	; 0x400
 8006214:	4293      	cmp	r3, r2
 8006216:	f000 857a 	beq.w	8006d0e <HAL_DMA_IRQHandler+0x1b62>
 800621a:	f5a2 7268 	sub.w	r2, r2, #928	; 0x3a0
 800621e:	4293      	cmp	r3, r2
 8006220:	f000 8575 	beq.w	8006d0e <HAL_DMA_IRQHandler+0x1b62>
 8006224:	f502 6280 	add.w	r2, r2, #1024	; 0x400
 8006228:	4293      	cmp	r3, r2
 800622a:	f000 8570 	beq.w	8006d0e <HAL_DMA_IRQHandler+0x1b62>
 800622e:	f5a2 6289 	sub.w	r2, r2, #1096	; 0x448
 8006232:	4293      	cmp	r3, r2
 8006234:	f000 8625 	beq.w	8006e82 <HAL_DMA_IRQHandler+0x1cd6>
 8006238:	f502 6280 	add.w	r2, r2, #1024	; 0x400
 800623c:	4293      	cmp	r3, r2
 800623e:	f000 8620 	beq.w	8006e82 <HAL_DMA_IRQHandler+0x1cd6>
 8006242:	f5a2 7268 	sub.w	r2, r2, #928	; 0x3a0
 8006246:	4293      	cmp	r3, r2
 8006248:	f000 861b 	beq.w	8006e82 <HAL_DMA_IRQHandler+0x1cd6>
 800624c:	f502 6280 	add.w	r2, r2, #1024	; 0x400
 8006250:	4293      	cmp	r3, r2
 8006252:	bf0c      	ite	eq
 8006254:	f44f 1280 	moveq.w	r2, #1048576	; 0x100000
 8006258:	f04f 6280 	movne.w	r2, #67108864	; 0x4000000
 800625c:	4970      	ldr	r1, [pc, #448]	; (8006420 <HAL_DMA_IRQHandler+0x1274>)
 800625e:	60ca      	str	r2, [r1, #12]
 8006260:	e5c2      	b.n	8005de8 <HAL_DMA_IRQHandler+0xc3c>
 8006262:	4a6d      	ldr	r2, [pc, #436]	; (8006418 <HAL_DMA_IRQHandler+0x126c>)
 8006264:	4293      	cmp	r3, r2
 8006266:	f200 81a1 	bhi.w	80065ac <HAL_DMA_IRQHandler+0x1400>
 800626a:	4a6c      	ldr	r2, [pc, #432]	; (800641c <HAL_DMA_IRQHandler+0x1270>)
 800626c:	4293      	cmp	r3, r2
 800626e:	f240 82ef 	bls.w	8006850 <HAL_DMA_IRQHandler+0x16a4>
 8006272:	3a48      	subs	r2, #72	; 0x48
 8006274:	4293      	cmp	r3, r2
 8006276:	f000 8436 	beq.w	8006ae6 <HAL_DMA_IRQHandler+0x193a>
 800627a:	f502 6280 	add.w	r2, r2, #1024	; 0x400
 800627e:	4293      	cmp	r3, r2
 8006280:	f000 8431 	beq.w	8006ae6 <HAL_DMA_IRQHandler+0x193a>
 8006284:	f5a2 7268 	sub.w	r2, r2, #928	; 0x3a0
 8006288:	4293      	cmp	r3, r2
 800628a:	f000 842c 	beq.w	8006ae6 <HAL_DMA_IRQHandler+0x193a>
 800628e:	f502 6280 	add.w	r2, r2, #1024	; 0x400
 8006292:	4293      	cmp	r3, r2
 8006294:	f000 8427 	beq.w	8006ae6 <HAL_DMA_IRQHandler+0x193a>
 8006298:	f5a2 6289 	sub.w	r2, r2, #1096	; 0x448
 800629c:	4293      	cmp	r3, r2
 800629e:	f000 8532 	beq.w	8006d06 <HAL_DMA_IRQHandler+0x1b5a>
 80062a2:	f502 6280 	add.w	r2, r2, #1024	; 0x400
 80062a6:	4293      	cmp	r3, r2
 80062a8:	f000 852d 	beq.w	8006d06 <HAL_DMA_IRQHandler+0x1b5a>
 80062ac:	f5a2 7268 	sub.w	r2, r2, #928	; 0x3a0
 80062b0:	4293      	cmp	r3, r2
 80062b2:	f000 8528 	beq.w	8006d06 <HAL_DMA_IRQHandler+0x1b5a>
 80062b6:	f502 6280 	add.w	r2, r2, #1024	; 0x400
 80062ba:	4293      	cmp	r3, r2
 80062bc:	f000 8523 	beq.w	8006d06 <HAL_DMA_IRQHandler+0x1b5a>
 80062c0:	f5a2 6289 	sub.w	r2, r2, #1096	; 0x448
 80062c4:	4293      	cmp	r3, r2
 80062c6:	f000 85d8 	beq.w	8006e7a <HAL_DMA_IRQHandler+0x1cce>
 80062ca:	f502 6280 	add.w	r2, r2, #1024	; 0x400
 80062ce:	4293      	cmp	r3, r2
 80062d0:	f000 85d3 	beq.w	8006e7a <HAL_DMA_IRQHandler+0x1cce>
 80062d4:	f5a2 7268 	sub.w	r2, r2, #928	; 0x3a0
 80062d8:	4293      	cmp	r3, r2
 80062da:	f000 85ce 	beq.w	8006e7a <HAL_DMA_IRQHandler+0x1cce>
 80062de:	f502 6280 	add.w	r2, r2, #1024	; 0x400
 80062e2:	4293      	cmp	r3, r2
 80062e4:	bf0c      	ite	eq
 80062e6:	f44f 1280 	moveq.w	r2, #1048576	; 0x100000
 80062ea:	f04f 6280 	movne.w	r2, #67108864	; 0x4000000
 80062ee:	494c      	ldr	r1, [pc, #304]	; (8006420 <HAL_DMA_IRQHandler+0x1274>)
 80062f0:	60ca      	str	r2, [r1, #12]
 80062f2:	f7ff bb75 	b.w	80059e0 <HAL_DMA_IRQHandler+0x834>
 80062f6:	4a49      	ldr	r2, [pc, #292]	; (800641c <HAL_DMA_IRQHandler+0x1270>)
 80062f8:	4293      	cmp	r3, r2
 80062fa:	f240 8095 	bls.w	8006428 <HAL_DMA_IRQHandler+0x127c>
 80062fe:	3a48      	subs	r2, #72	; 0x48
 8006300:	4293      	cmp	r3, r2
 8006302:	f000 82a2 	beq.w	800684a <HAL_DMA_IRQHandler+0x169e>
 8006306:	f502 6280 	add.w	r2, r2, #1024	; 0x400
 800630a:	4293      	cmp	r3, r2
 800630c:	f000 829d 	beq.w	800684a <HAL_DMA_IRQHandler+0x169e>
 8006310:	f5a2 7268 	sub.w	r2, r2, #928	; 0x3a0
 8006314:	4293      	cmp	r3, r2
 8006316:	f000 8465 	beq.w	8006be4 <HAL_DMA_IRQHandler+0x1a38>
 800631a:	f502 6280 	add.w	r2, r2, #1024	; 0x400
 800631e:	4293      	cmp	r3, r2
 8006320:	f000 84a8 	beq.w	8006c74 <HAL_DMA_IRQHandler+0x1ac8>
 8006324:	f5a2 6289 	sub.w	r2, r2, #1096	; 0x448
 8006328:	4293      	cmp	r3, r2
 800632a:	f000 8458 	beq.w	8006bde <HAL_DMA_IRQHandler+0x1a32>
 800632e:	f502 6280 	add.w	r2, r2, #1024	; 0x400
 8006332:	4293      	cmp	r3, r2
 8006334:	f000 8453 	beq.w	8006bde <HAL_DMA_IRQHandler+0x1a32>
 8006338:	f5a2 7268 	sub.w	r2, r2, #928	; 0x3a0
 800633c:	4293      	cmp	r3, r2
 800633e:	f000 8568 	beq.w	8006e12 <HAL_DMA_IRQHandler+0x1c66>
 8006342:	f502 6280 	add.w	r2, r2, #1024	; 0x400
 8006346:	4293      	cmp	r3, r2
 8006348:	f000 8449 	beq.w	8006bde <HAL_DMA_IRQHandler+0x1a32>
 800634c:	f5a2 6289 	sub.w	r2, r2, #1096	; 0x448
 8006350:	4293      	cmp	r3, r2
 8006352:	f000 855c 	beq.w	8006e0e <HAL_DMA_IRQHandler+0x1c62>
 8006356:	f502 6280 	add.w	r2, r2, #1024	; 0x400
 800635a:	4293      	cmp	r3, r2
 800635c:	f000 8557 	beq.w	8006e0e <HAL_DMA_IRQHandler+0x1c62>
 8006360:	f5a2 7268 	sub.w	r2, r2, #928	; 0x3a0
 8006364:	4293      	cmp	r3, r2
 8006366:	f000 85a6 	beq.w	8006eb6 <HAL_DMA_IRQHandler+0x1d0a>
 800636a:	f502 6280 	add.w	r2, r2, #1024	; 0x400
 800636e:	4293      	cmp	r3, r2
 8006370:	f000 854d 	beq.w	8006e0e <HAL_DMA_IRQHandler+0x1c62>
 8006374:	4d2a      	ldr	r5, [pc, #168]	; (8006420 <HAL_DMA_IRQHandler+0x1274>)
 8006376:	f7fe bfb2 	b.w	80052de <HAL_DMA_IRQHandler+0x132>
 800637a:	3a48      	subs	r2, #72	; 0x48
 800637c:	4293      	cmp	r3, r2
 800637e:	f000 824c 	beq.w	800681a <HAL_DMA_IRQHandler+0x166e>
 8006382:	f502 6280 	add.w	r2, r2, #1024	; 0x400
 8006386:	4293      	cmp	r3, r2
 8006388:	f000 8247 	beq.w	800681a <HAL_DMA_IRQHandler+0x166e>
 800638c:	f5a2 7268 	sub.w	r2, r2, #928	; 0x3a0
 8006390:	4293      	cmp	r3, r2
 8006392:	f000 8242 	beq.w	800681a <HAL_DMA_IRQHandler+0x166e>
 8006396:	f502 6280 	add.w	r2, r2, #1024	; 0x400
 800639a:	4293      	cmp	r3, r2
 800639c:	f000 823d 	beq.w	800681a <HAL_DMA_IRQHandler+0x166e>
 80063a0:	f5a2 6289 	sub.w	r2, r2, #1096	; 0x448
 80063a4:	4293      	cmp	r3, r2
 80063a6:	f000 83e4 	beq.w	8006b72 <HAL_DMA_IRQHandler+0x19c6>
 80063aa:	f502 6280 	add.w	r2, r2, #1024	; 0x400
 80063ae:	4293      	cmp	r3, r2
 80063b0:	f000 83df 	beq.w	8006b72 <HAL_DMA_IRQHandler+0x19c6>
 80063b4:	f5a2 7268 	sub.w	r2, r2, #928	; 0x3a0
 80063b8:	4293      	cmp	r3, r2
 80063ba:	f000 83da 	beq.w	8006b72 <HAL_DMA_IRQHandler+0x19c6>
 80063be:	f502 6280 	add.w	r2, r2, #1024	; 0x400
 80063c2:	4293      	cmp	r3, r2
 80063c4:	f000 83d5 	beq.w	8006b72 <HAL_DMA_IRQHandler+0x19c6>
 80063c8:	f5a2 6289 	sub.w	r2, r2, #1096	; 0x448
 80063cc:	4293      	cmp	r3, r2
 80063ce:	f000 8516 	beq.w	8006dfe <HAL_DMA_IRQHandler+0x1c52>
 80063d2:	f502 6280 	add.w	r2, r2, #1024	; 0x400
 80063d6:	4293      	cmp	r3, r2
 80063d8:	f000 8511 	beq.w	8006dfe <HAL_DMA_IRQHandler+0x1c52>
 80063dc:	f5a2 7268 	sub.w	r2, r2, #928	; 0x3a0
 80063e0:	4293      	cmp	r3, r2
 80063e2:	f000 850c 	beq.w	8006dfe <HAL_DMA_IRQHandler+0x1c52>
 80063e6:	490f      	ldr	r1, [pc, #60]	; (8006424 <HAL_DMA_IRQHandler+0x1278>)
 80063e8:	428b      	cmp	r3, r1
 80063ea:	bf0c      	ite	eq
 80063ec:	f44f 2180 	moveq.w	r1, #262144	; 0x40000
 80063f0:	f04f 7180 	movne.w	r1, #16777216	; 0x1000000
 80063f4:	480a      	ldr	r0, [pc, #40]	; (8006420 <HAL_DMA_IRQHandler+0x1274>)
 80063f6:	6ca2      	ldr	r2, [r4, #72]	; 0x48
 80063f8:	60c1      	str	r1, [r0, #12]
 80063fa:	6ce1      	ldr	r1, [r4, #76]	; 0x4c
 80063fc:	2004      	movs	r0, #4
 80063fe:	4301      	orrs	r1, r0
 8006400:	2500      	movs	r5, #0
 8006402:	64e1      	str	r1, [r4, #76]	; 0x4c
 8006404:	f884 5034 	strb.w	r5, [r4, #52]	; 0x34
 8006408:	f884 0035 	strb.w	r0, [r4, #53]	; 0x35
 800640c:	2a00      	cmp	r2, #0
 800640e:	f47f a8eb 	bne.w	80055e8 <HAL_DMA_IRQHandler+0x43c>
 8006412:	f7ff bb07 	b.w	8005a24 <HAL_DMA_IRQHandler+0x878>
 8006416:	bf00      	nop
 8006418:	400260b8 	.word	0x400260b8
 800641c:	40026058 	.word	0x40026058
 8006420:	40026000 	.word	0x40026000
 8006424:	400264a0 	.word	0x400264a0
 8006428:	4acf      	ldr	r2, [pc, #828]	; (8006768 <HAL_DMA_IRQHandler+0x15bc>)
 800642a:	4293      	cmp	r3, r2
 800642c:	f000 837e 	beq.w	8006b2c <HAL_DMA_IRQHandler+0x1980>
 8006430:	f502 6280 	add.w	r2, r2, #1024	; 0x400
 8006434:	4293      	cmp	r3, r2
 8006436:	f000 836f 	beq.w	8006b18 <HAL_DMA_IRQHandler+0x196c>
 800643a:	f5a2 7268 	sub.w	r2, r2, #928	; 0x3a0
 800643e:	4293      	cmp	r3, r2
 8006440:	f000 836a 	beq.w	8006b18 <HAL_DMA_IRQHandler+0x196c>
 8006444:	f502 6280 	add.w	r2, r2, #1024	; 0x400
 8006448:	4293      	cmp	r3, r2
 800644a:	f000 8429 	beq.w	8006ca0 <HAL_DMA_IRQHandler+0x1af4>
 800644e:	f5a2 6289 	sub.w	r2, r2, #1096	; 0x448
 8006452:	4293      	cmp	r3, r2
 8006454:	f000 8485 	beq.w	8006d62 <HAL_DMA_IRQHandler+0x1bb6>
 8006458:	f502 6280 	add.w	r2, r2, #1024	; 0x400
 800645c:	4293      	cmp	r3, r2
 800645e:	f000 83f0 	beq.w	8006c42 <HAL_DMA_IRQHandler+0x1a96>
 8006462:	f5a2 7268 	sub.w	r2, r2, #928	; 0x3a0
 8006466:	4293      	cmp	r3, r2
 8006468:	f000 83eb 	beq.w	8006c42 <HAL_DMA_IRQHandler+0x1a96>
 800646c:	f502 6280 	add.w	r2, r2, #1024	; 0x400
 8006470:	4293      	cmp	r3, r2
 8006472:	f000 83e6 	beq.w	8006c42 <HAL_DMA_IRQHandler+0x1a96>
 8006476:	f5a2 6289 	sub.w	r2, r2, #1096	; 0x448
 800647a:	4293      	cmp	r3, r2
 800647c:	f000 8519 	beq.w	8006eb2 <HAL_DMA_IRQHandler+0x1d06>
 8006480:	f502 6280 	add.w	r2, r2, #1024	; 0x400
 8006484:	4293      	cmp	r3, r2
 8006486:	f000 84de 	beq.w	8006e46 <HAL_DMA_IRQHandler+0x1c9a>
 800648a:	f5a2 7268 	sub.w	r2, r2, #928	; 0x3a0
 800648e:	4293      	cmp	r3, r2
 8006490:	f000 84d9 	beq.w	8006e46 <HAL_DMA_IRQHandler+0x1c9a>
 8006494:	f502 6280 	add.w	r2, r2, #1024	; 0x400
 8006498:	4293      	cmp	r3, r2
 800649a:	f000 84d4 	beq.w	8006e46 <HAL_DMA_IRQHandler+0x1c9a>
 800649e:	4db3      	ldr	r5, [pc, #716]	; (800676c <HAL_DMA_IRQHandler+0x15c0>)
 80064a0:	f7ff bbeb 	b.w	8005c7a <HAL_DMA_IRQHandler+0xace>
 80064a4:	3aa8      	subs	r2, #168	; 0xa8
 80064a6:	4293      	cmp	r3, r2
 80064a8:	f000 81b5 	beq.w	8006816 <HAL_DMA_IRQHandler+0x166a>
 80064ac:	f502 6280 	add.w	r2, r2, #1024	; 0x400
 80064b0:	4293      	cmp	r3, r2
 80064b2:	f000 81b0 	beq.w	8006816 <HAL_DMA_IRQHandler+0x166a>
 80064b6:	f5a2 7268 	sub.w	r2, r2, #928	; 0x3a0
 80064ba:	4293      	cmp	r3, r2
 80064bc:	f000 81ab 	beq.w	8006816 <HAL_DMA_IRQHandler+0x166a>
 80064c0:	f502 6280 	add.w	r2, r2, #1024	; 0x400
 80064c4:	4293      	cmp	r3, r2
 80064c6:	f000 81a6 	beq.w	8006816 <HAL_DMA_IRQHandler+0x166a>
 80064ca:	f5a2 6289 	sub.w	r2, r2, #1096	; 0x448
 80064ce:	4293      	cmp	r3, r2
 80064d0:	f000 834c 	beq.w	8006b6c <HAL_DMA_IRQHandler+0x19c0>
 80064d4:	f502 6280 	add.w	r2, r2, #1024	; 0x400
 80064d8:	4293      	cmp	r3, r2
 80064da:	f000 8347 	beq.w	8006b6c <HAL_DMA_IRQHandler+0x19c0>
 80064de:	f5a2 7268 	sub.w	r2, r2, #928	; 0x3a0
 80064e2:	4293      	cmp	r3, r2
 80064e4:	f000 8342 	beq.w	8006b6c <HAL_DMA_IRQHandler+0x19c0>
 80064e8:	f502 6280 	add.w	r2, r2, #1024	; 0x400
 80064ec:	4293      	cmp	r3, r2
 80064ee:	f000 833d 	beq.w	8006b6c <HAL_DMA_IRQHandler+0x19c0>
 80064f2:	f5a2 6289 	sub.w	r2, r2, #1096	; 0x448
 80064f6:	4293      	cmp	r3, r2
 80064f8:	f000 846f 	beq.w	8006dda <HAL_DMA_IRQHandler+0x1c2e>
 80064fc:	f502 6280 	add.w	r2, r2, #1024	; 0x400
 8006500:	4293      	cmp	r3, r2
 8006502:	f000 846a 	beq.w	8006dda <HAL_DMA_IRQHandler+0x1c2e>
 8006506:	f5a2 7268 	sub.w	r2, r2, #928	; 0x3a0
 800650a:	4293      	cmp	r3, r2
 800650c:	f000 8465 	beq.w	8006dda <HAL_DMA_IRQHandler+0x1c2e>
 8006510:	f502 6280 	add.w	r2, r2, #1024	; 0x400
 8006514:	4293      	cmp	r3, r2
 8006516:	bf0c      	ite	eq
 8006518:	f44f 1300 	moveq.w	r3, #2097152	; 0x200000
 800651c:	f04f 6300 	movne.w	r3, #134217728	; 0x8000000
 8006520:	4a93      	ldr	r2, [pc, #588]	; (8006770 <HAL_DMA_IRQHandler+0x15c4>)
 8006522:	6093      	str	r3, [r2, #8]
 8006524:	f7ff b9f1 	b.w	800590a <HAL_DMA_IRQHandler+0x75e>
 8006528:	3aa8      	subs	r2, #168	; 0xa8
 800652a:	4293      	cmp	r3, r2
 800652c:	f000 816f 	beq.w	800680e <HAL_DMA_IRQHandler+0x1662>
 8006530:	f502 6280 	add.w	r2, r2, #1024	; 0x400
 8006534:	4293      	cmp	r3, r2
 8006536:	f000 816a 	beq.w	800680e <HAL_DMA_IRQHandler+0x1662>
 800653a:	f5a2 7268 	sub.w	r2, r2, #928	; 0x3a0
 800653e:	4293      	cmp	r3, r2
 8006540:	f000 8165 	beq.w	800680e <HAL_DMA_IRQHandler+0x1662>
 8006544:	f502 6280 	add.w	r2, r2, #1024	; 0x400
 8006548:	4293      	cmp	r3, r2
 800654a:	f000 8160 	beq.w	800680e <HAL_DMA_IRQHandler+0x1662>
 800654e:	f5a2 6289 	sub.w	r2, r2, #1096	; 0x448
 8006552:	4293      	cmp	r3, r2
 8006554:	f000 8310 	beq.w	8006b78 <HAL_DMA_IRQHandler+0x19cc>
 8006558:	f502 6280 	add.w	r2, r2, #1024	; 0x400
 800655c:	4293      	cmp	r3, r2
 800655e:	f000 830b 	beq.w	8006b78 <HAL_DMA_IRQHandler+0x19cc>
 8006562:	f5a2 7268 	sub.w	r2, r2, #928	; 0x3a0
 8006566:	4293      	cmp	r3, r2
 8006568:	f000 8306 	beq.w	8006b78 <HAL_DMA_IRQHandler+0x19cc>
 800656c:	f502 6280 	add.w	r2, r2, #1024	; 0x400
 8006570:	4293      	cmp	r3, r2
 8006572:	f000 8301 	beq.w	8006b78 <HAL_DMA_IRQHandler+0x19cc>
 8006576:	f5a2 6289 	sub.w	r2, r2, #1096	; 0x448
 800657a:	4293      	cmp	r3, r2
 800657c:	f000 8434 	beq.w	8006de8 <HAL_DMA_IRQHandler+0x1c3c>
 8006580:	f502 6280 	add.w	r2, r2, #1024	; 0x400
 8006584:	4293      	cmp	r3, r2
 8006586:	f000 842f 	beq.w	8006de8 <HAL_DMA_IRQHandler+0x1c3c>
 800658a:	f5a2 7268 	sub.w	r2, r2, #928	; 0x3a0
 800658e:	4293      	cmp	r3, r2
 8006590:	f000 842a 	beq.w	8006de8 <HAL_DMA_IRQHandler+0x1c3c>
 8006594:	f502 6280 	add.w	r2, r2, #1024	; 0x400
 8006598:	4293      	cmp	r3, r2
 800659a:	bf0c      	ite	eq
 800659c:	f44f 1200 	moveq.w	r2, #2097152	; 0x200000
 80065a0:	f04f 6200 	movne.w	r2, #134217728	; 0x8000000
 80065a4:	4972      	ldr	r1, [pc, #456]	; (8006770 <HAL_DMA_IRQHandler+0x15c4>)
 80065a6:	608a      	str	r2, [r1, #8]
 80065a8:	f7ff bbce 	b.w	8005d48 <HAL_DMA_IRQHandler+0xb9c>
 80065ac:	3aa8      	subs	r2, #168	; 0xa8
 80065ae:	4293      	cmp	r3, r2
 80065b0:	f000 8135 	beq.w	800681e <HAL_DMA_IRQHandler+0x1672>
 80065b4:	f502 6280 	add.w	r2, r2, #1024	; 0x400
 80065b8:	4293      	cmp	r3, r2
 80065ba:	f000 8130 	beq.w	800681e <HAL_DMA_IRQHandler+0x1672>
 80065be:	f5a2 7268 	sub.w	r2, r2, #928	; 0x3a0
 80065c2:	4293      	cmp	r3, r2
 80065c4:	f000 812b 	beq.w	800681e <HAL_DMA_IRQHandler+0x1672>
 80065c8:	f502 6280 	add.w	r2, r2, #1024	; 0x400
 80065cc:	4293      	cmp	r3, r2
 80065ce:	f000 8126 	beq.w	800681e <HAL_DMA_IRQHandler+0x1672>
 80065d2:	f5a2 6289 	sub.w	r2, r2, #1096	; 0x448
 80065d6:	4293      	cmp	r3, r2
 80065d8:	f000 82c1 	beq.w	8006b5e <HAL_DMA_IRQHandler+0x19b2>
 80065dc:	f502 6280 	add.w	r2, r2, #1024	; 0x400
 80065e0:	4293      	cmp	r3, r2
 80065e2:	f000 82bc 	beq.w	8006b5e <HAL_DMA_IRQHandler+0x19b2>
 80065e6:	f5a2 7268 	sub.w	r2, r2, #928	; 0x3a0
 80065ea:	4293      	cmp	r3, r2
 80065ec:	f000 82b7 	beq.w	8006b5e <HAL_DMA_IRQHandler+0x19b2>
 80065f0:	f502 6280 	add.w	r2, r2, #1024	; 0x400
 80065f4:	4293      	cmp	r3, r2
 80065f6:	f000 82b2 	beq.w	8006b5e <HAL_DMA_IRQHandler+0x19b2>
 80065fa:	f5a2 6289 	sub.w	r2, r2, #1096	; 0x448
 80065fe:	4293      	cmp	r3, r2
 8006600:	f000 83e8 	beq.w	8006dd4 <HAL_DMA_IRQHandler+0x1c28>
 8006604:	f502 6280 	add.w	r2, r2, #1024	; 0x400
 8006608:	4293      	cmp	r3, r2
 800660a:	f000 83e3 	beq.w	8006dd4 <HAL_DMA_IRQHandler+0x1c28>
 800660e:	f5a2 7268 	sub.w	r2, r2, #928	; 0x3a0
 8006612:	4293      	cmp	r3, r2
 8006614:	f000 83de 	beq.w	8006dd4 <HAL_DMA_IRQHandler+0x1c28>
 8006618:	f502 6280 	add.w	r2, r2, #1024	; 0x400
 800661c:	4293      	cmp	r3, r2
 800661e:	bf0c      	ite	eq
 8006620:	f44f 1280 	moveq.w	r2, #1048576	; 0x100000
 8006624:	f04f 6280 	movne.w	r2, #67108864	; 0x4000000
 8006628:	4951      	ldr	r1, [pc, #324]	; (8006770 <HAL_DMA_IRQHandler+0x15c4>)
 800662a:	608a      	str	r2, [r1, #8]
 800662c:	f7ff b9d8 	b.w	80059e0 <HAL_DMA_IRQHandler+0x834>
 8006630:	4a4d      	ldr	r2, [pc, #308]	; (8006768 <HAL_DMA_IRQHandler+0x15bc>)
 8006632:	4293      	cmp	r3, r2
 8006634:	f000 80e9 	beq.w	800680a <HAL_DMA_IRQHandler+0x165e>
 8006638:	f502 6280 	add.w	r2, r2, #1024	; 0x400
 800663c:	4293      	cmp	r3, r2
 800663e:	f000 80e4 	beq.w	800680a <HAL_DMA_IRQHandler+0x165e>
 8006642:	f5a2 7268 	sub.w	r2, r2, #928	; 0x3a0
 8006646:	4293      	cmp	r3, r2
 8006648:	f000 80df 	beq.w	800680a <HAL_DMA_IRQHandler+0x165e>
 800664c:	f502 6280 	add.w	r2, r2, #1024	; 0x400
 8006650:	4293      	cmp	r3, r2
 8006652:	f000 80da 	beq.w	800680a <HAL_DMA_IRQHandler+0x165e>
 8006656:	f5a2 6289 	sub.w	r2, r2, #1096	; 0x448
 800665a:	4293      	cmp	r3, r2
 800665c:	f000 8295 	beq.w	8006b8a <HAL_DMA_IRQHandler+0x19de>
 8006660:	f502 6280 	add.w	r2, r2, #1024	; 0x400
 8006664:	4293      	cmp	r3, r2
 8006666:	f000 8290 	beq.w	8006b8a <HAL_DMA_IRQHandler+0x19de>
 800666a:	f5a2 7268 	sub.w	r2, r2, #928	; 0x3a0
 800666e:	4293      	cmp	r3, r2
 8006670:	f000 828b 	beq.w	8006b8a <HAL_DMA_IRQHandler+0x19de>
 8006674:	f502 6280 	add.w	r2, r2, #1024	; 0x400
 8006678:	4293      	cmp	r3, r2
 800667a:	f000 8286 	beq.w	8006b8a <HAL_DMA_IRQHandler+0x19de>
 800667e:	f5a2 6289 	sub.w	r2, r2, #1096	; 0x448
 8006682:	4293      	cmp	r3, r2
 8006684:	f000 83ad 	beq.w	8006de2 <HAL_DMA_IRQHandler+0x1c36>
 8006688:	f502 6280 	add.w	r2, r2, #1024	; 0x400
 800668c:	4293      	cmp	r3, r2
 800668e:	f000 83a8 	beq.w	8006de2 <HAL_DMA_IRQHandler+0x1c36>
 8006692:	f5a2 7268 	sub.w	r2, r2, #928	; 0x3a0
 8006696:	4293      	cmp	r3, r2
 8006698:	f000 83a3 	beq.w	8006de2 <HAL_DMA_IRQHandler+0x1c36>
 800669c:	f502 6280 	add.w	r2, r2, #1024	; 0x400
 80066a0:	4293      	cmp	r3, r2
 80066a2:	bf0c      	ite	eq
 80066a4:	f44f 3280 	moveq.w	r2, #65536	; 0x10000
 80066a8:	f44f 0280 	movne.w	r2, #4194304	; 0x400000
 80066ac:	492f      	ldr	r1, [pc, #188]	; (800676c <HAL_DMA_IRQHandler+0x15c0>)
 80066ae:	6ca3      	ldr	r3, [r4, #72]	; 0x48
 80066b0:	608a      	str	r2, [r1, #8]
 80066b2:	6ce2      	ldr	r2, [r4, #76]	; 0x4c
 80066b4:	2104      	movs	r1, #4
 80066b6:	f042 0202 	orr.w	r2, r2, #2
 80066ba:	2000      	movs	r0, #0
 80066bc:	64e2      	str	r2, [r4, #76]	; 0x4c
 80066be:	f884 0034 	strb.w	r0, [r4, #52]	; 0x34
 80066c2:	f884 1035 	strb.w	r1, [r4, #53]	; 0x35
 80066c6:	2b00      	cmp	r3, #0
 80066c8:	f47e aee7 	bne.w	800549a <HAL_DMA_IRQHandler+0x2ee>
 80066cc:	6823      	ldr	r3, [r4, #0]
 80066ce:	f7ff b9f9 	b.w	8005ac4 <HAL_DMA_IRQHandler+0x918>
 80066d2:	3aa8      	subs	r2, #168	; 0xa8
 80066d4:	4293      	cmp	r3, r2
 80066d6:	f000 809c 	beq.w	8006812 <HAL_DMA_IRQHandler+0x1666>
 80066da:	f502 6280 	add.w	r2, r2, #1024	; 0x400
 80066de:	4293      	cmp	r3, r2
 80066e0:	f000 8097 	beq.w	8006812 <HAL_DMA_IRQHandler+0x1666>
 80066e4:	f5a2 7268 	sub.w	r2, r2, #928	; 0x3a0
 80066e8:	4293      	cmp	r3, r2
 80066ea:	f000 8092 	beq.w	8006812 <HAL_DMA_IRQHandler+0x1666>
 80066ee:	f502 6280 	add.w	r2, r2, #1024	; 0x400
 80066f2:	4293      	cmp	r3, r2
 80066f4:	f000 808d 	beq.w	8006812 <HAL_DMA_IRQHandler+0x1666>
 80066f8:	f5a2 6289 	sub.w	r2, r2, #1096	; 0x448
 80066fc:	4293      	cmp	r3, r2
 80066fe:	f000 823e 	beq.w	8006b7e <HAL_DMA_IRQHandler+0x19d2>
 8006702:	f502 6280 	add.w	r2, r2, #1024	; 0x400
 8006706:	4293      	cmp	r3, r2
 8006708:	f000 8239 	beq.w	8006b7e <HAL_DMA_IRQHandler+0x19d2>
 800670c:	f5a2 7268 	sub.w	r2, r2, #928	; 0x3a0
 8006710:	4293      	cmp	r3, r2
 8006712:	f000 8234 	beq.w	8006b7e <HAL_DMA_IRQHandler+0x19d2>
 8006716:	f502 6280 	add.w	r2, r2, #1024	; 0x400
 800671a:	4293      	cmp	r3, r2
 800671c:	f000 822f 	beq.w	8006b7e <HAL_DMA_IRQHandler+0x19d2>
 8006720:	f5a2 6289 	sub.w	r2, r2, #1096	; 0x448
 8006724:	4293      	cmp	r3, r2
 8006726:	f000 8367 	beq.w	8006df8 <HAL_DMA_IRQHandler+0x1c4c>
 800672a:	f502 6280 	add.w	r2, r2, #1024	; 0x400
 800672e:	4293      	cmp	r3, r2
 8006730:	f000 8362 	beq.w	8006df8 <HAL_DMA_IRQHandler+0x1c4c>
 8006734:	f5a2 7268 	sub.w	r2, r2, #928	; 0x3a0
 8006738:	4293      	cmp	r3, r2
 800673a:	f000 835d 	beq.w	8006df8 <HAL_DMA_IRQHandler+0x1c4c>
 800673e:	f502 6280 	add.w	r2, r2, #1024	; 0x400
 8006742:	4293      	cmp	r3, r2
 8006744:	bf0c      	ite	eq
 8006746:	f44f 1280 	moveq.w	r2, #1048576	; 0x100000
 800674a:	f04f 6280 	movne.w	r2, #67108864	; 0x4000000
 800674e:	4908      	ldr	r1, [pc, #32]	; (8006770 <HAL_DMA_IRQHandler+0x15c4>)
 8006750:	608a      	str	r2, [r1, #8]
 8006752:	f7ff bb49 	b.w	8005de8 <HAL_DMA_IRQHandler+0xc3c>
 8006756:	4807      	ldr	r0, [pc, #28]	; (8006774 <HAL_DMA_IRQHandler+0x15c8>)
 8006758:	f7ff b863 	b.w	8005822 <HAL_DMA_IRQHandler+0x676>
 800675c:	2110      	movs	r1, #16
 800675e:	f7ff b93d 	b.w	80059dc <HAL_DMA_IRQHandler+0x830>
 8006762:	2120      	movs	r1, #32
 8006764:	f7ff baee 	b.w	8005d44 <HAL_DMA_IRQHandler+0xb98>
 8006768:	40026010 	.word	0x40026010
 800676c:	40026000 	.word	0x40026000
 8006770:	40026400 	.word	0x40026400
 8006774:	00800004 	.word	0x00800004
 8006778:	2110      	movs	r1, #16
 800677a:	f7ff bb33 	b.w	8005de4 <HAL_DMA_IRQHandler+0xc38>
 800677e:	49c1      	ldr	r1, [pc, #772]	; (8006a84 <HAL_DMA_IRQHandler+0x18d8>)
 8006780:	f7ff ba22 	b.w	8005bc8 <HAL_DMA_IRQHandler+0xa1c>
 8006784:	2220      	movs	r2, #32
 8006786:	f7ff b8be 	b.w	8005906 <HAL_DMA_IRQHandler+0x75a>
 800678a:	4dbf      	ldr	r5, [pc, #764]	; (8006a88 <HAL_DMA_IRQHandler+0x18dc>)
 800678c:	2208      	movs	r2, #8
 800678e:	60aa      	str	r2, [r5, #8]
 8006790:	6ce0      	ldr	r0, [r4, #76]	; 0x4c
 8006792:	6ca2      	ldr	r2, [r4, #72]	; 0x48
 8006794:	f040 0001 	orr.w	r0, r0, #1
 8006798:	64e0      	str	r0, [r4, #76]	; 0x4c
 800679a:	f04f 0c04 	mov.w	ip, #4
 800679e:	2000      	movs	r0, #0
 80067a0:	f884 c035 	strb.w	ip, [r4, #53]	; 0x35
 80067a4:	f884 0034 	strb.w	r0, [r4, #52]	; 0x34
 80067a8:	2a00      	cmp	r2, #0
 80067aa:	f47e adbe 	bne.w	800532a <HAL_DMA_IRQHandler+0x17e>
 80067ae:	6828      	ldr	r0, [r5, #0]
 80067b0:	f7fe be09 	b.w	80053c6 <HAL_DMA_IRQHandler+0x21a>
 80067b4:	f44f 6280 	mov.w	r2, #1024	; 0x400
 80067b8:	f7ff b845 	b.w	8005846 <HAL_DMA_IRQHandler+0x69a>
 80067bc:	f44f 7280 	mov.w	r2, #256	; 0x100
 80067c0:	f7ff bb84 	b.w	8005ecc <HAL_DMA_IRQHandler+0xd20>
 80067c4:	f44f 2200 	mov.w	r2, #524288	; 0x80000
 80067c8:	f7fe bd3f 	b.w	800524a <HAL_DMA_IRQHandler+0x9e>
 80067cc:	f44f 1200 	mov.w	r2, #2097152	; 0x200000
 80067d0:	f7ff b842 	b.w	8005858 <HAL_DMA_IRQHandler+0x6ac>
 80067d4:	f44f 3280 	mov.w	r2, #65536	; 0x10000
 80067d8:	f7fe bdf6 	b.w	80053c8 <HAL_DMA_IRQHandler+0x21c>
 80067dc:	681b      	ldr	r3, [r3, #0]
 80067de:	0318      	lsls	r0, r3, #12
 80067e0:	f57f a89f 	bpl.w	8005922 <HAL_DMA_IRQHandler+0x776>
 80067e4:	6be3      	ldr	r3, [r4, #60]	; 0x3c
 80067e6:	2b00      	cmp	r3, #0
 80067e8:	f47f aab6 	bne.w	8005d58 <HAL_DMA_IRQHandler+0xbac>
 80067ec:	f7ff b899 	b.w	8005922 <HAL_DMA_IRQHandler+0x776>
 80067f0:	6823      	ldr	r3, [r4, #0]
 80067f2:	f7fe be58 	b.w	80054a6 <HAL_DMA_IRQHandler+0x2fa>
 80067f6:	6868      	ldr	r0, [r5, #4]
 80067f8:	f7fe bde5 	b.w	80053c6 <HAL_DMA_IRQHandler+0x21a>
 80067fc:	f44f 2280 	mov.w	r2, #262144	; 0x40000
 8006800:	f7fe be98 	b.w	8005534 <HAL_DMA_IRQHandler+0x388>
 8006804:	4a9f      	ldr	r2, [pc, #636]	; (8006a84 <HAL_DMA_IRQHandler+0x18d8>)
 8006806:	f7ff bb49 	b.w	8005e9c <HAL_DMA_IRQHandler+0xcf0>
 800680a:	4a9e      	ldr	r2, [pc, #632]	; (8006a84 <HAL_DMA_IRQHandler+0x18d8>)
 800680c:	e74e      	b.n	80066ac <HAL_DMA_IRQHandler+0x1500>
 800680e:	2220      	movs	r2, #32
 8006810:	e6c8      	b.n	80065a4 <HAL_DMA_IRQHandler+0x13f8>
 8006812:	2210      	movs	r2, #16
 8006814:	e79b      	b.n	800674e <HAL_DMA_IRQHandler+0x15a2>
 8006816:	2320      	movs	r3, #32
 8006818:	e682      	b.n	8006520 <HAL_DMA_IRQHandler+0x1374>
 800681a:	499c      	ldr	r1, [pc, #624]	; (8006a8c <HAL_DMA_IRQHandler+0x18e0>)
 800681c:	e5ea      	b.n	80063f4 <HAL_DMA_IRQHandler+0x1248>
 800681e:	2210      	movs	r2, #16
 8006820:	e702      	b.n	8006628 <HAL_DMA_IRQHandler+0x147c>
 8006822:	499a      	ldr	r1, [pc, #616]	; (8006a8c <HAL_DMA_IRQHandler+0x18e0>)
 8006824:	f7ff bba2 	b.w	8005f6c <HAL_DMA_IRQHandler+0xdc0>
 8006828:	f44f 7080 	mov.w	r0, #256	; 0x100
 800682c:	f7fe bece 	b.w	80055cc <HAL_DMA_IRQHandler+0x420>
 8006830:	2140      	movs	r1, #64	; 0x40
 8006832:	f7fe be22 	b.w	800547a <HAL_DMA_IRQHandler+0x2ce>
 8006836:	f44f 6280 	mov.w	r2, #1024	; 0x400
 800683a:	e40d      	b.n	8006058 <HAL_DMA_IRQHandler+0xeac>
 800683c:	f44f 6280 	mov.w	r2, #1024	; 0x400
 8006840:	e416      	b.n	8006070 <HAL_DMA_IRQHandler+0xec4>
 8006842:	f44f 1280 	mov.w	r2, #1048576	; 0x100000
 8006846:	f7fe bf14 	b.w	8005672 <HAL_DMA_IRQHandler+0x4c6>
 800684a:	4d91      	ldr	r5, [pc, #580]	; (8006a90 <HAL_DMA_IRQHandler+0x18e4>)
 800684c:	f7fe bd5c 	b.w	8005308 <HAL_DMA_IRQHandler+0x15c>
 8006850:	4a90      	ldr	r2, [pc, #576]	; (8006a94 <HAL_DMA_IRQHandler+0x18e8>)
 8006852:	4293      	cmp	r3, r2
 8006854:	f000 8145 	beq.w	8006ae2 <HAL_DMA_IRQHandler+0x1936>
 8006858:	f502 6280 	add.w	r2, r2, #1024	; 0x400
 800685c:	4293      	cmp	r3, r2
 800685e:	f000 8140 	beq.w	8006ae2 <HAL_DMA_IRQHandler+0x1936>
 8006862:	f5a2 7268 	sub.w	r2, r2, #928	; 0x3a0
 8006866:	4293      	cmp	r3, r2
 8006868:	f000 813b 	beq.w	8006ae2 <HAL_DMA_IRQHandler+0x1936>
 800686c:	f502 6280 	add.w	r2, r2, #1024	; 0x400
 8006870:	4293      	cmp	r3, r2
 8006872:	f000 8136 	beq.w	8006ae2 <HAL_DMA_IRQHandler+0x1936>
 8006876:	f5a2 6289 	sub.w	r2, r2, #1096	; 0x448
 800687a:	4293      	cmp	r3, r2
 800687c:	f000 8240 	beq.w	8006d00 <HAL_DMA_IRQHandler+0x1b54>
 8006880:	f502 6280 	add.w	r2, r2, #1024	; 0x400
 8006884:	4293      	cmp	r3, r2
 8006886:	f000 823b 	beq.w	8006d00 <HAL_DMA_IRQHandler+0x1b54>
 800688a:	f5a2 7268 	sub.w	r2, r2, #928	; 0x3a0
 800688e:	4293      	cmp	r3, r2
 8006890:	f000 8236 	beq.w	8006d00 <HAL_DMA_IRQHandler+0x1b54>
 8006894:	f502 6280 	add.w	r2, r2, #1024	; 0x400
 8006898:	4293      	cmp	r3, r2
 800689a:	f000 8231 	beq.w	8006d00 <HAL_DMA_IRQHandler+0x1b54>
 800689e:	f5a2 6289 	sub.w	r2, r2, #1096	; 0x448
 80068a2:	4293      	cmp	r3, r2
 80068a4:	f000 82f4 	beq.w	8006e90 <HAL_DMA_IRQHandler+0x1ce4>
 80068a8:	f502 6280 	add.w	r2, r2, #1024	; 0x400
 80068ac:	4293      	cmp	r3, r2
 80068ae:	f000 82ef 	beq.w	8006e90 <HAL_DMA_IRQHandler+0x1ce4>
 80068b2:	f5a2 7268 	sub.w	r2, r2, #928	; 0x3a0
 80068b6:	4293      	cmp	r3, r2
 80068b8:	f000 82ea 	beq.w	8006e90 <HAL_DMA_IRQHandler+0x1ce4>
 80068bc:	f502 6280 	add.w	r2, r2, #1024	; 0x400
 80068c0:	4293      	cmp	r3, r2
 80068c2:	bf0c      	ite	eq
 80068c4:	f44f 1280 	moveq.w	r2, #1048576	; 0x100000
 80068c8:	f04f 6280 	movne.w	r2, #67108864	; 0x4000000
 80068cc:	4970      	ldr	r1, [pc, #448]	; (8006a90 <HAL_DMA_IRQHandler+0x18e4>)
 80068ce:	608a      	str	r2, [r1, #8]
 80068d0:	f7ff b886 	b.w	80059e0 <HAL_DMA_IRQHandler+0x834>
 80068d4:	4a6f      	ldr	r2, [pc, #444]	; (8006a94 <HAL_DMA_IRQHandler+0x18e8>)
 80068d6:	4293      	cmp	r3, r2
 80068d8:	f000 80fe 	beq.w	8006ad8 <HAL_DMA_IRQHandler+0x192c>
 80068dc:	f502 6280 	add.w	r2, r2, #1024	; 0x400
 80068e0:	4293      	cmp	r3, r2
 80068e2:	f000 80f9 	beq.w	8006ad8 <HAL_DMA_IRQHandler+0x192c>
 80068e6:	f5a2 7268 	sub.w	r2, r2, #928	; 0x3a0
 80068ea:	4293      	cmp	r3, r2
 80068ec:	f000 80f4 	beq.w	8006ad8 <HAL_DMA_IRQHandler+0x192c>
 80068f0:	f502 6280 	add.w	r2, r2, #1024	; 0x400
 80068f4:	4293      	cmp	r3, r2
 80068f6:	f000 80ef 	beq.w	8006ad8 <HAL_DMA_IRQHandler+0x192c>
 80068fa:	f5a2 6289 	sub.w	r2, r2, #1096	; 0x448
 80068fe:	4293      	cmp	r3, r2
 8006900:	f000 8211 	beq.w	8006d26 <HAL_DMA_IRQHandler+0x1b7a>
 8006904:	f502 6280 	add.w	r2, r2, #1024	; 0x400
 8006908:	4293      	cmp	r3, r2
 800690a:	f000 820c 	beq.w	8006d26 <HAL_DMA_IRQHandler+0x1b7a>
 800690e:	f5a2 7268 	sub.w	r2, r2, #928	; 0x3a0
 8006912:	4293      	cmp	r3, r2
 8006914:	f000 8207 	beq.w	8006d26 <HAL_DMA_IRQHandler+0x1b7a>
 8006918:	f502 6280 	add.w	r2, r2, #1024	; 0x400
 800691c:	4293      	cmp	r3, r2
 800691e:	f000 8202 	beq.w	8006d26 <HAL_DMA_IRQHandler+0x1b7a>
 8006922:	f5a2 6289 	sub.w	r2, r2, #1096	; 0x448
 8006926:	4293      	cmp	r3, r2
 8006928:	f000 82b5 	beq.w	8006e96 <HAL_DMA_IRQHandler+0x1cea>
 800692c:	f502 6280 	add.w	r2, r2, #1024	; 0x400
 8006930:	4293      	cmp	r3, r2
 8006932:	f000 82b0 	beq.w	8006e96 <HAL_DMA_IRQHandler+0x1cea>
 8006936:	f5a2 7268 	sub.w	r2, r2, #928	; 0x3a0
 800693a:	4293      	cmp	r3, r2
 800693c:	f000 82ab 	beq.w	8006e96 <HAL_DMA_IRQHandler+0x1cea>
 8006940:	f502 6280 	add.w	r2, r2, #1024	; 0x400
 8006944:	4293      	cmp	r3, r2
 8006946:	bf0c      	ite	eq
 8006948:	f44f 1280 	moveq.w	r2, #1048576	; 0x100000
 800694c:	f04f 6280 	movne.w	r2, #67108864	; 0x4000000
 8006950:	494f      	ldr	r1, [pc, #316]	; (8006a90 <HAL_DMA_IRQHandler+0x18e4>)
 8006952:	608a      	str	r2, [r1, #8]
 8006954:	f7ff ba48 	b.w	8005de8 <HAL_DMA_IRQHandler+0xc3c>
 8006958:	4a4e      	ldr	r2, [pc, #312]	; (8006a94 <HAL_DMA_IRQHandler+0x18e8>)
 800695a:	4293      	cmp	r3, r2
 800695c:	f000 80b7 	beq.w	8006ace <HAL_DMA_IRQHandler+0x1922>
 8006960:	f502 6280 	add.w	r2, r2, #1024	; 0x400
 8006964:	4293      	cmp	r3, r2
 8006966:	f000 80b2 	beq.w	8006ace <HAL_DMA_IRQHandler+0x1922>
 800696a:	f5a2 7268 	sub.w	r2, r2, #928	; 0x3a0
 800696e:	4293      	cmp	r3, r2
 8006970:	f000 80ad 	beq.w	8006ace <HAL_DMA_IRQHandler+0x1922>
 8006974:	f502 6280 	add.w	r2, r2, #1024	; 0x400
 8006978:	4293      	cmp	r3, r2
 800697a:	f000 80a8 	beq.w	8006ace <HAL_DMA_IRQHandler+0x1922>
 800697e:	f5a2 6289 	sub.w	r2, r2, #1096	; 0x448
 8006982:	4293      	cmp	r3, r2
 8006984:	f000 81d2 	beq.w	8006d2c <HAL_DMA_IRQHandler+0x1b80>
 8006988:	f502 6280 	add.w	r2, r2, #1024	; 0x400
 800698c:	4293      	cmp	r3, r2
 800698e:	f000 81cd 	beq.w	8006d2c <HAL_DMA_IRQHandler+0x1b80>
 8006992:	f5a2 7268 	sub.w	r2, r2, #928	; 0x3a0
 8006996:	4293      	cmp	r3, r2
 8006998:	f000 81c8 	beq.w	8006d2c <HAL_DMA_IRQHandler+0x1b80>
 800699c:	f502 6280 	add.w	r2, r2, #1024	; 0x400
 80069a0:	4293      	cmp	r3, r2
 80069a2:	f000 81c3 	beq.w	8006d2c <HAL_DMA_IRQHandler+0x1b80>
 80069a6:	f5a2 6289 	sub.w	r2, r2, #1096	; 0x448
 80069aa:	4293      	cmp	r3, r2
 80069ac:	f000 8276 	beq.w	8006e9c <HAL_DMA_IRQHandler+0x1cf0>
 80069b0:	f502 6280 	add.w	r2, r2, #1024	; 0x400
 80069b4:	4293      	cmp	r3, r2
 80069b6:	f000 8271 	beq.w	8006e9c <HAL_DMA_IRQHandler+0x1cf0>
 80069ba:	f5a2 7268 	sub.w	r2, r2, #928	; 0x3a0
 80069be:	4293      	cmp	r3, r2
 80069c0:	f000 826c 	beq.w	8006e9c <HAL_DMA_IRQHandler+0x1cf0>
 80069c4:	f502 6280 	add.w	r2, r2, #1024	; 0x400
 80069c8:	4293      	cmp	r3, r2
 80069ca:	bf0c      	ite	eq
 80069cc:	f44f 1200 	moveq.w	r2, #2097152	; 0x200000
 80069d0:	f04f 6200 	movne.w	r2, #134217728	; 0x8000000
 80069d4:	492e      	ldr	r1, [pc, #184]	; (8006a90 <HAL_DMA_IRQHandler+0x18e4>)
 80069d6:	608a      	str	r2, [r1, #8]
 80069d8:	f7ff b9b6 	b.w	8005d48 <HAL_DMA_IRQHandler+0xb9c>
 80069dc:	4a2d      	ldr	r2, [pc, #180]	; (8006a94 <HAL_DMA_IRQHandler+0x18e8>)
 80069de:	4293      	cmp	r3, r2
 80069e0:	d070      	beq.n	8006ac4 <HAL_DMA_IRQHandler+0x1918>
 80069e2:	f502 6280 	add.w	r2, r2, #1024	; 0x400
 80069e6:	4293      	cmp	r3, r2
 80069e8:	d06c      	beq.n	8006ac4 <HAL_DMA_IRQHandler+0x1918>
 80069ea:	f5a2 7268 	sub.w	r2, r2, #928	; 0x3a0
 80069ee:	4293      	cmp	r3, r2
 80069f0:	d068      	beq.n	8006ac4 <HAL_DMA_IRQHandler+0x1918>
 80069f2:	f502 6280 	add.w	r2, r2, #1024	; 0x400
 80069f6:	4293      	cmp	r3, r2
 80069f8:	d064      	beq.n	8006ac4 <HAL_DMA_IRQHandler+0x1918>
 80069fa:	f5a2 6289 	sub.w	r2, r2, #1096	; 0x448
 80069fe:	4293      	cmp	r3, r2
 8006a00:	f000 817b 	beq.w	8006cfa <HAL_DMA_IRQHandler+0x1b4e>
 8006a04:	f502 6280 	add.w	r2, r2, #1024	; 0x400
 8006a08:	4293      	cmp	r3, r2
 8006a0a:	f000 8176 	beq.w	8006cfa <HAL_DMA_IRQHandler+0x1b4e>
 8006a0e:	f5a2 7268 	sub.w	r2, r2, #928	; 0x3a0
 8006a12:	4293      	cmp	r3, r2
 8006a14:	f000 8171 	beq.w	8006cfa <HAL_DMA_IRQHandler+0x1b4e>
 8006a18:	f502 6280 	add.w	r2, r2, #1024	; 0x400
 8006a1c:	4293      	cmp	r3, r2
 8006a1e:	f000 816c 	beq.w	8006cfa <HAL_DMA_IRQHandler+0x1b4e>
 8006a22:	f5a2 6289 	sub.w	r2, r2, #1096	; 0x448
 8006a26:	4293      	cmp	r3, r2
 8006a28:	f000 822f 	beq.w	8006e8a <HAL_DMA_IRQHandler+0x1cde>
 8006a2c:	f502 6280 	add.w	r2, r2, #1024	; 0x400
 8006a30:	4293      	cmp	r3, r2
 8006a32:	f000 822a 	beq.w	8006e8a <HAL_DMA_IRQHandler+0x1cde>
 8006a36:	f5a2 7268 	sub.w	r2, r2, #928	; 0x3a0
 8006a3a:	4293      	cmp	r3, r2
 8006a3c:	f000 8225 	beq.w	8006e8a <HAL_DMA_IRQHandler+0x1cde>
 8006a40:	f502 6280 	add.w	r2, r2, #1024	; 0x400
 8006a44:	4293      	cmp	r3, r2
 8006a46:	bf0c      	ite	eq
 8006a48:	f44f 1300 	moveq.w	r3, #2097152	; 0x200000
 8006a4c:	f04f 6300 	movne.w	r3, #134217728	; 0x8000000
 8006a50:	4a0f      	ldr	r2, [pc, #60]	; (8006a90 <HAL_DMA_IRQHandler+0x18e4>)
 8006a52:	6093      	str	r3, [r2, #8]
 8006a54:	f7fe bf59 	b.w	800590a <HAL_DMA_IRQHandler+0x75e>
 8006a58:	480b      	ldr	r0, [pc, #44]	; (8006a88 <HAL_DMA_IRQHandler+0x18dc>)
 8006a5a:	2208      	movs	r2, #8
 8006a5c:	6082      	str	r2, [r0, #8]
 8006a5e:	6ce1      	ldr	r1, [r4, #76]	; 0x4c
 8006a60:	6ca2      	ldr	r2, [r4, #72]	; 0x48
 8006a62:	f041 0101 	orr.w	r1, r1, #1
 8006a66:	64e1      	str	r1, [r4, #76]	; 0x4c
 8006a68:	2504      	movs	r5, #4
 8006a6a:	2100      	movs	r1, #0
 8006a6c:	f884 5035 	strb.w	r5, [r4, #53]	; 0x35
 8006a70:	f884 1034 	strb.w	r1, [r4, #52]	; 0x34
 8006a74:	2a00      	cmp	r2, #0
 8006a76:	f47e ac58 	bne.w	800532a <HAL_DMA_IRQHandler+0x17e>
 8006a7a:	6800      	ldr	r0, [r0, #0]
 8006a7c:	4a01      	ldr	r2, [pc, #4]	; (8006a84 <HAL_DMA_IRQHandler+0x18d8>)
 8006a7e:	4619      	mov	r1, r3
 8006a80:	f7fe bca2 	b.w	80053c8 <HAL_DMA_IRQHandler+0x21c>
 8006a84:	00800001 	.word	0x00800001
 8006a88:	40026400 	.word	0x40026400
 8006a8c:	00800004 	.word	0x00800004
 8006a90:	40026000 	.word	0x40026000
 8006a94:	40026010 	.word	0x40026010
 8006a98:	48bd      	ldr	r0, [pc, #756]	; (8006d90 <HAL_DMA_IRQHandler+0x1be4>)
 8006a9a:	2208      	movs	r2, #8
 8006a9c:	60c2      	str	r2, [r0, #12]
 8006a9e:	6ce1      	ldr	r1, [r4, #76]	; 0x4c
 8006aa0:	6ca2      	ldr	r2, [r4, #72]	; 0x48
 8006aa2:	f041 0101 	orr.w	r1, r1, #1
 8006aa6:	64e1      	str	r1, [r4, #76]	; 0x4c
 8006aa8:	2504      	movs	r5, #4
 8006aaa:	2100      	movs	r1, #0
 8006aac:	f884 5035 	strb.w	r5, [r4, #53]	; 0x35
 8006ab0:	f884 1034 	strb.w	r1, [r4, #52]	; 0x34
 8006ab4:	2a00      	cmp	r2, #0
 8006ab6:	f47e ac38 	bne.w	800532a <HAL_DMA_IRQHandler+0x17e>
 8006aba:	6840      	ldr	r0, [r0, #4]
 8006abc:	4ab5      	ldr	r2, [pc, #724]	; (8006d94 <HAL_DMA_IRQHandler+0x1be8>)
 8006abe:	4619      	mov	r1, r3
 8006ac0:	f7fe bc82 	b.w	80053c8 <HAL_DMA_IRQHandler+0x21c>
 8006ac4:	2320      	movs	r3, #32
 8006ac6:	e7c3      	b.n	8006a50 <HAL_DMA_IRQHandler+0x18a4>
 8006ac8:	2320      	movs	r3, #32
 8006aca:	f7ff bb7d 	b.w	80061c8 <HAL_DMA_IRQHandler+0x101c>
 8006ace:	2220      	movs	r2, #32
 8006ad0:	e780      	b.n	80069d4 <HAL_DMA_IRQHandler+0x1828>
 8006ad2:	2220      	movs	r2, #32
 8006ad4:	f7ff bb21 	b.w	800611a <HAL_DMA_IRQHandler+0xf6e>
 8006ad8:	2210      	movs	r2, #16
 8006ada:	e739      	b.n	8006950 <HAL_DMA_IRQHandler+0x17a4>
 8006adc:	2210      	movs	r2, #16
 8006ade:	f7ff bbbd 	b.w	800625c <HAL_DMA_IRQHandler+0x10b0>
 8006ae2:	2210      	movs	r2, #16
 8006ae4:	e6f2      	b.n	80068cc <HAL_DMA_IRQHandler+0x1720>
 8006ae6:	2210      	movs	r2, #16
 8006ae8:	e401      	b.n	80062ee <HAL_DMA_IRQHandler+0x1142>
 8006aea:	f44f 6200 	mov.w	r2, #2048	; 0x800
 8006aee:	f7fe bf0a 	b.w	8005906 <HAL_DMA_IRQHandler+0x75a>
 8006af2:	f44f 6100 	mov.w	r1, #2048	; 0x800
 8006af6:	f7ff b925 	b.w	8005d44 <HAL_DMA_IRQHandler+0xb98>
 8006afa:	f44f 6180 	mov.w	r1, #1024	; 0x400
 8006afe:	f7fe bf6d 	b.w	80059dc <HAL_DMA_IRQHandler+0x830>
 8006b02:	2140      	movs	r1, #64	; 0x40
 8006b04:	f7ff b860 	b.w	8005bc8 <HAL_DMA_IRQHandler+0xa1c>
 8006b08:	f44f 6180 	mov.w	r1, #1024	; 0x400
 8006b0c:	f7ff b96a 	b.w	8005de4 <HAL_DMA_IRQHandler+0xc38>
 8006b10:	f44f 7080 	mov.w	r0, #256	; 0x100
 8006b14:	f7fe be85 	b.w	8005822 <HAL_DMA_IRQHandler+0x676>
 8006b18:	4d9f      	ldr	r5, [pc, #636]	; (8006d98 <HAL_DMA_IRQHandler+0x1bec>)
 8006b1a:	e637      	b.n	800678c <HAL_DMA_IRQHandler+0x15e0>
 8006b1c:	f44f 1280 	mov.w	r2, #1048576	; 0x100000
 8006b20:	f7fe be91 	b.w	8005846 <HAL_DMA_IRQHandler+0x69a>
 8006b24:	f44f 2280 	mov.w	r2, #262144	; 0x40000
 8006b28:	f7ff b9d0 	b.w	8005ecc <HAL_DMA_IRQHandler+0xd20>
 8006b2c:	489a      	ldr	r0, [pc, #616]	; (8006d98 <HAL_DMA_IRQHandler+0x1bec>)
 8006b2e:	e794      	b.n	8006a5a <HAL_DMA_IRQHandler+0x18ae>
 8006b30:	4a97      	ldr	r2, [pc, #604]	; (8006d90 <HAL_DMA_IRQHandler+0x1be4>)
 8006b32:	f44f 7000 	mov.w	r0, #512	; 0x200
 8006b36:	60d0      	str	r0, [r2, #12]
 8006b38:	6ce0      	ldr	r0, [r4, #76]	; 0x4c
 8006b3a:	6ca2      	ldr	r2, [r4, #72]	; 0x48
 8006b3c:	f040 0001 	orr.w	r0, r0, #1
 8006b40:	64e0      	str	r0, [r4, #76]	; 0x4c
 8006b42:	2504      	movs	r5, #4
 8006b44:	2000      	movs	r0, #0
 8006b46:	f884 5035 	strb.w	r5, [r4, #53]	; 0x35
 8006b4a:	f884 0034 	strb.w	r0, [r4, #52]	; 0x34
 8006b4e:	2a00      	cmp	r2, #0
 8006b50:	f47e abeb 	bne.w	800532a <HAL_DMA_IRQHandler+0x17e>
 8006b54:	488e      	ldr	r0, [pc, #568]	; (8006d90 <HAL_DMA_IRQHandler+0x1be4>)
 8006b56:	2240      	movs	r2, #64	; 0x40
 8006b58:	6840      	ldr	r0, [r0, #4]
 8006b5a:	f7fe bc35 	b.w	80053c8 <HAL_DMA_IRQHandler+0x21c>
 8006b5e:	f44f 6280 	mov.w	r2, #1024	; 0x400
 8006b62:	e561      	b.n	8006628 <HAL_DMA_IRQHandler+0x147c>
 8006b64:	f44f 7180 	mov.w	r1, #256	; 0x100
 8006b68:	f7ff ba00 	b.w	8005f6c <HAL_DMA_IRQHandler+0xdc0>
 8006b6c:	f44f 6300 	mov.w	r3, #2048	; 0x800
 8006b70:	e4d6      	b.n	8006520 <HAL_DMA_IRQHandler+0x1374>
 8006b72:	f44f 7180 	mov.w	r1, #256	; 0x100
 8006b76:	e43d      	b.n	80063f4 <HAL_DMA_IRQHandler+0x1248>
 8006b78:	f44f 6200 	mov.w	r2, #2048	; 0x800
 8006b7c:	e512      	b.n	80065a4 <HAL_DMA_IRQHandler+0x13f8>
 8006b7e:	f44f 6280 	mov.w	r2, #1024	; 0x400
 8006b82:	e5e4      	b.n	800674e <HAL_DMA_IRQHandler+0x15a2>
 8006b84:	2240      	movs	r2, #64	; 0x40
 8006b86:	f7ff b989 	b.w	8005e9c <HAL_DMA_IRQHandler+0xcf0>
 8006b8a:	2240      	movs	r2, #64	; 0x40
 8006b8c:	e58e      	b.n	80066ac <HAL_DMA_IRQHandler+0x1500>
 8006b8e:	f44f 2080 	mov.w	r0, #262144	; 0x40000
 8006b92:	f7fe bd1b 	b.w	80055cc <HAL_DMA_IRQHandler+0x420>
 8006b96:	f44f 3180 	mov.w	r1, #65536	; 0x10000
 8006b9a:	f7fe bc6e 	b.w	800547a <HAL_DMA_IRQHandler+0x2ce>
 8006b9e:	4d7c      	ldr	r5, [pc, #496]	; (8006d90 <HAL_DMA_IRQHandler+0x1be4>)
 8006ba0:	f44f 2200 	mov.w	r2, #524288	; 0x80000
 8006ba4:	60ea      	str	r2, [r5, #12]
 8006ba6:	6ce0      	ldr	r0, [r4, #76]	; 0x4c
 8006ba8:	6ca2      	ldr	r2, [r4, #72]	; 0x48
 8006baa:	f040 0001 	orr.w	r0, r0, #1
 8006bae:	64e0      	str	r0, [r4, #76]	; 0x4c
 8006bb0:	f04f 0c04 	mov.w	ip, #4
 8006bb4:	2000      	movs	r0, #0
 8006bb6:	f884 c035 	strb.w	ip, [r4, #53]	; 0x35
 8006bba:	f884 0034 	strb.w	r0, [r4, #52]	; 0x34
 8006bbe:	2a00      	cmp	r2, #0
 8006bc0:	f47e abb3 	bne.w	800532a <HAL_DMA_IRQHandler+0x17e>
 8006bc4:	6868      	ldr	r0, [r5, #4]
 8006bc6:	f44f 3280 	mov.w	r2, #65536	; 0x10000
 8006bca:	f7fe bbfd 	b.w	80053c8 <HAL_DMA_IRQHandler+0x21c>
 8006bce:	f44f 1280 	mov.w	r2, #1048576	; 0x100000
 8006bd2:	f7ff ba41 	b.w	8006058 <HAL_DMA_IRQHandler+0xeac>
 8006bd6:	f44f 1280 	mov.w	r2, #1048576	; 0x100000
 8006bda:	f7ff ba49 	b.w	8006070 <HAL_DMA_IRQHandler+0xec4>
 8006bde:	4d6e      	ldr	r5, [pc, #440]	; (8006d98 <HAL_DMA_IRQHandler+0x1bec>)
 8006be0:	f7ff ba1f 	b.w	8006022 <HAL_DMA_IRQHandler+0xe76>
 8006be4:	486c      	ldr	r0, [pc, #432]	; (8006d98 <HAL_DMA_IRQHandler+0x1bec>)
 8006be6:	e758      	b.n	8006a9a <HAL_DMA_IRQHandler+0x18ee>
 8006be8:	4a69      	ldr	r2, [pc, #420]	; (8006d90 <HAL_DMA_IRQHandler+0x1be4>)
 8006bea:	f44f 7000 	mov.w	r0, #512	; 0x200
 8006bee:	6090      	str	r0, [r2, #8]
 8006bf0:	6ce0      	ldr	r0, [r4, #76]	; 0x4c
 8006bf2:	6ca2      	ldr	r2, [r4, #72]	; 0x48
 8006bf4:	f040 0001 	orr.w	r0, r0, #1
 8006bf8:	64e0      	str	r0, [r4, #76]	; 0x4c
 8006bfa:	2504      	movs	r5, #4
 8006bfc:	2000      	movs	r0, #0
 8006bfe:	f884 5035 	strb.w	r5, [r4, #53]	; 0x35
 8006c02:	f884 0034 	strb.w	r0, [r4, #52]	; 0x34
 8006c06:	2a00      	cmp	r2, #0
 8006c08:	f47e ab8f 	bne.w	800532a <HAL_DMA_IRQHandler+0x17e>
 8006c0c:	4860      	ldr	r0, [pc, #384]	; (8006d90 <HAL_DMA_IRQHandler+0x1be4>)
 8006c0e:	2240      	movs	r2, #64	; 0x40
 8006c10:	6800      	ldr	r0, [r0, #0]
 8006c12:	f7fe bbd9 	b.w	80053c8 <HAL_DMA_IRQHandler+0x21c>
 8006c16:	4d5e      	ldr	r5, [pc, #376]	; (8006d90 <HAL_DMA_IRQHandler+0x1be4>)
 8006c18:	f44f 7200 	mov.w	r2, #512	; 0x200
 8006c1c:	60aa      	str	r2, [r5, #8]
 8006c1e:	6ce0      	ldr	r0, [r4, #76]	; 0x4c
 8006c20:	6ca2      	ldr	r2, [r4, #72]	; 0x48
 8006c22:	f040 0001 	orr.w	r0, r0, #1
 8006c26:	64e0      	str	r0, [r4, #76]	; 0x4c
 8006c28:	f04f 0c04 	mov.w	ip, #4
 8006c2c:	2000      	movs	r0, #0
 8006c2e:	f884 c035 	strb.w	ip, [r4, #53]	; 0x35
 8006c32:	f884 0034 	strb.w	r0, [r4, #52]	; 0x34
 8006c36:	2a00      	cmp	r2, #0
 8006c38:	f47e ab77 	bne.w	800532a <HAL_DMA_IRQHandler+0x17e>
 8006c3c:	6828      	ldr	r0, [r5, #0]
 8006c3e:	f7ff ba03 	b.w	8006048 <HAL_DMA_IRQHandler+0xe9c>
 8006c42:	4d55      	ldr	r5, [pc, #340]	; (8006d98 <HAL_DMA_IRQHandler+0x1bec>)
 8006c44:	e7e8      	b.n	8006c18 <HAL_DMA_IRQHandler+0x1a6c>
 8006c46:	4852      	ldr	r0, [pc, #328]	; (8006d90 <HAL_DMA_IRQHandler+0x1be4>)
 8006c48:	f44f 7200 	mov.w	r2, #512	; 0x200
 8006c4c:	6082      	str	r2, [r0, #8]
 8006c4e:	6ce1      	ldr	r1, [r4, #76]	; 0x4c
 8006c50:	6ca2      	ldr	r2, [r4, #72]	; 0x48
 8006c52:	f041 0101 	orr.w	r1, r1, #1
 8006c56:	64e1      	str	r1, [r4, #76]	; 0x4c
 8006c58:	2504      	movs	r5, #4
 8006c5a:	2100      	movs	r1, #0
 8006c5c:	f884 5035 	strb.w	r5, [r4, #53]	; 0x35
 8006c60:	f884 1034 	strb.w	r1, [r4, #52]	; 0x34
 8006c64:	2a00      	cmp	r2, #0
 8006c66:	f47e ab60 	bne.w	800532a <HAL_DMA_IRQHandler+0x17e>
 8006c6a:	6800      	ldr	r0, [r0, #0]
 8006c6c:	494b      	ldr	r1, [pc, #300]	; (8006d9c <HAL_DMA_IRQHandler+0x1bf0>)
 8006c6e:	2240      	movs	r2, #64	; 0x40
 8006c70:	f7fe bbaa 	b.w	80053c8 <HAL_DMA_IRQHandler+0x21c>
 8006c74:	4a48      	ldr	r2, [pc, #288]	; (8006d98 <HAL_DMA_IRQHandler+0x1bec>)
 8006c76:	2008      	movs	r0, #8
 8006c78:	60d0      	str	r0, [r2, #12]
 8006c7a:	6ce0      	ldr	r0, [r4, #76]	; 0x4c
 8006c7c:	6ca2      	ldr	r2, [r4, #72]	; 0x48
 8006c7e:	f040 0001 	orr.w	r0, r0, #1
 8006c82:	64e0      	str	r0, [r4, #76]	; 0x4c
 8006c84:	2504      	movs	r5, #4
 8006c86:	2000      	movs	r0, #0
 8006c88:	f884 5035 	strb.w	r5, [r4, #53]	; 0x35
 8006c8c:	f884 0034 	strb.w	r0, [r4, #52]	; 0x34
 8006c90:	2a00      	cmp	r2, #0
 8006c92:	f47e ab4a 	bne.w	800532a <HAL_DMA_IRQHandler+0x17e>
 8006c96:	4840      	ldr	r0, [pc, #256]	; (8006d98 <HAL_DMA_IRQHandler+0x1bec>)
 8006c98:	4a3e      	ldr	r2, [pc, #248]	; (8006d94 <HAL_DMA_IRQHandler+0x1be8>)
 8006c9a:	6840      	ldr	r0, [r0, #4]
 8006c9c:	f7fe bb94 	b.w	80053c8 <HAL_DMA_IRQHandler+0x21c>
 8006ca0:	4a3d      	ldr	r2, [pc, #244]	; (8006d98 <HAL_DMA_IRQHandler+0x1bec>)
 8006ca2:	2008      	movs	r0, #8
 8006ca4:	6090      	str	r0, [r2, #8]
 8006ca6:	6ce0      	ldr	r0, [r4, #76]	; 0x4c
 8006ca8:	6ca2      	ldr	r2, [r4, #72]	; 0x48
 8006caa:	f040 0001 	orr.w	r0, r0, #1
 8006cae:	64e0      	str	r0, [r4, #76]	; 0x4c
 8006cb0:	2504      	movs	r5, #4
 8006cb2:	2000      	movs	r0, #0
 8006cb4:	f884 5035 	strb.w	r5, [r4, #53]	; 0x35
 8006cb8:	f884 0034 	strb.w	r0, [r4, #52]	; 0x34
 8006cbc:	2a00      	cmp	r2, #0
 8006cbe:	f47e ab34 	bne.w	800532a <HAL_DMA_IRQHandler+0x17e>
 8006cc2:	4835      	ldr	r0, [pc, #212]	; (8006d98 <HAL_DMA_IRQHandler+0x1bec>)
 8006cc4:	4a33      	ldr	r2, [pc, #204]	; (8006d94 <HAL_DMA_IRQHandler+0x1be8>)
 8006cc6:	6800      	ldr	r0, [r0, #0]
 8006cc8:	f7fe bb7e 	b.w	80053c8 <HAL_DMA_IRQHandler+0x21c>
 8006ccc:	4830      	ldr	r0, [pc, #192]	; (8006d90 <HAL_DMA_IRQHandler+0x1be4>)
 8006cce:	f44f 7200 	mov.w	r2, #512	; 0x200
 8006cd2:	60c2      	str	r2, [r0, #12]
 8006cd4:	6ce1      	ldr	r1, [r4, #76]	; 0x4c
 8006cd6:	6ca2      	ldr	r2, [r4, #72]	; 0x48
 8006cd8:	f041 0101 	orr.w	r1, r1, #1
 8006cdc:	64e1      	str	r1, [r4, #76]	; 0x4c
 8006cde:	2504      	movs	r5, #4
 8006ce0:	2100      	movs	r1, #0
 8006ce2:	f884 5035 	strb.w	r5, [r4, #53]	; 0x35
 8006ce6:	f884 1034 	strb.w	r1, [r4, #52]	; 0x34
 8006cea:	2a00      	cmp	r2, #0
 8006cec:	f47e ab1d 	bne.w	800532a <HAL_DMA_IRQHandler+0x17e>
 8006cf0:	6840      	ldr	r0, [r0, #4]
 8006cf2:	4619      	mov	r1, r3
 8006cf4:	2240      	movs	r2, #64	; 0x40
 8006cf6:	f7fe bb67 	b.w	80053c8 <HAL_DMA_IRQHandler+0x21c>
 8006cfa:	f44f 6300 	mov.w	r3, #2048	; 0x800
 8006cfe:	e6a7      	b.n	8006a50 <HAL_DMA_IRQHandler+0x18a4>
 8006d00:	f44f 6280 	mov.w	r2, #1024	; 0x400
 8006d04:	e5e2      	b.n	80068cc <HAL_DMA_IRQHandler+0x1720>
 8006d06:	f44f 6280 	mov.w	r2, #1024	; 0x400
 8006d0a:	f7ff baf0 	b.w	80062ee <HAL_DMA_IRQHandler+0x1142>
 8006d0e:	f44f 6280 	mov.w	r2, #1024	; 0x400
 8006d12:	f7ff baa3 	b.w	800625c <HAL_DMA_IRQHandler+0x10b0>
 8006d16:	f44f 6200 	mov.w	r2, #2048	; 0x800
 8006d1a:	f7ff b9fe 	b.w	800611a <HAL_DMA_IRQHandler+0xf6e>
 8006d1e:	f44f 6300 	mov.w	r3, #2048	; 0x800
 8006d22:	f7ff ba51 	b.w	80061c8 <HAL_DMA_IRQHandler+0x101c>
 8006d26:	f44f 6280 	mov.w	r2, #1024	; 0x400
 8006d2a:	e611      	b.n	8006950 <HAL_DMA_IRQHandler+0x17a4>
 8006d2c:	f44f 6200 	mov.w	r2, #2048	; 0x800
 8006d30:	e650      	b.n	80069d4 <HAL_DMA_IRQHandler+0x1828>
 8006d32:	f44f 1100 	mov.w	r1, #2097152	; 0x200000
 8006d36:	f7ff b805 	b.w	8005d44 <HAL_DMA_IRQHandler+0xb98>
 8006d3a:	f44f 1180 	mov.w	r1, #1048576	; 0x100000
 8006d3e:	f7fe be4d 	b.w	80059dc <HAL_DMA_IRQHandler+0x830>
 8006d42:	f44f 1180 	mov.w	r1, #1048576	; 0x100000
 8006d46:	f7ff b84d 	b.w	8005de4 <HAL_DMA_IRQHandler+0xc38>
 8006d4a:	f44f 3180 	mov.w	r1, #65536	; 0x10000
 8006d4e:	f7fe bf3b 	b.w	8005bc8 <HAL_DMA_IRQHandler+0xa1c>
 8006d52:	f44f 2080 	mov.w	r0, #262144	; 0x40000
 8006d56:	f7fe bd64 	b.w	8005822 <HAL_DMA_IRQHandler+0x676>
 8006d5a:	f44f 1200 	mov.w	r2, #2097152	; 0x200000
 8006d5e:	f7fe bdd2 	b.w	8005906 <HAL_DMA_IRQHandler+0x75a>
 8006d62:	480d      	ldr	r0, [pc, #52]	; (8006d98 <HAL_DMA_IRQHandler+0x1bec>)
 8006d64:	f44f 7200 	mov.w	r2, #512	; 0x200
 8006d68:	6082      	str	r2, [r0, #8]
 8006d6a:	6ce1      	ldr	r1, [r4, #76]	; 0x4c
 8006d6c:	6ca2      	ldr	r2, [r4, #72]	; 0x48
 8006d6e:	f041 0101 	orr.w	r1, r1, #1
 8006d72:	64e1      	str	r1, [r4, #76]	; 0x4c
 8006d74:	2504      	movs	r5, #4
 8006d76:	2100      	movs	r1, #0
 8006d78:	f884 5035 	strb.w	r5, [r4, #53]	; 0x35
 8006d7c:	f884 1034 	strb.w	r1, [r4, #52]	; 0x34
 8006d80:	2a00      	cmp	r2, #0
 8006d82:	f47e aad2 	bne.w	800532a <HAL_DMA_IRQHandler+0x17e>
 8006d86:	6800      	ldr	r0, [r0, #0]
 8006d88:	4905      	ldr	r1, [pc, #20]	; (8006da0 <HAL_DMA_IRQHandler+0x1bf4>)
 8006d8a:	2240      	movs	r2, #64	; 0x40
 8006d8c:	f7fe bb1c 	b.w	80053c8 <HAL_DMA_IRQHandler+0x21c>
 8006d90:	40026400 	.word	0x40026400
 8006d94:	00800001 	.word	0x00800001
 8006d98:	40026000 	.word	0x40026000
 8006d9c:	40026428 	.word	0x40026428
 8006da0:	40026028 	.word	0x40026028
 8006da4:	4d45      	ldr	r5, [pc, #276]	; (8006ebc <HAL_DMA_IRQHandler+0x1d10>)
 8006da6:	f44f 2200 	mov.w	r2, #524288	; 0x80000
 8006daa:	60aa      	str	r2, [r5, #8]
 8006dac:	6ce0      	ldr	r0, [r4, #76]	; 0x4c
 8006dae:	6ca2      	ldr	r2, [r4, #72]	; 0x48
 8006db0:	f040 0001 	orr.w	r0, r0, #1
 8006db4:	64e0      	str	r0, [r4, #76]	; 0x4c
 8006db6:	f04f 0c04 	mov.w	ip, #4
 8006dba:	2000      	movs	r0, #0
 8006dbc:	f884 c035 	strb.w	ip, [r4, #53]	; 0x35
 8006dc0:	f884 0034 	strb.w	r0, [r4, #52]	; 0x34
 8006dc4:	2a00      	cmp	r2, #0
 8006dc6:	f47e aab0 	bne.w	800532a <HAL_DMA_IRQHandler+0x17e>
 8006dca:	6828      	ldr	r0, [r5, #0]
 8006dcc:	f44f 3280 	mov.w	r2, #65536	; 0x10000
 8006dd0:	f7fe bafa 	b.w	80053c8 <HAL_DMA_IRQHandler+0x21c>
 8006dd4:	f44f 1280 	mov.w	r2, #1048576	; 0x100000
 8006dd8:	e426      	b.n	8006628 <HAL_DMA_IRQHandler+0x147c>
 8006dda:	f44f 1300 	mov.w	r3, #2097152	; 0x200000
 8006dde:	f7ff bb9f 	b.w	8006520 <HAL_DMA_IRQHandler+0x1374>
 8006de2:	f44f 3280 	mov.w	r2, #65536	; 0x10000
 8006de6:	e461      	b.n	80066ac <HAL_DMA_IRQHandler+0x1500>
 8006de8:	f44f 1200 	mov.w	r2, #2097152	; 0x200000
 8006dec:	f7ff bbda 	b.w	80065a4 <HAL_DMA_IRQHandler+0x13f8>
 8006df0:	f44f 3280 	mov.w	r2, #65536	; 0x10000
 8006df4:	f7ff b852 	b.w	8005e9c <HAL_DMA_IRQHandler+0xcf0>
 8006df8:	f44f 1280 	mov.w	r2, #1048576	; 0x100000
 8006dfc:	e4a7      	b.n	800674e <HAL_DMA_IRQHandler+0x15a2>
 8006dfe:	f44f 2180 	mov.w	r1, #262144	; 0x40000
 8006e02:	f7ff baf7 	b.w	80063f4 <HAL_DMA_IRQHandler+0x1248>
 8006e06:	f44f 2180 	mov.w	r1, #262144	; 0x40000
 8006e0a:	f7ff b8af 	b.w	8005f6c <HAL_DMA_IRQHandler+0xdc0>
 8006e0e:	4d2c      	ldr	r5, [pc, #176]	; (8006ec0 <HAL_DMA_IRQHandler+0x1d14>)
 8006e10:	e6c6      	b.n	8006ba0 <HAL_DMA_IRQHandler+0x19f4>
 8006e12:	482b      	ldr	r0, [pc, #172]	; (8006ec0 <HAL_DMA_IRQHandler+0x1d14>)
 8006e14:	e75b      	b.n	8006cce <HAL_DMA_IRQHandler+0x1b22>
 8006e16:	4829      	ldr	r0, [pc, #164]	; (8006ebc <HAL_DMA_IRQHandler+0x1d10>)
 8006e18:	f44f 2200 	mov.w	r2, #524288	; 0x80000
 8006e1c:	6082      	str	r2, [r0, #8]
 8006e1e:	6ce1      	ldr	r1, [r4, #76]	; 0x4c
 8006e20:	6ca2      	ldr	r2, [r4, #72]	; 0x48
 8006e22:	f041 0101 	orr.w	r1, r1, #1
 8006e26:	64e1      	str	r1, [r4, #76]	; 0x4c
 8006e28:	2504      	movs	r5, #4
 8006e2a:	2100      	movs	r1, #0
 8006e2c:	f884 5035 	strb.w	r5, [r4, #53]	; 0x35
 8006e30:	f884 1034 	strb.w	r1, [r4, #52]	; 0x34
 8006e34:	2a00      	cmp	r2, #0
 8006e36:	f47e aa78 	bne.w	800532a <HAL_DMA_IRQHandler+0x17e>
 8006e3a:	6800      	ldr	r0, [r0, #0]
 8006e3c:	4619      	mov	r1, r3
 8006e3e:	f44f 3280 	mov.w	r2, #65536	; 0x10000
 8006e42:	f7fe bac1 	b.w	80053c8 <HAL_DMA_IRQHandler+0x21c>
 8006e46:	4d1e      	ldr	r5, [pc, #120]	; (8006ec0 <HAL_DMA_IRQHandler+0x1d14>)
 8006e48:	e7ad      	b.n	8006da6 <HAL_DMA_IRQHandler+0x1bfa>
 8006e4a:	481c      	ldr	r0, [pc, #112]	; (8006ebc <HAL_DMA_IRQHandler+0x1d10>)
 8006e4c:	f44f 2200 	mov.w	r2, #524288	; 0x80000
 8006e50:	60c2      	str	r2, [r0, #12]
 8006e52:	6ce1      	ldr	r1, [r4, #76]	; 0x4c
 8006e54:	6ca2      	ldr	r2, [r4, #72]	; 0x48
 8006e56:	f041 0101 	orr.w	r1, r1, #1
 8006e5a:	64e1      	str	r1, [r4, #76]	; 0x4c
 8006e5c:	2504      	movs	r5, #4
 8006e5e:	2100      	movs	r1, #0
 8006e60:	f884 5035 	strb.w	r5, [r4, #53]	; 0x35
 8006e64:	f884 1034 	strb.w	r1, [r4, #52]	; 0x34
 8006e68:	2a00      	cmp	r2, #0
 8006e6a:	f47e aa5e 	bne.w	800532a <HAL_DMA_IRQHandler+0x17e>
 8006e6e:	6840      	ldr	r0, [r0, #4]
 8006e70:	4619      	mov	r1, r3
 8006e72:	f44f 3280 	mov.w	r2, #65536	; 0x10000
 8006e76:	f7fe baa7 	b.w	80053c8 <HAL_DMA_IRQHandler+0x21c>
 8006e7a:	f44f 1280 	mov.w	r2, #1048576	; 0x100000
 8006e7e:	f7ff ba36 	b.w	80062ee <HAL_DMA_IRQHandler+0x1142>
 8006e82:	f44f 1280 	mov.w	r2, #1048576	; 0x100000
 8006e86:	f7ff b9e9 	b.w	800625c <HAL_DMA_IRQHandler+0x10b0>
 8006e8a:	f44f 1300 	mov.w	r3, #2097152	; 0x200000
 8006e8e:	e5df      	b.n	8006a50 <HAL_DMA_IRQHandler+0x18a4>
 8006e90:	f44f 1280 	mov.w	r2, #1048576	; 0x100000
 8006e94:	e51a      	b.n	80068cc <HAL_DMA_IRQHandler+0x1720>
 8006e96:	f44f 1280 	mov.w	r2, #1048576	; 0x100000
 8006e9a:	e559      	b.n	8006950 <HAL_DMA_IRQHandler+0x17a4>
 8006e9c:	f44f 1200 	mov.w	r2, #2097152	; 0x200000
 8006ea0:	e598      	b.n	80069d4 <HAL_DMA_IRQHandler+0x1828>
 8006ea2:	f44f 1200 	mov.w	r2, #2097152	; 0x200000
 8006ea6:	f7ff b938 	b.w	800611a <HAL_DMA_IRQHandler+0xf6e>
 8006eaa:	f44f 1300 	mov.w	r3, #2097152	; 0x200000
 8006eae:	f7ff b98b 	b.w	80061c8 <HAL_DMA_IRQHandler+0x101c>
 8006eb2:	4803      	ldr	r0, [pc, #12]	; (8006ec0 <HAL_DMA_IRQHandler+0x1d14>)
 8006eb4:	e7b0      	b.n	8006e18 <HAL_DMA_IRQHandler+0x1c6c>
 8006eb6:	4802      	ldr	r0, [pc, #8]	; (8006ec0 <HAL_DMA_IRQHandler+0x1d14>)
 8006eb8:	e7c8      	b.n	8006e4c <HAL_DMA_IRQHandler+0x1ca0>
 8006eba:	bf00      	nop
 8006ebc:	40026400 	.word	0x40026400
 8006ec0:	40026000 	.word	0x40026000

08006ec4 <HardFault_Handler>:
BSP_AUDIO_OUT_Error_CallBack():
 8006ec4:	e7fe      	b.n	8006ec4 <HardFault_Handler>
 8006ec6:	bf00      	nop

08006ec8 <HAL_MspInit>:
NMI_Handler():
 8006ec8:	4770      	bx	lr
 8006eca:	bf00      	nop

08006ecc <HAL_RCC_GetHCLKFreq>:
HAL_RCC_GetHCLKFreq():
 8006ecc:	4a27      	ldr	r2, [pc, #156]	; (8006f6c <HAL_RCC_GetHCLKFreq+0xa0>)
 8006ece:	6893      	ldr	r3, [r2, #8]
 8006ed0:	f003 030c 	and.w	r3, r3, #12
 8006ed4:	2b04      	cmp	r3, #4
 8006ed6:	d046      	beq.n	8006f66 <HAL_RCC_GetHCLKFreq+0x9a>
 8006ed8:	2b08      	cmp	r3, #8
 8006eda:	d142      	bne.n	8006f62 <HAL_RCC_GetHCLKFreq+0x96>
 8006edc:	6851      	ldr	r1, [r2, #4]
 8006ede:	6850      	ldr	r0, [r2, #4]
 8006ee0:	f44f 0380 	mov.w	r3, #4194304	; 0x400000
 8006ee4:	f001 0c3f 	and.w	ip, r1, #63	; 0x3f
 8006ee8:	fa93 f3a3 	rbit	r3, r3
 8006eec:	fab3 f383 	clz	r3, r3
 8006ef0:	f400 0080 	and.w	r0, r0, #4194304	; 0x400000
 8006ef4:	b2db      	uxtb	r3, r3
 8006ef6:	fa30 f303 	lsrs.w	r3, r0, r3
 8006efa:	6851      	ldr	r1, [r2, #4]
 8006efc:	f647 73c0 	movw	r3, #32704	; 0x7fc0
 8006f00:	fa93 f0a3 	rbit	r0, r3
 8006f04:	fab0 f080 	clz	r0, r0
 8006f08:	4a18      	ldr	r2, [pc, #96]	; (8006f6c <HAL_RCC_GetHCLKFreq+0xa0>)
 8006f0a:	b2c0      	uxtb	r0, r0
 8006f0c:	ea01 0103 	and.w	r1, r1, r3
 8006f10:	fa21 f100 	lsr.w	r1, r1, r0
 8006f14:	f44f 3340 	mov.w	r3, #196608	; 0x30000
 8006f18:	bf14      	ite	ne
 8006f1a:	4815      	ldrne	r0, [pc, #84]	; (8006f70 <HAL_RCC_GetHCLKFreq+0xa4>)
 8006f1c:	4815      	ldreq	r0, [pc, #84]	; (8006f74 <HAL_RCC_GetHCLKFreq+0xa8>)
 8006f1e:	fbb0 fcfc 	udiv	ip, r0, ip
 8006f22:	6850      	ldr	r0, [r2, #4]
 8006f24:	fb0c f101 	mul.w	r1, ip, r1
 8006f28:	fa93 f3a3 	rbit	r3, r3
 8006f2c:	fab3 f383 	clz	r3, r3
 8006f30:	f400 3040 	and.w	r0, r0, #196608	; 0x30000
 8006f34:	b2db      	uxtb	r3, r3
 8006f36:	40d8      	lsrs	r0, r3
 8006f38:	3001      	adds	r0, #1
 8006f3a:	0040      	lsls	r0, r0, #1
 8006f3c:	fbb1 f1f0 	udiv	r1, r1, r0
 8006f40:	4a0a      	ldr	r2, [pc, #40]	; (8006f6c <HAL_RCC_GetHCLKFreq+0xa0>)
 8006f42:	23f0      	movs	r3, #240	; 0xf0
 8006f44:	6892      	ldr	r2, [r2, #8]
 8006f46:	fa93 f3a3 	rbit	r3, r3
 8006f4a:	fab3 f383 	clz	r3, r3
 8006f4e:	f002 02f0 	and.w	r2, r2, #240	; 0xf0
 8006f52:	b2db      	uxtb	r3, r3
 8006f54:	fa22 f303 	lsr.w	r3, r2, r3
 8006f58:	4807      	ldr	r0, [pc, #28]	; (8006f78 <HAL_RCC_GetHCLKFreq+0xac>)
 8006f5a:	5cc0      	ldrb	r0, [r0, r3]
 8006f5c:	fa21 f000 	lsr.w	r0, r1, r0
 8006f60:	4770      	bx	lr
 8006f62:	4904      	ldr	r1, [pc, #16]	; (8006f74 <HAL_RCC_GetHCLKFreq+0xa8>)
 8006f64:	e7ec      	b.n	8006f40 <HAL_RCC_GetHCLKFreq+0x74>
 8006f66:	4902      	ldr	r1, [pc, #8]	; (8006f70 <HAL_RCC_GetHCLKFreq+0xa4>)
 8006f68:	e7ea      	b.n	8006f40 <HAL_RCC_GetHCLKFreq+0x74>
 8006f6a:	bf00      	nop
 8006f6c:	40023800 	.word	0x40023800
 8006f70:	007a1200 	.word	0x007a1200
 8006f74:	00f42400 	.word	0x00f42400
 8006f78:	0800f388 	.word	0x0800f388

08006f7c <I2Cx_Init.part.0>:
I2Cx_Init.part.0():
 8006f7c:	e92d 4f70 	stmdb	sp!, {r4, r5, r6, r8, r9, sl, fp, lr}
 8006f80:	4971      	ldr	r1, [pc, #452]	; (8007148 <I2Cx_Init.part.0+0x1cc>)
 8006f82:	4d72      	ldr	r5, [pc, #456]	; (800714c <I2Cx_Init.part.0+0x1d0>)
 8006f84:	4b72      	ldr	r3, [pc, #456]	; (8007150 <I2Cx_Init.part.0+0x1d4>)
 8006f86:	4873      	ldr	r0, [pc, #460]	; (8007154 <I2Cx_Init.part.0+0x1d8>)
 8006f88:	6b0a      	ldr	r2, [r1, #48]	; 0x30
 8006f8a:	602b      	str	r3, [r5, #0]
 8006f8c:	2300      	movs	r3, #0
 8006f8e:	e9c5 0301 	strd	r0, r3, [r5, #4]
 8006f92:	2433      	movs	r4, #51	; 0x33
 8006f94:	f44f 4080 	mov.w	r0, #16384	; 0x4000
 8006f98:	e9c5 4003 	strd	r4, r0, [r5, #12]
 8006f9c:	f042 0202 	orr.w	r2, r2, #2
 8006fa0:	2301      	movs	r3, #1
 8006fa2:	4c6d      	ldr	r4, [pc, #436]	; (8007158 <I2Cx_Init.part.0+0x1dc>)
 8006fa4:	630a      	str	r2, [r1, #48]	; 0x30
 8006fa6:	469c      	mov	ip, r3
 8006fa8:	f04f 090f 	mov.w	r9, #15
 8006fac:	f04f 0804 	mov.w	r8, #4
 8006fb0:	2603      	movs	r6, #3
 8006fb2:	f04f 0e02 	mov.w	lr, #2
 8006fb6:	fa0c fa03 	lsl.w	sl, ip, r3
 8006fba:	f43a 7210 	bics.w	r2, sl, #576	; 0x240
 8006fbe:	d129      	bne.n	8007014 <I2Cx_Init.part.0+0x98>
 8006fc0:	08d8      	lsrs	r0, r3, #3
 8006fc2:	0080      	lsls	r0, r0, #2
 8006fc4:	f100 4080 	add.w	r0, r0, #1073741824	; 0x40000000
 8006fc8:	f500 3001 	add.w	r0, r0, #132096	; 0x20400
 8006fcc:	f003 0207 	and.w	r2, r3, #7
 8006fd0:	6a01      	ldr	r1, [r0, #32]
 8006fd2:	0092      	lsls	r2, r2, #2
 8006fd4:	fa09 fb02 	lsl.w	fp, r9, r2
 8006fd8:	ea21 0b0b 	bic.w	fp, r1, fp
 8006fdc:	fa08 f102 	lsl.w	r1, r8, r2
 8006fe0:	ea41 010b 	orr.w	r1, r1, fp
 8006fe4:	6201      	str	r1, [r0, #32]
 8006fe6:	6821      	ldr	r1, [r4, #0]
 8006fe8:	005a      	lsls	r2, r3, #1
 8006fea:	fa06 f002 	lsl.w	r0, r6, r2
 8006fee:	ea21 0100 	bic.w	r1, r1, r0
 8006ff2:	fa0e f202 	lsl.w	r2, lr, r2
 8006ff6:	4311      	orrs	r1, r2
 8006ff8:	6021      	str	r1, [r4, #0]
 8006ffa:	68a1      	ldr	r1, [r4, #8]
 8006ffc:	ea21 0100 	bic.w	r1, r1, r0
 8007000:	430a      	orrs	r2, r1
 8007002:	60a2      	str	r2, [r4, #8]
 8007004:	6862      	ldr	r2, [r4, #4]
 8007006:	ea4a 0202 	orr.w	r2, sl, r2
 800700a:	6062      	str	r2, [r4, #4]
 800700c:	68e2      	ldr	r2, [r4, #12]
 800700e:	ea22 0000 	bic.w	r0, r2, r0
 8007012:	60e0      	str	r0, [r4, #12]
 8007014:	3301      	adds	r3, #1
 8007016:	2b10      	cmp	r3, #16
 8007018:	d1cd      	bne.n	8006fb6 <I2Cx_Init.part.0+0x3a>
 800701a:	4c4b      	ldr	r4, [pc, #300]	; (8007148 <I2Cx_Init.part.0+0x1cc>)
 800701c:	4b4f      	ldr	r3, [pc, #316]	; (800715c <I2Cx_Init.part.0+0x1e0>)
 800701e:	6c22      	ldr	r2, [r4, #64]	; 0x40
 8007020:	484f      	ldr	r0, [pc, #316]	; (8007160 <I2Cx_Init.part.0+0x1e4>)
 8007022:	f442 1200 	orr.w	r2, r2, #2097152	; 0x200000
 8007026:	6422      	str	r2, [r4, #64]	; 0x40
 8007028:	6a22      	ldr	r2, [r4, #32]
 800702a:	f442 1200 	orr.w	r2, r2, #2097152	; 0x200000
 800702e:	6222      	str	r2, [r4, #32]
 8007030:	6a22      	ldr	r2, [r4, #32]
 8007032:	f422 1200 	bic.w	r2, r2, #2097152	; 0x200000
 8007036:	6222      	str	r2, [r4, #32]
 8007038:	2100      	movs	r1, #0
 800703a:	f04f 4200 	mov.w	r2, #2147483648	; 0x80000000
 800703e:	68c6      	ldr	r6, [r0, #12]
 8007040:	f883 131f 	strb.w	r1, [r3, #799]	; 0x31f
 8007044:	2601      	movs	r6, #1
 8007046:	601a      	str	r2, [r3, #0]
 8007048:	68c2      	ldr	r2, [r0, #12]
 800704a:	f883 1320 	strb.w	r1, [r3, #800]	; 0x320
 800704e:	4a40      	ldr	r2, [pc, #256]	; (8007150 <I2Cx_Init.part.0+0x1d4>)
 8007050:	605e      	str	r6, [r3, #4]
 8007052:	2302      	movs	r3, #2
 8007054:	f895 1035 	ldrb.w	r1, [r5, #53]	; 0x35
 8007058:	f885 3035 	strb.w	r3, [r5, #53]	; 0x35
 800705c:	6813      	ldr	r3, [r2, #0]
 800705e:	f023 0301 	bic.w	r3, r3, #1
 8007062:	6013      	str	r3, [r2, #0]
 8007064:	f7ff ff32 	bl	8006ecc <HAL_RCC_GetHCLKFreq>
 8007068:	68a1      	ldr	r1, [r4, #8]
 800706a:	f44f 52e0 	mov.w	r2, #7168	; 0x1c00
 800706e:	fa92 f2a2 	rbit	r2, r2
 8007072:	fab2 f282 	clz	r2, r2
 8007076:	b2d2      	uxtb	r2, r2
 8007078:	f401 51e0 	and.w	r1, r1, #7168	; 0x1c00
 800707c:	40d1      	lsrs	r1, r2
 800707e:	4b39      	ldr	r3, [pc, #228]	; (8007164 <I2Cx_Init.part.0+0x1e8>)
 8007080:	4a39      	ldr	r2, [pc, #228]	; (8007168 <I2Cx_Init.part.0+0x1ec>)
 8007082:	5c5b      	ldrb	r3, [r3, r1]
 8007084:	4c33      	ldr	r4, [pc, #204]	; (8007154 <I2Cx_Init.part.0+0x1d8>)
 8007086:	6829      	ldr	r1, [r5, #0]
 8007088:	40d8      	lsrs	r0, r3
 800708a:	fba2 3200 	umull	r3, r2, r2, r0
 800708e:	686b      	ldr	r3, [r5, #4]
 8007090:	0c92      	lsrs	r2, r2, #18
 8007092:	42a3      	cmp	r3, r4
 8007094:	604a      	str	r2, [r1, #4]
 8007096:	d822      	bhi.n	80070de <I2Cx_Init.part.0+0x162>
 8007098:	f640 74fc 	movw	r4, #4092	; 0xffc
 800709c:	4432      	add	r2, r6
 800709e:	40b3      	lsls	r3, r6
 80070a0:	fbb0 f3f3 	udiv	r3, r0, r3
 80070a4:	4223      	tst	r3, r4
 80070a6:	620a      	str	r2, [r1, #32]
 80070a8:	bf08      	it	eq
 80070aa:	2304      	moveq	r3, #4
 80070ac:	e9d5 0407 	ldrd	r0, r4, [r5, #28]
 80070b0:	4320      	orrs	r0, r4
 80070b2:	61cb      	str	r3, [r1, #28]
 80070b4:	692a      	ldr	r2, [r5, #16]
 80070b6:	6008      	str	r0, [r1, #0]
 80070b8:	e9d5 3005 	ldrd	r3, r0, [r5, #20]
 80070bc:	68ec      	ldr	r4, [r5, #12]
 80070be:	4303      	orrs	r3, r0
 80070c0:	4322      	orrs	r2, r4
 80070c2:	608a      	str	r2, [r1, #8]
 80070c4:	60cb      	str	r3, [r1, #12]
 80070c6:	680b      	ldr	r3, [r1, #0]
 80070c8:	2000      	movs	r0, #0
 80070ca:	f043 0301 	orr.w	r3, r3, #1
 80070ce:	2201      	movs	r2, #1
 80070d0:	600b      	str	r3, [r1, #0]
 80070d2:	f885 0036 	strb.w	r0, [r5, #54]	; 0x36
 80070d6:	f885 2035 	strb.w	r2, [r5, #53]	; 0x35
 80070da:	e8bd 8f70 	ldmia.w	sp!, {r4, r5, r6, r8, r9, sl, fp, pc}
 80070de:	f44f 7496 	mov.w	r4, #300	; 0x12c
 80070e2:	fb04 f202 	mul.w	r2, r4, r2
 80070e6:	4c21      	ldr	r4, [pc, #132]	; (800716c <I2Cx_Init.part.0+0x1f0>)
 80070e8:	fba4 4202 	umull	r4, r2, r4, r2
 80070ec:	0992      	lsrs	r2, r2, #6
 80070ee:	68ac      	ldr	r4, [r5, #8]
 80070f0:	3201      	adds	r2, #1
 80070f2:	620a      	str	r2, [r1, #32]
 80070f4:	b98c      	cbnz	r4, 800711a <I2Cx_Init.part.0+0x19e>
 80070f6:	eb03 0243 	add.w	r2, r3, r3, lsl #1
 80070fa:	fbb0 f2f2 	udiv	r2, r0, r2
 80070fe:	f3c2 020b 	ubfx	r2, r2, #0, #12
 8007102:	fab2 f282 	clz	r2, r2
 8007106:	0952      	lsrs	r2, r2, #5
 8007108:	b99a      	cbnz	r2, 8007132 <I2Cx_Init.part.0+0x1b6>
 800710a:	b9a4      	cbnz	r4, 8007136 <I2Cx_Init.part.0+0x1ba>
 800710c:	eb03 0343 	add.w	r3, r3, r3, lsl #1
 8007110:	fbb0 f3f3 	udiv	r3, r0, r3
 8007114:	f443 4300 	orr.w	r3, r3, #32768	; 0x8000
 8007118:	e7c8      	b.n	80070ac <I2Cx_Init.part.0+0x130>
 800711a:	eb03 0283 	add.w	r2, r3, r3, lsl #2
 800711e:	eb02 0282 	add.w	r2, r2, r2, lsl #2
 8007122:	fbb0 f2f2 	udiv	r2, r0, r2
 8007126:	f3c2 020b 	ubfx	r2, r2, #0, #12
 800712a:	fab2 f282 	clz	r2, r2
 800712e:	0952      	lsrs	r2, r2, #5
 8007130:	e7ea      	b.n	8007108 <I2Cx_Init.part.0+0x18c>
 8007132:	2301      	movs	r3, #1
 8007134:	e7ba      	b.n	80070ac <I2Cx_Init.part.0+0x130>
 8007136:	eb03 0383 	add.w	r3, r3, r3, lsl #2
 800713a:	eb03 0383 	add.w	r3, r3, r3, lsl #2
 800713e:	fbb0 f3f3 	udiv	r3, r0, r3
 8007142:	f443 4340 	orr.w	r3, r3, #49152	; 0xc000
 8007146:	e7b1      	b.n	80070ac <I2Cx_Init.part.0+0x130>
 8007148:	40023800 	.word	0x40023800
 800714c:	200008c4 	.word	0x200008c4
 8007150:	40005400 	.word	0x40005400
 8007154:	000186a0 	.word	0x000186a0
 8007158:	40020400 	.word	0x40020400
 800715c:	e000e100 	.word	0xe000e100
 8007160:	e000ed00 	.word	0xe000ed00
 8007164:	0800f388 	.word	0x0800f388
 8007168:	431bde83 	.word	0x431bde83
 800716c:	10624dd3 	.word	0x10624dd3

08007170 <cs43l22_Play>:
cs43l22_Play():
 8007170:	b570      	push	{r4, r5, r6, lr}
 8007172:	4e83      	ldr	r6, [pc, #524]	; (8007380 <cs43l22_Play+0x210>)
 8007174:	7833      	ldrb	r3, [r6, #0]
 8007176:	2b01      	cmp	r3, #1
 8007178:	b082      	sub	sp, #8
 800717a:	d002      	beq.n	8007182 <cs43l22_Play+0x12>
 800717c:	2000      	movs	r0, #0
 800717e:	b002      	add	sp, #8
 8007180:	bd70      	pop	{r4, r5, r6, pc}
 8007182:	4d80      	ldr	r5, [pc, #512]	; (8007384 <cs43l22_Play+0x214>)
 8007184:	4a80      	ldr	r2, [pc, #512]	; (8007388 <cs43l22_Play+0x218>)
 8007186:	682b      	ldr	r3, [r5, #0]
 8007188:	7811      	ldrb	r1, [r2, #0]
 800718a:	f895 2035 	ldrb.w	r2, [r5, #53]	; 0x35
 800718e:	f88d 1007 	strb.w	r1, [sp, #7]
 8007192:	2a01      	cmp	r2, #1
 8007194:	b2c4      	uxtb	r4, r0
 8007196:	b2d1      	uxtb	r1, r2
 8007198:	d121      	bne.n	80071de <cs43l22_Play+0x6e>
 800719a:	699a      	ldr	r2, [r3, #24]
 800719c:	f012 0202 	ands.w	r2, r2, #2
 80071a0:	d11d      	bne.n	80071de <cs43l22_Play+0x6e>
 80071a2:	f895 0034 	ldrb.w	r0, [r5, #52]	; 0x34
 80071a6:	2801      	cmp	r0, #1
 80071a8:	d019      	beq.n	80071de <cs43l22_Play+0x6e>
 80071aa:	f885 1034 	strb.w	r1, [r5, #52]	; 0x34
 80071ae:	2132      	movs	r1, #50	; 0x32
 80071b0:	f885 1035 	strb.w	r1, [r5, #53]	; 0x35
 80071b4:	f885 2036 	strb.w	r2, [r5, #54]	; 0x36
 80071b8:	681a      	ldr	r2, [r3, #0]
 80071ba:	4974      	ldr	r1, [pc, #464]	; (800738c <cs43l22_Play+0x21c>)
 80071bc:	f442 7280 	orr.w	r2, r2, #256	; 0x100
 80071c0:	601a      	str	r2, [r3, #0]
 80071c2:	6808      	ldr	r0, [r1, #0]
 80071c4:	695a      	ldr	r2, [r3, #20]
 80071c6:	07d2      	lsls	r2, r2, #31
 80071c8:	d45b      	bmi.n	8007282 <cs43l22_Play+0x112>
 80071ca:	680a      	ldr	r2, [r1, #0]
 80071cc:	1a12      	subs	r2, r2, r0
 80071ce:	f5b2 5f80 	cmp.w	r2, #4096	; 0x1000
 80071d2:	d9f7      	bls.n	80071c4 <cs43l22_Play+0x54>
 80071d4:	2201      	movs	r2, #1
 80071d6:	f885 2035 	strb.w	r2, [r5, #53]	; 0x35
 80071da:	f895 2036 	ldrb.w	r2, [r5, #54]	; 0x36
 80071de:	2202      	movs	r2, #2
 80071e0:	f885 2035 	strb.w	r2, [r5, #53]	; 0x35
 80071e4:	6819      	ldr	r1, [r3, #0]
 80071e6:	2200      	movs	r2, #0
 80071e8:	f021 0101 	bic.w	r1, r1, #1
 80071ec:	6019      	str	r1, [r3, #0]
 80071ee:	f885 2036 	strb.w	r2, [r5, #54]	; 0x36
 80071f2:	f885 2035 	strb.w	r2, [r5, #53]	; 0x35
 80071f6:	f885 2034 	strb.w	r2, [r5, #52]	; 0x34
 80071fa:	f895 2035 	ldrb.w	r2, [r5, #53]	; 0x35
 80071fe:	2a00      	cmp	r2, #0
 8007200:	d06e      	beq.n	80072e0 <cs43l22_Play+0x170>
 8007202:	f895 2035 	ldrb.w	r2, [r5, #53]	; 0x35
 8007206:	219e      	movs	r1, #158	; 0x9e
 8007208:	2a01      	cmp	r2, #1
 800720a:	f88d 1007 	strb.w	r1, [sp, #7]
 800720e:	b2d1      	uxtb	r1, r2
 8007210:	d121      	bne.n	8007256 <cs43l22_Play+0xe6>
 8007212:	699a      	ldr	r2, [r3, #24]
 8007214:	f012 0202 	ands.w	r2, r2, #2
 8007218:	d11d      	bne.n	8007256 <cs43l22_Play+0xe6>
 800721a:	f895 0034 	ldrb.w	r0, [r5, #52]	; 0x34
 800721e:	2801      	cmp	r0, #1
 8007220:	d019      	beq.n	8007256 <cs43l22_Play+0xe6>
 8007222:	f885 1034 	strb.w	r1, [r5, #52]	; 0x34
 8007226:	2132      	movs	r1, #50	; 0x32
 8007228:	f885 1035 	strb.w	r1, [r5, #53]	; 0x35
 800722c:	f885 2036 	strb.w	r2, [r5, #54]	; 0x36
 8007230:	681a      	ldr	r2, [r3, #0]
 8007232:	4956      	ldr	r1, [pc, #344]	; (800738c <cs43l22_Play+0x21c>)
 8007234:	f442 7280 	orr.w	r2, r2, #256	; 0x100
 8007238:	601a      	str	r2, [r3, #0]
 800723a:	6808      	ldr	r0, [r1, #0]
 800723c:	695a      	ldr	r2, [r3, #20]
 800723e:	07d2      	lsls	r2, r2, #31
 8007240:	d435      	bmi.n	80072ae <cs43l22_Play+0x13e>
 8007242:	680a      	ldr	r2, [r1, #0]
 8007244:	1a12      	subs	r2, r2, r0
 8007246:	f5b2 5f80 	cmp.w	r2, #4096	; 0x1000
 800724a:	d9f7      	bls.n	800723c <cs43l22_Play+0xcc>
 800724c:	2201      	movs	r2, #1
 800724e:	f885 2035 	strb.w	r2, [r5, #53]	; 0x35
 8007252:	f895 2036 	ldrb.w	r2, [r5, #54]	; 0x36
 8007256:	2202      	movs	r2, #2
 8007258:	f885 2035 	strb.w	r2, [r5, #53]	; 0x35
 800725c:	6819      	ldr	r1, [r3, #0]
 800725e:	2200      	movs	r2, #0
 8007260:	f021 0101 	bic.w	r1, r1, #1
 8007264:	6019      	str	r1, [r3, #0]
 8007266:	f885 2036 	strb.w	r2, [r5, #54]	; 0x36
 800726a:	f885 2035 	strb.w	r2, [r5, #53]	; 0x35
 800726e:	f895 3035 	ldrb.w	r3, [r5, #53]	; 0x35
 8007272:	f885 2034 	strb.w	r2, [r5, #52]	; 0x34
 8007276:	b383      	cbz	r3, 80072da <cs43l22_Play+0x16a>
 8007278:	2300      	movs	r3, #0
 800727a:	2000      	movs	r0, #0
 800727c:	7033      	strb	r3, [r6, #0]
 800727e:	b002      	add	sp, #8
 8007280:	bd70      	pop	{r4, r5, r6, pc}
 8007282:	f004 02fe 	and.w	r2, r4, #254	; 0xfe
 8007286:	611a      	str	r2, [r3, #16]
 8007288:	6808      	ldr	r0, [r1, #0]
 800728a:	695a      	ldr	r2, [r3, #20]
 800728c:	f012 0f02 	tst.w	r2, #2
 8007290:	695a      	ldr	r2, [r3, #20]
 8007292:	d129      	bne.n	80072e8 <cs43l22_Play+0x178>
 8007294:	0552      	lsls	r2, r2, #21
 8007296:	d456      	bmi.n	8007346 <cs43l22_Play+0x1d6>
 8007298:	680a      	ldr	r2, [r1, #0]
 800729a:	1a12      	subs	r2, r2, r0
 800729c:	f5b2 5f80 	cmp.w	r2, #4096	; 0x1000
 80072a0:	d9f3      	bls.n	800728a <cs43l22_Play+0x11a>
 80072a2:	2201      	movs	r2, #1
 80072a4:	f885 2035 	strb.w	r2, [r5, #53]	; 0x35
 80072a8:	f895 2036 	ldrb.w	r2, [r5, #54]	; 0x36
 80072ac:	e795      	b.n	80071da <cs43l22_Play+0x6a>
 80072ae:	f004 04fe 	and.w	r4, r4, #254	; 0xfe
 80072b2:	611c      	str	r4, [r3, #16]
 80072b4:	6808      	ldr	r0, [r1, #0]
 80072b6:	695a      	ldr	r2, [r3, #20]
 80072b8:	f012 0f02 	tst.w	r2, #2
 80072bc:	695a      	ldr	r2, [r3, #20]
 80072be:	d12b      	bne.n	8007318 <cs43l22_Play+0x1a8>
 80072c0:	0554      	lsls	r4, r2, #21
 80072c2:	d44e      	bmi.n	8007362 <cs43l22_Play+0x1f2>
 80072c4:	680a      	ldr	r2, [r1, #0]
 80072c6:	1a12      	subs	r2, r2, r0
 80072c8:	f5b2 5f80 	cmp.w	r2, #4096	; 0x1000
 80072cc:	d9f3      	bls.n	80072b6 <cs43l22_Play+0x146>
 80072ce:	2201      	movs	r2, #1
 80072d0:	f885 2035 	strb.w	r2, [r5, #53]	; 0x35
 80072d4:	f895 2036 	ldrb.w	r2, [r5, #54]	; 0x36
 80072d8:	e7bb      	b.n	8007252 <cs43l22_Play+0xe2>
 80072da:	f7ff fe4f 	bl	8006f7c <I2Cx_Init.part.0>
 80072de:	e7cb      	b.n	8007278 <cs43l22_Play+0x108>
 80072e0:	f7ff fe4c 	bl	8006f7c <I2Cx_Init.part.0>
 80072e4:	682b      	ldr	r3, [r5, #0]
 80072e6:	e78c      	b.n	8007202 <cs43l22_Play+0x92>
 80072e8:	699a      	ldr	r2, [r3, #24]
 80072ea:	6808      	ldr	r0, [r1, #0]
 80072ec:	695a      	ldr	r2, [r3, #20]
 80072ee:	0612      	lsls	r2, r2, #24
 80072f0:	d405      	bmi.n	80072fe <cs43l22_Play+0x18e>
 80072f2:	680a      	ldr	r2, [r1, #0]
 80072f4:	1a12      	subs	r2, r2, r0
 80072f6:	f5b2 5f80 	cmp.w	r2, #4096	; 0x1000
 80072fa:	d9f7      	bls.n	80072ec <cs43l22_Play+0x17c>
 80072fc:	e76a      	b.n	80071d4 <cs43l22_Play+0x64>
 80072fe:	2204      	movs	r2, #4
 8007300:	611a      	str	r2, [r3, #16]
 8007302:	f44f 5180 	mov.w	r1, #4096	; 0x1000
 8007306:	f10d 0007 	add.w	r0, sp, #7
 800730a:	f005 f957 	bl	800c5bc <HAL_I2C_Mem_Write.part.0.constprop.0>
 800730e:	682b      	ldr	r3, [r5, #0]
 8007310:	2800      	cmp	r0, #0
 8007312:	f43f af76 	beq.w	8007202 <cs43l22_Play+0x92>
 8007316:	e762      	b.n	80071de <cs43l22_Play+0x6e>
 8007318:	699a      	ldr	r2, [r3, #24]
 800731a:	6808      	ldr	r0, [r1, #0]
 800731c:	695a      	ldr	r2, [r3, #20]
 800731e:	0612      	lsls	r2, r2, #24
 8007320:	d405      	bmi.n	800732e <cs43l22_Play+0x1be>
 8007322:	680a      	ldr	r2, [r1, #0]
 8007324:	1a12      	subs	r2, r2, r0
 8007326:	f5b2 5f80 	cmp.w	r2, #4096	; 0x1000
 800732a:	d9f7      	bls.n	800731c <cs43l22_Play+0x1ac>
 800732c:	e78e      	b.n	800724c <cs43l22_Play+0xdc>
 800732e:	2202      	movs	r2, #2
 8007330:	611a      	str	r2, [r3, #16]
 8007332:	f44f 5180 	mov.w	r1, #4096	; 0x1000
 8007336:	f10d 0007 	add.w	r0, sp, #7
 800733a:	f005 f93f 	bl	800c5bc <HAL_I2C_Mem_Write.part.0.constprop.0>
 800733e:	2800      	cmp	r0, #0
 8007340:	d09a      	beq.n	8007278 <cs43l22_Play+0x108>
 8007342:	682b      	ldr	r3, [r5, #0]
 8007344:	e787      	b.n	8007256 <cs43l22_Play+0xe6>
 8007346:	681a      	ldr	r2, [r3, #0]
 8007348:	f46f 6180 	mvn.w	r1, #1024	; 0x400
 800734c:	f442 7200 	orr.w	r2, r2, #512	; 0x200
 8007350:	601a      	str	r2, [r3, #0]
 8007352:	6159      	str	r1, [r3, #20]
 8007354:	2201      	movs	r2, #1
 8007356:	2104      	movs	r1, #4
 8007358:	f885 1036 	strb.w	r1, [r5, #54]	; 0x36
 800735c:	f885 2035 	strb.w	r2, [r5, #53]	; 0x35
 8007360:	e7a2      	b.n	80072a8 <cs43l22_Play+0x138>
 8007362:	681a      	ldr	r2, [r3, #0]
 8007364:	f442 7200 	orr.w	r2, r2, #512	; 0x200
 8007368:	601a      	str	r2, [r3, #0]
 800736a:	f46f 6080 	mvn.w	r0, #1024	; 0x400
 800736e:	2104      	movs	r1, #4
 8007370:	2201      	movs	r2, #1
 8007372:	6158      	str	r0, [r3, #20]
 8007374:	f885 1036 	strb.w	r1, [r5, #54]	; 0x36
 8007378:	f885 2035 	strb.w	r2, [r5, #53]	; 0x35
 800737c:	e7aa      	b.n	80072d4 <cs43l22_Play+0x164>
 800737e:	bf00      	nop
 8007380:	20000000 	.word	0x20000000
 8007384:	200008c4 	.word	0x200008c4
 8007388:	2000094c 	.word	0x2000094c
 800738c:	2001f720 	.word	0x2001f720

08007390 <cs43l22_Pause>:
cs43l22_Pause():
 8007390:	b530      	push	{r4, r5, lr}
 8007392:	4c80      	ldr	r4, [pc, #512]	; (8007594 <cs43l22_Pause+0x204>)
 8007394:	f894 2035 	ldrb.w	r2, [r4, #53]	; 0x35
 8007398:	b083      	sub	sp, #12
 800739a:	23ff      	movs	r3, #255	; 0xff
 800739c:	2a01      	cmp	r2, #1
 800739e:	f88d 3007 	strb.w	r3, [sp, #7]
 80073a2:	b2c5      	uxtb	r5, r0
 80073a4:	6823      	ldr	r3, [r4, #0]
 80073a6:	d132      	bne.n	800740e <cs43l22_Pause+0x7e>
 80073a8:	b2d1      	uxtb	r1, r2
 80073aa:	699a      	ldr	r2, [r3, #24]
 80073ac:	f012 0202 	ands.w	r2, r2, #2
 80073b0:	d12d      	bne.n	800740e <cs43l22_Pause+0x7e>
 80073b2:	f894 0034 	ldrb.w	r0, [r4, #52]	; 0x34
 80073b6:	2801      	cmp	r0, #1
 80073b8:	d029      	beq.n	800740e <cs43l22_Pause+0x7e>
 80073ba:	2032      	movs	r0, #50	; 0x32
 80073bc:	f884 0035 	strb.w	r0, [r4, #53]	; 0x35
 80073c0:	f884 1034 	strb.w	r1, [r4, #52]	; 0x34
 80073c4:	f884 2036 	strb.w	r2, [r4, #54]	; 0x36
 80073c8:	681a      	ldr	r2, [r3, #0]
 80073ca:	4973      	ldr	r1, [pc, #460]	; (8007598 <cs43l22_Pause+0x208>)
 80073cc:	f442 7280 	orr.w	r2, r2, #256	; 0x100
 80073d0:	601a      	str	r2, [r3, #0]
 80073d2:	6808      	ldr	r0, [r1, #0]
 80073d4:	695a      	ldr	r2, [r3, #20]
 80073d6:	07d2      	lsls	r2, r2, #31
 80073d8:	d46b      	bmi.n	80074b2 <cs43l22_Pause+0x122>
 80073da:	680a      	ldr	r2, [r1, #0]
 80073dc:	1a12      	subs	r2, r2, r0
 80073de:	f5b2 5f80 	cmp.w	r2, #4096	; 0x1000
 80073e2:	d9f7      	bls.n	80073d4 <cs43l22_Pause+0x44>
 80073e4:	2201      	movs	r2, #1
 80073e6:	f884 2035 	strb.w	r2, [r4, #53]	; 0x35
 80073ea:	e00e      	b.n	800740a <cs43l22_Pause+0x7a>
 80073ec:	681a      	ldr	r2, [r3, #0]
 80073ee:	f442 7200 	orr.w	r2, r2, #512	; 0x200
 80073f2:	601a      	str	r2, [r3, #0]
 80073f4:	f46f 6080 	mvn.w	r0, #1024	; 0x400
 80073f8:	2104      	movs	r1, #4
 80073fa:	2201      	movs	r2, #1
 80073fc:	6158      	str	r0, [r3, #20]
 80073fe:	f884 1036 	strb.w	r1, [r4, #54]	; 0x36
 8007402:	f884 2035 	strb.w	r2, [r4, #53]	; 0x35
 8007406:	f894 2036 	ldrb.w	r2, [r4, #54]	; 0x36
 800740a:	f894 2036 	ldrb.w	r2, [r4, #54]	; 0x36
 800740e:	2202      	movs	r2, #2
 8007410:	f884 2035 	strb.w	r2, [r4, #53]	; 0x35
 8007414:	6819      	ldr	r1, [r3, #0]
 8007416:	2200      	movs	r2, #0
 8007418:	f021 0101 	bic.w	r1, r1, #1
 800741c:	6019      	str	r1, [r3, #0]
 800741e:	f884 2036 	strb.w	r2, [r4, #54]	; 0x36
 8007422:	f884 2035 	strb.w	r2, [r4, #53]	; 0x35
 8007426:	f894 1035 	ldrb.w	r1, [r4, #53]	; 0x35
 800742a:	f884 2034 	strb.w	r2, [r4, #52]	; 0x34
 800742e:	2900      	cmp	r1, #0
 8007430:	f000 80a6 	beq.w	8007580 <cs43l22_Pause+0x1f0>
 8007434:	f894 2035 	ldrb.w	r2, [r4, #53]	; 0x35
 8007438:	2101      	movs	r1, #1
 800743a:	2a01      	cmp	r2, #1
 800743c:	f88d 1007 	strb.w	r1, [sp, #7]
 8007440:	b2d1      	uxtb	r1, r2
 8007442:	d121      	bne.n	8007488 <cs43l22_Pause+0xf8>
 8007444:	699a      	ldr	r2, [r3, #24]
 8007446:	f012 0202 	ands.w	r2, r2, #2
 800744a:	d11d      	bne.n	8007488 <cs43l22_Pause+0xf8>
 800744c:	f894 0034 	ldrb.w	r0, [r4, #52]	; 0x34
 8007450:	2801      	cmp	r0, #1
 8007452:	d019      	beq.n	8007488 <cs43l22_Pause+0xf8>
 8007454:	2032      	movs	r0, #50	; 0x32
 8007456:	f884 0035 	strb.w	r0, [r4, #53]	; 0x35
 800745a:	f884 1034 	strb.w	r1, [r4, #52]	; 0x34
 800745e:	f884 2036 	strb.w	r2, [r4, #54]	; 0x36
 8007462:	681a      	ldr	r2, [r3, #0]
 8007464:	494c      	ldr	r1, [pc, #304]	; (8007598 <cs43l22_Pause+0x208>)
 8007466:	f442 7280 	orr.w	r2, r2, #256	; 0x100
 800746a:	601a      	str	r2, [r3, #0]
 800746c:	6808      	ldr	r0, [r1, #0]
 800746e:	695a      	ldr	r2, [r3, #20]
 8007470:	07d2      	lsls	r2, r2, #31
 8007472:	d432      	bmi.n	80074da <cs43l22_Pause+0x14a>
 8007474:	680a      	ldr	r2, [r1, #0]
 8007476:	1a12      	subs	r2, r2, r0
 8007478:	f5b2 5f80 	cmp.w	r2, #4096	; 0x1000
 800747c:	d9f7      	bls.n	800746e <cs43l22_Pause+0xde>
 800747e:	2201      	movs	r2, #1
 8007480:	f884 2035 	strb.w	r2, [r4, #53]	; 0x35
 8007484:	f894 2036 	ldrb.w	r2, [r4, #54]	; 0x36
 8007488:	2202      	movs	r2, #2
 800748a:	f884 2035 	strb.w	r2, [r4, #53]	; 0x35
 800748e:	6819      	ldr	r1, [r3, #0]
 8007490:	2200      	movs	r2, #0
 8007492:	f021 0101 	bic.w	r1, r1, #1
 8007496:	6019      	str	r1, [r3, #0]
 8007498:	f884 2036 	strb.w	r2, [r4, #54]	; 0x36
 800749c:	f884 2035 	strb.w	r2, [r4, #53]	; 0x35
 80074a0:	f894 3035 	ldrb.w	r3, [r4, #53]	; 0x35
 80074a4:	f884 2034 	strb.w	r2, [r4, #52]	; 0x34
 80074a8:	2b00      	cmp	r3, #0
 80074aa:	d06d      	beq.n	8007588 <cs43l22_Pause+0x1f8>
 80074ac:	2000      	movs	r0, #0
 80074ae:	b003      	add	sp, #12
 80074b0:	bd30      	pop	{r4, r5, pc}
 80074b2:	f005 02fe 	and.w	r2, r5, #254	; 0xfe
 80074b6:	611a      	str	r2, [r3, #16]
 80074b8:	6808      	ldr	r0, [r1, #0]
 80074ba:	695a      	ldr	r2, [r3, #20]
 80074bc:	f012 0f02 	tst.w	r2, #2
 80074c0:	695a      	ldr	r2, [r3, #20]
 80074c2:	d135      	bne.n	8007530 <cs43l22_Pause+0x1a0>
 80074c4:	0552      	lsls	r2, r2, #21
 80074c6:	d491      	bmi.n	80073ec <cs43l22_Pause+0x5c>
 80074c8:	680a      	ldr	r2, [r1, #0]
 80074ca:	1a12      	subs	r2, r2, r0
 80074cc:	f5b2 5f80 	cmp.w	r2, #4096	; 0x1000
 80074d0:	d9f3      	bls.n	80074ba <cs43l22_Pause+0x12a>
 80074d2:	2201      	movs	r2, #1
 80074d4:	f884 2035 	strb.w	r2, [r4, #53]	; 0x35
 80074d8:	e795      	b.n	8007406 <cs43l22_Pause+0x76>
 80074da:	f005 05fe 	and.w	r5, r5, #254	; 0xfe
 80074de:	611d      	str	r5, [r3, #16]
 80074e0:	6808      	ldr	r0, [r1, #0]
 80074e2:	695a      	ldr	r2, [r3, #20]
 80074e4:	f012 0f02 	tst.w	r2, #2
 80074e8:	695a      	ldr	r2, [r3, #20]
 80074ea:	d10a      	bne.n	8007502 <cs43l22_Pause+0x172>
 80074ec:	0555      	lsls	r5, r2, #21
 80074ee:	d437      	bmi.n	8007560 <cs43l22_Pause+0x1d0>
 80074f0:	680a      	ldr	r2, [r1, #0]
 80074f2:	1a12      	subs	r2, r2, r0
 80074f4:	f5b2 5f80 	cmp.w	r2, #4096	; 0x1000
 80074f8:	d9f3      	bls.n	80074e2 <cs43l22_Pause+0x152>
 80074fa:	2201      	movs	r2, #1
 80074fc:	f884 2035 	strb.w	r2, [r4, #53]	; 0x35
 8007500:	e03b      	b.n	800757a <cs43l22_Pause+0x1ea>
 8007502:	699a      	ldr	r2, [r3, #24]
 8007504:	6808      	ldr	r0, [r1, #0]
 8007506:	695a      	ldr	r2, [r3, #20]
 8007508:	0612      	lsls	r2, r2, #24
 800750a:	d405      	bmi.n	8007518 <cs43l22_Pause+0x188>
 800750c:	680a      	ldr	r2, [r1, #0]
 800750e:	1a12      	subs	r2, r2, r0
 8007510:	f5b2 5f80 	cmp.w	r2, #4096	; 0x1000
 8007514:	d9f7      	bls.n	8007506 <cs43l22_Pause+0x176>
 8007516:	e7b2      	b.n	800747e <cs43l22_Pause+0xee>
 8007518:	2202      	movs	r2, #2
 800751a:	611a      	str	r2, [r3, #16]
 800751c:	f44f 5180 	mov.w	r1, #4096	; 0x1000
 8007520:	f10d 0007 	add.w	r0, sp, #7
 8007524:	f005 f84a 	bl	800c5bc <HAL_I2C_Mem_Write.part.0.constprop.0>
 8007528:	2800      	cmp	r0, #0
 800752a:	d0bf      	beq.n	80074ac <cs43l22_Pause+0x11c>
 800752c:	6823      	ldr	r3, [r4, #0]
 800752e:	e7ab      	b.n	8007488 <cs43l22_Pause+0xf8>
 8007530:	699a      	ldr	r2, [r3, #24]
 8007532:	6808      	ldr	r0, [r1, #0]
 8007534:	695a      	ldr	r2, [r3, #20]
 8007536:	0612      	lsls	r2, r2, #24
 8007538:	d405      	bmi.n	8007546 <cs43l22_Pause+0x1b6>
 800753a:	680a      	ldr	r2, [r1, #0]
 800753c:	1a12      	subs	r2, r2, r0
 800753e:	f5b2 5f80 	cmp.w	r2, #4096	; 0x1000
 8007542:	d9f7      	bls.n	8007534 <cs43l22_Pause+0x1a4>
 8007544:	e74e      	b.n	80073e4 <cs43l22_Pause+0x54>
 8007546:	2204      	movs	r2, #4
 8007548:	611a      	str	r2, [r3, #16]
 800754a:	f44f 5180 	mov.w	r1, #4096	; 0x1000
 800754e:	f10d 0007 	add.w	r0, sp, #7
 8007552:	f005 f833 	bl	800c5bc <HAL_I2C_Mem_Write.part.0.constprop.0>
 8007556:	6823      	ldr	r3, [r4, #0]
 8007558:	2800      	cmp	r0, #0
 800755a:	f43f af6b 	beq.w	8007434 <cs43l22_Pause+0xa4>
 800755e:	e756      	b.n	800740e <cs43l22_Pause+0x7e>
 8007560:	681a      	ldr	r2, [r3, #0]
 8007562:	f46f 6580 	mvn.w	r5, #1024	; 0x400
 8007566:	f442 7200 	orr.w	r2, r2, #512	; 0x200
 800756a:	2004      	movs	r0, #4
 800756c:	2101      	movs	r1, #1
 800756e:	601a      	str	r2, [r3, #0]
 8007570:	615d      	str	r5, [r3, #20]
 8007572:	f884 0036 	strb.w	r0, [r4, #54]	; 0x36
 8007576:	f884 1035 	strb.w	r1, [r4, #53]	; 0x35
 800757a:	f894 2036 	ldrb.w	r2, [r4, #54]	; 0x36
 800757e:	e781      	b.n	8007484 <cs43l22_Pause+0xf4>
 8007580:	f7ff fcfc 	bl	8006f7c <I2Cx_Init.part.0>
 8007584:	6823      	ldr	r3, [r4, #0]
 8007586:	e755      	b.n	8007434 <cs43l22_Pause+0xa4>
 8007588:	f7ff fcf8 	bl	8006f7c <I2Cx_Init.part.0>
 800758c:	2000      	movs	r0, #0
 800758e:	b003      	add	sp, #12
 8007590:	bd30      	pop	{r4, r5, pc}
 8007592:	bf00      	nop
 8007594:	200008c4 	.word	0x200008c4
 8007598:	2001f720 	.word	0x2001f720

0800759c <cs43l22_Resume>:
cs43l22_Resume():
 800759c:	b570      	push	{r4, r5, r6, lr}
 800759e:	b082      	sub	sp, #8
 80075a0:	4ca9      	ldr	r4, [pc, #676]	; (8007848 <cs43l22_Resume+0x2ac>)
 80075a2:	4eaa      	ldr	r6, [pc, #680]	; (800784c <cs43l22_Resume+0x2b0>)
 80075a4:	2300      	movs	r3, #0
 80075a6:	9301      	str	r3, [sp, #4]
 80075a8:	7832      	ldrb	r2, [r6, #0]
 80075aa:	f894 3035 	ldrb.w	r3, [r4, #53]	; 0x35
 80075ae:	f88d 2003 	strb.w	r2, [sp, #3]
 80075b2:	2b01      	cmp	r3, #1
 80075b4:	6822      	ldr	r2, [r4, #0]
 80075b6:	b2c5      	uxtb	r5, r0
 80075b8:	d133      	bne.n	8007622 <cs43l22_Resume+0x86>
 80075ba:	b2d9      	uxtb	r1, r3
 80075bc:	6993      	ldr	r3, [r2, #24]
 80075be:	f013 0302 	ands.w	r3, r3, #2
 80075c2:	d12e      	bne.n	8007622 <cs43l22_Resume+0x86>
 80075c4:	f894 0034 	ldrb.w	r0, [r4, #52]	; 0x34
 80075c8:	2801      	cmp	r0, #1
 80075ca:	d02a      	beq.n	8007622 <cs43l22_Resume+0x86>
 80075cc:	f884 1034 	strb.w	r1, [r4, #52]	; 0x34
 80075d0:	2132      	movs	r1, #50	; 0x32
 80075d2:	f884 1035 	strb.w	r1, [r4, #53]	; 0x35
 80075d6:	f884 3036 	strb.w	r3, [r4, #54]	; 0x36
 80075da:	6813      	ldr	r3, [r2, #0]
 80075dc:	499c      	ldr	r1, [pc, #624]	; (8007850 <cs43l22_Resume+0x2b4>)
 80075de:	f443 7380 	orr.w	r3, r3, #256	; 0x100
 80075e2:	6013      	str	r3, [r2, #0]
 80075e4:	6808      	ldr	r0, [r1, #0]
 80075e6:	6953      	ldr	r3, [r2, #20]
 80075e8:	07db      	lsls	r3, r3, #31
 80075ea:	f100 80b5 	bmi.w	8007758 <cs43l22_Resume+0x1bc>
 80075ee:	680b      	ldr	r3, [r1, #0]
 80075f0:	1a1b      	subs	r3, r3, r0
 80075f2:	f5b3 5f80 	cmp.w	r3, #4096	; 0x1000
 80075f6:	d9f6      	bls.n	80075e6 <cs43l22_Resume+0x4a>
 80075f8:	2301      	movs	r3, #1
 80075fa:	f884 3035 	strb.w	r3, [r4, #53]	; 0x35
 80075fe:	e00e      	b.n	800761e <cs43l22_Resume+0x82>
 8007600:	6813      	ldr	r3, [r2, #0]
 8007602:	f46f 6180 	mvn.w	r1, #1024	; 0x400
 8007606:	f443 7300 	orr.w	r3, r3, #512	; 0x200
 800760a:	6013      	str	r3, [r2, #0]
 800760c:	6151      	str	r1, [r2, #20]
 800760e:	2301      	movs	r3, #1
 8007610:	2104      	movs	r1, #4
 8007612:	f884 1036 	strb.w	r1, [r4, #54]	; 0x36
 8007616:	f884 3035 	strb.w	r3, [r4, #53]	; 0x35
 800761a:	f894 3036 	ldrb.w	r3, [r4, #54]	; 0x36
 800761e:	f894 3036 	ldrb.w	r3, [r4, #54]	; 0x36
 8007622:	2302      	movs	r3, #2
 8007624:	f884 3035 	strb.w	r3, [r4, #53]	; 0x35
 8007628:	6811      	ldr	r1, [r2, #0]
 800762a:	2300      	movs	r3, #0
 800762c:	f021 0101 	bic.w	r1, r1, #1
 8007630:	6011      	str	r1, [r2, #0]
 8007632:	f884 3036 	strb.w	r3, [r4, #54]	; 0x36
 8007636:	f884 3035 	strb.w	r3, [r4, #53]	; 0x35
 800763a:	f884 3034 	strb.w	r3, [r4, #52]	; 0x34
 800763e:	f894 3035 	ldrb.w	r3, [r4, #53]	; 0x35
 8007642:	2b00      	cmp	r3, #0
 8007644:	f000 813c 	beq.w	80078c0 <cs43l22_Resume+0x324>
 8007648:	2300      	movs	r3, #0
 800764a:	9301      	str	r3, [sp, #4]
 800764c:	9b01      	ldr	r3, [sp, #4]
 800764e:	2bfe      	cmp	r3, #254	; 0xfe
 8007650:	d805      	bhi.n	800765e <cs43l22_Resume+0xc2>
 8007652:	9b01      	ldr	r3, [sp, #4]
 8007654:	3301      	adds	r3, #1
 8007656:	9301      	str	r3, [sp, #4]
 8007658:	9b01      	ldr	r3, [sp, #4]
 800765a:	2bfe      	cmp	r3, #254	; 0xfe
 800765c:	d9f9      	bls.n	8007652 <cs43l22_Resume+0xb6>
 800765e:	7831      	ldrb	r1, [r6, #0]
 8007660:	f894 3035 	ldrb.w	r3, [r4, #53]	; 0x35
 8007664:	f88d 1003 	strb.w	r1, [sp, #3]
 8007668:	2b01      	cmp	r3, #1
 800766a:	b2d9      	uxtb	r1, r3
 800766c:	d121      	bne.n	80076b2 <cs43l22_Resume+0x116>
 800766e:	6993      	ldr	r3, [r2, #24]
 8007670:	f013 0302 	ands.w	r3, r3, #2
 8007674:	d11d      	bne.n	80076b2 <cs43l22_Resume+0x116>
 8007676:	f894 0034 	ldrb.w	r0, [r4, #52]	; 0x34
 800767a:	2801      	cmp	r0, #1
 800767c:	d019      	beq.n	80076b2 <cs43l22_Resume+0x116>
 800767e:	2032      	movs	r0, #50	; 0x32
 8007680:	f884 0035 	strb.w	r0, [r4, #53]	; 0x35
 8007684:	f884 1034 	strb.w	r1, [r4, #52]	; 0x34
 8007688:	f884 3036 	strb.w	r3, [r4, #54]	; 0x36
 800768c:	6813      	ldr	r3, [r2, #0]
 800768e:	4970      	ldr	r1, [pc, #448]	; (8007850 <cs43l22_Resume+0x2b4>)
 8007690:	f443 7380 	orr.w	r3, r3, #256	; 0x100
 8007694:	6013      	str	r3, [r2, #0]
 8007696:	6808      	ldr	r0, [r1, #0]
 8007698:	6953      	ldr	r3, [r2, #20]
 800769a:	07db      	lsls	r3, r3, #31
 800769c:	d471      	bmi.n	8007782 <cs43l22_Resume+0x1e6>
 800769e:	680b      	ldr	r3, [r1, #0]
 80076a0:	1a1b      	subs	r3, r3, r0
 80076a2:	f5b3 5f80 	cmp.w	r3, #4096	; 0x1000
 80076a6:	d9f7      	bls.n	8007698 <cs43l22_Resume+0xfc>
 80076a8:	2301      	movs	r3, #1
 80076aa:	f884 3035 	strb.w	r3, [r4, #53]	; 0x35
 80076ae:	f894 3036 	ldrb.w	r3, [r4, #54]	; 0x36
 80076b2:	2302      	movs	r3, #2
 80076b4:	f884 3035 	strb.w	r3, [r4, #53]	; 0x35
 80076b8:	6811      	ldr	r1, [r2, #0]
 80076ba:	2300      	movs	r3, #0
 80076bc:	f021 0101 	bic.w	r1, r1, #1
 80076c0:	6011      	str	r1, [r2, #0]
 80076c2:	f884 3036 	strb.w	r3, [r4, #54]	; 0x36
 80076c6:	f884 3035 	strb.w	r3, [r4, #53]	; 0x35
 80076ca:	f894 1035 	ldrb.w	r1, [r4, #53]	; 0x35
 80076ce:	f884 3034 	strb.w	r3, [r4, #52]	; 0x34
 80076d2:	2900      	cmp	r1, #0
 80076d4:	f000 80eb 	beq.w	80078ae <cs43l22_Resume+0x312>
 80076d8:	f894 3035 	ldrb.w	r3, [r4, #53]	; 0x35
 80076dc:	219e      	movs	r1, #158	; 0x9e
 80076de:	2b01      	cmp	r3, #1
 80076e0:	f88d 1003 	strb.w	r1, [sp, #3]
 80076e4:	b2d9      	uxtb	r1, r3
 80076e6:	d121      	bne.n	800772c <cs43l22_Resume+0x190>
 80076e8:	6993      	ldr	r3, [r2, #24]
 80076ea:	f013 0302 	ands.w	r3, r3, #2
 80076ee:	d11d      	bne.n	800772c <cs43l22_Resume+0x190>
 80076f0:	f894 0034 	ldrb.w	r0, [r4, #52]	; 0x34
 80076f4:	2801      	cmp	r0, #1
 80076f6:	d019      	beq.n	800772c <cs43l22_Resume+0x190>
 80076f8:	2032      	movs	r0, #50	; 0x32
 80076fa:	f884 0035 	strb.w	r0, [r4, #53]	; 0x35
 80076fe:	f884 1034 	strb.w	r1, [r4, #52]	; 0x34
 8007702:	f884 3036 	strb.w	r3, [r4, #54]	; 0x36
 8007706:	6813      	ldr	r3, [r2, #0]
 8007708:	4951      	ldr	r1, [pc, #324]	; (8007850 <cs43l22_Resume+0x2b4>)
 800770a:	f443 7380 	orr.w	r3, r3, #256	; 0x100
 800770e:	6013      	str	r3, [r2, #0]
 8007710:	6808      	ldr	r0, [r1, #0]
 8007712:	6953      	ldr	r3, [r2, #20]
 8007714:	07de      	lsls	r6, r3, #31
 8007716:	d448      	bmi.n	80077aa <cs43l22_Resume+0x20e>
 8007718:	680b      	ldr	r3, [r1, #0]
 800771a:	1a1b      	subs	r3, r3, r0
 800771c:	f5b3 5f80 	cmp.w	r3, #4096	; 0x1000
 8007720:	d9f7      	bls.n	8007712 <cs43l22_Resume+0x176>
 8007722:	2301      	movs	r3, #1
 8007724:	f884 3035 	strb.w	r3, [r4, #53]	; 0x35
 8007728:	f894 3036 	ldrb.w	r3, [r4, #54]	; 0x36
 800772c:	2302      	movs	r3, #2
 800772e:	f884 3035 	strb.w	r3, [r4, #53]	; 0x35
 8007732:	6811      	ldr	r1, [r2, #0]
 8007734:	2300      	movs	r3, #0
 8007736:	f021 0101 	bic.w	r1, r1, #1
 800773a:	6011      	str	r1, [r2, #0]
 800773c:	f884 3036 	strb.w	r3, [r4, #54]	; 0x36
 8007740:	f884 3035 	strb.w	r3, [r4, #53]	; 0x35
 8007744:	f894 2035 	ldrb.w	r2, [r4, #53]	; 0x35
 8007748:	f884 3034 	strb.w	r3, [r4, #52]	; 0x34
 800774c:	2a00      	cmp	r2, #0
 800774e:	f000 80b2 	beq.w	80078b6 <cs43l22_Resume+0x31a>
 8007752:	2000      	movs	r0, #0
 8007754:	b002      	add	sp, #8
 8007756:	bd70      	pop	{r4, r5, r6, pc}
 8007758:	f005 03fe 	and.w	r3, r5, #254	; 0xfe
 800775c:	6113      	str	r3, [r2, #16]
 800775e:	6808      	ldr	r0, [r1, #0]
 8007760:	6953      	ldr	r3, [r2, #20]
 8007762:	f013 0f02 	tst.w	r3, #2
 8007766:	6953      	ldr	r3, [r2, #20]
 8007768:	d162      	bne.n	8007830 <cs43l22_Resume+0x294>
 800776a:	055b      	lsls	r3, r3, #21
 800776c:	f53f af48 	bmi.w	8007600 <cs43l22_Resume+0x64>
 8007770:	680b      	ldr	r3, [r1, #0]
 8007772:	1a1b      	subs	r3, r3, r0
 8007774:	f5b3 5f80 	cmp.w	r3, #4096	; 0x1000
 8007778:	d9f2      	bls.n	8007760 <cs43l22_Resume+0x1c4>
 800777a:	2301      	movs	r3, #1
 800777c:	f884 3035 	strb.w	r3, [r4, #53]	; 0x35
 8007780:	e74b      	b.n	800761a <cs43l22_Resume+0x7e>
 8007782:	f005 03fe 	and.w	r3, r5, #254	; 0xfe
 8007786:	6113      	str	r3, [r2, #16]
 8007788:	6808      	ldr	r0, [r1, #0]
 800778a:	6953      	ldr	r3, [r2, #20]
 800778c:	f013 0f02 	tst.w	r3, #2
 8007790:	6953      	ldr	r3, [r2, #20]
 8007792:	d11e      	bne.n	80077d2 <cs43l22_Resume+0x236>
 8007794:	055e      	lsls	r6, r3, #21
 8007796:	d46a      	bmi.n	800786e <cs43l22_Resume+0x2d2>
 8007798:	680b      	ldr	r3, [r1, #0]
 800779a:	1a1b      	subs	r3, r3, r0
 800779c:	f5b3 5f80 	cmp.w	r3, #4096	; 0x1000
 80077a0:	d9f3      	bls.n	800778a <cs43l22_Resume+0x1ee>
 80077a2:	2301      	movs	r3, #1
 80077a4:	f884 3035 	strb.w	r3, [r4, #53]	; 0x35
 80077a8:	e06e      	b.n	8007888 <cs43l22_Resume+0x2ec>
 80077aa:	f005 05fe 	and.w	r5, r5, #254	; 0xfe
 80077ae:	6115      	str	r5, [r2, #16]
 80077b0:	6808      	ldr	r0, [r1, #0]
 80077b2:	6953      	ldr	r3, [r2, #20]
 80077b4:	f013 0f02 	tst.w	r3, #2
 80077b8:	6953      	ldr	r3, [r2, #20]
 80077ba:	d122      	bne.n	8007802 <cs43l22_Resume+0x266>
 80077bc:	055d      	lsls	r5, r3, #21
 80077be:	d466      	bmi.n	800788e <cs43l22_Resume+0x2f2>
 80077c0:	680b      	ldr	r3, [r1, #0]
 80077c2:	1a1b      	subs	r3, r3, r0
 80077c4:	f5b3 5f80 	cmp.w	r3, #4096	; 0x1000
 80077c8:	d9f3      	bls.n	80077b2 <cs43l22_Resume+0x216>
 80077ca:	2301      	movs	r3, #1
 80077cc:	f884 3035 	strb.w	r3, [r4, #53]	; 0x35
 80077d0:	e06a      	b.n	80078a8 <cs43l22_Resume+0x30c>
 80077d2:	6993      	ldr	r3, [r2, #24]
 80077d4:	6808      	ldr	r0, [r1, #0]
 80077d6:	6953      	ldr	r3, [r2, #20]
 80077d8:	061b      	lsls	r3, r3, #24
 80077da:	d405      	bmi.n	80077e8 <cs43l22_Resume+0x24c>
 80077dc:	680b      	ldr	r3, [r1, #0]
 80077de:	1a1b      	subs	r3, r3, r0
 80077e0:	f5b3 5f80 	cmp.w	r3, #4096	; 0x1000
 80077e4:	d9f7      	bls.n	80077d6 <cs43l22_Resume+0x23a>
 80077e6:	e75f      	b.n	80076a8 <cs43l22_Resume+0x10c>
 80077e8:	2304      	movs	r3, #4
 80077ea:	6113      	str	r3, [r2, #16]
 80077ec:	f44f 5180 	mov.w	r1, #4096	; 0x1000
 80077f0:	f10d 0003 	add.w	r0, sp, #3
 80077f4:	f004 fee2 	bl	800c5bc <HAL_I2C_Mem_Write.part.0.constprop.0>
 80077f8:	6822      	ldr	r2, [r4, #0]
 80077fa:	2800      	cmp	r0, #0
 80077fc:	f43f af6c 	beq.w	80076d8 <cs43l22_Resume+0x13c>
 8007800:	e757      	b.n	80076b2 <cs43l22_Resume+0x116>
 8007802:	6993      	ldr	r3, [r2, #24]
 8007804:	6808      	ldr	r0, [r1, #0]
 8007806:	6953      	ldr	r3, [r2, #20]
 8007808:	061b      	lsls	r3, r3, #24
 800780a:	d405      	bmi.n	8007818 <cs43l22_Resume+0x27c>
 800780c:	680b      	ldr	r3, [r1, #0]
 800780e:	1a1b      	subs	r3, r3, r0
 8007810:	f5b3 5f80 	cmp.w	r3, #4096	; 0x1000
 8007814:	d9f7      	bls.n	8007806 <cs43l22_Resume+0x26a>
 8007816:	e784      	b.n	8007722 <cs43l22_Resume+0x186>
 8007818:	2302      	movs	r3, #2
 800781a:	6113      	str	r3, [r2, #16]
 800781c:	f44f 5180 	mov.w	r1, #4096	; 0x1000
 8007820:	f10d 0003 	add.w	r0, sp, #3
 8007824:	f004 feca 	bl	800c5bc <HAL_I2C_Mem_Write.part.0.constprop.0>
 8007828:	2800      	cmp	r0, #0
 800782a:	d092      	beq.n	8007752 <cs43l22_Resume+0x1b6>
 800782c:	6822      	ldr	r2, [r4, #0]
 800782e:	e77d      	b.n	800772c <cs43l22_Resume+0x190>
 8007830:	6993      	ldr	r3, [r2, #24]
 8007832:	6808      	ldr	r0, [r1, #0]
 8007834:	6953      	ldr	r3, [r2, #20]
 8007836:	061b      	lsls	r3, r3, #24
 8007838:	d40c      	bmi.n	8007854 <cs43l22_Resume+0x2b8>
 800783a:	680b      	ldr	r3, [r1, #0]
 800783c:	1a1b      	subs	r3, r3, r0
 800783e:	f5b3 5f80 	cmp.w	r3, #4096	; 0x1000
 8007842:	d9f7      	bls.n	8007834 <cs43l22_Resume+0x298>
 8007844:	e6d8      	b.n	80075f8 <cs43l22_Resume+0x5c>
 8007846:	bf00      	nop
 8007848:	200008c4 	.word	0x200008c4
 800784c:	2000094c 	.word	0x2000094c
 8007850:	2001f720 	.word	0x2001f720
 8007854:	2304      	movs	r3, #4
 8007856:	6113      	str	r3, [r2, #16]
 8007858:	f44f 5180 	mov.w	r1, #4096	; 0x1000
 800785c:	f10d 0003 	add.w	r0, sp, #3
 8007860:	f004 feac 	bl	800c5bc <HAL_I2C_Mem_Write.part.0.constprop.0>
 8007864:	6822      	ldr	r2, [r4, #0]
 8007866:	2800      	cmp	r0, #0
 8007868:	f43f aeee 	beq.w	8007648 <cs43l22_Resume+0xac>
 800786c:	e6d9      	b.n	8007622 <cs43l22_Resume+0x86>
 800786e:	6813      	ldr	r3, [r2, #0]
 8007870:	f443 7300 	orr.w	r3, r3, #512	; 0x200
 8007874:	6013      	str	r3, [r2, #0]
 8007876:	f46f 6080 	mvn.w	r0, #1024	; 0x400
 800787a:	2104      	movs	r1, #4
 800787c:	2301      	movs	r3, #1
 800787e:	6150      	str	r0, [r2, #20]
 8007880:	f884 1036 	strb.w	r1, [r4, #54]	; 0x36
 8007884:	f884 3035 	strb.w	r3, [r4, #53]	; 0x35
 8007888:	f894 3036 	ldrb.w	r3, [r4, #54]	; 0x36
 800788c:	e70f      	b.n	80076ae <cs43l22_Resume+0x112>
 800788e:	6813      	ldr	r3, [r2, #0]
 8007890:	f46f 6580 	mvn.w	r5, #1024	; 0x400
 8007894:	f443 7300 	orr.w	r3, r3, #512	; 0x200
 8007898:	2004      	movs	r0, #4
 800789a:	2101      	movs	r1, #1
 800789c:	6013      	str	r3, [r2, #0]
 800789e:	6155      	str	r5, [r2, #20]
 80078a0:	f884 0036 	strb.w	r0, [r4, #54]	; 0x36
 80078a4:	f884 1035 	strb.w	r1, [r4, #53]	; 0x35
 80078a8:	f894 3036 	ldrb.w	r3, [r4, #54]	; 0x36
 80078ac:	e73c      	b.n	8007728 <cs43l22_Resume+0x18c>
 80078ae:	f7ff fb65 	bl	8006f7c <I2Cx_Init.part.0>
 80078b2:	6822      	ldr	r2, [r4, #0]
 80078b4:	e710      	b.n	80076d8 <cs43l22_Resume+0x13c>
 80078b6:	f7ff fb61 	bl	8006f7c <I2Cx_Init.part.0>
 80078ba:	2000      	movs	r0, #0
 80078bc:	b002      	add	sp, #8
 80078be:	bd70      	pop	{r4, r5, r6, pc}
 80078c0:	f7ff fb5c 	bl	8006f7c <I2Cx_Init.part.0>
 80078c4:	6822      	ldr	r2, [r4, #0]
 80078c6:	e6bf      	b.n	8007648 <cs43l22_Resume+0xac>

080078c8 <cs43l22_Stop>:
cs43l22_Stop():
 80078c8:	b530      	push	{r4, r5, lr}
 80078ca:	4c80      	ldr	r4, [pc, #512]	; (8007acc <cs43l22_Stop+0x204>)
 80078cc:	f894 2035 	ldrb.w	r2, [r4, #53]	; 0x35
 80078d0:	b083      	sub	sp, #12
 80078d2:	23ff      	movs	r3, #255	; 0xff
 80078d4:	2a01      	cmp	r2, #1
 80078d6:	f88d 3007 	strb.w	r3, [sp, #7]
 80078da:	b2c5      	uxtb	r5, r0
 80078dc:	6823      	ldr	r3, [r4, #0]
 80078de:	d132      	bne.n	8007946 <cs43l22_Stop+0x7e>
 80078e0:	b2d1      	uxtb	r1, r2
 80078e2:	699a      	ldr	r2, [r3, #24]
 80078e4:	f012 0202 	ands.w	r2, r2, #2
 80078e8:	d12d      	bne.n	8007946 <cs43l22_Stop+0x7e>
 80078ea:	f894 0034 	ldrb.w	r0, [r4, #52]	; 0x34
 80078ee:	2801      	cmp	r0, #1
 80078f0:	d029      	beq.n	8007946 <cs43l22_Stop+0x7e>
 80078f2:	2032      	movs	r0, #50	; 0x32
 80078f4:	f884 0035 	strb.w	r0, [r4, #53]	; 0x35
 80078f8:	f884 1034 	strb.w	r1, [r4, #52]	; 0x34
 80078fc:	f884 2036 	strb.w	r2, [r4, #54]	; 0x36
 8007900:	681a      	ldr	r2, [r3, #0]
 8007902:	4973      	ldr	r1, [pc, #460]	; (8007ad0 <cs43l22_Stop+0x208>)
 8007904:	f442 7280 	orr.w	r2, r2, #256	; 0x100
 8007908:	601a      	str	r2, [r3, #0]
 800790a:	6808      	ldr	r0, [r1, #0]
 800790c:	695a      	ldr	r2, [r3, #20]
 800790e:	07d2      	lsls	r2, r2, #31
 8007910:	d46e      	bmi.n	80079f0 <cs43l22_Stop+0x128>
 8007912:	680a      	ldr	r2, [r1, #0]
 8007914:	1a12      	subs	r2, r2, r0
 8007916:	f5b2 5f80 	cmp.w	r2, #4096	; 0x1000
 800791a:	d9f7      	bls.n	800790c <cs43l22_Stop+0x44>
 800791c:	2201      	movs	r2, #1
 800791e:	f884 2035 	strb.w	r2, [r4, #53]	; 0x35
 8007922:	e00e      	b.n	8007942 <cs43l22_Stop+0x7a>
 8007924:	681a      	ldr	r2, [r3, #0]
 8007926:	f442 7200 	orr.w	r2, r2, #512	; 0x200
 800792a:	601a      	str	r2, [r3, #0]
 800792c:	f46f 6080 	mvn.w	r0, #1024	; 0x400
 8007930:	2104      	movs	r1, #4
 8007932:	2201      	movs	r2, #1
 8007934:	6158      	str	r0, [r3, #20]
 8007936:	f884 1036 	strb.w	r1, [r4, #54]	; 0x36
 800793a:	f884 2035 	strb.w	r2, [r4, #53]	; 0x35
 800793e:	f894 2036 	ldrb.w	r2, [r4, #54]	; 0x36
 8007942:	f894 2036 	ldrb.w	r2, [r4, #54]	; 0x36
 8007946:	2202      	movs	r2, #2
 8007948:	f884 2035 	strb.w	r2, [r4, #53]	; 0x35
 800794c:	6819      	ldr	r1, [r3, #0]
 800794e:	2200      	movs	r2, #0
 8007950:	f021 0101 	bic.w	r1, r1, #1
 8007954:	6019      	str	r1, [r3, #0]
 8007956:	f884 2036 	strb.w	r2, [r4, #54]	; 0x36
 800795a:	f884 2035 	strb.w	r2, [r4, #53]	; 0x35
 800795e:	f894 1035 	ldrb.w	r1, [r4, #53]	; 0x35
 8007962:	f884 2034 	strb.w	r2, [r4, #52]	; 0x34
 8007966:	2900      	cmp	r1, #0
 8007968:	f000 80a9 	beq.w	8007abe <cs43l22_Stop+0x1f6>
 800796c:	f894 2035 	ldrb.w	r2, [r4, #53]	; 0x35
 8007970:	219f      	movs	r1, #159	; 0x9f
 8007972:	2a01      	cmp	r2, #1
 8007974:	f88d 1007 	strb.w	r1, [sp, #7]
 8007978:	b2d1      	uxtb	r1, r2
 800797a:	d121      	bne.n	80079c0 <cs43l22_Stop+0xf8>
 800797c:	699a      	ldr	r2, [r3, #24]
 800797e:	f012 0202 	ands.w	r2, r2, #2
 8007982:	d11d      	bne.n	80079c0 <cs43l22_Stop+0xf8>
 8007984:	f894 0034 	ldrb.w	r0, [r4, #52]	; 0x34
 8007988:	2801      	cmp	r0, #1
 800798a:	d019      	beq.n	80079c0 <cs43l22_Stop+0xf8>
 800798c:	2032      	movs	r0, #50	; 0x32
 800798e:	f884 0035 	strb.w	r0, [r4, #53]	; 0x35
 8007992:	f884 1034 	strb.w	r1, [r4, #52]	; 0x34
 8007996:	f884 2036 	strb.w	r2, [r4, #54]	; 0x36
 800799a:	681a      	ldr	r2, [r3, #0]
 800799c:	494c      	ldr	r1, [pc, #304]	; (8007ad0 <cs43l22_Stop+0x208>)
 800799e:	f442 7280 	orr.w	r2, r2, #256	; 0x100
 80079a2:	601a      	str	r2, [r3, #0]
 80079a4:	6808      	ldr	r0, [r1, #0]
 80079a6:	695a      	ldr	r2, [r3, #20]
 80079a8:	07d2      	lsls	r2, r2, #31
 80079aa:	d435      	bmi.n	8007a18 <cs43l22_Stop+0x150>
 80079ac:	680a      	ldr	r2, [r1, #0]
 80079ae:	1a12      	subs	r2, r2, r0
 80079b0:	f5b2 5f80 	cmp.w	r2, #4096	; 0x1000
 80079b4:	d9f7      	bls.n	80079a6 <cs43l22_Stop+0xde>
 80079b6:	2201      	movs	r2, #1
 80079b8:	f884 2035 	strb.w	r2, [r4, #53]	; 0x35
 80079bc:	f894 2036 	ldrb.w	r2, [r4, #54]	; 0x36
 80079c0:	2202      	movs	r2, #2
 80079c2:	f884 2035 	strb.w	r2, [r4, #53]	; 0x35
 80079c6:	6819      	ldr	r1, [r3, #0]
 80079c8:	2200      	movs	r2, #0
 80079ca:	f021 0101 	bic.w	r1, r1, #1
 80079ce:	6019      	str	r1, [r3, #0]
 80079d0:	f884 2036 	strb.w	r2, [r4, #54]	; 0x36
 80079d4:	f884 2035 	strb.w	r2, [r4, #53]	; 0x35
 80079d8:	f894 3035 	ldrb.w	r3, [r4, #53]	; 0x35
 80079dc:	f884 2034 	strb.w	r2, [r4, #52]	; 0x34
 80079e0:	2b00      	cmp	r3, #0
 80079e2:	d070      	beq.n	8007ac6 <cs43l22_Stop+0x1fe>
 80079e4:	4b3b      	ldr	r3, [pc, #236]	; (8007ad4 <cs43l22_Stop+0x20c>)
 80079e6:	2201      	movs	r2, #1
 80079e8:	2000      	movs	r0, #0
 80079ea:	701a      	strb	r2, [r3, #0]
 80079ec:	b003      	add	sp, #12
 80079ee:	bd30      	pop	{r4, r5, pc}
 80079f0:	f005 02fe 	and.w	r2, r5, #254	; 0xfe
 80079f4:	611a      	str	r2, [r3, #16]
 80079f6:	6808      	ldr	r0, [r1, #0]
 80079f8:	695a      	ldr	r2, [r3, #20]
 80079fa:	f012 0f02 	tst.w	r2, #2
 80079fe:	695a      	ldr	r2, [r3, #20]
 8007a00:	d135      	bne.n	8007a6e <cs43l22_Stop+0x1a6>
 8007a02:	0552      	lsls	r2, r2, #21
 8007a04:	d48e      	bmi.n	8007924 <cs43l22_Stop+0x5c>
 8007a06:	680a      	ldr	r2, [r1, #0]
 8007a08:	1a12      	subs	r2, r2, r0
 8007a0a:	f5b2 5f80 	cmp.w	r2, #4096	; 0x1000
 8007a0e:	d9f3      	bls.n	80079f8 <cs43l22_Stop+0x130>
 8007a10:	2201      	movs	r2, #1
 8007a12:	f884 2035 	strb.w	r2, [r4, #53]	; 0x35
 8007a16:	e792      	b.n	800793e <cs43l22_Stop+0x76>
 8007a18:	f005 05fe 	and.w	r5, r5, #254	; 0xfe
 8007a1c:	611d      	str	r5, [r3, #16]
 8007a1e:	6808      	ldr	r0, [r1, #0]
 8007a20:	695a      	ldr	r2, [r3, #20]
 8007a22:	f012 0f02 	tst.w	r2, #2
 8007a26:	695a      	ldr	r2, [r3, #20]
 8007a28:	d10a      	bne.n	8007a40 <cs43l22_Stop+0x178>
 8007a2a:	0555      	lsls	r5, r2, #21
 8007a2c:	d437      	bmi.n	8007a9e <cs43l22_Stop+0x1d6>
 8007a2e:	680a      	ldr	r2, [r1, #0]
 8007a30:	1a12      	subs	r2, r2, r0
 8007a32:	f5b2 5f80 	cmp.w	r2, #4096	; 0x1000
 8007a36:	d9f3      	bls.n	8007a20 <cs43l22_Stop+0x158>
 8007a38:	2201      	movs	r2, #1
 8007a3a:	f884 2035 	strb.w	r2, [r4, #53]	; 0x35
 8007a3e:	e03b      	b.n	8007ab8 <cs43l22_Stop+0x1f0>
 8007a40:	699a      	ldr	r2, [r3, #24]
 8007a42:	6808      	ldr	r0, [r1, #0]
 8007a44:	695a      	ldr	r2, [r3, #20]
 8007a46:	0612      	lsls	r2, r2, #24
 8007a48:	d405      	bmi.n	8007a56 <cs43l22_Stop+0x18e>
 8007a4a:	680a      	ldr	r2, [r1, #0]
 8007a4c:	1a12      	subs	r2, r2, r0
 8007a4e:	f5b2 5f80 	cmp.w	r2, #4096	; 0x1000
 8007a52:	d9f7      	bls.n	8007a44 <cs43l22_Stop+0x17c>
 8007a54:	e7af      	b.n	80079b6 <cs43l22_Stop+0xee>
 8007a56:	2202      	movs	r2, #2
 8007a58:	611a      	str	r2, [r3, #16]
 8007a5a:	f44f 5180 	mov.w	r1, #4096	; 0x1000
 8007a5e:	f10d 0007 	add.w	r0, sp, #7
 8007a62:	f004 fdab 	bl	800c5bc <HAL_I2C_Mem_Write.part.0.constprop.0>
 8007a66:	2800      	cmp	r0, #0
 8007a68:	d0bc      	beq.n	80079e4 <cs43l22_Stop+0x11c>
 8007a6a:	6823      	ldr	r3, [r4, #0]
 8007a6c:	e7a8      	b.n	80079c0 <cs43l22_Stop+0xf8>
 8007a6e:	699a      	ldr	r2, [r3, #24]
 8007a70:	6808      	ldr	r0, [r1, #0]
 8007a72:	695a      	ldr	r2, [r3, #20]
 8007a74:	0612      	lsls	r2, r2, #24
 8007a76:	d405      	bmi.n	8007a84 <cs43l22_Stop+0x1bc>
 8007a78:	680a      	ldr	r2, [r1, #0]
 8007a7a:	1a12      	subs	r2, r2, r0
 8007a7c:	f5b2 5f80 	cmp.w	r2, #4096	; 0x1000
 8007a80:	d9f7      	bls.n	8007a72 <cs43l22_Stop+0x1aa>
 8007a82:	e74b      	b.n	800791c <cs43l22_Stop+0x54>
 8007a84:	2204      	movs	r2, #4
 8007a86:	611a      	str	r2, [r3, #16]
 8007a88:	f44f 5180 	mov.w	r1, #4096	; 0x1000
 8007a8c:	f10d 0007 	add.w	r0, sp, #7
 8007a90:	f004 fd94 	bl	800c5bc <HAL_I2C_Mem_Write.part.0.constprop.0>
 8007a94:	6823      	ldr	r3, [r4, #0]
 8007a96:	2800      	cmp	r0, #0
 8007a98:	f43f af68 	beq.w	800796c <cs43l22_Stop+0xa4>
 8007a9c:	e753      	b.n	8007946 <cs43l22_Stop+0x7e>
 8007a9e:	681a      	ldr	r2, [r3, #0]
 8007aa0:	f46f 6580 	mvn.w	r5, #1024	; 0x400
 8007aa4:	f442 7200 	orr.w	r2, r2, #512	; 0x200
 8007aa8:	2004      	movs	r0, #4
 8007aaa:	2101      	movs	r1, #1
 8007aac:	601a      	str	r2, [r3, #0]
 8007aae:	615d      	str	r5, [r3, #20]
 8007ab0:	f884 0036 	strb.w	r0, [r4, #54]	; 0x36
 8007ab4:	f884 1035 	strb.w	r1, [r4, #53]	; 0x35
 8007ab8:	f894 2036 	ldrb.w	r2, [r4, #54]	; 0x36
 8007abc:	e77e      	b.n	80079bc <cs43l22_Stop+0xf4>
 8007abe:	f7ff fa5d 	bl	8006f7c <I2Cx_Init.part.0>
 8007ac2:	6823      	ldr	r3, [r4, #0]
 8007ac4:	e752      	b.n	800796c <cs43l22_Stop+0xa4>
 8007ac6:	f7ff fa59 	bl	8006f7c <I2Cx_Init.part.0>
 8007aca:	e78b      	b.n	80079e4 <cs43l22_Stop+0x11c>
 8007acc:	200008c4 	.word	0x200008c4
 8007ad0:	2001f720 	.word	0x2001f720
 8007ad4:	20000000 	.word	0x20000000

08007ad8 <cs43l22_SetVolume>:
cs43l22_SetVolume():
 8007ad8:	b570      	push	{r4, r5, r6, lr}
 8007ada:	4cb0      	ldr	r4, [pc, #704]	; (8007d9c <cs43l22_SetVolume+0x2c4>)
 8007adc:	2964      	cmp	r1, #100	; 0x64
 8007ade:	6823      	ldr	r3, [r4, #0]
 8007ae0:	b082      	sub	sp, #8
 8007ae2:	b2c6      	uxtb	r6, r0
 8007ae4:	f200 8086 	bhi.w	8007bf4 <cs43l22_SetVolume+0x11c>
 8007ae8:	4dad      	ldr	r5, [pc, #692]	; (8007da0 <cs43l22_SetVolume+0x2c8>)
 8007aea:	ebc1 2101 	rsb	r1, r1, r1, lsl #8
 8007aee:	fba5 2501 	umull	r2, r5, r5, r1
 8007af2:	f3c5 1547 	ubfx	r5, r5, #5, #8
 8007af6:	f894 2035 	ldrb.w	r2, [r4, #53]	; 0x35
 8007afa:	3519      	adds	r5, #25
 8007afc:	b2ed      	uxtb	r5, r5
 8007afe:	2a01      	cmp	r2, #1
 8007b00:	f88d 5007 	strb.w	r5, [sp, #7]
 8007b04:	b2d1      	uxtb	r1, r2
 8007b06:	d122      	bne.n	8007b4e <cs43l22_SetVolume+0x76>
 8007b08:	699a      	ldr	r2, [r3, #24]
 8007b0a:	f012 0202 	ands.w	r2, r2, #2
 8007b0e:	d11e      	bne.n	8007b4e <cs43l22_SetVolume+0x76>
 8007b10:	f894 0034 	ldrb.w	r0, [r4, #52]	; 0x34
 8007b14:	2801      	cmp	r0, #1
 8007b16:	d01a      	beq.n	8007b4e <cs43l22_SetVolume+0x76>
 8007b18:	f884 1034 	strb.w	r1, [r4, #52]	; 0x34
 8007b1c:	2132      	movs	r1, #50	; 0x32
 8007b1e:	f884 1035 	strb.w	r1, [r4, #53]	; 0x35
 8007b22:	f884 2036 	strb.w	r2, [r4, #54]	; 0x36
 8007b26:	6819      	ldr	r1, [r3, #0]
 8007b28:	4a9e      	ldr	r2, [pc, #632]	; (8007da4 <cs43l22_SetVolume+0x2cc>)
 8007b2a:	f441 7180 	orr.w	r1, r1, #256	; 0x100
 8007b2e:	6019      	str	r1, [r3, #0]
 8007b30:	6810      	ldr	r0, [r2, #0]
 8007b32:	6959      	ldr	r1, [r3, #20]
 8007b34:	07c9      	lsls	r1, r1, #31
 8007b36:	f100 810c 	bmi.w	8007d52 <cs43l22_SetVolume+0x27a>
 8007b3a:	6811      	ldr	r1, [r2, #0]
 8007b3c:	1a09      	subs	r1, r1, r0
 8007b3e:	f5b1 5f80 	cmp.w	r1, #4096	; 0x1000
 8007b42:	d9f6      	bls.n	8007b32 <cs43l22_SetVolume+0x5a>
 8007b44:	2201      	movs	r2, #1
 8007b46:	f884 2035 	strb.w	r2, [r4, #53]	; 0x35
 8007b4a:	f894 2036 	ldrb.w	r2, [r4, #54]	; 0x36
 8007b4e:	2202      	movs	r2, #2
 8007b50:	f884 2035 	strb.w	r2, [r4, #53]	; 0x35
 8007b54:	6819      	ldr	r1, [r3, #0]
 8007b56:	2200      	movs	r2, #0
 8007b58:	f021 0101 	bic.w	r1, r1, #1
 8007b5c:	6019      	str	r1, [r3, #0]
 8007b5e:	f884 2036 	strb.w	r2, [r4, #54]	; 0x36
 8007b62:	f884 2035 	strb.w	r2, [r4, #53]	; 0x35
 8007b66:	f884 2034 	strb.w	r2, [r4, #52]	; 0x34
 8007b6a:	f894 2035 	ldrb.w	r2, [r4, #53]	; 0x35
 8007b6e:	2a00      	cmp	r2, #0
 8007b70:	f000 8182 	beq.w	8007e78 <cs43l22_SetVolume+0x3a0>
 8007b74:	f894 2035 	ldrb.w	r2, [r4, #53]	; 0x35
 8007b78:	f88d 5007 	strb.w	r5, [sp, #7]
 8007b7c:	2a01      	cmp	r2, #1
 8007b7e:	b2d1      	uxtb	r1, r2
 8007b80:	d122      	bne.n	8007bc8 <cs43l22_SetVolume+0xf0>
 8007b82:	699a      	ldr	r2, [r3, #24]
 8007b84:	f012 0202 	ands.w	r2, r2, #2
 8007b88:	d11e      	bne.n	8007bc8 <cs43l22_SetVolume+0xf0>
 8007b8a:	f894 0034 	ldrb.w	r0, [r4, #52]	; 0x34
 8007b8e:	2801      	cmp	r0, #1
 8007b90:	d01a      	beq.n	8007bc8 <cs43l22_SetVolume+0xf0>
 8007b92:	2032      	movs	r0, #50	; 0x32
 8007b94:	f884 0035 	strb.w	r0, [r4, #53]	; 0x35
 8007b98:	f884 1034 	strb.w	r1, [r4, #52]	; 0x34
 8007b9c:	f884 2036 	strb.w	r2, [r4, #54]	; 0x36
 8007ba0:	6819      	ldr	r1, [r3, #0]
 8007ba2:	4a80      	ldr	r2, [pc, #512]	; (8007da4 <cs43l22_SetVolume+0x2cc>)
 8007ba4:	f441 7180 	orr.w	r1, r1, #256	; 0x100
 8007ba8:	6019      	str	r1, [r3, #0]
 8007baa:	6810      	ldr	r0, [r2, #0]
 8007bac:	6959      	ldr	r1, [r3, #20]
 8007bae:	07c9      	lsls	r1, r1, #31
 8007bb0:	f100 8096 	bmi.w	8007ce0 <cs43l22_SetVolume+0x208>
 8007bb4:	6811      	ldr	r1, [r2, #0]
 8007bb6:	1a09      	subs	r1, r1, r0
 8007bb8:	f5b1 5f80 	cmp.w	r1, #4096	; 0x1000
 8007bbc:	d9f6      	bls.n	8007bac <cs43l22_SetVolume+0xd4>
 8007bbe:	2201      	movs	r2, #1
 8007bc0:	f884 2035 	strb.w	r2, [r4, #53]	; 0x35
 8007bc4:	f894 2036 	ldrb.w	r2, [r4, #54]	; 0x36
 8007bc8:	2202      	movs	r2, #2
 8007bca:	f884 2035 	strb.w	r2, [r4, #53]	; 0x35
 8007bce:	6819      	ldr	r1, [r3, #0]
 8007bd0:	2200      	movs	r2, #0
 8007bd2:	f021 0101 	bic.w	r1, r1, #1
 8007bd6:	6019      	str	r1, [r3, #0]
 8007bd8:	f884 2036 	strb.w	r2, [r4, #54]	; 0x36
 8007bdc:	f884 2035 	strb.w	r2, [r4, #53]	; 0x35
 8007be0:	f894 3035 	ldrb.w	r3, [r4, #53]	; 0x35
 8007be4:	f884 2034 	strb.w	r2, [r4, #52]	; 0x34
 8007be8:	2b00      	cmp	r3, #0
 8007bea:	f000 80dd 	beq.w	8007da8 <cs43l22_SetVolume+0x2d0>
 8007bee:	2000      	movs	r0, #0
 8007bf0:	b002      	add	sp, #8
 8007bf2:	bd70      	pop	{r4, r5, r6, pc}
 8007bf4:	29e6      	cmp	r1, #230	; 0xe6
 8007bf6:	f240 8147 	bls.w	8007e88 <cs43l22_SetVolume+0x3b0>
 8007bfa:	f894 2035 	ldrb.w	r2, [r4, #53]	; 0x35
 8007bfe:	217d      	movs	r1, #125	; 0x7d
 8007c00:	2a01      	cmp	r2, #1
 8007c02:	f88d 1007 	strb.w	r1, [sp, #7]
 8007c06:	b2d1      	uxtb	r1, r2
 8007c08:	d131      	bne.n	8007c6e <cs43l22_SetVolume+0x196>
 8007c0a:	699a      	ldr	r2, [r3, #24]
 8007c0c:	f012 0202 	ands.w	r2, r2, #2
 8007c10:	d12d      	bne.n	8007c6e <cs43l22_SetVolume+0x196>
 8007c12:	f894 0034 	ldrb.w	r0, [r4, #52]	; 0x34
 8007c16:	2801      	cmp	r0, #1
 8007c18:	d029      	beq.n	8007c6e <cs43l22_SetVolume+0x196>
 8007c1a:	2032      	movs	r0, #50	; 0x32
 8007c1c:	f884 0035 	strb.w	r0, [r4, #53]	; 0x35
 8007c20:	f884 1034 	strb.w	r1, [r4, #52]	; 0x34
 8007c24:	f884 2036 	strb.w	r2, [r4, #54]	; 0x36
 8007c28:	6819      	ldr	r1, [r3, #0]
 8007c2a:	4a5e      	ldr	r2, [pc, #376]	; (8007da4 <cs43l22_SetVolume+0x2cc>)
 8007c2c:	f441 7180 	orr.w	r1, r1, #256	; 0x100
 8007c30:	6019      	str	r1, [r3, #0]
 8007c32:	6810      	ldr	r0, [r2, #0]
 8007c34:	6959      	ldr	r1, [r3, #20]
 8007c36:	07cd      	lsls	r5, r1, #31
 8007c38:	d477      	bmi.n	8007d2a <cs43l22_SetVolume+0x252>
 8007c3a:	6811      	ldr	r1, [r2, #0]
 8007c3c:	1a09      	subs	r1, r1, r0
 8007c3e:	f5b1 5f80 	cmp.w	r1, #4096	; 0x1000
 8007c42:	d9f7      	bls.n	8007c34 <cs43l22_SetVolume+0x15c>
 8007c44:	2201      	movs	r2, #1
 8007c46:	f884 2035 	strb.w	r2, [r4, #53]	; 0x35
 8007c4a:	e00e      	b.n	8007c6a <cs43l22_SetVolume+0x192>
 8007c4c:	681a      	ldr	r2, [r3, #0]
 8007c4e:	f442 7200 	orr.w	r2, r2, #512	; 0x200
 8007c52:	601a      	str	r2, [r3, #0]
 8007c54:	f46f 6080 	mvn.w	r0, #1024	; 0x400
 8007c58:	2104      	movs	r1, #4
 8007c5a:	2201      	movs	r2, #1
 8007c5c:	6158      	str	r0, [r3, #20]
 8007c5e:	f884 1036 	strb.w	r1, [r4, #54]	; 0x36
 8007c62:	f884 2035 	strb.w	r2, [r4, #53]	; 0x35
 8007c66:	f894 2036 	ldrb.w	r2, [r4, #54]	; 0x36
 8007c6a:	f894 2036 	ldrb.w	r2, [r4, #54]	; 0x36
 8007c6e:	2202      	movs	r2, #2
 8007c70:	f884 2035 	strb.w	r2, [r4, #53]	; 0x35
 8007c74:	6819      	ldr	r1, [r3, #0]
 8007c76:	2200      	movs	r2, #0
 8007c78:	f021 0101 	bic.w	r1, r1, #1
 8007c7c:	6019      	str	r1, [r3, #0]
 8007c7e:	f884 2036 	strb.w	r2, [r4, #54]	; 0x36
 8007c82:	f884 2035 	strb.w	r2, [r4, #53]	; 0x35
 8007c86:	f894 1035 	ldrb.w	r1, [r4, #53]	; 0x35
 8007c8a:	f884 2034 	strb.w	r2, [r4, #52]	; 0x34
 8007c8e:	2900      	cmp	r1, #0
 8007c90:	f000 80f6 	beq.w	8007e80 <cs43l22_SetVolume+0x3a8>
 8007c94:	f894 2035 	ldrb.w	r2, [r4, #53]	; 0x35
 8007c98:	217d      	movs	r1, #125	; 0x7d
 8007c9a:	2a01      	cmp	r2, #1
 8007c9c:	f88d 1007 	strb.w	r1, [sp, #7]
 8007ca0:	b2d1      	uxtb	r1, r2
 8007ca2:	d191      	bne.n	8007bc8 <cs43l22_SetVolume+0xf0>
 8007ca4:	699a      	ldr	r2, [r3, #24]
 8007ca6:	f012 0202 	ands.w	r2, r2, #2
 8007caa:	d18d      	bne.n	8007bc8 <cs43l22_SetVolume+0xf0>
 8007cac:	f894 0034 	ldrb.w	r0, [r4, #52]	; 0x34
 8007cb0:	2801      	cmp	r0, #1
 8007cb2:	d089      	beq.n	8007bc8 <cs43l22_SetVolume+0xf0>
 8007cb4:	2032      	movs	r0, #50	; 0x32
 8007cb6:	f884 0035 	strb.w	r0, [r4, #53]	; 0x35
 8007cba:	f884 1034 	strb.w	r1, [r4, #52]	; 0x34
 8007cbe:	f884 2036 	strb.w	r2, [r4, #54]	; 0x36
 8007cc2:	6819      	ldr	r1, [r3, #0]
 8007cc4:	4a37      	ldr	r2, [pc, #220]	; (8007da4 <cs43l22_SetVolume+0x2cc>)
 8007cc6:	f441 7180 	orr.w	r1, r1, #256	; 0x100
 8007cca:	6019      	str	r1, [r3, #0]
 8007ccc:	6810      	ldr	r0, [r2, #0]
 8007cce:	6959      	ldr	r1, [r3, #20]
 8007cd0:	07c9      	lsls	r1, r1, #31
 8007cd2:	d419      	bmi.n	8007d08 <cs43l22_SetVolume+0x230>
 8007cd4:	6811      	ldr	r1, [r2, #0]
 8007cd6:	1a09      	subs	r1, r1, r0
 8007cd8:	f5b1 5f80 	cmp.w	r1, #4096	; 0x1000
 8007cdc:	d9f7      	bls.n	8007cce <cs43l22_SetVolume+0x1f6>
 8007cde:	e76e      	b.n	8007bbe <cs43l22_SetVolume+0xe6>
 8007ce0:	f006 06fe 	and.w	r6, r6, #254	; 0xfe
 8007ce4:	611e      	str	r6, [r3, #16]
 8007ce6:	6810      	ldr	r0, [r2, #0]
 8007ce8:	6959      	ldr	r1, [r3, #20]
 8007cea:	f011 0f02 	tst.w	r1, #2
 8007cee:	6959      	ldr	r1, [r3, #20]
 8007cf0:	d15f      	bne.n	8007db2 <cs43l22_SetVolume+0x2da>
 8007cf2:	054d      	lsls	r5, r1, #21
 8007cf4:	d441      	bmi.n	8007d7a <cs43l22_SetVolume+0x2a2>
 8007cf6:	6811      	ldr	r1, [r2, #0]
 8007cf8:	1a09      	subs	r1, r1, r0
 8007cfa:	f5b1 5f80 	cmp.w	r1, #4096	; 0x1000
 8007cfe:	d9f3      	bls.n	8007ce8 <cs43l22_SetVolume+0x210>
 8007d00:	2201      	movs	r2, #1
 8007d02:	f884 2035 	strb.w	r2, [r4, #53]	; 0x35
 8007d06:	e045      	b.n	8007d94 <cs43l22_SetVolume+0x2bc>
 8007d08:	f006 06fe 	and.w	r6, r6, #254	; 0xfe
 8007d0c:	611e      	str	r6, [r3, #16]
 8007d0e:	6810      	ldr	r0, [r2, #0]
 8007d10:	6959      	ldr	r1, [r3, #20]
 8007d12:	f011 0f02 	tst.w	r1, #2
 8007d16:	6959      	ldr	r1, [r3, #20]
 8007d18:	d163      	bne.n	8007de2 <cs43l22_SetVolume+0x30a>
 8007d1a:	054e      	lsls	r6, r1, #21
 8007d1c:	d42d      	bmi.n	8007d7a <cs43l22_SetVolume+0x2a2>
 8007d1e:	6811      	ldr	r1, [r2, #0]
 8007d20:	1a09      	subs	r1, r1, r0
 8007d22:	f5b1 5f80 	cmp.w	r1, #4096	; 0x1000
 8007d26:	d9f3      	bls.n	8007d10 <cs43l22_SetVolume+0x238>
 8007d28:	e7ea      	b.n	8007d00 <cs43l22_SetVolume+0x228>
 8007d2a:	f006 01fe 	and.w	r1, r6, #254	; 0xfe
 8007d2e:	6119      	str	r1, [r3, #16]
 8007d30:	6810      	ldr	r0, [r2, #0]
 8007d32:	6959      	ldr	r1, [r3, #20]
 8007d34:	f011 0f02 	tst.w	r1, #2
 8007d38:	6959      	ldr	r1, [r3, #20]
 8007d3a:	d15d      	bne.n	8007df8 <cs43l22_SetVolume+0x320>
 8007d3c:	0549      	lsls	r1, r1, #21
 8007d3e:	d485      	bmi.n	8007c4c <cs43l22_SetVolume+0x174>
 8007d40:	6811      	ldr	r1, [r2, #0]
 8007d42:	1a09      	subs	r1, r1, r0
 8007d44:	f5b1 5f80 	cmp.w	r1, #4096	; 0x1000
 8007d48:	d9f3      	bls.n	8007d32 <cs43l22_SetVolume+0x25a>
 8007d4a:	2201      	movs	r2, #1
 8007d4c:	f884 2035 	strb.w	r2, [r4, #53]	; 0x35
 8007d50:	e789      	b.n	8007c66 <cs43l22_SetVolume+0x18e>
 8007d52:	f006 01fe 	and.w	r1, r6, #254	; 0xfe
 8007d56:	6119      	str	r1, [r3, #16]
 8007d58:	6810      	ldr	r0, [r2, #0]
 8007d5a:	6959      	ldr	r1, [r3, #20]
 8007d5c:	f011 0f02 	tst.w	r1, #2
 8007d60:	6959      	ldr	r1, [r3, #20]
 8007d62:	d161      	bne.n	8007e28 <cs43l22_SetVolume+0x350>
 8007d64:	0549      	lsls	r1, r1, #21
 8007d66:	d477      	bmi.n	8007e58 <cs43l22_SetVolume+0x380>
 8007d68:	6811      	ldr	r1, [r2, #0]
 8007d6a:	1a09      	subs	r1, r1, r0
 8007d6c:	f5b1 5f80 	cmp.w	r1, #4096	; 0x1000
 8007d70:	d9f3      	bls.n	8007d5a <cs43l22_SetVolume+0x282>
 8007d72:	2201      	movs	r2, #1
 8007d74:	f884 2035 	strb.w	r2, [r4, #53]	; 0x35
 8007d78:	e07b      	b.n	8007e72 <cs43l22_SetVolume+0x39a>
 8007d7a:	681a      	ldr	r2, [r3, #0]
 8007d7c:	f46f 6580 	mvn.w	r5, #1024	; 0x400
 8007d80:	f442 7200 	orr.w	r2, r2, #512	; 0x200
 8007d84:	2004      	movs	r0, #4
 8007d86:	2101      	movs	r1, #1
 8007d88:	601a      	str	r2, [r3, #0]
 8007d8a:	615d      	str	r5, [r3, #20]
 8007d8c:	f884 0036 	strb.w	r0, [r4, #54]	; 0x36
 8007d90:	f884 1035 	strb.w	r1, [r4, #53]	; 0x35
 8007d94:	f894 2036 	ldrb.w	r2, [r4, #54]	; 0x36
 8007d98:	e714      	b.n	8007bc4 <cs43l22_SetVolume+0xec>
 8007d9a:	bf00      	nop
 8007d9c:	200008c4 	.word	0x200008c4
 8007da0:	51eb851f 	.word	0x51eb851f
 8007da4:	2001f720 	.word	0x2001f720
 8007da8:	f7ff f8e8 	bl	8006f7c <I2Cx_Init.part.0>
 8007dac:	2000      	movs	r0, #0
 8007dae:	b002      	add	sp, #8
 8007db0:	bd70      	pop	{r4, r5, r6, pc}
 8007db2:	6999      	ldr	r1, [r3, #24]
 8007db4:	6810      	ldr	r0, [r2, #0]
 8007db6:	6959      	ldr	r1, [r3, #20]
 8007db8:	0609      	lsls	r1, r1, #24
 8007dba:	d405      	bmi.n	8007dc8 <cs43l22_SetVolume+0x2f0>
 8007dbc:	6811      	ldr	r1, [r2, #0]
 8007dbe:	1a09      	subs	r1, r1, r0
 8007dc0:	f5b1 5f80 	cmp.w	r1, #4096	; 0x1000
 8007dc4:	d9f7      	bls.n	8007db6 <cs43l22_SetVolume+0x2de>
 8007dc6:	e6fa      	b.n	8007bbe <cs43l22_SetVolume+0xe6>
 8007dc8:	2221      	movs	r2, #33	; 0x21
 8007dca:	611a      	str	r2, [r3, #16]
 8007dcc:	f44f 5180 	mov.w	r1, #4096	; 0x1000
 8007dd0:	f10d 0007 	add.w	r0, sp, #7
 8007dd4:	f004 fbf2 	bl	800c5bc <HAL_I2C_Mem_Write.part.0.constprop.0>
 8007dd8:	2800      	cmp	r0, #0
 8007dda:	f43f af08 	beq.w	8007bee <cs43l22_SetVolume+0x116>
 8007dde:	6823      	ldr	r3, [r4, #0]
 8007de0:	e6f2      	b.n	8007bc8 <cs43l22_SetVolume+0xf0>
 8007de2:	6999      	ldr	r1, [r3, #24]
 8007de4:	6810      	ldr	r0, [r2, #0]
 8007de6:	6959      	ldr	r1, [r3, #20]
 8007de8:	060d      	lsls	r5, r1, #24
 8007dea:	d4ed      	bmi.n	8007dc8 <cs43l22_SetVolume+0x2f0>
 8007dec:	6811      	ldr	r1, [r2, #0]
 8007dee:	1a09      	subs	r1, r1, r0
 8007df0:	f5b1 5f80 	cmp.w	r1, #4096	; 0x1000
 8007df4:	d9f7      	bls.n	8007de6 <cs43l22_SetVolume+0x30e>
 8007df6:	e6e2      	b.n	8007bbe <cs43l22_SetVolume+0xe6>
 8007df8:	6999      	ldr	r1, [r3, #24]
 8007dfa:	6810      	ldr	r0, [r2, #0]
 8007dfc:	6959      	ldr	r1, [r3, #20]
 8007dfe:	060d      	lsls	r5, r1, #24
 8007e00:	d405      	bmi.n	8007e0e <cs43l22_SetVolume+0x336>
 8007e02:	6811      	ldr	r1, [r2, #0]
 8007e04:	1a09      	subs	r1, r1, r0
 8007e06:	f5b1 5f80 	cmp.w	r1, #4096	; 0x1000
 8007e0a:	d9f7      	bls.n	8007dfc <cs43l22_SetVolume+0x324>
 8007e0c:	e71a      	b.n	8007c44 <cs43l22_SetVolume+0x16c>
 8007e0e:	2220      	movs	r2, #32
 8007e10:	611a      	str	r2, [r3, #16]
 8007e12:	f44f 5180 	mov.w	r1, #4096	; 0x1000
 8007e16:	f10d 0007 	add.w	r0, sp, #7
 8007e1a:	f004 fbcf 	bl	800c5bc <HAL_I2C_Mem_Write.part.0.constprop.0>
 8007e1e:	6823      	ldr	r3, [r4, #0]
 8007e20:	2800      	cmp	r0, #0
 8007e22:	f43f af37 	beq.w	8007c94 <cs43l22_SetVolume+0x1bc>
 8007e26:	e722      	b.n	8007c6e <cs43l22_SetVolume+0x196>
 8007e28:	6999      	ldr	r1, [r3, #24]
 8007e2a:	6810      	ldr	r0, [r2, #0]
 8007e2c:	6959      	ldr	r1, [r3, #20]
 8007e2e:	0609      	lsls	r1, r1, #24
 8007e30:	d405      	bmi.n	8007e3e <cs43l22_SetVolume+0x366>
 8007e32:	6811      	ldr	r1, [r2, #0]
 8007e34:	1a09      	subs	r1, r1, r0
 8007e36:	f5b1 5f80 	cmp.w	r1, #4096	; 0x1000
 8007e3a:	d9f7      	bls.n	8007e2c <cs43l22_SetVolume+0x354>
 8007e3c:	e682      	b.n	8007b44 <cs43l22_SetVolume+0x6c>
 8007e3e:	2220      	movs	r2, #32
 8007e40:	611a      	str	r2, [r3, #16]
 8007e42:	f44f 5180 	mov.w	r1, #4096	; 0x1000
 8007e46:	f10d 0007 	add.w	r0, sp, #7
 8007e4a:	f004 fbb7 	bl	800c5bc <HAL_I2C_Mem_Write.part.0.constprop.0>
 8007e4e:	6823      	ldr	r3, [r4, #0]
 8007e50:	2800      	cmp	r0, #0
 8007e52:	f43f ae8f 	beq.w	8007b74 <cs43l22_SetVolume+0x9c>
 8007e56:	e67a      	b.n	8007b4e <cs43l22_SetVolume+0x76>
 8007e58:	681a      	ldr	r2, [r3, #0]
 8007e5a:	f46f 6180 	mvn.w	r1, #1024	; 0x400
 8007e5e:	f442 7200 	orr.w	r2, r2, #512	; 0x200
 8007e62:	601a      	str	r2, [r3, #0]
 8007e64:	6159      	str	r1, [r3, #20]
 8007e66:	2201      	movs	r2, #1
 8007e68:	2104      	movs	r1, #4
 8007e6a:	f884 1036 	strb.w	r1, [r4, #54]	; 0x36
 8007e6e:	f884 2035 	strb.w	r2, [r4, #53]	; 0x35
 8007e72:	f894 2036 	ldrb.w	r2, [r4, #54]	; 0x36
 8007e76:	e668      	b.n	8007b4a <cs43l22_SetVolume+0x72>
 8007e78:	f7ff f880 	bl	8006f7c <I2Cx_Init.part.0>
 8007e7c:	6823      	ldr	r3, [r4, #0]
 8007e7e:	e679      	b.n	8007b74 <cs43l22_SetVolume+0x9c>
 8007e80:	f7ff f87c 	bl	8006f7c <I2Cx_Init.part.0>
 8007e84:	6823      	ldr	r3, [r4, #0]
 8007e86:	e705      	b.n	8007c94 <cs43l22_SetVolume+0x1bc>
 8007e88:	2564      	movs	r5, #100	; 0x64
 8007e8a:	e634      	b.n	8007af6 <cs43l22_SetVolume+0x1e>

08007e8c <cs43l22_SetMute>:
cs43l22_SetMute():
 8007e8c:	b530      	push	{r4, r5, lr}
 8007e8e:	4c65      	ldr	r4, [pc, #404]	; (8008024 <cs43l22_SetMute+0x198>)
 8007e90:	2901      	cmp	r1, #1
 8007e92:	6823      	ldr	r3, [r4, #0]
 8007e94:	b083      	sub	sp, #12
 8007e96:	b2c0      	uxtb	r0, r0
 8007e98:	d041      	beq.n	8007f1e <cs43l22_SetMute+0x92>
 8007e9a:	4a63      	ldr	r2, [pc, #396]	; (8008028 <cs43l22_SetMute+0x19c>)
 8007e9c:	7811      	ldrb	r1, [r2, #0]
 8007e9e:	f894 2035 	ldrb.w	r2, [r4, #53]	; 0x35
 8007ea2:	f88d 1007 	strb.w	r1, [sp, #7]
 8007ea6:	2a01      	cmp	r2, #1
 8007ea8:	b2d1      	uxtb	r1, r2
 8007eaa:	d123      	bne.n	8007ef4 <cs43l22_SetMute+0x68>
 8007eac:	699a      	ldr	r2, [r3, #24]
 8007eae:	f012 0202 	ands.w	r2, r2, #2
 8007eb2:	d11f      	bne.n	8007ef4 <cs43l22_SetMute+0x68>
 8007eb4:	f894 c034 	ldrb.w	ip, [r4, #52]	; 0x34
 8007eb8:	f1bc 0f01 	cmp.w	ip, #1
 8007ebc:	d01a      	beq.n	8007ef4 <cs43l22_SetMute+0x68>
 8007ebe:	f04f 0c32 	mov.w	ip, #50	; 0x32
 8007ec2:	f884 c035 	strb.w	ip, [r4, #53]	; 0x35
 8007ec6:	f884 1034 	strb.w	r1, [r4, #52]	; 0x34
 8007eca:	f884 2036 	strb.w	r2, [r4, #54]	; 0x36
 8007ece:	681a      	ldr	r2, [r3, #0]
 8007ed0:	4956      	ldr	r1, [pc, #344]	; (800802c <cs43l22_SetMute+0x1a0>)
 8007ed2:	f442 7280 	orr.w	r2, r2, #256	; 0x100
 8007ed6:	601a      	str	r2, [r3, #0]
 8007ed8:	680d      	ldr	r5, [r1, #0]
 8007eda:	695a      	ldr	r2, [r3, #20]
 8007edc:	07d2      	lsls	r2, r2, #31
 8007ede:	d444      	bmi.n	8007f6a <cs43l22_SetMute+0xde>
 8007ee0:	680a      	ldr	r2, [r1, #0]
 8007ee2:	1b52      	subs	r2, r2, r5
 8007ee4:	f5b2 5f80 	cmp.w	r2, #4096	; 0x1000
 8007ee8:	d9f7      	bls.n	8007eda <cs43l22_SetMute+0x4e>
 8007eea:	2201      	movs	r2, #1
 8007eec:	f884 2035 	strb.w	r2, [r4, #53]	; 0x35
 8007ef0:	f894 2036 	ldrb.w	r2, [r4, #54]	; 0x36
 8007ef4:	2202      	movs	r2, #2
 8007ef6:	f884 2035 	strb.w	r2, [r4, #53]	; 0x35
 8007efa:	6819      	ldr	r1, [r3, #0]
 8007efc:	2200      	movs	r2, #0
 8007efe:	f021 0101 	bic.w	r1, r1, #1
 8007f02:	6019      	str	r1, [r3, #0]
 8007f04:	f884 2036 	strb.w	r2, [r4, #54]	; 0x36
 8007f08:	f884 2035 	strb.w	r2, [r4, #53]	; 0x35
 8007f0c:	f894 3035 	ldrb.w	r3, [r4, #53]	; 0x35
 8007f10:	f884 2034 	strb.w	r2, [r4, #52]	; 0x34
 8007f14:	2b00      	cmp	r3, #0
 8007f16:	d05d      	beq.n	8007fd4 <cs43l22_SetMute+0x148>
 8007f18:	2000      	movs	r0, #0
 8007f1a:	b003      	add	sp, #12
 8007f1c:	bd30      	pop	{r4, r5, pc}
 8007f1e:	f894 2035 	ldrb.w	r2, [r4, #53]	; 0x35
 8007f22:	21ff      	movs	r1, #255	; 0xff
 8007f24:	2a01      	cmp	r2, #1
 8007f26:	f88d 1007 	strb.w	r1, [sp, #7]
 8007f2a:	b2d1      	uxtb	r1, r2
 8007f2c:	d1e2      	bne.n	8007ef4 <cs43l22_SetMute+0x68>
 8007f2e:	699a      	ldr	r2, [r3, #24]
 8007f30:	f012 0202 	ands.w	r2, r2, #2
 8007f34:	d1de      	bne.n	8007ef4 <cs43l22_SetMute+0x68>
 8007f36:	f894 5034 	ldrb.w	r5, [r4, #52]	; 0x34
 8007f3a:	2d01      	cmp	r5, #1
 8007f3c:	d0da      	beq.n	8007ef4 <cs43l22_SetMute+0x68>
 8007f3e:	2532      	movs	r5, #50	; 0x32
 8007f40:	f884 5035 	strb.w	r5, [r4, #53]	; 0x35
 8007f44:	f884 1034 	strb.w	r1, [r4, #52]	; 0x34
 8007f48:	f884 2036 	strb.w	r2, [r4, #54]	; 0x36
 8007f4c:	681a      	ldr	r2, [r3, #0]
 8007f4e:	4937      	ldr	r1, [pc, #220]	; (800802c <cs43l22_SetMute+0x1a0>)
 8007f50:	f442 7280 	orr.w	r2, r2, #256	; 0x100
 8007f54:	601a      	str	r2, [r3, #0]
 8007f56:	680d      	ldr	r5, [r1, #0]
 8007f58:	695a      	ldr	r2, [r3, #20]
 8007f5a:	07d2      	lsls	r2, r2, #31
 8007f5c:	d419      	bmi.n	8007f92 <cs43l22_SetMute+0x106>
 8007f5e:	680a      	ldr	r2, [r1, #0]
 8007f60:	1b52      	subs	r2, r2, r5
 8007f62:	f5b2 5f80 	cmp.w	r2, #4096	; 0x1000
 8007f66:	d9f7      	bls.n	8007f58 <cs43l22_SetMute+0xcc>
 8007f68:	e7bf      	b.n	8007eea <cs43l22_SetMute+0x5e>
 8007f6a:	f000 00fe 	and.w	r0, r0, #254	; 0xfe
 8007f6e:	6118      	str	r0, [r3, #16]
 8007f70:	6808      	ldr	r0, [r1, #0]
 8007f72:	695a      	ldr	r2, [r3, #20]
 8007f74:	f012 0f02 	tst.w	r2, #2
 8007f78:	695a      	ldr	r2, [r3, #20]
 8007f7a:	d130      	bne.n	8007fde <cs43l22_SetMute+0x152>
 8007f7c:	0555      	lsls	r5, r2, #21
 8007f7e:	d419      	bmi.n	8007fb4 <cs43l22_SetMute+0x128>
 8007f80:	680a      	ldr	r2, [r1, #0]
 8007f82:	1a12      	subs	r2, r2, r0
 8007f84:	f5b2 5f80 	cmp.w	r2, #4096	; 0x1000
 8007f88:	d9f3      	bls.n	8007f72 <cs43l22_SetMute+0xe6>
 8007f8a:	2201      	movs	r2, #1
 8007f8c:	f884 2035 	strb.w	r2, [r4, #53]	; 0x35
 8007f90:	e01d      	b.n	8007fce <cs43l22_SetMute+0x142>
 8007f92:	f000 00fe 	and.w	r0, r0, #254	; 0xfe
 8007f96:	6118      	str	r0, [r3, #16]
 8007f98:	6808      	ldr	r0, [r1, #0]
 8007f9a:	695a      	ldr	r2, [r3, #20]
 8007f9c:	f012 0f02 	tst.w	r2, #2
 8007fa0:	695a      	ldr	r2, [r3, #20]
 8007fa2:	d133      	bne.n	800800c <cs43l22_SetMute+0x180>
 8007fa4:	0552      	lsls	r2, r2, #21
 8007fa6:	d405      	bmi.n	8007fb4 <cs43l22_SetMute+0x128>
 8007fa8:	680a      	ldr	r2, [r1, #0]
 8007faa:	1a12      	subs	r2, r2, r0
 8007fac:	f5b2 5f80 	cmp.w	r2, #4096	; 0x1000
 8007fb0:	d9f3      	bls.n	8007f9a <cs43l22_SetMute+0x10e>
 8007fb2:	e7ea      	b.n	8007f8a <cs43l22_SetMute+0xfe>
 8007fb4:	681a      	ldr	r2, [r3, #0]
 8007fb6:	f46f 6580 	mvn.w	r5, #1024	; 0x400
 8007fba:	f442 7200 	orr.w	r2, r2, #512	; 0x200
 8007fbe:	2004      	movs	r0, #4
 8007fc0:	2101      	movs	r1, #1
 8007fc2:	601a      	str	r2, [r3, #0]
 8007fc4:	615d      	str	r5, [r3, #20]
 8007fc6:	f884 0036 	strb.w	r0, [r4, #54]	; 0x36
 8007fca:	f884 1035 	strb.w	r1, [r4, #53]	; 0x35
 8007fce:	f894 2036 	ldrb.w	r2, [r4, #54]	; 0x36
 8007fd2:	e78d      	b.n	8007ef0 <cs43l22_SetMute+0x64>
 8007fd4:	f7fe ffd2 	bl	8006f7c <I2Cx_Init.part.0>
 8007fd8:	2000      	movs	r0, #0
 8007fda:	b003      	add	sp, #12
 8007fdc:	bd30      	pop	{r4, r5, pc}
 8007fde:	699a      	ldr	r2, [r3, #24]
 8007fe0:	6808      	ldr	r0, [r1, #0]
 8007fe2:	695a      	ldr	r2, [r3, #20]
 8007fe4:	0612      	lsls	r2, r2, #24
 8007fe6:	d405      	bmi.n	8007ff4 <cs43l22_SetMute+0x168>
 8007fe8:	680a      	ldr	r2, [r1, #0]
 8007fea:	1a12      	subs	r2, r2, r0
 8007fec:	f5b2 5f80 	cmp.w	r2, #4096	; 0x1000
 8007ff0:	d9f7      	bls.n	8007fe2 <cs43l22_SetMute+0x156>
 8007ff2:	e77a      	b.n	8007eea <cs43l22_SetMute+0x5e>
 8007ff4:	2204      	movs	r2, #4
 8007ff6:	611a      	str	r2, [r3, #16]
 8007ff8:	f44f 5180 	mov.w	r1, #4096	; 0x1000
 8007ffc:	f10d 0007 	add.w	r0, sp, #7
 8008000:	f004 fadc 	bl	800c5bc <HAL_I2C_Mem_Write.part.0.constprop.0>
 8008004:	2800      	cmp	r0, #0
 8008006:	d087      	beq.n	8007f18 <cs43l22_SetMute+0x8c>
 8008008:	6823      	ldr	r3, [r4, #0]
 800800a:	e773      	b.n	8007ef4 <cs43l22_SetMute+0x68>
 800800c:	699a      	ldr	r2, [r3, #24]
 800800e:	6808      	ldr	r0, [r1, #0]
 8008010:	695a      	ldr	r2, [r3, #20]
 8008012:	0615      	lsls	r5, r2, #24
 8008014:	d4ee      	bmi.n	8007ff4 <cs43l22_SetMute+0x168>
 8008016:	680a      	ldr	r2, [r1, #0]
 8008018:	1a12      	subs	r2, r2, r0
 800801a:	f5b2 5f80 	cmp.w	r2, #4096	; 0x1000
 800801e:	d9f7      	bls.n	8008010 <cs43l22_SetMute+0x184>
 8008020:	e763      	b.n	8007eea <cs43l22_SetMute+0x5e>
 8008022:	bf00      	nop
 8008024:	200008c4 	.word	0x200008c4
 8008028:	2000094c 	.word	0x2000094c
 800802c:	2001f720 	.word	0x2001f720

08008030 <I2Cx_WriteData>:
I2Cx_WriteData():
 8008030:	b570      	push	{r4, r5, r6, lr}
 8008032:	4c40      	ldr	r4, [pc, #256]	; (8008134 <I2Cx_WriteData+0x104>)
 8008034:	f894 c035 	ldrb.w	ip, [r4, #53]	; 0x35
 8008038:	6823      	ldr	r3, [r4, #0]
 800803a:	b082      	sub	sp, #8
 800803c:	f1bc 0f01 	cmp.w	ip, #1
 8008040:	f88d 2007 	strb.w	r2, [sp, #7]
 8008044:	d134      	bne.n	80080b0 <I2Cx_WriteData+0x80>
 8008046:	699a      	ldr	r2, [r3, #24]
 8008048:	f012 0202 	ands.w	r2, r2, #2
 800804c:	d130      	bne.n	80080b0 <I2Cx_WriteData+0x80>
 800804e:	fa5f f58c 	uxtb.w	r5, ip
 8008052:	f894 c034 	ldrb.w	ip, [r4, #52]	; 0x34
 8008056:	f1bc 0f01 	cmp.w	ip, #1
 800805a:	d029      	beq.n	80080b0 <I2Cx_WriteData+0x80>
 800805c:	f884 5034 	strb.w	r5, [r4, #52]	; 0x34
 8008060:	2532      	movs	r5, #50	; 0x32
 8008062:	f884 5035 	strb.w	r5, [r4, #53]	; 0x35
 8008066:	f884 2036 	strb.w	r2, [r4, #54]	; 0x36
 800806a:	681a      	ldr	r2, [r3, #0]
 800806c:	4d32      	ldr	r5, [pc, #200]	; (8008138 <I2Cx_WriteData+0x108>)
 800806e:	f442 7280 	orr.w	r2, r2, #256	; 0x100
 8008072:	601a      	str	r2, [r3, #0]
 8008074:	682e      	ldr	r6, [r5, #0]
 8008076:	695a      	ldr	r2, [r3, #20]
 8008078:	07d2      	lsls	r2, r2, #31
 800807a:	d42c      	bmi.n	80080d6 <I2Cx_WriteData+0xa6>
 800807c:	682a      	ldr	r2, [r5, #0]
 800807e:	1b92      	subs	r2, r2, r6
 8008080:	f5b2 5f80 	cmp.w	r2, #4096	; 0x1000
 8008084:	d9f7      	bls.n	8008076 <I2Cx_WriteData+0x46>
 8008086:	2201      	movs	r2, #1
 8008088:	f884 2035 	strb.w	r2, [r4, #53]	; 0x35
 800808c:	e00e      	b.n	80080ac <I2Cx_WriteData+0x7c>
 800808e:	681a      	ldr	r2, [r3, #0]
 8008090:	f46f 6580 	mvn.w	r5, #1024	; 0x400
 8008094:	f442 7200 	orr.w	r2, r2, #512	; 0x200
 8008098:	2004      	movs	r0, #4
 800809a:	2101      	movs	r1, #1
 800809c:	601a      	str	r2, [r3, #0]
 800809e:	615d      	str	r5, [r3, #20]
 80080a0:	f884 0036 	strb.w	r0, [r4, #54]	; 0x36
 80080a4:	f884 1035 	strb.w	r1, [r4, #53]	; 0x35
 80080a8:	f894 2036 	ldrb.w	r2, [r4, #54]	; 0x36
 80080ac:	f894 2036 	ldrb.w	r2, [r4, #54]	; 0x36
 80080b0:	2202      	movs	r2, #2
 80080b2:	f884 2035 	strb.w	r2, [r4, #53]	; 0x35
 80080b6:	6819      	ldr	r1, [r3, #0]
 80080b8:	2200      	movs	r2, #0
 80080ba:	f021 0101 	bic.w	r1, r1, #1
 80080be:	6019      	str	r1, [r3, #0]
 80080c0:	f884 2036 	strb.w	r2, [r4, #54]	; 0x36
 80080c4:	f884 2035 	strb.w	r2, [r4, #53]	; 0x35
 80080c8:	f894 3035 	ldrb.w	r3, [r4, #53]	; 0x35
 80080cc:	f884 2034 	strb.w	r2, [r4, #52]	; 0x34
 80080d0:	b35b      	cbz	r3, 800812a <I2Cx_WriteData+0xfa>
 80080d2:	b002      	add	sp, #8
 80080d4:	bd70      	pop	{r4, r5, r6, pc}
 80080d6:	f000 00fe 	and.w	r0, r0, #254	; 0xfe
 80080da:	6118      	str	r0, [r3, #16]
 80080dc:	6828      	ldr	r0, [r5, #0]
 80080de:	695a      	ldr	r2, [r3, #20]
 80080e0:	f012 0f02 	tst.w	r2, #2
 80080e4:	695a      	ldr	r2, [r3, #20]
 80080e6:	d10a      	bne.n	80080fe <I2Cx_WriteData+0xce>
 80080e8:	0556      	lsls	r6, r2, #21
 80080ea:	d4d0      	bmi.n	800808e <I2Cx_WriteData+0x5e>
 80080ec:	682a      	ldr	r2, [r5, #0]
 80080ee:	1a12      	subs	r2, r2, r0
 80080f0:	f5b2 5f80 	cmp.w	r2, #4096	; 0x1000
 80080f4:	d9f3      	bls.n	80080de <I2Cx_WriteData+0xae>
 80080f6:	2201      	movs	r2, #1
 80080f8:	f884 2035 	strb.w	r2, [r4, #53]	; 0x35
 80080fc:	e7d4      	b.n	80080a8 <I2Cx_WriteData+0x78>
 80080fe:	699a      	ldr	r2, [r3, #24]
 8008100:	6828      	ldr	r0, [r5, #0]
 8008102:	695a      	ldr	r2, [r3, #20]
 8008104:	0612      	lsls	r2, r2, #24
 8008106:	d405      	bmi.n	8008114 <I2Cx_WriteData+0xe4>
 8008108:	682a      	ldr	r2, [r5, #0]
 800810a:	1a12      	subs	r2, r2, r0
 800810c:	f5b2 5f80 	cmp.w	r2, #4096	; 0x1000
 8008110:	d9f7      	bls.n	8008102 <I2Cx_WriteData+0xd2>
 8008112:	e7b8      	b.n	8008086 <I2Cx_WriteData+0x56>
 8008114:	6119      	str	r1, [r3, #16]
 8008116:	f10d 0007 	add.w	r0, sp, #7
 800811a:	f44f 5180 	mov.w	r1, #4096	; 0x1000
 800811e:	f004 fa4d 	bl	800c5bc <HAL_I2C_Mem_Write.part.0.constprop.0>
 8008122:	2800      	cmp	r0, #0
 8008124:	d0d5      	beq.n	80080d2 <I2Cx_WriteData+0xa2>
 8008126:	6823      	ldr	r3, [r4, #0]
 8008128:	e7c2      	b.n	80080b0 <I2Cx_WriteData+0x80>
 800812a:	f7fe ff27 	bl	8006f7c <I2Cx_Init.part.0>
 800812e:	b002      	add	sp, #8
 8008130:	bd70      	pop	{r4, r5, r6, pc}
 8008132:	bf00      	nop
 8008134:	200008c4 	.word	0x200008c4
 8008138:	2001f720 	.word	0x2001f720

0800813c <cs43l22_SetOutputMode>:
cs43l22_SetOutputMode():
 800813c:	b530      	push	{r4, r5, lr}
 800813e:	3901      	subs	r1, #1
 8008140:	b083      	sub	sp, #12
 8008142:	b2c0      	uxtb	r0, r0
 8008144:	2903      	cmp	r1, #3
 8008146:	d82b      	bhi.n	80081a0 <cs43l22_SetOutputMode+0x64>
 8008148:	e8df f001 	tbb	[pc, r1]
 800814c:	020c1620 	.word	0x020c1620
 8008150:	2205      	movs	r2, #5
 8008152:	2104      	movs	r1, #4
 8008154:	f7ff ff6c 	bl	8008030 <I2Cx_WriteData>
 8008158:	4b52      	ldr	r3, [pc, #328]	; (80082a4 <cs43l22_SetOutputMode+0x168>)
 800815a:	2205      	movs	r2, #5
 800815c:	701a      	strb	r2, [r3, #0]
 800815e:	2000      	movs	r0, #0
 8008160:	b003      	add	sp, #12
 8008162:	bd30      	pop	{r4, r5, pc}
 8008164:	22aa      	movs	r2, #170	; 0xaa
 8008166:	2104      	movs	r1, #4
 8008168:	f7ff ff62 	bl	8008030 <I2Cx_WriteData>
 800816c:	4b4d      	ldr	r3, [pc, #308]	; (80082a4 <cs43l22_SetOutputMode+0x168>)
 800816e:	22aa      	movs	r2, #170	; 0xaa
 8008170:	2000      	movs	r0, #0
 8008172:	701a      	strb	r2, [r3, #0]
 8008174:	b003      	add	sp, #12
 8008176:	bd30      	pop	{r4, r5, pc}
 8008178:	22af      	movs	r2, #175	; 0xaf
 800817a:	2104      	movs	r1, #4
 800817c:	f7ff ff58 	bl	8008030 <I2Cx_WriteData>
 8008180:	4b48      	ldr	r3, [pc, #288]	; (80082a4 <cs43l22_SetOutputMode+0x168>)
 8008182:	22af      	movs	r2, #175	; 0xaf
 8008184:	2000      	movs	r0, #0
 8008186:	701a      	strb	r2, [r3, #0]
 8008188:	b003      	add	sp, #12
 800818a:	bd30      	pop	{r4, r5, pc}
 800818c:	22fa      	movs	r2, #250	; 0xfa
 800818e:	2104      	movs	r1, #4
 8008190:	f7ff ff4e 	bl	8008030 <I2Cx_WriteData>
 8008194:	4b43      	ldr	r3, [pc, #268]	; (80082a4 <cs43l22_SetOutputMode+0x168>)
 8008196:	22fa      	movs	r2, #250	; 0xfa
 8008198:	2000      	movs	r0, #0
 800819a:	701a      	strb	r2, [r3, #0]
 800819c:	b003      	add	sp, #12
 800819e:	bd30      	pop	{r4, r5, pc}
 80081a0:	4c41      	ldr	r4, [pc, #260]	; (80082a8 <cs43l22_SetOutputMode+0x16c>)
 80081a2:	f894 2035 	ldrb.w	r2, [r4, #53]	; 0x35
 80081a6:	2305      	movs	r3, #5
 80081a8:	2a01      	cmp	r2, #1
 80081aa:	f88d 3007 	strb.w	r3, [sp, #7]
 80081ae:	b2d1      	uxtb	r1, r2
 80081b0:	6823      	ldr	r3, [r4, #0]
 80081b2:	d123      	bne.n	80081fc <cs43l22_SetOutputMode+0xc0>
 80081b4:	699a      	ldr	r2, [r3, #24]
 80081b6:	f012 0202 	ands.w	r2, r2, #2
 80081ba:	d11f      	bne.n	80081fc <cs43l22_SetOutputMode+0xc0>
 80081bc:	f894 c034 	ldrb.w	ip, [r4, #52]	; 0x34
 80081c0:	f1bc 0f01 	cmp.w	ip, #1
 80081c4:	d01a      	beq.n	80081fc <cs43l22_SetOutputMode+0xc0>
 80081c6:	f04f 0c32 	mov.w	ip, #50	; 0x32
 80081ca:	f884 c035 	strb.w	ip, [r4, #53]	; 0x35
 80081ce:	f884 1034 	strb.w	r1, [r4, #52]	; 0x34
 80081d2:	f884 2036 	strb.w	r2, [r4, #54]	; 0x36
 80081d6:	6819      	ldr	r1, [r3, #0]
 80081d8:	4a34      	ldr	r2, [pc, #208]	; (80082ac <cs43l22_SetOutputMode+0x170>)
 80081da:	f441 7180 	orr.w	r1, r1, #256	; 0x100
 80081de:	6019      	str	r1, [r3, #0]
 80081e0:	6815      	ldr	r5, [r2, #0]
 80081e2:	6959      	ldr	r1, [r3, #20]
 80081e4:	07c9      	lsls	r1, r1, #31
 80081e6:	d421      	bmi.n	800822c <cs43l22_SetOutputMode+0xf0>
 80081e8:	6811      	ldr	r1, [r2, #0]
 80081ea:	1b49      	subs	r1, r1, r5
 80081ec:	f5b1 5f80 	cmp.w	r1, #4096	; 0x1000
 80081f0:	d9f7      	bls.n	80081e2 <cs43l22_SetOutputMode+0xa6>
 80081f2:	2201      	movs	r2, #1
 80081f4:	f884 2035 	strb.w	r2, [r4, #53]	; 0x35
 80081f8:	f894 2036 	ldrb.w	r2, [r4, #54]	; 0x36
 80081fc:	2202      	movs	r2, #2
 80081fe:	f884 2035 	strb.w	r2, [r4, #53]	; 0x35
 8008202:	6819      	ldr	r1, [r3, #0]
 8008204:	2200      	movs	r2, #0
 8008206:	f021 0101 	bic.w	r1, r1, #1
 800820a:	6019      	str	r1, [r3, #0]
 800820c:	f884 2036 	strb.w	r2, [r4, #54]	; 0x36
 8008210:	f884 2035 	strb.w	r2, [r4, #53]	; 0x35
 8008214:	f894 3035 	ldrb.w	r3, [r4, #53]	; 0x35
 8008218:	f884 2034 	strb.w	r2, [r4, #52]	; 0x34
 800821c:	b11b      	cbz	r3, 8008226 <cs43l22_SetOutputMode+0xea>
 800821e:	4b21      	ldr	r3, [pc, #132]	; (80082a4 <cs43l22_SetOutputMode+0x168>)
 8008220:	2205      	movs	r2, #5
 8008222:	701a      	strb	r2, [r3, #0]
 8008224:	e79b      	b.n	800815e <cs43l22_SetOutputMode+0x22>
 8008226:	f7fe fea9 	bl	8006f7c <I2Cx_Init.part.0>
 800822a:	e7f8      	b.n	800821e <cs43l22_SetOutputMode+0xe2>
 800822c:	f000 00fe 	and.w	r0, r0, #254	; 0xfe
 8008230:	6118      	str	r0, [r3, #16]
 8008232:	6810      	ldr	r0, [r2, #0]
 8008234:	6959      	ldr	r1, [r3, #20]
 8008236:	f011 0f02 	tst.w	r1, #2
 800823a:	6959      	ldr	r1, [r3, #20]
 800823c:	d10c      	bne.n	8008258 <cs43l22_SetOutputMode+0x11c>
 800823e:	054d      	lsls	r5, r1, #21
 8008240:	d415      	bmi.n	800826e <cs43l22_SetOutputMode+0x132>
 8008242:	6811      	ldr	r1, [r2, #0]
 8008244:	1a09      	subs	r1, r1, r0
 8008246:	f5b1 5f80 	cmp.w	r1, #4096	; 0x1000
 800824a:	d9f3      	bls.n	8008234 <cs43l22_SetOutputMode+0xf8>
 800824c:	2201      	movs	r2, #1
 800824e:	f884 2035 	strb.w	r2, [r4, #53]	; 0x35
 8008252:	f894 2036 	ldrb.w	r2, [r4, #54]	; 0x36
 8008256:	e7cf      	b.n	80081f8 <cs43l22_SetOutputMode+0xbc>
 8008258:	6999      	ldr	r1, [r3, #24]
 800825a:	6810      	ldr	r0, [r2, #0]
 800825c:	6959      	ldr	r1, [r3, #20]
 800825e:	0609      	lsls	r1, r1, #24
 8008260:	d413      	bmi.n	800828a <cs43l22_SetOutputMode+0x14e>
 8008262:	6811      	ldr	r1, [r2, #0]
 8008264:	1a09      	subs	r1, r1, r0
 8008266:	f5b1 5f80 	cmp.w	r1, #4096	; 0x1000
 800826a:	d9f7      	bls.n	800825c <cs43l22_SetOutputMode+0x120>
 800826c:	e7c1      	b.n	80081f2 <cs43l22_SetOutputMode+0xb6>
 800826e:	681a      	ldr	r2, [r3, #0]
 8008270:	f46f 6580 	mvn.w	r5, #1024	; 0x400
 8008274:	f442 7200 	orr.w	r2, r2, #512	; 0x200
 8008278:	2004      	movs	r0, #4
 800827a:	2101      	movs	r1, #1
 800827c:	601a      	str	r2, [r3, #0]
 800827e:	615d      	str	r5, [r3, #20]
 8008280:	f884 0036 	strb.w	r0, [r4, #54]	; 0x36
 8008284:	f884 1035 	strb.w	r1, [r4, #53]	; 0x35
 8008288:	e7e3      	b.n	8008252 <cs43l22_SetOutputMode+0x116>
 800828a:	2204      	movs	r2, #4
 800828c:	611a      	str	r2, [r3, #16]
 800828e:	f44f 5180 	mov.w	r1, #4096	; 0x1000
 8008292:	f10d 0007 	add.w	r0, sp, #7
 8008296:	f004 f991 	bl	800c5bc <HAL_I2C_Mem_Write.part.0.constprop.0>
 800829a:	2800      	cmp	r0, #0
 800829c:	d0bf      	beq.n	800821e <cs43l22_SetOutputMode+0xe2>
 800829e:	6823      	ldr	r3, [r4, #0]
 80082a0:	e7ac      	b.n	80081fc <cs43l22_SetOutputMode+0xc0>
 80082a2:	bf00      	nop
 80082a4:	2000094c 	.word	0x2000094c
 80082a8:	200008c4 	.word	0x200008c4
 80082ac:	2001f720 	.word	0x2001f720

080082b0 <AUDIO_IO_Init>:
AUDIO_IO_Init():
 80082b0:	4819      	ldr	r0, [pc, #100]	; (8008318 <AUDIO_IO_Init+0x68>)
 80082b2:	491a      	ldr	r1, [pc, #104]	; (800831c <AUDIO_IO_Init+0x6c>)
 80082b4:	6b02      	ldr	r2, [r0, #48]	; 0x30
 80082b6:	b508      	push	{r3, lr}
 80082b8:	f042 0208 	orr.w	r2, r2, #8
 80082bc:	4b18      	ldr	r3, [pc, #96]	; (8008320 <AUDIO_IO_Init+0x70>)
 80082be:	6302      	str	r2, [r0, #48]	; 0x30
 80082c0:	681a      	ldr	r2, [r3, #0]
 80082c2:	f422 7240 	bic.w	r2, r2, #768	; 0x300
 80082c6:	f442 7280 	orr.w	r2, r2, #256	; 0x100
 80082ca:	601a      	str	r2, [r3, #0]
 80082cc:	689a      	ldr	r2, [r3, #8]
 80082ce:	f422 7240 	bic.w	r2, r2, #768	; 0x300
 80082d2:	f442 7200 	orr.w	r2, r2, #512	; 0x200
 80082d6:	609a      	str	r2, [r3, #8]
 80082d8:	685a      	ldr	r2, [r3, #4]
 80082da:	f022 0210 	bic.w	r2, r2, #16
 80082de:	605a      	str	r2, [r3, #4]
 80082e0:	68da      	ldr	r2, [r3, #12]
 80082e2:	f422 7240 	bic.w	r2, r2, #768	; 0x300
 80082e6:	60da      	str	r2, [r3, #12]
 80082e8:	f891 3035 	ldrb.w	r3, [r1, #53]	; 0x35
 80082ec:	b18b      	cbz	r3, 8008312 <AUDIO_IO_Init+0x62>
 80082ee:	4b0c      	ldr	r3, [pc, #48]	; (8008320 <AUDIO_IO_Init+0x70>)
 80082f0:	4a0c      	ldr	r2, [pc, #48]	; (8008324 <AUDIO_IO_Init+0x74>)
 80082f2:	2110      	movs	r1, #16
 80082f4:	8359      	strh	r1, [r3, #26]
 80082f6:	6811      	ldr	r1, [r2, #0]
 80082f8:	6813      	ldr	r3, [r2, #0]
 80082fa:	1a5b      	subs	r3, r3, r1
 80082fc:	2b05      	cmp	r3, #5
 80082fe:	d3fb      	bcc.n	80082f8 <AUDIO_IO_Init+0x48>
 8008300:	4b07      	ldr	r3, [pc, #28]	; (8008320 <AUDIO_IO_Init+0x70>)
 8008302:	2110      	movs	r1, #16
 8008304:	8319      	strh	r1, [r3, #24]
 8008306:	6811      	ldr	r1, [r2, #0]
 8008308:	6813      	ldr	r3, [r2, #0]
 800830a:	1a5b      	subs	r3, r3, r1
 800830c:	2b05      	cmp	r3, #5
 800830e:	d3fb      	bcc.n	8008308 <AUDIO_IO_Init+0x58>
 8008310:	bd08      	pop	{r3, pc}
 8008312:	f7fe fe33 	bl	8006f7c <I2Cx_Init.part.0>
 8008316:	e7ea      	b.n	80082ee <AUDIO_IO_Init+0x3e>
 8008318:	40023800 	.word	0x40023800
 800831c:	200008c4 	.word	0x200008c4
 8008320:	40020c00 	.word	0x40020c00
 8008324:	2001f720 	.word	0x2001f720

08008328 <cs43l22_Init>:
cs43l22_Init():
 8008328:	e92d 4178 	stmdb	sp!, {r3, r4, r5, r6, r8, lr}
 800832c:	b2c4      	uxtb	r4, r0
 800832e:	460d      	mov	r5, r1
 8008330:	4606      	mov	r6, r0
 8008332:	4690      	mov	r8, r2
 8008334:	f7ff ffbc 	bl	80082b0 <AUDIO_IO_Init>
 8008338:	2201      	movs	r2, #1
 800833a:	2102      	movs	r1, #2
 800833c:	4620      	mov	r0, r4
 800833e:	f7ff fe77 	bl	8008030 <I2Cx_WriteData>
 8008342:	1e6b      	subs	r3, r5, #1
 8008344:	2b03      	cmp	r3, #3
 8008346:	d866      	bhi.n	8008416 <cs43l22_Init+0xee>
 8008348:	e8df f003 	tbb	[pc, r3]
 800834c:	65024961 	.word	0x65024961
 8008350:	4b33      	ldr	r3, [pc, #204]	; (8008420 <cs43l22_Init+0xf8>)
 8008352:	22aa      	movs	r2, #170	; 0xaa
 8008354:	701a      	strb	r2, [r3, #0]
 8008356:	781a      	ldrb	r2, [r3, #0]
 8008358:	4620      	mov	r0, r4
 800835a:	2104      	movs	r1, #4
 800835c:	f7ff fe68 	bl	8008030 <I2Cx_WriteData>
 8008360:	4620      	mov	r0, r4
 8008362:	2281      	movs	r2, #129	; 0x81
 8008364:	2105      	movs	r1, #5
 8008366:	f7ff fe63 	bl	8008030 <I2Cx_WriteData>
 800836a:	2204      	movs	r2, #4
 800836c:	4620      	mov	r0, r4
 800836e:	2106      	movs	r1, #6
 8008370:	f7ff fe5e 	bl	8008030 <I2Cx_WriteData>
 8008374:	4641      	mov	r1, r8
 8008376:	4630      	mov	r0, r6
 8008378:	f7ff fbae 	bl	8007ad8 <cs43l22_SetVolume>
 800837c:	2206      	movs	r2, #6
 800837e:	210f      	movs	r1, #15
 8008380:	4605      	mov	r5, r0
 8008382:	4620      	mov	r0, r4
 8008384:	f7ff fe54 	bl	8008030 <I2Cx_WriteData>
 8008388:	4620      	mov	r0, r4
 800838a:	2200      	movs	r2, #0
 800838c:	2124      	movs	r1, #36	; 0x24
 800838e:	f7ff fe4f 	bl	8008030 <I2Cx_WriteData>
 8008392:	2200      	movs	r2, #0
 8008394:	2125      	movs	r1, #37	; 0x25
 8008396:	4620      	mov	r0, r4
 8008398:	f7ff fe4a 	bl	8008030 <I2Cx_WriteData>
 800839c:	4620      	mov	r0, r4
 800839e:	2200      	movs	r2, #0
 80083a0:	210a      	movs	r1, #10
 80083a2:	f7ff fe45 	bl	8008030 <I2Cx_WriteData>
 80083a6:	4620      	mov	r0, r4
 80083a8:	2204      	movs	r2, #4
 80083aa:	210e      	movs	r1, #14
 80083ac:	f7ff fe40 	bl	8008030 <I2Cx_WriteData>
 80083b0:	4620      	mov	r0, r4
 80083b2:	2200      	movs	r2, #0
 80083b4:	2127      	movs	r1, #39	; 0x27
 80083b6:	f7ff fe3b 	bl	8008030 <I2Cx_WriteData>
 80083ba:	4620      	mov	r0, r4
 80083bc:	220f      	movs	r2, #15
 80083be:	211f      	movs	r1, #31
 80083c0:	f7ff fe36 	bl	8008030 <I2Cx_WriteData>
 80083c4:	4620      	mov	r0, r4
 80083c6:	220a      	movs	r2, #10
 80083c8:	211a      	movs	r1, #26
 80083ca:	f7ff fe31 	bl	8008030 <I2Cx_WriteData>
 80083ce:	4620      	mov	r0, r4
 80083d0:	220a      	movs	r2, #10
 80083d2:	211b      	movs	r1, #27
 80083d4:	f7ff fe2c 	bl	8008030 <I2Cx_WriteData>
 80083d8:	4628      	mov	r0, r5
 80083da:	e8bd 8178 	ldmia.w	sp!, {r3, r4, r5, r6, r8, pc}
 80083de:	4b10      	ldr	r3, [pc, #64]	; (8008420 <cs43l22_Init+0xf8>)
 80083e0:	22af      	movs	r2, #175	; 0xaf
 80083e2:	701a      	strb	r2, [r3, #0]
 80083e4:	781a      	ldrb	r2, [r3, #0]
 80083e6:	2104      	movs	r1, #4
 80083e8:	4620      	mov	r0, r4
 80083ea:	f7ff fe21 	bl	8008030 <I2Cx_WriteData>
 80083ee:	2281      	movs	r2, #129	; 0x81
 80083f0:	2105      	movs	r1, #5
 80083f2:	4620      	mov	r0, r4
 80083f4:	f7ff fe1c 	bl	8008030 <I2Cx_WriteData>
 80083f8:	2204      	movs	r2, #4
 80083fa:	2106      	movs	r1, #6
 80083fc:	4620      	mov	r0, r4
 80083fe:	f7ff fe17 	bl	8008030 <I2Cx_WriteData>
 8008402:	4641      	mov	r1, r8
 8008404:	4630      	mov	r0, r6
 8008406:	f7ff fb67 	bl	8007ad8 <cs43l22_SetVolume>
 800840a:	4605      	mov	r5, r0
 800840c:	e7c6      	b.n	800839c <cs43l22_Init+0x74>
 800840e:	4b04      	ldr	r3, [pc, #16]	; (8008420 <cs43l22_Init+0xf8>)
 8008410:	22fa      	movs	r2, #250	; 0xfa
 8008412:	701a      	strb	r2, [r3, #0]
 8008414:	e79f      	b.n	8008356 <cs43l22_Init+0x2e>
 8008416:	4b02      	ldr	r3, [pc, #8]	; (8008420 <cs43l22_Init+0xf8>)
 8008418:	2205      	movs	r2, #5
 800841a:	701a      	strb	r2, [r3, #0]
 800841c:	e79b      	b.n	8008356 <cs43l22_Init+0x2e>
 800841e:	bf00      	nop
 8008420:	2000094c 	.word	0x2000094c

08008424 <cs43l22_ReadID>:
cs43l22_ReadID():
 8008424:	b570      	push	{r4, r5, r6, lr}
 8008426:	4605      	mov	r5, r0
 8008428:	f7ff ff42 	bl	80082b0 <AUDIO_IO_Init>
 800842c:	4a6b      	ldr	r2, [pc, #428]	; (80085dc <cs43l22_ReadID+0x1b8>)
 800842e:	f892 3035 	ldrb.w	r3, [r2, #53]	; 0x35
 8008432:	2b01      	cmp	r3, #1
 8008434:	d150      	bne.n	80084d8 <cs43l22_ReadID+0xb4>
 8008436:	b2d9      	uxtb	r1, r3
 8008438:	6813      	ldr	r3, [r2, #0]
 800843a:	699c      	ldr	r4, [r3, #24]
 800843c:	f014 0402 	ands.w	r4, r4, #2
 8008440:	d14d      	bne.n	80084de <cs43l22_ReadID+0xba>
 8008442:	f892 0034 	ldrb.w	r0, [r2, #52]	; 0x34
 8008446:	2801      	cmp	r0, #1
 8008448:	d01d      	beq.n	8008486 <cs43l22_ReadID+0x62>
 800844a:	2042      	movs	r0, #66	; 0x42
 800844c:	f882 0035 	strb.w	r0, [r2, #53]	; 0x35
 8008450:	f882 1034 	strb.w	r1, [r2, #52]	; 0x34
 8008454:	f882 4036 	strb.w	r4, [r2, #54]	; 0x36
 8008458:	6819      	ldr	r1, [r3, #0]
 800845a:	4861      	ldr	r0, [pc, #388]	; (80085e0 <cs43l22_ReadID+0x1bc>)
 800845c:	f441 6180 	orr.w	r1, r1, #1024	; 0x400
 8008460:	6019      	str	r1, [r3, #0]
 8008462:	6819      	ldr	r1, [r3, #0]
 8008464:	f441 7180 	orr.w	r1, r1, #256	; 0x100
 8008468:	6019      	str	r1, [r3, #0]
 800846a:	6806      	ldr	r6, [r0, #0]
 800846c:	6959      	ldr	r1, [r3, #20]
 800846e:	07c9      	lsls	r1, r1, #31
 8008470:	d41d      	bmi.n	80084ae <cs43l22_ReadID+0x8a>
 8008472:	6801      	ldr	r1, [r0, #0]
 8008474:	1b89      	subs	r1, r1, r6
 8008476:	f5b1 5f80 	cmp.w	r1, #4096	; 0x1000
 800847a:	d9f7      	bls.n	800846c <cs43l22_ReadID+0x48>
 800847c:	2101      	movs	r1, #1
 800847e:	f882 1035 	strb.w	r1, [r2, #53]	; 0x35
 8008482:	f892 1036 	ldrb.w	r1, [r2, #54]	; 0x36
 8008486:	2102      	movs	r1, #2
 8008488:	f882 1035 	strb.w	r1, [r2, #53]	; 0x35
 800848c:	6818      	ldr	r0, [r3, #0]
 800848e:	2100      	movs	r1, #0
 8008490:	f020 0001 	bic.w	r0, r0, #1
 8008494:	6018      	str	r0, [r3, #0]
 8008496:	f882 1036 	strb.w	r1, [r2, #54]	; 0x36
 800849a:	f882 1035 	strb.w	r1, [r2, #53]	; 0x35
 800849e:	f892 3035 	ldrb.w	r3, [r2, #53]	; 0x35
 80084a2:	f882 1034 	strb.w	r1, [r2, #52]	; 0x34
 80084a6:	2b00      	cmp	r3, #0
 80084a8:	d036      	beq.n	8008518 <cs43l22_ReadID+0xf4>
 80084aa:	4620      	mov	r0, r4
 80084ac:	bd70      	pop	{r4, r5, r6, pc}
 80084ae:	b2ee      	uxtb	r6, r5
 80084b0:	f005 05fe 	and.w	r5, r5, #254	; 0xfe
 80084b4:	611d      	str	r5, [r3, #16]
 80084b6:	6805      	ldr	r5, [r0, #0]
 80084b8:	6959      	ldr	r1, [r3, #20]
 80084ba:	f011 0f02 	tst.w	r1, #2
 80084be:	6959      	ldr	r1, [r3, #20]
 80084c0:	d11f      	bne.n	8008502 <cs43l22_ReadID+0xde>
 80084c2:	0549      	lsls	r1, r1, #21
 80084c4:	d40d      	bmi.n	80084e2 <cs43l22_ReadID+0xbe>
 80084c6:	6801      	ldr	r1, [r0, #0]
 80084c8:	1b49      	subs	r1, r1, r5
 80084ca:	f5b1 5f80 	cmp.w	r1, #4096	; 0x1000
 80084ce:	d9f3      	bls.n	80084b8 <cs43l22_ReadID+0x94>
 80084d0:	2101      	movs	r1, #1
 80084d2:	f882 1035 	strb.w	r1, [r2, #53]	; 0x35
 80084d6:	e011      	b.n	80084fc <cs43l22_ReadID+0xd8>
 80084d8:	6813      	ldr	r3, [r2, #0]
 80084da:	2400      	movs	r4, #0
 80084dc:	e7d3      	b.n	8008486 <cs43l22_ReadID+0x62>
 80084de:	2400      	movs	r4, #0
 80084e0:	e7d1      	b.n	8008486 <cs43l22_ReadID+0x62>
 80084e2:	6819      	ldr	r1, [r3, #0]
 80084e4:	f441 7100 	orr.w	r1, r1, #512	; 0x200
 80084e8:	6019      	str	r1, [r3, #0]
 80084ea:	f46f 6580 	mvn.w	r5, #1024	; 0x400
 80084ee:	2004      	movs	r0, #4
 80084f0:	2101      	movs	r1, #1
 80084f2:	615d      	str	r5, [r3, #20]
 80084f4:	f882 0036 	strb.w	r0, [r2, #54]	; 0x36
 80084f8:	f882 1035 	strb.w	r1, [r2, #53]	; 0x35
 80084fc:	f892 1036 	ldrb.w	r1, [r2, #54]	; 0x36
 8008500:	e7bf      	b.n	8008482 <cs43l22_ReadID+0x5e>
 8008502:	6999      	ldr	r1, [r3, #24]
 8008504:	6805      	ldr	r5, [r0, #0]
 8008506:	6959      	ldr	r1, [r3, #20]
 8008508:	0609      	lsls	r1, r1, #24
 800850a:	d409      	bmi.n	8008520 <cs43l22_ReadID+0xfc>
 800850c:	6801      	ldr	r1, [r0, #0]
 800850e:	1b49      	subs	r1, r1, r5
 8008510:	f5b1 5f80 	cmp.w	r1, #4096	; 0x1000
 8008514:	d9f7      	bls.n	8008506 <cs43l22_ReadID+0xe2>
 8008516:	e7b1      	b.n	800847c <cs43l22_ReadID+0x58>
 8008518:	f7fe fd30 	bl	8006f7c <I2Cx_Init.part.0>
 800851c:	4620      	mov	r0, r4
 800851e:	bd70      	pop	{r4, r5, r6, pc}
 8008520:	2101      	movs	r1, #1
 8008522:	6119      	str	r1, [r3, #16]
 8008524:	6805      	ldr	r5, [r0, #0]
 8008526:	6959      	ldr	r1, [r3, #20]
 8008528:	0609      	lsls	r1, r1, #24
 800852a:	d405      	bmi.n	8008538 <cs43l22_ReadID+0x114>
 800852c:	6801      	ldr	r1, [r0, #0]
 800852e:	1b49      	subs	r1, r1, r5
 8008530:	f5b1 5f80 	cmp.w	r1, #4096	; 0x1000
 8008534:	d9f7      	bls.n	8008526 <cs43l22_ReadID+0x102>
 8008536:	e7a1      	b.n	800847c <cs43l22_ReadID+0x58>
 8008538:	6819      	ldr	r1, [r3, #0]
 800853a:	f441 7180 	orr.w	r1, r1, #256	; 0x100
 800853e:	6019      	str	r1, [r3, #0]
 8008540:	6805      	ldr	r5, [r0, #0]
 8008542:	6959      	ldr	r1, [r3, #20]
 8008544:	07c9      	lsls	r1, r1, #31
 8008546:	d405      	bmi.n	8008554 <cs43l22_ReadID+0x130>
 8008548:	6801      	ldr	r1, [r0, #0]
 800854a:	1b49      	subs	r1, r1, r5
 800854c:	f5b1 5f80 	cmp.w	r1, #4096	; 0x1000
 8008550:	d9f7      	bls.n	8008542 <cs43l22_ReadID+0x11e>
 8008552:	e793      	b.n	800847c <cs43l22_ReadID+0x58>
 8008554:	f046 0601 	orr.w	r6, r6, #1
 8008558:	611e      	str	r6, [r3, #16]
 800855a:	6805      	ldr	r5, [r0, #0]
 800855c:	6959      	ldr	r1, [r3, #20]
 800855e:	0789      	lsls	r1, r1, #30
 8008560:	d408      	bmi.n	8008574 <cs43l22_ReadID+0x150>
 8008562:	6959      	ldr	r1, [r3, #20]
 8008564:	054e      	lsls	r6, r1, #21
 8008566:	d4bc      	bmi.n	80084e2 <cs43l22_ReadID+0xbe>
 8008568:	6801      	ldr	r1, [r0, #0]
 800856a:	1b49      	subs	r1, r1, r5
 800856c:	f5b1 5f80 	cmp.w	r1, #4096	; 0x1000
 8008570:	d9f4      	bls.n	800855c <cs43l22_ReadID+0x138>
 8008572:	e7ad      	b.n	80084d0 <cs43l22_ReadID+0xac>
 8008574:	6819      	ldr	r1, [r3, #0]
 8008576:	f421 6180 	bic.w	r1, r1, #1024	; 0x400
 800857a:	6019      	str	r1, [r3, #0]
 800857c:	6959      	ldr	r1, [r3, #20]
 800857e:	6999      	ldr	r1, [r3, #24]
 8008580:	6819      	ldr	r1, [r3, #0]
 8008582:	f441 7100 	orr.w	r1, r1, #512	; 0x200
 8008586:	6019      	str	r1, [r3, #0]
 8008588:	6804      	ldr	r4, [r0, #0]
 800858a:	6959      	ldr	r1, [r3, #20]
 800858c:	064e      	lsls	r6, r1, #25
 800858e:	d409      	bmi.n	80085a4 <cs43l22_ReadID+0x180>
 8008590:	6801      	ldr	r1, [r0, #0]
 8008592:	1b09      	subs	r1, r1, r4
 8008594:	f5b1 5f80 	cmp.w	r1, #4096	; 0x1000
 8008598:	d9f7      	bls.n	800858a <cs43l22_ReadID+0x166>
 800859a:	2101      	movs	r1, #1
 800859c:	f882 1035 	strb.w	r1, [r2, #53]	; 0x35
 80085a0:	2400      	movs	r4, #0
 80085a2:	e770      	b.n	8008486 <cs43l22_ReadID+0x62>
 80085a4:	691c      	ldr	r4, [r3, #16]
 80085a6:	6819      	ldr	r1, [r3, #0]
 80085a8:	f421 6100 	bic.w	r1, r1, #2048	; 0x800
 80085ac:	6019      	str	r1, [r3, #0]
 80085ae:	6801      	ldr	r1, [r0, #0]
 80085b0:	699d      	ldr	r5, [r3, #24]
 80085b2:	07ad      	lsls	r5, r5, #30
 80085b4:	d509      	bpl.n	80085ca <cs43l22_ReadID+0x1a6>
 80085b6:	6805      	ldr	r5, [r0, #0]
 80085b8:	1a6d      	subs	r5, r5, r1
 80085ba:	f5b5 5f80 	cmp.w	r5, #4096	; 0x1000
 80085be:	d9f7      	bls.n	80085b0 <cs43l22_ReadID+0x18c>
 80085c0:	2101      	movs	r1, #1
 80085c2:	f882 1035 	strb.w	r1, [r2, #53]	; 0x35
 80085c6:	b2e4      	uxtb	r4, r4
 80085c8:	e75d      	b.n	8008486 <cs43l22_ReadID+0x62>
 80085ca:	2101      	movs	r1, #1
 80085cc:	2300      	movs	r3, #0
 80085ce:	f882 1035 	strb.w	r1, [r2, #53]	; 0x35
 80085d2:	f882 3034 	strb.w	r3, [r2, #52]	; 0x34
 80085d6:	b2e4      	uxtb	r4, r4
 80085d8:	e767      	b.n	80084aa <cs43l22_ReadID+0x86>
 80085da:	bf00      	nop
 80085dc:	200008c4 	.word	0x200008c4
 80085e0:	2001f720 	.word	0x2001f720

080085e4 <USBH_MIDI_InterfaceDeInit>:
USBH_MIDI_InterfaceDeInit():
 80085e4:	b570      	push	{r4, r5, r6, lr}
 80085e6:	f8d0 35c4 	ldr.w	r3, [r0, #1476]	; 0x5c4
 80085ea:	69dd      	ldr	r5, [r3, #28]
 80085ec:	78a9      	ldrb	r1, [r5, #2]
 80085ee:	4604      	mov	r4, r0
 80085f0:	b951      	cbnz	r1, 8008608 <USBH_MIDI_InterfaceDeInit+0x24>
 80085f2:	7869      	ldrb	r1, [r5, #1]
 80085f4:	bb31      	cbnz	r1, 8008644 <USBH_MIDI_InterfaceDeInit+0x60>
 80085f6:	4628      	mov	r0, r5
 80085f8:	f006 fa6c 	bl	800ead4 <free>
 80085fc:	f8d4 35c4 	ldr.w	r3, [r4, #1476]	; 0x5c4
 8008600:	2200      	movs	r2, #0
 8008602:	61da      	str	r2, [r3, #28]
 8008604:	2000      	movs	r0, #0
 8008606:	bd70      	pop	{r4, r5, r6, pc}
 8008608:	f8d0 6610 	ldr.w	r6, [r0, #1552]	; 0x610
 800860c:	f896 3288 	ldrb.w	r3, [r6, #648]	; 0x288
 8008610:	2b01      	cmp	r3, #1
 8008612:	d009      	beq.n	8008628 <USBH_MIDI_InterfaceDeInit+0x44>
 8008614:	2301      	movs	r3, #1
 8008616:	f886 3288 	strb.w	r3, [r6, #648]	; 0x288
 800861a:	6830      	ldr	r0, [r6, #0]
 800861c:	f7f7 ffbc 	bl	8000598 <USB_HC_Halt>
 8008620:	2300      	movs	r3, #0
 8008622:	f886 3288 	strb.w	r3, [r6, #648]	; 0x288
 8008626:	78a9      	ldrb	r1, [r5, #2]
 8008628:	290a      	cmp	r1, #10
 800862a:	d807      	bhi.n	800863c <USBH_MIDI_InterfaceDeInit+0x58>
 800862c:	eb04 0181 	add.w	r1, r4, r1, lsl #2
 8008630:	f8d1 35cc 	ldr.w	r3, [r1, #1484]	; 0x5cc
 8008634:	f3c3 030e 	ubfx	r3, r3, #0, #15
 8008638:	f8c1 35cc 	str.w	r3, [r1, #1484]	; 0x5cc
 800863c:	7869      	ldrb	r1, [r5, #1]
 800863e:	2300      	movs	r3, #0
 8008640:	70ab      	strb	r3, [r5, #2]
 8008642:	b199      	cbz	r1, 800866c <USBH_MIDI_InterfaceDeInit+0x88>
 8008644:	f8d4 6610 	ldr.w	r6, [r4, #1552]	; 0x610
 8008648:	f896 3288 	ldrb.w	r3, [r6, #648]	; 0x288
 800864c:	2b01      	cmp	r3, #1
 800864e:	d009      	beq.n	8008664 <USBH_MIDI_InterfaceDeInit+0x80>
 8008650:	2301      	movs	r3, #1
 8008652:	f886 3288 	strb.w	r3, [r6, #648]	; 0x288
 8008656:	6830      	ldr	r0, [r6, #0]
 8008658:	f7f7 ff9e 	bl	8000598 <USB_HC_Halt>
 800865c:	2300      	movs	r3, #0
 800865e:	f886 3288 	strb.w	r3, [r6, #648]	; 0x288
 8008662:	7869      	ldrb	r1, [r5, #1]
 8008664:	290a      	cmp	r1, #10
 8008666:	d908      	bls.n	800867a <USBH_MIDI_InterfaceDeInit+0x96>
 8008668:	2300      	movs	r3, #0
 800866a:	706b      	strb	r3, [r5, #1]
 800866c:	f8d4 35c4 	ldr.w	r3, [r4, #1476]	; 0x5c4
 8008670:	69dd      	ldr	r5, [r3, #28]
 8008672:	2d00      	cmp	r5, #0
 8008674:	d1bf      	bne.n	80085f6 <USBH_MIDI_InterfaceDeInit+0x12>
 8008676:	2000      	movs	r0, #0
 8008678:	bd70      	pop	{r4, r5, r6, pc}
 800867a:	eb04 0181 	add.w	r1, r4, r1, lsl #2
 800867e:	f8d1 35cc 	ldr.w	r3, [r1, #1484]	; 0x5cc
 8008682:	f3c3 030e 	ubfx	r3, r3, #0, #15
 8008686:	f8c1 35cc 	str.w	r3, [r1, #1484]	; 0x5cc
 800868a:	e7ed      	b.n	8008668 <USBH_MIDI_InterfaceDeInit+0x84>

0800868c <USBH_CtlReq.part.0>:
USBH_CtlReq.part.0():
 800868c:	b570      	push	{r4, r5, r6, lr}
 800868e:	7e05      	ldrb	r5, [r0, #24]
 8008690:	1e6b      	subs	r3, r5, #1
 8008692:	4604      	mov	r4, r0
 8008694:	2b0a      	cmp	r3, #10
 8008696:	d856      	bhi.n	8008746 <USBH_CtlReq.part.0+0xba>
 8008698:	e8df f013 	tbh	[pc, r3, lsl #1]
 800869c:	0046001d 	.word	0x0046001d
 80086a0:	00f50057 	.word	0x00f50057
 80086a4:	00e000d4 	.word	0x00e000d4
 80086a8:	00a5007f 	.word	0x00a5007f
 80086ac:	00c300b7 	.word	0x00c300b7
 80086b0:	000b      	.short	0x000b
 80086b2:	7e43      	ldrb	r3, [r0, #25]
 80086b4:	3301      	adds	r3, #1
 80086b6:	b2db      	uxtb	r3, r3
 80086b8:	2b02      	cmp	r3, #2
 80086ba:	7643      	strb	r3, [r0, #25]
 80086bc:	f240 80fd 	bls.w	80088ba <USBH_CtlReq.part.0+0x22e>
 80086c0:	f8d0 3614 	ldr.w	r3, [r0, #1556]	; 0x614
 80086c4:	2106      	movs	r1, #6
 80086c6:	4798      	blx	r3
 80086c8:	2300      	movs	r3, #0
 80086ca:	7663      	strb	r3, [r4, #25]
 80086cc:	2301      	movs	r3, #1
 80086ce:	2502      	movs	r5, #2
 80086d0:	70a3      	strb	r3, [r4, #2]
 80086d2:	4628      	mov	r0, r5
 80086d4:	bd70      	pop	{r4, r5, r6, pc}
 80086d6:	7941      	ldrb	r1, [r0, #5]
 80086d8:	f8d0 0610 	ldr.w	r0, [r0, #1552]	; 0x610
 80086dc:	eb01 0281 	add.w	r2, r1, r1, lsl #2
 80086e0:	eb00 03c2 	add.w	r3, r0, r2, lsl #3
 80086e4:	f04f 0c03 	mov.w	ip, #3
 80086e8:	f883 c03a 	strb.w	ip, [r3, #58]	; 0x3a
 80086ec:	f104 0c10 	add.w	ip, r4, #16
 80086f0:	2600      	movs	r6, #0
 80086f2:	f8c3 c03c 	str.w	ip, [r3, #60]	; 0x3c
 80086f6:	f04f 0c08 	mov.w	ip, #8
 80086fa:	f883 1031 	strb.w	r1, [r3, #49]	; 0x31
 80086fe:	f883 6033 	strb.w	r6, [r3, #51]	; 0x33
 8008702:	f883 6037 	strb.w	r6, [r3, #55]	; 0x37
 8008706:	f8a3 6054 	strh.w	r6, [r3, #84]	; 0x54
 800870a:	645e      	str	r6, [r3, #68]	; 0x44
 800870c:	f8c3 c040 	str.w	ip, [r3, #64]	; 0x40
 8008710:	2328      	movs	r3, #40	; 0x28
 8008712:	fb03 0101 	mla	r1, r3, r1, r0
 8008716:	7c02      	ldrb	r2, [r0, #16]
 8008718:	6800      	ldr	r0, [r0, #0]
 800871a:	3130      	adds	r1, #48	; 0x30
 800871c:	f7f7 fdee 	bl	80002fc <USB_HC_StartXfer>
 8008720:	2302      	movs	r3, #2
 8008722:	7623      	strb	r3, [r4, #24]
 8008724:	4628      	mov	r0, r5
 8008726:	bd70      	pop	{r4, r5, r6, pc}
 8008728:	7943      	ldrb	r3, [r0, #5]
 800872a:	f8d0 2610 	ldr.w	r2, [r0, #1552]	; 0x610
 800872e:	eb03 0383 	add.w	r3, r3, r3, lsl #2
 8008732:	eb02 03c3 	add.w	r3, r2, r3, lsl #3
 8008736:	f893 5054 	ldrb.w	r5, [r3, #84]	; 0x54
 800873a:	2d01      	cmp	r5, #1
 800873c:	f000 80da 	beq.w	80088f4 <USBH_CtlReq.part.0+0x268>
 8008740:	2d04      	cmp	r5, #4
 8008742:	f000 80b0 	beq.w	80088a6 <USBH_CtlReq.part.0+0x21a>
 8008746:	2501      	movs	r5, #1
 8008748:	e7ec      	b.n	8008724 <USBH_CtlReq.part.0+0x98>
 800874a:	7901      	ldrb	r1, [r0, #4]
 800874c:	f8d4 5608 	ldr.w	r5, [r4, #1544]	; 0x608
 8008750:	f8d0 0610 	ldr.w	r0, [r0, #1552]	; 0x610
 8008754:	89a6      	ldrh	r6, [r4, #12]
 8008756:	81e5      	strh	r5, [r4, #14]
 8008758:	eb01 0281 	add.w	r2, r1, r1, lsl #2
 800875c:	68a5      	ldr	r5, [r4, #8]
 800875e:	eb00 03c2 	add.w	r3, r0, r2, lsl #3
 8008762:	e9c3 560f 	strd	r5, r6, [r3, #60]	; 0x3c
 8008766:	f04f 0c02 	mov.w	ip, #2
 800876a:	2600      	movs	r6, #0
 800876c:	2501      	movs	r5, #1
 800876e:	f883 1031 	strb.w	r1, [r3, #49]	; 0x31
 8008772:	f883 6037 	strb.w	r6, [r3, #55]	; 0x37
 8008776:	f883 5033 	strb.w	r5, [r3, #51]	; 0x33
 800877a:	f883 c03a 	strb.w	ip, [r3, #58]	; 0x3a
 800877e:	f8a3 6054 	strh.w	r6, [r3, #84]	; 0x54
 8008782:	645e      	str	r6, [r3, #68]	; 0x44
 8008784:	2328      	movs	r3, #40	; 0x28
 8008786:	fb03 0101 	mla	r1, r3, r1, r0
 800878a:	7c02      	ldrb	r2, [r0, #16]
 800878c:	6800      	ldr	r0, [r0, #0]
 800878e:	3130      	adds	r1, #48	; 0x30
 8008790:	f7f7 fdb4 	bl	80002fc <USB_HC_StartXfer>
 8008794:	2304      	movs	r3, #4
 8008796:	7623      	strb	r3, [r4, #24]
 8008798:	e7c4      	b.n	8008724 <USBH_CtlReq.part.0+0x98>
 800879a:	7901      	ldrb	r1, [r0, #4]
 800879c:	f8d0 0610 	ldr.w	r0, [r0, #1552]	; 0x610
 80087a0:	eb01 0281 	add.w	r2, r1, r1, lsl #2
 80087a4:	eb00 03c2 	add.w	r3, r0, r2, lsl #3
 80087a8:	2600      	movs	r6, #0
 80087aa:	f04f 0c02 	mov.w	ip, #2
 80087ae:	2501      	movs	r5, #1
 80087b0:	f883 1031 	strb.w	r1, [r3, #49]	; 0x31
 80087b4:	f883 5033 	strb.w	r5, [r3, #51]	; 0x33
 80087b8:	f883 6037 	strb.w	r6, [r3, #55]	; 0x37
 80087bc:	f883 c03a 	strb.w	ip, [r3, #58]	; 0x3a
 80087c0:	f8a3 6054 	strh.w	r6, [r3, #84]	; 0x54
 80087c4:	e9c3 660f 	strd	r6, r6, [r3, #60]	; 0x3c
 80087c8:	645e      	str	r6, [r3, #68]	; 0x44
 80087ca:	2328      	movs	r3, #40	; 0x28
 80087cc:	fb03 0101 	mla	r1, r3, r1, r0
 80087d0:	7c02      	ldrb	r2, [r0, #16]
 80087d2:	6800      	ldr	r0, [r0, #0]
 80087d4:	3130      	adds	r1, #48	; 0x30
 80087d6:	f7f7 fd91 	bl	80002fc <USB_HC_StartXfer>
 80087da:	f8d4 2608 	ldr.w	r2, [r4, #1544]	; 0x608
 80087de:	81e2      	strh	r2, [r4, #14]
 80087e0:	2308      	movs	r3, #8
 80087e2:	7623      	strb	r3, [r4, #24]
 80087e4:	e79e      	b.n	8008724 <USBH_CtlReq.part.0+0x98>
 80087e6:	7903      	ldrb	r3, [r0, #4]
 80087e8:	f8d0 2610 	ldr.w	r2, [r0, #1552]	; 0x610
 80087ec:	eb03 0383 	add.w	r3, r3, r3, lsl #2
 80087f0:	eb02 03c3 	add.w	r3, r2, r3, lsl #3
 80087f4:	f893 3054 	ldrb.w	r3, [r3, #84]	; 0x54
 80087f8:	2b01      	cmp	r3, #1
 80087fa:	d058      	beq.n	80088ae <USBH_CtlReq.part.0+0x222>
 80087fc:	2b04      	cmp	r3, #4
 80087fe:	d052      	beq.n	80088a6 <USBH_CtlReq.part.0+0x21a>
 8008800:	2b05      	cmp	r3, #5
 8008802:	bf14      	ite	ne
 8008804:	2501      	movne	r5, #1
 8008806:	2503      	moveq	r5, #3
 8008808:	e78c      	b.n	8008724 <USBH_CtlReq.part.0+0x98>
 800880a:	2200      	movs	r2, #0
 800880c:	7943      	ldrb	r3, [r0, #5]
 800880e:	4611      	mov	r1, r2
 8008810:	f004 fd18 	bl	800d244 <USBH_CtlSendData.constprop.0.isra.0>
 8008814:	f8d4 2608 	ldr.w	r2, [r4, #1544]	; 0x608
 8008818:	81e2      	strh	r2, [r4, #14]
 800881a:	230a      	movs	r3, #10
 800881c:	7623      	strb	r3, [r4, #24]
 800881e:	2501      	movs	r5, #1
 8008820:	e780      	b.n	8008724 <USBH_CtlReq.part.0+0x98>
 8008822:	7943      	ldrb	r3, [r0, #5]
 8008824:	f8d0 2610 	ldr.w	r2, [r0, #1552]	; 0x610
 8008828:	eb03 0383 	add.w	r3, r3, r3, lsl #2
 800882c:	eb02 03c3 	add.w	r3, r2, r3, lsl #3
 8008830:	f893 3054 	ldrb.w	r3, [r3, #84]	; 0x54
 8008834:	2b01      	cmp	r3, #1
 8008836:	d03a      	beq.n	80088ae <USBH_CtlReq.part.0+0x222>
 8008838:	2b02      	cmp	r3, #2
 800883a:	d131      	bne.n	80088a0 <USBH_CtlReq.part.0+0x214>
 800883c:	2309      	movs	r3, #9
 800883e:	7623      	strb	r3, [r4, #24]
 8008840:	2501      	movs	r5, #1
 8008842:	e76f      	b.n	8008724 <USBH_CtlReq.part.0+0x98>
 8008844:	7943      	ldrb	r3, [r0, #5]
 8008846:	8982      	ldrh	r2, [r0, #12]
 8008848:	6881      	ldr	r1, [r0, #8]
 800884a:	f004 fcfb 	bl	800d244 <USBH_CtlSendData.constprop.0.isra.0>
 800884e:	f8d4 2608 	ldr.w	r2, [r4, #1544]	; 0x608
 8008852:	81e2      	strh	r2, [r4, #14]
 8008854:	2306      	movs	r3, #6
 8008856:	7623      	strb	r3, [r4, #24]
 8008858:	2501      	movs	r5, #1
 800885a:	e763      	b.n	8008724 <USBH_CtlReq.part.0+0x98>
 800885c:	7943      	ldrb	r3, [r0, #5]
 800885e:	f8d0 2610 	ldr.w	r2, [r0, #1552]	; 0x610
 8008862:	eb03 0383 	add.w	r3, r3, r3, lsl #2
 8008866:	eb02 03c3 	add.w	r3, r2, r3, lsl #3
 800886a:	f893 3054 	ldrb.w	r3, [r3, #84]	; 0x54
 800886e:	2b01      	cmp	r3, #1
 8008870:	d03c      	beq.n	80088ec <USBH_CtlReq.part.0+0x260>
 8008872:	2b05      	cmp	r3, #5
 8008874:	d034      	beq.n	80088e0 <USBH_CtlReq.part.0+0x254>
 8008876:	2b02      	cmp	r3, #2
 8008878:	d043      	beq.n	8008902 <USBH_CtlReq.part.0+0x276>
 800887a:	2b04      	cmp	r3, #4
 800887c:	f47f af63 	bne.w	8008746 <USBH_CtlReq.part.0+0xba>
 8008880:	230b      	movs	r3, #11
 8008882:	7603      	strb	r3, [r0, #24]
 8008884:	e722      	b.n	80086cc <USBH_CtlReq.part.0+0x40>
 8008886:	7903      	ldrb	r3, [r0, #4]
 8008888:	f8d0 2610 	ldr.w	r2, [r0, #1552]	; 0x610
 800888c:	eb03 0383 	add.w	r3, r3, r3, lsl #2
 8008890:	eb02 03c3 	add.w	r3, r2, r3, lsl #3
 8008894:	f893 3054 	ldrb.w	r3, [r3, #84]	; 0x54
 8008898:	2b01      	cmp	r3, #1
 800889a:	d0cf      	beq.n	800883c <USBH_CtlReq.part.0+0x1b0>
 800889c:	2b05      	cmp	r3, #5
 800889e:	d037      	beq.n	8008910 <USBH_CtlReq.part.0+0x284>
 80088a0:	2b04      	cmp	r3, #4
 80088a2:	f47f af50 	bne.w	8008746 <USBH_CtlReq.part.0+0xba>
 80088a6:	230b      	movs	r3, #11
 80088a8:	7623      	strb	r3, [r4, #24]
 80088aa:	2501      	movs	r5, #1
 80088ac:	e73a      	b.n	8008724 <USBH_CtlReq.part.0+0x98>
 80088ae:	2500      	movs	r5, #0
 80088b0:	2301      	movs	r3, #1
 80088b2:	70a3      	strb	r3, [r4, #2]
 80088b4:	7625      	strb	r5, [r4, #24]
 80088b6:	4628      	mov	r0, r5
 80088b8:	bd70      	pop	{r4, r5, r6, pc}
 80088ba:	f8d0 5610 	ldr.w	r5, [r0, #1552]	; 0x610
 80088be:	f895 3288 	ldrb.w	r3, [r5, #648]	; 0x288
 80088c2:	2b01      	cmp	r3, #1
 80088c4:	d008      	beq.n	80088d8 <USBH_CtlReq.part.0+0x24c>
 80088c6:	2301      	movs	r3, #1
 80088c8:	f885 3288 	strb.w	r3, [r5, #648]	; 0x288
 80088cc:	6828      	ldr	r0, [r5, #0]
 80088ce:	f7f7 ff9d 	bl	800080c <USB_StopHost>
 80088d2:	2300      	movs	r3, #0
 80088d4:	f885 3288 	strb.w	r3, [r5, #648]	; 0x288
 80088d8:	2501      	movs	r5, #1
 80088da:	7625      	strb	r5, [r4, #24]
 80088dc:	70a5      	strb	r5, [r4, #2]
 80088de:	e721      	b.n	8008724 <USBH_CtlReq.part.0+0x98>
 80088e0:	230c      	movs	r3, #12
 80088e2:	7603      	strb	r3, [r0, #24]
 80088e4:	2503      	movs	r5, #3
 80088e6:	e71d      	b.n	8008724 <USBH_CtlReq.part.0+0x98>
 80088e8:	2b00      	cmp	r3, #0
 80088ea:	dba7      	blt.n	800883c <USBH_CtlReq.part.0+0x1b0>
 80088ec:	2307      	movs	r3, #7
 80088ee:	7623      	strb	r3, [r4, #24]
 80088f0:	2501      	movs	r5, #1
 80088f2:	e717      	b.n	8008724 <USBH_CtlReq.part.0+0x98>
 80088f4:	8ac2      	ldrh	r2, [r0, #22]
 80088f6:	f990 3010 	ldrsb.w	r3, [r0, #16]
 80088fa:	2a00      	cmp	r2, #0
 80088fc:	d0f4      	beq.n	80088e8 <USBH_CtlReq.part.0+0x25c>
 80088fe:	2b00      	cmp	r3, #0
 8008900:	db03      	blt.n	800890a <USBH_CtlReq.part.0+0x27e>
 8008902:	2305      	movs	r3, #5
 8008904:	7623      	strb	r3, [r4, #24]
 8008906:	2501      	movs	r5, #1
 8008908:	e70c      	b.n	8008724 <USBH_CtlReq.part.0+0x98>
 800890a:	2303      	movs	r3, #3
 800890c:	7603      	strb	r3, [r0, #24]
 800890e:	e709      	b.n	8008724 <USBH_CtlReq.part.0+0x98>
 8008910:	2503      	movs	r5, #3
 8008912:	e707      	b.n	8008724 <USBH_CtlReq.part.0+0x98>

08008914 <USBH_MIDI_Process>:
USBH_MIDI_Process():
 8008914:	e92d 4f70 	stmdb	sp!, {r4, r5, r6, r8, r9, sl, fp, lr}
 8008918:	f8d0 35c4 	ldr.w	r3, [r0, #1476]	; 0x5c4
 800891c:	ed2d 8b04 	vpush	{d8-d9}
 8008920:	69de      	ldr	r6, [r3, #28]
 8008922:	7834      	ldrb	r4, [r6, #0]
 8008924:	2c01      	cmp	r4, #1
 8008926:	b086      	sub	sp, #24
 8008928:	4605      	mov	r5, r0
 800892a:	d009      	beq.n	8008940 <USBH_MIDI_Process+0x2c>
 800892c:	2c02      	cmp	r4, #2
 800892e:	d03e      	beq.n	80089ae <USBH_MIDI_Process+0x9a>
 8008930:	b104      	cbz	r4, 8008934 <USBH_MIDI_Process+0x20>
 8008932:	2401      	movs	r4, #1
 8008934:	4620      	mov	r0, r4
 8008936:	b006      	add	sp, #24
 8008938:	ecbd 8b04 	vpop	{d8-d9}
 800893c:	e8bd 8f70 	ldmia.w	sp!, {r4, r5, r6, r8, r9, sl, fp, pc}
 8008940:	7e33      	ldrb	r3, [r6, #24]
 8008942:	2b01      	cmp	r3, #1
 8008944:	d049      	beq.n	80089da <USBH_MIDI_Process+0xc6>
 8008946:	2b02      	cmp	r3, #2
 8008948:	d10e      	bne.n	8008968 <USBH_MIDI_Process+0x54>
 800894a:	78b3      	ldrb	r3, [r6, #2]
 800894c:	f8d0 2610 	ldr.w	r2, [r0, #1552]	; 0x610
 8008950:	eb03 0383 	add.w	r3, r3, r3, lsl #2
 8008954:	eb02 03c3 	add.w	r3, r2, r3, lsl #3
 8008958:	f893 3054 	ldrb.w	r3, [r3, #84]	; 0x54
 800895c:	2b01      	cmp	r3, #1
 800895e:	f000 80cc 	beq.w	8008afa <USBH_MIDI_Process+0x1e6>
 8008962:	2b02      	cmp	r3, #2
 8008964:	bf08      	it	eq
 8008966:	7634      	strbeq	r4, [r6, #24]
 8008968:	7e73      	ldrb	r3, [r6, #25]
 800896a:	2b03      	cmp	r3, #3
 800896c:	d07c      	beq.n	8008a68 <USBH_MIDI_Process+0x154>
 800896e:	2b04      	cmp	r3, #4
 8008970:	d1df      	bne.n	8008932 <USBH_MIDI_Process+0x1e>
 8008972:	7873      	ldrb	r3, [r6, #1]
 8008974:	f8d5 2610 	ldr.w	r2, [r5, #1552]	; 0x610
 8008978:	eb03 0383 	add.w	r3, r3, r3, lsl #2
 800897c:	eb02 03c3 	add.w	r3, r2, r3, lsl #3
 8008980:	f893 4054 	ldrb.w	r4, [r3, #84]	; 0x54
 8008984:	2c01      	cmp	r4, #1
 8008986:	d1d4      	bne.n	8008932 <USBH_MIDI_Process+0x1e>
 8008988:	6c5b      	ldr	r3, [r3, #68]	; 0x44
 800898a:	8af2      	ldrh	r2, [r6, #22]
 800898c:	b299      	uxth	r1, r3
 800898e:	1a50      	subs	r0, r2, r1
 8008990:	2800      	cmp	r0, #0
 8008992:	f340 80c1 	ble.w	8008b18 <USBH_MIDI_Process+0x204>
 8008996:	8930      	ldrh	r0, [r6, #8]
 8008998:	4288      	cmp	r0, r1
 800899a:	f080 80bd 	bcs.w	8008b18 <USBH_MIDI_Process+0x204>
 800899e:	6930      	ldr	r0, [r6, #16]
 80089a0:	1a53      	subs	r3, r2, r1
 80089a2:	4401      	add	r1, r0
 80089a4:	2203      	movs	r2, #3
 80089a6:	82f3      	strh	r3, [r6, #22]
 80089a8:	6131      	str	r1, [r6, #16]
 80089aa:	7672      	strb	r2, [r6, #25]
 80089ac:	e7c2      	b.n	8008934 <USBH_MIDI_Process+0x20>
 80089ae:	7884      	ldrb	r4, [r0, #2]
 80089b0:	2c01      	cmp	r4, #1
 80089b2:	d007      	beq.n	80089c4 <USBH_MIDI_Process+0xb0>
 80089b4:	2c02      	cmp	r4, #2
 80089b6:	d1bc      	bne.n	8008932 <USBH_MIDI_Process+0x1e>
 80089b8:	f7ff fe68 	bl	800868c <USBH_CtlReq.part.0>
 80089bc:	2800      	cmp	r0, #0
 80089be:	d1b8      	bne.n	8008932 <USBH_MIDI_Process+0x1e>
 80089c0:	7030      	strb	r0, [r6, #0]
 80089c2:	e7b6      	b.n	8008932 <USBH_MIDI_Process+0x1e>
 80089c4:	2300      	movs	r3, #0
 80089c6:	f44f 7181 	mov.w	r1, #258	; 0x102
 80089ca:	2202      	movs	r2, #2
 80089cc:	e9c0 1304 	strd	r1, r3, [r0, #16]
 80089d0:	6083      	str	r3, [r0, #8]
 80089d2:	8183      	strh	r3, [r0, #12]
 80089d4:	7604      	strb	r4, [r0, #24]
 80089d6:	7082      	strb	r2, [r0, #2]
 80089d8:	e7ac      	b.n	8008934 <USBH_MIDI_Process+0x20>
 80089da:	78b1      	ldrb	r1, [r6, #2]
 80089dc:	f890 221d 	ldrb.w	r2, [r0, #541]	; 0x21d
 80089e0:	f8d0 0610 	ldr.w	r0, [r0, #1552]	; 0x610
 80089e4:	f8b6 8014 	ldrh.w	r8, [r6, #20]
 80089e8:	f8b6 9006 	ldrh.w	r9, [r6, #6]
 80089ec:	f8d6 e00c 	ldr.w	lr, [r6, #12]
 80089f0:	eb01 0c81 	add.w	ip, r1, r1, lsl #2
 80089f4:	eb00 0ccc 	add.w	ip, r0, ip, lsl #3
 80089f8:	fab2 f282 	clz	r2, r2
 80089fc:	2302      	movs	r3, #2
 80089fe:	45c8      	cmp	r8, r9
 8008a00:	ea4f 1252 	mov.w	r2, r2, lsr #5
 8008a04:	f88c 3037 	strb.w	r3, [ip, #55]	; 0x37
 8008a08:	d85d      	bhi.n	8008ac6 <USBH_MIDI_Process+0x1b2>
 8008a0a:	f89c 9049 	ldrb.w	r9, [ip, #73]	; 0x49
 8008a0e:	f1b9 0f00 	cmp.w	r9, #0
 8008a12:	bf08      	it	eq
 8008a14:	464b      	moveq	r3, r9
 8008a16:	f88c 303a 	strb.w	r3, [ip, #58]	; 0x3a
 8008a1a:	f89c 9054 	ldrb.w	r9, [ip, #84]	; 0x54
 8008a1e:	2300      	movs	r3, #0
 8008a20:	f88c 3033 	strb.w	r3, [ip, #51]	; 0x33
 8008a24:	008b      	lsls	r3, r1, #2
 8008a26:	440b      	add	r3, r1
 8008a28:	f1b9 0f02 	cmp.w	r9, #2
 8008a2c:	bf18      	it	ne
 8008a2e:	f88c 2035 	strbne.w	r2, [ip, #53]	; 0x35
 8008a32:	eb00 02c3 	add.w	r2, r0, r3, lsl #3
 8008a36:	e9c2 e80f 	strd	lr, r8, [r2, #60]	; 0x3c
 8008a3a:	4613      	mov	r3, r2
 8008a3c:	f04f 0c00 	mov.w	ip, #0
 8008a40:	f883 1031 	strb.w	r1, [r3, #49]	; 0x31
 8008a44:	f8c3 c044 	str.w	ip, [r3, #68]	; 0x44
 8008a48:	2328      	movs	r3, #40	; 0x28
 8008a4a:	fb03 0101 	mla	r1, r3, r1, r0
 8008a4e:	f8a2 c054 	strh.w	ip, [r2, #84]	; 0x54
 8008a52:	7c02      	ldrb	r2, [r0, #16]
 8008a54:	6800      	ldr	r0, [r0, #0]
 8008a56:	3130      	adds	r1, #48	; 0x30
 8008a58:	f7f7 fc50 	bl	80002fc <USB_HC_StartXfer>
 8008a5c:	2302      	movs	r3, #2
 8008a5e:	7633      	strb	r3, [r6, #24]
 8008a60:	f8d5 35c4 	ldr.w	r3, [r5, #1476]	; 0x5c4
 8008a64:	69de      	ldr	r6, [r3, #28]
 8008a66:	e77f      	b.n	8008968 <USBH_MIDI_Process+0x54>
 8008a68:	7871      	ldrb	r1, [r6, #1]
 8008a6a:	f8d5 5610 	ldr.w	r5, [r5, #1552]	; 0x610
 8008a6e:	f8d6 e010 	ldr.w	lr, [r6, #16]
 8008a72:	f8b6 8008 	ldrh.w	r8, [r6, #8]
 8008a76:	eb01 0381 	add.w	r3, r1, r1, lsl #2
 8008a7a:	eb05 00c3 	add.w	r0, r5, r3, lsl #3
 8008a7e:	f04f 0c02 	mov.w	ip, #2
 8008a82:	f890 2048 	ldrb.w	r2, [r0, #72]	; 0x48
 8008a86:	f880 c037 	strb.w	ip, [r0, #55]	; 0x37
 8008a8a:	2a00      	cmp	r2, #0
 8008a8c:	bf18      	it	ne
 8008a8e:	4662      	movne	r2, ip
 8008a90:	f880 203a 	strb.w	r2, [r0, #58]	; 0x3a
 8008a94:	2328      	movs	r3, #40	; 0x28
 8008a96:	2200      	movs	r2, #0
 8008a98:	f04f 0c01 	mov.w	ip, #1
 8008a9c:	f880 1031 	strb.w	r1, [r0, #49]	; 0x31
 8008aa0:	f880 c033 	strb.w	ip, [r0, #51]	; 0x33
 8008aa4:	f8a0 2054 	strh.w	r2, [r0, #84]	; 0x54
 8008aa8:	fb03 5101 	mla	r1, r3, r1, r5
 8008aac:	6442      	str	r2, [r0, #68]	; 0x44
 8008aae:	f8c0 8040 	str.w	r8, [r0, #64]	; 0x40
 8008ab2:	f8c0 e03c 	str.w	lr, [r0, #60]	; 0x3c
 8008ab6:	7c2a      	ldrb	r2, [r5, #16]
 8008ab8:	6828      	ldr	r0, [r5, #0]
 8008aba:	3130      	adds	r1, #48	; 0x30
 8008abc:	f7f7 fc1e 	bl	80002fc <USB_HC_StartXfer>
 8008ac0:	2304      	movs	r3, #4
 8008ac2:	7673      	strb	r3, [r6, #25]
 8008ac4:	e736      	b.n	8008934 <USBH_MIDI_Process+0x20>
 8008ac6:	f89c 8049 	ldrb.w	r8, [ip, #73]	; 0x49
 8008aca:	f1b8 0f00 	cmp.w	r8, #0
 8008ace:	bf08      	it	eq
 8008ad0:	4643      	moveq	r3, r8
 8008ad2:	f88c 303a 	strb.w	r3, [ip, #58]	; 0x3a
 8008ad6:	f89c 8054 	ldrb.w	r8, [ip, #84]	; 0x54
 8008ada:	2300      	movs	r3, #0
 8008adc:	f88c 3033 	strb.w	r3, [ip, #51]	; 0x33
 8008ae0:	008b      	lsls	r3, r1, #2
 8008ae2:	440b      	add	r3, r1
 8008ae4:	f1b8 0f02 	cmp.w	r8, #2
 8008ae8:	bf18      	it	ne
 8008aea:	f88c 2035 	strbne.w	r2, [ip, #53]	; 0x35
 8008aee:	eb00 02c3 	add.w	r2, r0, r3, lsl #3
 8008af2:	e9c2 e90f 	strd	lr, r9, [r2, #60]	; 0x3c
 8008af6:	4613      	mov	r3, r2
 8008af8:	e7a0      	b.n	8008a3c <USBH_MIDI_Process+0x128>
 8008afa:	8ab3      	ldrh	r3, [r6, #20]
 8008afc:	88f2      	ldrh	r2, [r6, #6]
 8008afe:	4293      	cmp	r3, r2
 8008b00:	d803      	bhi.n	8008b0a <USBH_MIDI_Process+0x1f6>
 8008b02:	2300      	movs	r3, #0
 8008b04:	82b3      	strh	r3, [r6, #20]
 8008b06:	7633      	strb	r3, [r6, #24]
 8008b08:	e72e      	b.n	8008968 <USBH_MIDI_Process+0x54>
 8008b0a:	68f1      	ldr	r1, [r6, #12]
 8008b0c:	7634      	strb	r4, [r6, #24]
 8008b0e:	1a9b      	subs	r3, r3, r2
 8008b10:	440a      	add	r2, r1
 8008b12:	60f2      	str	r2, [r6, #12]
 8008b14:	82b3      	strh	r3, [r6, #20]
 8008b16:	e727      	b.n	8008968 <USBH_MIDI_Process+0x54>
 8008b18:	f8df 83a8 	ldr.w	r8, [pc, #936]	; 8008ec4 <USBH_MIDI_Process+0x5b0>
 8008b1c:	2300      	movs	r3, #0
 8008b1e:	7673      	strb	r3, [r6, #25]
 8008b20:	f898 2000 	ldrb.w	r2, [r8]
 8008b24:	f8d8 35c4 	ldr.w	r3, [r8, #1476]	; 0x5c4
 8008b28:	2a0a      	cmp	r2, #10
 8008b2a:	69db      	ldr	r3, [r3, #28]
 8008b2c:	d00c      	beq.n	8008b48 <USBH_MIDI_Process+0x234>
 8008b2e:	781a      	ldrb	r2, [r3, #0]
 8008b30:	2a01      	cmp	r2, #1
 8008b32:	f63f aefe 	bhi.w	8008932 <USBH_MIDI_Process+0x1e>
 8008b36:	4dd7      	ldr	r5, [pc, #860]	; (8008e94 <USBH_MIDI_Process+0x580>)
 8008b38:	611d      	str	r5, [r3, #16]
 8008b3a:	2040      	movs	r0, #64	; 0x40
 8008b3c:	2101      	movs	r1, #1
 8008b3e:	2203      	movs	r2, #3
 8008b40:	82d8      	strh	r0, [r3, #22]
 8008b42:	7019      	strb	r1, [r3, #0]
 8008b44:	765a      	strb	r2, [r3, #25]
 8008b46:	e6f5      	b.n	8008934 <USBH_MIDI_Process+0x20>
 8008b48:	785a      	ldrb	r2, [r3, #1]
 8008b4a:	f8d8 1610 	ldr.w	r1, [r8, #1552]	; 0x610
 8008b4e:	eb02 0282 	add.w	r2, r2, r2, lsl #2
 8008b52:	eb01 02c2 	add.w	r2, r1, r2, lsl #3
 8008b56:	f8b2 2044 	ldrh.w	r2, [r2, #68]	; 0x44
 8008b5a:	2a03      	cmp	r2, #3
 8008b5c:	ea4f 0192 	mov.w	r1, r2, lsr #2
 8008b60:	d9e5      	bls.n	8008b2e <USBH_MIDI_Process+0x21a>
 8008b62:	1e4a      	subs	r2, r1, #1
 8008b64:	b292      	uxth	r2, r2
 8008b66:	2900      	cmp	r1, #0
 8008b68:	d0e1      	beq.n	8008b2e <USBH_MIDI_Process+0x21a>
 8008b6a:	f8df a35c 	ldr.w	sl, [pc, #860]	; 8008ec8 <USBH_MIDI_Process+0x5b4>
 8008b6e:	f8df 935c 	ldr.w	r9, [pc, #860]	; 8008ecc <USBH_MIDI_Process+0x5b8>
 8008b72:	4dc9      	ldr	r5, [pc, #804]	; (8008e98 <USBH_MIDI_Process+0x584>)
 8008b74:	f50a 5380 	add.w	r3, sl, #4096	; 0x1000
 8008b78:	f503 63be 	add.w	r3, r3, #1520	; 0x5f0
 8008b7c:	9302      	str	r3, [sp, #8]
 8008b7e:	f509 5380 	add.w	r3, r9, #4096	; 0x1000
 8008b82:	1d2e      	adds	r6, r5, #4
 8008b84:	f503 63be 	add.w	r3, r3, #1520	; 0x5f0
 8008b88:	eb06 0682 	add.w	r6, r6, r2, lsl #2
 8008b8c:	9303      	str	r3, [sp, #12]
 8008b8e:	e003      	b.n	8008b98 <USBH_MIDI_Process+0x284>
 8008b90:	3504      	adds	r5, #4
 8008b92:	42ae      	cmp	r6, r5
 8008b94:	f001 805f 	beq.w	8009c56 <USBH_MIDI_Process+0x1342>
 8008b98:	f815 0c04 	ldrb.w	r0, [r5, #-4]
 8008b9c:	f815 2c03 	ldrb.w	r2, [r5, #-3]
 8008ba0:	f815 1c02 	ldrb.w	r1, [r5, #-2]
 8008ba4:	f815 3c01 	ldrb.w	r3, [r5, #-1]
 8008ba8:	2800      	cmp	r0, #0
 8008baa:	f041 8047 	bne.w	8009c3c <USBH_MIDI_Process+0x1328>
 8008bae:	f002 02f0 	and.w	r2, r2, #240	; 0xf0
 8008bb2:	2ab0      	cmp	r2, #176	; 0xb0
 8008bb4:	d1ec      	bne.n	8008b90 <USBH_MIDI_Process+0x27c>
 8008bb6:	3902      	subs	r1, #2
 8008bb8:	2975      	cmp	r1, #117	; 0x75
 8008bba:	d8e9      	bhi.n	8008b90 <USBH_MIDI_Process+0x27c>
 8008bbc:	a201      	add	r2, pc, #4	; (adr r2, 8008bc4 <USBH_MIDI_Process+0x2b0>)
 8008bbe:	f852 f021 	ldr.w	pc, [r2, r1, lsl #2]
 8008bc2:	bf00      	nop
 8008bc4:	08009001 	.word	0x08009001
 8008bc8:	08008fc7 	.word	0x08008fc7
 8008bcc:	08009019 	.word	0x08009019
 8008bd0:	08008f85 	.word	0x08008f85
 8008bd4:	08008ed5 	.word	0x08008ed5
 8008bd8:	08008b91 	.word	0x08008b91
 8008bdc:	08008e11 	.word	0x08008e11
 8008be0:	08008db5 	.word	0x08008db5
 8008be4:	08008b91 	.word	0x08008b91
 8008be8:	08008b91 	.word	0x08008b91
 8008bec:	08008ded 	.word	0x08008ded
 8008bf0:	08009127 	.word	0x08009127
 8008bf4:	080090ef 	.word	0x080090ef
 8008bf8:	080090d7 	.word	0x080090d7
 8008bfc:	080090bf 	.word	0x080090bf
 8008c00:	080090a7 	.word	0x080090a7
 8008c04:	0800907d 	.word	0x0800907d
 8008c08:	0800905f 	.word	0x0800905f
 8008c0c:	08009043 	.word	0x08009043
 8008c10:	0800938d 	.word	0x0800938d
 8008c14:	08009363 	.word	0x08009363
 8008c18:	08009355 	.word	0x08009355
 8008c1c:	08009345 	.word	0x08009345
 8008c20:	080093c3 	.word	0x080093c3
 8008c24:	080093b1 	.word	0x080093b1
 8008c28:	080093db 	.word	0x080093db
 8008c2c:	08009337 	.word	0x08009337
 8008c30:	0800931b 	.word	0x0800931b
 8008c34:	080092f5 	.word	0x080092f5
 8008c38:	08009215 	.word	0x08009215
 8008c3c:	08008b91 	.word	0x08008b91
 8008c40:	08009203 	.word	0x08009203
 8008c44:	080091f3 	.word	0x080091f3
 8008c48:	080091e1 	.word	0x080091e1
 8008c4c:	080091d1 	.word	0x080091d1
 8008c50:	0800914f 	.word	0x0800914f
 8008c54:	08008da9 	.word	0x08008da9
 8008c58:	08008d9d 	.word	0x08008d9d
 8008c5c:	08009c09 	.word	0x08009c09
 8008c60:	08009bd3 	.word	0x08009bd3
 8008c64:	08009b99 	.word	0x08009b99
 8008c68:	08009b67 	.word	0x08009b67
 8008c6c:	08008b91 	.word	0x08008b91
 8008c70:	08008b91 	.word	0x08008b91
 8008c74:	08008b91 	.word	0x08008b91
 8008c78:	08008b91 	.word	0x08008b91
 8008c7c:	08008b91 	.word	0x08008b91
 8008c80:	08008b91 	.word	0x08008b91
 8008c84:	08009b2d 	.word	0x08009b2d
 8008c88:	08009ab7 	.word	0x08009ab7
 8008c8c:	08009a85 	.word	0x08009a85
 8008c90:	080099ff 	.word	0x080099ff
 8008c94:	08008db5 	.word	0x08008db5
 8008c98:	080099bd 	.word	0x080099bd
 8008c9c:	0800999b 	.word	0x0800999b
 8008ca0:	08009981 	.word	0x08009981
 8008ca4:	08009967 	.word	0x08009967
 8008ca8:	08009941 	.word	0x08009941
 8008cac:	08009911 	.word	0x08009911
 8008cb0:	080098c7 	.word	0x080098c7
 8008cb4:	08009879 	.word	0x08009879
 8008cb8:	08009837 	.word	0x08009837
 8008cbc:	08008b91 	.word	0x08008b91
 8008cc0:	0800981d 	.word	0x0800981d
 8008cc4:	08009803 	.word	0x08009803
 8008cc8:	080098b3 	.word	0x080098b3
 8008ccc:	0800989b 	.word	0x0800989b
 8008cd0:	08008b91 	.word	0x08008b91
 8008cd4:	08008b91 	.word	0x08008b91
 8008cd8:	08008b91 	.word	0x08008b91
 8008cdc:	08008b91 	.word	0x08008b91
 8008ce0:	08008b91 	.word	0x08008b91
 8008ce4:	08008b91 	.word	0x08008b91
 8008ce8:	08008b91 	.word	0x08008b91
 8008cec:	080097e5 	.word	0x080097e5
 8008cf0:	080097c7 	.word	0x080097c7
 8008cf4:	08008b91 	.word	0x08008b91
 8008cf8:	08008b91 	.word	0x08008b91
 8008cfc:	08008b91 	.word	0x08008b91
 8008d00:	08008da9 	.word	0x08008da9
 8008d04:	08008d9d 	.word	0x08008d9d
 8008d08:	08008b91 	.word	0x08008b91
 8008d0c:	08008b91 	.word	0x08008b91
 8008d10:	08009765 	.word	0x08009765
 8008d14:	0800973b 	.word	0x0800973b
 8008d18:	08009711 	.word	0x08009711
 8008d1c:	08009679 	.word	0x08009679
 8008d20:	0800965f 	.word	0x0800965f
 8008d24:	080095d9 	.word	0x080095d9
 8008d28:	080095a5 	.word	0x080095a5
 8008d2c:	0800957f 	.word	0x0800957f
 8008d30:	0800955d 	.word	0x0800955d
 8008d34:	08009537 	.word	0x08009537
 8008d38:	08009511 	.word	0x08009511
 8008d3c:	080094eb 	.word	0x080094eb
 8008d40:	080094c5 	.word	0x080094c5
 8008d44:	08008b91 	.word	0x08008b91
 8008d48:	08008b91 	.word	0x08008b91
 8008d4c:	08008b91 	.word	0x08008b91
 8008d50:	08008b91 	.word	0x08008b91
 8008d54:	08009497 	.word	0x08009497
 8008d58:	08009475 	.word	0x08009475
 8008d5c:	08008b91 	.word	0x08008b91
 8008d60:	0800945b 	.word	0x0800945b
 8008d64:	08009441 	.word	0x08009441
 8008d68:	08008b91 	.word	0x08008b91
 8008d6c:	08009425 	.word	0x08009425
 8008d70:	08009409 	.word	0x08009409
 8008d74:	080093ed 	.word	0x080093ed
 8008d78:	08008b91 	.word	0x08008b91
 8008d7c:	08008b91 	.word	0x08008b91
 8008d80:	08008b91 	.word	0x08008b91
 8008d84:	08008b91 	.word	0x08008b91
 8008d88:	08008b91 	.word	0x08008b91
 8008d8c:	08008b91 	.word	0x08008b91
 8008d90:	0800978f 	.word	0x0800978f
 8008d94:	080097ab 	.word	0x080097ab
 8008d98:	080099e3 	.word	0x080099e3
 8008d9c:	2b7f      	cmp	r3, #127	; 0x7f
 8008d9e:	f47f aef7 	bne.w	8008b90 <USBH_MIDI_Process+0x27c>
 8008da2:	f7f8 fea9 	bl	8001af8 <MagicPatch.part.0>
 8008da6:	e6f3      	b.n	8008b90 <USBH_MIDI_Process+0x27c>
 8008da8:	2b7f      	cmp	r3, #127	; 0x7f
 8008daa:	f47f aef1 	bne.w	8008b90 <USBH_MIDI_Process+0x27c>
 8008dae:	f7f8 fc9f 	bl	80016f0 <MagicFX.part.0>
 8008db2:	e6ed      	b.n	8008b90 <USBH_MIDI_Process+0x27c>
 8008db4:	ee07 3a90 	vmov	s15, r3
 8008db8:	ed9f 7a38 	vldr	s14, [pc, #224]	; 8008e9c <USBH_MIDI_Process+0x588>
 8008dbc:	f8df b0e8 	ldr.w	fp, [pc, #232]	; 8008ea8 <USBH_MIDI_Process+0x594>
 8008dc0:	eeb8 6ae7 	vcvt.f32.s32	s12, s15
 8008dc4:	eef7 7a00 	vmov.f32	s15, #112	; 0x3f800000  1.0
 8008dc8:	eec6 6a07 	vdiv.f32	s13, s12, s14
 8008dcc:	ed9f 7a34 	vldr	s14, [pc, #208]	; 8008ea0 <USBH_MIDI_Process+0x58c>
 8008dd0:	ee77 7ae6 	vsub.f32	s15, s15, s13
 8008dd4:	eef4 7ac7 	vcmpe.f32	s15, s14
 8008dd8:	eef1 fa10 	vmrs	APSR_nzcv, fpscr
 8008ddc:	edcb 7a7f 	vstr	s15, [fp, #508]	; 0x1fc
 8008de0:	f57f aed6 	bpl.w	8008b90 <USBH_MIDI_Process+0x27c>
 8008de4:	4b2f      	ldr	r3, [pc, #188]	; (8008ea4 <USBH_MIDI_Process+0x590>)
 8008de6:	f8cb 31fc 	str.w	r3, [fp, #508]	; 0x1fc
 8008dea:	e6d1      	b.n	8008b90 <USBH_MIDI_Process+0x27c>
 8008dec:	ee07 3a90 	vmov	s15, r3
 8008df0:	eddf 6a2a 	vldr	s13, [pc, #168]	; 8008e9c <USBH_MIDI_Process+0x588>
 8008df4:	4b2c      	ldr	r3, [pc, #176]	; (8008ea8 <USBH_MIDI_Process+0x594>)
 8008df6:	eeb8 6ae7 	vcvt.f32.s32	s12, s15
 8008dfa:	eeb1 7a08 	vmov.f32	s14, #24	; 0x40c00000  6.0
 8008dfe:	eec6 7a26 	vdiv.f32	s15, s12, s13
 8008e02:	ee67 7aa7 	vmul.f32	s15, s15, s15
 8008e06:	ee67 7a87 	vmul.f32	s15, s15, s14
 8008e0a:	edc3 7a82 	vstr	s15, [r3, #520]	; 0x208
 8008e0e:	e6bf      	b.n	8008b90 <USBH_MIDI_Process+0x27c>
 8008e10:	ee07 3a90 	vmov	s15, r3
 8008e14:	eef8 0ae7 	vcvt.f32.s32	s1, s15
 8008e18:	eddf 7a20 	vldr	s15, [pc, #128]	; 8008e9c <USBH_MIDI_Process+0x588>
 8008e1c:	ed9f 0a23 	vldr	s0, [pc, #140]	; 8008eac <USBH_MIDI_Process+0x598>
 8008e20:	eec0 0aa7 	vdiv.f32	s1, s1, s15
 8008e24:	f004 fbb6 	bl	800d594 <powf>
 8008e28:	4b21      	ldr	r3, [pc, #132]	; (8008eb0 <USBH_MIDI_Process+0x59c>)
 8008e2a:	eddf 7a22 	vldr	s15, [pc, #136]	; 8008eb4 <USBH_MIDI_Process+0x5a0>
 8008e2e:	eddf 5a22 	vldr	s11, [pc, #136]	; 8008eb8 <USBH_MIDI_Process+0x5a4>
 8008e32:	ee20 0a27 	vmul.f32	s0, s0, s15
 8008e36:	eddf 7a21 	vldr	s15, [pc, #132]	; 8008ebc <USBH_MIDI_Process+0x5a8>
 8008e3a:	ee80 7a27 	vdiv.f32	s14, s0, s15
 8008e3e:	eef6 4a00 	vmov.f32	s9, #96	; 0x3f000000  0.5
 8008e42:	eeb4 7a65 	vcmp.f32	s14, s11
 8008e46:	eef1 fa10 	vmrs	APSR_nzcv, fpscr
 8008e4a:	ed83 7a00 	vstr	s14, [r3]
 8008e4e:	bfc8      	it	gt
 8008e50:	eeb0 7a65 	vmovgt.f32	s14, s11
 8008e54:	ee27 7a24 	vmul.f32	s14, s14, s9
 8008e58:	eddf 7a19 	vldr	s15, [pc, #100]	; 8008ec0 <USBH_MIDI_Process+0x5ac>
 8008e5c:	4b12      	ldr	r3, [pc, #72]	; (8008ea8 <USBH_MIDI_Process+0x594>)
 8008e5e:	ee67 7a27 	vmul.f32	s15, s14, s15
 8008e62:	eef1 6a04 	vmov.f32	s13, #20	; 0x40a00000  5.0
 8008e66:	ee77 4aa7 	vadd.f32	s9, s15, s15
 8008e6a:	ee67 5aa7 	vmul.f32	s11, s15, s15
 8008e6e:	ee54 6aa7 	vnmls.f32	s13, s9, s15
 8008e72:	eeba 6a0e 	vmov.f32	s12, #174	; 0xc1700000 -15.0
 8008e76:	ee27 6a86 	vmul.f32	s12, s15, s12
 8008e7a:	ee05 6aa7 	vmla.f32	s12, s11, s15
 8008e7e:	eeb0 5a08 	vmov.f32	s10, #8	; 0x40400000  3.0
 8008e82:	ee66 7a85 	vmul.f32	s15, s13, s10
 8008e86:	ed83 7a7d 	vstr	s14, [r3, #500]	; 0x1f4
 8008e8a:	eec6 6a27 	vdiv.f32	s13, s12, s15
 8008e8e:	edc3 6a7e 	vstr	s13, [r3, #504]	; 0x1f8
 8008e92:	e67d      	b.n	8008b90 <USBH_MIDI_Process+0x27c>
 8008e94:	2000090c 	.word	0x2000090c
 8008e98:	20000910 	.word	0x20000910
 8008e9c:	42fe0000 	.word	0x42fe0000
 8008ea0:	3c23d70a 	.word	0x3c23d70a
 8008ea4:	3c23d70a 	.word	0x3c23d70a
 8008ea8:	10000000 	.word	0x10000000
 8008eac:	42c80000 	.word	0x42c80000
 8008eb0:	2001edc4 	.word	0x2001edc4
 8008eb4:	42a00000 	.word	0x42a00000
 8008eb8:	3f733333 	.word	0x3f733333
 8008ebc:	472c4400 	.word	0x472c4400
 8008ec0:	40490fdb 	.word	0x40490fdb
 8008ec4:	2001f0a0 	.word	0x2001f0a0
 8008ec8:	100012e8 	.word	0x100012e8
 8008ecc:	100028e0 	.word	0x100028e0
 8008ed0:	3df1e3c8 	.word	0x3df1e3c8
 8008ed4:	ee07 3a90 	vmov	s15, r3
 8008ed8:	eeb8 0ae7 	vcvt.f32.s32	s0, s15
 8008edc:	ed5f 7a04 	vldr	s15, [pc, #-16]	; 8008ed0 <USBH_MIDI_Process+0x5bc>
 8008ee0:	f8df b39c 	ldr.w	fp, [pc, #924]	; 8009280 <USBH_MIDI_Process+0x96c>
 8008ee4:	ee20 0a27 	vmul.f32	s0, s0, s15
 8008ee8:	f004 faac 	bl	800d444 <rintf>
 8008eec:	eefc 7ac0 	vcvt.u32.f32	s15, s0
 8008ef0:	edcd 7a01 	vstr	s15, [sp, #4]
 8008ef4:	f89d 3004 	ldrb.w	r3, [sp, #4]
 8008ef8:	f88b 3091 	strb.w	r3, [fp, #145]	; 0x91
 8008efc:	2b04      	cmp	r3, #4
 8008efe:	f43f ae47 	beq.w	8008b90 <USBH_MIDI_Process+0x27c>
 8008f02:	2300      	movs	r3, #0
 8008f04:	f8cb 30c4 	str.w	r3, [fp, #196]	; 0xc4
 8008f08:	f8cb 30c0 	str.w	r3, [fp, #192]	; 0xc0
 8008f0c:	f04f 537e 	mov.w	r3, #1065353216	; 0x3f800000
 8008f10:	f8cb 3098 	str.w	r3, [fp, #152]	; 0x98
 8008f14:	f8cb 3094 	str.w	r3, [fp, #148]	; 0x94
 8008f18:	f10b 019c 	add.w	r1, fp, #156	; 0x9c
 8008f1c:	f10b 02c8 	add.w	r2, fp, #200	; 0xc8
 8008f20:	2302      	movs	r3, #2
 8008f22:	ed9f 9acc 	vldr	s18, [pc, #816]	; 8009254 <USBH_MIDI_Process+0x940>
 8008f26:	eddf 8acc 	vldr	s17, [pc, #816]	; 8009258 <USBH_MIDI_Process+0x944>
 8008f2a:	ed9f 8acc 	vldr	s16, [pc, #816]	; 800925c <USBH_MIDI_Process+0x948>
 8008f2e:	9601      	str	r6, [sp, #4]
 8008f30:	9504      	str	r5, [sp, #16]
 8008f32:	9405      	str	r4, [sp, #20]
 8008f34:	460d      	mov	r5, r1
 8008f36:	4616      	mov	r6, r2
 8008f38:	461c      	mov	r4, r3
 8008f3a:	f005 fd53 	bl	800e9e4 <rand>
 8008f3e:	ee07 0a90 	vmov	s15, r0
 8008f42:	eeb8 7ae7 	vcvt.f32.s32	s14, s15
 8008f46:	eef0 7a48 	vmov.f32	s15, s16
 8008f4a:	ee27 7a09 	vmul.f32	s14, s14, s18
 8008f4e:	3401      	adds	r4, #1
 8008f50:	ee47 7a28 	vmla.f32	s15, s14, s17
 8008f54:	b2e4      	uxtb	r4, r4
 8008f56:	2000      	movs	r0, #0
 8008f58:	2c0b      	cmp	r4, #11
 8008f5a:	ece5 7a01 	vstmia	r5!, {s15}
 8008f5e:	ed9b 7a25 	vldr	s14, [fp, #148]	; 0x94
 8008f62:	f846 0b04 	str.w	r0, [r6], #4
 8008f66:	ee77 7a87 	vadd.f32	s15, s15, s14
 8008f6a:	edcb 7a25 	vstr	s15, [fp, #148]	; 0x94
 8008f6e:	d1e4      	bne.n	8008f3a <USBH_MIDI_Process+0x626>
 8008f70:	eef7 6a00 	vmov.f32	s13, #112	; 0x3f800000  1.0
 8008f74:	ee86 7aa7 	vdiv.f32	s14, s13, s15
 8008f78:	e9dd 5404 	ldrd	r5, r4, [sp, #16]
 8008f7c:	9e01      	ldr	r6, [sp, #4]
 8008f7e:	ed8b 7a25 	vstr	s14, [fp, #148]	; 0x94
 8008f82:	e605      	b.n	8008b90 <USBH_MIDI_Process+0x27c>
 8008f84:	ee07 3a90 	vmov	s15, r3
 8008f88:	eeb8 0ae7 	vcvt.f32.s32	s0, s15
 8008f8c:	eddf 7ab4 	vldr	s15, [pc, #720]	; 8009260 <USBH_MIDI_Process+0x94c>
 8008f90:	f8df b2ec 	ldr.w	fp, [pc, #748]	; 8009280 <USBH_MIDI_Process+0x96c>
 8008f94:	ee20 0a27 	vmul.f32	s0, s0, s15
 8008f98:	f004 fa54 	bl	800d444 <rintf>
 8008f9c:	eefc 7ac0 	vcvt.u32.f32	s15, s0
 8008fa0:	edcd 7a01 	vstr	s15, [sp, #4]
 8008fa4:	f89d 3004 	ldrb.w	r3, [sp, #4]
 8008fa8:	f8ab 307c 	strh.w	r3, [fp, #124]	; 0x7c
 8008fac:	2b0e      	cmp	r3, #14
 8008fae:	b29a      	uxth	r2, r3
 8008fb0:	bf96      	itet	ls
 8008fb2:	4bac      	ldrls	r3, [pc, #688]	; (8009264 <USBH_MIDI_Process+0x950>)
 8008fb4:	4bac      	ldrhi	r3, [pc, #688]	; (8009268 <USBH_MIDI_Process+0x954>)
 8008fb6:	f853 3022 	ldrls.w	r3, [r3, r2, lsl #2]
 8008fba:	f8cb 3080 	str.w	r3, [fp, #128]	; 0x80
 8008fbe:	2301      	movs	r3, #1
 8008fc0:	f88b 308c 	strb.w	r3, [fp, #140]	; 0x8c
 8008fc4:	e5e4      	b.n	8008b90 <USBH_MIDI_Process+0x27c>
 8008fc6:	ee07 3a90 	vmov	s15, r3
 8008fca:	eeb8 7ae7 	vcvt.f32.s32	s14, s15
 8008fce:	eddf 7aa7 	vldr	s15, [pc, #668]	; 800926c <USBH_MIDI_Process+0x958>
 8008fd2:	ed9f 6aa7 	vldr	s12, [pc, #668]	; 8009270 <USBH_MIDI_Process+0x95c>
 8008fd6:	ed9f 0aa7 	vldr	s0, [pc, #668]	; 8009274 <USBH_MIDI_Process+0x960>
 8008fda:	f8df b2a4 	ldr.w	fp, [pc, #676]	; 8009280 <USBH_MIDI_Process+0x96c>
 8008fde:	ee27 7a27 	vmul.f32	s14, s14, s15
 8008fe2:	eef3 6a04 	vmov.f32	s13, #52	; 0x41a00000  20.0
 8008fe6:	eec7 7a06 	vdiv.f32	s15, s14, s12
 8008fea:	ee77 7aa6 	vadd.f32	s15, s15, s13
 8008fee:	ee80 0a27 	vdiv.f32	s0, s0, s15
 8008ff2:	edcb 7a1a 	vstr	s15, [fp, #104]	; 0x68
 8008ff6:	f004 f9d9 	bl	800d3ac <lrintf>
 8008ffa:	f8cb 006c 	str.w	r0, [fp, #108]	; 0x6c
 8008ffe:	e5c7      	b.n	8008b90 <USBH_MIDI_Process+0x27c>
 8009000:	ee07 3a90 	vmov	s15, r3
 8009004:	ed9f 7a9a 	vldr	s14, [pc, #616]	; 8009270 <USBH_MIDI_Process+0x95c>
 8009008:	4b9b      	ldr	r3, [pc, #620]	; (8009278 <USBH_MIDI_Process+0x964>)
 800900a:	eef8 6ae7 	vcvt.f32.s32	s13, s15
 800900e:	eec6 7a87 	vdiv.f32	s15, s13, s14
 8009012:	edc3 7a00 	vstr	s15, [r3]
 8009016:	e5bb      	b.n	8008b90 <USBH_MIDI_Process+0x27c>
 8009018:	ee07 3a90 	vmov	s15, r3
 800901c:	ed9f 7a97 	vldr	s14, [pc, #604]	; 800927c <USBH_MIDI_Process+0x968>
 8009020:	4a97      	ldr	r2, [pc, #604]	; (8009280 <USBH_MIDI_Process+0x96c>)
 8009022:	eef8 7ae7 	vcvt.f32.s32	s15, s15
 8009026:	ee67 7a87 	vmul.f32	s15, s15, s14
 800902a:	eefc 7ae7 	vcvt.u32.f32	s15, s15
 800902e:	edcd 7a01 	vstr	s15, [sp, #4]
 8009032:	f89d 3004 	ldrb.w	r3, [sp, #4]
 8009036:	f8a2 3084 	strh.w	r3, [r2, #132]	; 0x84
 800903a:	2301      	movs	r3, #1
 800903c:	f882 308c 	strb.w	r3, [r2, #140]	; 0x8c
 8009040:	e5a6      	b.n	8008b90 <USBH_MIDI_Process+0x27c>
 8009042:	ee07 3a90 	vmov	s15, r3
 8009046:	ed9f 7a8f 	vldr	s14, [pc, #572]	; 8009284 <USBH_MIDI_Process+0x970>
 800904a:	4b8d      	ldr	r3, [pc, #564]	; (8009280 <USBH_MIDI_Process+0x96c>)
 800904c:	eef8 7ae7 	vcvt.f32.s32	s15, s15
 8009050:	ee67 7a87 	vmul.f32	s15, s15, s14
 8009054:	edc3 7a01 	vstr	s15, [r3, #4]
 8009058:	edc3 7a05 	vstr	s15, [r3, #20]
 800905c:	e598      	b.n	8008b90 <USBH_MIDI_Process+0x27c>
 800905e:	ee07 3a90 	vmov	s15, r3
 8009062:	ed9f 7a89 	vldr	s14, [pc, #548]	; 8009288 <USBH_MIDI_Process+0x974>
 8009066:	4b89      	ldr	r3, [pc, #548]	; (800928c <USBH_MIDI_Process+0x978>)
 8009068:	eef8 7ae7 	vcvt.f32.s32	s15, s15
 800906c:	ee67 7a87 	vmul.f32	s15, s15, s14
 8009070:	edc3 7a00 	vstr	s15, [r3]
 8009074:	4b86      	ldr	r3, [pc, #536]	; (8009290 <USBH_MIDI_Process+0x97c>)
 8009076:	edc3 7a00 	vstr	s15, [r3]
 800907a:	e589      	b.n	8008b90 <USBH_MIDI_Process+0x27c>
 800907c:	ee07 3a90 	vmov	s15, r3
 8009080:	ed9f 7a84 	vldr	s14, [pc, #528]	; 8009294 <USBH_MIDI_Process+0x980>
 8009084:	4b84      	ldr	r3, [pc, #528]	; (8009298 <USBH_MIDI_Process+0x984>)
 8009086:	eef8 6ae7 	vcvt.f32.s32	s13, s15
 800908a:	eddf 7a84 	vldr	s15, [pc, #528]	; 800929c <USBH_MIDI_Process+0x988>
 800908e:	ee46 7a87 	vmla.f32	s15, s13, s14
 8009092:	ed93 7a00 	vldr	s14, [r3]
 8009096:	4b7a      	ldr	r3, [pc, #488]	; (8009280 <USBH_MIDI_Process+0x96c>)
 8009098:	ee27 7a27 	vmul.f32	s14, s14, s15
 800909c:	edc3 7a02 	vstr	s15, [r3, #8]
 80090a0:	ed83 7a06 	vstr	s14, [r3, #24]
 80090a4:	e574      	b.n	8008b90 <USBH_MIDI_Process+0x27c>
 80090a6:	ee07 3a90 	vmov	s15, r3
 80090aa:	ed9f 7a7d 	vldr	s14, [pc, #500]	; 80092a0 <USBH_MIDI_Process+0x98c>
 80090ae:	4b74      	ldr	r3, [pc, #464]	; (8009280 <USBH_MIDI_Process+0x96c>)
 80090b0:	eef8 7ae7 	vcvt.f32.s32	s15, s15
 80090b4:	ee67 7a87 	vmul.f32	s15, s15, s14
 80090b8:	edc3 7aa9 	vstr	s15, [r3, #676]	; 0x2a4
 80090bc:	e568      	b.n	8008b90 <USBH_MIDI_Process+0x27c>
 80090be:	ee07 3a90 	vmov	s15, r3
 80090c2:	ed9f 7a78 	vldr	s14, [pc, #480]	; 80092a4 <USBH_MIDI_Process+0x990>
 80090c6:	4b6e      	ldr	r3, [pc, #440]	; (8009280 <USBH_MIDI_Process+0x96c>)
 80090c8:	eef8 7ae7 	vcvt.f32.s32	s15, s15
 80090cc:	ee67 7a87 	vmul.f32	s15, s15, s14
 80090d0:	edc3 7aa7 	vstr	s15, [r3, #668]	; 0x29c
 80090d4:	e55c      	b.n	8008b90 <USBH_MIDI_Process+0x27c>
 80090d6:	ee07 3a90 	vmov	s15, r3
 80090da:	ed9f 7a65 	vldr	s14, [pc, #404]	; 8009270 <USBH_MIDI_Process+0x95c>
 80090de:	4b72      	ldr	r3, [pc, #456]	; (80092a8 <USBH_MIDI_Process+0x994>)
 80090e0:	eef8 6ae7 	vcvt.f32.s32	s13, s15
 80090e4:	eec6 7a87 	vdiv.f32	s15, s13, s14
 80090e8:	edc3 7a00 	vstr	s15, [r3]
 80090ec:	e550      	b.n	8008b90 <USBH_MIDI_Process+0x27c>
 80090ee:	ee07 3a90 	vmov	s15, r3
 80090f2:	ed9f 0a6e 	vldr	s0, [pc, #440]	; 80092ac <USBH_MIDI_Process+0x998>
 80090f6:	eeb8 7ae7 	vcvt.f32.s32	s14, s15
 80090fa:	eddf 7a6d 	vldr	s15, [pc, #436]	; 80092b0 <USBH_MIDI_Process+0x99c>
 80090fe:	ee07 0a27 	vmla.f32	s0, s14, s15
 8009102:	f004 f953 	bl	800d3ac <lrintf>
 8009106:	4b6b      	ldr	r3, [pc, #428]	; (80092b4 <USBH_MIDI_Process+0x9a0>)
 8009108:	4a6b      	ldr	r2, [pc, #428]	; (80092b8 <USBH_MIDI_Process+0x9a4>)
 800910a:	681b      	ldr	r3, [r3, #0]
 800910c:	6010      	str	r0, [r2, #0]
 800910e:	4a6b      	ldr	r2, [pc, #428]	; (80092bc <USBH_MIDI_Process+0x9a8>)
 8009110:	eba3 0380 	sub.w	r3, r3, r0, lsl #2
 8009114:	4293      	cmp	r3, r2
 8009116:	bf38      	it	cc
 8009118:	f503 33ea 	addcc.w	r3, r3, #119808	; 0x1d400
 800911c:	4a68      	ldr	r2, [pc, #416]	; (80092c0 <USBH_MIDI_Process+0x9ac>)
 800911e:	bf38      	it	cc
 8009120:	33bc      	addcc	r3, #188	; 0xbc
 8009122:	6013      	str	r3, [r2, #0]
 8009124:	e534      	b.n	8008b90 <USBH_MIDI_Process+0x27c>
 8009126:	ee07 3a90 	vmov	s15, r3
 800912a:	ed9f 7a66 	vldr	s14, [pc, #408]	; 80092c4 <USBH_MIDI_Process+0x9b0>
 800912e:	4b66      	ldr	r3, [pc, #408]	; (80092c8 <USBH_MIDI_Process+0x9b4>)
 8009130:	eef8 7ae7 	vcvt.f32.s32	s15, s15
 8009134:	681b      	ldr	r3, [r3, #0]
 8009136:	ee67 7a87 	vmul.f32	s15, s15, s14
 800913a:	69db      	ldr	r3, [r3, #28]
 800913c:	eefc 7ae7 	vcvt.u32.f32	s15, s15
 8009140:	2094      	movs	r0, #148	; 0x94
 8009142:	edcd 7a01 	vstr	s15, [sp, #4]
 8009146:	f89d 1004 	ldrb.w	r1, [sp, #4]
 800914a:	4798      	blx	r3
 800914c:	e520      	b.n	8008b90 <USBH_MIDI_Process+0x27c>
 800914e:	2b7f      	cmp	r3, #127	; 0x7f
 8009150:	f47f ad1e 	bne.w	8008b90 <USBH_MIDI_Process+0x27c>
 8009154:	9902      	ldr	r1, [sp, #8]
 8009156:	4a5d      	ldr	r2, [pc, #372]	; (80092cc <USBH_MIDI_Process+0x9b8>)
 8009158:	f8ca 2004 	str.w	r2, [sl, #4]
 800915c:	f8c9 2004 	str.w	r2, [r9, #4]
 8009160:	4a5b      	ldr	r2, [pc, #364]	; (80092d0 <USBH_MIDI_Process+0x9bc>)
 8009162:	600a      	str	r2, [r1, #0]
 8009164:	9903      	ldr	r1, [sp, #12]
 8009166:	4b46      	ldr	r3, [pc, #280]	; (8009280 <USBH_MIDI_Process+0x96c>)
 8009168:	600a      	str	r2, [r1, #0]
 800916a:	4a5a      	ldr	r2, [pc, #360]	; (80092d4 <USBH_MIDI_Process+0x9c0>)
 800916c:	605a      	str	r2, [r3, #4]
 800916e:	615a      	str	r2, [r3, #20]
 8009170:	4959      	ldr	r1, [pc, #356]	; (80092d8 <USBH_MIDI_Process+0x9c4>)
 8009172:	4a5a      	ldr	r2, [pc, #360]	; (80092dc <USBH_MIDI_Process+0x9c8>)
 8009174:	609a      	str	r2, [r3, #8]
 8009176:	60d9      	str	r1, [r3, #12]
 8009178:	4a59      	ldr	r2, [pc, #356]	; (80092e0 <USBH_MIDI_Process+0x9cc>)
 800917a:	619a      	str	r2, [r3, #24]
 800917c:	2100      	movs	r1, #0
 800917e:	61d9      	str	r1, [r3, #28]
 8009180:	f04f 537c 	mov.w	r3, #1056964608	; 0x3f000000
 8009184:	f8ca 3008 	str.w	r3, [sl, #8]
 8009188:	f8ca 3000 	str.w	r3, [sl]
 800918c:	f8c9 3008 	str.w	r3, [r9, #8]
 8009190:	f8c9 3000 	str.w	r3, [r9]
 8009194:	4953      	ldr	r1, [pc, #332]	; (80092e4 <USBH_MIDI_Process+0x9d0>)
 8009196:	4a40      	ldr	r2, [pc, #256]	; (8009298 <USBH_MIDI_Process+0x984>)
 8009198:	4853      	ldr	r0, [pc, #332]	; (80092e8 <USBH_MIDI_Process+0x9d4>)
 800919a:	f240 5377 	movw	r3, #1399	; 0x577
 800919e:	f8ca 300c 	str.w	r3, [sl, #12]
 80091a2:	f8c9 300c 	str.w	r3, [r9, #12]
 80091a6:	2301      	movs	r3, #1
 80091a8:	f881 35f4 	strb.w	r3, [r1, #1524]	; 0x5f4
 80091ac:	494f      	ldr	r1, [pc, #316]	; (80092ec <USBH_MIDI_Process+0x9d8>)
 80091ae:	f881 35f4 	strb.w	r3, [r1, #1524]	; 0x5f4
 80091b2:	f04f 537e 	mov.w	r3, #1065353216	; 0x3f800000
 80091b6:	6013      	str	r3, [r2, #0]
 80091b8:	2100      	movs	r1, #0
 80091ba:	f44f 52af 	mov.w	r2, #5600	; 0x15e0
 80091be:	f005 fbb9 	bl	800e934 <memset>
 80091c2:	f44f 52af 	mov.w	r2, #5600	; 0x15e0
 80091c6:	2100      	movs	r1, #0
 80091c8:	4849      	ldr	r0, [pc, #292]	; (80092f0 <USBH_MIDI_Process+0x9dc>)
 80091ca:	f005 fbb3 	bl	800e934 <memset>
 80091ce:	e4df      	b.n	8008b90 <USBH_MIDI_Process+0x27c>
 80091d0:	2b7f      	cmp	r3, #127	; 0x7f
 80091d2:	f47f acdd 	bne.w	8008b90 <USBH_MIDI_Process+0x27c>
 80091d6:	4b2a      	ldr	r3, [pc, #168]	; (8009280 <USBH_MIDI_Process+0x96c>)
 80091d8:	2207      	movs	r2, #7
 80091da:	f8a3 2088 	strh.w	r2, [r3, #136]	; 0x88
 80091de:	e4d7      	b.n	8008b90 <USBH_MIDI_Process+0x27c>
 80091e0:	2b7f      	cmp	r3, #127	; 0x7f
 80091e2:	f47f acd5 	bne.w	8008b90 <USBH_MIDI_Process+0x27c>
 80091e6:	4b26      	ldr	r3, [pc, #152]	; (8009280 <USBH_MIDI_Process+0x96c>)
 80091e8:	f64f 72f9 	movw	r2, #65529	; 0xfff9
 80091ec:	f8a3 2088 	strh.w	r2, [r3, #136]	; 0x88
 80091f0:	e4ce      	b.n	8008b90 <USBH_MIDI_Process+0x27c>
 80091f2:	2b7f      	cmp	r3, #127	; 0x7f
 80091f4:	f47f accc 	bne.w	8008b90 <USBH_MIDI_Process+0x27c>
 80091f8:	4b21      	ldr	r3, [pc, #132]	; (8009280 <USBH_MIDI_Process+0x96c>)
 80091fa:	2202      	movs	r2, #2
 80091fc:	f8a3 2088 	strh.w	r2, [r3, #136]	; 0x88
 8009200:	e4c6      	b.n	8008b90 <USBH_MIDI_Process+0x27c>
 8009202:	2b7f      	cmp	r3, #127	; 0x7f
 8009204:	f47f acc4 	bne.w	8008b90 <USBH_MIDI_Process+0x27c>
 8009208:	4b1d      	ldr	r3, [pc, #116]	; (8009280 <USBH_MIDI_Process+0x96c>)
 800920a:	f64f 72fe 	movw	r2, #65534	; 0xfffe
 800920e:	f8a3 2088 	strh.w	r2, [r3, #136]	; 0x88
 8009212:	e4bd      	b.n	8008b90 <USBH_MIDI_Process+0x27c>
 8009214:	2b00      	cmp	r3, #0
 8009216:	f000 8530 	beq.w	8009c7a <USBH_MIDI_Process+0x1366>
 800921a:	2b7f      	cmp	r3, #127	; 0x7f
 800921c:	f47f acb8 	bne.w	8008b90 <USBH_MIDI_Process+0x27c>
 8009220:	4b17      	ldr	r3, [pc, #92]	; (8009280 <USBH_MIDI_Process+0x96c>)
 8009222:	f8d3 00f0 	ldr.w	r0, [r3, #240]	; 0xf0
 8009226:	f8c3 00ec 	str.w	r0, [r3, #236]	; 0xec
 800922a:	f503 6159 	add.w	r1, r3, #3472	; 0xd90
 800922e:	f8d3 0110 	ldr.w	r0, [r3, #272]	; 0x110
 8009232:	f8c3 010c 	str.w	r0, [r3, #268]	; 0x10c
 8009236:	f603 0234 	addw	r2, r3, #2100	; 0x834
 800923a:	f8d3 0130 	ldr.w	r0, [r3, #304]	; 0x130
 800923e:	f8c3 012c 	str.w	r0, [r3, #300]	; 0x12c
 8009242:	6888      	ldr	r0, [r1, #8]
 8009244:	6048      	str	r0, [r1, #4]
 8009246:	6891      	ldr	r1, [r2, #8]
 8009248:	6051      	str	r1, [r2, #4]
 800924a:	f8d3 22e4 	ldr.w	r2, [r3, #740]	; 0x2e4
 800924e:	f8c3 22e0 	str.w	r2, [r3, #736]	; 0x2e0
 8009252:	e49d      	b.n	8008b90 <USBH_MIDI_Process+0x27c>
 8009254:	30000000 	.word	0x30000000
 8009258:	3f7a9fbf 	.word	0x3f7a9fbf
 800925c:	3a83126f 	.word	0x3a83126f
 8009260:	3de1c387 	.word	0x3de1c387
 8009264:	0800f398 	.word	0x0800f398
 8009268:	0800f430 	.word	0x0800f430
 800926c:	43fa0000 	.word	0x43fa0000
 8009270:	42fe0000 	.word	0x42fe0000
 8009274:	4a217fc0 	.word	0x4a217fc0
 8009278:	2000005c 	.word	0x2000005c
 800927c:	3d810204 	.word	0x3d810204
 8009280:	10000000 	.word	0x10000000
 8009284:	3f8c7f66 	.word	0x3f8c7f66
 8009288:	40b060c2 	.word	0x40b060c2
 800928c:	100028d8 	.word	0x100028d8
 8009290:	10003ed0 	.word	0x10003ed0
 8009294:	3d61c387 	.word	0x3d61c387
 8009298:	2001f714 	.word	0x2001f714
 800929c:	3ca3d70a 	.word	0x3ca3d70a
 80092a0:	3dc18306 	.word	0x3dc18306
 80092a4:	3b810204 	.word	0x3b810204
 80092a8:	20000058 	.word	0x20000058
 80092ac:	437a0000 	.word	0x437a0000
 80092b0:	436a3e7d 	.word	0x436a3e7d
 80092b4:	2001f728 	.word	0x2001f728
 80092b8:	2001f71c 	.word	0x2001f71c
 80092bc:	200018f8 	.word	0x200018f8
 80092c0:	2001f718 	.word	0x2001f718
 80092c4:	3f499326 	.word	0x3f499326
 80092c8:	2001f710 	.word	0x2001f710
 80092cc:	be4ccccd 	.word	0xbe4ccccd
 80092d0:	43700000 	.word	0x43700000
 80092d4:	42480000 	.word	0x42480000
 80092d8:	3fc90fdb 	.word	0x3fc90fdb
 80092dc:	3de147ae 	.word	0x3de147ae
 80092e0:	3df5c28f 	.word	0x3df5c28f
 80092e4:	100022e8 	.word	0x100022e8
 80092e8:	100028f0 	.word	0x100028f0
 80092ec:	100038e0 	.word	0x100038e0
 80092f0:	100012f8 	.word	0x100012f8
 80092f4:	2b00      	cmp	r3, #0
 80092f6:	f000 84e8 	beq.w	8009cca <USBH_MIDI_Process+0x13b6>
 80092fa:	2b7f      	cmp	r3, #127	; 0x7f
 80092fc:	f47f ac48 	bne.w	8008b90 <USBH_MIDI_Process+0x27c>
 8009300:	ed99 7a01 	vldr	s14, [r9, #4]
 8009304:	edda 7a01 	vldr	s15, [sl, #4]
 8009308:	eeb0 7ac7 	vabs.f32	s14, s14
 800930c:	eef0 7ae7 	vabs.f32	s15, s15
 8009310:	ed89 7a01 	vstr	s14, [r9, #4]
 8009314:	edca 7a01 	vstr	s15, [sl, #4]
 8009318:	e43a      	b.n	8008b90 <USBH_MIDI_Process+0x27c>
 800931a:	2b00      	cmp	r3, #0
 800931c:	f000 84e7 	beq.w	8009cee <USBH_MIDI_Process+0x13da>
 8009320:	2b7f      	cmp	r3, #127	; 0x7f
 8009322:	f47f ac35 	bne.w	8008b90 <USBH_MIDI_Process+0x27c>
 8009326:	49df      	ldr	r1, [pc, #892]	; (80096a4 <USBH_MIDI_Process+0xd90>)
 8009328:	4adf      	ldr	r2, [pc, #892]	; (80096a8 <USBH_MIDI_Process+0xd94>)
 800932a:	23ff      	movs	r3, #255	; 0xff
 800932c:	f881 35f4 	strb.w	r3, [r1, #1524]	; 0x5f4
 8009330:	f882 35f4 	strb.w	r3, [r2, #1524]	; 0x5f4
 8009334:	e42c      	b.n	8008b90 <USBH_MIDI_Process+0x27c>
 8009336:	2b3f      	cmp	r3, #63	; 0x3f
 8009338:	4bdc      	ldr	r3, [pc, #880]	; (80096ac <USBH_MIDI_Process+0xd98>)
 800933a:	bf8c      	ite	hi
 800933c:	2201      	movhi	r2, #1
 800933e:	2200      	movls	r2, #0
 8009340:	705a      	strb	r2, [r3, #1]
 8009342:	e425      	b.n	8008b90 <USBH_MIDI_Process+0x27c>
 8009344:	2b3f      	cmp	r3, #63	; 0x3f
 8009346:	4bd9      	ldr	r3, [pc, #868]	; (80096ac <USBH_MIDI_Process+0xd98>)
 8009348:	bf8c      	ite	hi
 800934a:	2201      	movhi	r2, #1
 800934c:	2200      	movls	r2, #0
 800934e:	f883 2024 	strb.w	r2, [r3, #36]	; 0x24
 8009352:	e41d      	b.n	8008b90 <USBH_MIDI_Process+0x27c>
 8009354:	2b3f      	cmp	r3, #63	; 0x3f
 8009356:	4bd5      	ldr	r3, [pc, #852]	; (80096ac <USBH_MIDI_Process+0xd98>)
 8009358:	bf8c      	ite	hi
 800935a:	2201      	movhi	r2, #1
 800935c:	2200      	movls	r2, #0
 800935e:	701a      	strb	r2, [r3, #0]
 8009360:	e416      	b.n	8008b90 <USBH_MIDI_Process+0x27c>
 8009362:	ee07 3a90 	vmov	s15, r3
 8009366:	ed9f 7ad2 	vldr	s14, [pc, #840]	; 80096b0 <USBH_MIDI_Process+0xd9c>
 800936a:	4bd0      	ldr	r3, [pc, #832]	; (80096ac <USBH_MIDI_Process+0xd98>)
 800936c:	eef8 6ae7 	vcvt.f32.s32	s13, s15
 8009370:	eddf 7ad0 	vldr	s15, [pc, #832]	; 80096b4 <USBH_MIDI_Process+0xda0>
 8009374:	ee46 7a87 	vmla.f32	s15, s13, s14
 8009378:	ed93 7a02 	vldr	s14, [r3, #8]
 800937c:	ee27 7a27 	vmul.f32	s14, s14, s15
 8009380:	ed83 7a06 	vstr	s14, [r3, #24]
 8009384:	4bcc      	ldr	r3, [pc, #816]	; (80096b8 <USBH_MIDI_Process+0xda4>)
 8009386:	edc3 7a00 	vstr	s15, [r3]
 800938a:	e401      	b.n	8008b90 <USBH_MIDI_Process+0x27c>
 800938c:	ee07 3a90 	vmov	s15, r3
 8009390:	ed9f 7aca 	vldr	s14, [pc, #808]	; 80096bc <USBH_MIDI_Process+0xda8>
 8009394:	eddf 6adc 	vldr	s13, [pc, #880]	; 8009708 <USBH_MIDI_Process+0xdf4>
 8009398:	eef8 7ae7 	vcvt.f32.s32	s15, s15
 800939c:	ee67 7a87 	vmul.f32	s15, s15, s14
 80093a0:	ee87 7aa6 	vdiv.f32	s14, s15, s13
 80093a4:	ed8a 7a01 	vstr	s14, [sl, #4]
 80093a8:	ed89 7a01 	vstr	s14, [r9, #4]
 80093ac:	f7ff bbf0 	b.w	8008b90 <USBH_MIDI_Process+0x27c>
 80093b0:	2b3f      	cmp	r3, #63	; 0x3f
 80093b2:	4bbe      	ldr	r3, [pc, #760]	; (80096ac <USBH_MIDI_Process+0xd98>)
 80093b4:	bf8c      	ite	hi
 80093b6:	2201      	movhi	r2, #1
 80093b8:	2200      	movls	r2, #0
 80093ba:	f883 208a 	strb.w	r2, [r3, #138]	; 0x8a
 80093be:	f7ff bbe7 	b.w	8008b90 <USBH_MIDI_Process+0x27c>
 80093c2:	2b00      	cmp	r3, #0
 80093c4:	f000 849c 	beq.w	8009d00 <USBH_MIDI_Process+0x13ec>
 80093c8:	2b7f      	cmp	r3, #127	; 0x7f
 80093ca:	f47f abe1 	bne.w	8008b90 <USBH_MIDI_Process+0x27c>
 80093ce:	4bb7      	ldr	r3, [pc, #732]	; (80096ac <USBH_MIDI_Process+0xd98>)
 80093d0:	2201      	movs	r2, #1
 80093d2:	f883 208d 	strb.w	r2, [r3, #141]	; 0x8d
 80093d6:	f7ff bbdb 	b.w	8008b90 <USBH_MIDI_Process+0x27c>
 80093da:	2b3f      	cmp	r3, #63	; 0x3f
 80093dc:	4bb3      	ldr	r3, [pc, #716]	; (80096ac <USBH_MIDI_Process+0xd98>)
 80093de:	bf8c      	ite	hi
 80093e0:	2201      	movhi	r2, #1
 80093e2:	2200      	movls	r2, #0
 80093e4:	f883 2270 	strb.w	r2, [r3, #624]	; 0x270
 80093e8:	f7ff bbd2 	b.w	8008b90 <USBH_MIDI_Process+0x27c>
 80093ec:	2b7f      	cmp	r3, #127	; 0x7f
 80093ee:	f47f abcf 	bne.w	8008b90 <USBH_MIDI_Process+0x27c>
 80093f2:	4bae      	ldr	r3, [pc, #696]	; (80096ac <USBH_MIDI_Process+0xd98>)
 80093f4:	ed9f 7ab2 	vldr	s14, [pc, #712]	; 80096c0 <USBH_MIDI_Process+0xdac>
 80093f8:	edd3 7a59 	vldr	s15, [r3, #356]	; 0x164
 80093fc:	ee67 7a87 	vmul.f32	s15, s15, s14
 8009400:	edc3 7a59 	vstr	s15, [r3, #356]	; 0x164
 8009404:	f7ff bbc4 	b.w	8008b90 <USBH_MIDI_Process+0x27c>
 8009408:	2b7f      	cmp	r3, #127	; 0x7f
 800940a:	f47f abc1 	bne.w	8008b90 <USBH_MIDI_Process+0x27c>
 800940e:	4ba7      	ldr	r3, [pc, #668]	; (80096ac <USBH_MIDI_Process+0xd98>)
 8009410:	ed9f 7aab 	vldr	s14, [pc, #684]	; 80096c0 <USBH_MIDI_Process+0xdac>
 8009414:	edd3 7a51 	vldr	s15, [r3, #324]	; 0x144
 8009418:	ee67 7a87 	vmul.f32	s15, s15, s14
 800941c:	edc3 7a51 	vstr	s15, [r3, #324]	; 0x144
 8009420:	f7ff bbb6 	b.w	8008b90 <USBH_MIDI_Process+0x27c>
 8009424:	2b7f      	cmp	r3, #127	; 0x7f
 8009426:	f47f abb3 	bne.w	8008b90 <USBH_MIDI_Process+0x27c>
 800942a:	4ba0      	ldr	r3, [pc, #640]	; (80096ac <USBH_MIDI_Process+0xd98>)
 800942c:	ed9f 7aa4 	vldr	s14, [pc, #656]	; 80096c0 <USBH_MIDI_Process+0xdac>
 8009430:	edd3 7a49 	vldr	s15, [r3, #292]	; 0x124
 8009434:	ee67 7a87 	vmul.f32	s15, s15, s14
 8009438:	edc3 7a49 	vstr	s15, [r3, #292]	; 0x124
 800943c:	f7ff bba8 	b.w	8008b90 <USBH_MIDI_Process+0x27c>
 8009440:	ee07 3a90 	vmov	s15, r3
 8009444:	ed9f 7a9f 	vldr	s14, [pc, #636]	; 80096c4 <USBH_MIDI_Process+0xdb0>
 8009448:	4b98      	ldr	r3, [pc, #608]	; (80096ac <USBH_MIDI_Process+0xd98>)
 800944a:	eef8 7ae7 	vcvt.f32.s32	s15, s15
 800944e:	ee67 7a87 	vmul.f32	s15, s15, s14
 8009452:	edc3 7a96 	vstr	s15, [r3, #600]	; 0x258
 8009456:	f7ff bb9b 	b.w	8008b90 <USBH_MIDI_Process+0x27c>
 800945a:	ee07 3a90 	vmov	s15, r3
 800945e:	ed9f 7a9a 	vldr	s14, [pc, #616]	; 80096c8 <USBH_MIDI_Process+0xdb4>
 8009462:	4b92      	ldr	r3, [pc, #584]	; (80096ac <USBH_MIDI_Process+0xd98>)
 8009464:	eef8 7ae7 	vcvt.f32.s32	s15, s15
 8009468:	ee67 7a87 	vmul.f32	s15, s15, s14
 800946c:	edc3 7a94 	vstr	s15, [r3, #592]	; 0x250
 8009470:	f7ff bb8e 	b.w	8008b90 <USBH_MIDI_Process+0x27c>
 8009474:	ee07 3a90 	vmov	s15, r3
 8009478:	ed9f 7a94 	vldr	s14, [pc, #592]	; 80096cc <USBH_MIDI_Process+0xdb8>
 800947c:	eddf 6aa2 	vldr	s13, [pc, #648]	; 8009708 <USBH_MIDI_Process+0xdf4>
 8009480:	4b93      	ldr	r3, [pc, #588]	; (80096d0 <USBH_MIDI_Process+0xdbc>)
 8009482:	eef8 7ae7 	vcvt.f32.s32	s15, s15
 8009486:	ee67 7a87 	vmul.f32	s15, s15, s14
 800948a:	ee87 7aa6 	vdiv.f32	s14, s15, s13
 800948e:	ed83 7a00 	vstr	s14, [r3]
 8009492:	f7ff bb7d 	b.w	8008b90 <USBH_MIDI_Process+0x27c>
 8009496:	ee07 3a90 	vmov	s15, r3
 800949a:	eddf 6a8e 	vldr	s13, [pc, #568]	; 80096d4 <USBH_MIDI_Process+0xdc0>
 800949e:	ed9f 7a8e 	vldr	s14, [pc, #568]	; 80096d8 <USBH_MIDI_Process+0xdc4>
 80094a2:	4b8e      	ldr	r3, [pc, #568]	; (80096dc <USBH_MIDI_Process+0xdc8>)
 80094a4:	eeb8 6ae7 	vcvt.f32.s32	s12, s15
 80094a8:	eddf 7a8d 	vldr	s15, [pc, #564]	; 80096e0 <USBH_MIDI_Process+0xdcc>
 80094ac:	ee46 7a26 	vmla.f32	s15, s12, s13
 80094b0:	eddf 6a8c 	vldr	s13, [pc, #560]	; 80096e4 <USBH_MIDI_Process+0xdd0>
 80094b4:	ee67 7a87 	vmul.f32	s15, s15, s14
 80094b8:	ee87 7aa6 	vdiv.f32	s14, s15, s13
 80094bc:	ed83 7a00 	vstr	s14, [r3]
 80094c0:	f7ff bb66 	b.w	8008b90 <USBH_MIDI_Process+0x27c>
 80094c4:	ee07 3a90 	vmov	s15, r3
 80094c8:	eeb8 7ae7 	vcvt.f32.s32	s14, s15
 80094cc:	eddf 7a86 	vldr	s15, [pc, #536]	; 80096e8 <USBH_MIDI_Process+0xdd4>
 80094d0:	eddf 6a8d 	vldr	s13, [pc, #564]	; 8009708 <USBH_MIDI_Process+0xdf4>
 80094d4:	4b75      	ldr	r3, [pc, #468]	; (80096ac <USBH_MIDI_Process+0xd98>)
 80094d6:	ee27 7a27 	vmul.f32	s14, s14, s15
 80094da:	eec7 7a26 	vdiv.f32	s15, s14, s13
 80094de:	ee67 7aa7 	vmul.f32	s15, s15, s15
 80094e2:	edc3 7a58 	vstr	s15, [r3, #352]	; 0x160
 80094e6:	f7ff bb53 	b.w	8008b90 <USBH_MIDI_Process+0x27c>
 80094ea:	ee07 3a90 	vmov	s15, r3
 80094ee:	eeb8 7ae7 	vcvt.f32.s32	s14, s15
 80094f2:	eddf 7a7d 	vldr	s15, [pc, #500]	; 80096e8 <USBH_MIDI_Process+0xdd4>
 80094f6:	eddf 6a84 	vldr	s13, [pc, #528]	; 8009708 <USBH_MIDI_Process+0xdf4>
 80094fa:	4b6c      	ldr	r3, [pc, #432]	; (80096ac <USBH_MIDI_Process+0xd98>)
 80094fc:	ee27 7a27 	vmul.f32	s14, s14, s15
 8009500:	eec7 7a26 	vdiv.f32	s15, s14, s13
 8009504:	ee67 7aa7 	vmul.f32	s15, s15, s15
 8009508:	edc3 7a50 	vstr	s15, [r3, #320]	; 0x140
 800950c:	f7ff bb40 	b.w	8008b90 <USBH_MIDI_Process+0x27c>
 8009510:	ee07 3a90 	vmov	s15, r3
 8009514:	eeb8 7ae7 	vcvt.f32.s32	s14, s15
 8009518:	eddf 7a73 	vldr	s15, [pc, #460]	; 80096e8 <USBH_MIDI_Process+0xdd4>
 800951c:	eddf 6a7a 	vldr	s13, [pc, #488]	; 8009708 <USBH_MIDI_Process+0xdf4>
 8009520:	4b62      	ldr	r3, [pc, #392]	; (80096ac <USBH_MIDI_Process+0xd98>)
 8009522:	ee27 7a27 	vmul.f32	s14, s14, s15
 8009526:	eec7 7a26 	vdiv.f32	s15, s14, s13
 800952a:	ee67 7aa7 	vmul.f32	s15, s15, s15
 800952e:	edc3 7a48 	vstr	s15, [r3, #288]	; 0x120
 8009532:	f7ff bb2d 	b.w	8008b90 <USBH_MIDI_Process+0x27c>
 8009536:	ee07 3a90 	vmov	s15, r3
 800953a:	eeb8 7ae7 	vcvt.f32.s32	s14, s15
 800953e:	eddf 7a6a 	vldr	s15, [pc, #424]	; 80096e8 <USBH_MIDI_Process+0xdd4>
 8009542:	eddf 6a71 	vldr	s13, [pc, #452]	; 8009708 <USBH_MIDI_Process+0xdf4>
 8009546:	4b59      	ldr	r3, [pc, #356]	; (80096ac <USBH_MIDI_Process+0xd98>)
 8009548:	ee27 7a27 	vmul.f32	s14, s14, s15
 800954c:	eec7 7a26 	vdiv.f32	s15, s14, s13
 8009550:	ee67 7aa7 	vmul.f32	s15, s15, s15
 8009554:	edc3 7a40 	vstr	s15, [r3, #256]	; 0x100
 8009558:	f7ff bb1a 	b.w	8008b90 <USBH_MIDI_Process+0x27c>
 800955c:	eb03 0383 	add.w	r3, r3, r3, lsl #2
 8009560:	ee07 3a90 	vmov	s15, r3
 8009564:	ed9f 0a68 	vldr	s0, [pc, #416]	; 8009708 <USBH_MIDI_Process+0xdf4>
 8009568:	eef8 7ae7 	vcvt.f32.s32	s15, s15
 800956c:	ee87 0a80 	vdiv.f32	s0, s15, s0
 8009570:	f003 ff1c 	bl	800d3ac <lrintf>
 8009574:	4b4d      	ldr	r3, [pc, #308]	; (80096ac <USBH_MIDI_Process+0xd98>)
 8009576:	f883 0230 	strb.w	r0, [r3, #560]	; 0x230
 800957a:	f7ff bb09 	b.w	8008b90 <USBH_MIDI_Process+0x27c>
 800957e:	ee07 3a90 	vmov	s15, r3
 8009582:	eddf 6a61 	vldr	s13, [pc, #388]	; 8009708 <USBH_MIDI_Process+0xdf4>
 8009586:	4b49      	ldr	r3, [pc, #292]	; (80096ac <USBH_MIDI_Process+0xd98>)
 8009588:	eeb8 6ae7 	vcvt.f32.s32	s12, s15
 800958c:	eeb1 7a08 	vmov.f32	s14, #24	; 0x40c00000  6.0
 8009590:	eec6 7a26 	vdiv.f32	s15, s12, s13
 8009594:	ee67 7aa7 	vmul.f32	s15, s15, s15
 8009598:	ee67 7a87 	vmul.f32	s15, s15, s14
 800959c:	edc3 7a92 	vstr	s15, [r3, #584]	; 0x248
 80095a0:	f7ff baf6 	b.w	8008b90 <USBH_MIDI_Process+0x27c>
 80095a4:	ee07 3a90 	vmov	s15, r3
 80095a8:	ed9f 7a57 	vldr	s14, [pc, #348]	; 8009708 <USBH_MIDI_Process+0xdf4>
 80095ac:	4b3f      	ldr	r3, [pc, #252]	; (80096ac <USBH_MIDI_Process+0xd98>)
 80095ae:	eeb8 6ae7 	vcvt.f32.s32	s12, s15
 80095b2:	eef7 7a00 	vmov.f32	s15, #112	; 0x3f800000  1.0
 80095b6:	eec6 6a07 	vdiv.f32	s13, s12, s14
 80095ba:	ed9f 7a4c 	vldr	s14, [pc, #304]	; 80096ec <USBH_MIDI_Process+0xdd8>
 80095be:	ee77 7ae6 	vsub.f32	s15, s15, s13
 80095c2:	eef4 7ac7 	vcmpe.f32	s15, s14
 80095c6:	eef1 fa10 	vmrs	APSR_nzcv, fpscr
 80095ca:	bf54      	ite	pl
 80095cc:	edc3 7a8f 	vstrpl	s15, [r3, #572]	; 0x23c
 80095d0:	ed83 7a8f 	vstrmi	s14, [r3, #572]	; 0x23c
 80095d4:	f7ff badc 	b.w	8008b90 <USBH_MIDI_Process+0x27c>
 80095d8:	ee07 3a90 	vmov	s15, r3
 80095dc:	eef8 0ae7 	vcvt.f32.s32	s1, s15
 80095e0:	eddf 7a49 	vldr	s15, [pc, #292]	; 8009708 <USBH_MIDI_Process+0xdf4>
 80095e4:	ed9f 0a42 	vldr	s0, [pc, #264]	; 80096f0 <USBH_MIDI_Process+0xddc>
 80095e8:	eec0 0aa7 	vdiv.f32	s1, s1, s15
 80095ec:	f003 ffd2 	bl	800d594 <powf>
 80095f0:	4b40      	ldr	r3, [pc, #256]	; (80096f4 <USBH_MIDI_Process+0xde0>)
 80095f2:	eddf 7a41 	vldr	s15, [pc, #260]	; 80096f8 <USBH_MIDI_Process+0xde4>
 80095f6:	eddf 5a31 	vldr	s11, [pc, #196]	; 80096bc <USBH_MIDI_Process+0xda8>
 80095fa:	ee20 0a27 	vmul.f32	s0, s0, s15
 80095fe:	eddf 7a39 	vldr	s15, [pc, #228]	; 80096e4 <USBH_MIDI_Process+0xdd0>
 8009602:	ee80 7a27 	vdiv.f32	s14, s0, s15
 8009606:	eef6 4a00 	vmov.f32	s9, #96	; 0x3f000000  0.5
 800960a:	eeb4 7a65 	vcmp.f32	s14, s11
 800960e:	eef1 fa10 	vmrs	APSR_nzcv, fpscr
 8009612:	ed83 7a00 	vstr	s14, [r3]
 8009616:	bfc8      	it	gt
 8009618:	eeb0 7a65 	vmovgt.f32	s14, s11
 800961c:	ee27 7a24 	vmul.f32	s14, s14, s9
 8009620:	eddf 7a36 	vldr	s15, [pc, #216]	; 80096fc <USBH_MIDI_Process+0xde8>
 8009624:	4b21      	ldr	r3, [pc, #132]	; (80096ac <USBH_MIDI_Process+0xd98>)
 8009626:	ee67 7a27 	vmul.f32	s15, s14, s15
 800962a:	eef1 6a04 	vmov.f32	s13, #20	; 0x40a00000  5.0
 800962e:	ee77 4aa7 	vadd.f32	s9, s15, s15
 8009632:	ee67 5aa7 	vmul.f32	s11, s15, s15
 8009636:	ee54 6aa7 	vnmls.f32	s13, s9, s15
 800963a:	eeba 6a0e 	vmov.f32	s12, #174	; 0xc1700000 -15.0
 800963e:	ee27 6a86 	vmul.f32	s12, s15, s12
 8009642:	ee05 6aa7 	vmla.f32	s12, s11, s15
 8009646:	eeb0 5a08 	vmov.f32	s10, #8	; 0x40400000  3.0
 800964a:	ee66 7a85 	vmul.f32	s15, s13, s10
 800964e:	ed83 7a8d 	vstr	s14, [r3, #564]	; 0x234
 8009652:	eec6 6a27 	vdiv.f32	s13, s12, s15
 8009656:	edc3 6a8e 	vstr	s13, [r3, #568]	; 0x238
 800965a:	f7ff ba99 	b.w	8008b90 <USBH_MIDI_Process+0x27c>
 800965e:	ee07 3a90 	vmov	s15, r3
 8009662:	ed9f 7a29 	vldr	s14, [pc, #164]	; 8009708 <USBH_MIDI_Process+0xdf4>
 8009666:	4b26      	ldr	r3, [pc, #152]	; (8009700 <USBH_MIDI_Process+0xdec>)
 8009668:	eef8 6ae7 	vcvt.f32.s32	s13, s15
 800966c:	eec6 7a87 	vdiv.f32	s15, s13, s14
 8009670:	edc3 7a00 	vstr	s15, [r3]
 8009674:	f7ff ba8c 	b.w	8008b90 <USBH_MIDI_Process+0x27c>
 8009678:	ee07 3a90 	vmov	s15, r3
 800967c:	eef8 0ae7 	vcvt.f32.s32	s1, s15
 8009680:	eddf 7a21 	vldr	s15, [pc, #132]	; 8009708 <USBH_MIDI_Process+0xdf4>
 8009684:	ed9f 0a21 	vldr	s0, [pc, #132]	; 800970c <USBH_MIDI_Process+0xdf8>
 8009688:	eec0 0aa7 	vdiv.f32	s1, s1, s15
 800968c:	f003 ff82 	bl	800d594 <powf>
 8009690:	4b06      	ldr	r3, [pc, #24]	; (80096ac <USBH_MIDI_Process+0xd98>)
 8009692:	eddf 7a1c 	vldr	s15, [pc, #112]	; 8009704 <USBH_MIDI_Process+0xdf0>
 8009696:	ee20 0a27 	vmul.f32	s0, s0, s15
 800969a:	ed83 0a59 	vstr	s0, [r3, #356]	; 0x164
 800969e:	f7ff ba77 	b.w	8008b90 <USBH_MIDI_Process+0x27c>
 80096a2:	bf00      	nop
 80096a4:	100022e8 	.word	0x100022e8
 80096a8:	100038e0 	.word	0x100038e0
 80096ac:	10000000 	.word	0x10000000
 80096b0:	3be836d4 	.word	0x3be836d4
 80096b4:	3dcccccd 	.word	0x3dcccccd
 80096b8:	2001f714 	.word	0x2001f714
 80096bc:	3f733333 	.word	0x3f733333
 80096c0:	3f8147ae 	.word	0x3f8147ae
 80096c4:	3dc18306 	.word	0x3dc18306
 80096c8:	3e810204 	.word	0x3e810204
 80096cc:	3f7fbe77 	.word	0x3f7fbe77
 80096d0:	2001edc0 	.word	0x2001edc0
 80096d4:	3d611e66 	.word	0x3d611e66
 80096d8:	40c90fdb 	.word	0x40c90fdb
 80096dc:	2001f708 	.word	0x2001f708
 80096e0:	3ca3d70a 	.word	0x3ca3d70a
 80096e4:	472c4400 	.word	0x472c4400
 80096e8:	3fb33333 	.word	0x3fb33333
 80096ec:	3c23d70a 	.word	0x3c23d70a
 80096f0:	42c80000 	.word	0x42c80000
 80096f4:	2001edc8 	.word	0x2001edc8
 80096f8:	42a00000 	.word	0x42a00000
 80096fc:	40490fdb 	.word	0x40490fdb
 8009700:	2001f724 	.word	0x2001f724
 8009704:	3e4ccccd 	.word	0x3e4ccccd
 8009708:	42fe0000 	.word	0x42fe0000
 800970c:	43200000 	.word	0x43200000
 8009710:	ee07 3a90 	vmov	s15, r3
 8009714:	eef8 0ae7 	vcvt.f32.s32	s1, s15
 8009718:	ed5f 7a05 	vldr	s15, [pc, #-20]	; 8009708 <USBH_MIDI_Process+0xdf4>
 800971c:	ed1f 0a05 	vldr	s0, [pc, #-20]	; 800970c <USBH_MIDI_Process+0xdf8>
 8009720:	eec0 0aa7 	vdiv.f32	s1, s1, s15
 8009724:	f003 ff36 	bl	800d594 <powf>
 8009728:	4be9      	ldr	r3, [pc, #932]	; (8009ad0 <USBH_MIDI_Process+0x11bc>)
 800972a:	eddf 7aea 	vldr	s15, [pc, #936]	; 8009ad4 <USBH_MIDI_Process+0x11c0>
 800972e:	ee20 0a27 	vmul.f32	s0, s0, s15
 8009732:	ed83 0a51 	vstr	s0, [r3, #324]	; 0x144
 8009736:	f7ff ba2b 	b.w	8008b90 <USBH_MIDI_Process+0x27c>
 800973a:	ee07 3a90 	vmov	s15, r3
 800973e:	eef8 0ae7 	vcvt.f32.s32	s1, s15
 8009742:	eddf 7ae5 	vldr	s15, [pc, #916]	; 8009ad8 <USBH_MIDI_Process+0x11c4>
 8009746:	ed9f 0ae5 	vldr	s0, [pc, #916]	; 8009adc <USBH_MIDI_Process+0x11c8>
 800974a:	eec0 0aa7 	vdiv.f32	s1, s1, s15
 800974e:	f003 ff21 	bl	800d594 <powf>
 8009752:	4bdf      	ldr	r3, [pc, #892]	; (8009ad0 <USBH_MIDI_Process+0x11bc>)
 8009754:	eddf 7adf 	vldr	s15, [pc, #892]	; 8009ad4 <USBH_MIDI_Process+0x11c0>
 8009758:	ee20 0a27 	vmul.f32	s0, s0, s15
 800975c:	ed83 0a49 	vstr	s0, [r3, #292]	; 0x124
 8009760:	f7ff ba16 	b.w	8008b90 <USBH_MIDI_Process+0x27c>
 8009764:	ee07 3a90 	vmov	s15, r3
 8009768:	eef8 0ae7 	vcvt.f32.s32	s1, s15
 800976c:	eddf 7ada 	vldr	s15, [pc, #872]	; 8009ad8 <USBH_MIDI_Process+0x11c4>
 8009770:	ed9f 0adb 	vldr	s0, [pc, #876]	; 8009ae0 <USBH_MIDI_Process+0x11cc>
 8009774:	eec0 0aa7 	vdiv.f32	s1, s1, s15
 8009778:	f003 ff0c 	bl	800d594 <powf>
 800977c:	4bd4      	ldr	r3, [pc, #848]	; (8009ad0 <USBH_MIDI_Process+0x11bc>)
 800977e:	eef6 7a00 	vmov.f32	s15, #96	; 0x3f000000  0.5
 8009782:	ee20 0a27 	vmul.f32	s0, s0, s15
 8009786:	ed83 0a3d 	vstr	s0, [r3, #244]	; 0xf4
 800978a:	f7ff ba01 	b.w	8008b90 <USBH_MIDI_Process+0x27c>
 800978e:	2b7f      	cmp	r3, #127	; 0x7f
 8009790:	f47f a9fe 	bne.w	8008b90 <USBH_MIDI_Process+0x27c>
 8009794:	4bce      	ldr	r3, [pc, #824]	; (8009ad0 <USBH_MIDI_Process+0x11bc>)
 8009796:	ed9f 7ad3 	vldr	s14, [pc, #844]	; 8009ae4 <USBH_MIDI_Process+0x11d0>
 800979a:	edd3 7a49 	vldr	s15, [r3, #292]	; 0x124
 800979e:	ee67 7a87 	vmul.f32	s15, s15, s14
 80097a2:	edc3 7a49 	vstr	s15, [r3, #292]	; 0x124
 80097a6:	f7ff b9f3 	b.w	8008b90 <USBH_MIDI_Process+0x27c>
 80097aa:	2b7f      	cmp	r3, #127	; 0x7f
 80097ac:	f47f a9f0 	bne.w	8008b90 <USBH_MIDI_Process+0x27c>
 80097b0:	4bc7      	ldr	r3, [pc, #796]	; (8009ad0 <USBH_MIDI_Process+0x11bc>)
 80097b2:	ed9f 7acc 	vldr	s14, [pc, #816]	; 8009ae4 <USBH_MIDI_Process+0x11d0>
 80097b6:	edd3 7a51 	vldr	s15, [r3, #324]	; 0x144
 80097ba:	ee67 7a87 	vmul.f32	s15, s15, s14
 80097be:	edc3 7a51 	vstr	s15, [r3, #324]	; 0x144
 80097c2:	f7ff b9e5 	b.w	8008b90 <USBH_MIDI_Process+0x27c>
 80097c6:	2b7f      	cmp	r3, #127	; 0x7f
 80097c8:	f47f a9e2 	bne.w	8008b90 <USBH_MIDI_Process+0x27c>
 80097cc:	f8df b300 	ldr.w	fp, [pc, #768]	; 8009ad0 <USBH_MIDI_Process+0x11bc>
 80097d0:	f99b 3090 	ldrsb.w	r3, [fp, #144]	; 0x90
 80097d4:	2b00      	cmp	r3, #0
 80097d6:	f040 824b 	bne.w	8009c70 <USBH_MIDI_Process+0x135c>
 80097da:	2302      	movs	r3, #2
 80097dc:	f88b 3090 	strb.w	r3, [fp, #144]	; 0x90
 80097e0:	f7ff b9d6 	b.w	8008b90 <USBH_MIDI_Process+0x27c>
 80097e4:	2b7f      	cmp	r3, #127	; 0x7f
 80097e6:	f47f a9d3 	bne.w	8008b90 <USBH_MIDI_Process+0x27c>
 80097ea:	f8df b2e4 	ldr.w	fp, [pc, #740]	; 8009ad0 <USBH_MIDI_Process+0x11bc>
 80097ee:	f99b 3090 	ldrsb.w	r3, [fp, #144]	; 0x90
 80097f2:	2b00      	cmp	r3, #0
 80097f4:	f040 823c 	bne.w	8009c70 <USBH_MIDI_Process+0x135c>
 80097f8:	2301      	movs	r3, #1
 80097fa:	f88b 3090 	strb.w	r3, [fp, #144]	; 0x90
 80097fe:	f7ff b9c7 	b.w	8008b90 <USBH_MIDI_Process+0x27c>
 8009802:	ee07 3a90 	vmov	s15, r3
 8009806:	ed9f 7ab8 	vldr	s14, [pc, #736]	; 8009ae8 <USBH_MIDI_Process+0x11d4>
 800980a:	4bb1      	ldr	r3, [pc, #708]	; (8009ad0 <USBH_MIDI_Process+0x11bc>)
 800980c:	eef8 7ae7 	vcvt.f32.s32	s15, s15
 8009810:	ee67 7a87 	vmul.f32	s15, s15, s14
 8009814:	edc3 7a86 	vstr	s15, [r3, #536]	; 0x218
 8009818:	f7ff b9ba 	b.w	8008b90 <USBH_MIDI_Process+0x27c>
 800981c:	ee07 3a90 	vmov	s15, r3
 8009820:	ed9f 7ab2 	vldr	s14, [pc, #712]	; 8009aec <USBH_MIDI_Process+0x11d8>
 8009824:	4baa      	ldr	r3, [pc, #680]	; (8009ad0 <USBH_MIDI_Process+0x11bc>)
 8009826:	eef8 7ae7 	vcvt.f32.s32	s15, s15
 800982a:	ee67 7a87 	vmul.f32	s15, s15, s14
 800982e:	edc3 7a84 	vstr	s15, [r3, #528]	; 0x210
 8009832:	f7ff b9ad 	b.w	8008b90 <USBH_MIDI_Process+0x27c>
 8009836:	ee07 3a90 	vmov	s15, r3
 800983a:	eeb8 7ae7 	vcvt.f32.s32	s14, s15
 800983e:	eef1 7a04 	vmov.f32	s15, #20	; 0x40a00000  5.0
 8009842:	ee27 7a27 	vmul.f32	s14, s14, s15
 8009846:	eddf 6aa4 	vldr	s13, [pc, #656]	; 8009ad8 <USBH_MIDI_Process+0x11c4>
 800984a:	4ba1      	ldr	r3, [pc, #644]	; (8009ad0 <USBH_MIDI_Process+0x11bc>)
 800984c:	eec7 7a26 	vdiv.f32	s15, s14, s13
 8009850:	f503 6259 	add.w	r2, r3, #3472	; 0xd90
 8009854:	ee67 7aa7 	vmul.f32	s15, s15, s15
 8009858:	edc3 7a3b 	vstr	s15, [r3, #236]	; 0xec
 800985c:	edc3 7a43 	vstr	s15, [r3, #268]	; 0x10c
 8009860:	edc3 7a4b 	vstr	s15, [r3, #300]	; 0x12c
 8009864:	edc3 7ab8 	vstr	s15, [r3, #736]	; 0x2e0
 8009868:	f603 0334 	addw	r3, r3, #2100	; 0x834
 800986c:	edc2 7a01 	vstr	s15, [r2, #4]
 8009870:	edc3 7a01 	vstr	s15, [r3, #4]
 8009874:	f7ff b98c 	b.w	8008b90 <USBH_MIDI_Process+0x27c>
 8009878:	ee07 3a90 	vmov	s15, r3
 800987c:	eddf 0a96 	vldr	s1, [pc, #600]	; 8009ad8 <USBH_MIDI_Process+0x11c4>
 8009880:	ed9f 0a9b 	vldr	s0, [pc, #620]	; 8009af0 <USBH_MIDI_Process+0x11dc>
 8009884:	eef8 7ae7 	vcvt.f32.s32	s15, s15
 8009888:	eec7 0aa0 	vdiv.f32	s1, s15, s1
 800988c:	f003 fe82 	bl	800d594 <powf>
 8009890:	4b98      	ldr	r3, [pc, #608]	; (8009af4 <USBH_MIDI_Process+0x11e0>)
 8009892:	ed83 0a00 	vstr	s0, [r3]
 8009896:	f7ff b97b 	b.w	8008b90 <USBH_MIDI_Process+0x27c>
 800989a:	2b7f      	cmp	r3, #127	; 0x7f
 800989c:	f47f a978 	bne.w	8008b90 <USBH_MIDI_Process+0x27c>
 80098a0:	4995      	ldr	r1, [pc, #596]	; (8009af8 <USBH_MIDI_Process+0x11e4>)
 80098a2:	4a96      	ldr	r2, [pc, #600]	; (8009afc <USBH_MIDI_Process+0x11e8>)
 80098a4:	2300      	movs	r3, #0
 80098a6:	700b      	strb	r3, [r1, #0]
 80098a8:	7013      	strb	r3, [r2, #0]
 80098aa:	f002 f80b 	bl	800b8c4 <Synth_Init>
 80098ae:	f7ff b96f 	b.w	8008b90 <USBH_MIDI_Process+0x27c>
 80098b2:	2b7f      	cmp	r3, #127	; 0x7f
 80098b4:	f47f a96c 	bne.w	8008b90 <USBH_MIDI_Process+0x27c>
 80098b8:	4a8f      	ldr	r2, [pc, #572]	; (8009af8 <USBH_MIDI_Process+0x11e4>)
 80098ba:	7813      	ldrb	r3, [r2, #0]
 80098bc:	f083 0301 	eor.w	r3, r3, #1
 80098c0:	7013      	strb	r3, [r2, #0]
 80098c2:	f7ff b965 	b.w	8008b90 <USBH_MIDI_Process+0x27c>
 80098c6:	eb03 02c3 	add.w	r2, r3, r3, lsl #3
 80098ca:	eb03 0342 	add.w	r3, r3, r2, lsl #1
 80098ce:	ee07 3a90 	vmov	s15, r3
 80098d2:	eddf 5a81 	vldr	s11, [pc, #516]	; 8009ad8 <USBH_MIDI_Process+0x11c4>
 80098d6:	4b7e      	ldr	r3, [pc, #504]	; (8009ad0 <USBH_MIDI_Process+0x11bc>)
 80098d8:	eddf 6a89 	vldr	s13, [pc, #548]	; 8009b00 <USBH_MIDI_Process+0x11ec>
 80098dc:	eeb8 7ae7 	vcvt.f32.s32	s14, s15
 80098e0:	eeb7 6a00 	vmov.f32	s12, #112	; 0x3f800000  1.0
 80098e4:	eec7 7a25 	vdiv.f32	s15, s14, s11
 80098e8:	ed93 7a72 	vldr	s14, [r3, #456]	; 0x1c8
 80098ec:	ee77 7a86 	vadd.f32	s15, s15, s12
 80098f0:	ee67 7a87 	vmul.f32	s15, s15, s14
 80098f4:	eef4 7ae6 	vcmpe.f32	s15, s13
 80098f8:	eef1 fa10 	vmrs	APSR_nzcv, fpscr
 80098fc:	f340 81b0 	ble.w	8009c60 <USBH_MIDI_Process+0x134c>
 8009900:	edc3 6a5b 	vstr	s13, [r3, #364]	; 0x16c
 8009904:	edc3 6a66 	vstr	s13, [r3, #408]	; 0x198
 8009908:	edc3 6a71 	vstr	s13, [r3, #452]	; 0x1c4
 800990c:	f7ff b940 	b.w	8008b90 <USBH_MIDI_Process+0x27c>
 8009910:	2232      	movs	r2, #50	; 0x32
 8009912:	fb13 f302 	smulbb	r3, r3, r2
 8009916:	ee07 3a90 	vmov	s15, r3
 800991a:	ed9f 6a6f 	vldr	s12, [pc, #444]	; 8009ad8 <USBH_MIDI_Process+0x11c4>
 800991e:	eddf 6a79 	vldr	s13, [pc, #484]	; 8009b04 <USBH_MIDI_Process+0x11f0>
 8009922:	4b6b      	ldr	r3, [pc, #428]	; (8009ad0 <USBH_MIDI_Process+0x11bc>)
 8009924:	eeb8 7ae7 	vcvt.f32.s32	s14, s15
 8009928:	eec7 7a06 	vdiv.f32	s15, s14, s12
 800992c:	ee77 7aa6 	vadd.f32	s15, s15, s13
 8009930:	edc3 7a5c 	vstr	s15, [r3, #368]	; 0x170
 8009934:	edc3 7a67 	vstr	s15, [r3, #412]	; 0x19c
 8009938:	edc3 7a72 	vstr	s15, [r3, #456]	; 0x1c8
 800993c:	f7ff b928 	b.w	8008b90 <USBH_MIDI_Process+0x27c>
 8009940:	ee07 3a90 	vmov	s15, r3
 8009944:	ed9f 7a64 	vldr	s14, [pc, #400]	; 8009ad8 <USBH_MIDI_Process+0x11c4>
 8009948:	4b61      	ldr	r3, [pc, #388]	; (8009ad0 <USBH_MIDI_Process+0x11bc>)
 800994a:	eef8 6ae7 	vcvt.f32.s32	s13, s15
 800994e:	eec6 7a87 	vdiv.f32	s15, s13, s14
 8009952:	ee67 7aa7 	vmul.f32	s15, s15, s15
 8009956:	edc3 7a5d 	vstr	s15, [r3, #372]	; 0x174
 800995a:	edc3 7a68 	vstr	s15, [r3, #416]	; 0x1a0
 800995e:	edc3 7a73 	vstr	s15, [r3, #460]	; 0x1cc
 8009962:	f7ff b915 	b.w	8008b90 <USBH_MIDI_Process+0x27c>
 8009966:	ee07 3a90 	vmov	s15, r3
 800996a:	ed9f 7a5f 	vldr	s14, [pc, #380]	; 8009ae8 <USBH_MIDI_Process+0x11d4>
 800996e:	4b58      	ldr	r3, [pc, #352]	; (8009ad0 <USBH_MIDI_Process+0x11bc>)
 8009970:	eef8 7ae7 	vcvt.f32.s32	s15, s15
 8009974:	ee67 7a87 	vmul.f32	s15, s15, s14
 8009978:	edc3 7ab1 	vstr	s15, [r3, #708]	; 0x2c4
 800997c:	f7ff b908 	b.w	8008b90 <USBH_MIDI_Process+0x27c>
 8009980:	ee07 3a90 	vmov	s15, r3
 8009984:	ed9f 7a54 	vldr	s14, [pc, #336]	; 8009ad8 <USBH_MIDI_Process+0x11c4>
 8009988:	4b51      	ldr	r3, [pc, #324]	; (8009ad0 <USBH_MIDI_Process+0x11bc>)
 800998a:	eef8 6ae7 	vcvt.f32.s32	s13, s15
 800998e:	eec6 7a87 	vdiv.f32	s15, s13, s14
 8009992:	edc3 7aaf 	vstr	s15, [r3, #700]	; 0x2bc
 8009996:	f7ff b8fb 	b.w	8008b90 <USBH_MIDI_Process+0x27c>
 800999a:	eb03 0383 	add.w	r3, r3, r3, lsl #2
 800999e:	ee07 3a90 	vmov	s15, r3
 80099a2:	ed9f 0a4d 	vldr	s0, [pc, #308]	; 8009ad8 <USBH_MIDI_Process+0x11c4>
 80099a6:	eef8 7ae7 	vcvt.f32.s32	s15, s15
 80099aa:	ee87 0a80 	vdiv.f32	s0, s15, s0
 80099ae:	f003 fcfd 	bl	800d3ac <lrintf>
 80099b2:	4b47      	ldr	r3, [pc, #284]	; (8009ad0 <USBH_MIDI_Process+0x11bc>)
 80099b4:	f883 01f0 	strb.w	r0, [r3, #496]	; 0x1f0
 80099b8:	f7ff b8ea 	b.w	8008b90 <USBH_MIDI_Process+0x27c>
 80099bc:	ee07 3a90 	vmov	s15, r3
 80099c0:	eddf 6a45 	vldr	s13, [pc, #276]	; 8009ad8 <USBH_MIDI_Process+0x11c4>
 80099c4:	4b42      	ldr	r3, [pc, #264]	; (8009ad0 <USBH_MIDI_Process+0x11bc>)
 80099c6:	eeb8 6ae7 	vcvt.f32.s32	s12, s15
 80099ca:	eeb1 7a08 	vmov.f32	s14, #24	; 0x40c00000  6.0
 80099ce:	eec6 7a26 	vdiv.f32	s15, s12, s13
 80099d2:	ee67 7aa7 	vmul.f32	s15, s15, s15
 80099d6:	ee67 7a87 	vmul.f32	s15, s15, s14
 80099da:	edc3 7a82 	vstr	s15, [r3, #520]	; 0x208
 80099de:	f7ff b8d7 	b.w	8008b90 <USBH_MIDI_Process+0x27c>
 80099e2:	2b7f      	cmp	r3, #127	; 0x7f
 80099e4:	f47f a8d4 	bne.w	8008b90 <USBH_MIDI_Process+0x27c>
 80099e8:	4b39      	ldr	r3, [pc, #228]	; (8009ad0 <USBH_MIDI_Process+0x11bc>)
 80099ea:	ed9f 7a3e 	vldr	s14, [pc, #248]	; 8009ae4 <USBH_MIDI_Process+0x11d0>
 80099ee:	edd3 7a59 	vldr	s15, [r3, #356]	; 0x164
 80099f2:	ee67 7a87 	vmul.f32	s15, s15, s14
 80099f6:	edc3 7a59 	vstr	s15, [r3, #356]	; 0x164
 80099fa:	f7ff b8c9 	b.w	8008b90 <USBH_MIDI_Process+0x27c>
 80099fe:	ee07 3a90 	vmov	s15, r3
 8009a02:	eef8 0ae7 	vcvt.f32.s32	s1, s15
 8009a06:	eddf 7a34 	vldr	s15, [pc, #208]	; 8009ad8 <USBH_MIDI_Process+0x11c4>
 8009a0a:	ed9f 0a3f 	vldr	s0, [pc, #252]	; 8009b08 <USBH_MIDI_Process+0x11f4>
 8009a0e:	eec0 0aa7 	vdiv.f32	s1, s1, s15
 8009a12:	f003 fdbf 	bl	800d594 <powf>
 8009a16:	4b3d      	ldr	r3, [pc, #244]	; (8009b0c <USBH_MIDI_Process+0x11f8>)
 8009a18:	eddf 7a3d 	vldr	s15, [pc, #244]	; 8009b10 <USBH_MIDI_Process+0x11fc>
 8009a1c:	eddf 5a3d 	vldr	s11, [pc, #244]	; 8009b14 <USBH_MIDI_Process+0x1200>
 8009a20:	ee20 0a27 	vmul.f32	s0, s0, s15
 8009a24:	eddf 7a3c 	vldr	s15, [pc, #240]	; 8009b18 <USBH_MIDI_Process+0x1204>
 8009a28:	ee80 7a27 	vdiv.f32	s14, s0, s15
 8009a2c:	eef6 4a00 	vmov.f32	s9, #96	; 0x3f000000  0.5
 8009a30:	eeb4 7a65 	vcmp.f32	s14, s11
 8009a34:	eef1 fa10 	vmrs	APSR_nzcv, fpscr
 8009a38:	ed83 7a00 	vstr	s14, [r3]
 8009a3c:	bfc8      	it	gt
 8009a3e:	eeb0 7a65 	vmovgt.f32	s14, s11
 8009a42:	ee27 7a24 	vmul.f32	s14, s14, s9
 8009a46:	eddf 7a35 	vldr	s15, [pc, #212]	; 8009b1c <USBH_MIDI_Process+0x1208>
 8009a4a:	4b21      	ldr	r3, [pc, #132]	; (8009ad0 <USBH_MIDI_Process+0x11bc>)
 8009a4c:	ee67 7a27 	vmul.f32	s15, s14, s15
 8009a50:	eef1 6a04 	vmov.f32	s13, #20	; 0x40a00000  5.0
 8009a54:	ee77 4aa7 	vadd.f32	s9, s15, s15
 8009a58:	ee67 5aa7 	vmul.f32	s11, s15, s15
 8009a5c:	ee54 6aa7 	vnmls.f32	s13, s9, s15
 8009a60:	eeba 6a0e 	vmov.f32	s12, #174	; 0xc1700000 -15.0
 8009a64:	ee27 6a86 	vmul.f32	s12, s15, s12
 8009a68:	ee05 6aa7 	vmla.f32	s12, s11, s15
 8009a6c:	eeb0 5a08 	vmov.f32	s10, #8	; 0x40400000  3.0
 8009a70:	ee66 7a85 	vmul.f32	s15, s13, s10
 8009a74:	ed83 7a7d 	vstr	s14, [r3, #500]	; 0x1f4
 8009a78:	eec6 6a27 	vdiv.f32	s13, s12, s15
 8009a7c:	edc3 6a7e 	vstr	s13, [r3, #504]	; 0x1f8
 8009a80:	f7ff b886 	b.w	8008b90 <USBH_MIDI_Process+0x27c>
 8009a84:	ee06 3a10 	vmov	s12, r3
 8009a88:	ed9f 7a13 	vldr	s14, [pc, #76]	; 8009ad8 <USBH_MIDI_Process+0x11c4>
 8009a8c:	eddf 6a26 	vldr	s13, [pc, #152]	; 8009b28 <USBH_MIDI_Process+0x1214>
 8009a90:	4b0f      	ldr	r3, [pc, #60]	; (8009ad0 <USBH_MIDI_Process+0x11bc>)
 8009a92:	eeba 6aef 	vcvt.f32.s32	s12, s12, #1
 8009a96:	eec6 7a07 	vdiv.f32	s15, s12, s14
 8009a9a:	ed9f 7a1f 	vldr	s14, [pc, #124]	; 8009b18 <USBH_MIDI_Process+0x1204>
 8009a9e:	ee77 7aa6 	vadd.f32	s15, s15, s13
 8009aa2:	edd3 6a9f 	vldr	s13, [r3, #636]	; 0x27c
 8009aa6:	ee67 7a87 	vmul.f32	s15, s15, s14
 8009aaa:	ee86 7aa7 	vdiv.f32	s14, s13, s15
 8009aae:	ed83 7aa0 	vstr	s14, [r3, #640]	; 0x280
 8009ab2:	f7ff b86d 	b.w	8008b90 <USBH_MIDI_Process+0x27c>
 8009ab6:	ee07 3a90 	vmov	s15, r3
 8009aba:	ed9f 7a07 	vldr	s14, [pc, #28]	; 8009ad8 <USBH_MIDI_Process+0x11c4>
 8009abe:	4b04      	ldr	r3, [pc, #16]	; (8009ad0 <USBH_MIDI_Process+0x11bc>)
 8009ac0:	eef8 6ae7 	vcvt.f32.s32	s13, s15
 8009ac4:	eec6 7a87 	vdiv.f32	s15, s13, s14
 8009ac8:	edc3 7a9f 	vstr	s15, [r3, #636]	; 0x27c
 8009acc:	f7ff b860 	b.w	8008b90 <USBH_MIDI_Process+0x27c>
 8009ad0:	10000000 	.word	0x10000000
 8009ad4:	3e4ccccd 	.word	0x3e4ccccd
 8009ad8:	42fe0000 	.word	0x42fe0000
 8009adc:	43200000 	.word	0x43200000
 8009ae0:	467a0000 	.word	0x467a0000
 8009ae4:	3f7d70a4 	.word	0x3f7d70a4
 8009ae8:	3dc18306 	.word	0x3dc18306
 8009aec:	3e810204 	.word	0x3e810204
 8009af0:	45bb8000 	.word	0x45bb8000
 8009af4:	20000024 	.word	0x20000024
 8009af8:	20000054 	.word	0x20000054
 8009afc:	2001edcc 	.word	0x2001edcc
 8009b00:	461c4000 	.word	0x461c4000
 8009b04:	3dcccccd 	.word	0x3dcccccd
 8009b08:	42c80000 	.word	0x42c80000
 8009b0c:	2001edc4 	.word	0x2001edc4
 8009b10:	42a00000 	.word	0x42a00000
 8009b14:	3f733333 	.word	0x3f733333
 8009b18:	472c4400 	.word	0x472c4400
 8009b1c:	40490fdb 	.word	0x40490fdb
 8009b20:	3e4ccccd 	.word	0x3e4ccccd
 8009b24:	42fe0000 	.word	0x42fe0000
 8009b28:	38d1b717 	.word	0x38d1b717
 8009b2c:	ee07 3a90 	vmov	s15, r3
 8009b30:	eeb8 7ae7 	vcvt.f32.s32	s14, s15
 8009b34:	ed5f 7a06 	vldr	s15, [pc, #-24]	; 8009b20 <USBH_MIDI_Process+0x120c>
 8009b38:	ed5f 6a06 	vldr	s13, [pc, #-24]	; 8009b24 <USBH_MIDI_Process+0x1210>
 8009b3c:	ed1f 6a06 	vldr	s12, [pc, #-24]	; 8009b28 <USBH_MIDI_Process+0x1214>
 8009b40:	4b72      	ldr	r3, [pc, #456]	; (8009d0c <USBH_MIDI_Process+0x13f8>)
 8009b42:	ee27 7a27 	vmul.f32	s14, s14, s15
 8009b46:	eec7 7a26 	vdiv.f32	s15, s14, s13
 8009b4a:	ed9f 7a71 	vldr	s14, [pc, #452]	; 8009d10 <USBH_MIDI_Process+0x13fc>
 8009b4e:	ee77 7a86 	vadd.f32	s15, s15, s12
 8009b52:	eef7 6a00 	vmov.f32	s13, #112	; 0x3f800000  1.0
 8009b56:	ee67 7a87 	vmul.f32	s15, s15, s14
 8009b5a:	ee86 7aa7 	vdiv.f32	s14, s13, s15
 8009b5e:	ed83 7a9e 	vstr	s14, [r3, #632]	; 0x278
 8009b62:	f7ff b815 	b.w	8008b90 <USBH_MIDI_Process+0x27c>
 8009b66:	ee07 3a90 	vmov	s15, r3
 8009b6a:	ed9f 7a6a 	vldr	s14, [pc, #424]	; 8009d14 <USBH_MIDI_Process+0x1400>
 8009b6e:	ed9f 6a6a 	vldr	s12, [pc, #424]	; 8009d18 <USBH_MIDI_Process+0x1404>
 8009b72:	4b66      	ldr	r3, [pc, #408]	; (8009d0c <USBH_MIDI_Process+0x13f8>)
 8009b74:	eef8 6ae7 	vcvt.f32.s32	s13, s15
 8009b78:	eec6 7a87 	vdiv.f32	s15, s13, s14
 8009b7c:	ed9f 7a64 	vldr	s14, [pc, #400]	; 8009d10 <USBH_MIDI_Process+0x13fc>
 8009b80:	ee77 7a86 	vadd.f32	s15, s15, s12
 8009b84:	eef7 6a00 	vmov.f32	s13, #112	; 0x3f800000  1.0
 8009b88:	ee67 7a87 	vmul.f32	s15, s15, s14
 8009b8c:	ee86 7aa7 	vdiv.f32	s14, s13, s15
 8009b90:	ed83 7a9d 	vstr	s14, [r3, #628]	; 0x274
 8009b94:	f7fe bffc 	b.w	8008b90 <USBH_MIDI_Process+0x27c>
 8009b98:	ee07 3a90 	vmov	s15, r3
 8009b9c:	eeb8 7ae7 	vcvt.f32.s32	s14, s15
 8009ba0:	eddf 7a5e 	vldr	s15, [pc, #376]	; 8009d1c <USBH_MIDI_Process+0x1408>
 8009ba4:	ed9f 6a5b 	vldr	s12, [pc, #364]	; 8009d14 <USBH_MIDI_Process+0x1400>
 8009ba8:	4b58      	ldr	r3, [pc, #352]	; (8009d0c <USBH_MIDI_Process+0x13f8>)
 8009baa:	eddf 6a5d 	vldr	s13, [pc, #372]	; 8009d20 <USBH_MIDI_Process+0x140c>
 8009bae:	ee27 7a27 	vmul.f32	s14, s14, s15
 8009bb2:	eec7 7a06 	vdiv.f32	s15, s14, s12
 8009bb6:	ed93 7a1b 	vldr	s14, [r3, #108]	; 0x6c
 8009bba:	ee77 7aa6 	vadd.f32	s15, s15, s13
 8009bbe:	eeb8 7ac7 	vcvt.f32.s32	s14, s14
 8009bc2:	ee67 7a87 	vmul.f32	s15, s15, s14
 8009bc6:	eefd 7ae7 	vcvt.s32.f32	s15, s15
 8009bca:	edc3 7a1e 	vstr	s15, [r3, #120]	; 0x78
 8009bce:	f7fe bfdf 	b.w	8008b90 <USBH_MIDI_Process+0x27c>
 8009bd2:	2b7f      	cmp	r3, #127	; 0x7f
 8009bd4:	f47e afdc 	bne.w	8008b90 <USBH_MIDI_Process+0x27c>
 8009bd8:	4b52      	ldr	r3, [pc, #328]	; (8009d24 <USBH_MIDI_Process+0x1410>)
 8009bda:	681a      	ldr	r2, [r3, #0]
 8009bdc:	f247 511b 	movw	r1, #29979	; 0x751b
 8009be0:	428a      	cmp	r2, r1
 8009be2:	bf9c      	itt	ls
 8009be4:	3214      	addls	r2, #20
 8009be6:	601a      	strls	r2, [r3, #0]
 8009be8:	681a      	ldr	r2, [r3, #0]
 8009bea:	4b4f      	ldr	r3, [pc, #316]	; (8009d28 <USBH_MIDI_Process+0x1414>)
 8009bec:	681b      	ldr	r3, [r3, #0]
 8009bee:	eba3 0382 	sub.w	r3, r3, r2, lsl #2
 8009bf2:	4a4e      	ldr	r2, [pc, #312]	; (8009d2c <USBH_MIDI_Process+0x1418>)
 8009bf4:	4293      	cmp	r3, r2
 8009bf6:	bf38      	it	cc
 8009bf8:	f503 33ea 	addcc.w	r3, r3, #119808	; 0x1d400
 8009bfc:	4a4c      	ldr	r2, [pc, #304]	; (8009d30 <USBH_MIDI_Process+0x141c>)
 8009bfe:	bf38      	it	cc
 8009c00:	33bc      	addcc	r3, #188	; 0xbc
 8009c02:	6013      	str	r3, [r2, #0]
 8009c04:	f7fe bfc4 	b.w	8008b90 <USBH_MIDI_Process+0x27c>
 8009c08:	2b7f      	cmp	r3, #127	; 0x7f
 8009c0a:	f47e afc1 	bne.w	8008b90 <USBH_MIDI_Process+0x27c>
 8009c0e:	4b45      	ldr	r3, [pc, #276]	; (8009d24 <USBH_MIDI_Process+0x1410>)
 8009c10:	681a      	ldr	r2, [r3, #0]
 8009c12:	f5b2 7f87 	cmp.w	r2, #270	; 0x10e
 8009c16:	bf84      	itt	hi
 8009c18:	3a14      	subhi	r2, #20
 8009c1a:	601a      	strhi	r2, [r3, #0]
 8009c1c:	681a      	ldr	r2, [r3, #0]
 8009c1e:	4b42      	ldr	r3, [pc, #264]	; (8009d28 <USBH_MIDI_Process+0x1414>)
 8009c20:	681b      	ldr	r3, [r3, #0]
 8009c22:	eba3 0382 	sub.w	r3, r3, r2, lsl #2
 8009c26:	4a41      	ldr	r2, [pc, #260]	; (8009d2c <USBH_MIDI_Process+0x1418>)
 8009c28:	4293      	cmp	r3, r2
 8009c2a:	bf38      	it	cc
 8009c2c:	f503 33ea 	addcc.w	r3, r3, #119808	; 0x1d400
 8009c30:	4a3f      	ldr	r2, [pc, #252]	; (8009d30 <USBH_MIDI_Process+0x141c>)
 8009c32:	bf38      	it	cc
 8009c34:	33bc      	addcc	r3, #188	; 0xbc
 8009c36:	6013      	str	r3, [r2, #0]
 8009c38:	f7fe bfaa 	b.w	8008b90 <USBH_MIDI_Process+0x27c>
 8009c3c:	f8df c100 	ldr.w	ip, [pc, #256]	; 8009d40 <USBH_MIDI_Process+0x142c>
 8009c40:	483c      	ldr	r0, [pc, #240]	; (8009d34 <USBH_MIDI_Process+0x1420>)
 8009c42:	f44f 4e00 	mov.w	lr, #32768	; 0x8000
 8009c46:	f8ac e018 	strh.w	lr, [ip, #24]
 8009c4a:	f04f 0c08 	mov.w	ip, #8
 8009c4e:	f8c0 c00c 	str.w	ip, [r0, #12]
 8009c52:	f7fe bfac 	b.w	8008bae <USBH_MIDI_Process+0x29a>
 8009c56:	f8d8 35c4 	ldr.w	r3, [r8, #1476]	; 0x5c4
 8009c5a:	69db      	ldr	r3, [r3, #28]
 8009c5c:	f7fe bf67 	b.w	8008b2e <USBH_MIDI_Process+0x21a>
 8009c60:	edc3 7a5b 	vstr	s15, [r3, #364]	; 0x16c
 8009c64:	edc3 7a66 	vstr	s15, [r3, #408]	; 0x198
 8009c68:	edc3 7a71 	vstr	s15, [r3, #452]	; 0x1c4
 8009c6c:	f7fe bf90 	b.w	8008b90 <USBH_MIDI_Process+0x27c>
 8009c70:	2300      	movs	r3, #0
 8009c72:	f88b 3090 	strb.w	r3, [fp, #144]	; 0x90
 8009c76:	f7fe bf8b 	b.w	8008b90 <USBH_MIDI_Process+0x27c>
 8009c7a:	4b24      	ldr	r3, [pc, #144]	; (8009d0c <USBH_MIDI_Process+0x13f8>)
 8009c7c:	f8d3 c0ec 	ldr.w	ip, [r3, #236]	; 0xec
 8009c80:	f8c3 c0f0 	str.w	ip, [r3, #240]	; 0xf0
 8009c84:	f503 6059 	add.w	r0, r3, #3472	; 0xd90
 8009c88:	f8d3 c10c 	ldr.w	ip, [r3, #268]	; 0x10c
 8009c8c:	f8c3 c110 	str.w	ip, [r3, #272]	; 0x110
 8009c90:	f603 0134 	addw	r1, r3, #2100	; 0x834
 8009c94:	f8d3 c12c 	ldr.w	ip, [r3, #300]	; 0x12c
 8009c98:	f8c3 c130 	str.w	ip, [r3, #304]	; 0x130
 8009c9c:	2200      	movs	r2, #0
 8009c9e:	f8d0 c004 	ldr.w	ip, [r0, #4]
 8009ca2:	f8c0 c008 	str.w	ip, [r0, #8]
 8009ca6:	6042      	str	r2, [r0, #4]
 8009ca8:	6848      	ldr	r0, [r1, #4]
 8009caa:	6088      	str	r0, [r1, #8]
 8009cac:	604a      	str	r2, [r1, #4]
 8009cae:	f8d3 12e0 	ldr.w	r1, [r3, #736]	; 0x2e0
 8009cb2:	f8c3 20ec 	str.w	r2, [r3, #236]	; 0xec
 8009cb6:	f8c3 210c 	str.w	r2, [r3, #268]	; 0x10c
 8009cba:	f8c3 212c 	str.w	r2, [r3, #300]	; 0x12c
 8009cbe:	f8c3 22e0 	str.w	r2, [r3, #736]	; 0x2e0
 8009cc2:	f8c3 12e4 	str.w	r1, [r3, #740]	; 0x2e4
 8009cc6:	f7fe bf63 	b.w	8008b90 <USBH_MIDI_Process+0x27c>
 8009cca:	ed99 7a01 	vldr	s14, [r9, #4]
 8009cce:	edda 7a01 	vldr	s15, [sl, #4]
 8009cd2:	eeb0 7ac7 	vabs.f32	s14, s14
 8009cd6:	eef0 7ae7 	vabs.f32	s15, s15
 8009cda:	eeb1 7a47 	vneg.f32	s14, s14
 8009cde:	eef1 7a67 	vneg.f32	s15, s15
 8009ce2:	ed89 7a01 	vstr	s14, [r9, #4]
 8009ce6:	edca 7a01 	vstr	s15, [sl, #4]
 8009cea:	f7fe bf51 	b.w	8008b90 <USBH_MIDI_Process+0x27c>
 8009cee:	4912      	ldr	r1, [pc, #72]	; (8009d38 <USBH_MIDI_Process+0x1424>)
 8009cf0:	4a12      	ldr	r2, [pc, #72]	; (8009d3c <USBH_MIDI_Process+0x1428>)
 8009cf2:	2301      	movs	r3, #1
 8009cf4:	f881 35f4 	strb.w	r3, [r1, #1524]	; 0x5f4
 8009cf8:	f882 35f4 	strb.w	r3, [r2, #1524]	; 0x5f4
 8009cfc:	f7fe bf48 	b.w	8008b90 <USBH_MIDI_Process+0x27c>
 8009d00:	4a02      	ldr	r2, [pc, #8]	; (8009d0c <USBH_MIDI_Process+0x13f8>)
 8009d02:	f882 308d 	strb.w	r3, [r2, #141]	; 0x8d
 8009d06:	f7fe bf43 	b.w	8008b90 <USBH_MIDI_Process+0x27c>
 8009d0a:	bf00      	nop
 8009d0c:	10000000 	.word	0x10000000
 8009d10:	472c4400 	.word	0x472c4400
 8009d14:	42fe0000 	.word	0x42fe0000
 8009d18:	38d1b717 	.word	0x38d1b717
 8009d1c:	3f4ccccc 	.word	0x3f4ccccc
 8009d20:	3dcccccd 	.word	0x3dcccccd
 8009d24:	2001f71c 	.word	0x2001f71c
 8009d28:	2001f728 	.word	0x2001f728
 8009d2c:	200018f8 	.word	0x200018f8
 8009d30:	2001f718 	.word	0x2001f718
 8009d34:	200008fc 	.word	0x200008fc
 8009d38:	100022e8 	.word	0x100022e8
 8009d3c:	100038e0 	.word	0x100038e0
 8009d40:	40020c00 	.word	0x40020c00

08009d44 <main>:
main():
 8009d44:	4baf      	ldr	r3, [pc, #700]	; (800a004 <main+0x2c0>)
 8009d46:	48b0      	ldr	r0, [pc, #704]	; (800a008 <main+0x2c4>)
 8009d48:	6819      	ldr	r1, [r3, #0]
 8009d4a:	4ab0      	ldr	r2, [pc, #704]	; (800a00c <main+0x2c8>)
 8009d4c:	f441 7100 	orr.w	r1, r1, #512	; 0x200
 8009d50:	e92d 4800 	stmdb	sp!, {fp, lr}
 8009d54:	6019      	str	r1, [r3, #0]
 8009d56:	6819      	ldr	r1, [r3, #0]
 8009d58:	f441 6180 	orr.w	r1, r1, #1024	; 0x400
 8009d5c:	6019      	str	r1, [r3, #0]
 8009d5e:	6819      	ldr	r1, [r3, #0]
 8009d60:	f441 7180 	orr.w	r1, r1, #256	; 0x100
 8009d64:	6019      	str	r1, [r3, #0]
 8009d66:	68c3      	ldr	r3, [r0, #12]
 8009d68:	f64f 04ff 	movw	r4, #63743	; 0xf8ff
 8009d6c:	4023      	ands	r3, r4
 8009d6e:	431a      	orrs	r2, r3
 8009d70:	60c2      	str	r2, [r0, #12]
 8009d72:	b094      	sub	sp, #80	; 0x50
 8009d74:	f002 fd28 	bl	800c7c8 <HAL_InitTick.constprop.0.isra.0>
 8009d78:	2001      	movs	r0, #1
 8009d7a:	f7f6 ff8b 	bl	8000c94 <BSP_LED_Init>
 8009d7e:	2000      	movs	r0, #0
 8009d80:	f7f6 ff88 	bl	8000c94 <BSP_LED_Init>
 8009d84:	2002      	movs	r0, #2
 8009d86:	f7f6 ff85 	bl	8000c94 <BSP_LED_Init>
 8009d8a:	2003      	movs	r0, #3
 8009d8c:	f7f6 ff82 	bl	8000c94 <BSP_LED_Init>
 8009d90:	4b9f      	ldr	r3, [pc, #636]	; (800a010 <main+0x2cc>)
 8009d92:	49a0      	ldr	r1, [pc, #640]	; (800a014 <main+0x2d0>)
 8009d94:	6c1a      	ldr	r2, [r3, #64]	; 0x40
 8009d96:	f042 5280 	orr.w	r2, r2, #268435456	; 0x10000000
 8009d9a:	641a      	str	r2, [r3, #64]	; 0x40
 8009d9c:	680a      	ldr	r2, [r1, #0]
 8009d9e:	f442 4240 	orr.w	r2, r2, #49152	; 0xc000
 8009da2:	600a      	str	r2, [r1, #0]
 8009da4:	689a      	ldr	r2, [r3, #8]
 8009da6:	f002 020c 	and.w	r2, r2, #12
 8009daa:	2a04      	cmp	r2, #4
 8009dac:	d007      	beq.n	8009dbe <main+0x7a>
 8009dae:	689a      	ldr	r2, [r3, #8]
 8009db0:	f002 020c 	and.w	r2, r2, #12
 8009db4:	2a08      	cmp	r2, #8
 8009db6:	d112      	bne.n	8009dde <main+0x9a>
 8009db8:	685b      	ldr	r3, [r3, #4]
 8009dba:	025b      	lsls	r3, r3, #9
 8009dbc:	d50f      	bpl.n	8009dde <main+0x9a>
 8009dbe:	4b94      	ldr	r3, [pc, #592]	; (800a010 <main+0x2cc>)
 8009dc0:	681b      	ldr	r3, [r3, #0]
 8009dc2:	4a93      	ldr	r2, [pc, #588]	; (800a010 <main+0x2cc>)
 8009dc4:	6893      	ldr	r3, [r2, #8]
 8009dc6:	f003 030c 	and.w	r3, r3, #12
 8009dca:	2b08      	cmp	r3, #8
 8009dcc:	d028      	beq.n	8009e20 <main+0xdc>
 8009dce:	4b92      	ldr	r3, [pc, #584]	; (800a018 <main+0x2d4>)
 8009dd0:	f8df b25c 	ldr.w	fp, [pc, #604]	; 800a030 <main+0x2ec>
 8009dd4:	2100      	movs	r1, #0
 8009dd6:	6619      	str	r1, [r3, #96]	; 0x60
 8009dd8:	f8db 1000 	ldr.w	r1, [fp]
 8009ddc:	e027      	b.n	8009e2e <main+0xea>
 8009dde:	4a8c      	ldr	r2, [pc, #560]	; (800a010 <main+0x2cc>)
 8009de0:	f8df b24c 	ldr.w	fp, [pc, #588]	; 800a030 <main+0x2ec>
 8009de4:	2300      	movs	r3, #0
 8009de6:	7093      	strb	r3, [r2, #2]
 8009de8:	f8db 0000 	ldr.w	r0, [fp]
 8009dec:	f241 3188 	movw	r1, #5000	; 0x1388
 8009df0:	e004      	b.n	8009dfc <main+0xb8>
 8009df2:	f8db 3000 	ldr.w	r3, [fp]
 8009df6:	1a1b      	subs	r3, r3, r0
 8009df8:	428b      	cmp	r3, r1
 8009dfa:	d811      	bhi.n	8009e20 <main+0xdc>
 8009dfc:	6813      	ldr	r3, [r2, #0]
 8009dfe:	039e      	lsls	r6, r3, #14
 8009e00:	d4f7      	bmi.n	8009df2 <main+0xae>
 8009e02:	2301      	movs	r3, #1
 8009e04:	7093      	strb	r3, [r2, #2]
 8009e06:	f8db 0000 	ldr.w	r0, [fp]
 8009e0a:	4981      	ldr	r1, [pc, #516]	; (800a010 <main+0x2cc>)
 8009e0c:	f241 3288 	movw	r2, #5000	; 0x1388
 8009e10:	680b      	ldr	r3, [r1, #0]
 8009e12:	039d      	lsls	r5, r3, #14
 8009e14:	d4d5      	bmi.n	8009dc2 <main+0x7e>
 8009e16:	f8db 3000 	ldr.w	r3, [fp]
 8009e1a:	1a1b      	subs	r3, r3, r0
 8009e1c:	4293      	cmp	r3, r2
 8009e1e:	d9f7      	bls.n	8009e10 <main+0xcc>
 8009e20:	f7f7 f956 	bl	80010d0 <Error_Handler>
 8009e24:	f8db 3000 	ldr.w	r3, [fp]
 8009e28:	1a5b      	subs	r3, r3, r1
 8009e2a:	2b64      	cmp	r3, #100	; 0x64
 8009e2c:	d8f8      	bhi.n	8009e20 <main+0xdc>
 8009e2e:	6813      	ldr	r3, [r2, #0]
 8009e30:	019c      	lsls	r4, r3, #6
 8009e32:	d4f7      	bmi.n	8009e24 <main+0xe0>
 8009e34:	f647 70c0 	movw	r0, #32704	; 0x7fc0
 8009e38:	fa90 f0a0 	rbit	r0, r0
 8009e3c:	fab0 f080 	clz	r0, r0
 8009e40:	f44f 3340 	mov.w	r3, #196608	; 0x30000
 8009e44:	fa93 f3a3 	rbit	r3, r3
 8009e48:	fab3 f383 	clz	r3, r3
 8009e4c:	f04f 6170 	mov.w	r1, #251658240	; 0xf000000
 8009e50:	fa91 f1a1 	rbit	r1, r1
 8009e54:	fab1 f181 	clz	r1, r1
 8009e58:	f44f 73a8 	mov.w	r3, #336	; 0x150
 8009e5c:	b2c0      	uxtb	r0, r0
 8009e5e:	b2c9      	uxtb	r1, r1
 8009e60:	2407      	movs	r4, #7
 8009e62:	4083      	lsls	r3, r0
 8009e64:	fa04 f101 	lsl.w	r1, r4, r1
 8009e68:	430b      	orrs	r3, r1
 8009e6a:	f043 5301 	orr.w	r3, r3, #541065216	; 0x20400000
 8009e6e:	496a      	ldr	r1, [pc, #424]	; (800a018 <main+0x2d4>)
 8009e70:	f043 0308 	orr.w	r3, r3, #8
 8009e74:	2001      	movs	r0, #1
 8009e76:	6053      	str	r3, [r2, #4]
 8009e78:	6608      	str	r0, [r1, #96]	; 0x60
 8009e7a:	f8db 1000 	ldr.w	r1, [fp]
 8009e7e:	4a64      	ldr	r2, [pc, #400]	; (800a010 <main+0x2cc>)
 8009e80:	e004      	b.n	8009e8c <main+0x148>
 8009e82:	f8db 3000 	ldr.w	r3, [fp]
 8009e86:	1a5b      	subs	r3, r3, r1
 8009e88:	2b64      	cmp	r3, #100	; 0x64
 8009e8a:	d8c9      	bhi.n	8009e20 <main+0xdc>
 8009e8c:	6813      	ldr	r3, [r2, #0]
 8009e8e:	0198      	lsls	r0, r3, #6
 8009e90:	d5f7      	bpl.n	8009e82 <main+0x13e>
 8009e92:	495c      	ldr	r1, [pc, #368]	; (800a004 <main+0x2c0>)
 8009e94:	680b      	ldr	r3, [r1, #0]
 8009e96:	f003 030f 	and.w	r3, r3, #15
 8009e9a:	2b04      	cmp	r3, #4
 8009e9c:	f200 82cf 	bhi.w	800a43e <main+0x6fa>
 8009ea0:	2305      	movs	r3, #5
 8009ea2:	700b      	strb	r3, [r1, #0]
 8009ea4:	680b      	ldr	r3, [r1, #0]
 8009ea6:	f003 030f 	and.w	r3, r3, #15
 8009eaa:	2b05      	cmp	r3, #5
 8009eac:	d1b8      	bne.n	8009e20 <main+0xdc>
 8009eae:	6893      	ldr	r3, [r2, #8]
 8009eb0:	f023 03f0 	bic.w	r3, r3, #240	; 0xf0
 8009eb4:	6093      	str	r3, [r2, #8]
 8009eb6:	6813      	ldr	r3, [r2, #0]
 8009eb8:	019b      	lsls	r3, r3, #6
 8009eba:	d5b1      	bpl.n	8009e20 <main+0xdc>
 8009ebc:	6893      	ldr	r3, [r2, #8]
 8009ebe:	4854      	ldr	r0, [pc, #336]	; (800a010 <main+0x2cc>)
 8009ec0:	f023 0303 	bic.w	r3, r3, #3
 8009ec4:	f043 0302 	orr.w	r3, r3, #2
 8009ec8:	6093      	str	r3, [r2, #8]
 8009eca:	f8db 1000 	ldr.w	r1, [fp]
 8009ece:	f241 3288 	movw	r2, #5000	; 0x1388
 8009ed2:	e004      	b.n	8009ede <main+0x19a>
 8009ed4:	f8db 3000 	ldr.w	r3, [fp]
 8009ed8:	1a5b      	subs	r3, r3, r1
 8009eda:	4293      	cmp	r3, r2
 8009edc:	d8a0      	bhi.n	8009e20 <main+0xdc>
 8009ede:	6883      	ldr	r3, [r0, #8]
 8009ee0:	f003 030c 	and.w	r3, r3, #12
 8009ee4:	2b08      	cmp	r3, #8
 8009ee6:	d1f5      	bne.n	8009ed4 <main+0x190>
 8009ee8:	4c49      	ldr	r4, [pc, #292]	; (800a010 <main+0x2cc>)
 8009eea:	68a3      	ldr	r3, [r4, #8]
 8009eec:	f423 53e0 	bic.w	r3, r3, #7168	; 0x1c00
 8009ef0:	f443 53a0 	orr.w	r3, r3, #5120	; 0x1400
 8009ef4:	60a3      	str	r3, [r4, #8]
 8009ef6:	68a3      	ldr	r3, [r4, #8]
 8009ef8:	f423 4360 	bic.w	r3, r3, #57344	; 0xe000
 8009efc:	f443 4300 	orr.w	r3, r3, #32768	; 0x8000
 8009f00:	60a3      	str	r3, [r4, #8]
 8009f02:	f002 fc61 	bl	800c7c8 <HAL_InitTick.constprop.0.isra.0>
 8009f06:	6b23      	ldr	r3, [r4, #48]	; 0x30
 8009f08:	4844      	ldr	r0, [pc, #272]	; (800a01c <main+0x2d8>)
 8009f0a:	f043 0301 	orr.w	r3, r3, #1
 8009f0e:	6323      	str	r3, [r4, #48]	; 0x30
 8009f10:	4b43      	ldr	r3, [pc, #268]	; (800a020 <main+0x2dc>)
 8009f12:	2201      	movs	r2, #1
 8009f14:	e9cd 230e 	strd	r2, r3, [sp, #56]	; 0x38
 8009f18:	a90e      	add	r1, sp, #56	; 0x38
 8009f1a:	2200      	movs	r2, #0
 8009f1c:	2302      	movs	r3, #2
 8009f1e:	e9cd 2310 	strd	r2, r3, [sp, #64]	; 0x40
 8009f22:	f7f6 fd0d 	bl	8000940 <HAL_GPIO_Init>
 8009f26:	210f      	movs	r1, #15
 8009f28:	2006      	movs	r0, #6
 8009f2a:	f002 fb95 	bl	800c658 <HAL_NVIC_SetPriority.constprop.0>
 8009f2e:	4b3d      	ldr	r3, [pc, #244]	; (800a024 <main+0x2e0>)
 8009f30:	493d      	ldr	r1, [pc, #244]	; (800a028 <main+0x2e4>)
 8009f32:	2240      	movs	r2, #64	; 0x40
 8009f34:	601a      	str	r2, [r3, #0]
 8009f36:	794a      	ldrb	r2, [r1, #5]
 8009f38:	4b3c      	ldr	r3, [pc, #240]	; (800a02c <main+0x2e8>)
 8009f3a:	600b      	str	r3, [r1, #0]
 8009f3c:	2a00      	cmp	r2, #0
 8009f3e:	f000 82a7 	beq.w	800a490 <main+0x74c>
 8009f42:	4a3a      	ldr	r2, [pc, #232]	; (800a02c <main+0x2e8>)
 8009f44:	2002      	movs	r0, #2
 8009f46:	7148      	strb	r0, [r1, #5]
 8009f48:	6813      	ldr	r3, [r2, #0]
 8009f4a:	f043 0304 	orr.w	r3, r3, #4
 8009f4e:	6013      	str	r3, [r2, #0]
 8009f50:	790c      	ldrb	r4, [r1, #4]
 8009f52:	2301      	movs	r3, #1
 8009f54:	429c      	cmp	r4, r3
 8009f56:	714b      	strb	r3, [r1, #5]
 8009f58:	d010      	beq.n	8009f7c <main+0x238>
 8009f5a:	f8db 0000 	ldr.w	r0, [fp]
 8009f5e:	710b      	strb	r3, [r1, #4]
 8009f60:	e006      	b.n	8009f70 <main+0x22c>
 8009f62:	f8db 3000 	ldr.w	r3, [fp]
 8009f66:	1a1b      	subs	r3, r3, r0
 8009f68:	f5b3 7f7a 	cmp.w	r3, #1000	; 0x3e8
 8009f6c:	f200 8299 	bhi.w	800a4a2 <main+0x75e>
 8009f70:	6853      	ldr	r3, [r2, #4]
 8009f72:	07dd      	lsls	r5, r3, #31
 8009f74:	d5f5      	bpl.n	8009f62 <main+0x21e>
 8009f76:	2300      	movs	r3, #0
 8009f78:	6890      	ldr	r0, [r2, #8]
 8009f7a:	710b      	strb	r3, [r1, #4]
 8009f7c:	f004 fd2a 	bl	800e9d4 <srand>
 8009f80:	f001 fca0 	bl	800b8c4 <Synth_Init>
 8009f84:	4a22      	ldr	r2, [pc, #136]	; (800a010 <main+0x2cc>)
 8009f86:	f647 73c0 	movw	r3, #32704	; 0x7fc0
 8009f8a:	f8d2 1084 	ldr.w	r1, [r2, #132]	; 0x84
 8009f8e:	fa93 f3a3 	rbit	r3, r3
 8009f92:	fab3 f383 	clz	r3, r3
 8009f96:	f04f 43e0 	mov.w	r3, #1879048192	; 0x70000000
 8009f9a:	f8d2 1084 	ldr.w	r1, [r2, #132]	; 0x84
 8009f9e:	fa93 f3a3 	rbit	r3, r3
 8009fa2:	fab3 f383 	clz	r3, r3
 8009fa6:	4b1c      	ldr	r3, [pc, #112]	; (800a018 <main+0x2d4>)
 8009fa8:	6890      	ldr	r0, [r2, #8]
 8009faa:	6f10      	ldr	r0, [r2, #112]	; 0x70
 8009fac:	2100      	movs	r1, #0
 8009fae:	6699      	str	r1, [r3, #104]	; 0x68
 8009fb0:	f8db 1000 	ldr.w	r1, [fp]
 8009fb4:	e004      	b.n	8009fc0 <main+0x27c>
 8009fb6:	f8db 3000 	ldr.w	r3, [fp]
 8009fba:	1a5b      	subs	r3, r3, r1
 8009fbc:	2b64      	cmp	r3, #100	; 0x64
 8009fbe:	d841      	bhi.n	800a044 <main+0x300>
 8009fc0:	6813      	ldr	r3, [r2, #0]
 8009fc2:	011c      	lsls	r4, r3, #4
 8009fc4:	d4f7      	bmi.n	8009fb6 <main+0x272>
 8009fc6:	f647 71c0 	movw	r1, #32704	; 0x7fc0
 8009fca:	fa91 f1a1 	rbit	r1, r1
 8009fce:	fab1 f181 	clz	r1, r1
 8009fd2:	f04f 43e0 	mov.w	r3, #1879048192	; 0x70000000
 8009fd6:	fa93 f3a3 	rbit	r3, r3
 8009fda:	fab3 f383 	clz	r3, r3
 8009fde:	f44f 7091 	mov.w	r0, #290	; 0x122
 8009fe2:	b2c9      	uxtb	r1, r1
 8009fe4:	fa00 f101 	lsl.w	r1, r0, r1
 8009fe8:	b2db      	uxtb	r3, r3
 8009fea:	2002      	movs	r0, #2
 8009fec:	fa00 f303 	lsl.w	r3, r0, r3
 8009ff0:	430b      	orrs	r3, r1
 8009ff2:	4809      	ldr	r0, [pc, #36]	; (800a018 <main+0x2d4>)
 8009ff4:	f8c2 3084 	str.w	r3, [r2, #132]	; 0x84
 8009ff8:	2301      	movs	r3, #1
 8009ffa:	6683      	str	r3, [r0, #104]	; 0x68
 8009ffc:	f8db 1000 	ldr.w	r1, [fp]
 800a000:	4a03      	ldr	r2, [pc, #12]	; (800a010 <main+0x2cc>)
 800a002:	e01c      	b.n	800a03e <main+0x2fa>
 800a004:	40023c00 	.word	0x40023c00
 800a008:	e000ed00 	.word	0xe000ed00
 800a00c:	05fa0300 	.word	0x05fa0300
 800a010:	40023800 	.word	0x40023800
 800a014:	40007000 	.word	0x40007000
 800a018:	42470000 	.word	0x42470000
 800a01c:	40020000 	.word	0x40020000
 800a020:	10110000 	.word	0x10110000
 800a024:	e000e100 	.word	0xe000e100
 800a028:	20000950 	.word	0x20000950
 800a02c:	50060800 	.word	0x50060800
 800a030:	2001f720 	.word	0x2001f720
 800a034:	f8db 3000 	ldr.w	r3, [fp]
 800a038:	1a5b      	subs	r3, r3, r1
 800a03a:	2b64      	cmp	r3, #100	; 0x64
 800a03c:	d802      	bhi.n	800a044 <main+0x300>
 800a03e:	6813      	ldr	r3, [r2, #0]
 800a040:	0118      	lsls	r0, r3, #4
 800a042:	d5f7      	bpl.n	800a034 <main+0x2f0>
 800a044:	4cbf      	ldr	r4, [pc, #764]	; (800a344 <main+0x600>)
 800a046:	2094      	movs	r0, #148	; 0x94
 800a048:	6863      	ldr	r3, [r4, #4]
 800a04a:	4798      	blx	r3
 800a04c:	f000 00f8 	and.w	r0, r0, #248	; 0xf8
 800a050:	28e0      	cmp	r0, #224	; 0xe0
 800a052:	f47f aee5 	bne.w	8009e20 <main+0xdc>
 800a056:	f8df 9328 	ldr.w	r9, [pc, #808]	; 800a380 <main+0x63c>
 800a05a:	4dbb      	ldr	r5, [pc, #748]	; (800a348 <main+0x604>)
 800a05c:	6826      	ldr	r6, [r4, #0]
 800a05e:	602c      	str	r4, [r5, #0]
 800a060:	f64a 4344 	movw	r3, #44100	; 0xac44
 800a064:	2246      	movs	r2, #70	; 0x46
 800a066:	2104      	movs	r1, #4
 800a068:	2094      	movs	r0, #148	; 0x94
 800a06a:	47b0      	blx	r6
 800a06c:	f8d9 301c 	ldr.w	r3, [r9, #28]
 800a070:	4cb6      	ldr	r4, [pc, #728]	; (800a34c <main+0x608>)
 800a072:	f423 6380 	bic.w	r3, r3, #1024	; 0x400
 800a076:	f8c4 9000 	str.w	r9, [r4]
 800a07a:	f8c9 301c 	str.w	r3, [r9, #28]
 800a07e:	f64a 4344 	movw	r3, #44100	; 0xac44
 800a082:	6163      	str	r3, [r4, #20]
 800a084:	2300      	movs	r3, #0
 800a086:	e9c4 3306 	strd	r3, r3, [r4, #24]
 800a08a:	e9c4 3302 	strd	r3, r3, [r4, #8]
 800a08e:	f894 303d 	ldrb.w	r3, [r4, #61]	; 0x3d
 800a092:	f44f 7200 	mov.w	r2, #512	; 0x200
 800a096:	6122      	str	r2, [r4, #16]
 800a098:	6062      	str	r2, [r4, #4]
 800a09a:	f003 06ff 	and.w	r6, r3, #255	; 0xff
 800a09e:	2b00      	cmp	r3, #0
 800a0a0:	f000 8202 	beq.w	800a4a8 <main+0x764>
 800a0a4:	6822      	ldr	r2, [r4, #0]
 800a0a6:	f894 303d 	ldrb.w	r3, [r4, #61]	; 0x3d
 800a0aa:	f8d4 c014 	ldr.w	ip, [r4, #20]
 800a0ae:	2102      	movs	r1, #2
 800a0b0:	f884 103d 	strb.w	r1, [r4, #61]	; 0x3d
 800a0b4:	69d3      	ldr	r3, [r2, #28]
 800a0b6:	f423 637b 	bic.w	r3, r3, #4016	; 0xfb0
 800a0ba:	f023 030f 	bic.w	r3, r3, #15
 800a0be:	61d3      	str	r3, [r2, #28]
 800a0c0:	f1bc 0f02 	cmp.w	ip, #2
 800a0c4:	6211      	str	r1, [r2, #32]
 800a0c6:	69d6      	ldr	r6, [r2, #28]
 800a0c8:	68e1      	ldr	r1, [r4, #12]
 800a0ca:	f000 8235 	beq.w	800a538 <main+0x7f4>
 800a0ce:	69e3      	ldr	r3, [r4, #28]
 800a0d0:	2900      	cmp	r1, #0
 800a0d2:	bf14      	ite	ne
 800a0d4:	f04f 0e02 	movne.w	lr, #2
 800a0d8:	f04f 0e01 	moveq.w	lr, #1
 800a0dc:	2b01      	cmp	r3, #1
 800a0de:	4b9c      	ldr	r3, [pc, #624]	; (800a350 <main+0x60c>)
 800a0e0:	f000 8255 	beq.w	800a58e <main+0x84a>
 800a0e4:	6818      	ldr	r0, [r3, #0]
 800a0e6:	0140      	lsls	r0, r0, #5
 800a0e8:	f140 87fb 	bpl.w	800b0e2 <main+0x139e>
 800a0ec:	6898      	ldr	r0, [r3, #8]
 800a0ee:	0200      	lsls	r0, r0, #8
 800a0f0:	d503      	bpl.n	800a0fa <main+0x3b6>
 800a0f2:	6898      	ldr	r0, [r3, #8]
 800a0f4:	f420 0000 	bic.w	r0, r0, #8388608	; 0x800000
 800a0f8:	6098      	str	r0, [r3, #8]
 800a0fa:	4b95      	ldr	r3, [pc, #596]	; (800a350 <main+0x60c>)
 800a0fc:	f8df 8250 	ldr.w	r8, [pc, #592]	; 800a350 <main+0x60c>
 800a100:	6858      	ldr	r0, [r3, #4]
 800a102:	f410 0f80 	tst.w	r0, #4194304	; 0x400000
 800a106:	6858      	ldr	r0, [r3, #4]
 800a108:	bf14      	ite	ne
 800a10a:	4b92      	ldrne	r3, [pc, #584]	; (800a354 <main+0x610>)
 800a10c:	4b92      	ldreq	r3, [pc, #584]	; (800a358 <main+0x614>)
 800a10e:	f000 003f 	and.w	r0, r0, #63	; 0x3f
 800a112:	fbb3 f0f0 	udiv	r0, r3, r0
 800a116:	f8d8 3084 	ldr.w	r3, [r8, #132]	; 0x84
 800a11a:	f8d8 8084 	ldr.w	r8, [r8, #132]	; 0x84
 800a11e:	f3c3 1388 	ubfx	r3, r3, #6, #9
 800a122:	fb00 f303 	mul.w	r3, r0, r3
 800a126:	f3c8 7002 	ubfx	r0, r8, #28, #3
 800a12a:	fbb3 f3f0 	udiv	r3, r3, r0
 800a12e:	6920      	ldr	r0, [r4, #16]
 800a130:	f5b0 7f00 	cmp.w	r0, #512	; 0x200
 800a134:	bf08      	it	eq
 800a136:	0a1b      	lsreq	r3, r3, #8
 800a138:	f04f 000a 	mov.w	r0, #10
 800a13c:	bf1c      	itt	ne
 800a13e:	ea4f 1e4e 	movne.w	lr, lr, lsl #5
 800a142:	fbb3 f3fe 	udivne	r3, r3, lr
 800a146:	fb00 f303 	mul.w	r3, r0, r3
 800a14a:	200a      	movs	r0, #10
 800a14c:	fbb3 f3fc 	udiv	r3, r3, ip
 800a150:	3305      	adds	r3, #5
 800a152:	fbb3 f3f0 	udiv	r3, r3, r0
 800a156:	ea4f 0c53 	mov.w	ip, r3, lsr #1
 800a15a:	f1ac 0002 	sub.w	r0, ip, #2
 800a15e:	28fd      	cmp	r0, #253	; 0xfd
 800a160:	f003 0901 	and.w	r9, r3, #1
 800a164:	f241 8078 	bls.w	800b258 <main+0x1514>
 800a168:	f04f 0900 	mov.w	r9, #0
 800a16c:	f04f 0c02 	mov.w	ip, #2
 800a170:	ea49 090c 	orr.w	r9, r9, ip
 800a174:	e9d4 ec01 	ldrd	lr, ip, [r4, #4]
 800a178:	6920      	ldr	r0, [r4, #16]
 800a17a:	ea4e 0801 	orr.w	r8, lr, r1
 800a17e:	ea48 0806 	orr.w	r8, r8, r6
 800a182:	ea49 0000 	orr.w	r0, r9, r0
 800a186:	69a6      	ldr	r6, [r4, #24]
 800a188:	6210      	str	r0, [r2, #32]
 800a18a:	ea48 080c 	orr.w	r8, r8, ip
 800a18e:	6a20      	ldr	r0, [r4, #32]
 800a190:	ea48 0806 	orr.w	r8, r8, r6
 800a194:	f448 6800 	orr.w	r8, r8, #2048	; 0x800
 800a198:	2801      	cmp	r0, #1
 800a19a:	f8c2 801c 	str.w	r8, [r2, #28]
 800a19e:	f000 81d3 	beq.w	800a548 <main+0x804>
 800a1a2:	2200      	movs	r2, #0
 800a1a4:	2301      	movs	r3, #1
 800a1a6:	f884 203e 	strb.w	r2, [r4, #62]	; 0x3e
 800a1aa:	f884 303d 	strb.w	r3, [r4, #61]	; 0x3d
 800a1ae:	682b      	ldr	r3, [r5, #0]
 800a1b0:	4d6a      	ldr	r5, [pc, #424]	; (800a35c <main+0x618>)
 800a1b2:	689b      	ldr	r3, [r3, #8]
 800a1b4:	f44f 627a 	mov.w	r2, #4000	; 0xfa0
 800a1b8:	4629      	mov	r1, r5
 800a1ba:	2094      	movs	r0, #148	; 0x94
 800a1bc:	4798      	blx	r3
 800a1be:	2800      	cmp	r0, #0
 800a1c0:	d16f      	bne.n	800a2a2 <main+0x55e>
 800a1c2:	f894 303d 	ldrb.w	r3, [r4, #61]	; 0x3d
 800a1c6:	2b01      	cmp	r3, #1
 800a1c8:	d16b      	bne.n	800a2a2 <main+0x55e>
 800a1ca:	6822      	ldr	r2, [r4, #0]
 800a1cc:	6265      	str	r5, [r4, #36]	; 0x24
 800a1ce:	69d1      	ldr	r1, [r2, #28]
 800a1d0:	69d3      	ldr	r3, [r2, #28]
 800a1d2:	f001 0107 	and.w	r1, r1, #7
 800a1d6:	2903      	cmp	r1, #3
 800a1d8:	f000 81b1 	beq.w	800a53e <main+0x7fa>
 800a1dc:	f003 0307 	and.w	r3, r3, #7
 800a1e0:	2b05      	cmp	r3, #5
 800a1e2:	f000 81ac 	beq.w	800a53e <main+0x7fa>
 800a1e6:	f44f 63fa 	mov.w	r3, #2000	; 0x7d0
 800a1ea:	8523      	strh	r3, [r4, #40]	; 0x28
 800a1ec:	8563      	strh	r3, [r4, #42]	; 0x2a
 800a1ee:	f894 303c 	ldrb.w	r3, [r4, #60]	; 0x3c
 800a1f2:	2b01      	cmp	r3, #1
 800a1f4:	d055      	beq.n	800a2a2 <main+0x55e>
 800a1f6:	2301      	movs	r3, #1
 800a1f8:	2012      	movs	r0, #18
 800a1fa:	f884 303c 	strb.w	r3, [r4, #60]	; 0x3c
 800a1fe:	6b61      	ldr	r1, [r4, #52]	; 0x34
 800a200:	f884 003d 	strb.w	r0, [r4, #61]	; 0x3d
 800a204:	2000      	movs	r0, #0
 800a206:	f884 003e 	strb.w	r0, [r4, #62]	; 0x3e
 800a20a:	4e55      	ldr	r6, [pc, #340]	; (800a360 <main+0x61c>)
 800a20c:	f891 c034 	ldrb.w	ip, [r1, #52]	; 0x34
 800a210:	8d20      	ldrh	r0, [r4, #40]	; 0x28
 800a212:	640e      	str	r6, [r1, #64]	; 0x40
 800a214:	4e53      	ldr	r6, [pc, #332]	; (800a364 <main+0x620>)
 800a216:	63ce      	str	r6, [r1, #60]	; 0x3c
 800a218:	459c      	cmp	ip, r3
 800a21a:	4e53      	ldr	r6, [pc, #332]	; (800a368 <main+0x624>)
 800a21c:	648e      	str	r6, [r1, #72]	; 0x48
 800a21e:	b280      	uxth	r0, r0
 800a220:	f102 060c 	add.w	r6, r2, #12
 800a224:	d02c      	beq.n	800a280 <main+0x53c>
 800a226:	f881 3034 	strb.w	r3, [r1, #52]	; 0x34
 800a22a:	f04f 0c02 	mov.w	ip, #2
 800a22e:	680b      	ldr	r3, [r1, #0]
 800a230:	f881 c035 	strb.w	ip, [r1, #53]	; 0x35
 800a234:	f8d1 c008 	ldr.w	ip, [r1, #8]
 800a238:	6819      	ldr	r1, [r3, #0]
 800a23a:	f1bc 0f40 	cmp.w	ip, #64	; 0x40
 800a23e:	f021 0101 	bic.w	r1, r1, #1
 800a242:	6019      	str	r1, [r3, #0]
 800a244:	6058      	str	r0, [r3, #4]
 800a246:	bf0b      	itete	eq
 800a248:	609e      	streq	r6, [r3, #8]
 800a24a:	609d      	strne	r5, [r3, #8]
 800a24c:	60dd      	streq	r5, [r3, #12]
 800a24e:	60de      	strne	r6, [r3, #12]
 800a250:	6819      	ldr	r1, [r3, #0]
 800a252:	f041 0110 	orr.w	r1, r1, #16
 800a256:	6019      	str	r1, [r3, #0]
 800a258:	6819      	ldr	r1, [r3, #0]
 800a25a:	f041 0108 	orr.w	r1, r1, #8
 800a25e:	6019      	str	r1, [r3, #0]
 800a260:	6819      	ldr	r1, [r3, #0]
 800a262:	f041 0104 	orr.w	r1, r1, #4
 800a266:	6019      	str	r1, [r3, #0]
 800a268:	6959      	ldr	r1, [r3, #20]
 800a26a:	f041 0180 	orr.w	r1, r1, #128	; 0x80
 800a26e:	6159      	str	r1, [r3, #20]
 800a270:	6819      	ldr	r1, [r3, #0]
 800a272:	f041 0102 	orr.w	r1, r1, #2
 800a276:	6019      	str	r1, [r3, #0]
 800a278:	6819      	ldr	r1, [r3, #0]
 800a27a:	f041 0101 	orr.w	r1, r1, #1
 800a27e:	6019      	str	r1, [r3, #0]
 800a280:	69d3      	ldr	r3, [r2, #28]
 800a282:	055e      	lsls	r6, r3, #21
 800a284:	d403      	bmi.n	800a28e <main+0x54a>
 800a286:	69d3      	ldr	r3, [r2, #28]
 800a288:	f443 6380 	orr.w	r3, r3, #1024	; 0x400
 800a28c:	61d3      	str	r3, [r2, #28]
 800a28e:	6853      	ldr	r3, [r2, #4]
 800a290:	079d      	lsls	r5, r3, #30
 800a292:	d403      	bmi.n	800a29c <main+0x558>
 800a294:	6853      	ldr	r3, [r2, #4]
 800a296:	f043 0302 	orr.w	r3, r3, #2
 800a29a:	6053      	str	r3, [r2, #4]
 800a29c:	2300      	movs	r3, #0
 800a29e:	f884 303c 	strb.w	r3, [r4, #60]	; 0x3c
 800a2a2:	4e32      	ldr	r6, [pc, #200]	; (800a36c <main+0x628>)
 800a2a4:	6933      	ldr	r3, [r6, #16]
 800a2a6:	f013 0301 	ands.w	r3, r3, #1
 800a2aa:	9309      	str	r3, [sp, #36]	; 0x24
 800a2ac:	f000 80fb 	beq.w	800a4a6 <main+0x762>
 800a2b0:	4b2f      	ldr	r3, [pc, #188]	; (800a370 <main+0x62c>)
 800a2b2:	f8df a0d0 	ldr.w	sl, [pc, #208]	; 800a384 <main+0x640>
 800a2b6:	4d2f      	ldr	r5, [pc, #188]	; (800a374 <main+0x630>)
 800a2b8:	2400      	movs	r4, #0
 800a2ba:	701c      	strb	r4, [r3, #0]
 800a2bc:	4b2e      	ldr	r3, [pc, #184]	; (800a378 <main+0x634>)
 800a2be:	f88a 460c 	strb.w	r4, [sl, #1548]	; 0x60c
 800a2c2:	223c      	movs	r2, #60	; 0x3c
 800a2c4:	4621      	mov	r1, r4
 800a2c6:	f20a 50cc 	addw	r0, sl, #1484	; 0x5cc
 800a2ca:	701c      	strb	r4, [r3, #0]
 800a2cc:	f8ca 45c4 	str.w	r4, [sl, #1476]	; 0x5c4
 800a2d0:	f8ca 45c8 	str.w	r4, [sl, #1480]	; 0x5c8
 800a2d4:	f004 fb2e 	bl	800e934 <memset>
 800a2d8:	f44f 7200 	mov.w	r2, #512	; 0x200
 800a2dc:	4621      	mov	r1, r4
 800a2de:	f10a 001c 	add.w	r0, sl, #28
 800a2e2:	f004 fb27 	bl	800e934 <memset>
 800a2e6:	f44f 7380 	mov.w	r3, #256	; 0x100
 800a2ea:	f8aa 3001 	strh.w	r3, [sl, #1]
 800a2ee:	f8aa 321c 	strh.w	r3, [sl, #540]	; 0x21c
 800a2f2:	f04f 0901 	mov.w	r9, #1
 800a2f6:	4b21      	ldr	r3, [pc, #132]	; (800a37c <main+0x638>)
 800a2f8:	f8ca 3614 	str.w	r3, [sl, #1556]	; 0x614
 800a2fc:	4621      	mov	r1, r4
 800a2fe:	2340      	movs	r3, #64	; 0x40
 800a300:	f04f 30ff 	mov.w	r0, #4294967295	; 0xffffffff
 800a304:	f8aa 9018 	strh.w	r9, [sl, #24]
 800a308:	f88a 4000 	strb.w	r4, [sl]
 800a30c:	f88a 3006 	strb.w	r3, [sl, #6]
 800a310:	f8ca 4608 	str.w	r4, [sl, #1544]	; 0x608
 800a314:	f002 f9a0 	bl	800c658 <HAL_NVIC_SetPriority.constprop.0>
 800a318:	e9c5 4407 	strd	r4, r4, [r5, #28]
 800a31c:	4b0c      	ldr	r3, [pc, #48]	; (800a350 <main+0x60c>)
 800a31e:	612c      	str	r4, [r5, #16]
 800a320:	f04f 0803 	mov.w	r8, #3
 800a324:	626c      	str	r4, [r5, #36]	; 0x24
 800a326:	f885 8289 	strb.w	r8, [r5, #649]	; 0x289
 800a32a:	f8c5 800c 	str.w	r8, [r5, #12]
 800a32e:	f04f 42a0 	mov.w	r2, #1342177280	; 0x50000000
 800a332:	602a      	str	r2, [r5, #0]
 800a334:	6b1a      	ldr	r2, [r3, #48]	; 0x30
 800a336:	f8c5 a28c 	str.w	sl, [r5, #652]	; 0x28c
 800a33a:	ea42 0209 	orr.w	r2, r2, r9
 800a33e:	f8ca 5610 	str.w	r5, [sl, #1552]	; 0x610
 800a342:	e021      	b.n	800a388 <main+0x644>
 800a344:	20000028 	.word	0x20000028
 800a348:	2001f710 	.word	0x2001f710
 800a34c:	2001edd0 	.word	0x2001edd0
 800a350:	40023800 	.word	0x40023800
 800a354:	007a1200 	.word	0x007a1200
 800a358:	00f42400 	.word	0x00f42400
 800a35c:	20000958 	.word	0x20000958
 800a360:	08004bf1 	.word	0x08004bf1
 800a364:	080045dd 	.word	0x080045dd
 800a368:	08000bd1 	.word	0x08000bd1
 800a36c:	40020000 	.word	0x40020000
 800a370:	20000054 	.word	0x20000054
 800a374:	2001ee10 	.word	0x2001ee10
 800a378:	2001edcc 	.word	0x2001edcc
 800a37c:	08001069 	.word	0x08001069
 800a380:	40003c00 	.word	0x40003c00
 800a384:	2001f0a0 	.word	0x2001f0a0
 800a388:	631a      	str	r2, [r3, #48]	; 0x30
 800a38a:	6b1a      	ldr	r2, [r3, #48]	; 0x30
 800a38c:	f042 0204 	orr.w	r2, r2, #4
 800a390:	631a      	str	r2, [r3, #48]	; 0x30
 800a392:	230a      	movs	r3, #10
 800a394:	9312      	str	r3, [sp, #72]	; 0x48
 800a396:	230b      	movs	r3, #11
 800a398:	60ab      	str	r3, [r5, #8]
 800a39a:	2302      	movs	r3, #2
 800a39c:	61ab      	str	r3, [r5, #24]
 800a39e:	f44f 52c0 	mov.w	r2, #6144	; 0x1800
 800a3a2:	2302      	movs	r3, #2
 800a3a4:	e9cd 230e 	strd	r2, r3, [sp, #56]	; 0x38
 800a3a8:	a90e      	add	r1, sp, #56	; 0x38
 800a3aa:	2200      	movs	r2, #0
 800a3ac:	2303      	movs	r3, #3
 800a3ae:	4630      	mov	r0, r6
 800a3b0:	e9cd 2310 	strd	r2, r3, [sp, #64]	; 0x40
 800a3b4:	f7f6 fac4 	bl	8000940 <HAL_GPIO_Init>
 800a3b8:	230a      	movs	r3, #10
 800a3ba:	f44f 6280 	mov.w	r2, #1024	; 0x400
 800a3be:	9312      	str	r3, [sp, #72]	; 0x48
 800a3c0:	2312      	movs	r3, #18
 800a3c2:	e9cd 230e 	strd	r2, r3, [sp, #56]	; 0x38
 800a3c6:	2201      	movs	r2, #1
 800a3c8:	2303      	movs	r3, #3
 800a3ca:	e9cd 2310 	strd	r2, r3, [sp, #64]	; 0x40
 800a3ce:	f04f 0e0f 	mov.w	lr, #15
 800a3d2:	3401      	adds	r4, #1
 800a3d4:	2c10      	cmp	r4, #16
 800a3d6:	f000 80e4 	beq.w	800a5a2 <main+0x85e>
 800a3da:	fa09 f104 	lsl.w	r1, r9, r4
 800a3de:	f431 6380 	bics.w	r3, r1, #1024	; 0x400
 800a3e2:	d1f6      	bne.n	800a3d2 <main+0x68e>
 800a3e4:	08e3      	lsrs	r3, r4, #3
 800a3e6:	009b      	lsls	r3, r3, #2
 800a3e8:	f103 4380 	add.w	r3, r3, #1073741824	; 0x40000000
 800a3ec:	f503 3300 	add.w	r3, r3, #131072	; 0x20000
 800a3f0:	f004 0207 	and.w	r2, r4, #7
 800a3f4:	6a18      	ldr	r0, [r3, #32]
 800a3f6:	0092      	lsls	r2, r2, #2
 800a3f8:	fa0e fc02 	lsl.w	ip, lr, r2
 800a3fc:	ea20 000c 	bic.w	r0, r0, ip
 800a400:	f04f 0c0a 	mov.w	ip, #10
 800a404:	fa0c f202 	lsl.w	r2, ip, r2
 800a408:	4302      	orrs	r2, r0
 800a40a:	621a      	str	r2, [r3, #32]
 800a40c:	6832      	ldr	r2, [r6, #0]
 800a40e:	0063      	lsls	r3, r4, #1
 800a410:	fa08 f003 	lsl.w	r0, r8, r3
 800a414:	ea22 0c00 	bic.w	ip, r2, r0
 800a418:	2202      	movs	r2, #2
 800a41a:	409a      	lsls	r2, r3
 800a41c:	ea42 020c 	orr.w	r2, r2, ip
 800a420:	6032      	str	r2, [r6, #0]
 800a422:	fa09 f203 	lsl.w	r2, r9, r3
 800a426:	68b3      	ldr	r3, [r6, #8]
 800a428:	4303      	orrs	r3, r0
 800a42a:	60b3      	str	r3, [r6, #8]
 800a42c:	6873      	ldr	r3, [r6, #4]
 800a42e:	430b      	orrs	r3, r1
 800a430:	6073      	str	r3, [r6, #4]
 800a432:	68f3      	ldr	r3, [r6, #12]
 800a434:	ea23 0300 	bic.w	r3, r3, r0
 800a438:	4313      	orrs	r3, r2
 800a43a:	60f3      	str	r3, [r6, #12]
 800a43c:	e7c9      	b.n	800a3d2 <main+0x68e>
 800a43e:	6893      	ldr	r3, [r2, #8]
 800a440:	f023 03f0 	bic.w	r3, r3, #240	; 0xf0
 800a444:	6093      	str	r3, [r2, #8]
 800a446:	6813      	ldr	r3, [r2, #0]
 800a448:	019e      	lsls	r6, r3, #6
 800a44a:	f57f ace9 	bpl.w	8009e20 <main+0xdc>
 800a44e:	6893      	ldr	r3, [r2, #8]
 800a450:	48a8      	ldr	r0, [pc, #672]	; (800a6f4 <main+0x9b0>)
 800a452:	f023 0303 	bic.w	r3, r3, #3
 800a456:	f043 0302 	orr.w	r3, r3, #2
 800a45a:	6093      	str	r3, [r2, #8]
 800a45c:	f8db 1000 	ldr.w	r1, [fp]
 800a460:	f241 3288 	movw	r2, #5000	; 0x1388
 800a464:	e005      	b.n	800a472 <main+0x72e>
 800a466:	f8db 3000 	ldr.w	r3, [fp]
 800a46a:	1a5b      	subs	r3, r3, r1
 800a46c:	4293      	cmp	r3, r2
 800a46e:	f63f acd7 	bhi.w	8009e20 <main+0xdc>
 800a472:	6883      	ldr	r3, [r0, #8]
 800a474:	f003 030c 	and.w	r3, r3, #12
 800a478:	2b08      	cmp	r3, #8
 800a47a:	d1f4      	bne.n	800a466 <main+0x722>
 800a47c:	4b9e      	ldr	r3, [pc, #632]	; (800a6f8 <main+0x9b4>)
 800a47e:	2205      	movs	r2, #5
 800a480:	701a      	strb	r2, [r3, #0]
 800a482:	681b      	ldr	r3, [r3, #0]
 800a484:	f003 030f 	and.w	r3, r3, #15
 800a488:	4293      	cmp	r3, r2
 800a48a:	f47f acc9 	bne.w	8009e20 <main+0xdc>
 800a48e:	e52b      	b.n	8009ee8 <main+0x1a4>
 800a490:	6b62      	ldr	r2, [r4, #52]	; 0x34
 800a492:	f042 0240 	orr.w	r2, r2, #64	; 0x40
 800a496:	6362      	str	r2, [r4, #52]	; 0x34
 800a498:	681a      	ldr	r2, [r3, #0]
 800a49a:	f042 0204 	orr.w	r2, r2, #4
 800a49e:	601a      	str	r2, [r3, #0]
 800a4a0:	e54f      	b.n	8009f42 <main+0x1fe>
 800a4a2:	2003      	movs	r0, #3
 800a4a4:	e56a      	b.n	8009f7c <main+0x238>
 800a4a6:	e7fe      	b.n	800a4a6 <main+0x762>
 800a4a8:	f8df 8248 	ldr.w	r8, [pc, #584]	; 800a6f4 <main+0x9b0>
 800a4ac:	4893      	ldr	r0, [pc, #588]	; (800a6fc <main+0x9b8>)
 800a4ae:	f8d8 3040 	ldr.w	r3, [r8, #64]	; 0x40
 800a4b2:	f443 4300 	orr.w	r3, r3, #32768	; 0x8000
 800a4b6:	f8c8 3040 	str.w	r3, [r8, #64]	; 0x40
 800a4ba:	f8d8 3030 	ldr.w	r3, [r8, #48]	; 0x30
 800a4be:	f043 0304 	orr.w	r3, r3, #4
 800a4c2:	f8c8 3030 	str.w	r3, [r8, #48]	; 0x30
 800a4c6:	f8d8 3030 	ldr.w	r3, [r8, #48]	; 0x30
 800a4ca:	f043 0301 	orr.w	r3, r3, #1
 800a4ce:	f8c8 3030 	str.w	r3, [r8, #48]	; 0x30
 800a4d2:	2306      	movs	r3, #6
 800a4d4:	9312      	str	r3, [sp, #72]	; 0x48
 800a4d6:	f44f 52a0 	mov.w	r2, #5120	; 0x1400
 800a4da:	2302      	movs	r3, #2
 800a4dc:	e9cd 230e 	strd	r2, r3, [sp, #56]	; 0x38
 800a4e0:	a90e      	add	r1, sp, #56	; 0x38
 800a4e2:	2200      	movs	r2, #0
 800a4e4:	2302      	movs	r3, #2
 800a4e6:	e9cd 2310 	strd	r2, r3, [sp, #64]	; 0x40
 800a4ea:	f7f6 fa29 	bl	8000940 <HAL_GPIO_Init>
 800a4ee:	2310      	movs	r3, #16
 800a4f0:	f5a0 6000 	sub.w	r0, r0, #2048	; 0x800
 800a4f4:	930e      	str	r3, [sp, #56]	; 0x38
 800a4f6:	f7f6 fa23 	bl	8000940 <HAL_GPIO_Init>
 800a4fa:	f8d8 3030 	ldr.w	r3, [r8, #48]	; 0x30
 800a4fe:	f043 0304 	orr.w	r3, r3, #4
 800a502:	f8c8 3030 	str.w	r3, [r8, #48]	; 0x30
 800a506:	f500 6000 	add.w	r0, r0, #2048	; 0x800
 800a50a:	2380      	movs	r3, #128	; 0x80
 800a50c:	930e      	str	r3, [sp, #56]	; 0x38
 800a50e:	f7f6 fa17 	bl	8000940 <HAL_GPIO_Init>
 800a512:	f8d8 3030 	ldr.w	r3, [r8, #48]	; 0x30
 800a516:	f443 1300 	orr.w	r3, r3, #2097152	; 0x200000
 800a51a:	f8c8 3030 	str.w	r3, [r8, #48]	; 0x30
 800a51e:	6823      	ldr	r3, [r4, #0]
 800a520:	454b      	cmp	r3, r9
 800a522:	f000 85e7 	beq.w	800b0f4 <main+0x13b0>
 800a526:	2106      	movs	r1, #6
 800a528:	202f      	movs	r0, #47	; 0x2f
 800a52a:	f002 f895 	bl	800c658 <HAL_NVIC_SetPriority.constprop.0>
 800a52e:	4b74      	ldr	r3, [pc, #464]	; (800a700 <main+0x9bc>)
 800a530:	f44f 4200 	mov.w	r2, #32768	; 0x8000
 800a534:	605a      	str	r2, [r3, #4]
 800a536:	e5b5      	b.n	800a0a4 <main+0x360>
 800a538:	2300      	movs	r3, #0
 800a53a:	4699      	mov	r9, r3
 800a53c:	e618      	b.n	800a170 <main+0x42c>
 800a53e:	f44f 637a 	mov.w	r3, #4000	; 0xfa0
 800a542:	8523      	strh	r3, [r4, #40]	; 0x28
 800a544:	8563      	strh	r3, [r4, #42]	; 0x2a
 800a546:	e652      	b.n	800a1ee <main+0x4aa>
 800a548:	f8df 81c4 	ldr.w	r8, [pc, #452]	; 800a710 <main+0x9cc>
 800a54c:	486d      	ldr	r0, [pc, #436]	; (800a704 <main+0x9c0>)
 800a54e:	4542      	cmp	r2, r8
 800a550:	bf18      	it	ne
 800a552:	f04f 2040 	movne.w	r0, #1073758208	; 0x40004000
 800a556:	f04f 0802 	mov.w	r8, #2
 800a55a:	69c2      	ldr	r2, [r0, #28]
 800a55c:	f422 627b 	bic.w	r2, r2, #4016	; 0xfb0
 800a560:	f022 020f 	bic.w	r2, r2, #15
 800a564:	61c2      	str	r2, [r0, #28]
 800a566:	f43e 7e00 	bics.w	lr, lr, #512	; 0x200
 800a56a:	f8c0 8020 	str.w	r8, [r0, #32]
 800a56e:	69c2      	ldr	r2, [r0, #28]
 800a570:	f000 85bc 	beq.w	800b0ec <main+0x13a8>
 800a574:	f5be 7f80 	cmp.w	lr, #256	; 0x100
 800a578:	bf08      	it	eq
 800a57a:	2300      	moveq	r3, #0
 800a57c:	ea4c 0101 	orr.w	r1, ip, r1
 800a580:	430b      	orrs	r3, r1
 800a582:	4333      	orrs	r3, r6
 800a584:	4313      	orrs	r3, r2
 800a586:	f443 6300 	orr.w	r3, r3, #2048	; 0x800
 800a58a:	61c3      	str	r3, [r0, #28]
 800a58c:	e609      	b.n	800a1a2 <main+0x45e>
 800a58e:	6898      	ldr	r0, [r3, #8]
 800a590:	0200      	lsls	r0, r0, #8
 800a592:	f100 85a3 	bmi.w	800b0dc <main+0x1398>
 800a596:	6898      	ldr	r0, [r3, #8]
 800a598:	f440 0000 	orr.w	r0, r0, #8388608	; 0x800000
 800a59c:	6098      	str	r0, [r3, #8]
 800a59e:	4b5a      	ldr	r3, [pc, #360]	; (800a708 <main+0x9c4>)
 800a5a0:	e5c5      	b.n	800a12e <main+0x3ea>
 800a5a2:	2201      	movs	r2, #1
 800a5a4:	2301      	movs	r3, #1
 800a5a6:	e9cd 230e 	strd	r2, r3, [sp, #56]	; 0x38
 800a5aa:	2200      	movs	r2, #0
 800a5ac:	2302      	movs	r3, #2
 800a5ae:	e9cd 2310 	strd	r2, r3, [sp, #64]	; 0x40
 800a5b2:	f102 4280 	add.w	r2, r2, #1073741824	; 0x40000000
 800a5b6:	2300      	movs	r3, #0
 800a5b8:	2001      	movs	r0, #1
 800a5ba:	f502 3202 	add.w	r2, r2, #133120	; 0x20800
 800a5be:	2603      	movs	r6, #3
 800a5c0:	2402      	movs	r4, #2
 800a5c2:	fa00 f103 	lsl.w	r1, r0, r3
 800a5c6:	f031 0101 	bics.w	r1, r1, #1
 800a5ca:	d11d      	bne.n	800a608 <main+0x8c4>
 800a5cc:	f8d2 8000 	ldr.w	r8, [r2]
 800a5d0:	0059      	lsls	r1, r3, #1
 800a5d2:	fa06 fc01 	lsl.w	ip, r6, r1
 800a5d6:	fa00 fe01 	lsl.w	lr, r0, r1
 800a5da:	ea28 080c 	bic.w	r8, r8, ip
 800a5de:	ea4e 0e08 	orr.w	lr, lr, r8
 800a5e2:	f8c2 e000 	str.w	lr, [r2]
 800a5e6:	f8d2 e008 	ldr.w	lr, [r2, #8]
 800a5ea:	fa04 f101 	lsl.w	r1, r4, r1
 800a5ee:	ea2e 0e0c 	bic.w	lr, lr, ip
 800a5f2:	ea41 010e 	orr.w	r1, r1, lr
 800a5f6:	6091      	str	r1, [r2, #8]
 800a5f8:	6851      	ldr	r1, [r2, #4]
 800a5fa:	f021 0101 	bic.w	r1, r1, #1
 800a5fe:	6051      	str	r1, [r2, #4]
 800a600:	68d1      	ldr	r1, [r2, #12]
 800a602:	ea21 010c 	bic.w	r1, r1, ip
 800a606:	60d1      	str	r1, [r2, #12]
 800a608:	3301      	adds	r3, #1
 800a60a:	2b10      	cmp	r3, #16
 800a60c:	d1d9      	bne.n	800a5c2 <main+0x87e>
 800a60e:	4b39      	ldr	r3, [pc, #228]	; (800a6f4 <main+0x9b0>)
 800a610:	6b5a      	ldr	r2, [r3, #52]	; 0x34
 800a612:	f042 0280 	orr.w	r2, r2, #128	; 0x80
 800a616:	635a      	str	r2, [r3, #52]	; 0x34
 800a618:	6c5a      	ldr	r2, [r3, #68]	; 0x44
 800a61a:	f442 4280 	orr.w	r2, r2, #16384	; 0x4000
 800a61e:	645a      	str	r2, [r3, #68]	; 0x44
 800a620:	2106      	movs	r1, #6
 800a622:	2043      	movs	r0, #67	; 0x43
 800a624:	f002 f818 	bl	800c658 <HAL_NVIC_SetPriority.constprop.0>
 800a628:	4b35      	ldr	r3, [pc, #212]	; (800a700 <main+0x9bc>)
 800a62a:	682c      	ldr	r4, [r5, #0]
 800a62c:	2208      	movs	r2, #8
 800a62e:	609a      	str	r2, [r3, #8]
 800a630:	68a3      	ldr	r3, [r4, #8]
 800a632:	f023 0301 	bic.w	r3, r3, #1
 800a636:	60a3      	str	r3, [r4, #8]
 800a638:	69ab      	ldr	r3, [r5, #24]
 800a63a:	692e      	ldr	r6, [r5, #16]
 800a63c:	2b01      	cmp	r3, #1
 800a63e:	f040 84cf 	bne.w	800afe0 <main+0x129c>
 800a642:	6ba3      	ldr	r3, [r4, #56]	; 0x38
 800a644:	6aea      	ldr	r2, [r5, #44]	; 0x2c
 800a646:	f423 3380 	bic.w	r3, r3, #65536	; 0x10000
 800a64a:	63a3      	str	r3, [r4, #56]	; 0x38
 800a64c:	68e3      	ldr	r3, [r4, #12]
 800a64e:	f423 0384 	bic.w	r3, r3, #4325376	; 0x420000
 800a652:	f023 0340 	bic.w	r3, r3, #64	; 0x40
 800a656:	60e3      	str	r3, [r4, #12]
 800a658:	68e3      	ldr	r3, [r4, #12]
 800a65a:	2a01      	cmp	r2, #1
 800a65c:	f423 1340 	bic.w	r3, r3, #3145728	; 0x300000
 800a660:	60e3      	str	r3, [r4, #12]
 800a662:	d103      	bne.n	800a66c <main+0x928>
 800a664:	68e3      	ldr	r3, [r4, #12]
 800a666:	f443 1380 	orr.w	r3, r3, #1048576	; 0x100000
 800a66a:	60e3      	str	r3, [r4, #12]
 800a66c:	4620      	mov	r0, r4
 800a66e:	f002 f93f 	bl	800c8f0 <USB_CoreReset.isra.0>
 800a672:	2e01      	cmp	r6, #1
 800a674:	d107      	bne.n	800a686 <main+0x942>
 800a676:	68a3      	ldr	r3, [r4, #8]
 800a678:	f043 030c 	orr.w	r3, r3, #12
 800a67c:	60a3      	str	r3, [r4, #8]
 800a67e:	68a3      	ldr	r3, [r4, #8]
 800a680:	f043 0320 	orr.w	r3, r3, #32
 800a684:	60a3      	str	r3, [r4, #8]
 800a686:	682b      	ldr	r3, [r5, #0]
 800a688:	68da      	ldr	r2, [r3, #12]
 800a68a:	f022 42c0 	bic.w	r2, r2, #1610612736	; 0x60000000
 800a68e:	60da      	str	r2, [r3, #12]
 800a690:	68da      	ldr	r2, [r3, #12]
 800a692:	f042 5200 	orr.w	r2, r2, #536870912	; 0x20000000
 800a696:	60da      	str	r2, [r3, #12]
 800a698:	2032      	movs	r0, #50	; 0x32
 800a69a:	f7f6 f943 	bl	8000924 <HAL_Delay>
 800a69e:	682c      	ldr	r4, [r5, #0]
 800a6a0:	68a9      	ldr	r1, [r5, #8]
 800a6a2:	2300      	movs	r3, #0
 800a6a4:	e9d5 2603 	ldrd	r2, r6, [r5, #12]
 800a6a8:	f8c4 3e00 	str.w	r3, [r4, #3584]	; 0xe00
 800a6ac:	6ba3      	ldr	r3, [r4, #56]	; 0x38
 800a6ae:	f423 2380 	bic.w	r3, r3, #262144	; 0x40000
 800a6b2:	63a3      	str	r3, [r4, #56]	; 0x38
 800a6b4:	6ba3      	ldr	r3, [r4, #56]	; 0x38
 800a6b6:	f423 2300 	bic.w	r3, r3, #524288	; 0x80000
 800a6ba:	63a3      	str	r3, [r4, #56]	; 0x38
 800a6bc:	6ba3      	ldr	r3, [r4, #56]	; 0x38
 800a6be:	f443 1300 	orr.w	r3, r3, #2097152	; 0x200000
 800a6c2:	63a3      	str	r3, [r4, #56]	; 0x38
 800a6c4:	2a03      	cmp	r2, #3
 800a6c6:	f8d4 3400 	ldr.w	r3, [r4, #1024]	; 0x400
 800a6ca:	f000 84fd 	beq.w	800b0c8 <main+0x1384>
 800a6ce:	f023 0304 	bic.w	r3, r3, #4
 800a6d2:	f8c4 3400 	str.w	r3, [r4, #1024]	; 0x400
 800a6d6:	f44f 7308 	mov.w	r3, #544	; 0x220
 800a6da:	6123      	str	r3, [r4, #16]
 800a6dc:	4b0b      	ldr	r3, [pc, #44]	; (800a70c <main+0x9c8>)
 800a6de:	e001      	b.n	800a6e4 <main+0x9a0>
 800a6e0:	3b01      	subs	r3, #1
 800a6e2:	d002      	beq.n	800a6ea <main+0x9a6>
 800a6e4:	6922      	ldr	r2, [r4, #16]
 800a6e6:	0690      	lsls	r0, r2, #26
 800a6e8:	d4fa      	bmi.n	800a6e0 <main+0x99c>
 800a6ea:	2310      	movs	r3, #16
 800a6ec:	6123      	str	r3, [r4, #16]
 800a6ee:	4b07      	ldr	r3, [pc, #28]	; (800a70c <main+0x9c8>)
 800a6f0:	e012      	b.n	800a718 <main+0x9d4>
 800a6f2:	bf00      	nop
 800a6f4:	40023800 	.word	0x40023800
 800a6f8:	40023c00 	.word	0x40023c00
 800a6fc:	40020800 	.word	0x40020800
 800a700:	e000e100 	.word	0xe000e100
 800a704:	40003400 	.word	0x40003400
 800a708:	00bb8000 	.word	0x00bb8000
 800a70c:	00030d40 	.word	0x00030d40
 800a710:	40003800 	.word	0x40003800
 800a714:	3b01      	subs	r3, #1
 800a716:	d002      	beq.n	800a71e <main+0x9da>
 800a718:	6922      	ldr	r2, [r4, #16]
 800a71a:	06d2      	lsls	r2, r2, #27
 800a71c:	d4fa      	bmi.n	800a714 <main+0x9d0>
 800a71e:	b169      	cbz	r1, 800a73c <main+0x9f8>
 800a720:	2200      	movs	r2, #0
 800a722:	f504 63a0 	add.w	r3, r4, #1280	; 0x500
 800a726:	f04f 3cff 	mov.w	ip, #4294967295	; 0xffffffff
 800a72a:	4610      	mov	r0, r2
 800a72c:	3201      	adds	r2, #1
 800a72e:	4291      	cmp	r1, r2
 800a730:	f8c3 c008 	str.w	ip, [r3, #8]
 800a734:	60d8      	str	r0, [r3, #12]
 800a736:	f103 0320 	add.w	r3, r3, #32
 800a73a:	d1f7      	bne.n	800a72c <main+0x9e8>
 800a73c:	f8d4 3440 	ldr.w	r3, [r4, #1088]	; 0x440
 800a740:	930b      	str	r3, [sp, #44]	; 0x2c
 800a742:	9b0b      	ldr	r3, [sp, #44]	; 0x2c
 800a744:	f023 032e 	bic.w	r3, r3, #46	; 0x2e
 800a748:	930b      	str	r3, [sp, #44]	; 0x2c
 800a74a:	9b0b      	ldr	r3, [sp, #44]	; 0x2c
 800a74c:	04d9      	lsls	r1, r3, #19
 800a74e:	d404      	bmi.n	800a75a <main+0xa16>
 800a750:	9b0b      	ldr	r3, [sp, #44]	; 0x2c
 800a752:	f443 5380 	orr.w	r3, r3, #4096	; 0x1000
 800a756:	f8c4 3440 	str.w	r3, [r4, #1088]	; 0x440
 800a75a:	20c8      	movs	r0, #200	; 0xc8
 800a75c:	9b0b      	ldr	r3, [sp, #44]	; 0x2c
 800a75e:	f7f6 f8e1 	bl	8000924 <HAL_Delay>
 800a762:	2300      	movs	r3, #0
 800a764:	61a3      	str	r3, [r4, #24]
 800a766:	f1b4 4fa0 	cmp.w	r4, #1342177280	; 0x50000000
 800a76a:	f04f 33ff 	mov.w	r3, #4294967295	; 0xffffffff
 800a76e:	6163      	str	r3, [r4, #20]
 800a770:	f000 84a1 	beq.w	800b0b6 <main+0x1372>
 800a774:	4a65      	ldr	r2, [pc, #404]	; (800a90c <main+0xbc8>)
 800a776:	4b66      	ldr	r3, [pc, #408]	; (800a910 <main+0xbcc>)
 800a778:	f44f 7100 	mov.w	r1, #512	; 0x200
 800a77c:	6261      	str	r1, [r4, #36]	; 0x24
 800a77e:	62a2      	str	r2, [r4, #40]	; 0x28
 800a780:	f8c4 3100 	str.w	r3, [r4, #256]	; 0x100
 800a784:	b91e      	cbnz	r6, 800a78e <main+0xa4a>
 800a786:	69a3      	ldr	r3, [r4, #24]
 800a788:	f043 0310 	orr.w	r3, r3, #16
 800a78c:	61a3      	str	r3, [r4, #24]
 800a78e:	69a1      	ldr	r1, [r4, #24]
 800a790:	4a60      	ldr	r2, [pc, #384]	; (800a914 <main+0xbd0>)
 800a792:	682b      	ldr	r3, [r5, #0]
 800a794:	430a      	orrs	r2, r1
 800a796:	61a2      	str	r2, [r4, #24]
 800a798:	f503 6380 	add.w	r3, r3, #1024	; 0x400
 800a79c:	2201      	movs	r2, #1
 800a79e:	f885 2289 	strb.w	r2, [r5, #649]	; 0x289
 800a7a2:	689b      	ldr	r3, [r3, #8]
 800a7a4:	b29b      	uxth	r3, r3
 800a7a6:	f8ca 3608 	str.w	r3, [sl, #1544]	; 0x608
 800a7aa:	f8da 35c8 	ldr.w	r3, [sl, #1480]	; 0x5c8
 800a7ae:	b923      	cbnz	r3, 800a7ba <main+0xa76>
 800a7b0:	4b59      	ldr	r3, [pc, #356]	; (800a918 <main+0xbd4>)
 800a7b2:	f8ca 25c8 	str.w	r2, [sl, #1480]	; 0x5c8
 800a7b6:	f8ca 35c0 	str.w	r3, [sl, #1472]	; 0x5c0
 800a7ba:	f8da 2610 	ldr.w	r2, [sl, #1552]	; 0x610
 800a7be:	f892 3288 	ldrb.w	r3, [r2, #648]	; 0x288
 800a7c2:	2b01      	cmp	r3, #1
 800a7c4:	d017      	beq.n	800a7f6 <main+0xab2>
 800a7c6:	6813      	ldr	r3, [r2, #0]
 800a7c8:	6899      	ldr	r1, [r3, #8]
 800a7ca:	f041 0101 	orr.w	r1, r1, #1
 800a7ce:	6099      	str	r1, [r3, #8]
 800a7d0:	f8d3 1440 	ldr.w	r1, [r3, #1088]	; 0x440
 800a7d4:	910c      	str	r1, [sp, #48]	; 0x30
 800a7d6:	990c      	ldr	r1, [sp, #48]	; 0x30
 800a7d8:	f021 012e 	bic.w	r1, r1, #46	; 0x2e
 800a7dc:	910c      	str	r1, [sp, #48]	; 0x30
 800a7de:	990c      	ldr	r1, [sp, #48]	; 0x30
 800a7e0:	04cc      	lsls	r4, r1, #19
 800a7e2:	d404      	bmi.n	800a7ee <main+0xaaa>
 800a7e4:	990c      	ldr	r1, [sp, #48]	; 0x30
 800a7e6:	f441 5180 	orr.w	r1, r1, #4096	; 0x1000
 800a7ea:	f8c3 1440 	str.w	r1, [r3, #1088]	; 0x440
 800a7ee:	2300      	movs	r3, #0
 800a7f0:	990c      	ldr	r1, [sp, #48]	; 0x30
 800a7f2:	f882 3288 	strb.w	r3, [r2, #648]	; 0x288
 800a7f6:	4b49      	ldr	r3, [pc, #292]	; (800a91c <main+0xbd8>)
 800a7f8:	f8df 812c 	ldr.w	r8, [pc, #300]	; 800a928 <main+0xbe4>
 800a7fc:	2201      	movs	r2, #1
 800a7fe:	835a      	strh	r2, [r3, #26]
 800a800:	20c8      	movs	r0, #200	; 0xc8
 800a802:	f7f6 f88f 	bl	8000924 <HAL_Delay>
 800a806:	f898 3000 	ldrb.w	r3, [r8]
 800a80a:	2b02      	cmp	r3, #2
 800a80c:	d031      	beq.n	800a872 <main+0xb2e>
 800a80e:	2b04      	cmp	r3, #4
 800a810:	f000 8374 	beq.w	800aefc <main+0x11b8>
 800a814:	2302      	movs	r3, #2
 800a816:	f88d 302b 	strb.w	r3, [sp, #43]	; 0x2b
 800a81a:	f89a c000 	ldrb.w	ip, [sl]
 800a81e:	fa5f fc8c 	uxtb.w	ip, ip
 800a822:	f1bc 0f0a 	cmp.w	ip, #10
 800a826:	d8ee      	bhi.n	800a806 <main+0xac2>
 800a828:	a301      	add	r3, pc, #4	; (adr r3, 800a830 <main+0xaec>)
 800a82a:	f853 f02c 	ldr.w	pc, [r3, ip, lsl #2]
 800a82e:	bf00      	nop
 800a830:	0800ab7d 	.word	0x0800ab7d
 800a834:	0800a807 	.word	0x0800a807
 800a838:	0800a92d 	.word	0x0800a92d
 800a83c:	0800ac17 	.word	0x0800ac17
 800a840:	0800a807 	.word	0x0800a807
 800a844:	0800abd3 	.word	0x0800abd3
 800a848:	0800abf1 	.word	0x0800abf1
 800a84c:	0800a8f7 	.word	0x0800a8f7
 800a850:	0800a8d7 	.word	0x0800a8d7
 800a854:	0800a897 	.word	0x0800a897
 800a858:	0800a85d 	.word	0x0800a85d
 800a85c:	f8da 35c4 	ldr.w	r3, [sl, #1476]	; 0x5c4
 800a860:	2b00      	cmp	r3, #0
 800a862:	d0d0      	beq.n	800a806 <main+0xac2>
 800a864:	695b      	ldr	r3, [r3, #20]
 800a866:	482e      	ldr	r0, [pc, #184]	; (800a920 <main+0xbdc>)
 800a868:	4798      	blx	r3
 800a86a:	f898 3000 	ldrb.w	r3, [r8]
 800a86e:	2b02      	cmp	r3, #2
 800a870:	d1cd      	bne.n	800a80e <main+0xaca>
 800a872:	f8da 35c4 	ldr.w	r3, [sl, #1476]	; 0x5c4
 800a876:	69db      	ldr	r3, [r3, #28]
 800a878:	781a      	ldrb	r2, [r3, #0]
 800a87a:	2a01      	cmp	r2, #1
 800a87c:	d807      	bhi.n	800a88e <main+0xb4a>
 800a87e:	4a29      	ldr	r2, [pc, #164]	; (800a924 <main+0xbe0>)
 800a880:	611a      	str	r2, [r3, #16]
 800a882:	2240      	movs	r2, #64	; 0x40
 800a884:	82da      	strh	r2, [r3, #22]
 800a886:	2201      	movs	r2, #1
 800a888:	701a      	strb	r2, [r3, #0]
 800a88a:	2203      	movs	r2, #3
 800a88c:	765a      	strb	r2, [r3, #25]
 800a88e:	2303      	movs	r3, #3
 800a890:	f888 3000 	strb.w	r3, [r8]
 800a894:	e7be      	b.n	800a814 <main+0xad0>
 800a896:	f8da 35c8 	ldr.w	r3, [sl, #1480]	; 0x5c8
 800a89a:	2b00      	cmp	r3, #0
 800a89c:	d0b3      	beq.n	800a806 <main+0xac2>
 800a89e:	2200      	movs	r2, #0
 800a8a0:	f8da 35c0 	ldr.w	r3, [sl, #1472]	; 0x5c0
 800a8a4:	f8ca 25c4 	str.w	r2, [sl, #1476]	; 0x5c4
 800a8a8:	7919      	ldrb	r1, [r3, #4]
 800a8aa:	f89a 2241 	ldrb.w	r2, [sl, #577]	; 0x241
 800a8ae:	4291      	cmp	r1, r2
 800a8b0:	f040 836f 	bne.w	800af92 <main+0x124e>
 800a8b4:	689a      	ldr	r2, [r3, #8]
 800a8b6:	481a      	ldr	r0, [pc, #104]	; (800a920 <main+0xbdc>)
 800a8b8:	f8ca 35c4 	str.w	r3, [sl, #1476]	; 0x5c4
 800a8bc:	4790      	blx	r2
 800a8be:	2800      	cmp	r0, #0
 800a8c0:	f040 8367 	bne.w	800af92 <main+0x124e>
 800a8c4:	2306      	movs	r3, #6
 800a8c6:	f88a 3000 	strb.w	r3, [sl]
 800a8ca:	4815      	ldr	r0, [pc, #84]	; (800a920 <main+0xbdc>)
 800a8cc:	f8da 3614 	ldr.w	r3, [sl, #1556]	; 0x614
 800a8d0:	2103      	movs	r1, #3
 800a8d2:	4798      	blx	r3
 800a8d4:	e797      	b.n	800a806 <main+0xac2>
 800a8d6:	f89a 3002 	ldrb.w	r3, [sl, #2]
 800a8da:	2b01      	cmp	r3, #1
 800a8dc:	f000 835d 	beq.w	800af9a <main+0x1256>
 800a8e0:	2b02      	cmp	r3, #2
 800a8e2:	d190      	bne.n	800a806 <main+0xac2>
 800a8e4:	480e      	ldr	r0, [pc, #56]	; (800a920 <main+0xbdc>)
 800a8e6:	f7fd fed1 	bl	800868c <USBH_CtlReq.part.0>
 800a8ea:	2800      	cmp	r0, #0
 800a8ec:	d18b      	bne.n	800a806 <main+0xac2>
 800a8ee:	2309      	movs	r3, #9
 800a8f0:	f88a 3000 	strb.w	r3, [sl]
 800a8f4:	e787      	b.n	800a806 <main+0xac2>
 800a8f6:	f8da 3614 	ldr.w	r3, [sl, #1556]	; 0x614
 800a8fa:	2b00      	cmp	r3, #0
 800a8fc:	d083      	beq.n	800a806 <main+0xac2>
 800a8fe:	4808      	ldr	r0, [pc, #32]	; (800a920 <main+0xbdc>)
 800a900:	2101      	movs	r1, #1
 800a902:	4798      	blx	r3
 800a904:	2308      	movs	r3, #8
 800a906:	f88a 3000 	strb.w	r3, [sl]
 800a90a:	e77c      	b.n	800a806 <main+0xac2>
 800a90c:	01000200 	.word	0x01000200
 800a910:	00e00300 	.word	0x00e00300
 800a914:	a3200008 	.word	0xa3200008
 800a918:	20000004 	.word	0x20000004
 800a91c:	40020800 	.word	0x40020800
 800a920:	2001f0a0 	.word	0x2001f0a0
 800a924:	2000090c 	.word	0x2000090c
 800a928:	200008c0 	.word	0x200008c0
 800a92c:	f8db 2000 	ldr.w	r2, [fp]
 800a930:	f8db 3000 	ldr.w	r3, [fp]
 800a934:	1a9b      	subs	r3, r3, r2
 800a936:	2b64      	cmp	r3, #100	; 0x64
 800a938:	d3fa      	bcc.n	800a930 <main+0xbec>
 800a93a:	f8da 4610 	ldr.w	r4, [sl, #1552]	; 0x610
 800a93e:	9d09      	ldr	r5, [sp, #36]	; 0x24
 800a940:	6822      	ldr	r2, [r4, #0]
 800a942:	f8da 05cc 	ldr.w	r0, [sl, #1484]	; 0x5cc
 800a946:	f8d2 3440 	ldr.w	r3, [r2, #1088]	; 0x440
 800a94a:	930e      	str	r3, [sp, #56]	; 0x38
 800a94c:	9b0e      	ldr	r3, [sp, #56]	; 0x38
 800a94e:	f3c3 4341 	ubfx	r3, r3, #17, #2
 800a952:	2b03      	cmp	r3, #3
 800a954:	bf08      	it	eq
 800a956:	462b      	moveq	r3, r5
 800a958:	2105      	movs	r1, #5
 800a95a:	b2db      	uxtb	r3, r3
 800a95c:	f410 4000 	ands.w	r0, r0, #32768	; 0x8000
 800a960:	f88a 1000 	strb.w	r1, [sl]
 800a964:	f88a 321d 	strb.w	r3, [sl, #541]	; 0x21d
 800a968:	f000 82fa 	beq.w	800af60 <main+0x121c>
 800a96c:	f8da 05d0 	ldr.w	r0, [sl, #1488]	; 0x5d0
 800a970:	0400      	lsls	r0, r0, #16
 800a972:	f140 8329 	bpl.w	800afc8 <main+0x1284>
 800a976:	f8da 05d4 	ldr.w	r0, [sl, #1492]	; 0x5d4
 800a97a:	0406      	lsls	r6, r0, #16
 800a97c:	f140 8328 	bpl.w	800afd0 <main+0x128c>
 800a980:	f8da 05d8 	ldr.w	r0, [sl, #1496]	; 0x5d8
 800a984:	0405      	lsls	r5, r0, #16
 800a986:	f140 8321 	bpl.w	800afcc <main+0x1288>
 800a98a:	f8da 05dc 	ldr.w	r0, [sl, #1500]	; 0x5dc
 800a98e:	0400      	lsls	r0, r0, #16
 800a990:	f140 8332 	bpl.w	800aff8 <main+0x12b4>
 800a994:	f8da 05e0 	ldr.w	r0, [sl, #1504]	; 0x5e0
 800a998:	0406      	lsls	r6, r0, #16
 800a99a:	f140 82e2 	bpl.w	800af62 <main+0x121e>
 800a99e:	f8da 15e4 	ldr.w	r1, [sl, #1508]	; 0x5e4
 800a9a2:	040d      	lsls	r5, r1, #16
 800a9a4:	f140 8352 	bpl.w	800b04c <main+0x1308>
 800a9a8:	f8da 15e8 	ldr.w	r1, [sl, #1512]	; 0x5e8
 800a9ac:	0408      	lsls	r0, r1, #16
 800a9ae:	f140 834b 	bpl.w	800b048 <main+0x1304>
 800a9b2:	f8da 15ec 	ldr.w	r1, [sl, #1516]	; 0x5ec
 800a9b6:	0409      	lsls	r1, r1, #16
 800a9b8:	f140 8329 	bpl.w	800b00e <main+0x12ca>
 800a9bc:	f8da 15f0 	ldr.w	r1, [sl, #1520]	; 0x5f0
 800a9c0:	040e      	lsls	r6, r1, #16
 800a9c2:	f140 8376 	bpl.w	800b0b2 <main+0x136e>
 800a9c6:	f8da 15f4 	ldr.w	r1, [sl, #1524]	; 0x5f4
 800a9ca:	040d      	lsls	r5, r1, #16
 800a9cc:	bf58      	it	pl
 800a9ce:	210a      	movpl	r1, #10
 800a9d0:	f140 82c7 	bpl.w	800af62 <main+0x121e>
 800a9d4:	21ff      	movs	r1, #255	; 0xff
 800a9d6:	f88a 1005 	strb.w	r1, [sl, #5]
 800a9da:	9106      	str	r1, [sp, #24]
 800a9dc:	f8da 05d0 	ldr.w	r0, [sl, #1488]	; 0x5d0
 800a9e0:	0400      	lsls	r0, r0, #16
 800a9e2:	f140 82f7 	bpl.w	800afd4 <main+0x1290>
 800a9e6:	f8da 05d4 	ldr.w	r0, [sl, #1492]	; 0x5d4
 800a9ea:	0406      	lsls	r6, r0, #16
 800a9ec:	f140 82c8 	bpl.w	800af80 <main+0x123c>
 800a9f0:	f8da 05d8 	ldr.w	r0, [sl, #1496]	; 0x5d8
 800a9f4:	0405      	lsls	r5, r0, #16
 800a9f6:	f140 82f0 	bpl.w	800afda <main+0x1296>
 800a9fa:	f8da 05dc 	ldr.w	r0, [sl, #1500]	; 0x5dc
 800a9fe:	0400      	lsls	r0, r0, #16
 800aa00:	f140 82fc 	bpl.w	800affc <main+0x12b8>
 800aa04:	f8da 05e0 	ldr.w	r0, [sl, #1504]	; 0x5e0
 800aa08:	0406      	lsls	r6, r0, #16
 800aa0a:	f140 82fd 	bpl.w	800b008 <main+0x12c4>
 800aa0e:	f8da 05e4 	ldr.w	r0, [sl, #1508]	; 0x5e4
 800aa12:	0405      	lsls	r5, r0, #16
 800aa14:	f140 82f5 	bpl.w	800b002 <main+0x12be>
 800aa18:	f8da 05e8 	ldr.w	r0, [sl, #1512]	; 0x5e8
 800aa1c:	0400      	lsls	r0, r0, #16
 800aa1e:	f140 8322 	bpl.w	800b066 <main+0x1322>
 800aa22:	f8da 05ec 	ldr.w	r0, [sl, #1516]	; 0x5ec
 800aa26:	0406      	lsls	r6, r0, #16
 800aa28:	f140 831a 	bpl.w	800b060 <main+0x131c>
 800aa2c:	f8da 05f0 	ldr.w	r0, [sl, #1520]	; 0x5f0
 800aa30:	0405      	lsls	r5, r0, #16
 800aa32:	f140 833b 	bpl.w	800b0ac <main+0x1368>
 800aa36:	f8da 05f4 	ldr.w	r0, [sl, #1524]	; 0x5f4
 800aa3a:	0400      	lsls	r0, r0, #16
 800aa3c:	bf58      	it	pl
 800aa3e:	f04f 0c0a 	movpl.w	ip, #10
 800aa42:	f140 829d 	bpl.w	800af80 <main+0x123c>
 800aa46:	20ff      	movs	r0, #255	; 0xff
 800aa48:	9005      	str	r0, [sp, #20]
 800aa4a:	4684      	mov	ip, r0
 800aa4c:	f89a 0006 	ldrb.w	r0, [sl, #6]
 800aa50:	f88a c004 	strb.w	ip, [sl, #4]
 800aa54:	4605      	mov	r5, r0
 800aa56:	f894 0288 	ldrb.w	r0, [r4, #648]	; 0x288
 800aa5a:	9504      	str	r5, [sp, #16]
 800aa5c:	f8bd 6010 	ldrh.w	r6, [sp, #16]
 800aa60:	9607      	str	r6, [sp, #28]
 800aa62:	2801      	cmp	r0, #1
 800aa64:	f43f aecf 	beq.w	800a806 <main+0xac2>
 800aa68:	9805      	ldr	r0, [sp, #20]
 800aa6a:	9e07      	ldr	r6, [sp, #28]
 800aa6c:	eb00 0080 	add.w	r0, r0, r0, lsl #2
 800aa70:	eb04 00c0 	add.w	r0, r4, r0, lsl #3
 800aa74:	f04f 0920 	mov.w	r9, #32
 800aa78:	f502 6ea0 	add.w	lr, r2, #1280	; 0x500
 800aa7c:	fb19 e50c 	smlabb	r5, r9, ip, lr
 800aa80:	fb19 ee01 	smlabb	lr, r9, r1, lr
 800aa84:	f89a 921c 	ldrb.w	r9, [sl, #540]	; 0x21c
 800aa88:	f880 9030 	strb.w	r9, [r0, #48]	; 0x30
 800aa8c:	f880 c031 	strb.w	ip, [r0, #49]	; 0x31
 800aa90:	f8cd 9020 	str.w	r9, [sp, #32]
 800aa94:	f04f 0c00 	mov.w	ip, #0
 800aa98:	f44f 7980 	mov.w	r9, #256	; 0x100
 800aa9c:	f880 3034 	strb.w	r3, [r0, #52]	; 0x34
 800aaa0:	f880 c037 	strb.w	ip, [r0, #55]	; 0x37
 800aaa4:	f8a0 9032 	strh.w	r9, [r0, #50]	; 0x32
 800aaa8:	8706      	strh	r6, [r0, #56]	; 0x38
 800aaaa:	f04f 30ff 	mov.w	r0, #4294967295	; 0xffffffff
 800aaae:	60a8      	str	r0, [r5, #8]
 800aab0:	f240 409d 	movw	r0, #1181	; 0x49d
 800aab4:	60e8      	str	r0, [r5, #12]
 800aab6:	68e8      	ldr	r0, [r5, #12]
 800aab8:	9e05      	ldr	r6, [sp, #20]
 800aaba:	ea40 0009 	orr.w	r0, r0, r9
 800aabe:	60e8      	str	r0, [r5, #12]
 800aac0:	f8d2 9418 	ldr.w	r9, [r2, #1048]	; 0x418
 800aac4:	2001      	movs	r0, #1
 800aac6:	40b0      	lsls	r0, r6
 800aac8:	9e08      	ldr	r6, [sp, #32]
 800aaca:	ea40 0009 	orr.w	r0, r0, r9
 800aace:	f8c2 0418 	str.w	r0, [r2, #1048]	; 0x418
 800aad2:	2b02      	cmp	r3, #2
 800aad4:	ea4f 5086 	mov.w	r0, r6, lsl #22
 800aad8:	9e04      	ldr	r6, [sp, #16]
 800aada:	f000 59fe 	and.w	r9, r0, #532676608	; 0x1fc00000
 800aade:	bf0c      	ite	eq
 800aae0:	f44f 3000 	moveq.w	r0, #131072	; 0x20000
 800aae4:	4660      	movne	r0, ip
 800aae6:	4330      	orrs	r0, r6
 800aae8:	6996      	ldr	r6, [r2, #24]
 800aaea:	ea40 0009 	orr.w	r0, r0, r9
 800aaee:	f440 4000 	orr.w	r0, r0, #32768	; 0x8000
 800aaf2:	f046 7600 	orr.w	r6, r6, #33554432	; 0x2000000
 800aaf6:	6196      	str	r6, [r2, #24]
 800aaf8:	6028      	str	r0, [r5, #0]
 800aafa:	9806      	ldr	r0, [sp, #24]
 800aafc:	9e08      	ldr	r6, [sp, #32]
 800aafe:	eb00 0080 	add.w	r0, r0, r0, lsl #2
 800ab02:	eb04 00c0 	add.w	r0, r4, r0, lsl #3
 800ab06:	f1b2 4fa0 	cmp.w	r2, #1342177280	; 0x50000000
 800ab0a:	f880 6030 	strb.w	r6, [r0, #48]	; 0x30
 800ab0e:	f880 1031 	strb.w	r1, [r0, #49]	; 0x31
 800ab12:	9e07      	ldr	r6, [sp, #28]
 800ab14:	8706      	strh	r6, [r0, #56]	; 0x38
 800ab16:	f04f 31ff 	mov.w	r1, #4294967295	; 0xffffffff
 800ab1a:	f880 c037 	strb.w	ip, [r0, #55]	; 0x37
 800ab1e:	f8a0 c032 	strh.w	ip, [r0, #50]	; 0x32
 800ab22:	f880 3034 	strb.w	r3, [r0, #52]	; 0x34
 800ab26:	f8ce 1008 	str.w	r1, [lr, #8]
 800ab2a:	f240 419d 	movw	r1, #1181	; 0x49d
 800ab2e:	f8ce 100c 	str.w	r1, [lr, #12]
 800ab32:	f502 6180 	add.w	r1, r2, #1024	; 0x400
 800ab36:	d005      	beq.n	800ab44 <main+0xe00>
 800ab38:	f8de 000c 	ldr.w	r0, [lr, #12]
 800ab3c:	f040 0060 	orr.w	r0, r0, #96	; 0x60
 800ab40:	f8ce 000c 	str.w	r0, [lr, #12]
 800ab44:	2b02      	cmp	r3, #2
 800ab46:	9b04      	ldr	r3, [sp, #16]
 800ab48:	9e06      	ldr	r6, [sp, #24]
 800ab4a:	698d      	ldr	r5, [r1, #24]
 800ab4c:	ea49 0003 	orr.w	r0, r9, r3
 800ab50:	f04f 0301 	mov.w	r3, #1
 800ab54:	fa03 f306 	lsl.w	r3, r3, r6
 800ab58:	ea43 0305 	orr.w	r3, r3, r5
 800ab5c:	618b      	str	r3, [r1, #24]
 800ab5e:	6993      	ldr	r3, [r2, #24]
 800ab60:	f043 7300 	orr.w	r3, r3, #33554432	; 0x2000000
 800ab64:	6193      	str	r3, [r2, #24]
 800ab66:	bf0c      	ite	eq
 800ab68:	f44f 3300 	moveq.w	r3, #131072	; 0x20000
 800ab6c:	2300      	movne	r3, #0
 800ab6e:	4303      	orrs	r3, r0
 800ab70:	f8ce 3000 	str.w	r3, [lr]
 800ab74:	2300      	movs	r3, #0
 800ab76:	f884 3288 	strb.w	r3, [r4, #648]	; 0x288
 800ab7a:	e644      	b.n	800a806 <main+0xac2>
 800ab7c:	f89a 321e 	ldrb.w	r3, [sl, #542]	; 0x21e
 800ab80:	2b00      	cmp	r3, #0
 800ab82:	f43f ae40 	beq.w	800a806 <main+0xac2>
 800ab86:	2301      	movs	r3, #1
 800ab88:	f88a 3000 	strb.w	r3, [sl]
 800ab8c:	f8db 2000 	ldr.w	r2, [fp]
 800ab90:	f8db 3000 	ldr.w	r3, [fp]
 800ab94:	1a9b      	subs	r3, r3, r2
 800ab96:	2bc8      	cmp	r3, #200	; 0xc8
 800ab98:	d3fa      	bcc.n	800ab90 <main+0xe4c>
 800ab9a:	f8da 3610 	ldr.w	r3, [sl, #1552]	; 0x610
 800ab9e:	6819      	ldr	r1, [r3, #0]
 800aba0:	f8d1 3440 	ldr.w	r3, [r1, #1088]	; 0x440
 800aba4:	930d      	str	r3, [sp, #52]	; 0x34
 800aba6:	9b0d      	ldr	r3, [sp, #52]	; 0x34
 800aba8:	f023 032e 	bic.w	r3, r3, #46	; 0x2e
 800abac:	930d      	str	r3, [sp, #52]	; 0x34
 800abae:	9b0d      	ldr	r3, [sp, #52]	; 0x34
 800abb0:	f443 7380 	orr.w	r3, r3, #256	; 0x100
 800abb4:	f8c1 3440 	str.w	r3, [r1, #1088]	; 0x440
 800abb8:	f8db 2000 	ldr.w	r2, [fp]
 800abbc:	f8db 3000 	ldr.w	r3, [fp]
 800abc0:	1a9b      	subs	r3, r3, r2
 800abc2:	2b0a      	cmp	r3, #10
 800abc4:	d3fa      	bcc.n	800abbc <main+0xe78>
 800abc6:	9b0d      	ldr	r3, [sp, #52]	; 0x34
 800abc8:	f423 7380 	bic.w	r3, r3, #256	; 0x100
 800abcc:	f8c1 3440 	str.w	r3, [r1, #1088]	; 0x440
 800abd0:	e619      	b.n	800a806 <main+0xac2>
 800abd2:	f89a 3001 	ldrb.w	r3, [sl, #1]
 800abd6:	2b07      	cmp	r3, #7
 800abd8:	f63f ae15 	bhi.w	800a806 <main+0xac2>
 800abdc:	e8df f013 	tbh	[pc, r3, lsl #1]
 800abe0:	00a80163 	.word	0x00a80163
 800abe4:	007500f3 	.word	0x007500f3
 800abe8:	009f00b2 	.word	0x009f00b2
 800abec:	005b006c 	.word	0x005b006c
 800abf0:	f8da 35c4 	ldr.w	r3, [sl, #1476]	; 0x5c4
 800abf4:	2b00      	cmp	r3, #0
 800abf6:	f000 81cc 	beq.w	800af92 <main+0x124e>
 800abfa:	691b      	ldr	r3, [r3, #16]
 800abfc:	48d6      	ldr	r0, [pc, #856]	; (800af58 <main+0x1214>)
 800abfe:	4798      	blx	r3
 800ac00:	f88d 002b 	strb.w	r0, [sp, #43]	; 0x2b
 800ac04:	f89d 302b 	ldrb.w	r3, [sp, #43]	; 0x2b
 800ac08:	2b00      	cmp	r3, #0
 800ac0a:	f47f adfc 	bne.w	800a806 <main+0xac2>
 800ac0e:	230a      	movs	r3, #10
 800ac10:	f88a 3000 	strb.w	r3, [sl]
 800ac14:	e5f7      	b.n	800a806 <main+0xac2>
 800ac16:	2400      	movs	r4, #0
 800ac18:	f44f 7200 	mov.w	r2, #512	; 0x200
 800ac1c:	48cf      	ldr	r0, [pc, #828]	; (800af5c <main+0x1218>)
 800ac1e:	f8ca 45cc 	str.w	r4, [sl, #1484]	; 0x5cc
 800ac22:	f8ca 45d0 	str.w	r4, [sl, #1488]	; 0x5d0
 800ac26:	f8ca 45d4 	str.w	r4, [sl, #1492]	; 0x5d4
 800ac2a:	f8ca 45d8 	str.w	r4, [sl, #1496]	; 0x5d8
 800ac2e:	f8ca 45dc 	str.w	r4, [sl, #1500]	; 0x5dc
 800ac32:	f8ca 45e0 	str.w	r4, [sl, #1504]	; 0x5e0
 800ac36:	f8ca 45e4 	str.w	r4, [sl, #1508]	; 0x5e4
 800ac3a:	f8ca 45e8 	str.w	r4, [sl, #1512]	; 0x5e8
 800ac3e:	f8ca 45ec 	str.w	r4, [sl, #1516]	; 0x5ec
 800ac42:	f8ca 45f0 	str.w	r4, [sl, #1520]	; 0x5f0
 800ac46:	f8ca 45f4 	str.w	r4, [sl, #1524]	; 0x5f4
 800ac4a:	f8ca 45f8 	str.w	r4, [sl, #1528]	; 0x5f8
 800ac4e:	f8ca 45fc 	str.w	r4, [sl, #1532]	; 0x5fc
 800ac52:	f8ca 4600 	str.w	r4, [sl, #1536]	; 0x600
 800ac56:	f8ca 4604 	str.w	r4, [sl, #1540]	; 0x604
 800ac5a:	4621      	mov	r1, r4
 800ac5c:	f003 fe6a 	bl	800e934 <memset>
 800ac60:	f44f 7380 	mov.w	r3, #256	; 0x100
 800ac64:	2240      	movs	r2, #64	; 0x40
 800ac66:	f8aa 3001 	strh.w	r3, [sl, #1]
 800ac6a:	f8aa 321c 	strh.w	r3, [sl, #540]	; 0x21c
 800ac6e:	f8da 35c4 	ldr.w	r3, [sl, #1476]	; 0x5c4
 800ac72:	f88a 2006 	strb.w	r2, [sl, #6]
 800ac76:	2201      	movs	r2, #1
 800ac78:	f88a 4000 	strb.w	r4, [sl]
 800ac7c:	f8aa 2018 	strh.w	r2, [sl, #24]
 800ac80:	f8ca 4608 	str.w	r4, [sl, #1544]	; 0x608
 800ac84:	2b00      	cmp	r3, #0
 800ac86:	f43f adbe 	beq.w	800a806 <main+0xac2>
 800ac8a:	68db      	ldr	r3, [r3, #12]
 800ac8c:	48b2      	ldr	r0, [pc, #712]	; (800af58 <main+0x1214>)
 800ac8e:	4798      	blx	r3
 800ac90:	f8ca 45c4 	str.w	r4, [sl, #1476]	; 0x5c4
 800ac94:	e5b7      	b.n	800a806 <main+0xac2>
 800ac96:	f89a 0230 	ldrb.w	r0, [sl, #560]	; 0x230
 800ac9a:	2800      	cmp	r0, #0
 800ac9c:	f040 81d8 	bne.w	800b050 <main+0x130c>
 800aca0:	f89a 3231 	ldrb.w	r3, [sl, #561]	; 0x231
 800aca4:	2200      	movs	r2, #0
 800aca6:	2b01      	cmp	r3, #1
 800aca8:	f88a 221f 	strb.w	r2, [sl, #543]	; 0x21f
 800acac:	f43f ae2a 	beq.w	800a904 <main+0xbc0>
 800acb0:	2307      	movs	r3, #7
 800acb2:	f88a 3000 	strb.w	r3, [sl]
 800acb6:	e5a6      	b.n	800a806 <main+0xac2>
 800acb8:	f89a 022f 	ldrb.w	r0, [sl, #559]	; 0x22f
 800acbc:	2800      	cmp	r0, #0
 800acbe:	f040 81ee 	bne.w	800b09e <main+0x135a>
 800acc2:	2307      	movs	r3, #7
 800acc4:	f88a 3001 	strb.w	r3, [sl, #1]
 800acc8:	e59d      	b.n	800a806 <main+0xac2>
 800acca:	f89a 3002 	ldrb.w	r3, [sl, #2]
 800acce:	2b01      	cmp	r3, #1
 800acd0:	f000 819f 	beq.w	800b012 <main+0x12ce>
 800acd4:	2b02      	cmp	r3, #2
 800acd6:	f47f ad96 	bne.w	800a806 <main+0xac2>
 800acda:	489f      	ldr	r0, [pc, #636]	; (800af58 <main+0x1214>)
 800acdc:	f7fd fcd6 	bl	800868c <USBH_CtlReq.part.0>
 800ace0:	2800      	cmp	r0, #0
 800ace2:	f47f ad90 	bne.w	800a806 <main+0xac2>
 800ace6:	f89a 201f 	ldrb.w	r2, [sl, #31]
 800acea:	f89a 301e 	ldrb.w	r3, [sl, #30]
 800acee:	eb03 2302 	add.w	r3, r3, r2, lsl #8
 800acf2:	f8aa 3234 	strh.w	r3, [sl, #564]	; 0x234
 800acf6:	f8ba 301c 	ldrh.w	r3, [sl, #28]
 800acfa:	f8aa 3232 	strh.w	r3, [sl, #562]	; 0x232
 800acfe:	f89a 3024 	ldrb.w	r3, [sl, #36]	; 0x24
 800ad02:	f88a 323a 	strb.w	r3, [sl, #570]	; 0x23a
 800ad06:	f8ba 3020 	ldrh.w	r3, [sl, #32]
 800ad0a:	f8aa 3236 	strh.w	r3, [sl, #566]	; 0x236
 800ad0e:	f8ba 3022 	ldrh.w	r3, [sl, #34]	; 0x22
 800ad12:	f8aa 3238 	strh.w	r3, [sl, #568]	; 0x238
 800ad16:	2304      	movs	r3, #4
 800ad18:	f88a 3001 	strb.w	r3, [sl, #1]
 800ad1c:	e573      	b.n	800a806 <main+0xac2>
 800ad1e:	f89a 022e 	ldrb.w	r0, [sl, #558]	; 0x22e
 800ad22:	2800      	cmp	r0, #0
 800ad24:	f040 8189 	bne.w	800b03a <main+0x12f6>
 800ad28:	2306      	movs	r3, #6
 800ad2a:	f88a 3001 	strb.w	r3, [sl, #1]
 800ad2e:	e56a      	b.n	800a806 <main+0xac2>
 800ad30:	2012      	movs	r0, #18
 800ad32:	f001 fcbd 	bl	800c6b0 <USBH_Get_DevDesc.constprop.0>
 800ad36:	2800      	cmp	r0, #0
 800ad38:	f47f ad65 	bne.w	800a806 <main+0xac2>
 800ad3c:	2302      	movs	r3, #2
 800ad3e:	f88a 3001 	strb.w	r3, [sl, #1]
 800ad42:	e560      	b.n	800a806 <main+0xac2>
 800ad44:	f89a 3002 	ldrb.w	r3, [sl, #2]
 800ad48:	f8ba 4234 	ldrh.w	r4, [sl, #564]	; 0x234
 800ad4c:	2b01      	cmp	r3, #1
 800ad4e:	f000 8192 	beq.w	800b076 <main+0x1332>
 800ad52:	2b02      	cmp	r3, #2
 800ad54:	f47f ad57 	bne.w	800a806 <main+0xac2>
 800ad58:	487f      	ldr	r0, [pc, #508]	; (800af58 <main+0x1214>)
 800ad5a:	f7fd fc97 	bl	800868c <USBH_CtlReq.part.0>
 800ad5e:	2800      	cmp	r0, #0
 800ad60:	f47f ad51 	bne.w	800a806 <main+0xac2>
 800ad64:	f89a 201f 	ldrb.w	r2, [sl, #31]
 800ad68:	f89a 301e 	ldrb.w	r3, [sl, #30]
 800ad6c:	eb03 2302 	add.w	r3, r3, r2, lsl #8
 800ad70:	fa1f fe83 	uxth.w	lr, r3
 800ad74:	f8ba 301c 	ldrh.w	r3, [sl, #28]
 800ad78:	f8aa 3232 	strh.w	r3, [sl, #562]	; 0x232
 800ad7c:	f89a 3024 	ldrb.w	r3, [sl, #36]	; 0x24
 800ad80:	f88a 323a 	strb.w	r3, [sl, #570]	; 0x23a
 800ad84:	f8ba 3020 	ldrh.w	r3, [sl, #32]
 800ad88:	f8aa 3236 	strh.w	r3, [sl, #566]	; 0x236
 800ad8c:	2c09      	cmp	r4, #9
 800ad8e:	f8ba 3022 	ldrh.w	r3, [sl, #34]	; 0x22
 800ad92:	f8aa e234 	strh.w	lr, [sl, #564]	; 0x234
 800ad96:	f8aa 3238 	strh.w	r3, [sl, #568]	; 0x238
 800ad9a:	d910      	bls.n	800adbe <main+0x107a>
 800ad9c:	496e      	ldr	r1, [pc, #440]	; (800af58 <main+0x1214>)
 800ad9e:	2209      	movs	r2, #9
 800ada0:	f101 031c 	add.w	r3, r1, #28
 800ada4:	e009      	b.n	800adba <main+0x1076>
 800ada6:	4596      	cmp	lr, r2
 800ada8:	d909      	bls.n	800adbe <main+0x107a>
 800adaa:	781c      	ldrb	r4, [r3, #0]
 800adac:	4423      	add	r3, r4
 800adae:	4422      	add	r2, r4
 800adb0:	785c      	ldrb	r4, [r3, #1]
 800adb2:	2c04      	cmp	r4, #4
 800adb4:	b292      	uxth	r2, r2
 800adb6:	f000 8203 	beq.w	800b1c0 <main+0x147c>
 800adba:	280a      	cmp	r0, #10
 800adbc:	d1f3      	bne.n	800ada6 <main+0x1062>
 800adbe:	2305      	movs	r3, #5
 800adc0:	f88a 3001 	strb.w	r3, [sl, #1]
 800adc4:	e51f      	b.n	800a806 <main+0xac2>
 800adc6:	f89a 3002 	ldrb.w	r3, [sl, #2]
 800adca:	2b01      	cmp	r3, #1
 800adcc:	f000 814e 	beq.w	800b06c <main+0x1328>
 800add0:	2b02      	cmp	r3, #2
 800add2:	f47f ad18 	bne.w	800a806 <main+0xac2>
 800add6:	4860      	ldr	r0, [pc, #384]	; (800af58 <main+0x1214>)
 800add8:	f7fd fc58 	bl	800868c <USBH_CtlReq.part.0>
 800addc:	2800      	cmp	r0, #0
 800adde:	f47f ad12 	bne.w	800a806 <main+0xac2>
 800ade2:	f8db 2000 	ldr.w	r2, [fp]
 800ade6:	f8db 3000 	ldr.w	r3, [fp]
 800adea:	1a9b      	subs	r3, r3, r2
 800adec:	2b02      	cmp	r3, #2
 800adee:	d3fa      	bcc.n	800ade6 <main+0x10a2>
 800adf0:	f8da 0610 	ldr.w	r0, [sl, #1552]	; 0x610
 800adf4:	f89a 421d 	ldrb.w	r4, [sl, #541]	; 0x21d
 800adf8:	f890 3288 	ldrb.w	r3, [r0, #648]	; 0x288
 800adfc:	2103      	movs	r1, #3
 800adfe:	2201      	movs	r2, #1
 800ae00:	f88a 1001 	strb.w	r1, [sl, #1]
 800ae04:	f89a 1006 	ldrb.w	r1, [sl, #6]
 800ae08:	f88a 221c 	strb.w	r2, [sl, #540]	; 0x21c
 800ae0c:	4293      	cmp	r3, r2
 800ae0e:	460d      	mov	r5, r1
 800ae10:	d03e      	beq.n	800ae90 <main+0x114c>
 800ae12:	f89a e004 	ldrb.w	lr, [sl, #4]
 800ae16:	2328      	movs	r3, #40	; 0x28
 800ae18:	fb03 030e 	mla	r3, r3, lr, r0
 800ae1c:	2600      	movs	r6, #0
 800ae1e:	f44f 7c80 	mov.w	ip, #256	; 0x100
 800ae22:	f883 2030 	strb.w	r2, [r3, #48]	; 0x30
 800ae26:	f883 e031 	strb.w	lr, [r3, #49]	; 0x31
 800ae2a:	f883 4034 	strb.w	r4, [r3, #52]	; 0x34
 800ae2e:	f883 6037 	strb.w	r6, [r3, #55]	; 0x37
 800ae32:	f8a3 c032 	strh.w	ip, [r3, #50]	; 0x32
 800ae36:	f8d0 c000 	ldr.w	ip, [r0]
 800ae3a:	8719      	strh	r1, [r3, #56]	; 0x38
 800ae3c:	eb0c 134e 	add.w	r3, ip, lr, lsl #5
 800ae40:	f04f 39ff 	mov.w	r9, #4294967295	; 0xffffffff
 800ae44:	f8c3 9508 	str.w	r9, [r3, #1288]	; 0x508
 800ae48:	f240 499d 	movw	r9, #1181	; 0x49d
 800ae4c:	f8c3 950c 	str.w	r9, [r3, #1292]	; 0x50c
 800ae50:	f8d3 950c 	ldr.w	r9, [r3, #1292]	; 0x50c
 800ae54:	f449 7980 	orr.w	r9, r9, #256	; 0x100
 800ae58:	f8c3 950c 	str.w	r9, [r3, #1292]	; 0x50c
 800ae5c:	fa02 f20e 	lsl.w	r2, r2, lr
 800ae60:	f8dc e418 	ldr.w	lr, [ip, #1048]	; 0x418
 800ae64:	ea42 020e 	orr.w	r2, r2, lr
 800ae68:	f8cc 2418 	str.w	r2, [ip, #1048]	; 0x418
 800ae6c:	f8dc 2018 	ldr.w	r2, [ip, #24]
 800ae70:	2c02      	cmp	r4, #2
 800ae72:	f042 7200 	orr.w	r2, r2, #33554432	; 0x2000000
 800ae76:	f8cc 2018 	str.w	r2, [ip, #24]
 800ae7a:	bf0c      	ite	eq
 800ae7c:	f44f 3200 	moveq.w	r2, #131072	; 0x20000
 800ae80:	4632      	movne	r2, r6
 800ae82:	430a      	orrs	r2, r1
 800ae84:	f442 0281 	orr.w	r2, r2, #4227072	; 0x408000
 800ae88:	f8c3 2500 	str.w	r2, [r3, #1280]	; 0x500
 800ae8c:	f880 6288 	strb.w	r6, [r0, #648]	; 0x288
 800ae90:	2200      	movs	r2, #0
 800ae92:	9502      	str	r5, [sp, #8]
 800ae94:	9400      	str	r4, [sp, #0]
 800ae96:	9201      	str	r2, [sp, #4]
 800ae98:	f89a 1005 	ldrb.w	r1, [sl, #5]
 800ae9c:	482e      	ldr	r0, [pc, #184]	; (800af58 <main+0x1214>)
 800ae9e:	2301      	movs	r3, #1
 800aea0:	f001 fcb4 	bl	800c80c <USBH_LL_OpenPipe.isra.0>
 800aea4:	e4af      	b.n	800a806 <main+0xac2>
 800aea6:	2008      	movs	r0, #8
 800aea8:	f001 fc02 	bl	800c6b0 <USBH_Get_DevDesc.constprop.0>
 800aeac:	4604      	mov	r4, r0
 800aeae:	2800      	cmp	r0, #0
 800aeb0:	f47f aca9 	bne.w	800a806 <main+0xac2>
 800aeb4:	9001      	str	r0, [sp, #4]
 800aeb6:	f89a 3227 	ldrb.w	r3, [sl, #551]	; 0x227
 800aeba:	9302      	str	r3, [sp, #8]
 800aebc:	f88a 3006 	strb.w	r3, [sl, #6]
 800aec0:	f89a 321d 	ldrb.w	r3, [sl, #541]	; 0x21d
 800aec4:	9300      	str	r3, [sp, #0]
 800aec6:	2201      	movs	r2, #1
 800aec8:	f89a 321c 	ldrb.w	r3, [sl, #540]	; 0x21c
 800aecc:	f89a 1004 	ldrb.w	r1, [sl, #4]
 800aed0:	f88a 2001 	strb.w	r2, [sl, #1]
 800aed4:	4820      	ldr	r0, [pc, #128]	; (800af58 <main+0x1214>)
 800aed6:	2280      	movs	r2, #128	; 0x80
 800aed8:	f001 fc98 	bl	800c80c <USBH_LL_OpenPipe.isra.0>
 800aedc:	9401      	str	r4, [sp, #4]
 800aede:	f89a 3006 	ldrb.w	r3, [sl, #6]
 800aee2:	9302      	str	r3, [sp, #8]
 800aee4:	f89a 321d 	ldrb.w	r3, [sl, #541]	; 0x21d
 800aee8:	9300      	str	r3, [sp, #0]
 800aeea:	f89a 321c 	ldrb.w	r3, [sl, #540]	; 0x21c
 800aeee:	f89a 1005 	ldrb.w	r1, [sl, #5]
 800aef2:	4819      	ldr	r0, [pc, #100]	; (800af58 <main+0x1214>)
 800aef4:	4622      	mov	r2, r4
 800aef6:	f001 fc89 	bl	800c80c <USBH_LL_OpenPipe.isra.0>
 800aefa:	e484      	b.n	800a806 <main+0xac2>
 800aefc:	f89a 3000 	ldrb.w	r3, [sl]
 800af00:	2400      	movs	r4, #0
 800af02:	2b0a      	cmp	r3, #10
 800af04:	f888 4000 	strb.w	r4, [r8]
 800af08:	f47f ac84 	bne.w	800a814 <main+0xad0>
 800af0c:	f8da 35c4 	ldr.w	r3, [sl, #1476]	; 0x5c4
 800af10:	69de      	ldr	r6, [r3, #28]
 800af12:	7034      	strb	r4, [r6, #0]
 800af14:	f8da 5610 	ldr.w	r5, [sl, #1552]	; 0x610
 800af18:	f895 3288 	ldrb.w	r3, [r5, #648]	; 0x288
 800af1c:	2b01      	cmp	r3, #1
 800af1e:	f43f ac79 	beq.w	800a814 <main+0xad0>
 800af22:	f04f 0901 	mov.w	r9, #1
 800af26:	7871      	ldrb	r1, [r6, #1]
 800af28:	6828      	ldr	r0, [r5, #0]
 800af2a:	f885 9288 	strb.w	r9, [r5, #648]	; 0x288
 800af2e:	f7f5 fb33 	bl	8000598 <USB_HC_Halt>
 800af32:	f885 4288 	strb.w	r4, [r5, #648]	; 0x288
 800af36:	f8da 5610 	ldr.w	r5, [sl, #1552]	; 0x610
 800af3a:	78b1      	ldrb	r1, [r6, #2]
 800af3c:	f895 3288 	ldrb.w	r3, [r5, #648]	; 0x288
 800af40:	454b      	cmp	r3, r9
 800af42:	f43f ac67 	beq.w	800a814 <main+0xad0>
 800af46:	6828      	ldr	r0, [r5, #0]
 800af48:	f885 9288 	strb.w	r9, [r5, #648]	; 0x288
 800af4c:	f7f5 fb24 	bl	8000598 <USB_HC_Halt>
 800af50:	f885 4288 	strb.w	r4, [r5, #648]	; 0x288
 800af54:	e45e      	b.n	800a814 <main+0xad0>
 800af56:	bf00      	nop
 800af58:	2001f0a0 	.word	0x2001f0a0
 800af5c:	2001f0bc 	.word	0x2001f0bc
 800af60:	4601      	mov	r1, r0
 800af62:	eb0a 0081 	add.w	r0, sl, r1, lsl #2
 800af66:	f44f 4500 	mov.w	r5, #32768	; 0x8000
 800af6a:	f8c0 55cc 	str.w	r5, [r0, #1484]	; 0x5cc
 800af6e:	f8da 05cc 	ldr.w	r0, [sl, #1484]	; 0x5cc
 800af72:	f88a 1005 	strb.w	r1, [sl, #5]
 800af76:	4028      	ands	r0, r5
 800af78:	9106      	str	r1, [sp, #24]
 800af7a:	f47f ad2f 	bne.w	800a9dc <main+0xc98>
 800af7e:	4684      	mov	ip, r0
 800af80:	eb0a 008c 	add.w	r0, sl, ip, lsl #2
 800af84:	f248 0580 	movw	r5, #32896	; 0x8080
 800af88:	f8c0 55cc 	str.w	r5, [r0, #1484]	; 0x5cc
 800af8c:	f8cd c014 	str.w	ip, [sp, #20]
 800af90:	e55c      	b.n	800aa4c <main+0xd08>
 800af92:	230c      	movs	r3, #12
 800af94:	f88a 3000 	strb.w	r3, [sl]
 800af98:	e435      	b.n	800a806 <main+0xac2>
 800af9a:	f89a 3237 	ldrb.w	r3, [sl, #567]	; 0x237
 800af9e:	f8aa 3012 	strh.w	r3, [sl, #18]
 800afa2:	f44f 6310 	mov.w	r3, #2304	; 0x900
 800afa6:	f8aa 3010 	strh.w	r3, [sl, #16]
 800afaa:	2300      	movs	r3, #0
 800afac:	f8ca 3014 	str.w	r3, [sl, #20]
 800afb0:	2300      	movs	r3, #0
 800afb2:	f8ca 3008 	str.w	r3, [sl, #8]
 800afb6:	f8aa 300c 	strh.w	r3, [sl, #12]
 800afba:	2301      	movs	r3, #1
 800afbc:	f88a 3018 	strb.w	r3, [sl, #24]
 800afc0:	2302      	movs	r3, #2
 800afc2:	f88a 3002 	strb.w	r3, [sl, #2]
 800afc6:	e41e      	b.n	800a806 <main+0xac2>
 800afc8:	2101      	movs	r1, #1
 800afca:	e7ca      	b.n	800af62 <main+0x121e>
 800afcc:	2103      	movs	r1, #3
 800afce:	e7c8      	b.n	800af62 <main+0x121e>
 800afd0:	4661      	mov	r1, ip
 800afd2:	e7c6      	b.n	800af62 <main+0x121e>
 800afd4:	f04f 0c01 	mov.w	ip, #1
 800afd8:	e7d2      	b.n	800af80 <main+0x123c>
 800afda:	f04f 0c03 	mov.w	ip, #3
 800afde:	e7cf      	b.n	800af80 <main+0x123c>
 800afe0:	68e3      	ldr	r3, [r4, #12]
 800afe2:	f043 0340 	orr.w	r3, r3, #64	; 0x40
 800afe6:	60e3      	str	r3, [r4, #12]
 800afe8:	4620      	mov	r0, r4
 800afea:	f001 fc81 	bl	800c8f0 <USB_CoreReset.isra.0>
 800afee:	f44f 3380 	mov.w	r3, #65536	; 0x10000
 800aff2:	63a3      	str	r3, [r4, #56]	; 0x38
 800aff4:	f7ff bb3d 	b.w	800a672 <main+0x92e>
 800aff8:	2104      	movs	r1, #4
 800affa:	e7b2      	b.n	800af62 <main+0x121e>
 800affc:	f04f 0c04 	mov.w	ip, #4
 800b000:	e7be      	b.n	800af80 <main+0x123c>
 800b002:	f04f 0c06 	mov.w	ip, #6
 800b006:	e7bb      	b.n	800af80 <main+0x123c>
 800b008:	f04f 0c05 	mov.w	ip, #5
 800b00c:	e7b8      	b.n	800af80 <main+0x123c>
 800b00e:	2108      	movs	r1, #8
 800b010:	e7a7      	b.n	800af62 <main+0x121e>
 800b012:	f88a 3018 	strb.w	r3, [sl, #24]
 800b016:	4b92      	ldr	r3, [pc, #584]	; (800b260 <main+0x151c>)
 800b018:	f8ca 3008 	str.w	r3, [sl, #8]
 800b01c:	4b91      	ldr	r3, [pc, #580]	; (800b264 <main+0x1520>)
 800b01e:	f8ca 3010 	str.w	r3, [sl, #16]
 800b022:	2309      	movs	r3, #9
 800b024:	f8aa 300c 	strh.w	r3, [sl, #12]
 800b028:	f44f 2310 	mov.w	r3, #589824	; 0x90000
 800b02c:	f8ca 3014 	str.w	r3, [sl, #20]
 800b030:	2302      	movs	r3, #2
 800b032:	f88a 3002 	strb.w	r3, [sl, #2]
 800b036:	f7ff bbe6 	b.w	800a806 <main+0xac2>
 800b03a:	4989      	ldr	r1, [pc, #548]	; (800b260 <main+0x151c>)
 800b03c:	f001 fb88 	bl	800c750 <USBH_Get_StringDesc.constprop.0>
 800b040:	2800      	cmp	r0, #0
 800b042:	f47f abe0 	bne.w	800a806 <main+0xac2>
 800b046:	e66f      	b.n	800ad28 <main+0xfe4>
 800b048:	2107      	movs	r1, #7
 800b04a:	e78a      	b.n	800af62 <main+0x121e>
 800b04c:	2106      	movs	r1, #6
 800b04e:	e788      	b.n	800af62 <main+0x121e>
 800b050:	4983      	ldr	r1, [pc, #524]	; (800b260 <main+0x151c>)
 800b052:	f001 fb7d 	bl	800c750 <USBH_Get_StringDesc.constprop.0>
 800b056:	2800      	cmp	r0, #0
 800b058:	f43f ae22 	beq.w	800aca0 <main+0xf5c>
 800b05c:	f7ff bbd3 	b.w	800a806 <main+0xac2>
 800b060:	f04f 0c08 	mov.w	ip, #8
 800b064:	e78c      	b.n	800af80 <main+0x123c>
 800b066:	f04f 0c07 	mov.w	ip, #7
 800b06a:	e789      	b.n	800af80 <main+0x123c>
 800b06c:	497e      	ldr	r1, [pc, #504]	; (800b268 <main+0x1524>)
 800b06e:	2300      	movs	r3, #0
 800b070:	e9ca 1304 	strd	r1, r3, [sl, #16]
 800b074:	e79c      	b.n	800afb0 <main+0x126c>
 800b076:	f88a 3018 	strb.w	r3, [sl, #24]
 800b07a:	4b79      	ldr	r3, [pc, #484]	; (800b260 <main+0x151c>)
 800b07c:	f8ca 3008 	str.w	r3, [sl, #8]
 800b080:	4b78      	ldr	r3, [pc, #480]	; (800b264 <main+0x1520>)
 800b082:	f8ca 3010 	str.w	r3, [sl, #16]
 800b086:	2300      	movs	r3, #0
 800b088:	f8aa 3014 	strh.w	r3, [sl, #20]
 800b08c:	2302      	movs	r3, #2
 800b08e:	f8aa 4016 	strh.w	r4, [sl, #22]
 800b092:	f8aa 400c 	strh.w	r4, [sl, #12]
 800b096:	f88a 3002 	strb.w	r3, [sl, #2]
 800b09a:	f7ff bbb4 	b.w	800a806 <main+0xac2>
 800b09e:	4970      	ldr	r1, [pc, #448]	; (800b260 <main+0x151c>)
 800b0a0:	f001 fb56 	bl	800c750 <USBH_Get_StringDesc.constprop.0>
 800b0a4:	2800      	cmp	r0, #0
 800b0a6:	f47f abae 	bne.w	800a806 <main+0xac2>
 800b0aa:	e60a      	b.n	800acc2 <main+0xf7e>
 800b0ac:	f04f 0c09 	mov.w	ip, #9
 800b0b0:	e766      	b.n	800af80 <main+0x123c>
 800b0b2:	2109      	movs	r1, #9
 800b0b4:	e755      	b.n	800af62 <main+0x121e>
 800b0b6:	4a6d      	ldr	r2, [pc, #436]	; (800b26c <main+0x1528>)
 800b0b8:	4b6d      	ldr	r3, [pc, #436]	; (800b270 <main+0x152c>)
 800b0ba:	2180      	movs	r1, #128	; 0x80
 800b0bc:	6261      	str	r1, [r4, #36]	; 0x24
 800b0be:	62a2      	str	r2, [r4, #40]	; 0x28
 800b0c0:	f8c4 3100 	str.w	r3, [r4, #256]	; 0x100
 800b0c4:	f7ff bb5e 	b.w	800a784 <main+0xa40>
 800b0c8:	f1b4 4fa0 	cmp.w	r4, #1342177280	; 0x50000000
 800b0cc:	f43f aaff 	beq.w	800a6ce <main+0x98a>
 800b0d0:	f043 0304 	orr.w	r3, r3, #4
 800b0d4:	f8c4 3400 	str.w	r3, [r4, #1024]	; 0x400
 800b0d8:	f7ff bafd 	b.w	800a6d6 <main+0x992>
 800b0dc:	4b65      	ldr	r3, [pc, #404]	; (800b274 <main+0x1530>)
 800b0de:	f7ff b826 	b.w	800a12e <main+0x3ea>
 800b0e2:	2301      	movs	r3, #1
 800b0e4:	f884 303d 	strb.w	r3, [r4, #61]	; 0x3d
 800b0e8:	f7ff b861 	b.w	800a1ae <main+0x46a>
 800b0ec:	f44f 7380 	mov.w	r3, #256	; 0x100
 800b0f0:	f7ff ba44 	b.w	800a57c <main+0x838>
 800b0f4:	4b60      	ldr	r3, [pc, #384]	; (800b278 <main+0x1534>)
 800b0f6:	4961      	ldr	r1, [pc, #388]	; (800b27c <main+0x1538>)
 800b0f8:	6019      	str	r1, [r3, #0]
 800b0fa:	2140      	movs	r1, #64	; 0x40
 800b0fc:	6099      	str	r1, [r3, #8]
 800b0fe:	f44f 6880 	mov.w	r8, #1024	; 0x400
 800b102:	f44f 6100 	mov.w	r1, #2048	; 0x800
 800b106:	e9c3 8104 	strd	r8, r1, [r3, #16]
 800b10a:	f893 2035 	ldrb.w	r2, [r3, #53]	; 0x35
 800b10e:	6363      	str	r3, [r4, #52]	; 0x34
 800b110:	f44f 7180 	mov.w	r1, #256	; 0x100
 800b114:	f44f 5900 	mov.w	r9, #8192	; 0x2000
 800b118:	e9c3 9106 	strd	r9, r1, [r3, #24]
 800b11c:	f44f 3a00 	mov.w	sl, #131072	; 0x20000
 800b120:	2104      	movs	r1, #4
 800b122:	e9c3 a108 	strd	sl, r1, [r3, #32]
 800b126:	2a02      	cmp	r2, #2
 800b128:	f04f 0103 	mov.w	r1, #3
 800b12c:	e9c3 660b 	strd	r6, r6, [r3, #44]	; 0x2c
 800b130:	605e      	str	r6, [r3, #4]
 800b132:	60de      	str	r6, [r3, #12]
 800b134:	639c      	str	r4, [r3, #56]	; 0x38
 800b136:	6299      	str	r1, [r3, #40]	; 0x28
 800b138:	d027      	beq.n	800b18a <main+0x1446>
 800b13a:	4a51      	ldr	r2, [pc, #324]	; (800b280 <main+0x153c>)
 800b13c:	f883 6034 	strb.w	r6, [r3, #52]	; 0x34
 800b140:	f8d2 10b8 	ldr.w	r1, [r2, #184]	; 0xb8
 800b144:	f021 0101 	bic.w	r1, r1, #1
 800b148:	f8c2 10b8 	str.w	r1, [r2, #184]	; 0xb8
 800b14c:	2021      	movs	r0, #33	; 0x21
 800b14e:	f04f 7180 	mov.w	r1, #16777216	; 0x1000000
 800b152:	f8c2 60b8 	str.w	r6, [r2, #184]	; 0xb8
 800b156:	f8c2 60bc 	str.w	r6, [r2, #188]	; 0xbc
 800b15a:	f8c2 60c0 	str.w	r6, [r2, #192]	; 0xc0
 800b15e:	f8c2 60c4 	str.w	r6, [r2, #196]	; 0xc4
 800b162:	f8c2 60c8 	str.w	r6, [r2, #200]	; 0xc8
 800b166:	f8c2 00cc 	str.w	r0, [r2, #204]	; 0xcc
 800b16a:	60d1      	str	r1, [r2, #12]
 800b16c:	f04f 6100 	mov.w	r1, #134217728	; 0x8000000
 800b170:	60d1      	str	r1, [r2, #12]
 800b172:	f04f 7100 	mov.w	r1, #33554432	; 0x2000000
 800b176:	60d1      	str	r1, [r2, #12]
 800b178:	f44f 0180 	mov.w	r1, #4194304	; 0x400000
 800b17c:	60d1      	str	r1, [r2, #12]
 800b17e:	f04f 6180 	mov.w	r1, #67108864	; 0x4000000
 800b182:	60d1      	str	r1, [r2, #12]
 800b184:	64de      	str	r6, [r3, #76]	; 0x4c
 800b186:	f883 6035 	strb.w	r6, [r3, #53]	; 0x35
 800b18a:	493d      	ldr	r1, [pc, #244]	; (800b280 <main+0x153c>)
 800b18c:	2202      	movs	r2, #2
 800b18e:	f883 2035 	strb.w	r2, [r3, #53]	; 0x35
 800b192:	f8d1 00b8 	ldr.w	r0, [r1, #184]	; 0xb8
 800b196:	4a3b      	ldr	r2, [pc, #236]	; (800b284 <main+0x1540>)
 800b198:	4002      	ands	r2, r0
 800b19a:	f442 320b 	orr.w	r2, r2, #142336	; 0x22c00
 800b19e:	f442 72a0 	orr.w	r2, r2, #320	; 0x140
 800b1a2:	f8c1 20b8 	str.w	r2, [r1, #184]	; 0xb8
 800b1a6:	f8d1 20cc 	ldr.w	r2, [r1, #204]	; 0xcc
 800b1aa:	f042 0207 	orr.w	r2, r2, #7
 800b1ae:	f8c1 20cc 	str.w	r2, [r1, #204]	; 0xcc
 800b1b2:	2200      	movs	r2, #0
 800b1b4:	64da      	str	r2, [r3, #76]	; 0x4c
 800b1b6:	2201      	movs	r2, #1
 800b1b8:	f883 2035 	strb.w	r2, [r3, #53]	; 0x35
 800b1bc:	f7ff b9b3 	b.w	800a526 <main+0x7e2>
 800b1c0:	781c      	ldrb	r4, [r3, #0]
 800b1c2:	f881 423c 	strb.w	r4, [r1, #572]	; 0x23c
 800b1c6:	785c      	ldrb	r4, [r3, #1]
 800b1c8:	f881 423d 	strb.w	r4, [r1, #573]	; 0x23d
 800b1cc:	789c      	ldrb	r4, [r3, #2]
 800b1ce:	f881 423e 	strb.w	r4, [r1, #574]	; 0x23e
 800b1d2:	78dc      	ldrb	r4, [r3, #3]
 800b1d4:	f881 423f 	strb.w	r4, [r1, #575]	; 0x23f
 800b1d8:	f893 c004 	ldrb.w	ip, [r3, #4]
 800b1dc:	f881 c240 	strb.w	ip, [r1, #576]	; 0x240
 800b1e0:	795c      	ldrb	r4, [r3, #5]
 800b1e2:	f881 4241 	strb.w	r4, [r1, #577]	; 0x241
 800b1e6:	799c      	ldrb	r4, [r3, #6]
 800b1e8:	f881 4242 	strb.w	r4, [r1, #578]	; 0x242
 800b1ec:	79dc      	ldrb	r4, [r3, #7]
 800b1ee:	f881 4243 	strb.w	r4, [r1, #579]	; 0x243
 800b1f2:	7a1c      	ldrb	r4, [r3, #8]
 800b1f4:	f881 4244 	strb.w	r4, [r1, #580]	; 0x244
 800b1f8:	245a      	movs	r4, #90	; 0x5a
 800b1fa:	fb04 f400 	mul.w	r4, r4, r0
 800b1fe:	2500      	movs	r5, #0
 800b200:	9404      	str	r4, [sp, #16]
 800b202:	4565      	cmp	r5, ip
 800b204:	da25      	bge.n	800b252 <main+0x150e>
 800b206:	4596      	cmp	lr, r2
 800b208:	d923      	bls.n	800b252 <main+0x150e>
 800b20a:	781c      	ldrb	r4, [r3, #0]
 800b20c:	4423      	add	r3, r4
 800b20e:	4414      	add	r4, r2
 800b210:	b2a2      	uxth	r2, r4
 800b212:	785c      	ldrb	r4, [r3, #1]
 800b214:	2c05      	cmp	r4, #5
 800b216:	d1f4      	bne.n	800b202 <main+0x14be>
 800b218:	9c04      	ldr	r4, [sp, #16]
 800b21a:	781e      	ldrb	r6, [r3, #0]
 800b21c:	3501      	adds	r5, #1
 800b21e:	eb04 04c5 	add.w	r4, r4, r5, lsl #3
 800b222:	4454      	add	r4, sl
 800b224:	b26d      	sxtb	r5, r5
 800b226:	f884 623e 	strb.w	r6, [r4, #574]	; 0x23e
 800b22a:	785e      	ldrb	r6, [r3, #1]
 800b22c:	f884 623f 	strb.w	r6, [r4, #575]	; 0x23f
 800b230:	789e      	ldrb	r6, [r3, #2]
 800b232:	f884 6240 	strb.w	r6, [r4, #576]	; 0x240
 800b236:	78de      	ldrb	r6, [r3, #3]
 800b238:	f884 6241 	strb.w	r6, [r4, #577]	; 0x241
 800b23c:	f893 9005 	ldrb.w	r9, [r3, #5]
 800b240:	791e      	ldrb	r6, [r3, #4]
 800b242:	eb06 2609 	add.w	r6, r6, r9, lsl #8
 800b246:	f8a4 6242 	strh.w	r6, [r4, #578]	; 0x242
 800b24a:	799e      	ldrb	r6, [r3, #6]
 800b24c:	f884 6244 	strb.w	r6, [r4, #580]	; 0x244
 800b250:	e7d7      	b.n	800b202 <main+0x14be>
 800b252:	3001      	adds	r0, #1
 800b254:	315a      	adds	r1, #90	; 0x5a
 800b256:	e5b0      	b.n	800adba <main+0x1076>
 800b258:	ea4f 2909 	mov.w	r9, r9, lsl #8
 800b25c:	f7fe bf88 	b.w	800a170 <main+0x42c>
 800b260:	2001f0bc 	.word	0x2001f0bc
 800b264:	02000680 	.word	0x02000680
 800b268:	00010500 	.word	0x00010500
 800b26c:	00600080 	.word	0x00600080
 800b270:	004000e0 	.word	0x004000e0
 800b274:	00bb8000 	.word	0x00bb8000
 800b278:	2001f6b8 	.word	0x2001f6b8
 800b27c:	400260b8 	.word	0x400260b8
 800b280:	40026000 	.word	0x40026000
 800b284:	f014803f 	.word	0xf014803f

0800b288 <seq_sequence_new>:
seq_sequence_new():
 800b288:	e92d 4ff8 	stmdb	sp!, {r3, r4, r5, r6, r7, r8, r9, sl, fp, lr}
 800b28c:	4f93      	ldr	r7, [pc, #588]	; (800b4dc <seq_sequence_new+0x254>)
 800b28e:	4c94      	ldr	r4, [pc, #592]	; (800b4e0 <seq_sequence_new+0x258>)
 800b290:	4d94      	ldr	r5, [pc, #592]	; (800b4e4 <seq_sequence_new+0x25c>)
 800b292:	ed2d 8b04 	vpush	{d8-d9}
 800b296:	eddf 8a94 	vldr	s17, [pc, #592]	; 800b4e8 <seq_sequence_new+0x260>
 800b29a:	ed9f 9a94 	vldr	s18, [pc, #592]	; 800b4ec <seq_sequence_new+0x264>
 800b29e:	f107 0620 	add.w	r6, r7, #32
 800b2a2:	f8d4 8004 	ldr.w	r8, [r4, #4]
 800b2a6:	f898 3000 	ldrb.w	r3, [r8]
 800b2aa:	ee08 3a10 	vmov	s16, r3
 800b2ae:	f003 fb99 	bl	800e9e4 <rand>
 800b2b2:	ee07 0a90 	vmov	s15, r0
 800b2b6:	eeb8 8a48 	vcvt.f32.u32	s16, s16
 800b2ba:	eef8 7ae7 	vcvt.f32.s32	s15, s15
 800b2be:	eeb7 0a00 	vmov.f32	s0, #112	; 0x3f800000  1.0
 800b2c2:	ee38 8a40 	vsub.f32	s16, s16, s0
 800b2c6:	ee67 7aa8 	vmul.f32	s15, s15, s17
 800b2ca:	ee67 7a88 	vmul.f32	s15, s15, s16
 800b2ce:	ee37 0a80 	vadd.f32	s0, s15, s0
 800b2d2:	f002 f86b 	bl	800d3ac <lrintf>
 800b2d6:	f9b4 3008 	ldrsh.w	r3, [r4, #8]
 800b2da:	f818 8000 	ldrb.w	r8, [r8, r0]
 800b2de:	ee00 3a10 	vmov	s0, r3
 800b2e2:	eeb8 8ac0 	vcvt.f32.s32	s16, s0
 800b2e6:	f003 fb7d 	bl	800e9e4 <rand>
 800b2ea:	ee07 0a90 	vmov	s15, r0
 800b2ee:	eeb8 0ae7 	vcvt.f32.s32	s0, s15
 800b2f2:	ee20 0a28 	vmul.f32	s0, s0, s17
 800b2f6:	ee20 0a08 	vmul.f32	s0, s0, s16
 800b2fa:	ee30 0a09 	vadd.f32	s0, s0, s18
 800b2fe:	f002 f855 	bl	800d3ac <lrintf>
 800b302:	8962      	ldrh	r2, [r4, #10]
 800b304:	eb00 0040 	add.w	r0, r0, r0, lsl #1
 800b308:	f1a2 0315 	sub.w	r3, r2, #21
 800b30c:	eb03 0380 	add.w	r3, r3, r0, lsl #2
 800b310:	4443      	add	r3, r8
 800b312:	b218      	sxth	r0, r3
 800b314:	286a      	cmp	r0, #106	; 0x6a
 800b316:	b29b      	uxth	r3, r3
 800b318:	dd73      	ble.n	800b402 <seq_sequence_new+0x17a>
 800b31a:	f1a3 026b 	sub.w	r2, r3, #107	; 0x6b
 800b31e:	b292      	uxth	r2, r2
 800b320:	fba5 1802 	umull	r1, r8, r5, r2
 800b324:	ea4f 08d8 	mov.w	r8, r8, lsr #3
 800b328:	2a5f      	cmp	r2, #95	; 0x5f
 800b32a:	f108 0801 	add.w	r8, r8, #1
 800b32e:	d931      	bls.n	800b394 <seq_sequence_new+0x10c>
 800b330:	f1a3 0118 	sub.w	r1, r3, #24
 800b334:	2200      	movs	r2, #0
 800b336:	f361 020f 	bfi	r2, r1, #0, #16
 800b33a:	3b24      	subs	r3, #36	; 0x24
 800b33c:	f363 421f 	bfi	r2, r3, #16, #16
 800b340:	ea4f 0a98 	mov.w	sl, r8, lsr #2
 800b344:	f04f 0900 	mov.w	r9, #0
 800b348:	f1a2 0330 	sub.w	r3, r2, #48	; 0x30
 800b34c:	f3c2 4e0f 	ubfx	lr, r2, #16, #16
 800b350:	f04f 0c00 	mov.w	ip, #0
 800b354:	f363 0c0f 	bfi	ip, r3, #0, #16
 800b358:	f1a2 0b0c 	sub.w	fp, r2, #12
 800b35c:	f3c2 410f 	ubfx	r1, r2, #16, #16
 800b360:	f1ae 0e30 	sub.w	lr, lr, #48	; 0x30
 800b364:	2300      	movs	r3, #0
 800b366:	f109 0901 	add.w	r9, r9, #1
 800b36a:	f36e 4c1f 	bfi	ip, lr, #16, #16
 800b36e:	f36b 030f 	bfi	r3, fp, #0, #16
 800b372:	390c      	subs	r1, #12
 800b374:	45d1      	cmp	r9, sl
 800b376:	4662      	mov	r2, ip
 800b378:	f361 431f 	bfi	r3, r1, #16, #16
 800b37c:	d1e4      	bne.n	800b348 <seq_sequence_new+0xc0>
 800b37e:	f028 0203 	bic.w	r2, r8, #3
 800b382:	eba2 0182 	sub.w	r1, r2, r2, lsl #2
 800b386:	eb00 0081 	add.w	r0, r0, r1, lsl #2
 800b38a:	4542      	cmp	r2, r8
 800b38c:	ea4f 4323 	mov.w	r3, r3, asr #16
 800b390:	b200      	sxth	r0, r0
 800b392:	d02d      	beq.n	800b3f0 <seq_sequence_new+0x168>
 800b394:	b280      	uxth	r0, r0
 800b396:	f1a0 030c 	sub.w	r3, r0, #12
 800b39a:	b29a      	uxth	r2, r3
 800b39c:	2a6a      	cmp	r2, #106	; 0x6a
 800b39e:	b21b      	sxth	r3, r3
 800b3a0:	d926      	bls.n	800b3f0 <seq_sequence_new+0x168>
 800b3a2:	f1a0 0318 	sub.w	r3, r0, #24
 800b3a6:	b29a      	uxth	r2, r3
 800b3a8:	2a6a      	cmp	r2, #106	; 0x6a
 800b3aa:	b21b      	sxth	r3, r3
 800b3ac:	d920      	bls.n	800b3f0 <seq_sequence_new+0x168>
 800b3ae:	f1a0 0324 	sub.w	r3, r0, #36	; 0x24
 800b3b2:	b29a      	uxth	r2, r3
 800b3b4:	2a6a      	cmp	r2, #106	; 0x6a
 800b3b6:	b21b      	sxth	r3, r3
 800b3b8:	d91a      	bls.n	800b3f0 <seq_sequence_new+0x168>
 800b3ba:	f1a0 0330 	sub.w	r3, r0, #48	; 0x30
 800b3be:	b29a      	uxth	r2, r3
 800b3c0:	2a6a      	cmp	r2, #106	; 0x6a
 800b3c2:	b21b      	sxth	r3, r3
 800b3c4:	d914      	bls.n	800b3f0 <seq_sequence_new+0x168>
 800b3c6:	f1a0 033c 	sub.w	r3, r0, #60	; 0x3c
 800b3ca:	b29a      	uxth	r2, r3
 800b3cc:	2a6a      	cmp	r2, #106	; 0x6a
 800b3ce:	b21b      	sxth	r3, r3
 800b3d0:	d90e      	bls.n	800b3f0 <seq_sequence_new+0x168>
 800b3d2:	f1a0 0348 	sub.w	r3, r0, #72	; 0x48
 800b3d6:	b29a      	uxth	r2, r3
 800b3d8:	2a6a      	cmp	r2, #106	; 0x6a
 800b3da:	b21b      	sxth	r3, r3
 800b3dc:	d908      	bls.n	800b3f0 <seq_sequence_new+0x168>
 800b3de:	f1a0 0354 	sub.w	r3, r0, #84	; 0x54
 800b3e2:	b29a      	uxth	r2, r3
 800b3e4:	2a6a      	cmp	r2, #106	; 0x6a
 800b3e6:	b21b      	sxth	r3, r3
 800b3e8:	d902      	bls.n	800b3f0 <seq_sequence_new+0x168>
 800b3ea:	f1a0 0360 	sub.w	r3, r0, #96	; 0x60
 800b3ee:	b21b      	sxth	r3, r3
 800b3f0:	f827 3f02 	strh.w	r3, [r7, #2]!
 800b3f4:	42b7      	cmp	r7, r6
 800b3f6:	f47f af54 	bne.w	800b2a2 <seq_sequence_new+0x1a>
 800b3fa:	ecbd 8b04 	vpop	{d8-d9}
 800b3fe:	e8bd 8ff8 	ldmia.w	sp!, {r3, r4, r5, r6, r7, r8, r9, sl, fp, pc}
 800b402:	2800      	cmp	r0, #0
 800b404:	da67      	bge.n	800b4d6 <seq_sequence_new+0x24e>
 800b406:	ea6f 0803 	mvn.w	r8, r3
 800b40a:	fa1f f888 	uxth.w	r8, r8
 800b40e:	fba5 2808 	umull	r2, r8, r5, r8
 800b412:	f64f 729f 	movw	r2, #65439	; 0xff9f
 800b416:	ea4f 08d8 	mov.w	r8, r8, lsr #3
 800b41a:	4293      	cmp	r3, r2
 800b41c:	f108 0801 	add.w	r8, r8, #1
 800b420:	d831      	bhi.n	800b486 <seq_sequence_new+0x1fe>
 800b422:	f103 0118 	add.w	r1, r3, #24
 800b426:	2200      	movs	r2, #0
 800b428:	f361 020f 	bfi	r2, r1, #0, #16
 800b42c:	3324      	adds	r3, #36	; 0x24
 800b42e:	f363 421f 	bfi	r2, r3, #16, #16
 800b432:	ea4f 0a98 	mov.w	sl, r8, lsr #2
 800b436:	f04f 0900 	mov.w	r9, #0
 800b43a:	f102 0330 	add.w	r3, r2, #48	; 0x30
 800b43e:	f3c2 4e0f 	ubfx	lr, r2, #16, #16
 800b442:	f04f 0c00 	mov.w	ip, #0
 800b446:	f363 0c0f 	bfi	ip, r3, #0, #16
 800b44a:	f102 0b0c 	add.w	fp, r2, #12
 800b44e:	f3c2 410f 	ubfx	r1, r2, #16, #16
 800b452:	f10e 0e30 	add.w	lr, lr, #48	; 0x30
 800b456:	2300      	movs	r3, #0
 800b458:	f109 0901 	add.w	r9, r9, #1
 800b45c:	f36e 4c1f 	bfi	ip, lr, #16, #16
 800b460:	f36b 030f 	bfi	r3, fp, #0, #16
 800b464:	310c      	adds	r1, #12
 800b466:	45d1      	cmp	r9, sl
 800b468:	4662      	mov	r2, ip
 800b46a:	f361 431f 	bfi	r3, r1, #16, #16
 800b46e:	d1e4      	bne.n	800b43a <seq_sequence_new+0x1b2>
 800b470:	f028 0203 	bic.w	r2, r8, #3
 800b474:	eb02 0142 	add.w	r1, r2, r2, lsl #1
 800b478:	eb00 0081 	add.w	r0, r0, r1, lsl #2
 800b47c:	4590      	cmp	r8, r2
 800b47e:	ea4f 4323 	mov.w	r3, r3, asr #16
 800b482:	b200      	sxth	r0, r0
 800b484:	d0b4      	beq.n	800b3f0 <seq_sequence_new+0x168>
 800b486:	b280      	uxth	r0, r0
 800b488:	f100 030c 	add.w	r3, r0, #12
 800b48c:	b21b      	sxth	r3, r3
 800b48e:	2b00      	cmp	r3, #0
 800b490:	daae      	bge.n	800b3f0 <seq_sequence_new+0x168>
 800b492:	f100 0318 	add.w	r3, r0, #24
 800b496:	b21b      	sxth	r3, r3
 800b498:	2b00      	cmp	r3, #0
 800b49a:	daa9      	bge.n	800b3f0 <seq_sequence_new+0x168>
 800b49c:	f100 0324 	add.w	r3, r0, #36	; 0x24
 800b4a0:	b21b      	sxth	r3, r3
 800b4a2:	2b00      	cmp	r3, #0
 800b4a4:	daa4      	bge.n	800b3f0 <seq_sequence_new+0x168>
 800b4a6:	f100 0330 	add.w	r3, r0, #48	; 0x30
 800b4aa:	b21b      	sxth	r3, r3
 800b4ac:	2b00      	cmp	r3, #0
 800b4ae:	da9f      	bge.n	800b3f0 <seq_sequence_new+0x168>
 800b4b0:	f100 033c 	add.w	r3, r0, #60	; 0x3c
 800b4b4:	b21b      	sxth	r3, r3
 800b4b6:	2b00      	cmp	r3, #0
 800b4b8:	da9a      	bge.n	800b3f0 <seq_sequence_new+0x168>
 800b4ba:	f100 0348 	add.w	r3, r0, #72	; 0x48
 800b4be:	b21b      	sxth	r3, r3
 800b4c0:	2b00      	cmp	r3, #0
 800b4c2:	da95      	bge.n	800b3f0 <seq_sequence_new+0x168>
 800b4c4:	f100 0354 	add.w	r3, r0, #84	; 0x54
 800b4c8:	b21b      	sxth	r3, r3
 800b4ca:	2b00      	cmp	r3, #0
 800b4cc:	da90      	bge.n	800b3f0 <seq_sequence_new+0x168>
 800b4ce:	f100 0360 	add.w	r3, r0, #96	; 0x60
 800b4d2:	b21b      	sxth	r3, r3
 800b4d4:	e78c      	b.n	800b3f0 <seq_sequence_new+0x168>
 800b4d6:	4603      	mov	r3, r0
 800b4d8:	e78a      	b.n	800b3f0 <seq_sequence_new+0x168>
 800b4da:	bf00      	nop
 800b4dc:	10000026 	.word	0x10000026
 800b4e0:	1000007c 	.word	0x1000007c
 800b4e4:	aaaaaaab 	.word	0xaaaaaaab
 800b4e8:	30000000 	.word	0x30000000
 800b4ec:	00000000 	.word	0x00000000

0800b4f0 <Phaser_compute>:
Phaser_compute():
 800b4f0:	b510      	push	{r4, lr}
 800b4f2:	4c50      	ldr	r4, [pc, #320]	; (800b634 <Phaser_compute+0x144>)
 800b4f4:	4a50      	ldr	r2, [pc, #320]	; (800b638 <Phaser_compute+0x148>)
 800b4f6:	4b51      	ldr	r3, [pc, #324]	; (800b63c <Phaser_compute+0x14c>)
 800b4f8:	ed9f 7a51 	vldr	s14, [pc, #324]	; 800b640 <Phaser_compute+0x150>
 800b4fc:	edd3 7a00 	vldr	s15, [r3]
 800b500:	ed2d 8b04 	vpush	{d8-d9}
 800b504:	ed94 8a00 	vldr	s16, [r4]
 800b508:	edd2 9a00 	vldr	s19, [r2]
 800b50c:	eef0 8a40 	vmov.f32	s17, s0
 800b510:	ee28 0a07 	vmul.f32	s0, s16, s14
 800b514:	ee37 9ae9 	vsub.f32	s18, s15, s19
 800b518:	f001 ff48 	bl	800d3ac <lrintf>
 800b51c:	4b49      	ldr	r3, [pc, #292]	; (800b644 <Phaser_compute+0x154>)
 800b51e:	4a4a      	ldr	r2, [pc, #296]	; (800b648 <Phaser_compute+0x158>)
 800b520:	494a      	ldr	r1, [pc, #296]	; (800b64c <Phaser_compute+0x15c>)
 800b522:	eb03 0080 	add.w	r0, r3, r0, lsl #2
 800b526:	edd0 7a00 	vldr	s15, [r0]
 800b52a:	4b49      	ldr	r3, [pc, #292]	; (800b650 <Phaser_compute+0x160>)
 800b52c:	edd1 2a00 	vldr	s5, [r1]
 800b530:	eeb7 7a00 	vmov.f32	s14, #112	; 0x3f800000  1.0
 800b534:	ee77 7a87 	vadd.f32	s15, s15, s14
 800b538:	eeb6 7a00 	vmov.f32	s14, #96	; 0x3f000000  0.5
 800b53c:	ee67 7a87 	vmul.f32	s15, s15, s14
 800b540:	ed93 7a00 	vldr	s14, [r3]
 800b544:	4b43      	ldr	r3, [pc, #268]	; (800b654 <Phaser_compute+0x164>)
 800b546:	ee38 8a07 	vadd.f32	s16, s16, s14
 800b54a:	ee67 7a89 	vmul.f32	s15, s15, s18
 800b54e:	ed9f 7a42 	vldr	s14, [pc, #264]	; 800b658 <Phaser_compute+0x168>
 800b552:	ee77 7aa9 	vadd.f32	s15, s15, s19
 800b556:	eeb4 8ac7 	vcmpe.f32	s16, s14
 800b55a:	eef7 6a00 	vmov.f32	s13, #112	; 0x3f800000  1.0
 800b55e:	eef1 fa10 	vmrs	APSR_nzcv, fpscr
 800b562:	bfa8      	it	ge
 800b564:	ee38 8a47 	vsubge.f32	s16, s16, s14
 800b568:	ee36 6ae7 	vsub.f32	s12, s13, s15
 800b56c:	ee37 7aa6 	vadd.f32	s14, s15, s13
 800b570:	ed84 8a00 	vstr	s16, [r4]
 800b574:	eec6 7a07 	vdiv.f32	s15, s12, s14
 800b578:	ed93 7a00 	vldr	s14, [r3]
 800b57c:	ed92 6a00 	vldr	s12, [r2]
 800b580:	4b36      	ldr	r3, [pc, #216]	; (800b65c <Phaser_compute+0x16c>)
 800b582:	ee26 6a07 	vmul.f32	s12, s12, s14
 800b586:	ed93 7a00 	vldr	s14, [r3]
 800b58a:	ed93 4a01 	vldr	s8, [r3, #4]
 800b58e:	edd3 4a02 	vldr	s9, [r3, #8]
 800b592:	ed93 5a03 	vldr	s10, [r3, #12]
 800b596:	edd3 5a04 	vldr	s11, [r3, #16]
 800b59a:	ed93 2a05 	vldr	s4, [r3, #20]
 800b59e:	ee36 6a28 	vadd.f32	s12, s12, s17
 800b5a2:	ee26 3a67 	vnmul.f32	s6, s12, s15
 800b5a6:	ee33 3a07 	vadd.f32	s6, s6, s14
 800b5aa:	ee36 7ae2 	vsub.f32	s14, s13, s5
 800b5ae:	ee63 3a67 	vnmul.f32	s7, s6, s15
 800b5b2:	ee67 6a83 	vmul.f32	s13, s15, s6
 800b5b6:	ee73 3a84 	vadd.f32	s7, s7, s8
 800b5ba:	ee36 6a86 	vadd.f32	s12, s13, s12
 800b5be:	ee23 4ae7 	vnmul.f32	s8, s7, s15
 800b5c2:	ee63 6aa7 	vmul.f32	s13, s7, s15
 800b5c6:	ee34 4a24 	vadd.f32	s8, s8, s9
 800b5ca:	ee36 3a83 	vadd.f32	s6, s13, s6
 800b5ce:	ee64 4a67 	vnmul.f32	s9, s8, s15
 800b5d2:	ee67 6a84 	vmul.f32	s13, s15, s8
 800b5d6:	ee74 4a85 	vadd.f32	s9, s9, s10
 800b5da:	ee76 3aa3 	vadd.f32	s7, s13, s7
 800b5de:	ee24 5ae7 	vnmul.f32	s10, s9, s15
 800b5e2:	ee67 6aa4 	vmul.f32	s13, s15, s9
 800b5e6:	ee35 5a25 	vadd.f32	s10, s10, s11
 800b5ea:	ee27 7a28 	vmul.f32	s14, s14, s17
 800b5ee:	ee65 5a67 	vnmul.f32	s11, s10, s15
 800b5f2:	ecbd 8b04 	vpop	{d8-d9}
 800b5f6:	ee75 5a82 	vadd.f32	s11, s11, s4
 800b5fa:	ee36 4a84 	vadd.f32	s8, s13, s8
 800b5fe:	ee67 6a85 	vmul.f32	s13, s15, s10
 800b602:	ee67 7aa5 	vmul.f32	s15, s15, s11
 800b606:	ee76 4aa4 	vadd.f32	s9, s13, s9
 800b60a:	ee77 7a85 	vadd.f32	s15, s15, s10
 800b60e:	ee22 0aa5 	vmul.f32	s0, s5, s11
 800b612:	ed83 6a00 	vstr	s12, [r3]
 800b616:	ee37 0a00 	vadd.f32	s0, s14, s0
 800b61a:	ed83 3a01 	vstr	s6, [r3, #4]
 800b61e:	edc3 3a02 	vstr	s7, [r3, #8]
 800b622:	ed83 4a03 	vstr	s8, [r3, #12]
 800b626:	edc3 4a04 	vstr	s9, [r3, #16]
 800b62a:	edc3 7a05 	vstr	s15, [r3, #20]
 800b62e:	edc2 5a00 	vstr	s11, [r2]
 800b632:	bd10      	pop	{r4, pc}
 800b634:	2001f740 	.word	0x2001f740
 800b638:	2001f73c 	.word	0x2001f73c
 800b63c:	2001f738 	.word	0x2001f738
 800b640:	4322f983 	.word	0x4322f983
 800b644:	0800f450 	.word	0x0800f450
 800b648:	2001f75c 	.word	0x2001f75c
 800b64c:	2001f724 	.word	0x2001f724
 800b650:	2001f708 	.word	0x2001f708
 800b654:	2001edc0 	.word	0x2001edc0
 800b658:	40c90fdb 	.word	0x40c90fdb
 800b65c:	2001f744 	.word	0x2001f744

0800b660 <SVF_calcSample>:
SVF_calcSample():
 800b660:	edd0 5a06 	vldr	s11, [r0, #24]
 800b664:	eddf 7a8e 	vldr	s15, [pc, #568]	; 800b8a0 <SVF_calcSample+0x240>
 800b668:	edd0 6a01 	vldr	s13, [r0, #4]
 800b66c:	eddf 1a8d 	vldr	s3, [pc, #564]	; 800b8a4 <SVF_calcSample+0x244>
 800b670:	ed9f 6a8d 	vldr	s12, [pc, #564]	; 800b8a8 <SVF_calcSample+0x248>
 800b674:	ed9f 2a8d 	vldr	s4, [pc, #564]	; 800b8ac <SVF_calcSample+0x24c>
 800b678:	ed90 7a02 	vldr	s14, [r0, #8]
 800b67c:	7803      	ldrb	r3, [r0, #0]
 800b67e:	ee60 5a25 	vmul.f32	s11, s0, s11
 800b682:	eeb6 3a00 	vmov.f32	s6, #96	; 0x3f000000  0.5
 800b686:	ee65 4a83 	vmul.f32	s9, s11, s6
 800b68a:	eef4 6ae7 	vcmpe.f32	s13, s15
 800b68e:	ee24 4aa4 	vmul.f32	s8, s9, s9
 800b692:	eef2 6a0e 	vmov.f32	s13, #46	; 0x41700000  15.0
 800b696:	ee64 4a26 	vmul.f32	s9, s8, s13
 800b69a:	ee74 3a06 	vadd.f32	s7, s8, s12
 800b69e:	ee74 4aa1 	vadd.f32	s9, s9, s3
 800b6a2:	ee63 3a84 	vmul.f32	s7, s7, s8
 800b6a6:	ee64 4a84 	vmul.f32	s9, s9, s8
 800b6aa:	ee33 4a82 	vadd.f32	s8, s7, s4
 800b6ae:	ee74 4a82 	vadd.f32	s9, s9, s4
 800b6b2:	eef1 fa10 	vmrs	APSR_nzcv, fpscr
 800b6b6:	ee84 1a24 	vdiv.f32	s2, s8, s9
 800b6ba:	f103 33ff 	add.w	r3, r3, #4294967295	; 0xffffffff
 800b6be:	bfb8      	it	lt
 800b6c0:	edd0 2a03 	vldrlt	s5, [r0, #12]
 800b6c4:	edd0 7a07 	vldr	s15, [r0, #28]
 800b6c8:	edd0 3a04 	vldr	s7, [r0, #16]
 800b6cc:	edd0 4a05 	vldr	s9, [r0, #20]
 800b6d0:	ee61 5a25 	vmul.f32	s11, s2, s11
 800b6d4:	bfb8      	it	lt
 800b6d6:	ee32 5aa2 	vaddlt.f32	s10, s5, s5
 800b6da:	ee75 7aa7 	vadd.f32	s15, s11, s15
 800b6de:	bfa8      	it	ge
 800b6e0:	eeb0 5a00 	vmovge.f32	s10, #0	; 0x40000000  2.0
 800b6e4:	ee63 0a85 	vmul.f32	s1, s7, s10
 800b6e8:	ee67 7a83 	vmul.f32	s15, s15, s6
 800b6ec:	ee23 4a83 	vmul.f32	s8, s7, s6
 800b6f0:	ee77 7ae0 	vsub.f32	s15, s15, s1
 800b6f4:	ee24 4a04 	vmul.f32	s8, s8, s8
 800b6f8:	ee77 7ae4 	vsub.f32	s15, s15, s9
 800b6fc:	ee34 1a06 	vadd.f32	s2, s8, s12
 800b700:	ee67 7a83 	vmul.f32	s15, s15, s6
 800b704:	ee21 1a04 	vmul.f32	s2, s2, s8
 800b708:	ee67 7aa7 	vmul.f32	s15, s15, s15
 800b70c:	bfa8      	it	ge
 800b70e:	eef7 2a00 	vmovge.f32	s5, #112	; 0x3f800000  1.0
 800b712:	ee27 3aa6 	vmul.f32	s6, s15, s13
 800b716:	ee37 6a86 	vadd.f32	s12, s15, s12
 800b71a:	ee33 3a21 	vadd.f32	s6, s6, s3
 800b71e:	ee26 6a27 	vmul.f32	s12, s12, s15
 800b722:	ee63 7a27 	vmul.f32	s15, s6, s15
 800b726:	ee36 6a02 	vadd.f32	s12, s12, s4
 800b72a:	ee37 3a82 	vadd.f32	s6, s15, s4
 800b72e:	ee64 6a26 	vmul.f32	s13, s8, s13
 800b732:	eec6 7a03 	vdiv.f32	s15, s12, s6
 800b736:	ee76 6aa1 	vadd.f32	s13, s13, s3
 800b73a:	eef7 0a00 	vmov.f32	s1, #112	; 0x3f800000  1.0
 800b73e:	ee66 6a84 	vmul.f32	s13, s13, s8
 800b742:	ee27 4a27 	vmul.f32	s8, s14, s15
 800b746:	ee31 1a02 	vadd.f32	s2, s2, s4
 800b74a:	ee34 4a04 	vadd.f32	s8, s8, s8
 800b74e:	ee76 6a82 	vadd.f32	s13, s13, s4
 800b752:	ee24 4a22 	vmul.f32	s8, s8, s5
 800b756:	ee81 2a26 	vdiv.f32	s4, s2, s13
 800b75a:	ee34 4a20 	vadd.f32	s8, s8, s1
 800b75e:	ee27 6a07 	vmul.f32	s12, s14, s14
 800b762:	ee80 1a84 	vdiv.f32	s2, s1, s8
 800b766:	ee23 3a82 	vmul.f32	s6, s7, s4
 800b76a:	ee66 6a01 	vmul.f32	s13, s12, s2
 800b76e:	ee27 6a01 	vmul.f32	s12, s14, s2
 800b772:	ee66 6aa7 	vmul.f32	s13, s13, s15
 800b776:	ee26 6a02 	vmul.f32	s12, s12, s4
 800b77a:	ee66 6a82 	vmul.f32	s13, s13, s4
 800b77e:	ee26 6a23 	vmul.f32	s12, s12, s7
 800b782:	ee66 3aa5 	vmul.f32	s7, s13, s11
 800b786:	ee76 6aa0 	vadd.f32	s13, s13, s1
 800b78a:	ee73 3aa4 	vadd.f32	s7, s7, s9
 800b78e:	ee37 4aa7 	vadd.f32	s8, s15, s15
 800b792:	ee36 6a23 	vadd.f32	s12, s12, s7
 800b796:	ee77 1a07 	vadd.f32	s3, s14, s14
 800b79a:	eec6 3a26 	vdiv.f32	s7, s12, s13
 800b79e:	ee64 2a22 	vmul.f32	s5, s8, s5
 800b7a2:	ee75 6ae3 	vsub.f32	s13, s11, s7
 800b7a6:	ee21 4a82 	vmul.f32	s8, s3, s4
 800b7aa:	ee66 7aa7 	vmul.f32	s15, s13, s15
 800b7ae:	edc0 5a07 	vstr	s11, [r0, #28]
 800b7b2:	ee27 7a27 	vmul.f32	s14, s14, s15
 800b7b6:	ee37 7a03 	vadd.f32	s14, s14, s6
 800b7ba:	ee27 7a01 	vmul.f32	s14, s14, s2
 800b7be:	ee62 2a87 	vmul.f32	s5, s5, s14
 800b7c2:	ee64 6a07 	vmul.f32	s13, s8, s14
 800b7c6:	ee77 7ae2 	vsub.f32	s15, s15, s5
 800b7ca:	ee76 4aa4 	vadd.f32	s9, s13, s9
 800b7ce:	ee67 7aa1 	vmul.f32	s15, s15, s3
 800b7d2:	edc0 4a05 	vstr	s9, [r0, #20]
 800b7d6:	ee77 7a83 	vadd.f32	s15, s15, s6
 800b7da:	edc0 7a04 	vstr	s15, [r0, #16]
 800b7de:	2b04      	cmp	r3, #4
 800b7e0:	d810      	bhi.n	800b804 <SVF_calcSample+0x1a4>
 800b7e2:	e8df f003 	tbb	[pc, r3]
 800b7e6:	3e23      	.short	0x3e23
 800b7e8:	4e49      	.short	0x4e49
 800b7ea:	03          	.byte	0x03
 800b7eb:	00          	.byte	0x00
 800b7ec:	ee27 7a05 	vmul.f32	s14, s14, s10
 800b7f0:	ed9f 0a2f 	vldr	s0, [pc, #188]	; 800b8b0 <SVF_calcSample+0x250>
 800b7f4:	ee35 7ac7 	vsub.f32	s14, s11, s14
 800b7f8:	ee77 5a63 	vsub.f32	s11, s14, s7
 800b7fc:	ee33 7ae5 	vsub.f32	s14, s7, s11
 800b800:	ee27 0a00 	vmul.f32	s0, s14, s0
 800b804:	eeb7 7a00 	vmov.f32	s14, #112	; 0x3f800000  1.0
 800b808:	eeb4 0ac7 	vcmpe.f32	s0, s14
 800b80c:	eef1 fa10 	vmrs	APSR_nzcv, fpscr
 800b810:	dd02      	ble.n	800b818 <SVF_calcSample+0x1b8>
 800b812:	eeb0 0a47 	vmov.f32	s0, s14
 800b816:	4770      	bx	lr
 800b818:	eebf 7a00 	vmov.f32	s14, #240	; 0xbf800000 -1.0
 800b81c:	eeb4 0ac7 	vcmpe.f32	s0, s14
 800b820:	eef1 fa10 	vmrs	APSR_nzcv, fpscr
 800b824:	bf48      	it	mi
 800b826:	eeb0 0a47 	vmovmi.f32	s0, s14
 800b82a:	4770      	bx	lr
 800b82c:	eddf 7a21 	vldr	s15, [pc, #132]	; 800b8b4 <SVF_calcSample+0x254>
 800b830:	eef4 3ae7 	vcmpe.f32	s7, s15
 800b834:	eef1 fa10 	vmrs	APSR_nzcv, fpscr
 800b838:	d42c      	bmi.n	800b894 <SVF_calcSample+0x234>
 800b83a:	eddf 7a1f 	vldr	s15, [pc, #124]	; 800b8b8 <SVF_calcSample+0x258>
 800b83e:	eef4 3ae7 	vcmpe.f32	s7, s15
 800b842:	eef1 fa10 	vmrs	APSR_nzcv, fpscr
 800b846:	dc28      	bgt.n	800b89a <SVF_calcSample+0x23a>
 800b848:	ed9f 7a1c 	vldr	s14, [pc, #112]	; 800b8bc <SVF_calcSample+0x25c>
 800b84c:	eddf 6a1c 	vldr	s13, [pc, #112]	; 800b8c0 <SVF_calcSample+0x260>
 800b850:	ee63 7aa3 	vmul.f32	s15, s7, s7
 800b854:	ee23 7a87 	vmul.f32	s14, s7, s14
 800b858:	ee77 7aa6 	vadd.f32	s15, s15, s13
 800b85c:	ee87 0a27 	vdiv.f32	s0, s14, s15
 800b860:	e7d0      	b.n	800b804 <SVF_calcSample+0x1a4>
 800b862:	ee27 7a05 	vmul.f32	s14, s14, s10
 800b866:	ed9f 0a12 	vldr	s0, [pc, #72]	; 800b8b0 <SVF_calcSample+0x250>
 800b86a:	ee35 7ac7 	vsub.f32	s14, s11, s14
 800b86e:	ee37 7a63 	vsub.f32	s14, s14, s7
 800b872:	ee27 0a00 	vmul.f32	s0, s14, s0
 800b876:	e7c5      	b.n	800b804 <SVF_calcSample+0x1a4>
 800b878:	ed9f 0a0d 	vldr	s0, [pc, #52]	; 800b8b0 <SVF_calcSample+0x250>
 800b87c:	ee27 0a00 	vmul.f32	s0, s14, s0
 800b880:	e7c0      	b.n	800b804 <SVF_calcSample+0x1a4>
 800b882:	ee27 7a05 	vmul.f32	s14, s14, s10
 800b886:	ed9f 0a0a 	vldr	s0, [pc, #40]	; 800b8b0 <SVF_calcSample+0x250>
 800b88a:	ee35 7ac7 	vsub.f32	s14, s11, s14
 800b88e:	ee27 0a00 	vmul.f32	s0, s14, s0
 800b892:	e7b7      	b.n	800b804 <SVF_calcSample+0x1a4>
 800b894:	eebf 0a00 	vmov.f32	s0, #240	; 0xbf800000 -1.0
 800b898:	4770      	bx	lr
 800b89a:	eeb7 0a00 	vmov.f32	s0, #112	; 0x3f800000  1.0
 800b89e:	4770      	bx	lr
 800b8a0:	3ee6594b 	.word	0x3ee6594b
 800b8a4:	43d20000 	.word	0x43d20000
 800b8a8:	42d20000 	.word	0x42d20000
 800b8ac:	446c4000 	.word	0x446c4000
 800b8b0:	3f6147ae 	.word	0x3f6147ae
 800b8b4:	bff9999a 	.word	0xbff9999a
 800b8b8:	3ff9999a 	.word	0x3ff9999a
 800b8bc:	4084cccd 	.word	0x4084cccd
 800b8c0:	408947ae 	.word	0x408947ae

0800b8c4 <Synth_Init>:
Synth_Init():
 800b8c4:	e92d 4ff8 	stmdb	sp!, {r3, r4, r5, r6, r7, r8, r9, sl, fp, lr}
 800b8c8:	48cf      	ldr	r0, [pc, #828]	; (800bc08 <Synth_Init+0x344>)
 800b8ca:	4bd0      	ldr	r3, [pc, #832]	; (800bc0c <Synth_Init+0x348>)
 800b8cc:	49d0      	ldr	r1, [pc, #832]	; (800bc10 <Synth_Init+0x34c>)
 800b8ce:	f8df a418 	ldr.w	sl, [pc, #1048]	; 800bce8 <Synth_Init+0x424>
 800b8d2:	f8df 9418 	ldr.w	r9, [pc, #1048]	; 800bcec <Synth_Init+0x428>
 800b8d6:	4acf      	ldr	r2, [pc, #828]	; (800bc14 <Synth_Init+0x350>)
 800b8d8:	4dcf      	ldr	r5, [pc, #828]	; (800bc18 <Synth_Init+0x354>)
 800b8da:	f8df e414 	ldr.w	lr, [pc, #1044]	; 800bcf0 <Synth_Init+0x42c>
 800b8de:	f8df c414 	ldr.w	ip, [pc, #1044]	; 800bcf4 <Synth_Init+0x430>
 800b8e2:	4ece      	ldr	r6, [pc, #824]	; (800bc1c <Synth_Init+0x358>)
 800b8e4:	4fce      	ldr	r7, [pc, #824]	; (800bc20 <Synth_Init+0x35c>)
 800b8e6:	f8df 8410 	ldr.w	r8, [pc, #1040]	; 800bcf8 <Synth_Init+0x434>
 800b8ea:	f8df b410 	ldr.w	fp, [pc, #1040]	; 800bcfc <Synth_Init+0x438>
 800b8ee:	2400      	movs	r4, #0
 800b8f0:	ed2d 8b06 	vpush	{d8-d10}
 800b8f4:	eef7 8a00 	vmov.f32	s17, #112	; 0x3f800000  1.0
 800b8f8:	7004      	strb	r4, [r0, #0]
 800b8fa:	48ca      	ldr	r0, [pc, #808]	; (800bc24 <Synth_Init+0x360>)
 800b8fc:	ed9f 8aca 	vldr	s16, [pc, #808]	; 800bc28 <Synth_Init+0x364>
 800b900:	eddf aaca 	vldr	s21, [pc, #808]	; 800bc2c <Synth_Init+0x368>
 800b904:	edc3 8a00 	vstr	s17, [r3]
 800b908:	6008      	str	r0, [r1, #0]
 800b90a:	4bc9      	ldr	r3, [pc, #804]	; (800bc30 <Synth_Init+0x36c>)
 800b90c:	49c9      	ldr	r1, [pc, #804]	; (800bc34 <Synth_Init+0x370>)
 800b90e:	6011      	str	r1, [r2, #0]
 800b910:	f88a 4000 	strb.w	r4, [sl]
 800b914:	f243 22c8 	movw	r2, #13000	; 0x32c8
 800b918:	f04f 4a81 	mov.w	sl, #1082130432	; 0x40800000
 800b91c:	f889 4000 	strb.w	r4, [r9]
 800b920:	f04f 4980 	mov.w	r9, #1073741824	; 0x40000000
 800b924:	f88e 4000 	strb.w	r4, [lr]
 800b928:	f88c 4000 	strb.w	r4, [ip]
 800b92c:	601a      	str	r2, [r3, #0]
 800b92e:	60af      	str	r7, [r5, #8]
 800b930:	f8c5 8010 	str.w	r8, [r5, #16]
 800b934:	7034      	strb	r4, [r6, #0]
 800b936:	61ac      	str	r4, [r5, #24]
 800b938:	f8c5 a000 	str.w	sl, [r5]
 800b93c:	f8c5 9004 	str.w	r9, [r5, #4]
 800b940:	ed85 8a08 	vstr	s16, [r5, #32]
 800b944:	ed85 8a07 	vstr	s16, [r5, #28]
 800b948:	edc5 aa03 	vstr	s21, [r5, #12]
 800b94c:	f003 f84a 	bl	800e9e4 <rand>
 800b950:	ee07 0a90 	vmov	s15, r0
 800b954:	ed9f 9ab8 	vldr	s18, [pc, #736]	; 800bc38 <Synth_Init+0x374>
 800b958:	4eb8      	ldr	r6, [pc, #736]	; (800bc3c <Synth_Init+0x378>)
 800b95a:	eddf 9ab9 	vldr	s19, [pc, #740]	; 800bc40 <Synth_Init+0x37c>
 800b95e:	ed9f aab9 	vldr	s20, [pc, #740]	; 800bc44 <Synth_Init+0x380>
 800b962:	eef8 7ae7 	vcvt.f32.s32	s15, s15
 800b966:	ee67 7a89 	vmul.f32	s15, s15, s18
 800b96a:	ee67 7aaa 	vmul.f32	s15, s15, s21
 800b96e:	ee77 7aaa 	vadd.f32	s15, s15, s21
 800b972:	eefc 7ae7 	vcvt.u32.f32	s15, s15
 800b976:	edc5 7a05 	vstr	s15, [r5, #20]
 800b97a:	f003 f833 	bl	800e9e4 <rand>
 800b97e:	ee07 0a90 	vmov	s15, r0
 800b982:	eef8 7ae7 	vcvt.f32.s32	s15, s15
 800b986:	ed95 7a07 	vldr	s14, [r5, #28]
 800b98a:	f8c6 a000 	str.w	sl, [r6]
 800b98e:	ee67 7a89 	vmul.f32	s15, s15, s18
 800b992:	f8c6 9004 	str.w	r9, [r6, #4]
 800b996:	ee77 7aa7 	vadd.f32	s15, s15, s15
 800b99a:	60b7      	str	r7, [r6, #8]
 800b99c:	ee77 7ae8 	vsub.f32	s15, s15, s17
 800b9a0:	61b4      	str	r4, [r6, #24]
 800b9a2:	ee37 7ac7 	vsub.f32	s14, s15, s14
 800b9a6:	edc5 7a08 	vstr	s15, [r5, #32]
 800b9aa:	edd5 7a05 	vldr	s15, [r5, #20]
 800b9ae:	f8c6 8010 	str.w	r8, [r6, #16]
 800b9b2:	eef8 7a67 	vcvt.f32.u32	s15, s15
 800b9b6:	ed86 8a08 	vstr	s16, [r6, #32]
 800b9ba:	eec7 6a27 	vdiv.f32	s13, s14, s15
 800b9be:	ed86 8a07 	vstr	s16, [r6, #28]
 800b9c2:	edc5 6a09 	vstr	s13, [r5, #36]	; 0x24
 800b9c6:	edc6 aa03 	vstr	s21, [r6, #12]
 800b9ca:	f003 f80b 	bl	800e9e4 <rand>
 800b9ce:	ee07 0a90 	vmov	s15, r0
 800b9d2:	eef8 7ae7 	vcvt.f32.s32	s15, s15
 800b9d6:	4d9c      	ldr	r5, [pc, #624]	; (800bc48 <Synth_Init+0x384>)
 800b9d8:	ee67 7a89 	vmul.f32	s15, s15, s18
 800b9dc:	ee67 7aaa 	vmul.f32	s15, s15, s21
 800b9e0:	ee77 7aaa 	vadd.f32	s15, s15, s21
 800b9e4:	eefc 7ae7 	vcvt.u32.f32	s15, s15
 800b9e8:	edc6 7a05 	vstr	s15, [r6, #20]
 800b9ec:	f002 fffa 	bl	800e9e4 <rand>
 800b9f0:	ee07 0a90 	vmov	s15, r0
 800b9f4:	eef8 7ae7 	vcvt.f32.s32	s15, s15
 800b9f8:	ed96 7a07 	vldr	s14, [r6, #28]
 800b9fc:	f8c5 a000 	str.w	sl, [r5]
 800ba00:	ee67 7a89 	vmul.f32	s15, s15, s18
 800ba04:	f8c5 9004 	str.w	r9, [r5, #4]
 800ba08:	ee77 7aa7 	vadd.f32	s15, s15, s15
 800ba0c:	f8c5 8010 	str.w	r8, [r5, #16]
 800ba10:	ee77 7ae8 	vsub.f32	s15, s15, s17
 800ba14:	60af      	str	r7, [r5, #8]
 800ba16:	ee37 7ac7 	vsub.f32	s14, s15, s14
 800ba1a:	edc6 7a08 	vstr	s15, [r6, #32]
 800ba1e:	edd6 7a05 	vldr	s15, [r6, #20]
 800ba22:	61ac      	str	r4, [r5, #24]
 800ba24:	eef8 7a67 	vcvt.f32.u32	s15, s15
 800ba28:	ed85 8a08 	vstr	s16, [r5, #32]
 800ba2c:	eec7 6a27 	vdiv.f32	s13, s14, s15
 800ba30:	f8df a2cc 	ldr.w	sl, [pc, #716]	; 800bd00 <Synth_Init+0x43c>
 800ba34:	f8df 92cc 	ldr.w	r9, [pc, #716]	; 800bd04 <Synth_Init+0x440>
 800ba38:	f8df 82cc 	ldr.w	r8, [pc, #716]	; 800bd08 <Synth_Init+0x444>
 800ba3c:	ed85 8a07 	vstr	s16, [r5, #28]
 800ba40:	edc6 6a09 	vstr	s13, [r6, #36]	; 0x24
 800ba44:	edc5 aa03 	vstr	s21, [r5, #12]
 800ba48:	f002 ffcc 	bl	800e9e4 <rand>
 800ba4c:	ee07 0a90 	vmov	s15, r0
 800ba50:	eef8 7ae7 	vcvt.f32.s32	s15, s15
 800ba54:	4e7d      	ldr	r6, [pc, #500]	; (800bc4c <Synth_Init+0x388>)
 800ba56:	ee67 7a89 	vmul.f32	s15, s15, s18
 800ba5a:	ee67 7aaa 	vmul.f32	s15, s15, s21
 800ba5e:	ee77 7aaa 	vadd.f32	s15, s15, s21
 800ba62:	eefc 7ae7 	vcvt.u32.f32	s15, s15
 800ba66:	edc5 7a05 	vstr	s15, [r5, #20]
 800ba6a:	f002 ffbb 	bl	800e9e4 <rand>
 800ba6e:	ee07 0a90 	vmov	s15, r0
 800ba72:	eef8 7ae7 	vcvt.f32.s32	s15, s15
 800ba76:	edd5 6a07 	vldr	s13, [r5, #28]
 800ba7a:	ed95 7a05 	vldr	s14, [r5, #20]
 800ba7e:	ed9f 0a74 	vldr	s0, [pc, #464]	; 800bc50 <Synth_Init+0x38c>
 800ba82:	4b74      	ldr	r3, [pc, #464]	; (800bc54 <Synth_Init+0x390>)
 800ba84:	6433      	str	r3, [r6, #64]	; 0x40
 800ba86:	ee67 7a89 	vmul.f32	s15, s15, s18
 800ba8a:	eeb8 7a47 	vcvt.f32.u32	s14, s14
 800ba8e:	ee77 7aa7 	vadd.f32	s15, s15, s15
 800ba92:	ee77 7ae8 	vsub.f32	s15, s15, s17
 800ba96:	ee77 6ae6 	vsub.f32	s13, s15, s13
 800ba9a:	edc5 7a08 	vstr	s15, [r5, #32]
 800ba9e:	ee86 6a87 	vdiv.f32	s12, s13, s14
 800baa2:	ed85 6a09 	vstr	s12, [r5, #36]	; 0x24
 800baa6:	f001 fc81 	bl	800d3ac <lrintf>
 800baaa:	4b6b      	ldr	r3, [pc, #428]	; (800bc58 <Synth_Init+0x394>)
 800baac:	4a6b      	ldr	r2, [pc, #428]	; (800bc5c <Synth_Init+0x398>)
 800baae:	6470      	str	r0, [r6, #68]	; 0x44
 800bab0:	64b4      	str	r4, [r6, #72]	; 0x48
 800bab2:	1040      	asrs	r0, r0, #1
 800bab4:	f8c3 400e 	str.w	r4, [r3, #14]
 800bab8:	609a      	str	r2, [r3, #8]
 800baba:	4a69      	ldr	r2, [pc, #420]	; (800bc60 <Synth_Init+0x39c>)
 800babc:	4d69      	ldr	r5, [pc, #420]	; (800bc64 <Synth_Init+0x3a0>)
 800babe:	6530      	str	r0, [r6, #80]	; 0x50
 800bac0:	f8a6 404c 	strh.w	r4, [r6, #76]	; 0x4c
 800bac4:	819c      	strh	r4, [r3, #12]
 800bac6:	801c      	strh	r4, [r3, #0]
 800bac8:	605a      	str	r2, [r3, #4]
 800baca:	f7ff fbdd 	bl	800b288 <seq_sequence_new>
 800bace:	4b66      	ldr	r3, [pc, #408]	; (800bc68 <Synth_Init+0x3a4>)
 800bad0:	4866      	ldr	r0, [pc, #408]	; (800bc6c <Synth_Init+0x3a8>)
 800bad2:	4967      	ldr	r1, [pc, #412]	; (800bc70 <Synth_Init+0x3ac>)
 800bad4:	4e67      	ldr	r6, [pc, #412]	; (800bc74 <Synth_Init+0x3b0>)
 800bad6:	f8df c234 	ldr.w	ip, [pc, #564]	; 800bd0c <Synth_Init+0x448>
 800bada:	f8c1 c004 	str.w	ip, [r1, #4]
 800bade:	f04f 527c 	mov.w	r2, #1056964608	; 0x3f000000
 800bae2:	609a      	str	r2, [r3, #8]
 800bae4:	60aa      	str	r2, [r5, #8]
 800bae6:	602a      	str	r2, [r5, #0]
 800bae8:	6082      	str	r2, [r0, #8]
 800baea:	6002      	str	r2, [r0, #0]
 800baec:	4a62      	ldr	r2, [pc, #392]	; (800bc78 <Synth_Init+0x3b4>)
 800baee:	f8df c220 	ldr.w	ip, [pc, #544]	; 800bd10 <Synth_Init+0x44c>
 800baf2:	606a      	str	r2, [r5, #4]
 800baf4:	6042      	str	r2, [r0, #4]
 800baf6:	4a61      	ldr	r2, [pc, #388]	; (800bc7c <Synth_Init+0x3b8>)
 800baf8:	6032      	str	r2, [r6, #0]
 800bafa:	f8c6 c004 	str.w	ip, [r6, #4]
 800bafe:	ed86 8a02 	vstr	s16, [r6, #8]
 800bb02:	4e5f      	ldr	r6, [pc, #380]	; (800bc80 <Synth_Init+0x3bc>)
 800bb04:	edc3 9a00 	vstr	s19, [r3]
 800bb08:	e9c3 4408 	strd	r4, r4, [r3, #32]
 800bb0c:	60df      	str	r7, [r3, #12]
 800bb0e:	ed83 8a06 	vstr	s16, [r3, #24]
 800bb12:	ed83 8a04 	vstr	s16, [r3, #16]
 800bb16:	edc3 9a01 	vstr	s19, [r3, #4]
 800bb1a:	edc6 8a00 	vstr	s17, [r6]
 800bb1e:	f500 5380 	add.w	r3, r0, #4096	; 0x1000
 800bb22:	4e58      	ldr	r6, [pc, #352]	; (800bc84 <Synth_Init+0x3c0>)
 800bb24:	600a      	str	r2, [r1, #0]
 800bb26:	608e      	str	r6, [r1, #8]
 800bb28:	f505 5280 	add.w	r2, r5, #4096	; 0x1000
 800bb2c:	2601      	movs	r6, #1
 800bb2e:	f883 65f4 	strb.w	r6, [r3, #1524]	; 0x5f4
 800bb32:	f503 63be 	add.w	r3, r3, #1520	; 0x5f0
 800bb36:	f882 65f4 	strb.w	r6, [r2, #1524]	; 0x5f4
 800bb3a:	4f53      	ldr	r7, [pc, #332]	; (800bc88 <Synth_Init+0x3c4>)
 800bb3c:	601f      	str	r7, [r3, #0]
 800bb3e:	f502 62be 	add.w	r2, r2, #1520	; 0x5f0
 800bb42:	f240 5377 	movw	r3, #1399	; 0x577
 800bb46:	60c3      	str	r3, [r0, #12]
 800bb48:	6017      	str	r7, [r2, #0]
 800bb4a:	4621      	mov	r1, r4
 800bb4c:	f44f 52af 	mov.w	r2, #5600	; 0x15e0
 800bb50:	3010      	adds	r0, #16
 800bb52:	60eb      	str	r3, [r5, #12]
 800bb54:	f002 feee 	bl	800e934 <memset>
 800bb58:	4621      	mov	r1, r4
 800bb5a:	f44f 52af 	mov.w	r2, #5600	; 0x15e0
 800bb5e:	f105 0010 	add.w	r0, r5, #16
 800bb62:	f002 fee7 	bl	800e934 <memset>
 800bb66:	4a49      	ldr	r2, [pc, #292]	; (800bc8c <Synth_Init+0x3c8>)
 800bb68:	4b49      	ldr	r3, [pc, #292]	; (800bc90 <Synth_Init+0x3cc>)
 800bb6a:	494a      	ldr	r1, [pc, #296]	; (800bc94 <Synth_Init+0x3d0>)
 800bb6c:	eddf 7a4a 	vldr	s15, [pc, #296]	; 800bc98 <Synth_Init+0x3d4>
 800bb70:	ed9f 7a4a 	vldr	s14, [pc, #296]	; 800bc9c <Synth_Init+0x3d8>
 800bb74:	6191      	str	r1, [r2, #24]
 800bb76:	6199      	str	r1, [r3, #24]
 800bb78:	4949      	ldr	r1, [pc, #292]	; (800bca0 <Synth_Init+0x3dc>)
 800bb7a:	4c4a      	ldr	r4, [pc, #296]	; (800bca4 <Synth_Init+0x3e0>)
 800bb7c:	edc1 7a00 	vstr	s15, [r1]
 800bb80:	edc1 7a01 	vstr	s15, [r1, #4]
 800bb84:	ed81 8a03 	vstr	s16, [r1, #12]
 800bb88:	ed81 8a07 	vstr	s16, [r1, #28]
 800bb8c:	ed81 8a05 	vstr	s16, [r1, #20]
 800bb90:	edc1 8a06 	vstr	s17, [r1, #24]
 800bb94:	ed81 7a02 	vstr	s14, [r1, #8]
 800bb98:	4943      	ldr	r1, [pc, #268]	; (800bca8 <Synth_Init+0x3e4>)
 800bb9a:	6091      	str	r1, [r2, #8]
 800bb9c:	6099      	str	r1, [r3, #8]
 800bb9e:	4943      	ldr	r1, [pc, #268]	; (800bcac <Synth_Init+0x3e8>)
 800bba0:	6021      	str	r1, [r4, #0]
 800bba2:	4943      	ldr	r1, [pc, #268]	; (800bcb0 <Synth_Init+0x3ec>)
 800bba4:	4c43      	ldr	r4, [pc, #268]	; (800bcb4 <Synth_Init+0x3f0>)
 800bba6:	600c      	str	r4, [r1, #0]
 800bba8:	4943      	ldr	r1, [pc, #268]	; (800bcb8 <Synth_Init+0x3f4>)
 800bbaa:	4c44      	ldr	r4, [pc, #272]	; (800bcbc <Synth_Init+0x3f8>)
 800bbac:	600c      	str	r4, [r1, #0]
 800bbae:	4944      	ldr	r1, [pc, #272]	; (800bcc0 <Synth_Init+0x3fc>)
 800bbb0:	4c44      	ldr	r4, [pc, #272]	; (800bcc4 <Synth_Init+0x400>)
 800bbb2:	600c      	str	r4, [r1, #0]
 800bbb4:	4844      	ldr	r0, [pc, #272]	; (800bcc8 <Synth_Init+0x404>)
 800bbb6:	4945      	ldr	r1, [pc, #276]	; (800bccc <Synth_Init+0x408>)
 800bbb8:	4d45      	ldr	r5, [pc, #276]	; (800bcd0 <Synth_Init+0x40c>)
 800bbba:	7016      	strb	r6, [r2, #0]
 800bbbc:	eef4 6a00 	vmov.f32	s13, #64	; 0x3e000000  0.125
 800bbc0:	60d0      	str	r0, [r2, #12]
 800bbc2:	4c44      	ldr	r4, [pc, #272]	; (800bcd4 <Synth_Init+0x410>)
 800bbc4:	ed82 8a04 	vstr	s16, [r2, #16]
 800bbc8:	ed82 8a05 	vstr	s16, [r2, #20]
 800bbcc:	ed82 8a07 	vstr	s16, [r2, #28]
 800bbd0:	edc2 6a01 	vstr	s13, [r2, #4]
 800bbd4:	4a40      	ldr	r2, [pc, #256]	; (800bcd8 <Synth_Init+0x414>)
 800bbd6:	4f41      	ldr	r7, [pc, #260]	; (800bcdc <Synth_Init+0x418>)
 800bbd8:	f8df e138 	ldr.w	lr, [pc, #312]	; 800bd14 <Synth_Init+0x450>
 800bbdc:	f8df c138 	ldr.w	ip, [pc, #312]	; 800bd18 <Synth_Init+0x454>
 800bbe0:	701e      	strb	r6, [r3, #0]
 800bbe2:	60d8      	str	r0, [r3, #12]
 800bbe4:	600c      	str	r4, [r1, #0]
 800bbe6:	483e      	ldr	r0, [pc, #248]	; (800bce0 <Synth_Init+0x41c>)
 800bbe8:	493e      	ldr	r1, [pc, #248]	; (800bce4 <Synth_Init+0x420>)
 800bbea:	ed83 8a04 	vstr	s16, [r3, #16]
 800bbee:	ed83 8a05 	vstr	s16, [r3, #20]
 800bbf2:	ed83 8a07 	vstr	s16, [r3, #28]
 800bbf6:	edc3 6a01 	vstr	s13, [r3, #4]
 800bbfa:	f04f 537a 	mov.w	r3, #1048576000	; 0x3e800000
 800bbfe:	f8cb 3000 	str.w	r3, [fp]
 800bc02:	6013      	str	r3, [r2, #0]
 800bc04:	462c      	mov	r4, r5
 800bc06:	e089      	b.n	800bd1c <Synth_Init+0x458>
 800bc08:	10000024 	.word	0x10000024
 800bc0c:	100012e0 	.word	0x100012e0
 800bc10:	2001f718 	.word	0x2001f718
 800bc14:	2001f728 	.word	0x2001f728
 800bc18:	100001c4 	.word	0x100001c4
 800bc1c:	10000000 	.word	0x10000000
 800bc20:	3c23d70a 	.word	0x3c23d70a
 800bc24:	200018f8 	.word	0x200018f8
 800bc28:	00000000 	.word	0x00000000
 800bc2c:	45ac4400 	.word	0x45ac4400
 800bc30:	2001f71c 	.word	0x2001f71c
 800bc34:	2000e418 	.word	0x2000e418
 800bc38:	30000000 	.word	0x30000000
 800bc3c:	10000198 	.word	0x10000198
 800bc40:	3a83126f 	.word	0x3a83126f
 800bc44:	3f7a9fbf 	.word	0x3f7a9fbf
 800bc48:	1000016c 	.word	0x1000016c
 800bc4c:	10000028 	.word	0x10000028
 800bc50:	46013300 	.word	0x46013300
 800bc54:	43a00000 	.word	0x43a00000
 800bc58:	1000007c 	.word	0x1000007c
 800bc5c:	00240004 	.word	0x00240004
 800bc60:	0800f448 	.word	0x0800f448
 800bc64:	100012e8 	.word	0x100012e8
 800bc68:	10000274 	.word	0x10000274
 800bc6c:	100028e0 	.word	0x100028e0
 800bc70:	10000004 	.word	0x10000004
 800bc74:	10000014 	.word	0x10000014
 800bc78:	be4ccccd 	.word	0xbe4ccccd
 800bc7c:	42480000 	.word	0x42480000
 800bc80:	2001f714 	.word	0x2001f714
 800bc84:	3fc90fdb 	.word	0x3fc90fdb
 800bc88:	43700000 	.word	0x43700000
 800bc8c:	100001f0 	.word	0x100001f0
 800bc90:	10000230 	.word	0x10000230
 800bc94:	3ecccccd 	.word	0x3ecccccd
 800bc98:	3f4ccccd 	.word	0x3f4ccccd
 800bc9c:	4412c000 	.word	0x4412c000
 800bca0:	100000ec 	.word	0x100000ec
 800bca4:	2001edc0 	.word	0x2001edc0
 800bca8:	3ed413a9 	.word	0x3ed413a9
 800bcac:	3f333333 	.word	0x3f333333
 800bcb0:	2001f724 	.word	0x2001f724
 800bcb4:	3e99999a 	.word	0x3e99999a
 800bcb8:	2001f73c 	.word	0x2001f73c
 800bcbc:	3c149b93 	.word	0x3c149b93
 800bcc0:	2001f738 	.word	0x2001f738
 800bcc4:	3d9de54c 	.word	0x3d9de54c
 800bcc8:	3f666666 	.word	0x3f666666
 800bccc:	2001f708 	.word	0x2001f708
 800bcd0:	10000094 	.word	0x10000094
 800bcd4:	376f08eb 	.word	0x376f08eb
 800bcd8:	2001edc8 	.word	0x2001edc8
 800bcdc:	1000029c 	.word	0x1000029c
 800bce0:	10000250 	.word	0x10000250
 800bce4:	100002bc 	.word	0x100002bc
 800bce8:	10000091 	.word	0x10000091
 800bcec:	10000270 	.word	0x10000270
 800bcf0:	10000090 	.word	0x10000090
 800bcf4:	10000001 	.word	0x10000001
 800bcf8:	462c4400 	.word	0x462c4400
 800bcfc:	2001edc4 	.word	0x2001edc4
 800bd00:	100000c0 	.word	0x100000c0
 800bd04:	1000010c 	.word	0x1000010c
 800bd08:	1000012c 	.word	0x1000012c
 800bd0c:	3de147ae 	.word	0x3de147ae
 800bd10:	3df5c28f 	.word	0x3df5c28f
 800bd14:	1000014c 	.word	0x1000014c
 800bd18:	10000210 	.word	0x10000210
 800bd1c:	4b67      	ldr	r3, [pc, #412]	; (800bebc <Synth_Init+0x5f8>)
 800bd1e:	edc9 7a00 	vstr	s15, [r9]
 800bd22:	4656      	mov	r6, sl
 800bd24:	edc9 7a01 	vstr	s15, [r9, #4]
 800bd28:	3408      	adds	r4, #8
 800bd2a:	ed89 7a02 	vstr	s14, [r9, #8]
 800bd2e:	3608      	adds	r6, #8
 800bd30:	ed87 8a00 	vstr	s16, [r7]
 800bd34:	ed87 8a01 	vstr	s16, [r7, #4]
 800bd38:	ed87 8a03 	vstr	s16, [r7, #12]
 800bd3c:	ed87 8a07 	vstr	s16, [r7, #28]
 800bd40:	ed87 8a05 	vstr	s16, [r7, #20]
 800bd44:	edc7 8a06 	vstr	s17, [r7, #24]
 800bd48:	60bb      	str	r3, [r7, #8]
 800bd4a:	ed89 8a03 	vstr	s16, [r9, #12]
 800bd4e:	ed89 8a07 	vstr	s16, [r9, #28]
 800bd52:	ed89 8a05 	vstr	s16, [r9, #20]
 800bd56:	edc9 8a06 	vstr	s17, [r9, #24]
 800bd5a:	edc8 7a00 	vstr	s15, [r8]
 800bd5e:	edc8 7a01 	vstr	s15, [r8, #4]
 800bd62:	ed88 7a02 	vstr	s14, [r8, #8]
 800bd66:	ed8e 7a02 	vstr	s14, [lr, #8]
 800bd6a:	ed88 8a03 	vstr	s16, [r8, #12]
 800bd6e:	ed88 8a07 	vstr	s16, [r8, #28]
 800bd72:	ed88 8a05 	vstr	s16, [r8, #20]
 800bd76:	edc8 8a06 	vstr	s17, [r8, #24]
 800bd7a:	edce 7a00 	vstr	s15, [lr]
 800bd7e:	edce 7a01 	vstr	s15, [lr, #4]
 800bd82:	ed8e 8a03 	vstr	s16, [lr, #12]
 800bd86:	ed8e 8a07 	vstr	s16, [lr, #28]
 800bd8a:	ed8e 8a05 	vstr	s16, [lr, #20]
 800bd8e:	edce 8a06 	vstr	s17, [lr, #24]
 800bd92:	ed8c 8a00 	vstr	s16, [ip]
 800bd96:	ed8c 8a01 	vstr	s16, [ip, #4]
 800bd9a:	ed8c 8a02 	vstr	s16, [ip, #8]
 800bd9e:	ed8c 8a03 	vstr	s16, [ip, #12]
 800bda2:	ed8c 8a07 	vstr	s16, [ip, #28]
 800bda6:	ed8c 8a05 	vstr	s16, [ip, #20]
 800bdaa:	edcc 8a06 	vstr	s17, [ip, #24]
 800bdae:	f105 072c 	add.w	r7, r5, #44	; 0x2c
 800bdb2:	ed80 8a00 	vstr	s16, [r0]
 800bdb6:	ed8a 8a01 	vstr	s16, [sl, #4]
 800bdba:	edc5 8a00 	vstr	s17, [r5]
 800bdbe:	ed8a 8a00 	vstr	s16, [sl]
 800bdc2:	ed80 8a01 	vstr	s16, [r0, #4]
 800bdc6:	ed80 8a02 	vstr	s16, [r0, #8]
 800bdca:	ed80 8a03 	vstr	s16, [r0, #12]
 800bdce:	ed80 8a07 	vstr	s16, [r0, #28]
 800bdd2:	ed80 8a05 	vstr	s16, [r0, #20]
 800bdd6:	edc0 8a06 	vstr	s17, [r0, #24]
 800bdda:	ed81 8a00 	vstr	s16, [r1]
 800bdde:	ed81 8a01 	vstr	s16, [r1, #4]
 800bde2:	ed81 8a02 	vstr	s16, [r1, #8]
 800bde6:	ed81 8a03 	vstr	s16, [r1, #12]
 800bdea:	ed81 8a07 	vstr	s16, [r1, #28]
 800bdee:	ed81 8a05 	vstr	s16, [r1, #20]
 800bdf2:	edc1 8a06 	vstr	s17, [r1, #24]
 800bdf6:	edc5 8a01 	vstr	s17, [r5, #4]
 800bdfa:	f002 fdf3 	bl	800e9e4 <rand>
 800bdfe:	ee07 0a90 	vmov	s15, r0
 800be02:	eef8 7ae7 	vcvt.f32.s32	s15, s15
 800be06:	eca6 8a01 	vstmia	r6!, {s16}
 800be0a:	ee67 7a89 	vmul.f32	s15, s15, s18
 800be0e:	ee67 7a8a 	vmul.f32	s15, s15, s20
 800be12:	ee77 7aa9 	vadd.f32	s15, s15, s19
 800be16:	ece4 7a01 	vstmia	r4!, {s15}
 800be1a:	ed95 7a00 	vldr	s14, [r5]
 800be1e:	ee77 7a87 	vadd.f32	s15, s15, s14
 800be22:	42a7      	cmp	r7, r4
 800be24:	edc5 7a00 	vstr	s15, [r5]
 800be28:	d1e7      	bne.n	800bdfa <Synth_Init+0x536>
 800be2a:	eef7 8a00 	vmov.f32	s17, #112	; 0x3f800000  1.0
 800be2e:	ee88 7aa7 	vdiv.f32	s14, s17, s15
 800be32:	4823      	ldr	r0, [pc, #140]	; (800bec0 <Synth_Init+0x5fc>)
 800be34:	4f23      	ldr	r7, [pc, #140]	; (800bec4 <Synth_Init+0x600>)
 800be36:	60c7      	str	r7, [r0, #12]
 800be38:	2400      	movs	r4, #0
 800be3a:	2601      	movs	r6, #1
 800be3c:	f880 6548 	strb.w	r6, [r0, #1352]	; 0x548
 800be40:	f8c0 4544 	str.w	r4, [r0, #1348]	; 0x544
 800be44:	4621      	mov	r1, r4
 800be46:	f44f 62a4 	mov.w	r2, #1312	; 0x520
 800be4a:	3024      	adds	r0, #36	; 0x24
 800be4c:	ed40 8a08 	vstr	s17, [r0, #-32]	; 0xffffffe0
 800be50:	ed85 7a00 	vstr	s14, [r5]
 800be54:	ed00 8a05 	vstr	s16, [r0, #-20]	; 0xffffffec
 800be58:	ed00 8a01 	vstr	s16, [r0, #-4]
 800be5c:	f002 fd6a 	bl	800e934 <memset>
 800be60:	4819      	ldr	r0, [pc, #100]	; (800bec8 <Synth_Init+0x604>)
 800be62:	4621      	mov	r1, r4
 800be64:	f880 6558 	strb.w	r6, [r0, #1368]	; 0x558
 800be68:	edc0 8a01 	vstr	s17, [r0, #4]
 800be6c:	60c7      	str	r7, [r0, #12]
 800be6e:	ed80 8a05 	vstr	s16, [r0, #20]
 800be72:	ed80 8a04 	vstr	s16, [r0, #16]
 800be76:	ed80 8a0b 	vstr	s16, [r0, #44]	; 0x2c
 800be7a:	f8c0 4550 	str.w	r4, [r0, #1360]	; 0x550
 800be7e:	f44f 62a4 	mov.w	r2, #1312	; 0x520
 800be82:	3030      	adds	r0, #48	; 0x30
 800be84:	f002 fd56 	bl	800e934 <memset>
 800be88:	4b10      	ldr	r3, [pc, #64]	; (800becc <Synth_Init+0x608>)
 800be8a:	edc3 8a01 	vstr	s17, [r3, #4]
 800be8e:	ed83 8a05 	vstr	s16, [r3, #20]
 800be92:	ed83 8a04 	vstr	s16, [r3, #16]
 800be96:	ed83 8a0a 	vstr	s16, [r3, #40]	; 0x28
 800be9a:	ecbd 8b06 	vpop	{d8-d10}
 800be9e:	60df      	str	r7, [r3, #12]
 800bea0:	f883 6554 	strb.w	r6, [r3, #1364]	; 0x554
 800bea4:	4621      	mov	r1, r4
 800bea6:	f103 002c 	add.w	r0, r3, #44	; 0x2c
 800beaa:	f8c3 454c 	str.w	r4, [r3, #1356]	; 0x54c
 800beae:	f44f 62a4 	mov.w	r2, #1312	; 0x520
 800beb2:	e8bd 4ff8 	ldmia.w	sp!, {r3, r4, r5, r6, r7, r8, r9, sl, fp, lr}
 800beb6:	f002 bd3d 	b.w	800e934 <memset>
 800beba:	bf00      	nop
 800bebc:	40b00000 	.word	0x40b00000
 800bec0:	10000d90 	.word	0x10000d90
 800bec4:	43dc0000 	.word	0x43dc0000
 800bec8:	10000834 	.word	0x10000834
 800becc:	100002dc 	.word	0x100002dc

0800bed0 <sequencer_newStep_action>:
sequencer_newStep_action():
 800bed0:	e92d 4ff8 	stmdb	sp!, {r3, r4, r5, r6, r7, r8, r9, sl, fp, lr}
 800bed4:	4c94      	ldr	r4, [pc, #592]	; (800c128 <sequencer_newStep_action+0x258>)
 800bed6:	7ba3      	ldrb	r3, [r4, #14]
 800bed8:	ed2d 8b04 	vpush	{d8-d9}
 800bedc:	b90b      	cbnz	r3, 800bee2 <sequencer_newStep_action+0x12>
 800bede:	7c23      	ldrb	r3, [r4, #16]
 800bee0:	b3bb      	cbz	r3, 800bf52 <sequencer_newStep_action+0x82>
 800bee2:	4e92      	ldr	r6, [pc, #584]	; (800c12c <sequencer_newStep_action+0x25c>)
 800bee4:	4f92      	ldr	r7, [pc, #584]	; (800c130 <sequencer_newStep_action+0x260>)
 800bee6:	ed9f 9a93 	vldr	s18, [pc, #588]	; 800c134 <sequencer_newStep_action+0x264>
 800beea:	eddf 8a93 	vldr	s17, [pc, #588]	; 800c138 <sequencer_newStep_action+0x268>
 800beee:	ed9f 8a93 	vldr	s16, [pc, #588]	; 800c13c <sequencer_newStep_action+0x26c>
 800bef2:	4635      	mov	r5, r6
 800bef4:	f7ff f9c8 	bl	800b288 <seq_sequence_new>
 800bef8:	f04f 0800 	mov.w	r8, #0
 800befc:	f04f 537e 	mov.w	r3, #1065353216	; 0x3f800000
 800bf00:	2200      	movs	r2, #0
 800bf02:	f8c7 8004 	str.w	r8, [r7, #4]
 800bf06:	f845 3b08 	str.w	r3, [r5], #8
 800bf0a:	f847 8b08 	str.w	r8, [r7], #8
 800bf0e:	7422      	strb	r2, [r4, #16]
 800bf10:	6073      	str	r3, [r6, #4]
 800bf12:	f106 092c 	add.w	r9, r6, #44	; 0x2c
 800bf16:	f002 fd65 	bl	800e9e4 <rand>
 800bf1a:	ee07 0a90 	vmov	s15, r0
 800bf1e:	eef8 7ae7 	vcvt.f32.s32	s15, s15
 800bf22:	f847 8b04 	str.w	r8, [r7], #4
 800bf26:	ee67 7a89 	vmul.f32	s15, s15, s18
 800bf2a:	ee67 7aa8 	vmul.f32	s15, s15, s17
 800bf2e:	ee77 7a88 	vadd.f32	s15, s15, s16
 800bf32:	ece5 7a01 	vstmia	r5!, {s15}
 800bf36:	ed96 7a00 	vldr	s14, [r6]
 800bf3a:	ee77 7a87 	vadd.f32	s15, s15, s14
 800bf3e:	454d      	cmp	r5, r9
 800bf40:	edc6 7a00 	vstr	s15, [r6]
 800bf44:	d1e7      	bne.n	800bf16 <sequencer_newStep_action+0x46>
 800bf46:	eef7 6a00 	vmov.f32	s13, #112	; 0x3f800000  1.0
 800bf4a:	ee86 7aa7 	vdiv.f32	s14, s13, s15
 800bf4e:	ed86 7a00 	vstr	s14, [r6]
 800bf52:	7c63      	ldrb	r3, [r4, #17]
 800bf54:	b1bb      	cbz	r3, 800bf86 <sequencer_newStep_action+0xb6>
 800bf56:	f002 fd45 	bl	800e9e4 <rand>
 800bf5a:	ee07 0a90 	vmov	s15, r0
 800bf5e:	ed9f 7a78 	vldr	s14, [pc, #480]	; 800c140 <sequencer_newStep_action+0x270>
 800bf62:	ed9f 0a78 	vldr	s0, [pc, #480]	; 800c144 <sequencer_newStep_action+0x274>
 800bf66:	eefa 7ae0 	vcvt.f32.s32	s15, s15, #31
 800bf6a:	ee67 7a87 	vmul.f32	s15, s15, s14
 800bf6e:	ee37 0a80 	vadd.f32	s0, s15, s0
 800bf72:	f001 fa67 	bl	800d444 <rintf>
 800bf76:	eeb5 0a40 	vcmp.f32	s0, #0.0
 800bf7a:	eef1 fa10 	vmrs	APSR_nzcv, fpscr
 800bf7e:	f04f 0200 	mov.w	r2, #0
 800bf82:	f000 81f7 	beq.w	800c374 <sequencer_newStep_action+0x4a4>
 800bf86:	4b70      	ldr	r3, [pc, #448]	; (800c148 <sequencer_newStep_action+0x278>)
 800bf88:	2200      	movs	r2, #0
 800bf8a:	6819      	ldr	r1, [r3, #0]
 800bf8c:	625a      	str	r2, [r3, #36]	; 0x24
 800bf8e:	f04f 507e 	mov.w	r0, #1065353216	; 0x3f800000
 800bf92:	6198      	str	r0, [r3, #24]
 800bf94:	61d9      	str	r1, [r3, #28]
 800bf96:	621a      	str	r2, [r3, #32]
 800bf98:	4b6c      	ldr	r3, [pc, #432]	; (800c14c <sequencer_newStep_action+0x27c>)
 800bf9a:	781b      	ldrb	r3, [r3, #0]
 800bf9c:	2b00      	cmp	r3, #0
 800bf9e:	f040 815e 	bne.w	800c25e <sequencer_newStep_action+0x38e>
 800bfa2:	f9b4 700c 	ldrsh.w	r7, [r4, #12]
 800bfa6:	bb37      	cbnz	r7, 800bff6 <sequencer_newStep_action+0x126>
 800bfa8:	4c69      	ldr	r4, [pc, #420]	; (800c150 <sequencer_newStep_action+0x280>)
 800bfaa:	f994 3000 	ldrsb.w	r3, [r4]
 800bfae:	2b01      	cmp	r3, #1
 800bfb0:	f000 80a7 	beq.w	800c102 <sequencer_newStep_action+0x232>
 800bfb4:	2b02      	cmp	r3, #2
 800bfb6:	f000 8191 	beq.w	800c2dc <sequencer_newStep_action+0x40c>
 800bfba:	4a66      	ldr	r2, [pc, #408]	; (800c154 <sequencer_newStep_action+0x284>)
 800bfbc:	4b66      	ldr	r3, [pc, #408]	; (800c158 <sequencer_newStep_action+0x288>)
 800bfbe:	f9b2 004c 	ldrsh.w	r0, [r2, #76]	; 0x4c
 800bfc2:	4966      	ldr	r1, [pc, #408]	; (800c15c <sequencer_newStep_action+0x28c>)
 800bfc4:	f932 2010 	ldrsh.w	r2, [r2, r0, lsl #1]
 800bfc8:	eb03 0382 	add.w	r3, r3, r2, lsl #2
 800bfcc:	681b      	ldr	r3, [r3, #0]
 800bfce:	600b      	str	r3, [r1, #0]
 800bfd0:	f002 fd08 	bl	800e9e4 <rand>
 800bfd4:	ee07 0a90 	vmov	s15, r0
 800bfd8:	ed9f 7a5a 	vldr	s14, [pc, #360]	; 800c144 <sequencer_newStep_action+0x274>
 800bfdc:	4b60      	ldr	r3, [pc, #384]	; (800c160 <sequencer_newStep_action+0x290>)
 800bfde:	eefa 7ae0 	vcvt.f32.s32	s15, s15, #31
 800bfe2:	ecbd 8b04 	vpop	{d8-d9}
 800bfe6:	ee67 7a87 	vmul.f32	s15, s15, s14
 800bfea:	ee77 7a87 	vadd.f32	s15, s15, s14
 800bfee:	edc3 7a00 	vstr	s15, [r3]
 800bff2:	e8bd 8ff8 	ldmia.w	sp!, {r3, r4, r5, r6, r7, r8, r9, sl, fp, pc}
 800bff6:	8963      	ldrh	r3, [r4, #10]
 800bff8:	4d5a      	ldr	r5, [pc, #360]	; (800c164 <sequencer_newStep_action+0x294>)
 800bffa:	4e5b      	ldr	r6, [pc, #364]	; (800c168 <sequencer_newStep_action+0x298>)
 800bffc:	b2bf      	uxth	r7, r7
 800bffe:	443b      	add	r3, r7
 800c000:	8163      	strh	r3, [r4, #10]
 800c002:	f105 0820 	add.w	r8, r5, #32
 800c006:	f64f 799f 	movw	r9, #65439	; 0xff9f
 800c00a:	f835 3f02 	ldrh.w	r3, [r5, #2]!
 800c00e:	443b      	add	r3, r7
 800c010:	b218      	sxth	r0, r3
 800c012:	286a      	cmp	r0, #106	; 0x6a
 800c014:	b29b      	uxth	r3, r3
 800c016:	f340 80b3 	ble.w	800c180 <sequencer_newStep_action+0x2b0>
 800c01a:	f1a3 026b 	sub.w	r2, r3, #107	; 0x6b
 800c01e:	b292      	uxth	r2, r2
 800c020:	fba6 1e02 	umull	r1, lr, r6, r2
 800c024:	ea4f 0ede 	mov.w	lr, lr, lsr #3
 800c028:	2a5f      	cmp	r2, #95	; 0x5f
 800c02a:	f10e 0e01 	add.w	lr, lr, #1
 800c02e:	d92f      	bls.n	800c090 <sequencer_newStep_action+0x1c0>
 800c030:	f1a3 0218 	sub.w	r2, r3, #24
 800c034:	2100      	movs	r1, #0
 800c036:	f362 010f 	bfi	r1, r2, #0, #16
 800c03a:	3b24      	subs	r3, #36	; 0x24
 800c03c:	f363 411f 	bfi	r1, r3, #16, #16
 800c040:	ea4f 0a9e 	mov.w	sl, lr, lsr #2
 800c044:	f04f 0c00 	mov.w	ip, #0
 800c048:	460a      	mov	r2, r1
 800c04a:	f1a2 0330 	sub.w	r3, r2, #48	; 0x30
 800c04e:	2100      	movs	r1, #0
 800c050:	f363 010f 	bfi	r1, r3, #0, #16
 800c054:	f3c2 430f 	ubfx	r3, r2, #16, #16
 800c058:	3b30      	subs	r3, #48	; 0x30
 800c05a:	f1a2 0b0c 	sub.w	fp, r2, #12
 800c05e:	f10c 0c01 	add.w	ip, ip, #1
 800c062:	f363 411f 	bfi	r1, r3, #16, #16
 800c066:	f3c2 420f 	ubfx	r2, r2, #16, #16
 800c06a:	2300      	movs	r3, #0
 800c06c:	f36b 030f 	bfi	r3, fp, #0, #16
 800c070:	3a0c      	subs	r2, #12
 800c072:	45e2      	cmp	sl, ip
 800c074:	f362 431f 	bfi	r3, r2, #16, #16
 800c078:	d1e6      	bne.n	800c048 <sequencer_newStep_action+0x178>
 800c07a:	f02e 0203 	bic.w	r2, lr, #3
 800c07e:	eba2 0182 	sub.w	r1, r2, r2, lsl #2
 800c082:	eb00 0081 	add.w	r0, r0, r1, lsl #2
 800c086:	4572      	cmp	r2, lr
 800c088:	ea4f 4323 	mov.w	r3, r3, asr #16
 800c08c:	b200      	sxth	r0, r0
 800c08e:	d02d      	beq.n	800c0ec <sequencer_newStep_action+0x21c>
 800c090:	b280      	uxth	r0, r0
 800c092:	f1a0 030c 	sub.w	r3, r0, #12
 800c096:	b29a      	uxth	r2, r3
 800c098:	2a6a      	cmp	r2, #106	; 0x6a
 800c09a:	b21b      	sxth	r3, r3
 800c09c:	d926      	bls.n	800c0ec <sequencer_newStep_action+0x21c>
 800c09e:	f1a0 0318 	sub.w	r3, r0, #24
 800c0a2:	b29a      	uxth	r2, r3
 800c0a4:	2a6a      	cmp	r2, #106	; 0x6a
 800c0a6:	b21b      	sxth	r3, r3
 800c0a8:	d920      	bls.n	800c0ec <sequencer_newStep_action+0x21c>
 800c0aa:	f1a0 0324 	sub.w	r3, r0, #36	; 0x24
 800c0ae:	b29a      	uxth	r2, r3
 800c0b0:	2a6a      	cmp	r2, #106	; 0x6a
 800c0b2:	b21b      	sxth	r3, r3
 800c0b4:	d91a      	bls.n	800c0ec <sequencer_newStep_action+0x21c>
 800c0b6:	f1a0 0330 	sub.w	r3, r0, #48	; 0x30
 800c0ba:	b29a      	uxth	r2, r3
 800c0bc:	2a6a      	cmp	r2, #106	; 0x6a
 800c0be:	b21b      	sxth	r3, r3
 800c0c0:	d914      	bls.n	800c0ec <sequencer_newStep_action+0x21c>
 800c0c2:	f1a0 033c 	sub.w	r3, r0, #60	; 0x3c
 800c0c6:	b29a      	uxth	r2, r3
 800c0c8:	2a6a      	cmp	r2, #106	; 0x6a
 800c0ca:	b21b      	sxth	r3, r3
 800c0cc:	d90e      	bls.n	800c0ec <sequencer_newStep_action+0x21c>
 800c0ce:	f1a0 0348 	sub.w	r3, r0, #72	; 0x48
 800c0d2:	b29a      	uxth	r2, r3
 800c0d4:	2a6a      	cmp	r2, #106	; 0x6a
 800c0d6:	b21b      	sxth	r3, r3
 800c0d8:	d908      	bls.n	800c0ec <sequencer_newStep_action+0x21c>
 800c0da:	f1a0 0354 	sub.w	r3, r0, #84	; 0x54
 800c0de:	b29a      	uxth	r2, r3
 800c0e0:	2a6a      	cmp	r2, #106	; 0x6a
 800c0e2:	b21b      	sxth	r3, r3
 800c0e4:	d902      	bls.n	800c0ec <sequencer_newStep_action+0x21c>
 800c0e6:	f1a0 0360 	sub.w	r3, r0, #96	; 0x60
 800c0ea:	b21b      	sxth	r3, r3
 800c0ec:	4545      	cmp	r5, r8
 800c0ee:	802b      	strh	r3, [r5, #0]
 800c0f0:	d18b      	bne.n	800c00a <sequencer_newStep_action+0x13a>
 800c0f2:	2300      	movs	r3, #0
 800c0f4:	81a3      	strh	r3, [r4, #12]
 800c0f6:	4c16      	ldr	r4, [pc, #88]	; (800c150 <sequencer_newStep_action+0x280>)
 800c0f8:	f994 3000 	ldrsb.w	r3, [r4]
 800c0fc:	2b01      	cmp	r3, #1
 800c0fe:	f47f af59 	bne.w	800bfb4 <sequencer_newStep_action+0xe4>
 800c102:	f002 fc6f 	bl	800e9e4 <rand>
 800c106:	4242      	negs	r2, r0
 800c108:	f002 0203 	and.w	r2, r2, #3
 800c10c:	f000 0303 	and.w	r3, r0, #3
 800c110:	bf58      	it	pl
 800c112:	4253      	negpl	r3, r2
 800c114:	2b03      	cmp	r3, #3
 800c116:	f200 8187 	bhi.w	800c428 <sequencer_newStep_action+0x558>
 800c11a:	e8df f013 	tbh	[pc, r3, lsl #1]
 800c11e:	0137      	.short	0x0137
 800c120:	0177013d 	.word	0x0177013d
 800c124:	017d      	.short	0x017d
 800c126:	bf00      	nop
 800c128:	1000007c 	.word	0x1000007c
 800c12c:	10000094 	.word	0x10000094
 800c130:	100000c0 	.word	0x100000c0
 800c134:	30000000 	.word	0x30000000
 800c138:	3f7a9fbf 	.word	0x3f7a9fbf
 800c13c:	3a83126f 	.word	0x3a83126f
 800c140:	3f19999a 	.word	0x3f19999a
 800c144:	3ecccccd 	.word	0x3ecccccd
 800c148:	10000274 	.word	0x10000274
 800c14c:	10000270 	.word	0x10000270
 800c150:	10000090 	.word	0x10000090
 800c154:	10000028 	.word	0x10000028
 800c158:	0801db60 	.word	0x0801db60
 800c15c:	100012dc 	.word	0x100012dc
 800c160:	100012e0 	.word	0x100012e0
 800c164:	10000026 	.word	0x10000026
 800c168:	aaaaaaab 	.word	0xaaaaaaab
 800c16c:	00000000 	.word	0x00000000
 800c170:	41055555 	.word	0x41055555
 800c174:	3c5ee95c 	.word	0x3c5ee95c
 800c178:	3f733333 	.word	0x3f733333
 800c17c:	40490fdb 	.word	0x40490fdb
 800c180:	2800      	cmp	r0, #0
 800c182:	f280 814f 	bge.w	800c424 <sequencer_newStep_action+0x554>
 800c186:	ea6f 0e03 	mvn.w	lr, r3
 800c18a:	fa1f fe8e 	uxth.w	lr, lr
 800c18e:	fba6 2e0e 	umull	r2, lr, r6, lr
 800c192:	ea4f 0ede 	mov.w	lr, lr, lsr #3
 800c196:	454b      	cmp	r3, r9
 800c198:	f10e 0e01 	add.w	lr, lr, #1
 800c19c:	d830      	bhi.n	800c200 <sequencer_newStep_action+0x330>
 800c19e:	f103 0218 	add.w	r2, r3, #24
 800c1a2:	2100      	movs	r1, #0
 800c1a4:	f362 010f 	bfi	r1, r2, #0, #16
 800c1a8:	3324      	adds	r3, #36	; 0x24
 800c1aa:	f363 411f 	bfi	r1, r3, #16, #16
 800c1ae:	ea4f 0a9e 	mov.w	sl, lr, lsr #2
 800c1b2:	f04f 0c00 	mov.w	ip, #0
 800c1b6:	460a      	mov	r2, r1
 800c1b8:	f102 0330 	add.w	r3, r2, #48	; 0x30
 800c1bc:	2100      	movs	r1, #0
 800c1be:	f363 010f 	bfi	r1, r3, #0, #16
 800c1c2:	f3c2 430f 	ubfx	r3, r2, #16, #16
 800c1c6:	3330      	adds	r3, #48	; 0x30
 800c1c8:	f102 0b0c 	add.w	fp, r2, #12
 800c1cc:	f10c 0c01 	add.w	ip, ip, #1
 800c1d0:	f363 411f 	bfi	r1, r3, #16, #16
 800c1d4:	f3c2 420f 	ubfx	r2, r2, #16, #16
 800c1d8:	2300      	movs	r3, #0
 800c1da:	f36b 030f 	bfi	r3, fp, #0, #16
 800c1de:	320c      	adds	r2, #12
 800c1e0:	45e2      	cmp	sl, ip
 800c1e2:	f362 431f 	bfi	r3, r2, #16, #16
 800c1e6:	d1e6      	bne.n	800c1b6 <sequencer_newStep_action+0x2e6>
 800c1e8:	f02e 0203 	bic.w	r2, lr, #3
 800c1ec:	eb02 0142 	add.w	r1, r2, r2, lsl #1
 800c1f0:	eb00 0081 	add.w	r0, r0, r1, lsl #2
 800c1f4:	4572      	cmp	r2, lr
 800c1f6:	ea4f 4323 	mov.w	r3, r3, asr #16
 800c1fa:	b200      	sxth	r0, r0
 800c1fc:	f43f af76 	beq.w	800c0ec <sequencer_newStep_action+0x21c>
 800c200:	b280      	uxth	r0, r0
 800c202:	f100 030c 	add.w	r3, r0, #12
 800c206:	b21b      	sxth	r3, r3
 800c208:	2b00      	cmp	r3, #0
 800c20a:	f6bf af6f 	bge.w	800c0ec <sequencer_newStep_action+0x21c>
 800c20e:	f100 0318 	add.w	r3, r0, #24
 800c212:	b21b      	sxth	r3, r3
 800c214:	2b00      	cmp	r3, #0
 800c216:	f6bf af69 	bge.w	800c0ec <sequencer_newStep_action+0x21c>
 800c21a:	f100 0324 	add.w	r3, r0, #36	; 0x24
 800c21e:	b21b      	sxth	r3, r3
 800c220:	2b00      	cmp	r3, #0
 800c222:	f6bf af63 	bge.w	800c0ec <sequencer_newStep_action+0x21c>
 800c226:	f100 0330 	add.w	r3, r0, #48	; 0x30
 800c22a:	b21b      	sxth	r3, r3
 800c22c:	2b00      	cmp	r3, #0
 800c22e:	f6bf af5d 	bge.w	800c0ec <sequencer_newStep_action+0x21c>
 800c232:	f100 033c 	add.w	r3, r0, #60	; 0x3c
 800c236:	b21b      	sxth	r3, r3
 800c238:	2b00      	cmp	r3, #0
 800c23a:	f6bf af57 	bge.w	800c0ec <sequencer_newStep_action+0x21c>
 800c23e:	f100 0348 	add.w	r3, r0, #72	; 0x48
 800c242:	b21b      	sxth	r3, r3
 800c244:	2b00      	cmp	r3, #0
 800c246:	f6bf af51 	bge.w	800c0ec <sequencer_newStep_action+0x21c>
 800c24a:	f100 0354 	add.w	r3, r0, #84	; 0x54
 800c24e:	b21b      	sxth	r3, r3
 800c250:	2b00      	cmp	r3, #0
 800c252:	f6bf af4b 	bge.w	800c0ec <sequencer_newStep_action+0x21c>
 800c256:	f100 0360 	add.w	r3, r0, #96	; 0x60
 800c25a:	b21b      	sxth	r3, r3
 800c25c:	e746      	b.n	800c0ec <sequencer_newStep_action+0x21c>
 800c25e:	f002 fbc1 	bl	800e9e4 <rand>
 800c262:	ee07 0a90 	vmov	s15, r0
 800c266:	ed5f 0a3f 	vldr	s1, [pc, #-252]	; 800c16c <sequencer_newStep_action+0x29c>
 800c26a:	ed1f 0a3f 	vldr	s0, [pc, #-252]	; 800c170 <sequencer_newStep_action+0x2a0>
 800c26e:	eefa 7ae0 	vcvt.f32.s32	s15, s15, #31
 800c272:	ee77 0aa0 	vadd.f32	s1, s15, s1
 800c276:	f001 f98d 	bl	800d594 <powf>
 800c27a:	ed1f 7a42 	vldr	s14, [pc, #-264]	; 800c174 <sequencer_newStep_action+0x2a4>
 800c27e:	ed5f 7a42 	vldr	s15, [pc, #-264]	; 800c178 <sequencer_newStep_action+0x2a8>
 800c282:	ee20 0a07 	vmul.f32	s0, s0, s14
 800c286:	eeb4 0ae7 	vcmpe.f32	s0, s15
 800c28a:	eef1 fa10 	vmrs	APSR_nzcv, fpscr
 800c28e:	dc6c      	bgt.n	800c36a <sequencer_newStep_action+0x49a>
 800c290:	eef6 7a00 	vmov.f32	s15, #96	; 0x3f000000  0.5
 800c294:	ee60 7a27 	vmul.f32	s15, s0, s15
 800c298:	ed1f 7a48 	vldr	s14, [pc, #-288]	; 800c17c <sequencer_newStep_action+0x2ac>
 800c29c:	ee27 7a87 	vmul.f32	s14, s15, s14
 800c2a0:	eef1 5a04 	vmov.f32	s11, #20	; 0x40a00000  5.0
 800c2a4:	ee77 6a07 	vadd.f32	s13, s14, s14
 800c2a8:	ee27 6a07 	vmul.f32	s12, s14, s14
 800c2ac:	ee66 6a87 	vmul.f32	s13, s13, s14
 800c2b0:	eeba 5a0e 	vmov.f32	s10, #174	; 0xc1700000 -15.0
 800c2b4:	ee76 6ae5 	vsub.f32	s13, s13, s11
 800c2b8:	ee26 6a07 	vmul.f32	s12, s12, s14
 800c2bc:	ee27 7a05 	vmul.f32	s14, s14, s10
 800c2c0:	eef0 5a08 	vmov.f32	s11, #8	; 0x40400000  3.0
 800c2c4:	ee36 6a07 	vadd.f32	s12, s12, s14
 800c2c8:	ee26 7aa5 	vmul.f32	s14, s13, s11
 800c2cc:	eec6 6a07 	vdiv.f32	s13, s12, s14
 800c2d0:	4b57      	ldr	r3, [pc, #348]	; (800c430 <sequencer_newStep_action+0x560>)
 800c2d2:	edc3 7a01 	vstr	s15, [r3, #4]
 800c2d6:	edc3 6a02 	vstr	s13, [r3, #8]
 800c2da:	e662      	b.n	800bfa2 <sequencer_newStep_action+0xd2>
 800c2dc:	f002 fb82 	bl	800e9e4 <rand>
 800c2e0:	4242      	negs	r2, r0
 800c2e2:	f002 020f 	and.w	r2, r2, #15
 800c2e6:	f000 030f 	and.w	r3, r0, #15
 800c2ea:	bf58      	it	pl
 800c2ec:	4253      	negpl	r3, r2
 800c2ee:	b2db      	uxtb	r3, r3
 800c2f0:	4a50      	ldr	r2, [pc, #320]	; (800c434 <sequencer_newStep_action+0x564>)
 800c2f2:	f1a3 010a 	sub.w	r1, r3, #10
 800c2f6:	2901      	cmp	r1, #1
 800c2f8:	7013      	strb	r3, [r2, #0]
 800c2fa:	d944      	bls.n	800c386 <sequencer_newStep_action+0x4b6>
 800c2fc:	2b04      	cmp	r3, #4
 800c2fe:	f47f ae5c 	bne.w	800bfba <sequencer_newStep_action+0xea>
 800c302:	4e4d      	ldr	r6, [pc, #308]	; (800c438 <sequencer_newStep_action+0x568>)
 800c304:	4a4d      	ldr	r2, [pc, #308]	; (800c43c <sequencer_newStep_action+0x56c>)
 800c306:	ed9f 9a4e 	vldr	s18, [pc, #312]	; 800c440 <sequencer_newStep_action+0x570>
 800c30a:	eddf 8a4e 	vldr	s17, [pc, #312]	; 800c444 <sequencer_newStep_action+0x574>
 800c30e:	ed9f 8a4e 	vldr	s16, [pc, #312]	; 800c448 <sequencer_newStep_action+0x578>
 800c312:	4634      	mov	r4, r6
 800c314:	4615      	mov	r5, r2
 800c316:	2700      	movs	r7, #0
 800c318:	f04f 537e 	mov.w	r3, #1065353216	; 0x3f800000
 800c31c:	f844 3b08 	str.w	r3, [r4], #8
 800c320:	f845 7b08 	str.w	r7, [r5], #8
 800c324:	6057      	str	r7, [r2, #4]
 800c326:	6073      	str	r3, [r6, #4]
 800c328:	f106 082c 	add.w	r8, r6, #44	; 0x2c
 800c32c:	f002 fb5a 	bl	800e9e4 <rand>
 800c330:	ee07 0a90 	vmov	s15, r0
 800c334:	eef8 7ae7 	vcvt.f32.s32	s15, s15
 800c338:	f845 7b04 	str.w	r7, [r5], #4
 800c33c:	ee67 7a89 	vmul.f32	s15, s15, s18
 800c340:	ee67 7aa8 	vmul.f32	s15, s15, s17
 800c344:	ee77 7a88 	vadd.f32	s15, s15, s16
 800c348:	ece4 7a01 	vstmia	r4!, {s15}
 800c34c:	ed96 7a00 	vldr	s14, [r6]
 800c350:	ee77 7a87 	vadd.f32	s15, s15, s14
 800c354:	4544      	cmp	r4, r8
 800c356:	edc6 7a00 	vstr	s15, [r6]
 800c35a:	d1e7      	bne.n	800c32c <sequencer_newStep_action+0x45c>
 800c35c:	eef7 6a00 	vmov.f32	s13, #112	; 0x3f800000  1.0
 800c360:	ee86 7aa7 	vdiv.f32	s14, s13, s15
 800c364:	ed86 7a00 	vstr	s14, [r6]
 800c368:	e627      	b.n	800bfba <sequencer_newStep_action+0xea>
 800c36a:	eddf 6a38 	vldr	s13, [pc, #224]	; 800c44c <sequencer_newStep_action+0x57c>
 800c36e:	eddf 7a38 	vldr	s15, [pc, #224]	; 800c450 <sequencer_newStep_action+0x580>
 800c372:	e7ad      	b.n	800c2d0 <sequencer_newStep_action+0x400>
 800c374:	4b37      	ldr	r3, [pc, #220]	; (800c454 <sequencer_newStep_action+0x584>)
 800c376:	2000      	movs	r0, #0
 800c378:	68d9      	ldr	r1, [r3, #12]
 800c37a:	619a      	str	r2, [r3, #24]
 800c37c:	2203      	movs	r2, #3
 800c37e:	6258      	str	r0, [r3, #36]	; 0x24
 800c380:	61d9      	str	r1, [r3, #28]
 800c382:	621a      	str	r2, [r3, #32]
 800c384:	e608      	b.n	800bf98 <sequencer_newStep_action+0xc8>
 800c386:	230c      	movs	r3, #12
 800c388:	7013      	strb	r3, [r2, #0]
 800c38a:	e616      	b.n	800bfba <sequencer_newStep_action+0xea>
 800c38c:	4a29      	ldr	r2, [pc, #164]	; (800c434 <sequencer_newStep_action+0x564>)
 800c38e:	f994 3000 	ldrsb.w	r3, [r4]
 800c392:	2109      	movs	r1, #9
 800c394:	7011      	strb	r1, [r2, #0]
 800c396:	e60d      	b.n	800bfb4 <sequencer_newStep_action+0xe4>
 800c398:	4e27      	ldr	r6, [pc, #156]	; (800c438 <sequencer_newStep_action+0x568>)
 800c39a:	4f28      	ldr	r7, [pc, #160]	; (800c43c <sequencer_newStep_action+0x56c>)
 800c39c:	ed9f 9a28 	vldr	s18, [pc, #160]	; 800c440 <sequencer_newStep_action+0x570>
 800c3a0:	eddf 8a28 	vldr	s17, [pc, #160]	; 800c444 <sequencer_newStep_action+0x574>
 800c3a4:	ed9f 8a28 	vldr	s16, [pc, #160]	; 800c448 <sequencer_newStep_action+0x578>
 800c3a8:	4635      	mov	r5, r6
 800c3aa:	f04f 0800 	mov.w	r8, #0
 800c3ae:	f04f 537e 	mov.w	r3, #1065353216	; 0x3f800000
 800c3b2:	f8c7 8004 	str.w	r8, [r7, #4]
 800c3b6:	f845 3b08 	str.w	r3, [r5], #8
 800c3ba:	f847 8b08 	str.w	r8, [r7], #8
 800c3be:	6073      	str	r3, [r6, #4]
 800c3c0:	f106 092c 	add.w	r9, r6, #44	; 0x2c
 800c3c4:	f002 fb0e 	bl	800e9e4 <rand>
 800c3c8:	ee07 0a90 	vmov	s15, r0
 800c3cc:	eef8 7ae7 	vcvt.f32.s32	s15, s15
 800c3d0:	f847 8b04 	str.w	r8, [r7], #4
 800c3d4:	ee67 7a89 	vmul.f32	s15, s15, s18
 800c3d8:	ee67 7aa8 	vmul.f32	s15, s15, s17
 800c3dc:	ee77 7a88 	vadd.f32	s15, s15, s16
 800c3e0:	ece5 7a01 	vstmia	r5!, {s15}
 800c3e4:	ed96 7a00 	vldr	s14, [r6]
 800c3e8:	ee77 7a87 	vadd.f32	s15, s15, s14
 800c3ec:	454d      	cmp	r5, r9
 800c3ee:	edc6 7a00 	vstr	s15, [r6]
 800c3f2:	d1e7      	bne.n	800c3c4 <sequencer_newStep_action+0x4f4>
 800c3f4:	eef7 6a00 	vmov.f32	s13, #112	; 0x3f800000  1.0
 800c3f8:	ee86 7aa7 	vdiv.f32	s14, s13, s15
 800c3fc:	4a0d      	ldr	r2, [pc, #52]	; (800c434 <sequencer_newStep_action+0x564>)
 800c3fe:	f994 3000 	ldrsb.w	r3, [r4]
 800c402:	2104      	movs	r1, #4
 800c404:	7011      	strb	r1, [r2, #0]
 800c406:	ed86 7a00 	vstr	s14, [r6]
 800c40a:	e5d3      	b.n	800bfb4 <sequencer_newStep_action+0xe4>
 800c40c:	4a09      	ldr	r2, [pc, #36]	; (800c434 <sequencer_newStep_action+0x564>)
 800c40e:	f994 3000 	ldrsb.w	r3, [r4]
 800c412:	210b      	movs	r1, #11
 800c414:	7011      	strb	r1, [r2, #0]
 800c416:	e5cd      	b.n	800bfb4 <sequencer_newStep_action+0xe4>
 800c418:	4a06      	ldr	r2, [pc, #24]	; (800c434 <sequencer_newStep_action+0x564>)
 800c41a:	f994 3000 	ldrsb.w	r3, [r4]
 800c41e:	210c      	movs	r1, #12
 800c420:	7011      	strb	r1, [r2, #0]
 800c422:	e5c7      	b.n	800bfb4 <sequencer_newStep_action+0xe4>
 800c424:	4603      	mov	r3, r0
 800c426:	e661      	b.n	800c0ec <sequencer_newStep_action+0x21c>
 800c428:	f994 3000 	ldrsb.w	r3, [r4]
 800c42c:	e5c2      	b.n	800bfb4 <sequencer_newStep_action+0xe4>
 800c42e:	bf00      	nop
 800c430:	100001f0 	.word	0x100001f0
 800c434:	10000091 	.word	0x10000091
 800c438:	10000094 	.word	0x10000094
 800c43c:	100000c0 	.word	0x100000c0
 800c440:	30000000 	.word	0x30000000
 800c444:	3f7a9fbf 	.word	0x3f7a9fbf
 800c448:	3a83126f 	.word	0x3a83126f
 800c44c:	413a1203 	.word	0x413a1203
 800c450:	3ef33333 	.word	0x3ef33333
 800c454:	10000274 	.word	0x10000274

0800c458 <MemManage_Handler>:
MemManage_Handler():
 800c458:	e7fe      	b.n	800c458 <MemManage_Handler>
 800c45a:	bf00      	nop

0800c45c <BusFault_Handler>:
BusFault_Handler():
 800c45c:	e7fe      	b.n	800c45c <BusFault_Handler>
 800c45e:	bf00      	nop

0800c460 <UsageFault_Handler>:
UsageFault_Handler():
 800c460:	e7fe      	b.n	800c460 <UsageFault_Handler>
 800c462:	bf00      	nop

0800c464 <SVC_Handler>:
SVC_Handler():
 800c464:	4770      	bx	lr
 800c466:	bf00      	nop

0800c468 <DebugMon_Handler>:
DebugMon_Handler():
 800c468:	4770      	bx	lr
 800c46a:	bf00      	nop

0800c46c <PendSV_Handler>:
PendSV_Handler():
 800c46c:	4770      	bx	lr
 800c46e:	bf00      	nop

0800c470 <SysTick_Handler>:
SysTick_Handler():
 800c470:	4924      	ldr	r1, [pc, #144]	; (800c504 <SysTick_Handler+0x94>)
 800c472:	4825      	ldr	r0, [pc, #148]	; (800c508 <SysTick_Handler+0x98>)
 800c474:	680b      	ldr	r3, [r1, #0]
 800c476:	6802      	ldr	r2, [r0, #0]
 800c478:	3301      	adds	r3, #1
 800c47a:	600b      	str	r3, [r1, #0]
 800c47c:	b10a      	cbz	r2, 800c482 <SysTick_Handler+0x12>
 800c47e:	3a01      	subs	r2, #1
 800c480:	6002      	str	r2, [r0, #0]
 800c482:	4a22      	ldr	r2, [pc, #136]	; (800c50c <SysTick_Handler+0x9c>)
 800c484:	6813      	ldr	r3, [r2, #0]
 800c486:	b10b      	cbz	r3, 800c48c <SysTick_Handler+0x1c>
 800c488:	3b01      	subs	r3, #1
 800c48a:	6013      	str	r3, [r2, #0]
 800c48c:	4a20      	ldr	r2, [pc, #128]	; (800c510 <SysTick_Handler+0xa0>)
 800c48e:	68d3      	ldr	r3, [r2, #12]
 800c490:	3b01      	subs	r3, #1
 800c492:	60d3      	str	r3, [r2, #12]
 800c494:	b11b      	cbz	r3, 800c49e <SysTick_Handler+0x2e>
 800c496:	4b1f      	ldr	r3, [pc, #124]	; (800c514 <SysTick_Handler+0xa4>)
 800c498:	781b      	ldrb	r3, [r3, #0]
 800c49a:	b943      	cbnz	r3, 800c4ae <SysTick_Handler+0x3e>
 800c49c:	4770      	bx	lr
 800c49e:	4b1e      	ldr	r3, [pc, #120]	; (800c518 <SysTick_Handler+0xa8>)
 800c4a0:	f44f 4200 	mov.w	r2, #32768	; 0x8000
 800c4a4:	835a      	strh	r2, [r3, #26]
 800c4a6:	4b1b      	ldr	r3, [pc, #108]	; (800c514 <SysTick_Handler+0xa4>)
 800c4a8:	781b      	ldrb	r3, [r3, #0]
 800c4aa:	2b00      	cmp	r3, #0
 800c4ac:	d0f6      	beq.n	800c49c <SysTick_Handler+0x2c>
 800c4ae:	4b1b      	ldr	r3, [pc, #108]	; (800c51c <SysTick_Handler+0xac>)
 800c4b0:	481b      	ldr	r0, [pc, #108]	; (800c520 <SysTick_Handler+0xb0>)
 800c4b2:	691a      	ldr	r2, [r3, #16]
 800c4b4:	7801      	ldrb	r1, [r0, #0]
 800c4b6:	f002 0c01 	and.w	ip, r2, #1
 800c4ba:	4561      	cmp	r1, ip
 800c4bc:	4662      	mov	r2, ip
 800c4be:	4919      	ldr	r1, [pc, #100]	; (800c524 <SysTick_Handler+0xb4>)
 800c4c0:	d016      	beq.n	800c4f0 <SysTick_Handler+0x80>
 800c4c2:	780b      	ldrb	r3, [r1, #0]
 800c4c4:	3b01      	subs	r3, #1
 800c4c6:	b2db      	uxtb	r3, r3
 800c4c8:	700b      	strb	r3, [r1, #0]
 800c4ca:	2b00      	cmp	r3, #0
 800c4cc:	d1e6      	bne.n	800c49c <SysTick_Handler+0x2c>
 800c4ce:	f880 c000 	strb.w	ip, [r0]
 800c4d2:	b16a      	cbz	r2, 800c4f0 <SysTick_Handler+0x80>
 800c4d4:	4a14      	ldr	r2, [pc, #80]	; (800c528 <SysTick_Handler+0xb8>)
 800c4d6:	7810      	ldrb	r0, [r2, #0]
 800c4d8:	f04f 0c05 	mov.w	ip, #5
 800c4dc:	f881 c000 	strb.w	ip, [r1]
 800c4e0:	b948      	cbnz	r0, 800c4f6 <SysTick_Handler+0x86>
 800c4e2:	4b0d      	ldr	r3, [pc, #52]	; (800c518 <SysTick_Handler+0xa8>)
 800c4e4:	2001      	movs	r0, #1
 800c4e6:	f44f 4180 	mov.w	r1, #16384	; 0x4000
 800c4ea:	7010      	strb	r0, [r2, #0]
 800c4ec:	8319      	strh	r1, [r3, #24]
 800c4ee:	4770      	bx	lr
 800c4f0:	2305      	movs	r3, #5
 800c4f2:	700b      	strb	r3, [r1, #0]
 800c4f4:	4770      	bx	lr
 800c4f6:	4908      	ldr	r1, [pc, #32]	; (800c518 <SysTick_Handler+0xa8>)
 800c4f8:	7013      	strb	r3, [r2, #0]
 800c4fa:	f44f 4080 	mov.w	r0, #16384	; 0x4000
 800c4fe:	8348      	strh	r0, [r1, #26]
 800c500:	e7cc      	b.n	800c49c <SysTick_Handler+0x2c>
 800c502:	bf00      	nop
 800c504:	2001f720 	.word	0x2001f720
 800c508:	2001f730 	.word	0x2001f730
 800c50c:	2001f734 	.word	0x2001f734
 800c510:	200008fc 	.word	0x200008fc
 800c514:	20000054 	.word	0x20000054
 800c518:	40020c00 	.word	0x40020c00
 800c51c:	40020000 	.word	0x40020000
 800c520:	2001f72c 	.word	0x2001f72c
 800c524:	20000060 	.word	0x20000060
 800c528:	2001edcc 	.word	0x2001edcc

0800c52c <EXTI0_IRQHandler>:
EXTI0_IRQHandler():
 800c52c:	4b03      	ldr	r3, [pc, #12]	; (800c53c <EXTI0_IRQHandler+0x10>)
 800c52e:	695a      	ldr	r2, [r3, #20]
 800c530:	07d2      	lsls	r2, r2, #31
 800c532:	bf44      	itt	mi
 800c534:	2201      	movmi	r2, #1
 800c536:	615a      	strmi	r2, [r3, #20]
 800c538:	4770      	bx	lr
 800c53a:	bf00      	nop
 800c53c:	40013c00 	.word	0x40013c00

0800c540 <EXTI1_IRQHandler>:
EXTI1_IRQHandler():
 800c540:	4b03      	ldr	r3, [pc, #12]	; (800c550 <EXTI1_IRQHandler+0x10>)
 800c542:	695a      	ldr	r2, [r3, #20]
 800c544:	0792      	lsls	r2, r2, #30
 800c546:	bf44      	itt	mi
 800c548:	2202      	movmi	r2, #2
 800c54a:	615a      	strmi	r2, [r3, #20]
 800c54c:	4770      	bx	lr
 800c54e:	bf00      	nop
 800c550:	40013c00 	.word	0x40013c00

0800c554 <DMA1_Stream7_IRQHandler>:
DMA1_Stream7_IRQHandler():
 800c554:	4b01      	ldr	r3, [pc, #4]	; (800c55c <DMA1_Stream7_IRQHandler+0x8>)
 800c556:	6b58      	ldr	r0, [r3, #52]	; 0x34
 800c558:	f7f8 be28 	b.w	80051ac <HAL_DMA_IRQHandler>
 800c55c:	2001edd0 	.word	0x2001edd0

0800c560 <DMA1_Stream3_IRQHandler>:
DMA1_Stream3_IRQHandler():
 800c560:	2000      	movs	r0, #0
 800c562:	f7f8 be23 	b.w	80051ac <HAL_DMA_IRQHandler>
 800c566:	bf00      	nop

0800c568 <TIM4_IRQHandler>:
TIM4_IRQHandler():
 800c568:	4770      	bx	lr
 800c56a:	bf00      	nop

0800c56c <SystemInit>:
SystemInit():
 800c56c:	4910      	ldr	r1, [pc, #64]	; (800c5b0 <SystemInit+0x44>)
 800c56e:	4b11      	ldr	r3, [pc, #68]	; (800c5b4 <SystemInit+0x48>)
 800c570:	f8d1 2088 	ldr.w	r2, [r1, #136]	; 0x88
 800c574:	f442 0270 	orr.w	r2, r2, #15728640	; 0xf00000
 800c578:	b410      	push	{r4}
 800c57a:	f8c1 2088 	str.w	r2, [r1, #136]	; 0x88
 800c57e:	681a      	ldr	r2, [r3, #0]
 800c580:	4c0d      	ldr	r4, [pc, #52]	; (800c5b8 <SystemInit+0x4c>)
 800c582:	2000      	movs	r0, #0
 800c584:	f042 0201 	orr.w	r2, r2, #1
 800c588:	601a      	str	r2, [r3, #0]
 800c58a:	6098      	str	r0, [r3, #8]
 800c58c:	681a      	ldr	r2, [r3, #0]
 800c58e:	f022 7284 	bic.w	r2, r2, #17301504	; 0x1080000
 800c592:	f422 3280 	bic.w	r2, r2, #65536	; 0x10000
 800c596:	601a      	str	r2, [r3, #0]
 800c598:	605c      	str	r4, [r3, #4]
 800c59a:	681a      	ldr	r2, [r3, #0]
 800c59c:	f04f 6400 	mov.w	r4, #134217728	; 0x8000000
 800c5a0:	f422 2280 	bic.w	r2, r2, #262144	; 0x40000
 800c5a4:	601a      	str	r2, [r3, #0]
 800c5a6:	60d8      	str	r0, [r3, #12]
 800c5a8:	608c      	str	r4, [r1, #8]
 800c5aa:	f85d 4b04 	ldr.w	r4, [sp], #4
 800c5ae:	4770      	bx	lr
 800c5b0:	e000ed00 	.word	0xe000ed00
 800c5b4:	40023800 	.word	0x40023800
 800c5b8:	24003010 	.word	0x24003010

0800c5bc <HAL_I2C_Mem_Write.part.0.constprop.0>:
HAL_I2C_Mem_Write.part.0.constprop.0():
 800c5bc:	b470      	push	{r4, r5, r6}
 800c5be:	4e24      	ldr	r6, [pc, #144]	; (800c650 <HAL_I2C_Mem_Write.part.0.constprop.0+0x94>)
 800c5c0:	4d24      	ldr	r5, [pc, #144]	; (800c654 <HAL_I2C_Mem_Write.part.0.constprop.0+0x98>)
 800c5c2:	6834      	ldr	r4, [r6, #0]
 800c5c4:	682a      	ldr	r2, [r5, #0]
 800c5c6:	1c4b      	adds	r3, r1, #1
 800c5c8:	d11d      	bne.n	800c606 <HAL_I2C_Mem_Write.part.0.constprop.0+0x4a>
 800c5ca:	6953      	ldr	r3, [r2, #20]
 800c5cc:	061c      	lsls	r4, r3, #24
 800c5ce:	d5fc      	bpl.n	800c5ca <HAL_I2C_Mem_Write.part.0.constprop.0+0xe>
 800c5d0:	7803      	ldrb	r3, [r0, #0]
 800c5d2:	6113      	str	r3, [r2, #16]
 800c5d4:	6953      	ldr	r3, [r2, #20]
 800c5d6:	6833      	ldr	r3, [r6, #0]
 800c5d8:	1c48      	adds	r0, r1, #1
 800c5da:	d125      	bne.n	800c628 <HAL_I2C_Mem_Write.part.0.constprop.0+0x6c>
 800c5dc:	6953      	ldr	r3, [r2, #20]
 800c5de:	061b      	lsls	r3, r3, #24
 800c5e0:	d5fc      	bpl.n	800c5dc <HAL_I2C_Mem_Write.part.0.constprop.0+0x20>
 800c5e2:	6813      	ldr	r3, [r2, #0]
 800c5e4:	f443 7300 	orr.w	r3, r3, #512	; 0x200
 800c5e8:	6013      	str	r3, [r2, #0]
 800c5ea:	6833      	ldr	r3, [r6, #0]
 800c5ec:	1c48      	adds	r0, r1, #1
 800c5ee:	d125      	bne.n	800c63c <HAL_I2C_Mem_Write.part.0.constprop.0+0x80>
 800c5f0:	6993      	ldr	r3, [r2, #24]
 800c5f2:	079c      	lsls	r4, r3, #30
 800c5f4:	d4fc      	bmi.n	800c5f0 <HAL_I2C_Mem_Write.part.0.constprop.0+0x34>
 800c5f6:	2000      	movs	r0, #0
 800c5f8:	2301      	movs	r3, #1
 800c5fa:	f885 3035 	strb.w	r3, [r5, #53]	; 0x35
 800c5fe:	f885 0034 	strb.w	r0, [r5, #52]	; 0x34
 800c602:	bc70      	pop	{r4, r5, r6}
 800c604:	4770      	bx	lr
 800c606:	6953      	ldr	r3, [r2, #20]
 800c608:	061b      	lsls	r3, r3, #24
 800c60a:	d4e1      	bmi.n	800c5d0 <HAL_I2C_Mem_Write.part.0.constprop.0+0x14>
 800c60c:	b119      	cbz	r1, 800c616 <HAL_I2C_Mem_Write.part.0.constprop.0+0x5a>
 800c60e:	6833      	ldr	r3, [r6, #0]
 800c610:	1b1b      	subs	r3, r3, r4
 800c612:	4299      	cmp	r1, r3
 800c614:	d2d7      	bcs.n	800c5c6 <HAL_I2C_Mem_Write.part.0.constprop.0+0xa>
 800c616:	2201      	movs	r2, #1
 800c618:	2300      	movs	r3, #0
 800c61a:	f885 2035 	strb.w	r2, [r5, #53]	; 0x35
 800c61e:	f885 3034 	strb.w	r3, [r5, #52]	; 0x34
 800c622:	2003      	movs	r0, #3
 800c624:	bc70      	pop	{r4, r5, r6}
 800c626:	4770      	bx	lr
 800c628:	6950      	ldr	r0, [r2, #20]
 800c62a:	0604      	lsls	r4, r0, #24
 800c62c:	d4d9      	bmi.n	800c5e2 <HAL_I2C_Mem_Write.part.0.constprop.0+0x26>
 800c62e:	2900      	cmp	r1, #0
 800c630:	d0f1      	beq.n	800c616 <HAL_I2C_Mem_Write.part.0.constprop.0+0x5a>
 800c632:	6830      	ldr	r0, [r6, #0]
 800c634:	1ac0      	subs	r0, r0, r3
 800c636:	4281      	cmp	r1, r0
 800c638:	d2ce      	bcs.n	800c5d8 <HAL_I2C_Mem_Write.part.0.constprop.0+0x1c>
 800c63a:	e7ec      	b.n	800c616 <HAL_I2C_Mem_Write.part.0.constprop.0+0x5a>
 800c63c:	6990      	ldr	r0, [r2, #24]
 800c63e:	0780      	lsls	r0, r0, #30
 800c640:	d5d9      	bpl.n	800c5f6 <HAL_I2C_Mem_Write.part.0.constprop.0+0x3a>
 800c642:	2900      	cmp	r1, #0
 800c644:	d0e7      	beq.n	800c616 <HAL_I2C_Mem_Write.part.0.constprop.0+0x5a>
 800c646:	6830      	ldr	r0, [r6, #0]
 800c648:	1ac0      	subs	r0, r0, r3
 800c64a:	4281      	cmp	r1, r0
 800c64c:	d2ce      	bcs.n	800c5ec <HAL_I2C_Mem_Write.part.0.constprop.0+0x30>
 800c64e:	e7e2      	b.n	800c616 <HAL_I2C_Mem_Write.part.0.constprop.0+0x5a>
 800c650:	2001f720 	.word	0x2001f720
 800c654:	200008c4 	.word	0x200008c4

0800c658 <HAL_NVIC_SetPriority.constprop.0>:
HAL_NVIC_SetPriority.constprop.0():
 800c658:	4b14      	ldr	r3, [pc, #80]	; (800c6ac <HAL_NVIC_SetPriority.constprop.0+0x54>)
 800c65a:	68da      	ldr	r2, [r3, #12]
 800c65c:	f3c2 2c02 	ubfx	ip, r2, #8, #3
 800c660:	f1cc 0307 	rsb	r3, ip, #7
 800c664:	f10c 0204 	add.w	r2, ip, #4
 800c668:	2b04      	cmp	r3, #4
 800c66a:	bf28      	it	cs
 800c66c:	2304      	movcs	r3, #4
 800c66e:	2a06      	cmp	r2, #6
 800c670:	f04f 0201 	mov.w	r2, #1
 800c674:	fa02 f203 	lsl.w	r2, r2, r3
 800c678:	f102 32ff 	add.w	r2, r2, #4294967295	; 0xffffffff
 800c67c:	bf8c      	ite	hi
 800c67e:	f1ac 0c03 	subhi.w	ip, ip, #3
 800c682:	f04f 0c00 	movls.w	ip, #0
 800c686:	ea02 0301 	and.w	r3, r2, r1
 800c68a:	fa03 f30c 	lsl.w	r3, r3, ip
 800c68e:	011b      	lsls	r3, r3, #4
 800c690:	1c42      	adds	r2, r0, #1
 800c692:	b2db      	uxtb	r3, r3
 800c694:	d006      	beq.n	800c6a4 <HAL_NVIC_SetPriority.constprop.0+0x4c>
 800c696:	f100 4060 	add.w	r0, r0, #3758096384	; 0xe0000000
 800c69a:	f500 4061 	add.w	r0, r0, #57600	; 0xe100
 800c69e:	f880 3300 	strb.w	r3, [r0, #768]	; 0x300
 800c6a2:	4770      	bx	lr
 800c6a4:	4a01      	ldr	r2, [pc, #4]	; (800c6ac <HAL_NVIC_SetPriority.constprop.0+0x54>)
 800c6a6:	f882 3023 	strb.w	r3, [r2, #35]	; 0x23
 800c6aa:	4770      	bx	lr
 800c6ac:	e000ed00 	.word	0xe000ed00

0800c6b0 <USBH_Get_DevDesc.constprop.0>:
USBH_Get_DevDesc.constprop.0():
 800c6b0:	b538      	push	{r3, r4, r5, lr}
 800c6b2:	4c25      	ldr	r4, [pc, #148]	; (800c748 <USBH_Get_DevDesc.constprop.0+0x98>)
 800c6b4:	78a3      	ldrb	r3, [r4, #2]
 800c6b6:	2b01      	cmp	r3, #1
 800c6b8:	d036      	beq.n	800c728 <USBH_Get_DevDesc.constprop.0+0x78>
 800c6ba:	2b02      	cmp	r3, #2
 800c6bc:	d131      	bne.n	800c722 <USBH_Get_DevDesc.constprop.0+0x72>
 800c6be:	4605      	mov	r5, r0
 800c6c0:	4620      	mov	r0, r4
 800c6c2:	f7fb ffe3 	bl	800868c <USBH_CtlReq.part.0>
 800c6c6:	4603      	mov	r3, r0
 800c6c8:	bb60      	cbnz	r0, 800c724 <USBH_Get_DevDesc.constprop.0+0x74>
 800c6ca:	7fe0      	ldrb	r0, [r4, #31]
 800c6cc:	7fa2      	ldrb	r2, [r4, #30]
 800c6ce:	8ba1      	ldrh	r1, [r4, #28]
 800c6d0:	f8a4 1220 	strh.w	r1, [r4, #544]	; 0x220
 800c6d4:	eb02 2200 	add.w	r2, r2, r0, lsl #8
 800c6d8:	f8a4 2222 	strh.w	r2, [r4, #546]	; 0x222
 800c6dc:	2d08      	cmp	r5, #8
 800c6de:	6a22      	ldr	r2, [r4, #32]
 800c6e0:	f8c4 2224 	str.w	r2, [r4, #548]	; 0x224
 800c6e4:	d01e      	beq.n	800c724 <USBH_Get_DevDesc.constprop.0+0x74>
 800c6e6:	f894 1025 	ldrb.w	r1, [r4, #37]	; 0x25
 800c6ea:	f894 2024 	ldrb.w	r2, [r4, #36]	; 0x24
 800c6ee:	f894 5027 	ldrb.w	r5, [r4, #39]	; 0x27
 800c6f2:	f894 0029 	ldrb.w	r0, [r4, #41]	; 0x29
 800c6f6:	eb02 2201 	add.w	r2, r2, r1, lsl #8
 800c6fa:	f894 1026 	ldrb.w	r1, [r4, #38]	; 0x26
 800c6fe:	f8a4 2228 	strh.w	r2, [r4, #552]	; 0x228
 800c702:	f894 2028 	ldrb.w	r2, [r4, #40]	; 0x28
 800c706:	eb01 2105 	add.w	r1, r1, r5, lsl #8
 800c70a:	eb02 2200 	add.w	r2, r2, r0, lsl #8
 800c70e:	f8a4 122a 	strh.w	r1, [r4, #554]	; 0x22a
 800c712:	f8d4 102a 	ldr.w	r1, [r4, #42]	; 0x2a
 800c716:	f8a4 222c 	strh.w	r2, [r4, #556]	; 0x22c
 800c71a:	f8c4 122e 	str.w	r1, [r4, #558]	; 0x22e
 800c71e:	4618      	mov	r0, r3
 800c720:	bd38      	pop	{r3, r4, r5, pc}
 800c722:	2301      	movs	r3, #1
 800c724:	4618      	mov	r0, r3
 800c726:	bd38      	pop	{r3, r4, r5, pc}
 800c728:	b282      	uxth	r2, r0
 800c72a:	2100      	movs	r1, #0
 800c72c:	4807      	ldr	r0, [pc, #28]	; (800c74c <USBH_Get_DevDesc.constprop.0+0x9c>)
 800c72e:	6120      	str	r0, [r4, #16]
 800c730:	82a1      	strh	r1, [r4, #20]
 800c732:	f104 001c 	add.w	r0, r4, #28
 800c736:	2102      	movs	r1, #2
 800c738:	60a0      	str	r0, [r4, #8]
 800c73a:	82e2      	strh	r2, [r4, #22]
 800c73c:	81a2      	strh	r2, [r4, #12]
 800c73e:	7623      	strb	r3, [r4, #24]
 800c740:	70a1      	strb	r1, [r4, #2]
 800c742:	4618      	mov	r0, r3
 800c744:	bd38      	pop	{r3, r4, r5, pc}
 800c746:	bf00      	nop
 800c748:	2001f0a0 	.word	0x2001f0a0
 800c74c:	01000680 	.word	0x01000680

0800c750 <USBH_Get_StringDesc.constprop.0>:
USBH_Get_StringDesc.constprop.0():
 800c750:	b570      	push	{r4, r5, r6, lr}
 800c752:	4c1b      	ldr	r4, [pc, #108]	; (800c7c0 <USBH_Get_StringDesc.constprop.0+0x70>)
 800c754:	78a3      	ldrb	r3, [r4, #2]
 800c756:	2b01      	cmp	r3, #1
 800c758:	d00f      	beq.n	800c77a <USBH_Get_StringDesc.constprop.0+0x2a>
 800c75a:	2b02      	cmp	r3, #2
 800c75c:	d10a      	bne.n	800c774 <USBH_Get_StringDesc.constprop.0+0x24>
 800c75e:	4620      	mov	r0, r4
 800c760:	460d      	mov	r5, r1
 800c762:	f7fb ff93 	bl	800868c <USBH_CtlReq.part.0>
 800c766:	4603      	mov	r3, r0
 800c768:	b910      	cbnz	r0, 800c770 <USBH_Get_StringDesc.constprop.0+0x20>
 800c76a:	7f62      	ldrb	r2, [r4, #29]
 800c76c:	2a03      	cmp	r2, #3
 800c76e:	d016      	beq.n	800c79e <USBH_Get_StringDesc.constprop.0+0x4e>
 800c770:	4618      	mov	r0, r3
 800c772:	bd70      	pop	{r4, r5, r6, pc}
 800c774:	2301      	movs	r3, #1
 800c776:	4618      	mov	r0, r3
 800c778:	bd70      	pop	{r4, r5, r6, pc}
 800c77a:	f44f 62d0 	mov.w	r2, #1664	; 0x680
 800c77e:	8222      	strh	r2, [r4, #16]
 800c780:	f104 021c 	add.w	r2, r4, #28
 800c784:	f440 7040 	orr.w	r0, r0, #768	; 0x300
 800c788:	60a2      	str	r2, [r4, #8]
 800c78a:	2202      	movs	r2, #2
 800c78c:	490d      	ldr	r1, [pc, #52]	; (800c7c4 <USBH_Get_StringDesc.constprop.0+0x74>)
 800c78e:	8260      	strh	r0, [r4, #18]
 800c790:	7623      	strb	r3, [r4, #24]
 800c792:	20ff      	movs	r0, #255	; 0xff
 800c794:	70a2      	strb	r2, [r4, #2]
 800c796:	81a0      	strh	r0, [r4, #12]
 800c798:	6161      	str	r1, [r4, #20]
 800c79a:	4618      	mov	r0, r3
 800c79c:	bd70      	pop	{r4, r5, r6, pc}
 800c79e:	7f26      	ldrb	r6, [r4, #28]
 800c7a0:	3e02      	subs	r6, #2
 800c7a2:	b2b6      	uxth	r6, r6
 800c7a4:	b146      	cbz	r6, 800c7b8 <USBH_Get_StringDesc.constprop.0+0x68>
 800c7a6:	4602      	mov	r2, r0
 800c7a8:	341e      	adds	r4, #30
 800c7aa:	1c90      	adds	r0, r2, #2
 800c7ac:	5ca1      	ldrb	r1, [r4, r2]
 800c7ae:	f805 1b01 	strb.w	r1, [r5], #1
 800c7b2:	b282      	uxth	r2, r0
 800c7b4:	4296      	cmp	r6, r2
 800c7b6:	d8f8      	bhi.n	800c7aa <USBH_Get_StringDesc.constprop.0+0x5a>
 800c7b8:	2200      	movs	r2, #0
 800c7ba:	702a      	strb	r2, [r5, #0]
 800c7bc:	4618      	mov	r0, r3
 800c7be:	bd70      	pop	{r4, r5, r6, pc}
 800c7c0:	2001f0a0 	.word	0x2001f0a0
 800c7c4:	00ff0409 	.word	0x00ff0409

0800c7c8 <HAL_InitTick.constprop.0.isra.0>:
HAL_InitTick.constprop.0.isra.0():
 800c7c8:	b508      	push	{r3, lr}
 800c7ca:	f7fa fb7f 	bl	8006ecc <HAL_RCC_GetHCLKFreq>
 800c7ce:	4b0d      	ldr	r3, [pc, #52]	; (800c804 <HAL_InitTick.constprop.0.isra.0+0x3c>)
 800c7d0:	fba3 3000 	umull	r3, r0, r3, r0
 800c7d4:	0983      	lsrs	r3, r0, #6
 800c7d6:	3b01      	subs	r3, #1
 800c7d8:	f1b3 7f80 	cmp.w	r3, #16777216	; 0x1000000
 800c7dc:	d20b      	bcs.n	800c7f6 <HAL_InitTick.constprop.0.isra.0+0x2e>
 800c7de:	f04f 22e0 	mov.w	r2, #3758153728	; 0xe000e000
 800c7e2:	4809      	ldr	r0, [pc, #36]	; (800c808 <HAL_InitTick.constprop.0.isra.0+0x40>)
 800c7e4:	6153      	str	r3, [r2, #20]
 800c7e6:	f04f 0cf0 	mov.w	ip, #240	; 0xf0
 800c7ea:	2100      	movs	r1, #0
 800c7ec:	2307      	movs	r3, #7
 800c7ee:	f880 c023 	strb.w	ip, [r0, #35]	; 0x23
 800c7f2:	6191      	str	r1, [r2, #24]
 800c7f4:	6113      	str	r3, [r2, #16]
 800c7f6:	e8bd 4008 	ldmia.w	sp!, {r3, lr}
 800c7fa:	210f      	movs	r1, #15
 800c7fc:	f04f 30ff 	mov.w	r0, #4294967295	; 0xffffffff
 800c800:	f7ff bf2a 	b.w	800c658 <HAL_NVIC_SetPriority.constprop.0>
 800c804:	10624dd3 	.word	0x10624dd3
 800c808:	e000ed00 	.word	0xe000ed00

0800c80c <USBH_LL_OpenPipe.isra.0>:
USBH_LL_OpenPipe.isra.0():
 800c80c:	e92d 43f0 	stmdb	sp!, {r4, r5, r6, r7, r8, r9, lr}
 800c810:	f8d0 4610 	ldr.w	r4, [r0, #1552]	; 0x610
 800c814:	f89d 801c 	ldrb.w	r8, [sp, #28]
 800c818:	f894 5288 	ldrb.w	r5, [r4, #648]	; 0x288
 800c81c:	f89d 7020 	ldrb.w	r7, [sp, #32]
 800c820:	f8bd 0024 	ldrh.w	r0, [sp, #36]	; 0x24
 800c824:	2d01      	cmp	r5, #1
 800c826:	d059      	beq.n	800c8dc <USBH_LL_OpenPipe.isra.0+0xd0>
 800c828:	eb01 0c81 	add.w	ip, r1, r1, lsl #2
 800c82c:	eb04 0ccc 	add.w	ip, r4, ip, lsl #3
 800c830:	f002 057f 	and.w	r5, r2, #127	; 0x7f
 800c834:	ea4f 19d2 	mov.w	r9, r2, lsr #7
 800c838:	f88c 3030 	strb.w	r3, [ip, #48]	; 0x30
 800c83c:	f88c 1031 	strb.w	r1, [ip, #49]	; 0x31
 800c840:	f88c 7037 	strb.w	r7, [ip, #55]	; 0x37
 800c844:	f88c 8034 	strb.w	r8, [ip, #52]	; 0x34
 800c848:	f88c 5032 	strb.w	r5, [ip, #50]	; 0x32
 800c84c:	f88c 9033 	strb.w	r9, [ip, #51]	; 0x33
 800c850:	6825      	ldr	r5, [r4, #0]
 800c852:	f8ac 0038 	strh.w	r0, [ip, #56]	; 0x38
 800c856:	f44f 6ca0 	mov.w	ip, #1280	; 0x500
 800c85a:	eb0c 1c41 	add.w	ip, ip, r1, lsl #5
 800c85e:	eb0c 0e05 	add.w	lr, ip, r5
 800c862:	f04f 36ff 	mov.w	r6, #4294967295	; 0xffffffff
 800c866:	f8ce 6008 	str.w	r6, [lr, #8]
 800c86a:	f240 469d 	movw	r6, #1181	; 0x49d
 800c86e:	f8ce 600c 	str.w	r6, [lr, #12]
 800c872:	b256      	sxtb	r6, r2
 800c874:	f1b9 0f00 	cmp.w	r9, #0
 800c878:	d132      	bne.n	800c8e0 <USBH_LL_OpenPipe.isra.0+0xd4>
 800c87a:	f1b5 4fa0 	cmp.w	r5, #1342177280	; 0x50000000
 800c87e:	d005      	beq.n	800c88c <USBH_LL_OpenPipe.isra.0+0x80>
 800c880:	f8de 900c 	ldr.w	r9, [lr, #12]
 800c884:	f049 0960 	orr.w	r9, r9, #96	; 0x60
 800c888:	f8ce 900c 	str.w	r9, [lr, #12]
 800c88c:	ea4f 5e83 	mov.w	lr, r3, lsl #22
 800c890:	f3c0 000a 	ubfx	r0, r0, #0, #11
 800c894:	ea40 4387 	orr.w	r3, r0, r7, lsl #18
 800c898:	f00e 50fe 	and.w	r0, lr, #532676608	; 0x1fc00000
 800c89c:	4303      	orrs	r3, r0
 800c89e:	02d2      	lsls	r2, r2, #11
 800c8a0:	f406 4000 	and.w	r0, r6, #32768	; 0x8000
 800c8a4:	4303      	orrs	r3, r0
 800c8a6:	f402 42f0 	and.w	r2, r2, #30720	; 0x7800
 800c8aa:	f8d5 0418 	ldr.w	r0, [r5, #1048]	; 0x418
 800c8ae:	4313      	orrs	r3, r2
 800c8b0:	2201      	movs	r2, #1
 800c8b2:	fa02 f101 	lsl.w	r1, r2, r1
 800c8b6:	4301      	orrs	r1, r0
 800c8b8:	f8c5 1418 	str.w	r1, [r5, #1048]	; 0x418
 800c8bc:	69aa      	ldr	r2, [r5, #24]
 800c8be:	f1b8 0f02 	cmp.w	r8, #2
 800c8c2:	f042 7200 	orr.w	r2, r2, #33554432	; 0x2000000
 800c8c6:	61aa      	str	r2, [r5, #24]
 800c8c8:	bf0c      	ite	eq
 800c8ca:	f44f 3200 	moveq.w	r2, #131072	; 0x20000
 800c8ce:	2200      	movne	r2, #0
 800c8d0:	4313      	orrs	r3, r2
 800c8d2:	2200      	movs	r2, #0
 800c8d4:	f84c 3005 	str.w	r3, [ip, r5]
 800c8d8:	f884 2288 	strb.w	r2, [r4, #648]	; 0x288
 800c8dc:	e8bd 83f0 	ldmia.w	sp!, {r4, r5, r6, r7, r8, r9, pc}
 800c8e0:	f8de 900c 	ldr.w	r9, [lr, #12]
 800c8e4:	f449 7980 	orr.w	r9, r9, #256	; 0x100
 800c8e8:	f8ce 900c 	str.w	r9, [lr, #12]
 800c8ec:	e7ce      	b.n	800c88c <USBH_LL_OpenPipe.isra.0+0x80>
 800c8ee:	bf00      	nop

0800c8f0 <USB_CoreReset.isra.0>:
USB_CoreReset.isra.0():
 800c8f0:	4b09      	ldr	r3, [pc, #36]	; (800c918 <USB_CoreReset.isra.0+0x28>)
 800c8f2:	e001      	b.n	800c8f8 <USB_CoreReset.isra.0+0x8>
 800c8f4:	3b01      	subs	r3, #1
 800c8f6:	d00d      	beq.n	800c914 <USB_CoreReset.isra.0+0x24>
 800c8f8:	6902      	ldr	r2, [r0, #16]
 800c8fa:	2a00      	cmp	r2, #0
 800c8fc:	dafa      	bge.n	800c8f4 <USB_CoreReset.isra.0+0x4>
 800c8fe:	6902      	ldr	r2, [r0, #16]
 800c900:	4b05      	ldr	r3, [pc, #20]	; (800c918 <USB_CoreReset.isra.0+0x28>)
 800c902:	f042 0201 	orr.w	r2, r2, #1
 800c906:	6102      	str	r2, [r0, #16]
 800c908:	e001      	b.n	800c90e <USB_CoreReset.isra.0+0x1e>
 800c90a:	3b01      	subs	r3, #1
 800c90c:	d002      	beq.n	800c914 <USB_CoreReset.isra.0+0x24>
 800c90e:	6902      	ldr	r2, [r0, #16]
 800c910:	07d2      	lsls	r2, r2, #31
 800c912:	d4fa      	bmi.n	800c90a <USB_CoreReset.isra.0+0x1a>
 800c914:	4770      	bx	lr
 800c916:	bf00      	nop
 800c918:	00030d40 	.word	0x00030d40

0800c91c <OTG_FS_IRQHandler>:
OTG_FS_IRQHandler():
 800c91c:	e92d 4ff0 	stmdb	sp!, {r4, r5, r6, r7, r8, r9, sl, fp, lr}
 800c920:	4d94      	ldr	r5, [pc, #592]	; (800cb74 <OTG_FS_IRQHandler+0x258>)
 800c922:	682c      	ldr	r4, [r5, #0]
 800c924:	6963      	ldr	r3, [r4, #20]
 800c926:	07d8      	lsls	r0, r3, #31
 800c928:	b087      	sub	sp, #28
 800c92a:	d402      	bmi.n	800c932 <OTG_FS_IRQHandler+0x16>
 800c92c:	b007      	add	sp, #28
 800c92e:	e8bd 8ff0 	ldmia.w	sp!, {r4, r5, r6, r7, r8, r9, sl, fp, pc}
 800c932:	6962      	ldr	r2, [r4, #20]
 800c934:	69a3      	ldr	r3, [r4, #24]
 800c936:	421a      	tst	r2, r3
 800c938:	d0f8      	beq.n	800c92c <OTG_FS_IRQHandler+0x10>
 800c93a:	6963      	ldr	r3, [r4, #20]
 800c93c:	69a2      	ldr	r2, [r4, #24]
 800c93e:	4013      	ands	r3, r2
 800c940:	0299      	lsls	r1, r3, #10
 800c942:	bf44      	itt	mi
 800c944:	f44f 1300 	movmi.w	r3, #2097152	; 0x200000
 800c948:	6163      	strmi	r3, [r4, #20]
 800c94a:	6963      	ldr	r3, [r4, #20]
 800c94c:	69a2      	ldr	r2, [r4, #24]
 800c94e:	4013      	ands	r3, r2
 800c950:	02da      	lsls	r2, r3, #11
 800c952:	bf44      	itt	mi
 800c954:	f44f 1380 	movmi.w	r3, #1048576	; 0x100000
 800c958:	6163      	strmi	r3, [r4, #20]
 800c95a:	6963      	ldr	r3, [r4, #20]
 800c95c:	69a2      	ldr	r2, [r4, #24]
 800c95e:	4013      	ands	r3, r2
 800c960:	015b      	lsls	r3, r3, #5
 800c962:	bf44      	itt	mi
 800c964:	f04f 6380 	movmi.w	r3, #67108864	; 0x4000000
 800c968:	6163      	strmi	r3, [r4, #20]
 800c96a:	6963      	ldr	r3, [r4, #20]
 800c96c:	69a2      	ldr	r2, [r4, #24]
 800c96e:	4013      	ands	r3, r2
 800c970:	079f      	lsls	r7, r3, #30
 800c972:	bf44      	itt	mi
 800c974:	2302      	movmi	r3, #2
 800c976:	6163      	strmi	r3, [r4, #20]
 800c978:	6963      	ldr	r3, [r4, #20]
 800c97a:	69a2      	ldr	r2, [r4, #24]
 800c97c:	4013      	ands	r3, r2
 800c97e:	009e      	lsls	r6, r3, #2
 800c980:	f100 80fa 	bmi.w	800cb78 <OTG_FS_IRQHandler+0x25c>
 800c984:	4626      	mov	r6, r4
 800c986:	6973      	ldr	r3, [r6, #20]
 800c988:	69b2      	ldr	r2, [r6, #24]
 800c98a:	4013      	ands	r3, r2
 800c98c:	01da      	lsls	r2, r3, #7
 800c98e:	f100 80cb 	bmi.w	800cb28 <OTG_FS_IRQHandler+0x20c>
 800c992:	6973      	ldr	r3, [r6, #20]
 800c994:	69b2      	ldr	r2, [r6, #24]
 800c996:	4013      	ands	r3, r2
 800c998:	071f      	lsls	r7, r3, #28
 800c99a:	f100 8158 	bmi.w	800cc4e <OTG_FS_IRQHandler+0x332>
 800c99e:	6973      	ldr	r3, [r6, #20]
 800c9a0:	69b2      	ldr	r2, [r6, #24]
 800c9a2:	4013      	ands	r3, r2
 800c9a4:	0198      	lsls	r0, r3, #6
 800c9a6:	d413      	bmi.n	800c9d0 <OTG_FS_IRQHandler+0xb4>
 800c9a8:	6973      	ldr	r3, [r6, #20]
 800c9aa:	69b2      	ldr	r2, [r6, #24]
 800c9ac:	4013      	ands	r3, r2
 800c9ae:	06db      	lsls	r3, r3, #27
 800c9b0:	d5bc      	bpl.n	800c92c <OTG_FS_IRQHandler+0x10>
 800c9b2:	69b3      	ldr	r3, [r6, #24]
 800c9b4:	f023 0310 	bic.w	r3, r3, #16
 800c9b8:	61b3      	str	r3, [r6, #24]
 800c9ba:	6a33      	ldr	r3, [r6, #32]
 800c9bc:	f3c3 4243 	ubfx	r2, r3, #17, #4
 800c9c0:	2a02      	cmp	r2, #2
 800c9c2:	f000 8241 	beq.w	800ce48 <OTG_FS_IRQHandler+0x52c>
 800c9c6:	69b3      	ldr	r3, [r6, #24]
 800c9c8:	f043 0310 	orr.w	r3, r3, #16
 800c9cc:	61b3      	str	r3, [r6, #24]
 800c9ce:	e7ad      	b.n	800c92c <OTG_FS_IRQHandler+0x10>
 800c9d0:	4630      	mov	r0, r6
 800c9d2:	f7f3 fdd1 	bl	8000578 <USB_HC_ReadInterrupt>
 800c9d6:	68aa      	ldr	r2, [r5, #8]
 800c9d8:	682e      	ldr	r6, [r5, #0]
 800c9da:	4681      	mov	r9, r0
 800c9dc:	2a00      	cmp	r2, #0
 800c9de:	f000 809f 	beq.w	800cb20 <OTG_FS_IRQHandler+0x204>
 800c9e2:	4630      	mov	r0, r6
 800c9e4:	f504 64a0 	add.w	r4, r4, #1280	; 0x500
 800c9e8:	2700      	movs	r7, #0
 800c9ea:	f04f 0a01 	mov.w	sl, #1
 800c9ee:	464e      	mov	r6, r9
 800c9f0:	e04b      	b.n	800ca8a <OTG_FS_IRQHandler+0x16e>
 800c9f2:	f8d8 2008 	ldr.w	r2, [r8, #8]
 800c9f6:	0752      	lsls	r2, r2, #29
 800c9f8:	d564      	bpl.n	800cac4 <OTG_FS_IRQHandler+0x1a8>
 800c9fa:	2204      	movs	r2, #4
 800c9fc:	f8c8 2008 	str.w	r2, [r8, #8]
 800ca00:	f8d8 200c 	ldr.w	r2, [r8, #12]
 800ca04:	f042 0202 	orr.w	r2, r2, #2
 800ca08:	f8c8 200c 	str.w	r2, [r8, #12]
 800ca0c:	f8d8 2008 	ldr.w	r2, [r8, #8]
 800ca10:	0592      	lsls	r2, r2, #22
 800ca12:	f100 812a 	bmi.w	800cc6a <OTG_FS_IRQHandler+0x34e>
 800ca16:	f8d8 2008 	ldr.w	r2, [r8, #8]
 800ca1a:	07d1      	lsls	r1, r2, #31
 800ca1c:	f140 8135 	bpl.w	800cc8a <OTG_FS_IRQHandler+0x36e>
 800ca20:	692a      	ldr	r2, [r5, #16]
 800ca22:	b15a      	cbz	r2, 800ca3c <OTG_FS_IRQHandler+0x120>
 800ca24:	eb0b 018b 	add.w	r1, fp, fp, lsl #2
 800ca28:	f8d8 2010 	ldr.w	r2, [r8, #16]
 800ca2c:	eb05 01c1 	add.w	r1, r5, r1, lsl #3
 800ca30:	f3c2 0c12 	ubfx	ip, r2, #0, #19
 800ca34:	6c0a      	ldr	r2, [r1, #64]	; 0x40
 800ca36:	eba2 020c 	sub.w	r2, r2, ip
 800ca3a:	644a      	str	r2, [r1, #68]	; 0x44
 800ca3c:	ea4f 028b 	mov.w	r2, fp, lsl #2
 800ca40:	eb02 010b 	add.w	r1, r2, fp
 800ca44:	eb05 01c1 	add.w	r1, r5, r1, lsl #3
 800ca48:	f04f 0c00 	mov.w	ip, #0
 800ca4c:	f8c1 c050 	str.w	ip, [r1, #80]	; 0x50
 800ca50:	f881 a055 	strb.w	sl, [r1, #85]	; 0x55
 800ca54:	f8c8 a008 	str.w	sl, [r8, #8]
 800ca58:	f891 c037 	ldrb.w	ip, [r1, #55]	; 0x37
 800ca5c:	f01c 0ffd 	tst.w	ip, #253	; 0xfd
 800ca60:	f000 81e2 	beq.w	800ce28 <OTG_FS_IRQHandler+0x50c>
 800ca64:	f1bc 0f03 	cmp.w	ip, #3
 800ca68:	f000 832f 	beq.w	800d0ca <OTG_FS_IRQHandler+0x7ae>
 800ca6c:	4493      	add	fp, r2
 800ca6e:	eb05 0bcb 	add.w	fp, r5, fp, lsl #3
 800ca72:	68aa      	ldr	r2, [r5, #8]
 800ca74:	f89b 3048 	ldrb.w	r3, [fp, #72]	; 0x48
 800ca78:	f083 0301 	eor.w	r3, r3, #1
 800ca7c:	f88b 3048 	strb.w	r3, [fp, #72]	; 0x48
 800ca80:	3701      	adds	r7, #1
 800ca82:	4297      	cmp	r7, r2
 800ca84:	f104 0420 	add.w	r4, r4, #32
 800ca88:	d249      	bcs.n	800cb1e <OTG_FS_IRQHandler+0x202>
 800ca8a:	fa0a f307 	lsl.w	r3, sl, r7
 800ca8e:	4233      	tst	r3, r6
 800ca90:	d0f6      	beq.n	800ca80 <OTG_FS_IRQHandler+0x164>
 800ca92:	6821      	ldr	r1, [r4, #0]
 800ca94:	fa5f fb87 	uxtb.w	fp, r7
 800ca98:	f500 69a0 	add.w	r9, r0, #1280	; 0x500
 800ca9c:	0409      	lsls	r1, r1, #16
 800ca9e:	ea4f 134b 	mov.w	r3, fp, lsl #5
 800caa2:	eb09 184b 	add.w	r8, r9, fp, lsl #5
 800caa6:	d4a4      	bmi.n	800c9f2 <OTG_FS_IRQHandler+0xd6>
 800caa8:	f8d8 1008 	ldr.w	r1, [r8, #8]
 800caac:	0749      	lsls	r1, r1, #29
 800caae:	d512      	bpl.n	800cad6 <OTG_FS_IRQHandler+0x1ba>
 800cab0:	2304      	movs	r3, #4
 800cab2:	f8c8 3008 	str.w	r3, [r8, #8]
 800cab6:	f8d8 300c 	ldr.w	r3, [r8, #12]
 800caba:	f043 0302 	orr.w	r3, r3, #2
 800cabe:	f8c8 300c 	str.w	r3, [r8, #12]
 800cac2:	e7dd      	b.n	800ca80 <OTG_FS_IRQHandler+0x164>
 800cac4:	f8d8 2008 	ldr.w	r2, [r8, #8]
 800cac8:	0691      	lsls	r1, r2, #26
 800caca:	f140 815a 	bpl.w	800cd82 <OTG_FS_IRQHandler+0x466>
 800cace:	2220      	movs	r2, #32
 800cad0:	f8c8 2008 	str.w	r2, [r8, #8]
 800cad4:	e79a      	b.n	800ca0c <OTG_FS_IRQHandler+0xf0>
 800cad6:	f8d8 1008 	ldr.w	r1, [r8, #8]
 800cada:	f011 0120 	ands.w	r1, r1, #32
 800cade:	f000 80fc 	beq.w	800ccda <OTG_FS_IRQHandler+0x3be>
 800cae2:	eb0b 098b 	add.w	r9, fp, fp, lsl #2
 800cae6:	2320      	movs	r3, #32
 800cae8:	eb05 09c9 	add.w	r9, r5, r9, lsl #3
 800caec:	f8c8 3008 	str.w	r3, [r8, #8]
 800caf0:	f899 3035 	ldrb.w	r3, [r9, #53]	; 0x35
 800caf4:	2b01      	cmp	r3, #1
 800caf6:	d1c3      	bne.n	800ca80 <OTG_FS_IRQHandler+0x164>
 800caf8:	2304      	movs	r3, #4
 800cafa:	f889 3055 	strb.w	r3, [r9, #85]	; 0x55
 800cafe:	f8d8 300c 	ldr.w	r3, [r8, #12]
 800cb02:	f043 0302 	orr.w	r3, r3, #2
 800cb06:	f8c8 300c 	str.w	r3, [r8, #12]
 800cb0a:	4659      	mov	r1, fp
 800cb0c:	f7f3 fd44 	bl	8000598 <USB_HC_Halt>
 800cb10:	f04f 0302 	mov.w	r3, #2
 800cb14:	68aa      	ldr	r2, [r5, #8]
 800cb16:	6828      	ldr	r0, [r5, #0]
 800cb18:	f889 3054 	strb.w	r3, [r9, #84]	; 0x54
 800cb1c:	e7b0      	b.n	800ca80 <OTG_FS_IRQHandler+0x164>
 800cb1e:	4606      	mov	r6, r0
 800cb20:	f04f 7300 	mov.w	r3, #33554432	; 0x2000000
 800cb24:	6173      	str	r3, [r6, #20]
 800cb26:	e73f      	b.n	800c9a8 <OTG_FS_IRQHandler+0x8c>
 800cb28:	f8d6 3440 	ldr.w	r3, [r6, #1088]	; 0x440
 800cb2c:	9304      	str	r3, [sp, #16]
 800cb2e:	f8d6 3440 	ldr.w	r3, [r6, #1088]	; 0x440
 800cb32:	9305      	str	r3, [sp, #20]
 800cb34:	9b05      	ldr	r3, [sp, #20]
 800cb36:	f023 032e 	bic.w	r3, r3, #46	; 0x2e
 800cb3a:	9305      	str	r3, [sp, #20]
 800cb3c:	9b04      	ldr	r3, [sp, #16]
 800cb3e:	079b      	lsls	r3, r3, #30
 800cb40:	f506 6788 	add.w	r7, r6, #1088	; 0x440
 800cb44:	d507      	bpl.n	800cb56 <OTG_FS_IRQHandler+0x23a>
 800cb46:	9b04      	ldr	r3, [sp, #16]
 800cb48:	07d8      	lsls	r0, r3, #31
 800cb4a:	f100 8200 	bmi.w	800cf4e <OTG_FS_IRQHandler+0x632>
 800cb4e:	9b05      	ldr	r3, [sp, #20]
 800cb50:	f043 0302 	orr.w	r3, r3, #2
 800cb54:	9305      	str	r3, [sp, #20]
 800cb56:	9b04      	ldr	r3, [sp, #16]
 800cb58:	0719      	lsls	r1, r3, #28
 800cb5a:	f100 8137 	bmi.w	800cdcc <OTG_FS_IRQHandler+0x4b0>
 800cb5e:	682e      	ldr	r6, [r5, #0]
 800cb60:	9b04      	ldr	r3, [sp, #16]
 800cb62:	069b      	lsls	r3, r3, #26
 800cb64:	d503      	bpl.n	800cb6e <OTG_FS_IRQHandler+0x252>
 800cb66:	9b05      	ldr	r3, [sp, #20]
 800cb68:	f043 0320 	orr.w	r3, r3, #32
 800cb6c:	9305      	str	r3, [sp, #20]
 800cb6e:	9b05      	ldr	r3, [sp, #20]
 800cb70:	603b      	str	r3, [r7, #0]
 800cb72:	e70e      	b.n	800c992 <OTG_FS_IRQHandler+0x76>
 800cb74:	2001ee10 	.word	0x2001ee10
 800cb78:	f8d4 3440 	ldr.w	r3, [r4, #1088]	; 0x440
 800cb7c:	f8d5 628c 	ldr.w	r6, [r5, #652]	; 0x28c
 800cb80:	f023 032e 	bic.w	r3, r3, #46	; 0x2e
 800cb84:	f8d6 7610 	ldr.w	r7, [r6, #1552]	; 0x610
 800cb88:	f8c4 3440 	str.w	r3, [r4, #1088]	; 0x440
 800cb8c:	f897 3288 	ldrb.w	r3, [r7, #648]	; 0x288
 800cb90:	2b01      	cmp	r3, #1
 800cb92:	d008      	beq.n	800cba6 <OTG_FS_IRQHandler+0x28a>
 800cb94:	2301      	movs	r3, #1
 800cb96:	f887 3288 	strb.w	r3, [r7, #648]	; 0x288
 800cb9a:	6838      	ldr	r0, [r7, #0]
 800cb9c:	f7f3 fe36 	bl	800080c <USB_StopHost>
 800cba0:	2300      	movs	r3, #0
 800cba2:	f887 3288 	strb.w	r3, [r7, #648]	; 0x288
 800cba6:	7933      	ldrb	r3, [r6, #4]
 800cba8:	2b0a      	cmp	r3, #10
 800cbaa:	d807      	bhi.n	800cbbc <OTG_FS_IRQHandler+0x2a0>
 800cbac:	eb06 0383 	add.w	r3, r6, r3, lsl #2
 800cbb0:	f8d3 25cc 	ldr.w	r2, [r3, #1484]	; 0x5cc
 800cbb4:	f3c2 020e 	ubfx	r2, r2, #0, #15
 800cbb8:	f8c3 25cc 	str.w	r2, [r3, #1484]	; 0x5cc
 800cbbc:	7973      	ldrb	r3, [r6, #5]
 800cbbe:	2b0a      	cmp	r3, #10
 800cbc0:	d807      	bhi.n	800cbd2 <OTG_FS_IRQHandler+0x2b6>
 800cbc2:	eb06 0383 	add.w	r3, r6, r3, lsl #2
 800cbc6:	f8d3 25cc 	ldr.w	r2, [r3, #1484]	; 0x5cc
 800cbca:	f3c2 020e 	ubfx	r2, r2, #0, #15
 800cbce:	f8c3 25cc 	str.w	r2, [r3, #1484]	; 0x5cc
 800cbd2:	f8d6 3614 	ldr.w	r3, [r6, #1556]	; 0x614
 800cbd6:	2200      	movs	r2, #0
 800cbd8:	f886 221e 	strb.w	r2, [r6, #542]	; 0x21e
 800cbdc:	b113      	cbz	r3, 800cbe4 <OTG_FS_IRQHandler+0x2c8>
 800cbde:	2105      	movs	r1, #5
 800cbe0:	4630      	mov	r0, r6
 800cbe2:	4798      	blx	r3
 800cbe4:	f8d6 1610 	ldr.w	r1, [r6, #1552]	; 0x610
 800cbe8:	f891 3288 	ldrb.w	r3, [r1, #648]	; 0x288
 800cbec:	2b01      	cmp	r3, #1
 800cbee:	d017      	beq.n	800cc20 <OTG_FS_IRQHandler+0x304>
 800cbf0:	680b      	ldr	r3, [r1, #0]
 800cbf2:	689a      	ldr	r2, [r3, #8]
 800cbf4:	f042 0201 	orr.w	r2, r2, #1
 800cbf8:	609a      	str	r2, [r3, #8]
 800cbfa:	f8d3 2440 	ldr.w	r2, [r3, #1088]	; 0x440
 800cbfe:	9203      	str	r2, [sp, #12]
 800cc00:	9a03      	ldr	r2, [sp, #12]
 800cc02:	f022 022e 	bic.w	r2, r2, #46	; 0x2e
 800cc06:	9203      	str	r2, [sp, #12]
 800cc08:	9a03      	ldr	r2, [sp, #12]
 800cc0a:	04d0      	lsls	r0, r2, #19
 800cc0c:	d404      	bmi.n	800cc18 <OTG_FS_IRQHandler+0x2fc>
 800cc0e:	9a03      	ldr	r2, [sp, #12]
 800cc10:	f442 5280 	orr.w	r2, r2, #4096	; 0x1000
 800cc14:	f8c3 2440 	str.w	r2, [r3, #1088]	; 0x440
 800cc18:	2300      	movs	r3, #0
 800cc1a:	9a03      	ldr	r2, [sp, #12]
 800cc1c:	f881 3288 	strb.w	r3, [r1, #648]	; 0x288
 800cc20:	2303      	movs	r3, #3
 800cc22:	7033      	strb	r3, [r6, #0]
 800cc24:	682e      	ldr	r6, [r5, #0]
 800cc26:	f8d6 3400 	ldr.w	r3, [r6, #1024]	; 0x400
 800cc2a:	f023 0303 	bic.w	r3, r3, #3
 800cc2e:	f8c6 3400 	str.w	r3, [r6, #1024]	; 0x400
 800cc32:	f8d6 3400 	ldr.w	r3, [r6, #1024]	; 0x400
 800cc36:	f043 0301 	orr.w	r3, r3, #1
 800cc3a:	f8c6 3400 	str.w	r3, [r6, #1024]	; 0x400
 800cc3e:	f64b 3380 	movw	r3, #48000	; 0xbb80
 800cc42:	f8c6 3404 	str.w	r3, [r6, #1028]	; 0x404
 800cc46:	f04f 5300 	mov.w	r3, #536870912	; 0x20000000
 800cc4a:	6173      	str	r3, [r6, #20]
 800cc4c:	e69b      	b.n	800c986 <OTG_FS_IRQHandler+0x6a>
 800cc4e:	f8d5 028c 	ldr.w	r0, [r5, #652]	; 0x28c
 800cc52:	f8d0 3608 	ldr.w	r3, [r0, #1544]	; 0x608
 800cc56:	3301      	adds	r3, #1
 800cc58:	f8c0 3608 	str.w	r3, [r0, #1544]	; 0x608
 800cc5c:	7803      	ldrb	r3, [r0, #0]
 800cc5e:	2b0a      	cmp	r3, #10
 800cc60:	f000 8163 	beq.w	800cf2a <OTG_FS_IRQHandler+0x60e>
 800cc64:	2308      	movs	r3, #8
 800cc66:	6173      	str	r3, [r6, #20]
 800cc68:	e699      	b.n	800c99e <OTG_FS_IRQHandler+0x82>
 800cc6a:	f8d8 300c 	ldr.w	r3, [r8, #12]
 800cc6e:	f043 0302 	orr.w	r3, r3, #2
 800cc72:	f8c8 300c 	str.w	r3, [r8, #12]
 800cc76:	4659      	mov	r1, fp
 800cc78:	f7f3 fc8e 	bl	8000598 <USB_HC_Halt>
 800cc7c:	f44f 7300 	mov.w	r3, #512	; 0x200
 800cc80:	f8c8 3008 	str.w	r3, [r8, #8]
 800cc84:	68aa      	ldr	r2, [r5, #8]
 800cc86:	6828      	ldr	r0, [r5, #0]
 800cc88:	e6fa      	b.n	800ca80 <OTG_FS_IRQHandler+0x164>
 800cc8a:	f8d8 2008 	ldr.w	r2, [r8, #8]
 800cc8e:	0792      	lsls	r2, r2, #30
 800cc90:	f140 811c 	bpl.w	800cecc <OTG_FS_IRQHandler+0x5b0>
 800cc94:	f8d8 200c 	ldr.w	r2, [r8, #12]
 800cc98:	eb0b 018b 	add.w	r1, fp, fp, lsl #2
 800cc9c:	f022 0202 	bic.w	r2, r2, #2
 800cca0:	eb05 01c1 	add.w	r1, r5, r1, lsl #3
 800cca4:	f8c8 200c 	str.w	r2, [r8, #12]
 800cca8:	f891 c055 	ldrb.w	ip, [r1, #85]	; 0x55
 800ccac:	f1bc 0f01 	cmp.w	ip, #1
 800ccb0:	ea4f 028b 	mov.w	r2, fp, lsl #2
 800ccb4:	f000 8148 	beq.w	800cf48 <OTG_FS_IRQHandler+0x62c>
 800ccb8:	f1bc 0f05 	cmp.w	ip, #5
 800ccbc:	f000 8144 	beq.w	800cf48 <OTG_FS_IRQHandler+0x62c>
 800ccc0:	f1bc 0f06 	cmp.w	ip, #6
 800ccc4:	f000 81c5 	beq.w	800d052 <OTG_FS_IRQHandler+0x736>
 800ccc8:	f1bc 0f08 	cmp.w	ip, #8
 800cccc:	f000 81c1 	beq.w	800d052 <OTG_FS_IRQHandler+0x736>
 800ccd0:	2302      	movs	r3, #2
 800ccd2:	f8c8 3008 	str.w	r3, [r8, #8]
 800ccd6:	68aa      	ldr	r2, [r5, #8]
 800ccd8:	e6d2      	b.n	800ca80 <OTG_FS_IRQHandler+0x164>
 800ccda:	f8d8 c008 	ldr.w	ip, [r8, #8]
 800ccde:	f01c 0f40 	tst.w	ip, #64	; 0x40
 800cce2:	f040 8166 	bne.w	800cfb2 <OTG_FS_IRQHandler+0x696>
 800cce6:	f8d8 1008 	ldr.w	r1, [r8, #8]
 800ccea:	f411 7100 	ands.w	r1, r1, #512	; 0x200
 800ccee:	d1bc      	bne.n	800cc6a <OTG_FS_IRQHandler+0x34e>
 800ccf0:	f8d8 c008 	ldr.w	ip, [r8, #8]
 800ccf4:	f01c 0f01 	tst.w	ip, #1
 800ccf8:	f040 81d1 	bne.w	800d09e <OTG_FS_IRQHandler+0x782>
 800ccfc:	f8d8 1008 	ldr.w	r1, [r8, #8]
 800cd00:	f011 0108 	ands.w	r1, r1, #8
 800cd04:	f040 81ea 	bne.w	800d0dc <OTG_FS_IRQHandler+0x7c0>
 800cd08:	f8d8 c008 	ldr.w	ip, [r8, #8]
 800cd0c:	f01c 0f10 	tst.w	ip, #16
 800cd10:	f040 8200 	bne.w	800d114 <OTG_FS_IRQHandler+0x7f8>
 800cd14:	f8d8 1008 	ldr.w	r1, [r8, #8]
 800cd18:	0609      	lsls	r1, r1, #24
 800cd1a:	f100 8228 	bmi.w	800d16e <OTG_FS_IRQHandler+0x852>
 800cd1e:	f8d8 1008 	ldr.w	r1, [r8, #8]
 800cd22:	f411 6e80 	ands.w	lr, r1, #1024	; 0x400
 800cd26:	f040 8237 	bne.w	800d198 <OTG_FS_IRQHandler+0x87c>
 800cd2a:	f8d8 1008 	ldr.w	r1, [r8, #8]
 800cd2e:	0789      	lsls	r1, r1, #30
 800cd30:	f57f aea6 	bpl.w	800ca80 <OTG_FS_IRQHandler+0x164>
 800cd34:	f8d8 100c 	ldr.w	r1, [r8, #12]
 800cd38:	f021 0102 	bic.w	r1, r1, #2
 800cd3c:	f8c8 100c 	str.w	r1, [r8, #12]
 800cd40:	2128      	movs	r1, #40	; 0x28
 800cd42:	fb01 510b 	mla	r1, r1, fp, r5
 800cd46:	f891 c055 	ldrb.w	ip, [r1, #85]	; 0x55
 800cd4a:	f1bc 0f01 	cmp.w	ip, #1
 800cd4e:	f000 8245 	beq.w	800d1dc <OTG_FS_IRQHandler+0x8c0>
 800cd52:	f1bc 0f03 	cmp.w	ip, #3
 800cd56:	f000 823a 	beq.w	800d1ce <OTG_FS_IRQHandler+0x8b2>
 800cd5a:	f1bc 0f04 	cmp.w	ip, #4
 800cd5e:	f000 8234 	beq.w	800d1ca <OTG_FS_IRQHandler+0x8ae>
 800cd62:	f1bc 0f05 	cmp.w	ip, #5
 800cd66:	f000 8265 	beq.w	800d234 <OTG_FS_IRQHandler+0x918>
 800cd6a:	f1bc 0f06 	cmp.w	ip, #6
 800cd6e:	f000 8243 	beq.w	800d1f8 <OTG_FS_IRQHandler+0x8dc>
 800cd72:	f1bc 0f08 	cmp.w	ip, #8
 800cd76:	f000 823f 	beq.w	800d1f8 <OTG_FS_IRQHandler+0x8dc>
 800cd7a:	2302      	movs	r3, #2
 800cd7c:	f8c8 3008 	str.w	r3, [r8, #8]
 800cd80:	e67e      	b.n	800ca80 <OTG_FS_IRQHandler+0x164>
 800cd82:	f8d8 2008 	ldr.w	r2, [r8, #8]
 800cd86:	0712      	lsls	r2, r2, #28
 800cd88:	f100 80f9 	bmi.w	800cf7e <OTG_FS_IRQHandler+0x662>
 800cd8c:	f8d8 2008 	ldr.w	r2, [r8, #8]
 800cd90:	0551      	lsls	r1, r2, #21
 800cd92:	f57f ae3b 	bpl.w	800ca0c <OTG_FS_IRQHandler+0xf0>
 800cd96:	f8d8 200c 	ldr.w	r2, [r8, #12]
 800cd9a:	9301      	str	r3, [sp, #4]
 800cd9c:	f042 0202 	orr.w	r2, r2, #2
 800cda0:	f8c8 200c 	str.w	r2, [r8, #12]
 800cda4:	4659      	mov	r1, fp
 800cda6:	f7f3 fbf7 	bl	8000598 <USB_HC_Halt>
 800cdaa:	eb0b 028b 	add.w	r2, fp, fp, lsl #2
 800cdae:	eb05 02c2 	add.w	r2, r5, r2, lsl #3
 800cdb2:	2110      	movs	r1, #16
 800cdb4:	f8c8 1008 	str.w	r1, [r8, #8]
 800cdb8:	2108      	movs	r1, #8
 800cdba:	f882 1055 	strb.w	r1, [r2, #85]	; 0x55
 800cdbe:	f44f 6280 	mov.w	r2, #1024	; 0x400
 800cdc2:	6828      	ldr	r0, [r5, #0]
 800cdc4:	9b01      	ldr	r3, [sp, #4]
 800cdc6:	f8c8 2008 	str.w	r2, [r8, #8]
 800cdca:	e61f      	b.n	800ca0c <OTG_FS_IRQHandler+0xf0>
 800cdcc:	9b05      	ldr	r3, [sp, #20]
 800cdce:	f043 0308 	orr.w	r3, r3, #8
 800cdd2:	9305      	str	r3, [sp, #20]
 800cdd4:	9b04      	ldr	r3, [sp, #16]
 800cdd6:	075a      	lsls	r2, r3, #29
 800cdd8:	f140 80b0 	bpl.w	800cf3c <OTG_FS_IRQHandler+0x620>
 800cddc:	69ab      	ldr	r3, [r5, #24]
 800cdde:	2b02      	cmp	r3, #2
 800cde0:	f000 811d 	beq.w	800d01e <OTG_FS_IRQHandler+0x702>
 800cde4:	68eb      	ldr	r3, [r5, #12]
 800cde6:	2b03      	cmp	r3, #3
 800cde8:	bf04      	itt	eq
 800cdea:	f64e 2360 	movweq	r3, #60000	; 0xea60
 800cdee:	f8c6 3404 	streq.w	r3, [r6, #1028]	; 0x404
 800cdf2:	f8d5 028c 	ldr.w	r0, [r5, #652]	; 0x28c
 800cdf6:	7803      	ldrb	r3, [r0, #0]
 800cdf8:	f003 02ff 	and.w	r2, r3, #255	; 0xff
 800cdfc:	2b00      	cmp	r3, #0
 800cdfe:	f040 80ef 	bne.w	800cfe0 <OTG_FS_IRQHandler+0x6c4>
 800ce02:	f8d0 3614 	ldr.w	r3, [r0, #1556]	; 0x614
 800ce06:	2101      	movs	r1, #1
 800ce08:	f880 121e 	strb.w	r1, [r0, #542]	; 0x21e
 800ce0c:	7002      	strb	r2, [r0, #0]
 800ce0e:	b10b      	cbz	r3, 800ce14 <OTG_FS_IRQHandler+0x4f8>
 800ce10:	2104      	movs	r1, #4
 800ce12:	4798      	blx	r3
 800ce14:	68eb      	ldr	r3, [r5, #12]
 800ce16:	682e      	ldr	r6, [r5, #0]
 800ce18:	2b00      	cmp	r3, #0
 800ce1a:	f47f aea1 	bne.w	800cb60 <OTG_FS_IRQHandler+0x244>
 800ce1e:	69b3      	ldr	r3, [r6, #24]
 800ce20:	f043 5300 	orr.w	r3, r3, #536870912	; 0x20000000
 800ce24:	61b3      	str	r3, [r6, #24]
 800ce26:	e69b      	b.n	800cb60 <OTG_FS_IRQHandler+0x244>
 800ce28:	f8d8 300c 	ldr.w	r3, [r8, #12]
 800ce2c:	9201      	str	r2, [sp, #4]
 800ce2e:	f043 0302 	orr.w	r3, r3, #2
 800ce32:	f8c8 300c 	str.w	r3, [r8, #12]
 800ce36:	4659      	mov	r1, fp
 800ce38:	f7f3 fbae 	bl	8000598 <USB_HC_Halt>
 800ce3c:	2310      	movs	r3, #16
 800ce3e:	6828      	ldr	r0, [r5, #0]
 800ce40:	9a01      	ldr	r2, [sp, #4]
 800ce42:	f8c8 3008 	str.w	r3, [r8, #8]
 800ce46:	e611      	b.n	800ca6c <OTG_FS_IRQHandler+0x150>
 800ce48:	f3c3 170a 	ubfx	r7, r3, #4, #11
 800ce4c:	2f00      	cmp	r7, #0
 800ce4e:	f43f adba 	beq.w	800c9c6 <OTG_FS_IRQHandler+0xaa>
 800ce52:	f003 030f 	and.w	r3, r3, #15
 800ce56:	eb03 0283 	add.w	r2, r3, r3, lsl #2
 800ce5a:	eb05 02c2 	add.w	r2, r5, r2, lsl #3
 800ce5e:	ea4f 0883 	mov.w	r8, r3, lsl #2
 800ce62:	f8d2 e03c 	ldr.w	lr, [r2, #60]	; 0x3c
 800ce66:	f1be 0f00 	cmp.w	lr, #0
 800ce6a:	f43f adac 	beq.w	800c9c6 <OTG_FS_IRQHandler+0xaa>
 800ce6e:	1cfc      	adds	r4, r7, #3
 800ce70:	10a4      	asrs	r4, r4, #2
 800ce72:	f506 5c80 	add.w	ip, r6, #4096	; 0x1000
 800ce76:	4671      	mov	r1, lr
 800ce78:	2200      	movs	r2, #0
 800ce7a:	3201      	adds	r2, #1
 800ce7c:	f8dc 0000 	ldr.w	r0, [ip]
 800ce80:	f841 0b04 	str.w	r0, [r1], #4
 800ce84:	4294      	cmp	r4, r2
 800ce86:	d1f8      	bne.n	800ce7a <OTG_FS_IRQHandler+0x55e>
 800ce88:	4498      	add	r8, r3
 800ce8a:	eb05 05c8 	add.w	r5, r5, r8, lsl #3
 800ce8e:	eb0e 0207 	add.w	r2, lr, r7
 800ce92:	63ea      	str	r2, [r5, #60]	; 0x3c
 800ce94:	6c6a      	ldr	r2, [r5, #68]	; 0x44
 800ce96:	4417      	add	r7, r2
 800ce98:	f506 62a0 	add.w	r2, r6, #1280	; 0x500
 800ce9c:	eb02 1343 	add.w	r3, r2, r3, lsl #5
 800cea0:	4acd      	ldr	r2, [pc, #820]	; (800d1d8 <OTG_FS_IRQHandler+0x8bc>)
 800cea2:	6919      	ldr	r1, [r3, #16]
 800cea4:	646f      	str	r7, [r5, #68]	; 0x44
 800cea6:	400a      	ands	r2, r1
 800cea8:	2a00      	cmp	r2, #0
 800ceaa:	f43f ad8c 	beq.w	800c9c6 <OTG_FS_IRQHandler+0xaa>
 800ceae:	681a      	ldr	r2, [r3, #0]
 800ceb0:	f022 4280 	bic.w	r2, r2, #1073741824	; 0x40000000
 800ceb4:	601a      	str	r2, [r3, #0]
 800ceb6:	681a      	ldr	r2, [r3, #0]
 800ceb8:	f042 4200 	orr.w	r2, r2, #2147483648	; 0x80000000
 800cebc:	601a      	str	r2, [r3, #0]
 800cebe:	f895 3048 	ldrb.w	r3, [r5, #72]	; 0x48
 800cec2:	f083 0301 	eor.w	r3, r3, #1
 800cec6:	f885 3048 	strb.w	r3, [r5, #72]	; 0x48
 800ceca:	e57c      	b.n	800c9c6 <OTG_FS_IRQHandler+0xaa>
 800cecc:	f8d8 2008 	ldr.w	r2, [r8, #8]
 800ced0:	0611      	lsls	r1, r2, #24
 800ced2:	f100 808b 	bmi.w	800cfec <OTG_FS_IRQHandler+0x6d0>
 800ced6:	f8d8 2008 	ldr.w	r2, [r8, #8]
 800ceda:	06d2      	lsls	r2, r2, #27
 800cedc:	d523      	bpl.n	800cf26 <OTG_FS_IRQHandler+0x60a>
 800cede:	eb0b 028b 	add.w	r2, fp, fp, lsl #2
 800cee2:	eb05 02c2 	add.w	r2, r5, r2, lsl #3
 800cee6:	f892 1037 	ldrb.w	r1, [r2, #55]	; 0x37
 800ceea:	2903      	cmp	r1, #3
 800ceec:	ea4f 028b 	mov.w	r2, fp, lsl #2
 800cef0:	f000 8130 	beq.w	800d154 <OTG_FS_IRQHandler+0x838>
 800cef4:	f011 0ffd 	tst.w	r1, #253	; 0xfd
 800cef8:	d10b      	bne.n	800cf12 <OTG_FS_IRQHandler+0x5f6>
 800cefa:	f853 1009 	ldr.w	r1, [r3, r9]
 800cefe:	f021 4180 	bic.w	r1, r1, #1073741824	; 0x40000000
 800cf02:	f843 1009 	str.w	r1, [r3, r9]
 800cf06:	f853 1009 	ldr.w	r1, [r3, r9]
 800cf0a:	f041 4100 	orr.w	r1, r1, #2147483648	; 0x80000000
 800cf0e:	f843 1009 	str.w	r1, [r3, r9]
 800cf12:	eb02 030b 	add.w	r3, r2, fp
 800cf16:	eb05 03c3 	add.w	r3, r5, r3, lsl #3
 800cf1a:	2203      	movs	r2, #3
 800cf1c:	f883 2055 	strb.w	r2, [r3, #85]	; 0x55
 800cf20:	2310      	movs	r3, #16
 800cf22:	f8c8 3008 	str.w	r3, [r8, #8]
 800cf26:	68aa      	ldr	r2, [r5, #8]
 800cf28:	e5aa      	b.n	800ca80 <OTG_FS_IRQHandler+0x164>
 800cf2a:	f8d0 35c4 	ldr.w	r3, [r0, #1476]	; 0x5c4
 800cf2e:	2b00      	cmp	r3, #0
 800cf30:	f43f ae98 	beq.w	800cc64 <OTG_FS_IRQHandler+0x348>
 800cf34:	699b      	ldr	r3, [r3, #24]
 800cf36:	4798      	blx	r3
 800cf38:	682e      	ldr	r6, [r5, #0]
 800cf3a:	e693      	b.n	800cc64 <OTG_FS_IRQHandler+0x348>
 800cf3c:	683b      	ldr	r3, [r7, #0]
 800cf3e:	682e      	ldr	r6, [r5, #0]
 800cf40:	f023 032e 	bic.w	r3, r3, #46	; 0x2e
 800cf44:	603b      	str	r3, [r7, #0]
 800cf46:	e76a      	b.n	800ce1e <OTG_FS_IRQHandler+0x502>
 800cf48:	f881 c054 	strb.w	ip, [r1, #84]	; 0x54
 800cf4c:	e6c0      	b.n	800ccd0 <OTG_FS_IRQHandler+0x3b4>
 800cf4e:	69b3      	ldr	r3, [r6, #24]
 800cf50:	f8d5 028c 	ldr.w	r0, [r5, #652]	; 0x28c
 800cf54:	f023 5300 	bic.w	r3, r3, #536870912	; 0x20000000
 800cf58:	61b3      	str	r3, [r6, #24]
 800cf5a:	7803      	ldrb	r3, [r0, #0]
 800cf5c:	f003 02ff 	and.w	r2, r3, #255	; 0xff
 800cf60:	2b00      	cmp	r3, #0
 800cf62:	f040 8096 	bne.w	800d092 <OTG_FS_IRQHandler+0x776>
 800cf66:	f8d0 3614 	ldr.w	r3, [r0, #1556]	; 0x614
 800cf6a:	2101      	movs	r1, #1
 800cf6c:	f880 121e 	strb.w	r1, [r0, #542]	; 0x21e
 800cf70:	7002      	strb	r2, [r0, #0]
 800cf72:	2b00      	cmp	r3, #0
 800cf74:	f43f adeb 	beq.w	800cb4e <OTG_FS_IRQHandler+0x232>
 800cf78:	2104      	movs	r1, #4
 800cf7a:	4798      	blx	r3
 800cf7c:	e5e7      	b.n	800cb4e <OTG_FS_IRQHandler+0x232>
 800cf7e:	f8d8 200c 	ldr.w	r2, [r8, #12]
 800cf82:	9301      	str	r3, [sp, #4]
 800cf84:	f042 0202 	orr.w	r2, r2, #2
 800cf88:	f8c8 200c 	str.w	r2, [r8, #12]
 800cf8c:	eb0b 028b 	add.w	r2, fp, fp, lsl #2
 800cf90:	eb05 02c2 	add.w	r2, r5, r2, lsl #3
 800cf94:	2105      	movs	r1, #5
 800cf96:	f882 1055 	strb.w	r1, [r2, #85]	; 0x55
 800cf9a:	2210      	movs	r2, #16
 800cf9c:	f8c8 2008 	str.w	r2, [r8, #8]
 800cfa0:	2208      	movs	r2, #8
 800cfa2:	f8c8 2008 	str.w	r2, [r8, #8]
 800cfa6:	4659      	mov	r1, fp
 800cfa8:	f7f3 faf6 	bl	8000598 <USB_HC_Halt>
 800cfac:	6828      	ldr	r0, [r5, #0]
 800cfae:	9b01      	ldr	r3, [sp, #4]
 800cfb0:	e52c      	b.n	800ca0c <OTG_FS_IRQHandler+0xf0>
 800cfb2:	eb0b 038b 	add.w	r3, fp, fp, lsl #2
 800cfb6:	eb05 03c3 	add.w	r3, r5, r3, lsl #3
 800cfba:	2204      	movs	r2, #4
 800cfbc:	f883 2055 	strb.w	r2, [r3, #85]	; 0x55
 800cfc0:	6519      	str	r1, [r3, #80]	; 0x50
 800cfc2:	f8d8 300c 	ldr.w	r3, [r8, #12]
 800cfc6:	f043 0302 	orr.w	r3, r3, #2
 800cfca:	f8c8 300c 	str.w	r3, [r8, #12]
 800cfce:	4659      	mov	r1, fp
 800cfd0:	f7f3 fae2 	bl	8000598 <USB_HC_Halt>
 800cfd4:	2340      	movs	r3, #64	; 0x40
 800cfd6:	f8c8 3008 	str.w	r3, [r8, #8]
 800cfda:	68aa      	ldr	r2, [r5, #8]
 800cfdc:	6828      	ldr	r0, [r5, #0]
 800cfde:	e54f      	b.n	800ca80 <OTG_FS_IRQHandler+0x164>
 800cfe0:	7803      	ldrb	r3, [r0, #0]
 800cfe2:	2b01      	cmp	r3, #1
 800cfe4:	bf04      	itt	eq
 800cfe6:	2302      	moveq	r3, #2
 800cfe8:	7003      	strbeq	r3, [r0, #0]
 800cfea:	e713      	b.n	800ce14 <OTG_FS_IRQHandler+0x4f8>
 800cfec:	f8d8 300c 	ldr.w	r3, [r8, #12]
 800cff0:	eb0b 028b 	add.w	r2, fp, fp, lsl #2
 800cff4:	eb05 02c2 	add.w	r2, r5, r2, lsl #3
 800cff8:	f043 0302 	orr.w	r3, r3, #2
 800cffc:	f8c8 300c 	str.w	r3, [r8, #12]
 800d000:	6d13      	ldr	r3, [r2, #80]	; 0x50
 800d002:	3301      	adds	r3, #1
 800d004:	6513      	str	r3, [r2, #80]	; 0x50
 800d006:	2306      	movs	r3, #6
 800d008:	f882 3055 	strb.w	r3, [r2, #85]	; 0x55
 800d00c:	4659      	mov	r1, fp
 800d00e:	f7f3 fac3 	bl	8000598 <USB_HC_Halt>
 800d012:	2380      	movs	r3, #128	; 0x80
 800d014:	f8c8 3008 	str.w	r3, [r8, #8]
 800d018:	68aa      	ldr	r2, [r5, #8]
 800d01a:	6828      	ldr	r0, [r5, #0]
 800d01c:	e530      	b.n	800ca80 <OTG_FS_IRQHandler+0x164>
 800d01e:	9a04      	ldr	r2, [sp, #16]
 800d020:	682b      	ldr	r3, [r5, #0]
 800d022:	f402 22c0 	and.w	r2, r2, #393216	; 0x60000
 800d026:	f5b2 2f80 	cmp.w	r2, #262144	; 0x40000
 800d02a:	f8d3 2400 	ldr.w	r2, [r3, #1024]	; 0x400
 800d02e:	f022 0203 	bic.w	r2, r2, #3
 800d032:	f8c3 2400 	str.w	r2, [r3, #1024]	; 0x400
 800d036:	f8d3 2400 	ldr.w	r2, [r3, #1024]	; 0x400
 800d03a:	f503 6180 	add.w	r1, r3, #1024	; 0x400
 800d03e:	f000 8081 	beq.w	800d144 <OTG_FS_IRQHandler+0x828>
 800d042:	f042 0201 	orr.w	r2, r2, #1
 800d046:	f8c3 2400 	str.w	r2, [r3, #1024]	; 0x400
 800d04a:	f64b 3380 	movw	r3, #48000	; 0xbb80
 800d04e:	604b      	str	r3, [r1, #4]
 800d050:	e6cf      	b.n	800cdf2 <OTG_FS_IRQHandler+0x4d6>
 800d052:	eb02 010b 	add.w	r1, r2, fp
 800d056:	eb05 01c1 	add.w	r1, r5, r1, lsl #3
 800d05a:	f8d1 c050 	ldr.w	ip, [r1, #80]	; 0x50
 800d05e:	f1bc 0f03 	cmp.w	ip, #3
 800d062:	d851      	bhi.n	800d108 <OTG_FS_IRQHandler+0x7ec>
 800d064:	f10c 0c01 	add.w	ip, ip, #1
 800d068:	f8c1 c050 	str.w	ip, [r1, #80]	; 0x50
 800d06c:	2102      	movs	r1, #2
 800d06e:	445a      	add	r2, fp
 800d070:	eb05 02c2 	add.w	r2, r5, r2, lsl #3
 800d074:	f882 1054 	strb.w	r1, [r2, #84]	; 0x54
 800d078:	f853 2009 	ldr.w	r2, [r3, r9]
 800d07c:	f022 4280 	bic.w	r2, r2, #1073741824	; 0x40000000
 800d080:	f843 2009 	str.w	r2, [r3, r9]
 800d084:	f853 2009 	ldr.w	r2, [r3, r9]
 800d088:	f042 4200 	orr.w	r2, r2, #2147483648	; 0x80000000
 800d08c:	f843 2009 	str.w	r2, [r3, r9]
 800d090:	e61e      	b.n	800ccd0 <OTG_FS_IRQHandler+0x3b4>
 800d092:	7803      	ldrb	r3, [r0, #0]
 800d094:	2b01      	cmp	r3, #1
 800d096:	bf04      	itt	eq
 800d098:	2302      	moveq	r3, #2
 800d09a:	7003      	strbeq	r3, [r0, #0]
 800d09c:	e557      	b.n	800cb4e <OTG_FS_IRQHandler+0x232>
 800d09e:	f8d8 300c 	ldr.w	r3, [r8, #12]
 800d0a2:	eb0b 098b 	add.w	r9, fp, fp, lsl #2
 800d0a6:	eb05 09c9 	add.w	r9, r5, r9, lsl #3
 800d0aa:	f043 0302 	orr.w	r3, r3, #2
 800d0ae:	f8c9 1050 	str.w	r1, [r9, #80]	; 0x50
 800d0b2:	f8c8 300c 	str.w	r3, [r8, #12]
 800d0b6:	4659      	mov	r1, fp
 800d0b8:	f7f3 fa6e 	bl	8000598 <USB_HC_Halt>
 800d0bc:	f8c8 a008 	str.w	sl, [r8, #8]
 800d0c0:	68aa      	ldr	r2, [r5, #8]
 800d0c2:	6828      	ldr	r0, [r5, #0]
 800d0c4:	f889 a055 	strb.w	sl, [r9, #85]	; 0x55
 800d0c8:	e4da      	b.n	800ca80 <OTG_FS_IRQHandler+0x164>
 800d0ca:	f853 c009 	ldr.w	ip, [r3, r9]
 800d0ce:	f04c 5c00 	orr.w	ip, ip, #536870912	; 0x20000000
 800d0d2:	f843 c009 	str.w	ip, [r3, r9]
 800d0d6:	f881 a054 	strb.w	sl, [r1, #84]	; 0x54
 800d0da:	e4c7      	b.n	800ca6c <OTG_FS_IRQHandler+0x150>
 800d0dc:	2308      	movs	r3, #8
 800d0de:	f8c8 3008 	str.w	r3, [r8, #8]
 800d0e2:	f8d8 300c 	ldr.w	r3, [r8, #12]
 800d0e6:	f043 0302 	orr.w	r3, r3, #2
 800d0ea:	f8c8 300c 	str.w	r3, [r8, #12]
 800d0ee:	4659      	mov	r1, fp
 800d0f0:	eb0b 0b8b 	add.w	fp, fp, fp, lsl #2
 800d0f4:	f7f3 fa50 	bl	8000598 <USB_HC_Halt>
 800d0f8:	eb05 03cb 	add.w	r3, r5, fp, lsl #3
 800d0fc:	2205      	movs	r2, #5
 800d0fe:	f883 2055 	strb.w	r2, [r3, #85]	; 0x55
 800d102:	6828      	ldr	r0, [r5, #0]
 800d104:	68aa      	ldr	r2, [r5, #8]
 800d106:	e4bb      	b.n	800ca80 <OTG_FS_IRQHandler+0x164>
 800d108:	f04f 0c00 	mov.w	ip, #0
 800d10c:	f8c1 c050 	str.w	ip, [r1, #80]	; 0x50
 800d110:	2104      	movs	r1, #4
 800d112:	e7ac      	b.n	800d06e <OTG_FS_IRQHandler+0x752>
 800d114:	f8d8 300c 	ldr.w	r3, [r8, #12]
 800d118:	eb0b 098b 	add.w	r9, fp, fp, lsl #2
 800d11c:	eb05 09c9 	add.w	r9, r5, r9, lsl #3
 800d120:	f043 0302 	orr.w	r3, r3, #2
 800d124:	f8c9 1050 	str.w	r1, [r9, #80]	; 0x50
 800d128:	f8c8 300c 	str.w	r3, [r8, #12]
 800d12c:	4659      	mov	r1, fp
 800d12e:	f7f3 fa33 	bl	8000598 <USB_HC_Halt>
 800d132:	2303      	movs	r3, #3
 800d134:	f889 3055 	strb.w	r3, [r9, #85]	; 0x55
 800d138:	2310      	movs	r3, #16
 800d13a:	f8c8 3008 	str.w	r3, [r8, #8]
 800d13e:	68aa      	ldr	r2, [r5, #8]
 800d140:	6828      	ldr	r0, [r5, #0]
 800d142:	e49d      	b.n	800ca80 <OTG_FS_IRQHandler+0x164>
 800d144:	f042 0202 	orr.w	r2, r2, #2
 800d148:	f8c3 2400 	str.w	r2, [r3, #1024]	; 0x400
 800d14c:	f241 7370 	movw	r3, #6000	; 0x1770
 800d150:	604b      	str	r3, [r1, #4]
 800d152:	e64e      	b.n	800cdf2 <OTG_FS_IRQHandler+0x4d6>
 800d154:	f8d8 300c 	ldr.w	r3, [r8, #12]
 800d158:	9201      	str	r2, [sp, #4]
 800d15a:	f043 0302 	orr.w	r3, r3, #2
 800d15e:	f8c8 300c 	str.w	r3, [r8, #12]
 800d162:	4659      	mov	r1, fp
 800d164:	f7f3 fa18 	bl	8000598 <USB_HC_Halt>
 800d168:	6828      	ldr	r0, [r5, #0]
 800d16a:	9a01      	ldr	r2, [sp, #4]
 800d16c:	e6d1      	b.n	800cf12 <OTG_FS_IRQHandler+0x5f6>
 800d16e:	f8d8 300c 	ldr.w	r3, [r8, #12]
 800d172:	f043 0302 	orr.w	r3, r3, #2
 800d176:	f8c8 300c 	str.w	r3, [r8, #12]
 800d17a:	4659      	mov	r1, fp
 800d17c:	f7f3 fa0c 	bl	8000598 <USB_HC_Halt>
 800d180:	2328      	movs	r3, #40	; 0x28
 800d182:	fb03 5b0b 	mla	fp, r3, fp, r5
 800d186:	2306      	movs	r3, #6
 800d188:	f88b 3055 	strb.w	r3, [fp, #85]	; 0x55
 800d18c:	2380      	movs	r3, #128	; 0x80
 800d18e:	f8c8 3008 	str.w	r3, [r8, #8]
 800d192:	68aa      	ldr	r2, [r5, #8]
 800d194:	6828      	ldr	r0, [r5, #0]
 800d196:	e473      	b.n	800ca80 <OTG_FS_IRQHandler+0x164>
 800d198:	f8d8 300c 	ldr.w	r3, [r8, #12]
 800d19c:	f043 0302 	orr.w	r3, r3, #2
 800d1a0:	f8c8 300c 	str.w	r3, [r8, #12]
 800d1a4:	4659      	mov	r1, fp
 800d1a6:	f7f3 f9f7 	bl	8000598 <USB_HC_Halt>
 800d1aa:	2328      	movs	r3, #40	; 0x28
 800d1ac:	fb03 5b0b 	mla	fp, r3, fp, r5
 800d1b0:	2310      	movs	r3, #16
 800d1b2:	f8c8 3008 	str.w	r3, [r8, #8]
 800d1b6:	f44f 6380 	mov.w	r3, #1024	; 0x400
 800d1ba:	f8c8 3008 	str.w	r3, [r8, #8]
 800d1be:	2308      	movs	r3, #8
 800d1c0:	68aa      	ldr	r2, [r5, #8]
 800d1c2:	6828      	ldr	r0, [r5, #0]
 800d1c4:	f88b 3055 	strb.w	r3, [fp, #85]	; 0x55
 800d1c8:	e45a      	b.n	800ca80 <OTG_FS_IRQHandler+0x164>
 800d1ca:	f881 e035 	strb.w	lr, [r1, #53]	; 0x35
 800d1ce:	f04f 0302 	mov.w	r3, #2
 800d1d2:	f881 3054 	strb.w	r3, [r1, #84]	; 0x54
 800d1d6:	e5d0      	b.n	800cd7a <OTG_FS_IRQHandler+0x45e>
 800d1d8:	1ff80000 	.word	0x1ff80000
 800d1dc:	f891 3037 	ldrb.w	r3, [r1, #55]	; 0x37
 800d1e0:	f881 c054 	strb.w	ip, [r1, #84]	; 0x54
 800d1e4:	2b02      	cmp	r3, #2
 800d1e6:	f47f adc8 	bne.w	800cd7a <OTG_FS_IRQHandler+0x45e>
 800d1ea:	f891 3049 	ldrb.w	r3, [r1, #73]	; 0x49
 800d1ee:	f083 0301 	eor.w	r3, r3, #1
 800d1f2:	f881 3049 	strb.w	r3, [r1, #73]	; 0x49
 800d1f6:	e5c0      	b.n	800cd7a <OTG_FS_IRQHandler+0x45e>
 800d1f8:	2128      	movs	r1, #40	; 0x28
 800d1fa:	fb01 5c0b 	mla	ip, r1, fp, r5
 800d1fe:	f8dc 1050 	ldr.w	r1, [ip, #80]	; 0x50
 800d202:	2903      	cmp	r1, #3
 800d204:	d819      	bhi.n	800d23a <OTG_FS_IRQHandler+0x91e>
 800d206:	3101      	adds	r1, #1
 800d208:	f8cc 1050 	str.w	r1, [ip, #80]	; 0x50
 800d20c:	2102      	movs	r1, #2
 800d20e:	f04f 0c28 	mov.w	ip, #40	; 0x28
 800d212:	fb0c 5b0b 	mla	fp, ip, fp, r5
 800d216:	f88b 1054 	strb.w	r1, [fp, #84]	; 0x54
 800d21a:	f853 1009 	ldr.w	r1, [r3, r9]
 800d21e:	f021 4180 	bic.w	r1, r1, #1073741824	; 0x40000000
 800d222:	f843 1009 	str.w	r1, [r3, r9]
 800d226:	f853 1009 	ldr.w	r1, [r3, r9]
 800d22a:	f041 4100 	orr.w	r1, r1, #2147483648	; 0x80000000
 800d22e:	f843 1009 	str.w	r1, [r3, r9]
 800d232:	e5a2      	b.n	800cd7a <OTG_FS_IRQHandler+0x45e>
 800d234:	f881 c054 	strb.w	ip, [r1, #84]	; 0x54
 800d238:	e59f      	b.n	800cd7a <OTG_FS_IRQHandler+0x45e>
 800d23a:	2100      	movs	r1, #0
 800d23c:	f8cc 1050 	str.w	r1, [ip, #80]	; 0x50
 800d240:	2104      	movs	r1, #4
 800d242:	e7e4      	b.n	800d20e <OTG_FS_IRQHandler+0x8f2>

0800d244 <USBH_CtlSendData.constprop.0.isra.0>:
USBH_CtlSendData.constprop.0.isra.0():
 800d244:	b530      	push	{r4, r5, lr}
 800d246:	f8d0 4610 	ldr.w	r4, [r0, #1552]	; 0x610
 800d24a:	f890 e21d 	ldrb.w	lr, [r0, #541]	; 0x21d
 800d24e:	eb03 0c83 	add.w	ip, r3, r3, lsl #2
 800d252:	eb04 0ccc 	add.w	ip, r4, ip, lsl #3
 800d256:	2000      	movs	r0, #0
 800d258:	f88c 0033 	strb.w	r0, [ip, #51]	; 0x33
 800d25c:	f88c 0037 	strb.w	r0, [ip, #55]	; 0x37
 800d260:	2002      	movs	r0, #2
 800d262:	f88c 003a 	strb.w	r0, [ip, #58]	; 0x3a
 800d266:	fa03 f000 	lsl.w	r0, r3, r0
 800d26a:	bb42      	cbnz	r2, 800d2be <USBH_CtlSendData.constprop.0.isra.0+0x7a>
 800d26c:	2501      	movs	r5, #1
 800d26e:	f88c 5049 	strb.w	r5, [ip, #73]	; 0x49
 800d272:	eb00 0c03 	add.w	ip, r0, r3
 800d276:	eb04 0ccc 	add.w	ip, r4, ip, lsl #3
 800d27a:	f89c 5054 	ldrb.w	r5, [ip, #84]	; 0x54
 800d27e:	2d02      	cmp	r5, #2
 800d280:	d005      	beq.n	800d28e <USBH_CtlSendData.constprop.0.isra.0+0x4a>
 800d282:	fabe fe8e 	clz	lr, lr
 800d286:	ea4f 1e5e 	mov.w	lr, lr, lsr #5
 800d28a:	f88c e035 	strb.w	lr, [ip, #53]	; 0x35
 800d28e:	4418      	add	r0, r3
 800d290:	eb04 0cc0 	add.w	ip, r4, r0, lsl #3
 800d294:	f8cc 103c 	str.w	r1, [ip, #60]	; 0x3c
 800d298:	f8cc 2040 	str.w	r2, [ip, #64]	; 0x40
 800d29c:	2128      	movs	r1, #40	; 0x28
 800d29e:	2200      	movs	r2, #0
 800d2a0:	f88c 3031 	strb.w	r3, [ip, #49]	; 0x31
 800d2a4:	f8ac 2054 	strh.w	r2, [ip, #84]	; 0x54
 800d2a8:	fb01 4103 	mla	r1, r1, r3, r4
 800d2ac:	6820      	ldr	r0, [r4, #0]
 800d2ae:	f8cc 2044 	str.w	r2, [ip, #68]	; 0x44
 800d2b2:	3130      	adds	r1, #48	; 0x30
 800d2b4:	7c22      	ldrb	r2, [r4, #16]
 800d2b6:	e8bd 4030 	ldmia.w	sp!, {r4, r5, lr}
 800d2ba:	f7f3 b81f 	b.w	80002fc <USB_HC_StartXfer>
 800d2be:	f89c 5049 	ldrb.w	r5, [ip, #73]	; 0x49
 800d2c2:	2d00      	cmp	r5, #0
 800d2c4:	d1d5      	bne.n	800d272 <USBH_CtlSendData.constprop.0.isra.0+0x2e>
 800d2c6:	f88c 503a 	strb.w	r5, [ip, #58]	; 0x3a
 800d2ca:	e7d2      	b.n	800d272 <USBH_CtlSendData.constprop.0.isra.0+0x2e>

0800d2cc <Reset_Handler>:
Reset_Handler():
 800d2cc:	f8df d034 	ldr.w	sp, [pc, #52]	; 800d304 <LoopFillZerobss+0x14>
 800d2d0:	2100      	movs	r1, #0
 800d2d2:	e003      	b.n	800d2dc <LoopCopyDataInit>

0800d2d4 <CopyDataInit>:
 800d2d4:	4b0c      	ldr	r3, [pc, #48]	; (800d308 <LoopFillZerobss+0x18>)
 800d2d6:	585b      	ldr	r3, [r3, r1]
 800d2d8:	5043      	str	r3, [r0, r1]
 800d2da:	3104      	adds	r1, #4

0800d2dc <LoopCopyDataInit>:
 800d2dc:	480b      	ldr	r0, [pc, #44]	; (800d30c <LoopFillZerobss+0x1c>)
 800d2de:	4b0c      	ldr	r3, [pc, #48]	; (800d310 <LoopFillZerobss+0x20>)
 800d2e0:	1842      	adds	r2, r0, r1
 800d2e2:	429a      	cmp	r2, r3
 800d2e4:	d3f6      	bcc.n	800d2d4 <CopyDataInit>
 800d2e6:	4a0b      	ldr	r2, [pc, #44]	; (800d314 <LoopFillZerobss+0x24>)
 800d2e8:	e002      	b.n	800d2f0 <LoopFillZerobss>

0800d2ea <FillZerobss>:
 800d2ea:	2300      	movs	r3, #0
 800d2ec:	f842 3b04 	str.w	r3, [r2], #4

0800d2f0 <LoopFillZerobss>:
 800d2f0:	4b09      	ldr	r3, [pc, #36]	; (800d318 <LoopFillZerobss+0x28>)
 800d2f2:	429a      	cmp	r2, r3
 800d2f4:	d3f9      	bcc.n	800d2ea <FillZerobss>
 800d2f6:	f7ff f939 	bl	800c56c <SystemInit>
 800d2fa:	f001 faf7 	bl	800e8ec <__libc_init_array>
 800d2fe:	f7fc fd21 	bl	8009d44 <main>
 800d302:	4770      	bx	lr
LoopFillZerobss():
 800d304:	2001ffff 	.word	0x2001ffff
 800d308:	0801e0fc 	.word	0x0801e0fc
 800d30c:	20000000 	.word	0x20000000
 800d310:	200008a4 	.word	0x200008a4
 800d314:	200008a4 	.word	0x200008a4
 800d318:	2001f7c0 	.word	0x2001f7c0

0800d31c <ADC_IRQHandler>:
RTC_Alarm_IRQHandler():
 800d31c:	e7fe      	b.n	800d31c <ADC_IRQHandler>
	...

0800d320 <floorf>:
floorf():
 800d320:	ee10 2a10 	vmov	r2, s0
 800d324:	f3c2 53c7 	ubfx	r3, r2, #23, #8
 800d328:	3b7f      	subs	r3, #127	; 0x7f
 800d32a:	2b16      	cmp	r3, #22
 800d32c:	f022 4100 	bic.w	r1, r2, #2147483648	; 0x80000000
 800d330:	dc1a      	bgt.n	800d368 <floorf+0x48>
 800d332:	2b00      	cmp	r3, #0
 800d334:	db1e      	blt.n	800d374 <floorf+0x54>
 800d336:	491a      	ldr	r1, [pc, #104]	; (800d3a0 <floorf+0x80>)
 800d338:	4119      	asrs	r1, r3
 800d33a:	420a      	tst	r2, r1
 800d33c:	d027      	beq.n	800d38e <floorf+0x6e>
 800d33e:	eddf 7a19 	vldr	s15, [pc, #100]	; 800d3a4 <floorf+0x84>
 800d342:	ee70 7a27 	vadd.f32	s15, s0, s15
 800d346:	eef5 7ac0 	vcmpe.f32	s15, #0.0
 800d34a:	eef1 fa10 	vmrs	APSR_nzcv, fpscr
 800d34e:	dd1e      	ble.n	800d38e <floorf+0x6e>
 800d350:	2a00      	cmp	r2, #0
 800d352:	da04      	bge.n	800d35e <floorf+0x3e>
 800d354:	f44f 0000 	mov.w	r0, #8388608	; 0x800000
 800d358:	fa40 f303 	asr.w	r3, r0, r3
 800d35c:	441a      	add	r2, r3
 800d35e:	ea22 0301 	bic.w	r3, r2, r1
 800d362:	ee00 3a10 	vmov	s0, r3
 800d366:	4770      	bx	lr
 800d368:	f1b1 4fff 	cmp.w	r1, #2139095040	; 0x7f800000
 800d36c:	d30f      	bcc.n	800d38e <floorf+0x6e>
 800d36e:	ee30 0a00 	vadd.f32	s0, s0, s0
 800d372:	4770      	bx	lr
 800d374:	eddf 7a0b 	vldr	s15, [pc, #44]	; 800d3a4 <floorf+0x84>
 800d378:	ee70 7a27 	vadd.f32	s15, s0, s15
 800d37c:	eef5 7ac0 	vcmpe.f32	s15, #0.0
 800d380:	eef1 fa10 	vmrs	APSR_nzcv, fpscr
 800d384:	dd03      	ble.n	800d38e <floorf+0x6e>
 800d386:	2a00      	cmp	r2, #0
 800d388:	db02      	blt.n	800d390 <floorf+0x70>
 800d38a:	ed9f 0a07 	vldr	s0, [pc, #28]	; 800d3a8 <floorf+0x88>
 800d38e:	4770      	bx	lr
 800d390:	2900      	cmp	r1, #0
 800d392:	eeff 7a00 	vmov.f32	s15, #240	; 0xbf800000 -1.0
 800d396:	bf18      	it	ne
 800d398:	eeb0 0a67 	vmovne.f32	s0, s15
 800d39c:	4770      	bx	lr
 800d39e:	bf00      	nop
 800d3a0:	007fffff 	.word	0x007fffff
 800d3a4:	7149f2ca 	.word	0x7149f2ca
 800d3a8:	00000000 	.word	0x00000000

0800d3ac <lrintf>:
lrintf():
 800d3ac:	b410      	push	{r4}
 800d3ae:	b085      	sub	sp, #20
 800d3b0:	ed8d 0a01 	vstr	s0, [sp, #4]
 800d3b4:	9b01      	ldr	r3, [sp, #4]
 800d3b6:	f3c3 51c7 	ubfx	r1, r3, #23, #8
 800d3ba:	f1a1 027f 	sub.w	r2, r1, #127	; 0x7f
 800d3be:	2a1e      	cmp	r2, #30
 800d3c0:	dc2a      	bgt.n	800d418 <lrintf+0x6c>
 800d3c2:	1c50      	adds	r0, r2, #1
 800d3c4:	db23      	blt.n	800d40e <lrintf+0x62>
 800d3c6:	2a16      	cmp	r2, #22
 800d3c8:	ea4f 74d3 	mov.w	r4, r3, lsr #31
 800d3cc:	dd0b      	ble.n	800d3e6 <lrintf+0x3a>
 800d3ce:	f3c3 0016 	ubfx	r0, r3, #0, #23
 800d3d2:	f440 0000 	orr.w	r0, r0, #8388608	; 0x800000
 800d3d6:	3996      	subs	r1, #150	; 0x96
 800d3d8:	4088      	lsls	r0, r1
 800d3da:	b104      	cbz	r4, 800d3de <lrintf+0x32>
 800d3dc:	4240      	negs	r0, r0
 800d3de:	b005      	add	sp, #20
 800d3e0:	f85d 4b04 	ldr.w	r4, [sp], #4
 800d3e4:	4770      	bx	lr
 800d3e6:	4b16      	ldr	r3, [pc, #88]	; (800d440 <lrintf+0x94>)
 800d3e8:	eddd 7a01 	vldr	s15, [sp, #4]
 800d3ec:	eb03 0384 	add.w	r3, r3, r4, lsl #2
 800d3f0:	ed93 7a00 	vldr	s14, [r3]
 800d3f4:	ee77 7a27 	vadd.f32	s15, s14, s15
 800d3f8:	edcd 7a03 	vstr	s15, [sp, #12]
 800d3fc:	eddd 7a03 	vldr	s15, [sp, #12]
 800d400:	ee77 7ac7 	vsub.f32	s15, s15, s14
 800d404:	ee17 3a90 	vmov	r3, s15
 800d408:	f033 4200 	bics.w	r2, r3, #2147483648	; 0x80000000
 800d40c:	d10e      	bne.n	800d42c <lrintf+0x80>
 800d40e:	2000      	movs	r0, #0
 800d410:	b005      	add	sp, #20
 800d412:	f85d 4b04 	ldr.w	r4, [sp], #4
 800d416:	4770      	bx	lr
 800d418:	eddd 7a01 	vldr	s15, [sp, #4]
 800d41c:	eefd 7ae7 	vcvt.s32.f32	s15, s15
 800d420:	ee17 0a90 	vmov	r0, s15
 800d424:	b005      	add	sp, #20
 800d426:	f85d 4b04 	ldr.w	r4, [sp], #4
 800d42a:	4770      	bx	lr
 800d42c:	f3c3 0016 	ubfx	r0, r3, #0, #23
 800d430:	f3c3 53c7 	ubfx	r3, r3, #23, #8
 800d434:	f440 0000 	orr.w	r0, r0, #8388608	; 0x800000
 800d438:	f1c3 0396 	rsb	r3, r3, #150	; 0x96
 800d43c:	40d8      	lsrs	r0, r3
 800d43e:	e7cc      	b.n	800d3da <lrintf+0x2e>
 800d440:	0801dd0c 	.word	0x0801dd0c

0800d444 <rintf>:
rintf():
 800d444:	ee10 1a10 	vmov	r1, s0
 800d448:	f3c1 53c7 	ubfx	r3, r1, #23, #8
 800d44c:	f1a3 027f 	sub.w	r2, r3, #127	; 0x7f
 800d450:	2a16      	cmp	r2, #22
 800d452:	f021 4300 	bic.w	r3, r1, #2147483648	; 0x80000000
 800d456:	dc28      	bgt.n	800d4aa <rintf+0x66>
 800d458:	b333      	cbz	r3, 800d4a8 <rintf+0x64>
 800d45a:	b410      	push	{r4}
 800d45c:	2a00      	cmp	r2, #0
 800d45e:	b083      	sub	sp, #12
 800d460:	ea4f 70d1 	mov.w	r0, r1, lsr #31
 800d464:	db27      	blt.n	800d4b6 <rintf+0x72>
 800d466:	4b24      	ldr	r3, [pc, #144]	; (800d4f8 <rintf+0xb4>)
 800d468:	4113      	asrs	r3, r2
 800d46a:	4219      	tst	r1, r3
 800d46c:	d018      	beq.n	800d4a0 <rintf+0x5c>
 800d46e:	085c      	lsrs	r4, r3, #1
 800d470:	ea11 0353 	ands.w	r3, r1, r3, lsr #1
 800d474:	d007      	beq.n	800d486 <rintf+0x42>
 800d476:	f44f 1300 	mov.w	r3, #2097152	; 0x200000
 800d47a:	ea21 0104 	bic.w	r1, r1, r4
 800d47e:	4113      	asrs	r3, r2
 800d480:	430b      	orrs	r3, r1
 800d482:	ee00 3a10 	vmov	s0, r3
 800d486:	4b1d      	ldr	r3, [pc, #116]	; (800d4fc <rintf+0xb8>)
 800d488:	eb03 0080 	add.w	r0, r3, r0, lsl #2
 800d48c:	edd0 7a00 	vldr	s15, [r0]
 800d490:	ee37 0a80 	vadd.f32	s0, s15, s0
 800d494:	ed8d 0a01 	vstr	s0, [sp, #4]
 800d498:	ed9d 0a01 	vldr	s0, [sp, #4]
 800d49c:	ee30 0a67 	vsub.f32	s0, s0, s15
 800d4a0:	b003      	add	sp, #12
 800d4a2:	f85d 4b04 	ldr.w	r4, [sp], #4
 800d4a6:	4770      	bx	lr
 800d4a8:	4770      	bx	lr
 800d4aa:	f1b3 4fff 	cmp.w	r3, #2139095040	; 0x7f800000
 800d4ae:	d3fb      	bcc.n	800d4a8 <rintf+0x64>
 800d4b0:	ee30 0a00 	vadd.f32	s0, s0, s0
 800d4b4:	4770      	bx	lr
 800d4b6:	f3c1 0316 	ubfx	r3, r1, #0, #23
 800d4ba:	425b      	negs	r3, r3
 800d4bc:	4a0f      	ldr	r2, [pc, #60]	; (800d4fc <rintf+0xb8>)
 800d4be:	0a5b      	lsrs	r3, r3, #9
 800d4c0:	0d09      	lsrs	r1, r1, #20
 800d4c2:	f403 0380 	and.w	r3, r3, #4194304	; 0x400000
 800d4c6:	0509      	lsls	r1, r1, #20
 800d4c8:	4319      	orrs	r1, r3
 800d4ca:	eb02 0280 	add.w	r2, r2, r0, lsl #2
 800d4ce:	edd2 6a00 	vldr	s13, [r2]
 800d4d2:	ee07 1a90 	vmov	s15, r1
 800d4d6:	ee36 7aa7 	vadd.f32	s14, s13, s15
 800d4da:	ed8d 7a01 	vstr	s14, [sp, #4]
 800d4de:	eddd 7a01 	vldr	s15, [sp, #4]
 800d4e2:	ee77 7ae6 	vsub.f32	s15, s15, s13
 800d4e6:	ee17 3a90 	vmov	r3, s15
 800d4ea:	f023 4300 	bic.w	r3, r3, #2147483648	; 0x80000000
 800d4ee:	ea43 73c0 	orr.w	r3, r3, r0, lsl #31
 800d4f2:	ee00 3a10 	vmov	s0, r3
 800d4f6:	e7d3      	b.n	800d4a0 <rintf+0x5c>
 800d4f8:	007fffff 	.word	0x007fffff
 800d4fc:	0801dd14 	.word	0x0801dd14

0800d500 <sinf>:
sinf():
 800d500:	b500      	push	{lr}
 800d502:	ee10 3a10 	vmov	r3, s0
 800d506:	4a21      	ldr	r2, [pc, #132]	; (800d58c <sinf+0x8c>)
 800d508:	f023 4300 	bic.w	r3, r3, #2147483648	; 0x80000000
 800d50c:	4293      	cmp	r3, r2
 800d50e:	b083      	sub	sp, #12
 800d510:	dd1a      	ble.n	800d548 <sinf+0x48>
 800d512:	f1b3 4fff 	cmp.w	r3, #2139095040	; 0x7f800000
 800d516:	db04      	blt.n	800d522 <sinf+0x22>
 800d518:	ee30 0a40 	vsub.f32	s0, s0, s0
 800d51c:	b003      	add	sp, #12
 800d51e:	f85d fb04 	ldr.w	pc, [sp], #4
 800d522:	4668      	mov	r0, sp
 800d524:	f000 fbd6 	bl	800dcd4 <__ieee754_rem_pio2f>
 800d528:	f000 0003 	and.w	r0, r0, #3
 800d52c:	2801      	cmp	r0, #1
 800d52e:	d013      	beq.n	800d558 <sinf+0x58>
 800d530:	2802      	cmp	r0, #2
 800d532:	d020      	beq.n	800d576 <sinf+0x76>
 800d534:	b1b8      	cbz	r0, 800d566 <sinf+0x66>
 800d536:	eddd 0a01 	vldr	s1, [sp, #4]
 800d53a:	ed9d 0a00 	vldr	s0, [sp]
 800d53e:	f000 fd1b 	bl	800df78 <__kernel_cosf>
 800d542:	eeb1 0a40 	vneg.f32	s0, s0
 800d546:	e7e9      	b.n	800d51c <sinf+0x1c>
 800d548:	eddf 0a11 	vldr	s1, [pc, #68]	; 800d590 <sinf+0x90>
 800d54c:	2000      	movs	r0, #0
 800d54e:	f001 f8d5 	bl	800e6fc <__kernel_sinf>
 800d552:	b003      	add	sp, #12
 800d554:	f85d fb04 	ldr.w	pc, [sp], #4
 800d558:	eddd 0a01 	vldr	s1, [sp, #4]
 800d55c:	ed9d 0a00 	vldr	s0, [sp]
 800d560:	f000 fd0a 	bl	800df78 <__kernel_cosf>
 800d564:	e7da      	b.n	800d51c <sinf+0x1c>
 800d566:	eddd 0a01 	vldr	s1, [sp, #4]
 800d56a:	ed9d 0a00 	vldr	s0, [sp]
 800d56e:	2001      	movs	r0, #1
 800d570:	f001 f8c4 	bl	800e6fc <__kernel_sinf>
 800d574:	e7d2      	b.n	800d51c <sinf+0x1c>
 800d576:	eddd 0a01 	vldr	s1, [sp, #4]
 800d57a:	ed9d 0a00 	vldr	s0, [sp]
 800d57e:	2001      	movs	r0, #1
 800d580:	f001 f8bc 	bl	800e6fc <__kernel_sinf>
 800d584:	eeb1 0a40 	vneg.f32	s0, s0
 800d588:	e7c8      	b.n	800d51c <sinf+0x1c>
 800d58a:	bf00      	nop
 800d58c:	3f490fd8 	.word	0x3f490fd8
 800d590:	00000000 	.word	0x00000000

0800d594 <powf>:
powf():
 800d594:	b508      	push	{r3, lr}
 800d596:	ed2d 8b04 	vpush	{d8-d9}
 800d59a:	eef0 8a40 	vmov.f32	s17, s0
 800d59e:	eeb0 8a60 	vmov.f32	s16, s1
 800d5a2:	f000 f897 	bl	800d6d4 <__ieee754_powf>
 800d5a6:	4b47      	ldr	r3, [pc, #284]	; (800d6c4 <powf+0x130>)
 800d5a8:	f993 3000 	ldrsb.w	r3, [r3]
 800d5ac:	3301      	adds	r3, #1
 800d5ae:	eeb0 9a40 	vmov.f32	s18, s0
 800d5b2:	d01f      	beq.n	800d5f4 <powf+0x60>
 800d5b4:	eeb4 8a48 	vcmp.f32	s16, s16
 800d5b8:	eef1 fa10 	vmrs	APSR_nzcv, fpscr
 800d5bc:	d61a      	bvs.n	800d5f4 <powf+0x60>
 800d5be:	eef4 8a68 	vcmp.f32	s17, s17
 800d5c2:	eef1 fa10 	vmrs	APSR_nzcv, fpscr
 800d5c6:	d659      	bvs.n	800d67c <powf+0xe8>
 800d5c8:	eddf 9a3f 	vldr	s19, [pc, #252]	; 800d6c8 <powf+0x134>
 800d5cc:	eef4 8a69 	vcmp.f32	s17, s19
 800d5d0:	eef1 fa10 	vmrs	APSR_nzcv, fpscr
 800d5d4:	d113      	bne.n	800d5fe <powf+0x6a>
 800d5d6:	eeb4 8a69 	vcmp.f32	s16, s19
 800d5da:	eef1 fa10 	vmrs	APSR_nzcv, fpscr
 800d5de:	d029      	beq.n	800d634 <powf+0xa0>
 800d5e0:	eeb0 0a48 	vmov.f32	s0, s16
 800d5e4:	f001 f8da 	bl	800e79c <finitef>
 800d5e8:	b120      	cbz	r0, 800d5f4 <powf+0x60>
 800d5ea:	eeb4 8ae9 	vcmpe.f32	s16, s19
 800d5ee:	eef1 fa10 	vmrs	APSR_nzcv, fpscr
 800d5f2:	d44d      	bmi.n	800d690 <powf+0xfc>
 800d5f4:	eeb0 0a49 	vmov.f32	s0, s18
 800d5f8:	ecbd 8b04 	vpop	{d8-d9}
 800d5fc:	bd08      	pop	{r3, pc}
 800d5fe:	f001 f8cd 	bl	800e79c <finitef>
 800d602:	b1f0      	cbz	r0, 800d642 <powf+0xae>
 800d604:	eeb5 9a40 	vcmp.f32	s18, #0.0
 800d608:	eef1 fa10 	vmrs	APSR_nzcv, fpscr
 800d60c:	d1f2      	bne.n	800d5f4 <powf+0x60>
 800d60e:	eeb0 0a68 	vmov.f32	s0, s17
 800d612:	f001 f8c3 	bl	800e79c <finitef>
 800d616:	2800      	cmp	r0, #0
 800d618:	d0ec      	beq.n	800d5f4 <powf+0x60>
 800d61a:	eeb0 0a48 	vmov.f32	s0, s16
 800d61e:	f001 f8bd 	bl	800e79c <finitef>
 800d622:	2800      	cmp	r0, #0
 800d624:	d0e6      	beq.n	800d5f4 <powf+0x60>
 800d626:	f001 f945 	bl	800e8b4 <__errno>
 800d62a:	2322      	movs	r3, #34	; 0x22
 800d62c:	ed9f 9a26 	vldr	s18, [pc, #152]	; 800d6c8 <powf+0x134>
 800d630:	6003      	str	r3, [r0, #0]
 800d632:	e7df      	b.n	800d5f4 <powf+0x60>
 800d634:	eeb7 9a00 	vmov.f32	s18, #112	; 0x3f800000  1.0
 800d638:	eeb0 0a49 	vmov.f32	s0, s18
 800d63c:	ecbd 8b04 	vpop	{d8-d9}
 800d640:	bd08      	pop	{r3, pc}
 800d642:	eeb0 0a68 	vmov.f32	s0, s17
 800d646:	f001 f8a9 	bl	800e79c <finitef>
 800d64a:	2800      	cmp	r0, #0
 800d64c:	d0da      	beq.n	800d604 <powf+0x70>
 800d64e:	eeb0 0a48 	vmov.f32	s0, s16
 800d652:	f001 f8a3 	bl	800e79c <finitef>
 800d656:	2800      	cmp	r0, #0
 800d658:	d0d4      	beq.n	800d604 <powf+0x70>
 800d65a:	eeb4 9a49 	vcmp.f32	s18, s18
 800d65e:	eef1 fa10 	vmrs	APSR_nzcv, fpscr
 800d662:	d628      	bvs.n	800d6b6 <powf+0x122>
 800d664:	f001 f926 	bl	800e8b4 <__errno>
 800d668:	eef5 8ac0 	vcmpe.f32	s17, #0.0
 800d66c:	2322      	movs	r3, #34	; 0x22
 800d66e:	eef1 fa10 	vmrs	APSR_nzcv, fpscr
 800d672:	6003      	str	r3, [r0, #0]
 800d674:	d413      	bmi.n	800d69e <powf+0x10a>
 800d676:	ed9f 9a15 	vldr	s18, [pc, #84]	; 800d6cc <powf+0x138>
 800d67a:	e7bb      	b.n	800d5f4 <powf+0x60>
 800d67c:	eeb5 8a40 	vcmp.f32	s16, #0.0
 800d680:	eef1 fa10 	vmrs	APSR_nzcv, fpscr
 800d684:	eef7 7a00 	vmov.f32	s15, #112	; 0x3f800000  1.0
 800d688:	bf08      	it	eq
 800d68a:	eeb0 9a67 	vmoveq.f32	s18, s15
 800d68e:	e7b1      	b.n	800d5f4 <powf+0x60>
 800d690:	f001 f910 	bl	800e8b4 <__errno>
 800d694:	2321      	movs	r3, #33	; 0x21
 800d696:	ed9f 9a0e 	vldr	s18, [pc, #56]	; 800d6d0 <powf+0x13c>
 800d69a:	6003      	str	r3, [r0, #0]
 800d69c:	e7aa      	b.n	800d5f4 <powf+0x60>
 800d69e:	eeb0 0a48 	vmov.f32	s0, s16
 800d6a2:	f7ff fecf 	bl	800d444 <rintf>
 800d6a6:	eeb4 0a48 	vcmp.f32	s0, s16
 800d6aa:	eef1 fa10 	vmrs	APSR_nzcv, fpscr
 800d6ae:	d0e2      	beq.n	800d676 <powf+0xe2>
 800d6b0:	ed9f 9a07 	vldr	s18, [pc, #28]	; 800d6d0 <powf+0x13c>
 800d6b4:	e79e      	b.n	800d5f4 <powf+0x60>
 800d6b6:	f001 f8fd 	bl	800e8b4 <__errno>
 800d6ba:	2321      	movs	r3, #33	; 0x21
 800d6bc:	ee89 9aa9 	vdiv.f32	s18, s19, s19
 800d6c0:	6003      	str	r3, [r0, #0]
 800d6c2:	e797      	b.n	800d5f4 <powf+0x60>
 800d6c4:	20000061 	.word	0x20000061
 800d6c8:	00000000 	.word	0x00000000
 800d6cc:	7f800000 	.word	0x7f800000
 800d6d0:	ff800000 	.word	0xff800000

0800d6d4 <__ieee754_powf>:
__ieee754_powf():
 800d6d4:	e92d 47f0 	stmdb	sp!, {r4, r5, r6, r7, r8, r9, sl, lr}
 800d6d8:	ee10 4a90 	vmov	r4, s1
 800d6dc:	f034 4800 	bics.w	r8, r4, #2147483648	; 0x80000000
 800d6e0:	ed2d 8b02 	vpush	{d8}
 800d6e4:	d015      	beq.n	800d712 <__ieee754_powf+0x3e>
 800d6e6:	ee10 5a10 	vmov	r5, s0
 800d6ea:	f025 4700 	bic.w	r7, r5, #2147483648	; 0x80000000
 800d6ee:	f1b7 4fff 	cmp.w	r7, #2139095040	; 0x7f800000
 800d6f2:	ee10 9a10 	vmov	r9, s0
 800d6f6:	dd06      	ble.n	800d706 <__ieee754_powf+0x32>
 800d6f8:	ecbd 8b02 	vpop	{d8}
 800d6fc:	48ba      	ldr	r0, [pc, #744]	; (800d9e8 <__ieee754_powf+0x314>)
 800d6fe:	e8bd 47f0 	ldmia.w	sp!, {r4, r5, r6, r7, r8, r9, sl, lr}
 800d702:	f001 b859 	b.w	800e7b8 <nanf>
 800d706:	f1b8 4fff 	cmp.w	r8, #2139095040	; 0x7f800000
 800d70a:	dd08      	ble.n	800d71e <__ieee754_powf+0x4a>
 800d70c:	f1b7 5f7e 	cmp.w	r7, #1065353216	; 0x3f800000
 800d710:	d1f2      	bne.n	800d6f8 <__ieee754_powf+0x24>
 800d712:	eeb7 0a00 	vmov.f32	s0, #112	; 0x3f800000  1.0
 800d716:	ecbd 8b02 	vpop	{d8}
 800d71a:	e8bd 87f0 	ldmia.w	sp!, {r4, r5, r6, r7, r8, r9, sl, pc}
 800d71e:	2d00      	cmp	r5, #0
 800d720:	ee10 6a90 	vmov	r6, s1
 800d724:	f2c0 80f6 	blt.w	800d914 <__ieee754_powf+0x240>
 800d728:	f04f 0a00 	mov.w	sl, #0
 800d72c:	f1b8 4fff 	cmp.w	r8, #2139095040	; 0x7f800000
 800d730:	f000 8104 	beq.w	800d93c <__ieee754_powf+0x268>
 800d734:	f1b8 5f7e 	cmp.w	r8, #1065353216	; 0x3f800000
 800d738:	f000 812a 	beq.w	800d990 <__ieee754_powf+0x2bc>
 800d73c:	f1b6 4f80 	cmp.w	r6, #1073741824	; 0x40000000
 800d740:	f000 813f 	beq.w	800d9c2 <__ieee754_powf+0x2ee>
 800d744:	f1b6 5f7c 	cmp.w	r6, #1056964608	; 0x3f000000
 800d748:	ee00 5a10 	vmov	s0, r5
 800d74c:	f040 8103 	bne.w	800d956 <__ieee754_powf+0x282>
 800d750:	f1b9 0f00 	cmp.w	r9, #0
 800d754:	f280 813a 	bge.w	800d9cc <__ieee754_powf+0x2f8>
 800d758:	f001 f818 	bl	800e78c <fabsf>
 800d75c:	f1b7 4fff 	cmp.w	r7, #2139095040	; 0x7f800000
 800d760:	f000 810b 	beq.w	800d97a <__ieee754_powf+0x2a6>
 800d764:	2f00      	cmp	r7, #0
 800d766:	f000 8104 	beq.w	800d972 <__ieee754_powf+0x29e>
 800d76a:	f1b7 5f7e 	cmp.w	r7, #1065353216	; 0x3f800000
 800d76e:	f000 80fa 	beq.w	800d966 <__ieee754_powf+0x292>
 800d772:	ea4f 72d9 	mov.w	r2, r9, lsr #31
 800d776:	3a01      	subs	r2, #1
 800d778:	ea5a 0302 	orrs.w	r3, sl, r2
 800d77c:	f000 812c 	beq.w	800d9d8 <__ieee754_powf+0x304>
 800d780:	f1b8 4f9a 	cmp.w	r8, #1291845632	; 0x4d000000
 800d784:	f340 8152 	ble.w	800da2c <__ieee754_powf+0x358>
 800d788:	4b98      	ldr	r3, [pc, #608]	; (800d9ec <__ieee754_powf+0x318>)
 800d78a:	429f      	cmp	r7, r3
 800d78c:	f340 825f 	ble.w	800dc4e <__ieee754_powf+0x57a>
 800d790:	4b97      	ldr	r3, [pc, #604]	; (800d9f0 <__ieee754_powf+0x31c>)
 800d792:	429f      	cmp	r7, r3
 800d794:	f300 8101 	bgt.w	800d99a <__ieee754_powf+0x2c6>
 800d798:	eef7 7a00 	vmov.f32	s15, #112	; 0x3f800000  1.0
 800d79c:	ee30 0a67 	vsub.f32	s0, s0, s15
 800d7a0:	eddf 6a94 	vldr	s13, [pc, #592]	; 800d9f4 <__ieee754_powf+0x320>
 800d7a4:	eddf 7a94 	vldr	s15, [pc, #592]	; 800d9f8 <__ieee754_powf+0x324>
 800d7a8:	eddf 5a94 	vldr	s11, [pc, #592]	; 800d9fc <__ieee754_powf+0x328>
 800d7ac:	ed9f 6a94 	vldr	s12, [pc, #592]	; 800da00 <__ieee754_powf+0x32c>
 800d7b0:	eeb5 7a00 	vmov.f32	s14, #80	; 0x3e800000  0.250
 800d7b4:	eee0 6a47 	vfms.f32	s13, s0, s14
 800d7b8:	eeb6 7a00 	vmov.f32	s14, #96	; 0x3f000000  0.5
 800d7bc:	eea6 7ac0 	vfms.f32	s14, s13, s0
 800d7c0:	eef0 6a47 	vmov.f32	s13, s14
 800d7c4:	ee20 7a00 	vmul.f32	s14, s0, s0
 800d7c8:	ee27 7a26 	vmul.f32	s14, s14, s13
 800d7cc:	ee67 7ac7 	vnmul.f32	s15, s15, s14
 800d7d0:	eee0 7a25 	vfma.f32	s15, s0, s11
 800d7d4:	eef0 6a67 	vmov.f32	s13, s15
 800d7d8:	eee0 6a06 	vfma.f32	s13, s0, s12
 800d7dc:	ee16 3a90 	vmov	r3, s13
 800d7e0:	f423 637f 	bic.w	r3, r3, #4080	; 0xff0
 800d7e4:	f023 030f 	bic.w	r3, r3, #15
 800d7e8:	ee07 3a10 	vmov	s14, r3
 800d7ec:	eea0 7a46 	vfms.f32	s14, s0, s12
 800d7f0:	ee06 3a90 	vmov	s13, r3
 800d7f4:	ee77 7ac7 	vsub.f32	s15, s15, s14
 800d7f8:	f426 667f 	bic.w	r6, r6, #4080	; 0xff0
 800d7fc:	f026 060f 	bic.w	r6, r6, #15
 800d800:	ee07 4a10 	vmov	s14, r4
 800d804:	ee06 6a10 	vmov	s12, r6
 800d808:	ee67 7a87 	vmul.f32	s15, s15, s14
 800d80c:	ee37 6a46 	vsub.f32	s12, s14, s12
 800d810:	ee07 6a10 	vmov	s14, r6
 800d814:	eee6 7a26 	vfma.f32	s15, s12, s13
 800d818:	f10a 3aff 	add.w	sl, sl, #4294967295	; 0xffffffff
 800d81c:	ea5a 0302 	orrs.w	r3, sl, r2
 800d820:	ee26 7a87 	vmul.f32	s14, s13, s14
 800d824:	eeb7 0a00 	vmov.f32	s0, #112	; 0x3f800000  1.0
 800d828:	ee77 6a87 	vadd.f32	s13, s15, s14
 800d82c:	eebf 6a00 	vmov.f32	s12, #240	; 0xbf800000 -1.0
 800d830:	ee16 3a90 	vmov	r3, s13
 800d834:	bf0c      	ite	eq
 800d836:	eeb0 8a46 	vmoveq.f32	s16, s12
 800d83a:	eeb0 8a40 	vmovne.f32	s16, s0
 800d83e:	2b00      	cmp	r3, #0
 800d840:	f023 4200 	bic.w	r2, r3, #2147483648	; 0x80000000
 800d844:	f340 81b9 	ble.w	800dbba <__ieee754_powf+0x4e6>
 800d848:	f1b2 4f86 	cmp.w	r2, #1124073472	; 0x43000000
 800d84c:	f300 81f8 	bgt.w	800dc40 <__ieee754_powf+0x56c>
 800d850:	f000 81eb 	beq.w	800dc2a <__ieee754_powf+0x556>
 800d854:	f1b2 5f7c 	cmp.w	r2, #1056964608	; 0x3f000000
 800d858:	f300 81bb 	bgt.w	800dbd2 <__ieee754_powf+0x4fe>
 800d85c:	2200      	movs	r2, #0
 800d85e:	4610      	mov	r0, r2
 800d860:	f423 637f 	bic.w	r3, r3, #4080	; 0xff0
 800d864:	f023 030f 	bic.w	r3, r3, #15
 800d868:	ee06 3a10 	vmov	s12, r3
 800d86c:	eddf 6a65 	vldr	s13, [pc, #404]	; 800da04 <__ieee754_powf+0x330>
 800d870:	eddf 5a65 	vldr	s11, [pc, #404]	; 800da08 <__ieee754_powf+0x334>
 800d874:	ed9f 3a65 	vldr	s6, [pc, #404]	; 800da0c <__ieee754_powf+0x338>
 800d878:	eddf 3a65 	vldr	s7, [pc, #404]	; 800da10 <__ieee754_powf+0x33c>
 800d87c:	ed9f 2a65 	vldr	s4, [pc, #404]	; 800da14 <__ieee754_powf+0x340>
 800d880:	ed9f 4a65 	vldr	s8, [pc, #404]	; 800da18 <__ieee754_powf+0x344>
 800d884:	eddf 4a65 	vldr	s9, [pc, #404]	; 800da1c <__ieee754_powf+0x348>
 800d888:	ed9f 5a65 	vldr	s10, [pc, #404]	; 800da20 <__ieee754_powf+0x34c>
 800d88c:	ee36 7a47 	vsub.f32	s14, s12, s14
 800d890:	eef0 2a00 	vmov.f32	s5, #0	; 0x40000000  2.0
 800d894:	ee77 7ac7 	vsub.f32	s15, s15, s14
 800d898:	ee26 7a26 	vmul.f32	s14, s12, s13
 800d89c:	eea7 7aa5 	vfma.f32	s14, s15, s11
 800d8a0:	eef7 5a00 	vmov.f32	s11, #112	; 0x3f800000  1.0
 800d8a4:	eef0 7a47 	vmov.f32	s15, s14
 800d8a8:	eea6 7a03 	vfma.f32	s14, s12, s6
 800d8ac:	ee67 6a07 	vmul.f32	s13, s14, s14
 800d8b0:	eef0 1a47 	vmov.f32	s3, s14
 800d8b4:	eee6 1a43 	vfms.f32	s3, s12, s6
 800d8b8:	eeb0 6a63 	vmov.f32	s12, s7
 800d8bc:	eea6 6a82 	vfma.f32	s12, s13, s4
 800d8c0:	ee77 7ae1 	vsub.f32	s15, s15, s3
 800d8c4:	eea6 4a26 	vfma.f32	s8, s12, s13
 800d8c8:	eee7 7a27 	vfma.f32	s15, s14, s15
 800d8cc:	eee4 4a26 	vfma.f32	s9, s8, s13
 800d8d0:	eea4 5aa6 	vfma.f32	s10, s9, s13
 800d8d4:	eeb0 6a45 	vmov.f32	s12, s10
 800d8d8:	eeb0 5a47 	vmov.f32	s10, s14
 800d8dc:	eea6 5a66 	vfms.f32	s10, s12, s13
 800d8e0:	eef0 6a45 	vmov.f32	s13, s10
 800d8e4:	ee36 6ae2 	vsub.f32	s12, s13, s5
 800d8e8:	ee27 5a05 	vmul.f32	s10, s14, s10
 800d8ec:	eec5 6a06 	vdiv.f32	s13, s10, s12
 800d8f0:	ee76 7ae7 	vsub.f32	s15, s13, s15
 800d8f4:	ee37 7ac7 	vsub.f32	s14, s15, s14
 800d8f8:	ee35 0ac7 	vsub.f32	s0, s11, s14
 800d8fc:	ee10 3a10 	vmov	r3, s0
 800d900:	4413      	add	r3, r2
 800d902:	f5b3 0f00 	cmp.w	r3, #8388608	; 0x800000
 800d906:	f2c0 81ba 	blt.w	800dc7e <__ieee754_powf+0x5aa>
 800d90a:	ee00 3a10 	vmov	s0, r3
 800d90e:	ee20 0a08 	vmul.f32	s0, s0, s16
 800d912:	e700      	b.n	800d716 <__ieee754_powf+0x42>
 800d914:	f1b8 4f97 	cmp.w	r8, #1266679808	; 0x4b800000
 800d918:	da1a      	bge.n	800d950 <__ieee754_powf+0x27c>
 800d91a:	f1b8 5f7e 	cmp.w	r8, #1065353216	; 0x3f800000
 800d91e:	db0a      	blt.n	800d936 <__ieee754_powf+0x262>
 800d920:	ea4f 53e8 	mov.w	r3, r8, asr #23
 800d924:	f1c3 0396 	rsb	r3, r3, #150	; 0x96
 800d928:	fa48 f203 	asr.w	r2, r8, r3
 800d92c:	fa02 f303 	lsl.w	r3, r2, r3
 800d930:	4543      	cmp	r3, r8
 800d932:	f000 813d 	beq.w	800dbb0 <__ieee754_powf+0x4dc>
 800d936:	f04f 0a00 	mov.w	sl, #0
 800d93a:	e6fb      	b.n	800d734 <__ieee754_powf+0x60>
 800d93c:	f1b7 5f7e 	cmp.w	r7, #1065353216	; 0x3f800000
 800d940:	f43f aee7 	beq.w	800d712 <__ieee754_powf+0x3e>
 800d944:	dd2f      	ble.n	800d9a6 <__ieee754_powf+0x2d2>
 800d946:	2e00      	cmp	r6, #0
 800d948:	db2a      	blt.n	800d9a0 <__ieee754_powf+0x2cc>
 800d94a:	ee00 4a10 	vmov	s0, r4
 800d94e:	e6e2      	b.n	800d716 <__ieee754_powf+0x42>
 800d950:	f04f 0a02 	mov.w	sl, #2
 800d954:	e6ea      	b.n	800d72c <__ieee754_powf+0x58>
 800d956:	f000 ff19 	bl	800e78c <fabsf>
 800d95a:	f1b7 4fff 	cmp.w	r7, #2139095040	; 0x7f800000
 800d95e:	d002      	beq.n	800d966 <__ieee754_powf+0x292>
 800d960:	2f00      	cmp	r7, #0
 800d962:	f47f af02 	bne.w	800d76a <__ieee754_powf+0x96>
 800d966:	2e00      	cmp	r6, #0
 800d968:	bfbc      	itt	lt
 800d96a:	eef7 7a00 	vmovlt.f32	s15, #112	; 0x3f800000  1.0
 800d96e:	ee87 0a80 	vdivlt.f32	s0, s15, s0
 800d972:	f1b9 0f00 	cmp.w	r9, #0
 800d976:	f6bf aece 	bge.w	800d716 <__ieee754_powf+0x42>
 800d97a:	f1a7 577e 	sub.w	r7, r7, #1065353216	; 0x3f800000
 800d97e:	ea57 030a 	orrs.w	r3, r7, sl
 800d982:	f040 810e 	bne.w	800dba2 <__ieee754_powf+0x4ce>
 800d986:	ee70 7a40 	vsub.f32	s15, s0, s0
 800d98a:	ee87 0aa7 	vdiv.f32	s0, s15, s15
 800d98e:	e6c2      	b.n	800d716 <__ieee754_powf+0x42>
 800d990:	2e00      	cmp	r6, #0
 800d992:	db0f      	blt.n	800d9b4 <__ieee754_powf+0x2e0>
 800d994:	ee00 5a10 	vmov	s0, r5
 800d998:	e6bd      	b.n	800d716 <__ieee754_powf+0x42>
 800d99a:	2e00      	cmp	r6, #0
 800d99c:	f300 815a 	bgt.w	800dc54 <__ieee754_powf+0x580>
 800d9a0:	ed9f 0a20 	vldr	s0, [pc, #128]	; 800da24 <__ieee754_powf+0x350>
 800d9a4:	e6b7      	b.n	800d716 <__ieee754_powf+0x42>
 800d9a6:	2e00      	cmp	r6, #0
 800d9a8:	dafa      	bge.n	800d9a0 <__ieee754_powf+0x2cc>
 800d9aa:	ee07 4a90 	vmov	s15, r4
 800d9ae:	eeb1 0a67 	vneg.f32	s0, s15
 800d9b2:	e6b0      	b.n	800d716 <__ieee754_powf+0x42>
 800d9b4:	ee07 5a10 	vmov	s14, r5
 800d9b8:	eef7 7a00 	vmov.f32	s15, #112	; 0x3f800000  1.0
 800d9bc:	ee87 0a87 	vdiv.f32	s0, s15, s14
 800d9c0:	e6a9      	b.n	800d716 <__ieee754_powf+0x42>
 800d9c2:	ee07 5a90 	vmov	s15, r5
 800d9c6:	ee27 0aa7 	vmul.f32	s0, s15, s15
 800d9ca:	e6a4      	b.n	800d716 <__ieee754_powf+0x42>
 800d9cc:	ecbd 8b02 	vpop	{d8}
 800d9d0:	e8bd 47f0 	ldmia.w	sp!, {r4, r5, r6, r7, r8, r9, sl, lr}
 800d9d4:	f000 bacc 	b.w	800df70 <__ieee754_sqrtf>
 800d9d8:	ee07 5a90 	vmov	s15, r5
 800d9dc:	ee77 7ae7 	vsub.f32	s15, s15, s15
 800d9e0:	ee87 0aa7 	vdiv.f32	s0, s15, s15
 800d9e4:	e697      	b.n	800d716 <__ieee754_powf+0x42>
 800d9e6:	bf00      	nop
 800d9e8:	0800f384 	.word	0x0800f384
 800d9ec:	3f7ffff7 	.word	0x3f7ffff7
 800d9f0:	3f800007 	.word	0x3f800007
 800d9f4:	3eaaaaab 	.word	0x3eaaaaab
 800d9f8:	3fb8aa3b 	.word	0x3fb8aa3b
 800d9fc:	36eca570 	.word	0x36eca570
 800da00:	3fb8aa00 	.word	0x3fb8aa00
 800da04:	35bfbe8c 	.word	0x35bfbe8c
 800da08:	3f317218 	.word	0x3f317218
 800da0c:	3f317200 	.word	0x3f317200
 800da10:	b5ddea0e 	.word	0xb5ddea0e
 800da14:	3331bb4c 	.word	0x3331bb4c
 800da18:	388ab355 	.word	0x388ab355
 800da1c:	bb360b61 	.word	0xbb360b61
 800da20:	3e2aaaab 	.word	0x3e2aaaab
 800da24:	00000000 	.word	0x00000000
 800da28:	4b800000 	.word	0x4b800000
 800da2c:	f019 4fff 	tst.w	r9, #2139095040	; 0x7f800000
 800da30:	f040 80f9 	bne.w	800dc26 <__ieee754_powf+0x552>
 800da34:	ed5f 7a04 	vldr	s15, [pc, #-16]	; 800da28 <__ieee754_powf+0x354>
 800da38:	ee60 7a27 	vmul.f32	s15, s0, s15
 800da3c:	f06f 0117 	mvn.w	r1, #23
 800da40:	ee17 7a90 	vmov	r7, s15
 800da44:	488f      	ldr	r0, [pc, #572]	; (800dc84 <__ieee754_powf+0x5b0>)
 800da46:	15fb      	asrs	r3, r7, #23
 800da48:	f3c7 0716 	ubfx	r7, r7, #0, #23
 800da4c:	3b7f      	subs	r3, #127	; 0x7f
 800da4e:	4287      	cmp	r7, r0
 800da50:	440b      	add	r3, r1
 800da52:	f047 517e 	orr.w	r1, r7, #1065353216	; 0x3f800000
 800da56:	f340 80de 	ble.w	800dc16 <__ieee754_powf+0x542>
 800da5a:	488b      	ldr	r0, [pc, #556]	; (800dc88 <__ieee754_powf+0x5b4>)
 800da5c:	4287      	cmp	r7, r0
 800da5e:	f340 80fe 	ble.w	800dc5e <__ieee754_powf+0x58a>
 800da62:	eddf 4a8a 	vldr	s9, [pc, #552]	; 800dc8c <__ieee754_powf+0x5b8>
 800da66:	3301      	adds	r3, #1
 800da68:	f5a1 0100 	sub.w	r1, r1, #8388608	; 0x800000
 800da6c:	eef0 3a64 	vmov.f32	s7, s9
 800da70:	2000      	movs	r0, #0
 800da72:	eeb7 6a00 	vmov.f32	s12, #112	; 0x3f800000  1.0
 800da76:	ee06 1a90 	vmov	s13, r1
 800da7a:	ee76 7a86 	vadd.f32	s15, s13, s12
 800da7e:	eeb7 7a00 	vmov.f32	s14, #112	; 0x3f800000  1.0
 800da82:	ee87 8a27 	vdiv.f32	s16, s14, s15
 800da86:	1049      	asrs	r1, r1, #1
 800da88:	f041 5100 	orr.w	r1, r1, #536870912	; 0x20000000
 800da8c:	f501 2180 	add.w	r1, r1, #262144	; 0x40000
 800da90:	4401      	add	r1, r0
 800da92:	ee36 7ac6 	vsub.f32	s14, s13, s12
 800da96:	ee07 1a90 	vmov	s15, r1
 800da9a:	ee27 2a08 	vmul.f32	s4, s14, s16
 800da9e:	ee77 5ac6 	vsub.f32	s11, s15, s12
 800daa2:	ed9f 4a7b 	vldr	s8, [pc, #492]	; 800dc90 <__ieee754_powf+0x5bc>
 800daa6:	497b      	ldr	r1, [pc, #492]	; (800dc94 <__ieee754_powf+0x5c0>)
 800daa8:	eddf 8a7b 	vldr	s17, [pc, #492]	; 800dc98 <__ieee754_powf+0x5c4>
 800daac:	ed9f 0a7b 	vldr	s0, [pc, #492]	; 800dc9c <__ieee754_powf+0x5c8>
 800dab0:	eddf 0a7b 	vldr	s1, [pc, #492]	; 800dca0 <__ieee754_powf+0x5cc>
 800dab4:	ed9f 1a7b 	vldr	s2, [pc, #492]	; 800dca4 <__ieee754_powf+0x5d0>
 800dab8:	eddf 1a7b 	vldr	s3, [pc, #492]	; 800dca8 <__ieee754_powf+0x5d4>
 800dabc:	eddf 2a7b 	vldr	s5, [pc, #492]	; 800dcac <__ieee754_powf+0x5d8>
 800dac0:	ed9f 3a7b 	vldr	s6, [pc, #492]	; 800dcb0 <__ieee754_powf+0x5dc>
 800dac4:	ed9f 5a7b 	vldr	s10, [pc, #492]	; 800dcb4 <__ieee754_powf+0x5e0>
 800dac8:	ee22 6a02 	vmul.f32	s12, s4, s4
 800dacc:	ee12 0a10 	vmov	r0, s4
 800dad0:	ee76 6ae5 	vsub.f32	s13, s13, s11
 800dad4:	eef0 5a44 	vmov.f32	s11, s8
 800dad8:	eee6 5a28 	vfma.f32	s11, s12, s17
 800dadc:	4008      	ands	r0, r1
 800dade:	ee04 0a10 	vmov	s8, r0
 800dae2:	eea4 7a67 	vfms.f32	s14, s8, s15
 800dae6:	eef0 7a40 	vmov.f32	s15, s0
 800daea:	eee5 7a86 	vfma.f32	s15, s11, s12
 800daee:	eea4 7a66 	vfms.f32	s14, s8, s13
 800daf2:	eee7 0a86 	vfma.f32	s1, s15, s12
 800daf6:	ee67 6a08 	vmul.f32	s13, s14, s16
 800dafa:	eeb0 7a41 	vmov.f32	s14, s2
 800dafe:	eea0 7a86 	vfma.f32	s14, s1, s12
 800db02:	ee72 7a04 	vadd.f32	s15, s4, s8
 800db06:	eee7 1a06 	vfma.f32	s3, s14, s12
 800db0a:	ee67 7aa6 	vmul.f32	s15, s15, s13
 800db0e:	ee26 6a06 	vmul.f32	s12, s12, s12
 800db12:	eef0 5a08 	vmov.f32	s11, #8	; 0x40400000  3.0
 800db16:	eee6 7a21 	vfma.f32	s15, s12, s3
 800db1a:	eeb0 6a65 	vmov.f32	s12, s11
 800db1e:	eea4 6a04 	vfma.f32	s12, s8, s8
 800db22:	ee07 3a10 	vmov	s14, r3
 800db26:	ee36 6a27 	vadd.f32	s12, s12, s15
 800db2a:	eeb8 7ac7 	vcvt.f32.s32	s14, s14
 800db2e:	ee16 3a10 	vmov	r3, s12
 800db32:	400b      	ands	r3, r1
 800db34:	ee06 3a10 	vmov	s12, r3
 800db38:	ee76 5a65 	vsub.f32	s11, s12, s11
 800db3c:	eee4 5a44 	vfms.f32	s11, s8, s8
 800db40:	ee77 7ae5 	vsub.f32	s15, s15, s11
 800db44:	ee67 7a82 	vmul.f32	s15, s15, s4
 800db48:	eee6 7a86 	vfma.f32	s15, s13, s12
 800db4c:	eef0 5a67 	vmov.f32	s11, s15
 800db50:	eee4 5a06 	vfma.f32	s11, s8, s12
 800db54:	ee15 3a90 	vmov	r3, s11
 800db58:	400b      	ands	r3, r1
 800db5a:	ee06 3a90 	vmov	s13, r3
 800db5e:	eee4 6a46 	vfms.f32	s13, s8, s12
 800db62:	ee05 3a90 	vmov	s11, r3
 800db66:	ee77 7ae6 	vsub.f32	s15, s15, s13
 800db6a:	ee67 7aa2 	vmul.f32	s15, s15, s5
 800db6e:	eee5 7a83 	vfma.f32	s15, s11, s6
 800db72:	ee77 7aa3 	vadd.f32	s15, s15, s7
 800db76:	eef0 6a67 	vmov.f32	s13, s15
 800db7a:	eee5 6a85 	vfma.f32	s13, s11, s10
 800db7e:	ee76 6aa4 	vadd.f32	s13, s13, s9
 800db82:	ee76 6a87 	vadd.f32	s13, s13, s14
 800db86:	ee16 3a90 	vmov	r3, s13
 800db8a:	400b      	ands	r3, r1
 800db8c:	ee06 3a90 	vmov	s13, r3
 800db90:	ee36 7ac7 	vsub.f32	s14, s13, s14
 800db94:	ee37 7a64 	vsub.f32	s14, s14, s9
 800db98:	eea5 7ac5 	vfms.f32	s14, s11, s10
 800db9c:	ee77 7ac7 	vsub.f32	s15, s15, s14
 800dba0:	e62a      	b.n	800d7f8 <__ieee754_powf+0x124>
 800dba2:	f1ba 0f01 	cmp.w	sl, #1
 800dba6:	f47f adb6 	bne.w	800d716 <__ieee754_powf+0x42>
 800dbaa:	eeb1 0a40 	vneg.f32	s0, s0
 800dbae:	e5b2      	b.n	800d716 <__ieee754_powf+0x42>
 800dbb0:	f002 0201 	and.w	r2, r2, #1
 800dbb4:	f1c2 0a02 	rsb	sl, r2, #2
 800dbb8:	e5bc      	b.n	800d734 <__ieee754_powf+0x60>
 800dbba:	493f      	ldr	r1, [pc, #252]	; (800dcb8 <__ieee754_powf+0x5e4>)
 800dbbc:	428a      	cmp	r2, r1
 800dbbe:	dc57      	bgt.n	800dc70 <__ieee754_powf+0x59c>
 800dbc0:	f47f ae48 	bne.w	800d854 <__ieee754_powf+0x180>
 800dbc4:	ee76 6ac7 	vsub.f32	s13, s13, s14
 800dbc8:	eef4 6ae7 	vcmpe.f32	s13, s15
 800dbcc:	eef1 fa10 	vmrs	APSR_nzcv, fpscr
 800dbd0:	da4e      	bge.n	800dc70 <__ieee754_powf+0x59c>
 800dbd2:	15d2      	asrs	r2, r2, #23
 800dbd4:	f44f 0100 	mov.w	r1, #8388608	; 0x800000
 800dbd8:	3a7e      	subs	r2, #126	; 0x7e
 800dbda:	fa41 f202 	asr.w	r2, r1, r2
 800dbde:	441a      	add	r2, r3
 800dbe0:	f3c2 51c7 	ubfx	r1, r2, #23, #8
 800dbe4:	4c35      	ldr	r4, [pc, #212]	; (800dcbc <__ieee754_powf+0x5e8>)
 800dbe6:	397f      	subs	r1, #127	; 0x7f
 800dbe8:	410c      	asrs	r4, r1
 800dbea:	f3c2 0016 	ubfx	r0, r2, #0, #23
 800dbee:	ea22 0204 	bic.w	r2, r2, r4
 800dbf2:	ee06 2a90 	vmov	s13, r2
 800dbf6:	ee37 7a66 	vsub.f32	s14, s14, s13
 800dbfa:	f1c1 0117 	rsb	r1, r1, #23
 800dbfe:	f440 0000 	orr.w	r0, r0, #8388608	; 0x800000
 800dc02:	4108      	asrs	r0, r1
 800dc04:	2b00      	cmp	r3, #0
 800dc06:	ee77 6a87 	vadd.f32	s13, s15, s14
 800dc0a:	bfb8      	it	lt
 800dc0c:	4240      	neglt	r0, r0
 800dc0e:	ee16 3a90 	vmov	r3, s13
 800dc12:	05c2      	lsls	r2, r0, #23
 800dc14:	e624      	b.n	800d860 <__ieee754_powf+0x18c>
 800dc16:	eddf 4a1d 	vldr	s9, [pc, #116]	; 800dc8c <__ieee754_powf+0x5b8>
 800dc1a:	2000      	movs	r0, #0
 800dc1c:	eef0 3a64 	vmov.f32	s7, s9
 800dc20:	eeb7 6a00 	vmov.f32	s12, #112	; 0x3f800000  1.0
 800dc24:	e727      	b.n	800da76 <__ieee754_powf+0x3a2>
 800dc26:	2100      	movs	r1, #0
 800dc28:	e70c      	b.n	800da44 <__ieee754_powf+0x370>
 800dc2a:	ed9f 6a25 	vldr	s12, [pc, #148]	; 800dcc0 <__ieee754_powf+0x5ec>
 800dc2e:	ee76 6ac7 	vsub.f32	s13, s13, s14
 800dc32:	ee37 6a86 	vadd.f32	s12, s15, s12
 800dc36:	eeb4 6ae6 	vcmpe.f32	s12, s13
 800dc3a:	eef1 fa10 	vmrs	APSR_nzcv, fpscr
 800dc3e:	ddc8      	ble.n	800dbd2 <__ieee754_powf+0x4fe>
 800dc40:	eddf 7a20 	vldr	s15, [pc, #128]	; 800dcc4 <__ieee754_powf+0x5f0>
 800dc44:	ee28 0a27 	vmul.f32	s0, s16, s15
 800dc48:	ee20 0a27 	vmul.f32	s0, s0, s15
 800dc4c:	e563      	b.n	800d716 <__ieee754_powf+0x42>
 800dc4e:	2e00      	cmp	r6, #0
 800dc50:	f6bf aea6 	bge.w	800d9a0 <__ieee754_powf+0x2cc>
 800dc54:	ed9f 0a1b 	vldr	s0, [pc, #108]	; 800dcc4 <__ieee754_powf+0x5f0>
 800dc58:	ee20 0a00 	vmul.f32	s0, s0, s0
 800dc5c:	e55b      	b.n	800d716 <__ieee754_powf+0x42>
 800dc5e:	eddf 4a1a 	vldr	s9, [pc, #104]	; 800dcc8 <__ieee754_powf+0x5f4>
 800dc62:	eddf 3a1a 	vldr	s7, [pc, #104]	; 800dccc <__ieee754_powf+0x5f8>
 800dc66:	f44f 1000 	mov.w	r0, #2097152	; 0x200000
 800dc6a:	eeb7 6a08 	vmov.f32	s12, #120	; 0x3fc00000  1.5
 800dc6e:	e702      	b.n	800da76 <__ieee754_powf+0x3a2>
 800dc70:	eddf 7a17 	vldr	s15, [pc, #92]	; 800dcd0 <__ieee754_powf+0x5fc>
 800dc74:	ee28 0a27 	vmul.f32	s0, s16, s15
 800dc78:	ee20 0a27 	vmul.f32	s0, s0, s15
 800dc7c:	e54b      	b.n	800d716 <__ieee754_powf+0x42>
 800dc7e:	f000 fda1 	bl	800e7c4 <scalbnf>
 800dc82:	e644      	b.n	800d90e <__ieee754_powf+0x23a>
 800dc84:	001cc471 	.word	0x001cc471
 800dc88:	005db3d6 	.word	0x005db3d6
 800dc8c:	00000000 	.word	0x00000000
 800dc90:	3e6c3255 	.word	0x3e6c3255
 800dc94:	fffff000 	.word	0xfffff000
 800dc98:	3e53f142 	.word	0x3e53f142
 800dc9c:	3e8ba305 	.word	0x3e8ba305
 800dca0:	3eaaaaab 	.word	0x3eaaaaab
 800dca4:	3edb6db7 	.word	0x3edb6db7
 800dca8:	3f19999a 	.word	0x3f19999a
 800dcac:	3f76384f 	.word	0x3f76384f
 800dcb0:	369dc3a0 	.word	0x369dc3a0
 800dcb4:	3f763800 	.word	0x3f763800
 800dcb8:	43160000 	.word	0x43160000
 800dcbc:	007fffff 	.word	0x007fffff
 800dcc0:	3338aa3c 	.word	0x3338aa3c
 800dcc4:	7149f2ca 	.word	0x7149f2ca
 800dcc8:	3f15c000 	.word	0x3f15c000
 800dccc:	35d1cfdc 	.word	0x35d1cfdc
 800dcd0:	0da24260 	.word	0x0da24260

0800dcd4 <__ieee754_rem_pio2f>:
__ieee754_rem_pio2f():
 800dcd4:	b570      	push	{r4, r5, r6, lr}
 800dcd6:	ee10 3a10 	vmov	r3, s0
 800dcda:	4a97      	ldr	r2, [pc, #604]	; (800df38 <__ieee754_rem_pio2f+0x264>)
 800dcdc:	f023 4400 	bic.w	r4, r3, #2147483648	; 0x80000000
 800dce0:	4294      	cmp	r4, r2
 800dce2:	b086      	sub	sp, #24
 800dce4:	4605      	mov	r5, r0
 800dce6:	dd68      	ble.n	800ddba <__ieee754_rem_pio2f+0xe6>
 800dce8:	4a94      	ldr	r2, [pc, #592]	; (800df3c <__ieee754_rem_pio2f+0x268>)
 800dcea:	4294      	cmp	r4, r2
 800dcec:	ee10 6a10 	vmov	r6, s0
 800dcf0:	dc1a      	bgt.n	800dd28 <__ieee754_rem_pio2f+0x54>
 800dcf2:	2b00      	cmp	r3, #0
 800dcf4:	eddf 7a92 	vldr	s15, [pc, #584]	; 800df40 <__ieee754_rem_pio2f+0x26c>
 800dcf8:	4a92      	ldr	r2, [pc, #584]	; (800df44 <__ieee754_rem_pio2f+0x270>)
 800dcfa:	f024 040f 	bic.w	r4, r4, #15
 800dcfe:	f340 80f4 	ble.w	800deea <__ieee754_rem_pio2f+0x216>
 800dd02:	4294      	cmp	r4, r2
 800dd04:	ee70 7a67 	vsub.f32	s15, s0, s15
 800dd08:	d066      	beq.n	800ddd8 <__ieee754_rem_pio2f+0x104>
 800dd0a:	ed9f 7a8f 	vldr	s14, [pc, #572]	; 800df48 <__ieee754_rem_pio2f+0x274>
 800dd0e:	ee77 6ac7 	vsub.f32	s13, s15, s14
 800dd12:	2001      	movs	r0, #1
 800dd14:	ee77 7ae6 	vsub.f32	s15, s15, s13
 800dd18:	edc5 6a00 	vstr	s13, [r5]
 800dd1c:	ee77 7ac7 	vsub.f32	s15, s15, s14
 800dd20:	edc5 7a01 	vstr	s15, [r5, #4]
 800dd24:	b006      	add	sp, #24
 800dd26:	bd70      	pop	{r4, r5, r6, pc}
 800dd28:	4a88      	ldr	r2, [pc, #544]	; (800df4c <__ieee754_rem_pio2f+0x278>)
 800dd2a:	4294      	cmp	r4, r2
 800dd2c:	dd67      	ble.n	800ddfe <__ieee754_rem_pio2f+0x12a>
 800dd2e:	f1b4 4fff 	cmp.w	r4, #2139095040	; 0x7f800000
 800dd32:	da49      	bge.n	800ddc8 <__ieee754_rem_pio2f+0xf4>
 800dd34:	15e2      	asrs	r2, r4, #23
 800dd36:	3a86      	subs	r2, #134	; 0x86
 800dd38:	eba4 53c2 	sub.w	r3, r4, r2, lsl #23
 800dd3c:	ee07 3a90 	vmov	s15, r3
 800dd40:	eebd 7ae7 	vcvt.s32.f32	s14, s15
 800dd44:	eddf 6a82 	vldr	s13, [pc, #520]	; 800df50 <__ieee754_rem_pio2f+0x27c>
 800dd48:	eeb8 7ac7 	vcvt.f32.s32	s14, s14
 800dd4c:	ee77 7ac7 	vsub.f32	s15, s15, s14
 800dd50:	ed8d 7a03 	vstr	s14, [sp, #12]
 800dd54:	ee67 7aa6 	vmul.f32	s15, s15, s13
 800dd58:	eebd 7ae7 	vcvt.s32.f32	s14, s15
 800dd5c:	eeb8 7ac7 	vcvt.f32.s32	s14, s14
 800dd60:	ee77 7ac7 	vsub.f32	s15, s15, s14
 800dd64:	ed8d 7a04 	vstr	s14, [sp, #16]
 800dd68:	ee67 7aa6 	vmul.f32	s15, s15, s13
 800dd6c:	eef5 7a40 	vcmp.f32	s15, #0.0
 800dd70:	eef1 fa10 	vmrs	APSR_nzcv, fpscr
 800dd74:	edcd 7a05 	vstr	s15, [sp, #20]
 800dd78:	f040 80a4 	bne.w	800dec4 <__ieee754_rem_pio2f+0x1f0>
 800dd7c:	eeb5 7a40 	vcmp.f32	s14, #0.0
 800dd80:	eef1 fa10 	vmrs	APSR_nzcv, fpscr
 800dd84:	bf14      	ite	ne
 800dd86:	2302      	movne	r3, #2
 800dd88:	2301      	moveq	r3, #1
 800dd8a:	4972      	ldr	r1, [pc, #456]	; (800df54 <__ieee754_rem_pio2f+0x280>)
 800dd8c:	9101      	str	r1, [sp, #4]
 800dd8e:	2102      	movs	r1, #2
 800dd90:	9100      	str	r1, [sp, #0]
 800dd92:	a803      	add	r0, sp, #12
 800dd94:	4629      	mov	r1, r5
 800dd96:	f000 f971 	bl	800e07c <__kernel_rem_pio2f>
 800dd9a:	2e00      	cmp	r6, #0
 800dd9c:	dac2      	bge.n	800dd24 <__ieee754_rem_pio2f+0x50>
 800dd9e:	ed95 7a00 	vldr	s14, [r5]
 800dda2:	edd5 7a01 	vldr	s15, [r5, #4]
 800dda6:	eeb1 7a47 	vneg.f32	s14, s14
 800ddaa:	eef1 7a67 	vneg.f32	s15, s15
 800ddae:	4240      	negs	r0, r0
 800ddb0:	ed85 7a00 	vstr	s14, [r5]
 800ddb4:	edc5 7a01 	vstr	s15, [r5, #4]
 800ddb8:	e7b4      	b.n	800dd24 <__ieee754_rem_pio2f+0x50>
 800ddba:	2200      	movs	r2, #0
 800ddbc:	ed85 0a00 	vstr	s0, [r5]
 800ddc0:	6042      	str	r2, [r0, #4]
 800ddc2:	2000      	movs	r0, #0
 800ddc4:	b006      	add	sp, #24
 800ddc6:	bd70      	pop	{r4, r5, r6, pc}
 800ddc8:	ee70 7a40 	vsub.f32	s15, s0, s0
 800ddcc:	2000      	movs	r0, #0
 800ddce:	edc5 7a01 	vstr	s15, [r5, #4]
 800ddd2:	edc5 7a00 	vstr	s15, [r5]
 800ddd6:	e7a5      	b.n	800dd24 <__ieee754_rem_pio2f+0x50>
 800ddd8:	eddf 6a5f 	vldr	s13, [pc, #380]	; 800df58 <__ieee754_rem_pio2f+0x284>
 800dddc:	ed9f 7a5f 	vldr	s14, [pc, #380]	; 800df5c <__ieee754_rem_pio2f+0x288>
 800dde0:	ee77 7ae6 	vsub.f32	s15, s15, s13
 800dde4:	2001      	movs	r0, #1
 800dde6:	ee77 6ac7 	vsub.f32	s13, s15, s14
 800ddea:	ee77 7ae6 	vsub.f32	s15, s15, s13
 800ddee:	edc5 6a00 	vstr	s13, [r5]
 800ddf2:	ee77 7ac7 	vsub.f32	s15, s15, s14
 800ddf6:	edc5 7a01 	vstr	s15, [r5, #4]
 800ddfa:	b006      	add	sp, #24
 800ddfc:	bd70      	pop	{r4, r5, r6, pc}
 800ddfe:	f000 fcc5 	bl	800e78c <fabsf>
 800de02:	eddf 6a57 	vldr	s13, [pc, #348]	; 800df60 <__ieee754_rem_pio2f+0x28c>
 800de06:	ed9f 6a4e 	vldr	s12, [pc, #312]	; 800df40 <__ieee754_rem_pio2f+0x26c>
 800de0a:	ed9f 7a4f 	vldr	s14, [pc, #316]	; 800df48 <__ieee754_rem_pio2f+0x274>
 800de0e:	eef6 7a00 	vmov.f32	s15, #96	; 0x3f000000  0.5
 800de12:	eee0 7a26 	vfma.f32	s15, s0, s13
 800de16:	eefd 7ae7 	vcvt.s32.f32	s15, s15
 800de1a:	ee17 0a90 	vmov	r0, s15
 800de1e:	eef8 6ae7 	vcvt.f32.s32	s13, s15
 800de22:	281f      	cmp	r0, #31
 800de24:	eea6 0ac6 	vfms.f32	s0, s13, s12
 800de28:	ee66 7a87 	vmul.f32	s15, s13, s14
 800de2c:	eeb1 6a66 	vneg.f32	s12, s13
 800de30:	dc1e      	bgt.n	800de70 <__ieee754_rem_pio2f+0x19c>
 800de32:	1e42      	subs	r2, r0, #1
 800de34:	4b4b      	ldr	r3, [pc, #300]	; (800df64 <__ieee754_rem_pio2f+0x290>)
 800de36:	f853 3022 	ldr.w	r3, [r3, r2, lsl #2]
 800de3a:	f024 02ff 	bic.w	r2, r4, #255	; 0xff
 800de3e:	429a      	cmp	r2, r3
 800de40:	ee30 7a67 	vsub.f32	s14, s0, s15
 800de44:	d016      	beq.n	800de74 <__ieee754_rem_pio2f+0x1a0>
 800de46:	ed85 7a00 	vstr	s14, [r5]
 800de4a:	ee30 0a47 	vsub.f32	s0, s0, s14
 800de4e:	2e00      	cmp	r6, #0
 800de50:	ee30 0a67 	vsub.f32	s0, s0, s15
 800de54:	ed85 0a01 	vstr	s0, [r5, #4]
 800de58:	f6bf af64 	bge.w	800dd24 <__ieee754_rem_pio2f+0x50>
 800de5c:	eeb1 7a47 	vneg.f32	s14, s14
 800de60:	eeb1 0a40 	vneg.f32	s0, s0
 800de64:	ed85 7a00 	vstr	s14, [r5]
 800de68:	ed85 0a01 	vstr	s0, [r5, #4]
 800de6c:	4240      	negs	r0, r0
 800de6e:	e759      	b.n	800dd24 <__ieee754_rem_pio2f+0x50>
 800de70:	ee30 7a67 	vsub.f32	s14, s0, s15
 800de74:	ee17 3a10 	vmov	r3, s14
 800de78:	f3c3 53c7 	ubfx	r3, r3, #23, #8
 800de7c:	ebc3 53d4 	rsb	r3, r3, r4, lsr #23
 800de80:	2b08      	cmp	r3, #8
 800de82:	ea4f 54e4 	mov.w	r4, r4, asr #23
 800de86:	ddde      	ble.n	800de46 <__ieee754_rem_pio2f+0x172>
 800de88:	eddf 7a33 	vldr	s15, [pc, #204]	; 800df58 <__ieee754_rem_pio2f+0x284>
 800de8c:	ed9f 7a33 	vldr	s14, [pc, #204]	; 800df5c <__ieee754_rem_pio2f+0x288>
 800de90:	eef0 5a40 	vmov.f32	s11, s0
 800de94:	eee6 5a27 	vfma.f32	s11, s12, s15
 800de98:	ee30 0a65 	vsub.f32	s0, s0, s11
 800de9c:	eea6 0a27 	vfma.f32	s0, s12, s15
 800dea0:	eef0 7a40 	vmov.f32	s15, s0
 800dea4:	eed6 7a87 	vfnms.f32	s15, s13, s14
 800dea8:	ee35 7ae7 	vsub.f32	s14, s11, s15
 800deac:	ee17 3a10 	vmov	r3, s14
 800deb0:	f3c3 53c7 	ubfx	r3, r3, #23, #8
 800deb4:	1ae4      	subs	r4, r4, r3
 800deb6:	2c19      	cmp	r4, #25
 800deb8:	dc06      	bgt.n	800dec8 <__ieee754_rem_pio2f+0x1f4>
 800deba:	ed85 7a00 	vstr	s14, [r5]
 800debe:	eeb0 0a65 	vmov.f32	s0, s11
 800dec2:	e7c2      	b.n	800de4a <__ieee754_rem_pio2f+0x176>
 800dec4:	2303      	movs	r3, #3
 800dec6:	e760      	b.n	800dd8a <__ieee754_rem_pio2f+0xb6>
 800dec8:	ed9f 7a27 	vldr	s14, [pc, #156]	; 800df68 <__ieee754_rem_pio2f+0x294>
 800decc:	ed9f 5a27 	vldr	s10, [pc, #156]	; 800df6c <__ieee754_rem_pio2f+0x298>
 800ded0:	eeb0 0a65 	vmov.f32	s0, s11
 800ded4:	eea6 0a07 	vfma.f32	s0, s12, s14
 800ded8:	ee75 7ac0 	vsub.f32	s15, s11, s0
 800dedc:	eee6 7a07 	vfma.f32	s15, s12, s14
 800dee0:	eed6 7a85 	vfnms.f32	s15, s13, s10
 800dee4:	ee30 7a67 	vsub.f32	s14, s0, s15
 800dee8:	e7ad      	b.n	800de46 <__ieee754_rem_pio2f+0x172>
 800deea:	4294      	cmp	r4, r2
 800deec:	ee70 7a27 	vadd.f32	s15, s0, s15
 800def0:	d00e      	beq.n	800df10 <__ieee754_rem_pio2f+0x23c>
 800def2:	ed9f 7a15 	vldr	s14, [pc, #84]	; 800df48 <__ieee754_rem_pio2f+0x274>
 800def6:	ee77 6a87 	vadd.f32	s13, s15, s14
 800defa:	f04f 30ff 	mov.w	r0, #4294967295	; 0xffffffff
 800defe:	ee77 7ae6 	vsub.f32	s15, s15, s13
 800df02:	edc5 6a00 	vstr	s13, [r5]
 800df06:	ee77 7a87 	vadd.f32	s15, s15, s14
 800df0a:	edc5 7a01 	vstr	s15, [r5, #4]
 800df0e:	e709      	b.n	800dd24 <__ieee754_rem_pio2f+0x50>
 800df10:	eddf 6a11 	vldr	s13, [pc, #68]	; 800df58 <__ieee754_rem_pio2f+0x284>
 800df14:	ed9f 7a11 	vldr	s14, [pc, #68]	; 800df5c <__ieee754_rem_pio2f+0x288>
 800df18:	ee77 7aa6 	vadd.f32	s15, s15, s13
 800df1c:	f04f 30ff 	mov.w	r0, #4294967295	; 0xffffffff
 800df20:	ee77 6a87 	vadd.f32	s13, s15, s14
 800df24:	ee77 7ae6 	vsub.f32	s15, s15, s13
 800df28:	edc5 6a00 	vstr	s13, [r5]
 800df2c:	ee77 7a87 	vadd.f32	s15, s15, s14
 800df30:	edc5 7a01 	vstr	s15, [r5, #4]
 800df34:	e6f6      	b.n	800dd24 <__ieee754_rem_pio2f+0x50>
 800df36:	bf00      	nop
 800df38:	3f490fd8 	.word	0x3f490fd8
 800df3c:	4016cbe3 	.word	0x4016cbe3
 800df40:	3fc90f80 	.word	0x3fc90f80
 800df44:	3fc90fd0 	.word	0x3fc90fd0
 800df48:	37354443 	.word	0x37354443
 800df4c:	43490f80 	.word	0x43490f80
 800df50:	43800000 	.word	0x43800000
 800df54:	0801dd9c 	.word	0x0801dd9c
 800df58:	37354400 	.word	0x37354400
 800df5c:	2e85a308 	.word	0x2e85a308
 800df60:	3f22f984 	.word	0x3f22f984
 800df64:	0801dd1c 	.word	0x0801dd1c
 800df68:	2e85a300 	.word	0x2e85a300
 800df6c:	248d3132 	.word	0x248d3132

0800df70 <__ieee754_sqrtf>:
__ieee754_sqrtf():
 800df70:	eeb1 0ac0 	vsqrt.f32	s0, s0
 800df74:	4770      	bx	lr
 800df76:	bf00      	nop

0800df78 <__kernel_cosf>:
__kernel_cosf():
 800df78:	ee10 3a10 	vmov	r3, s0
 800df7c:	f023 4300 	bic.w	r3, r3, #2147483648	; 0x80000000
 800df80:	f1b3 5f48 	cmp.w	r3, #838860800	; 0x32000000
 800df84:	da2c      	bge.n	800dfe0 <__kernel_cosf+0x68>
 800df86:	eefd 7ac0 	vcvt.s32.f32	s15, s0
 800df8a:	ee17 3a90 	vmov	r3, s15
 800df8e:	2b00      	cmp	r3, #0
 800df90:	d060      	beq.n	800e054 <__kernel_cosf+0xdc>
 800df92:	ee20 7a00 	vmul.f32	s14, s0, s0
 800df96:	eddf 4a31 	vldr	s9, [pc, #196]	; 800e05c <__kernel_cosf+0xe4>
 800df9a:	ed9f 5a31 	vldr	s10, [pc, #196]	; 800e060 <__kernel_cosf+0xe8>
 800df9e:	eddf 5a31 	vldr	s11, [pc, #196]	; 800e064 <__kernel_cosf+0xec>
 800dfa2:	ed9f 6a31 	vldr	s12, [pc, #196]	; 800e068 <__kernel_cosf+0xf0>
 800dfa6:	eddf 7a31 	vldr	s15, [pc, #196]	; 800e06c <__kernel_cosf+0xf4>
 800dfaa:	eddf 6a31 	vldr	s13, [pc, #196]	; 800e070 <__kernel_cosf+0xf8>
 800dfae:	eea7 5a24 	vfma.f32	s10, s14, s9
 800dfb2:	eee7 5a05 	vfma.f32	s11, s14, s10
 800dfb6:	eea7 6a25 	vfma.f32	s12, s14, s11
 800dfba:	eee7 7a06 	vfma.f32	s15, s14, s12
 800dfbe:	eee7 6a27 	vfma.f32	s13, s14, s15
 800dfc2:	ee67 6a26 	vmul.f32	s13, s14, s13
 800dfc6:	ee60 0ac0 	vnmul.f32	s1, s1, s0
 800dfca:	eef6 7a00 	vmov.f32	s15, #96	; 0x3f000000  0.5
 800dfce:	eee7 0a26 	vfma.f32	s1, s14, s13
 800dfd2:	eeb7 0a00 	vmov.f32	s0, #112	; 0x3f800000  1.0
 800dfd6:	eed7 0a27 	vfnms.f32	s1, s14, s15
 800dfda:	ee30 0a60 	vsub.f32	s0, s0, s1
 800dfde:	4770      	bx	lr
 800dfe0:	ee20 7a00 	vmul.f32	s14, s0, s0
 800dfe4:	eddf 4a1d 	vldr	s9, [pc, #116]	; 800e05c <__kernel_cosf+0xe4>
 800dfe8:	ed9f 5a1d 	vldr	s10, [pc, #116]	; 800e060 <__kernel_cosf+0xe8>
 800dfec:	eddf 5a1d 	vldr	s11, [pc, #116]	; 800e064 <__kernel_cosf+0xec>
 800dff0:	ed9f 6a1d 	vldr	s12, [pc, #116]	; 800e068 <__kernel_cosf+0xf0>
 800dff4:	eddf 7a1d 	vldr	s15, [pc, #116]	; 800e06c <__kernel_cosf+0xf4>
 800dff8:	eddf 6a1d 	vldr	s13, [pc, #116]	; 800e070 <__kernel_cosf+0xf8>
 800dffc:	4a1d      	ldr	r2, [pc, #116]	; (800e074 <__kernel_cosf+0xfc>)
 800dffe:	eea7 5a24 	vfma.f32	s10, s14, s9
 800e002:	4293      	cmp	r3, r2
 800e004:	eee5 5a07 	vfma.f32	s11, s10, s14
 800e008:	eea5 6a87 	vfma.f32	s12, s11, s14
 800e00c:	eee6 7a07 	vfma.f32	s15, s12, s14
 800e010:	eee7 6a87 	vfma.f32	s13, s15, s14
 800e014:	ee66 6a87 	vmul.f32	s13, s13, s14
 800e018:	ddd5      	ble.n	800dfc6 <__kernel_cosf+0x4e>
 800e01a:	4a17      	ldr	r2, [pc, #92]	; (800e078 <__kernel_cosf+0x100>)
 800e01c:	4293      	cmp	r3, r2
 800e01e:	dc14      	bgt.n	800e04a <__kernel_cosf+0xd2>
 800e020:	f103 437f 	add.w	r3, r3, #4278190080	; 0xff000000
 800e024:	ee07 3a90 	vmov	s15, r3
 800e028:	eeb7 6a00 	vmov.f32	s12, #112	; 0x3f800000  1.0
 800e02c:	ee36 6a67 	vsub.f32	s12, s12, s15
 800e030:	ee60 0ac0 	vnmul.f32	s1, s1, s0
 800e034:	eef6 5a00 	vmov.f32	s11, #96	; 0x3f000000  0.5
 800e038:	eee7 0a26 	vfma.f32	s1, s14, s13
 800e03c:	eed7 7a25 	vfnms.f32	s15, s14, s11
 800e040:	ee77 0ae0 	vsub.f32	s1, s15, s1
 800e044:	ee36 0a60 	vsub.f32	s0, s12, s1
 800e048:	4770      	bx	lr
 800e04a:	eeb6 6a07 	vmov.f32	s12, #103	; 0x3f380000  0.7187500
 800e04e:	eef5 7a02 	vmov.f32	s15, #82	; 0x3e900000  0.2812500
 800e052:	e7ed      	b.n	800e030 <__kernel_cosf+0xb8>
 800e054:	eeb7 0a00 	vmov.f32	s0, #112	; 0x3f800000  1.0
 800e058:	4770      	bx	lr
 800e05a:	bf00      	nop
 800e05c:	ad47d74e 	.word	0xad47d74e
 800e060:	310f74f6 	.word	0x310f74f6
 800e064:	b493f27c 	.word	0xb493f27c
 800e068:	37d00d01 	.word	0x37d00d01
 800e06c:	bab60b61 	.word	0xbab60b61
 800e070:	3d2aaaab 	.word	0x3d2aaaab
 800e074:	3e999999 	.word	0x3e999999
 800e078:	3f480000 	.word	0x3f480000

0800e07c <__kernel_rem_pio2f>:
__kernel_rem_pio2f():
 800e07c:	e92d 4ff0 	stmdb	sp!, {r4, r5, r6, r7, r8, r9, sl, fp, lr}
 800e080:	ed2d 8b04 	vpush	{d8-d9}
 800e084:	b0db      	sub	sp, #364	; 0x16c
 800e086:	4cab      	ldr	r4, [pc, #684]	; (800e334 <__kernel_rem_pio2f+0x2b8>)
 800e088:	9d68      	ldr	r5, [sp, #416]	; 0x1a0
 800e08a:	9107      	str	r1, [sp, #28]
 800e08c:	1d11      	adds	r1, r2, #4
 800e08e:	f854 6025 	ldr.w	r6, [r4, r5, lsl #2]
 800e092:	9304      	str	r3, [sp, #16]
 800e094:	9209      	str	r2, [sp, #36]	; 0x24
 800e096:	4683      	mov	fp, r0
 800e098:	f103 39ff 	add.w	r9, r3, #4294967295	; 0xffffffff
 800e09c:	f2c0 82b8 	blt.w	800e610 <__kernel_rem_pio2f+0x594>
 800e0a0:	1ed3      	subs	r3, r2, #3
 800e0a2:	bf44      	itt	mi
 800e0a4:	4613      	movmi	r3, r2
 800e0a6:	3304      	addmi	r3, #4
 800e0a8:	10db      	asrs	r3, r3, #3
 800e0aa:	9303      	str	r3, [sp, #12]
 800e0ac:	3301      	adds	r3, #1
 800e0ae:	00db      	lsls	r3, r3, #3
 800e0b0:	9308      	str	r3, [sp, #32]
 800e0b2:	e9dd 2308 	ldrd	r2, r3, [sp, #32]
 800e0b6:	1a9b      	subs	r3, r3, r2
 800e0b8:	9306      	str	r3, [sp, #24]
 800e0ba:	9b03      	ldr	r3, [sp, #12]
 800e0bc:	eb16 0109 	adds.w	r1, r6, r9
 800e0c0:	eba3 0309 	sub.w	r3, r3, r9
 800e0c4:	d416      	bmi.n	800e0f4 <__kernel_rem_pio2f+0x78>
 800e0c6:	3101      	adds	r1, #1
 800e0c8:	ed9f 7a9c 	vldr	s14, [pc, #624]	; 800e33c <__kernel_rem_pio2f+0x2c0>
 800e0cc:	9869      	ldr	r0, [sp, #420]	; 0x1a4
 800e0ce:	4419      	add	r1, r3
 800e0d0:	aa1e      	add	r2, sp, #120	; 0x78
 800e0d2:	2b00      	cmp	r3, #0
 800e0d4:	bfa4      	itt	ge
 800e0d6:	f850 4023 	ldrge.w	r4, [r0, r3, lsl #2]
 800e0da:	ee07 4a90 	vmovge	s15, r4
 800e0de:	f103 0301 	add.w	r3, r3, #1
 800e0e2:	bfac      	ite	ge
 800e0e4:	eef8 7ae7 	vcvtge.f32.s32	s15, s15
 800e0e8:	eef0 7a47 	vmovlt.f32	s15, s14
 800e0ec:	428b      	cmp	r3, r1
 800e0ee:	ece2 7a01 	vstmia	r2!, {s15}
 800e0f2:	d1ee      	bne.n	800e0d2 <__kernel_rem_pio2f+0x56>
 800e0f4:	2e00      	cmp	r6, #0
 800e0f6:	f2c0 82ef 	blt.w	800e6d8 <__kernel_rem_pio2f+0x65c>
 800e0fa:	9b04      	ldr	r3, [sp, #16]
 800e0fc:	a91e      	add	r1, sp, #120	; 0x78
 800e0fe:	eb01 0483 	add.w	r4, r1, r3, lsl #2
 800e102:	ad46      	add	r5, sp, #280	; 0x118
 800e104:	ea4f 0c83 	mov.w	ip, r3, lsl #2
 800e108:	4648      	mov	r0, r9
 800e10a:	18f7      	adds	r7, r6, r3
 800e10c:	eb0b 0183 	add.w	r1, fp, r3, lsl #2
 800e110:	f1b9 0f00 	cmp.w	r9, #0
 800e114:	eddf 7a89 	vldr	s15, [pc, #548]	; 800e33c <__kernel_rem_pio2f+0x2c0>
 800e118:	db09      	blt.n	800e12e <__kernel_rem_pio2f+0xb2>
 800e11a:	4622      	mov	r2, r4
 800e11c:	465b      	mov	r3, fp
 800e11e:	ecf3 6a01 	vldmia	r3!, {s13}
 800e122:	ed32 7a01 	vldmdb	r2!, {s14}
 800e126:	428b      	cmp	r3, r1
 800e128:	eee6 7a87 	vfma.f32	s15, s13, s14
 800e12c:	d1f7      	bne.n	800e11e <__kernel_rem_pio2f+0xa2>
 800e12e:	3001      	adds	r0, #1
 800e130:	42b8      	cmp	r0, r7
 800e132:	ece5 7a01 	vstmia	r5!, {s15}
 800e136:	f104 0404 	add.w	r4, r4, #4
 800e13a:	d1e9      	bne.n	800e110 <__kernel_rem_pio2f+0x94>
 800e13c:	f10d 0828 	add.w	r8, sp, #40	; 0x28
 800e140:	eb08 0386 	add.w	r3, r8, r6, lsl #2
 800e144:	3b08      	subs	r3, #8
 800e146:	9305      	str	r3, [sp, #20]
 800e148:	ed9f 9a7d 	vldr	s18, [pc, #500]	; 800e340 <__kernel_rem_pio2f+0x2c4>
 800e14c:	eddf 8a7a 	vldr	s17, [pc, #488]	; 800e338 <__kernel_rem_pio2f+0x2bc>
 800e150:	9806      	ldr	r0, [sp, #24]
 800e152:	9600      	str	r6, [sp, #0]
 800e154:	ab09      	add	r3, sp, #36	; 0x24
 800e156:	eb03 0a86 	add.w	sl, r3, r6, lsl #2
 800e15a:	eb0b 040c 	add.w	r4, fp, ip
 800e15e:	af46      	add	r7, sp, #280	; 0x118
 800e160:	465b      	mov	r3, fp
 800e162:	aa5a      	add	r2, sp, #360	; 0x168
 800e164:	eb02 0286 	add.w	r2, r2, r6, lsl #2
 800e168:	2e00      	cmp	r6, #0
 800e16a:	ed12 0a14 	vldr	s0, [r2, #-80]	; 0xffffffb0
 800e16e:	ea4f 0b86 	mov.w	fp, r6, lsl #2
 800e172:	dd16      	ble.n	800e1a2 <__kernel_rem_pio2f+0x126>
 800e174:	eb07 0286 	add.w	r2, r7, r6, lsl #2
 800e178:	4641      	mov	r1, r8
 800e17a:	ee60 7a09 	vmul.f32	s15, s0, s18
 800e17e:	eeb0 7a40 	vmov.f32	s14, s0
 800e182:	eefd 7ae7 	vcvt.s32.f32	s15, s15
 800e186:	ed72 6a01 	vldmdb	r2!, {s13}
 800e18a:	eef8 7ae7 	vcvt.f32.s32	s15, s15
 800e18e:	42ba      	cmp	r2, r7
 800e190:	eea7 7ae8 	vfms.f32	s14, s15, s17
 800e194:	ee37 0aa6 	vadd.f32	s0, s15, s13
 800e198:	eebd 7ac7 	vcvt.s32.f32	s14, s14
 800e19c:	eca1 7a01 	vstmia	r1!, {s14}
 800e1a0:	d1eb      	bne.n	800e17a <__kernel_rem_pio2f+0xfe>
 800e1a2:	e9cd 0301 	strd	r0, r3, [sp, #4]
 800e1a6:	f000 fb0d 	bl	800e7c4 <scalbnf>
 800e1aa:	eeb0 8a40 	vmov.f32	s16, s0
 800e1ae:	eeb4 0a00 	vmov.f32	s0, #64	; 0x3e000000  0.125
 800e1b2:	ee28 0a00 	vmul.f32	s0, s16, s0
 800e1b6:	f7ff f8b3 	bl	800d320 <floorf>
 800e1ba:	eef2 7a00 	vmov.f32	s15, #32	; 0x41000000  8.0
 800e1be:	eea0 8a67 	vfms.f32	s16, s0, s15
 800e1c2:	9801      	ldr	r0, [sp, #4]
 800e1c4:	9b02      	ldr	r3, [sp, #8]
 800e1c6:	eefd 9ac8 	vcvt.s32.f32	s19, s16
 800e1ca:	2800      	cmp	r0, #0
 800e1cc:	eef8 7ae9 	vcvt.f32.s32	s15, s19
 800e1d0:	ee38 8a67 	vsub.f32	s16, s16, s15
 800e1d4:	dd78      	ble.n	800e2c8 <__kernel_rem_pio2f+0x24c>
 800e1d6:	f106 3cff 	add.w	ip, r6, #4294967295	; 0xffffffff
 800e1da:	f1c0 0208 	rsb	r2, r0, #8
 800e1de:	f858 502c 	ldr.w	r5, [r8, ip, lsl #2]
 800e1e2:	fa45 f102 	asr.w	r1, r5, r2
 800e1e6:	fa01 f202 	lsl.w	r2, r1, r2
 800e1ea:	1aaa      	subs	r2, r5, r2
 800e1ec:	f848 202c 	str.w	r2, [r8, ip, lsl #2]
 800e1f0:	f1c0 0507 	rsb	r5, r0, #7
 800e1f4:	ee19 ca90 	vmov	ip, s19
 800e1f8:	fa42 f505 	asr.w	r5, r2, r5
 800e1fc:	448c      	add	ip, r1
 800e1fe:	2d00      	cmp	r5, #0
 800e200:	ee09 ca90 	vmov	s19, ip
 800e204:	dc68      	bgt.n	800e2d8 <__kernel_rem_pio2f+0x25c>
 800e206:	eeb5 8a40 	vcmp.f32	s16, #0.0
 800e20a:	eef1 fa10 	vmrs	APSR_nzcv, fpscr
 800e20e:	f040 80ca 	bne.w	800e3a6 <__kernel_rem_pio2f+0x32a>
 800e212:	9a00      	ldr	r2, [sp, #0]
 800e214:	f106 3eff 	add.w	lr, r6, #4294967295	; 0xffffffff
 800e218:	4572      	cmp	r2, lr
 800e21a:	dc10      	bgt.n	800e23e <__kernel_rem_pio2f+0x1c2>
 800e21c:	f106 4280 	add.w	r2, r6, #1073741824	; 0x40000000
 800e220:	3a01      	subs	r2, #1
 800e222:	eb08 0282 	add.w	r2, r8, r2, lsl #2
 800e226:	2100      	movs	r1, #0
 800e228:	469c      	mov	ip, r3
 800e22a:	f852 3904 	ldr.w	r3, [r2], #-4
 800e22e:	4552      	cmp	r2, sl
 800e230:	ea41 0103 	orr.w	r1, r1, r3
 800e234:	d1f9      	bne.n	800e22a <__kernel_rem_pio2f+0x1ae>
 800e236:	4663      	mov	r3, ip
 800e238:	2900      	cmp	r1, #0
 800e23a:	f040 8115 	bne.w	800e468 <__kernel_rem_pio2f+0x3ec>
 800e23e:	9a00      	ldr	r2, [sp, #0]
 800e240:	3a01      	subs	r2, #1
 800e242:	f858 2022 	ldr.w	r2, [r8, r2, lsl #2]
 800e246:	2a00      	cmp	r2, #0
 800e248:	f040 8109 	bne.w	800e45e <__kernel_rem_pio2f+0x3e2>
 800e24c:	9a05      	ldr	r2, [sp, #20]
 800e24e:	f04f 0c01 	mov.w	ip, #1
 800e252:	f852 1904 	ldr.w	r1, [r2], #-4
 800e256:	f10c 0c01 	add.w	ip, ip, #1
 800e25a:	2900      	cmp	r1, #0
 800e25c:	d0f9      	beq.n	800e252 <__kernel_rem_pio2f+0x1d6>
 800e25e:	f106 0b01 	add.w	fp, r6, #1
 800e262:	44b4      	add	ip, r6
 800e264:	46de      	mov	lr, fp
 800e266:	9904      	ldr	r1, [sp, #16]
 800e268:	9a03      	ldr	r2, [sp, #12]
 800e26a:	198d      	adds	r5, r1, r6
 800e26c:	445a      	add	r2, fp
 800e26e:	a91e      	add	r1, sp, #120	; 0x78
 800e270:	f102 4280 	add.w	r2, r2, #1073741824	; 0x40000000
 800e274:	eb01 0585 	add.w	r5, r1, r5, lsl #2
 800e278:	9969      	ldr	r1, [sp, #420]	; 0x1a4
 800e27a:	3a01      	subs	r2, #1
 800e27c:	eb01 0682 	add.w	r6, r1, r2, lsl #2
 800e280:	eb07 0b8b 	add.w	fp, r7, fp, lsl #2
 800e284:	edd6 7a01 	vldr	s15, [r6, #4]
 800e288:	ed9f 7a2c 	vldr	s14, [pc, #176]	; 800e33c <__kernel_rem_pio2f+0x2c0>
 800e28c:	eef8 7ae7 	vcvt.f32.s32	s15, s15
 800e290:	f1b9 0f00 	cmp.w	r9, #0
 800e294:	f106 0604 	add.w	r6, r6, #4
 800e298:	4629      	mov	r1, r5
 800e29a:	edc5 7a00 	vstr	s15, [r5]
 800e29e:	f105 0504 	add.w	r5, r5, #4
 800e2a2:	db09      	blt.n	800e2b8 <__kernel_rem_pio2f+0x23c>
 800e2a4:	461a      	mov	r2, r3
 800e2a6:	e001      	b.n	800e2ac <__kernel_rem_pio2f+0x230>
 800e2a8:	ed71 7a01 	vldmdb	r1!, {s15}
 800e2ac:	ecf2 6a01 	vldmia	r2!, {s13}
 800e2b0:	42a2      	cmp	r2, r4
 800e2b2:	eea6 7aa7 	vfma.f32	s14, s13, s15
 800e2b6:	d1f7      	bne.n	800e2a8 <__kernel_rem_pio2f+0x22c>
 800e2b8:	f10e 0e01 	add.w	lr, lr, #1
 800e2bc:	45e6      	cmp	lr, ip
 800e2be:	ecab 7a01 	vstmia	fp!, {s14}
 800e2c2:	dddf      	ble.n	800e284 <__kernel_rem_pio2f+0x208>
 800e2c4:	4666      	mov	r6, ip
 800e2c6:	e74c      	b.n	800e162 <__kernel_rem_pio2f+0xe6>
 800e2c8:	f040 80bf 	bne.w	800e44a <__kernel_rem_pio2f+0x3ce>
 800e2cc:	1e72      	subs	r2, r6, #1
 800e2ce:	f858 5022 	ldr.w	r5, [r8, r2, lsl #2]
 800e2d2:	122d      	asrs	r5, r5, #8
 800e2d4:	2d00      	cmp	r5, #0
 800e2d6:	dd96      	ble.n	800e206 <__kernel_rem_pio2f+0x18a>
 800e2d8:	ee19 2a90 	vmov	r2, s19
 800e2dc:	2e00      	cmp	r6, #0
 800e2de:	f102 0201 	add.w	r2, r2, #1
 800e2e2:	ee09 2a90 	vmov	s19, r2
 800e2e6:	f340 81ac 	ble.w	800e642 <__kernel_rem_pio2f+0x5c6>
 800e2ea:	f8d8 1000 	ldr.w	r1, [r8]
 800e2ee:	2900      	cmp	r1, #0
 800e2f0:	f040 80a7 	bne.w	800e442 <__kernel_rem_pio2f+0x3c6>
 800e2f4:	2e01      	cmp	r6, #1
 800e2f6:	d02f      	beq.n	800e358 <__kernel_rem_pio2f+0x2dc>
 800e2f8:	46c6      	mov	lr, r8
 800e2fa:	f04f 0c01 	mov.w	ip, #1
 800e2fe:	f85e 1f04 	ldr.w	r1, [lr, #4]!
 800e302:	f10c 0201 	add.w	r2, ip, #1
 800e306:	b941      	cbnz	r1, 800e31a <__kernel_rem_pio2f+0x29e>
 800e308:	4296      	cmp	r6, r2
 800e30a:	d025      	beq.n	800e358 <__kernel_rem_pio2f+0x2dc>
 800e30c:	f85e 1f04 	ldr.w	r1, [lr, #4]!
 800e310:	4694      	mov	ip, r2
 800e312:	f10c 0201 	add.w	r2, ip, #1
 800e316:	2900      	cmp	r1, #0
 800e318:	d0f6      	beq.n	800e308 <__kernel_rem_pio2f+0x28c>
 800e31a:	f5c1 7180 	rsb	r1, r1, #256	; 0x100
 800e31e:	4296      	cmp	r6, r2
 800e320:	f848 102c 	str.w	r1, [r8, ip, lsl #2]
 800e324:	dd17      	ble.n	800e356 <__kernel_rem_pio2f+0x2da>
 800e326:	f858 1022 	ldr.w	r1, [r8, r2, lsl #2]
 800e32a:	44c3      	add	fp, r8
 800e32c:	eb08 0282 	add.w	r2, r8, r2, lsl #2
 800e330:	e00b      	b.n	800e34a <__kernel_rem_pio2f+0x2ce>
 800e332:	bf00      	nop
 800e334:	0801e0e0 	.word	0x0801e0e0
 800e338:	43800000 	.word	0x43800000
 800e33c:	00000000 	.word	0x00000000
 800e340:	3b800000 	.word	0x3b800000
 800e344:	3fc90000 	.word	0x3fc90000
 800e348:	6811      	ldr	r1, [r2, #0]
 800e34a:	f1c1 01ff 	rsb	r1, r1, #255	; 0xff
 800e34e:	f842 1b04 	str.w	r1, [r2], #4
 800e352:	455a      	cmp	r2, fp
 800e354:	d1f8      	bne.n	800e348 <__kernel_rem_pio2f+0x2cc>
 800e356:	2101      	movs	r1, #1
 800e358:	2800      	cmp	r0, #0
 800e35a:	dd0c      	ble.n	800e376 <__kernel_rem_pio2f+0x2fa>
 800e35c:	2801      	cmp	r0, #1
 800e35e:	f000 814e 	beq.w	800e5fe <__kernel_rem_pio2f+0x582>
 800e362:	2802      	cmp	r0, #2
 800e364:	d107      	bne.n	800e376 <__kernel_rem_pio2f+0x2fa>
 800e366:	f106 3cff 	add.w	ip, r6, #4294967295	; 0xffffffff
 800e36a:	f858 202c 	ldr.w	r2, [r8, ip, lsl #2]
 800e36e:	f002 023f 	and.w	r2, r2, #63	; 0x3f
 800e372:	f848 202c 	str.w	r2, [r8, ip, lsl #2]
 800e376:	2d02      	cmp	r5, #2
 800e378:	f47f af45 	bne.w	800e206 <__kernel_rem_pio2f+0x18a>
 800e37c:	eeb7 0a00 	vmov.f32	s0, #112	; 0x3f800000  1.0
 800e380:	ee30 8a48 	vsub.f32	s16, s0, s16
 800e384:	2900      	cmp	r1, #0
 800e386:	f43f af3e 	beq.w	800e206 <__kernel_rem_pio2f+0x18a>
 800e38a:	e9cd 0301 	strd	r0, r3, [sp, #4]
 800e38e:	f000 fa19 	bl	800e7c4 <scalbnf>
 800e392:	ee38 8a40 	vsub.f32	s16, s16, s0
 800e396:	e9dd 0301 	ldrd	r0, r3, [sp, #4]
 800e39a:	eeb5 8a40 	vcmp.f32	s16, #0.0
 800e39e:	eef1 fa10 	vmrs	APSR_nzcv, fpscr
 800e3a2:	f43f af36 	beq.w	800e212 <__kernel_rem_pio2f+0x196>
 800e3a6:	e9dd 3208 	ldrd	r3, r2, [sp, #32]
 800e3aa:	eeb0 0a48 	vmov.f32	s0, s16
 800e3ae:	1a98      	subs	r0, r3, r2
 800e3b0:	9601      	str	r6, [sp, #4]
 800e3b2:	9e00      	ldr	r6, [sp, #0]
 800e3b4:	f000 fa06 	bl	800e7c4 <scalbnf>
 800e3b8:	ed1f 7a21 	vldr	s14, [pc, #-132]	; 800e338 <__kernel_rem_pio2f+0x2bc>
 800e3bc:	9b01      	ldr	r3, [sp, #4]
 800e3be:	eeb4 0ac7 	vcmpe.f32	s0, s14
 800e3c2:	eef1 fa10 	vmrs	APSR_nzcv, fpscr
 800e3c6:	46aa      	mov	sl, r5
 800e3c8:	f2c0 8164 	blt.w	800e694 <__kernel_rem_pio2f+0x618>
 800e3cc:	ed5f 7a24 	vldr	s15, [pc, #-144]	; 800e340 <__kernel_rem_pio2f+0x2c4>
 800e3d0:	9a06      	ldr	r2, [sp, #24]
 800e3d2:	ee60 7a27 	vmul.f32	s15, s0, s15
 800e3d6:	3208      	adds	r2, #8
 800e3d8:	eefd 7ae7 	vcvt.s32.f32	s15, s15
 800e3dc:	9206      	str	r2, [sp, #24]
 800e3de:	eef8 7ae7 	vcvt.f32.s32	s15, s15
 800e3e2:	1c5d      	adds	r5, r3, #1
 800e3e4:	eea7 0ac7 	vfms.f32	s0, s15, s14
 800e3e8:	9806      	ldr	r0, [sp, #24]
 800e3ea:	eefd 7ae7 	vcvt.s32.f32	s15, s15
 800e3ee:	eebd 0ac0 	vcvt.s32.f32	s0, s0
 800e3f2:	ee10 2a10 	vmov	r2, s0
 800e3f6:	f848 2023 	str.w	r2, [r8, r3, lsl #2]
 800e3fa:	ee17 3a90 	vmov	r3, s15
 800e3fe:	eeb7 0a00 	vmov.f32	s0, #112	; 0x3f800000  1.0
 800e402:	f848 3025 	str.w	r3, [r8, r5, lsl #2]
 800e406:	f000 f9dd 	bl	800e7c4 <scalbnf>
 800e40a:	2d00      	cmp	r5, #0
 800e40c:	da4a      	bge.n	800e4a4 <__kernel_rem_pio2f+0x428>
 800e40e:	9b68      	ldr	r3, [sp, #416]	; 0x1a0
 800e410:	2b02      	cmp	r3, #2
 800e412:	f300 8165 	bgt.w	800e6e0 <__kernel_rem_pio2f+0x664>
 800e416:	2b00      	cmp	r3, #0
 800e418:	f300 8169 	bgt.w	800e6ee <__kernel_rem_pio2f+0x672>
 800e41c:	d108      	bne.n	800e430 <__kernel_rem_pio2f+0x3b4>
 800e41e:	ed5f 7a39 	vldr	s15, [pc, #-228]	; 800e33c <__kernel_rem_pio2f+0x2c0>
 800e422:	4653      	mov	r3, sl
 800e424:	b10b      	cbz	r3, 800e42a <__kernel_rem_pio2f+0x3ae>
 800e426:	eef1 7a67 	vneg.f32	s15, s15
 800e42a:	9b07      	ldr	r3, [sp, #28]
 800e42c:	edc3 7a00 	vstr	s15, [r3]
 800e430:	ee19 3a90 	vmov	r3, s19
 800e434:	f003 0007 	and.w	r0, r3, #7
 800e438:	b05b      	add	sp, #364	; 0x16c
 800e43a:	ecbd 8b04 	vpop	{d8-d9}
 800e43e:	e8bd 8ff0 	ldmia.w	sp!, {r4, r5, r6, r7, r8, r9, sl, fp, pc}
 800e442:	2201      	movs	r2, #1
 800e444:	f04f 0c00 	mov.w	ip, #0
 800e448:	e767      	b.n	800e31a <__kernel_rem_pio2f+0x29e>
 800e44a:	eef6 7a00 	vmov.f32	s15, #96	; 0x3f000000  0.5
 800e44e:	eeb4 8ae7 	vcmpe.f32	s16, s15
 800e452:	eef1 fa10 	vmrs	APSR_nzcv, fpscr
 800e456:	f280 80e0 	bge.w	800e61a <__kernel_rem_pio2f+0x59e>
 800e45a:	2500      	movs	r5, #0
 800e45c:	e6d3      	b.n	800e206 <__kernel_rem_pio2f+0x18a>
 800e45e:	f106 0b01 	add.w	fp, r6, #1
 800e462:	46de      	mov	lr, fp
 800e464:	46dc      	mov	ip, fp
 800e466:	e6fe      	b.n	800e266 <__kernel_rem_pio2f+0x1ea>
 800e468:	9906      	ldr	r1, [sp, #24]
 800e46a:	f858 202e 	ldr.w	r2, [r8, lr, lsl #2]
 800e46e:	3908      	subs	r1, #8
 800e470:	4633      	mov	r3, r6
 800e472:	46aa      	mov	sl, r5
 800e474:	9e00      	ldr	r6, [sp, #0]
 800e476:	9106      	str	r1, [sp, #24]
 800e478:	4675      	mov	r5, lr
 800e47a:	b962      	cbnz	r2, 800e496 <__kernel_rem_pio2f+0x41a>
 800e47c:	f103 4380 	add.w	r3, r3, #1073741824	; 0x40000000
 800e480:	3b02      	subs	r3, #2
 800e482:	eb08 0383 	add.w	r3, r8, r3, lsl #2
 800e486:	460a      	mov	r2, r1
 800e488:	f853 1904 	ldr.w	r1, [r3], #-4
 800e48c:	3d01      	subs	r5, #1
 800e48e:	3a08      	subs	r2, #8
 800e490:	2900      	cmp	r1, #0
 800e492:	d0f9      	beq.n	800e488 <__kernel_rem_pio2f+0x40c>
 800e494:	9206      	str	r2, [sp, #24]
 800e496:	9806      	ldr	r0, [sp, #24]
 800e498:	eeb7 0a00 	vmov.f32	s0, #112	; 0x3f800000  1.0
 800e49c:	f000 f992 	bl	800e7c4 <scalbnf>
 800e4a0:	2d00      	cmp	r5, #0
 800e4a2:	dbb4      	blt.n	800e40e <__kernel_rem_pio2f+0x392>
 800e4a4:	ea4f 0985 	mov.w	r9, r5, lsl #2
 800e4a8:	ab46      	add	r3, sp, #280	; 0x118
 800e4aa:	eb03 0409 	add.w	r4, r3, r9
 800e4ae:	f109 0e04 	add.w	lr, r9, #4
 800e4b2:	ed1f 7a5d 	vldr	s14, [pc, #-372]	; 800e340 <__kernel_rem_pio2f+0x2c4>
 800e4b6:	eb08 030e 	add.w	r3, r8, lr
 800e4ba:	1d22      	adds	r2, r4, #4
 800e4bc:	ed73 7a01 	vldmdb	r3!, {s15}
 800e4c0:	eef8 7ae7 	vcvt.f32.s32	s15, s15
 800e4c4:	4543      	cmp	r3, r8
 800e4c6:	ee67 7a80 	vmul.f32	s15, s15, s0
 800e4ca:	ee20 0a07 	vmul.f32	s0, s0, s14
 800e4ce:	ed62 7a01 	vstmdb	r2!, {s15}
 800e4d2:	d1f3      	bne.n	800e4bc <__kernel_rem_pio2f+0x440>
 800e4d4:	f10d 08c8 	add.w	r8, sp, #200	; 0xc8
 800e4d8:	ed1f 6a66 	vldr	s12, [pc, #-408]	; 800e344 <__kernel_rem_pio2f+0x2c8>
 800e4dc:	46c4      	mov	ip, r8
 800e4de:	462f      	mov	r7, r5
 800e4e0:	2000      	movs	r0, #0
 800e4e2:	2e00      	cmp	r6, #0
 800e4e4:	f2c0 80aa 	blt.w	800e63c <__kernel_rem_pio2f+0x5c0>
 800e4e8:	4982      	ldr	r1, [pc, #520]	; (800e6f4 <__kernel_rem_pio2f+0x678>)
 800e4ea:	eddf 7a83 	vldr	s15, [pc, #524]	; 800e6f8 <__kernel_rem_pio2f+0x67c>
 800e4ee:	4622      	mov	r2, r4
 800e4f0:	eeb0 7a46 	vmov.f32	s14, s12
 800e4f4:	2300      	movs	r3, #0
 800e4f6:	e003      	b.n	800e500 <__kernel_rem_pio2f+0x484>
 800e4f8:	4283      	cmp	r3, r0
 800e4fa:	dc08      	bgt.n	800e50e <__kernel_rem_pio2f+0x492>
 800e4fc:	ecb1 7a01 	vldmia	r1!, {s14}
 800e500:	ecf2 6a01 	vldmia	r2!, {s13}
 800e504:	3301      	adds	r3, #1
 800e506:	429e      	cmp	r6, r3
 800e508:	eee6 7a87 	vfma.f32	s15, s13, s14
 800e50c:	daf4      	bge.n	800e4f8 <__kernel_rem_pio2f+0x47c>
 800e50e:	3f01      	subs	r7, #1
 800e510:	1c7b      	adds	r3, r7, #1
 800e512:	ecec 7a01 	vstmia	ip!, {s15}
 800e516:	f100 0001 	add.w	r0, r0, #1
 800e51a:	f1a4 0404 	sub.w	r4, r4, #4
 800e51e:	d1e0      	bne.n	800e4e2 <__kernel_rem_pio2f+0x466>
 800e520:	9b68      	ldr	r3, [sp, #416]	; 0x1a0
 800e522:	2b02      	cmp	r3, #2
 800e524:	dc14      	bgt.n	800e550 <__kernel_rem_pio2f+0x4d4>
 800e526:	2b00      	cmp	r3, #0
 800e528:	f300 808d 	bgt.w	800e646 <__kernel_rem_pio2f+0x5ca>
 800e52c:	d180      	bne.n	800e430 <__kernel_rem_pio2f+0x3b4>
 800e52e:	eddf 7a72 	vldr	s15, [pc, #456]	; 800e6f8 <__kernel_rem_pio2f+0x67c>
 800e532:	44c6      	add	lr, r8
 800e534:	ed3e 7a01 	vldmdb	lr!, {s14}
 800e538:	45c6      	cmp	lr, r8
 800e53a:	ee77 7a87 	vadd.f32	s15, s15, s14
 800e53e:	f43f af70 	beq.w	800e422 <__kernel_rem_pio2f+0x3a6>
 800e542:	ed3e 7a01 	vldmdb	lr!, {s14}
 800e546:	45c6      	cmp	lr, r8
 800e548:	ee77 7a87 	vadd.f32	s15, s15, s14
 800e54c:	d1f2      	bne.n	800e534 <__kernel_rem_pio2f+0x4b8>
 800e54e:	e768      	b.n	800e422 <__kernel_rem_pio2f+0x3a6>
 800e550:	9b68      	ldr	r3, [sp, #416]	; 0x1a0
 800e552:	2b03      	cmp	r3, #3
 800e554:	f47f af6c 	bne.w	800e430 <__kernel_rem_pio2f+0x3b4>
 800e558:	2d00      	cmp	r5, #0
 800e55a:	f000 80c5 	beq.w	800e6e8 <__kernel_rem_pio2f+0x66c>
 800e55e:	ab5a      	add	r3, sp, #360	; 0x168
 800e560:	444b      	add	r3, r9
 800e562:	ed13 7a28 	vldr	s14, [r3, #-160]	; 0xffffff60
 800e566:	eb08 0385 	add.w	r3, r8, r5, lsl #2
 800e56a:	ed73 7a01 	vldmdb	r3!, {s15}
 800e56e:	eef0 6a47 	vmov.f32	s13, s14
 800e572:	ee37 7a27 	vadd.f32	s14, s14, s15
 800e576:	4598      	cmp	r8, r3
 800e578:	ee77 7ac7 	vsub.f32	s15, s15, s14
 800e57c:	ed83 7a00 	vstr	s14, [r3]
 800e580:	ee77 7aa6 	vadd.f32	s15, s15, s13
 800e584:	edc3 7a01 	vstr	s15, [r3, #4]
 800e588:	d1ef      	bne.n	800e56a <__kernel_rem_pio2f+0x4ee>
 800e58a:	2d01      	cmp	r5, #1
 800e58c:	f340 80ac 	ble.w	800e6e8 <__kernel_rem_pio2f+0x66c>
 800e590:	f105 4580 	add.w	r5, r5, #1073741824	; 0x40000000
 800e594:	ab5a      	add	r3, sp, #360	; 0x168
 800e596:	3d01      	subs	r5, #1
 800e598:	4499      	add	r9, r3
 800e59a:	00ad      	lsls	r5, r5, #2
 800e59c:	1d2b      	adds	r3, r5, #4
 800e59e:	ed19 7a28 	vldr	s14, [r9, #-160]	; 0xffffff60
 800e5a2:	4443      	add	r3, r8
 800e5a4:	aa33      	add	r2, sp, #204	; 0xcc
 800e5a6:	ed73 7a01 	vldmdb	r3!, {s15}
 800e5aa:	eef0 6a47 	vmov.f32	s13, s14
 800e5ae:	ee37 7a27 	vadd.f32	s14, s14, s15
 800e5b2:	429a      	cmp	r2, r3
 800e5b4:	ee77 7ac7 	vsub.f32	s15, s15, s14
 800e5b8:	ed83 7a00 	vstr	s14, [r3]
 800e5bc:	ee77 7aa6 	vadd.f32	s15, s15, s13
 800e5c0:	edc3 7a01 	vstr	s15, [r3, #4]
 800e5c4:	d1ef      	bne.n	800e5a6 <__kernel_rem_pio2f+0x52a>
 800e5c6:	3508      	adds	r5, #8
 800e5c8:	eddf 7a4b 	vldr	s15, [pc, #300]	; 800e6f8 <__kernel_rem_pio2f+0x67c>
 800e5cc:	eb08 0305 	add.w	r3, r8, r5
 800e5d0:	f108 0808 	add.w	r8, r8, #8
 800e5d4:	ed33 7a01 	vldmdb	r3!, {s14}
 800e5d8:	4598      	cmp	r8, r3
 800e5da:	ee77 7a87 	vadd.f32	s15, s15, s14
 800e5de:	d1f9      	bne.n	800e5d4 <__kernel_rem_pio2f+0x558>
 800e5e0:	4653      	mov	r3, sl
 800e5e2:	eddd 6a32 	vldr	s13, [sp, #200]	; 0xc8
 800e5e6:	ed9d 7a33 	vldr	s14, [sp, #204]	; 0xcc
 800e5ea:	2b00      	cmp	r3, #0
 800e5ec:	d15a      	bne.n	800e6a4 <__kernel_rem_pio2f+0x628>
 800e5ee:	9b07      	ldr	r3, [sp, #28]
 800e5f0:	edc3 6a00 	vstr	s13, [r3]
 800e5f4:	ed83 7a01 	vstr	s14, [r3, #4]
 800e5f8:	edc3 7a02 	vstr	s15, [r3, #8]
 800e5fc:	e718      	b.n	800e430 <__kernel_rem_pio2f+0x3b4>
 800e5fe:	f106 3cff 	add.w	ip, r6, #4294967295	; 0xffffffff
 800e602:	f858 202c 	ldr.w	r2, [r8, ip, lsl #2]
 800e606:	f002 027f 	and.w	r2, r2, #127	; 0x7f
 800e60a:	f848 202c 	str.w	r2, [r8, ip, lsl #2]
 800e60e:	e6b2      	b.n	800e376 <__kernel_rem_pio2f+0x2fa>
 800e610:	2308      	movs	r3, #8
 800e612:	9308      	str	r3, [sp, #32]
 800e614:	2300      	movs	r3, #0
 800e616:	9303      	str	r3, [sp, #12]
 800e618:	e54b      	b.n	800e0b2 <__kernel_rem_pio2f+0x36>
 800e61a:	ee19 2a90 	vmov	r2, s19
 800e61e:	2e00      	cmp	r6, #0
 800e620:	f102 0201 	add.w	r2, r2, #1
 800e624:	ee09 2a90 	vmov	s19, r2
 800e628:	bfc8      	it	gt
 800e62a:	2502      	movgt	r5, #2
 800e62c:	f73f ae5d 	bgt.w	800e2ea <__kernel_rem_pio2f+0x26e>
 800e630:	eef7 7a00 	vmov.f32	s15, #112	; 0x3f800000  1.0
 800e634:	ee37 8ac8 	vsub.f32	s16, s15, s16
 800e638:	2502      	movs	r5, #2
 800e63a:	e5e4      	b.n	800e206 <__kernel_rem_pio2f+0x18a>
 800e63c:	eddf 7a2e 	vldr	s15, [pc, #184]	; 800e6f8 <__kernel_rem_pio2f+0x67c>
 800e640:	e765      	b.n	800e50e <__kernel_rem_pio2f+0x492>
 800e642:	2100      	movs	r1, #0
 800e644:	e688      	b.n	800e358 <__kernel_rem_pio2f+0x2dc>
 800e646:	1c6b      	adds	r3, r5, #1
 800e648:	eddf 7a2b 	vldr	s15, [pc, #172]	; 800e6f8 <__kernel_rem_pio2f+0x67c>
 800e64c:	eb08 0383 	add.w	r3, r8, r3, lsl #2
 800e650:	ed33 7a01 	vldmdb	r3!, {s14}
 800e654:	4598      	cmp	r8, r3
 800e656:	ee77 7a87 	vadd.f32	s15, s15, s14
 800e65a:	d1f9      	bne.n	800e650 <__kernel_rem_pio2f+0x5d4>
 800e65c:	4653      	mov	r3, sl
 800e65e:	bb7b      	cbnz	r3, 800e6c0 <__kernel_rem_pio2f+0x644>
 800e660:	ed9d 7a32 	vldr	s14, [sp, #200]	; 0xc8
 800e664:	9b07      	ldr	r3, [sp, #28]
 800e666:	2d00      	cmp	r5, #0
 800e668:	edc3 7a00 	vstr	s15, [r3]
 800e66c:	ee77 7a67 	vsub.f32	s15, s14, s15
 800e670:	dd0c      	ble.n	800e68c <__kernel_rem_pio2f+0x610>
 800e672:	aa33      	add	r2, sp, #204	; 0xcc
 800e674:	2301      	movs	r3, #1
 800e676:	ecb2 7a01 	vldmia	r2!, {s14}
 800e67a:	3301      	adds	r3, #1
 800e67c:	429d      	cmp	r5, r3
 800e67e:	ee77 7a87 	vadd.f32	s15, s15, s14
 800e682:	daf8      	bge.n	800e676 <__kernel_rem_pio2f+0x5fa>
 800e684:	4653      	mov	r3, sl
 800e686:	b10b      	cbz	r3, 800e68c <__kernel_rem_pio2f+0x610>
 800e688:	eef1 7a67 	vneg.f32	s15, s15
 800e68c:	9b07      	ldr	r3, [sp, #28]
 800e68e:	edc3 7a01 	vstr	s15, [r3, #4]
 800e692:	e6cd      	b.n	800e430 <__kernel_rem_pio2f+0x3b4>
 800e694:	eebd 0ac0 	vcvt.s32.f32	s0, s0
 800e698:	461d      	mov	r5, r3
 800e69a:	ee10 2a10 	vmov	r2, s0
 800e69e:	f848 2023 	str.w	r2, [r8, r3, lsl #2]
 800e6a2:	e6f8      	b.n	800e496 <__kernel_rem_pio2f+0x41a>
 800e6a4:	9b07      	ldr	r3, [sp, #28]
 800e6a6:	eef1 6a66 	vneg.f32	s13, s13
 800e6aa:	eeb1 7a47 	vneg.f32	s14, s14
 800e6ae:	eef1 7a67 	vneg.f32	s15, s15
 800e6b2:	edc3 6a00 	vstr	s13, [r3]
 800e6b6:	ed83 7a01 	vstr	s14, [r3, #4]
 800e6ba:	edc3 7a02 	vstr	s15, [r3, #8]
 800e6be:	e6b7      	b.n	800e430 <__kernel_rem_pio2f+0x3b4>
 800e6c0:	eddd 6a32 	vldr	s13, [sp, #200]	; 0xc8
 800e6c4:	9b07      	ldr	r3, [sp, #28]
 800e6c6:	eeb1 7a67 	vneg.f32	s14, s15
 800e6ca:	2d00      	cmp	r5, #0
 800e6cc:	ee76 7ae7 	vsub.f32	s15, s13, s15
 800e6d0:	ed83 7a00 	vstr	s14, [r3]
 800e6d4:	dccd      	bgt.n	800e672 <__kernel_rem_pio2f+0x5f6>
 800e6d6:	e7d7      	b.n	800e688 <__kernel_rem_pio2f+0x60c>
 800e6d8:	9b04      	ldr	r3, [sp, #16]
 800e6da:	ea4f 0c83 	mov.w	ip, r3, lsl #2
 800e6de:	e52d      	b.n	800e13c <__kernel_rem_pio2f+0xc0>
 800e6e0:	9b68      	ldr	r3, [sp, #416]	; 0x1a0
 800e6e2:	2b03      	cmp	r3, #3
 800e6e4:	f47f aea4 	bne.w	800e430 <__kernel_rem_pio2f+0x3b4>
 800e6e8:	eddf 7a03 	vldr	s15, [pc, #12]	; 800e6f8 <__kernel_rem_pio2f+0x67c>
 800e6ec:	e778      	b.n	800e5e0 <__kernel_rem_pio2f+0x564>
 800e6ee:	eddf 7a02 	vldr	s15, [pc, #8]	; 800e6f8 <__kernel_rem_pio2f+0x67c>
 800e6f2:	e7b3      	b.n	800e65c <__kernel_rem_pio2f+0x5e0>
 800e6f4:	0801e0b8 	.word	0x0801e0b8
 800e6f8:	00000000 	.word	0x00000000

0800e6fc <__kernel_sinf>:
__kernel_sinf():
 800e6fc:	ee10 3a10 	vmov	r3, s0
 800e700:	f023 4300 	bic.w	r3, r3, #2147483648	; 0x80000000
 800e704:	f1b3 5f48 	cmp.w	r3, #838860800	; 0x32000000
 800e708:	da04      	bge.n	800e714 <__kernel_sinf+0x18>
 800e70a:	eefd 7ac0 	vcvt.s32.f32	s15, s0
 800e70e:	ee17 3a90 	vmov	r3, s15
 800e712:	b35b      	cbz	r3, 800e76c <__kernel_sinf+0x70>
 800e714:	ee60 7a00 	vmul.f32	s15, s0, s0
 800e718:	ed9f 5a15 	vldr	s10, [pc, #84]	; 800e770 <__kernel_sinf+0x74>
 800e71c:	eddf 5a15 	vldr	s11, [pc, #84]	; 800e774 <__kernel_sinf+0x78>
 800e720:	ed9f 6a15 	vldr	s12, [pc, #84]	; 800e778 <__kernel_sinf+0x7c>
 800e724:	eddf 6a15 	vldr	s13, [pc, #84]	; 800e77c <__kernel_sinf+0x80>
 800e728:	ed9f 7a15 	vldr	s14, [pc, #84]	; 800e780 <__kernel_sinf+0x84>
 800e72c:	eee7 5a85 	vfma.f32	s11, s15, s10
 800e730:	ee20 5a27 	vmul.f32	s10, s0, s15
 800e734:	eea5 6aa7 	vfma.f32	s12, s11, s15
 800e738:	eee6 6a27 	vfma.f32	s13, s12, s15
 800e73c:	eea6 7aa7 	vfma.f32	s14, s13, s15
 800e740:	b930      	cbnz	r0, 800e750 <__kernel_sinf+0x54>
 800e742:	eddf 6a10 	vldr	s13, [pc, #64]	; 800e784 <__kernel_sinf+0x88>
 800e746:	eee7 6a87 	vfma.f32	s13, s15, s14
 800e74a:	eea6 0a85 	vfma.f32	s0, s13, s10
 800e74e:	4770      	bx	lr
 800e750:	ee27 7a45 	vnmul.f32	s14, s14, s10
 800e754:	eef6 6a00 	vmov.f32	s13, #96	; 0x3f000000  0.5
 800e758:	eea0 7aa6 	vfma.f32	s14, s1, s13
 800e75c:	eddf 6a0a 	vldr	s13, [pc, #40]	; 800e788 <__kernel_sinf+0x8c>
 800e760:	eed7 0a27 	vfnms.f32	s1, s14, s15
 800e764:	eee5 0a26 	vfma.f32	s1, s10, s13
 800e768:	ee30 0a60 	vsub.f32	s0, s0, s1
 800e76c:	4770      	bx	lr
 800e76e:	bf00      	nop
 800e770:	2f2ec9d3 	.word	0x2f2ec9d3
 800e774:	b2d72f34 	.word	0xb2d72f34
 800e778:	3638ef1b 	.word	0x3638ef1b
 800e77c:	b9500d01 	.word	0xb9500d01
 800e780:	3c088889 	.word	0x3c088889
 800e784:	be2aaaab 	.word	0xbe2aaaab
 800e788:	3e2aaaab 	.word	0x3e2aaaab

0800e78c <fabsf>:
fabsf():
 800e78c:	ee10 3a10 	vmov	r3, s0
 800e790:	f023 4300 	bic.w	r3, r3, #2147483648	; 0x80000000
 800e794:	ee00 3a10 	vmov	s0, r3
 800e798:	4770      	bx	lr
 800e79a:	bf00      	nop

0800e79c <finitef>:
finitef():
 800e79c:	b082      	sub	sp, #8
 800e79e:	ed8d 0a01 	vstr	s0, [sp, #4]
 800e7a2:	9801      	ldr	r0, [sp, #4]
 800e7a4:	f020 4000 	bic.w	r0, r0, #2147483648	; 0x80000000
 800e7a8:	f1b0 4fff 	cmp.w	r0, #2139095040	; 0x7f800000
 800e7ac:	bfac      	ite	ge
 800e7ae:	2000      	movge	r0, #0
 800e7b0:	2001      	movlt	r0, #1
 800e7b2:	b002      	add	sp, #8
 800e7b4:	4770      	bx	lr
 800e7b6:	bf00      	nop

0800e7b8 <nanf>:
nanf():
 800e7b8:	ed9f 0a01 	vldr	s0, [pc, #4]	; 800e7c0 <nanf+0x8>
 800e7bc:	4770      	bx	lr
 800e7be:	bf00      	nop
 800e7c0:	7fc00000 	.word	0x7fc00000

0800e7c4 <scalbnf>:
scalbnf():
 800e7c4:	b082      	sub	sp, #8
 800e7c6:	ed8d 0a01 	vstr	s0, [sp, #4]
 800e7ca:	9b01      	ldr	r3, [sp, #4]
 800e7cc:	f033 4200 	bics.w	r2, r3, #2147483648	; 0x80000000
 800e7d0:	d02a      	beq.n	800e828 <scalbnf+0x64>
 800e7d2:	f1b2 4fff 	cmp.w	r2, #2139095040	; 0x7f800000
 800e7d6:	d223      	bcs.n	800e820 <scalbnf+0x5c>
 800e7d8:	f013 4fff 	tst.w	r3, #2139095040	; 0x7f800000
 800e7dc:	d128      	bne.n	800e830 <scalbnf+0x6c>
 800e7de:	ed9d 7a01 	vldr	s14, [sp, #4]
 800e7e2:	eddf 7a2a 	vldr	s15, [pc, #168]	; 800e88c <scalbnf+0xc8>
 800e7e6:	4b2a      	ldr	r3, [pc, #168]	; (800e890 <scalbnf+0xcc>)
 800e7e8:	ee67 7a27 	vmul.f32	s15, s14, s15
 800e7ec:	4298      	cmp	r0, r3
 800e7ee:	edcd 7a01 	vstr	s15, [sp, #4]
 800e7f2:	db37      	blt.n	800e864 <scalbnf+0xa0>
 800e7f4:	9b01      	ldr	r3, [sp, #4]
 800e7f6:	f3c3 52c7 	ubfx	r2, r3, #23, #8
 800e7fa:	3a19      	subs	r2, #25
 800e7fc:	4402      	add	r2, r0
 800e7fe:	2afe      	cmp	r2, #254	; 0xfe
 800e800:	dd1a      	ble.n	800e838 <scalbnf+0x74>
 800e802:	ed9f 0a24 	vldr	s0, [pc, #144]	; 800e894 <scalbnf+0xd0>
 800e806:	ed9f 7a24 	vldr	s14, [pc, #144]	; 800e898 <scalbnf+0xd4>
 800e80a:	9b01      	ldr	r3, [sp, #4]
 800e80c:	2b00      	cmp	r3, #0
 800e80e:	eef0 7a40 	vmov.f32	s15, s0
 800e812:	bfb8      	it	lt
 800e814:	eeb0 0a47 	vmovlt.f32	s0, s14
 800e818:	ee20 0a27 	vmul.f32	s0, s0, s15
 800e81c:	b002      	add	sp, #8
 800e81e:	4770      	bx	lr
 800e820:	ee30 0a00 	vadd.f32	s0, s0, s0
 800e824:	b002      	add	sp, #8
 800e826:	4770      	bx	lr
 800e828:	ed9d 0a01 	vldr	s0, [sp, #4]
 800e82c:	b002      	add	sp, #8
 800e82e:	4770      	bx	lr
 800e830:	0dd2      	lsrs	r2, r2, #23
 800e832:	4402      	add	r2, r0
 800e834:	2afe      	cmp	r2, #254	; 0xfe
 800e836:	dce4      	bgt.n	800e802 <scalbnf+0x3e>
 800e838:	2a00      	cmp	r2, #0
 800e83a:	dc0b      	bgt.n	800e854 <scalbnf+0x90>
 800e83c:	f112 0f16 	cmn.w	r2, #22
 800e840:	da17      	bge.n	800e872 <scalbnf+0xae>
 800e842:	f24c 3350 	movw	r3, #50000	; 0xc350
 800e846:	4298      	cmp	r0, r3
 800e848:	dcdb      	bgt.n	800e802 <scalbnf+0x3e>
 800e84a:	ed9f 0a14 	vldr	s0, [pc, #80]	; 800e89c <scalbnf+0xd8>
 800e84e:	ed9f 7a14 	vldr	s14, [pc, #80]	; 800e8a0 <scalbnf+0xdc>
 800e852:	e7da      	b.n	800e80a <scalbnf+0x46>
 800e854:	f023 43ff 	bic.w	r3, r3, #2139095040	; 0x7f800000
 800e858:	ea43 53c2 	orr.w	r3, r3, r2, lsl #23
 800e85c:	ee00 3a10 	vmov	s0, r3
 800e860:	b002      	add	sp, #8
 800e862:	4770      	bx	lr
 800e864:	ed9f 0a0d 	vldr	s0, [pc, #52]	; 800e89c <scalbnf+0xd8>
 800e868:	eddd 7a01 	vldr	s15, [sp, #4]
 800e86c:	ee27 0a80 	vmul.f32	s0, s15, s0
 800e870:	e7d8      	b.n	800e824 <scalbnf+0x60>
 800e872:	3219      	adds	r2, #25
 800e874:	f023 43ff 	bic.w	r3, r3, #2139095040	; 0x7f800000
 800e878:	ea43 53c2 	orr.w	r3, r3, r2, lsl #23
 800e87c:	eddf 7a09 	vldr	s15, [pc, #36]	; 800e8a4 <scalbnf+0xe0>
 800e880:	ee07 3a10 	vmov	s14, r3
 800e884:	ee27 0a27 	vmul.f32	s0, s14, s15
 800e888:	e7cc      	b.n	800e824 <scalbnf+0x60>
 800e88a:	bf00      	nop
 800e88c:	4c000000 	.word	0x4c000000
 800e890:	ffff3cb0 	.word	0xffff3cb0
 800e894:	7149f2ca 	.word	0x7149f2ca
 800e898:	f149f2ca 	.word	0xf149f2ca
 800e89c:	0da24260 	.word	0x0da24260
 800e8a0:	8da24260 	.word	0x8da24260
 800e8a4:	33000000 	.word	0x33000000

0800e8a8 <atexit>:
atexit():
 800e8a8:	2300      	movs	r3, #0
 800e8aa:	4601      	mov	r1, r0
 800e8ac:	461a      	mov	r2, r3
 800e8ae:	4618      	mov	r0, r3
 800e8b0:	f000 b8b6 	b.w	800ea20 <__register_exitproc>

0800e8b4 <__errno>:
__errno():
 800e8b4:	4b01      	ldr	r3, [pc, #4]	; (800e8bc <__errno+0x8>)
 800e8b6:	6818      	ldr	r0, [r3, #0]
 800e8b8:	4770      	bx	lr
 800e8ba:	bf00      	nop
 800e8bc:	20000064 	.word	0x20000064

0800e8c0 <__libc_fini_array>:
__libc_fini_array():
 800e8c0:	b538      	push	{r3, r4, r5, lr}
 800e8c2:	4b08      	ldr	r3, [pc, #32]	; (800e8e4 <__libc_fini_array+0x24>)
 800e8c4:	4d08      	ldr	r5, [pc, #32]	; (800e8e8 <__libc_fini_array+0x28>)
 800e8c6:	1b5b      	subs	r3, r3, r5
 800e8c8:	109c      	asrs	r4, r3, #2
 800e8ca:	d007      	beq.n	800e8dc <__libc_fini_array+0x1c>
 800e8cc:	3b04      	subs	r3, #4
 800e8ce:	441d      	add	r5, r3
 800e8d0:	3c01      	subs	r4, #1
 800e8d2:	f855 3904 	ldr.w	r3, [r5], #-4
 800e8d6:	4798      	blx	r3
 800e8d8:	2c00      	cmp	r4, #0
 800e8da:	d1f9      	bne.n	800e8d0 <__libc_fini_array+0x10>
 800e8dc:	e8bd 4038 	ldmia.w	sp!, {r3, r4, r5, lr}
 800e8e0:	f000 bd48 	b.w	800f374 <_fini>
 800e8e4:	0801e0fc 	.word	0x0801e0fc
 800e8e8:	0801e0f8 	.word	0x0801e0f8

0800e8ec <__libc_init_array>:
__libc_init_array():
 800e8ec:	b570      	push	{r4, r5, r6, lr}
 800e8ee:	4e0d      	ldr	r6, [pc, #52]	; (800e924 <__libc_init_array+0x38>)
 800e8f0:	4d0d      	ldr	r5, [pc, #52]	; (800e928 <__libc_init_array+0x3c>)
 800e8f2:	1b76      	subs	r6, r6, r5
 800e8f4:	10b6      	asrs	r6, r6, #2
 800e8f6:	d006      	beq.n	800e906 <__libc_init_array+0x1a>
 800e8f8:	2400      	movs	r4, #0
 800e8fa:	f855 3b04 	ldr.w	r3, [r5], #4
 800e8fe:	3401      	adds	r4, #1
 800e900:	4798      	blx	r3
 800e902:	42a6      	cmp	r6, r4
 800e904:	d1f9      	bne.n	800e8fa <__libc_init_array+0xe>
 800e906:	4e09      	ldr	r6, [pc, #36]	; (800e92c <__libc_init_array+0x40>)
 800e908:	4d09      	ldr	r5, [pc, #36]	; (800e930 <__libc_init_array+0x44>)
 800e90a:	1b76      	subs	r6, r6, r5
 800e90c:	f000 fd2c 	bl	800f368 <_init>
 800e910:	10b6      	asrs	r6, r6, #2
 800e912:	d006      	beq.n	800e922 <__libc_init_array+0x36>
 800e914:	2400      	movs	r4, #0
 800e916:	f855 3b04 	ldr.w	r3, [r5], #4
 800e91a:	3401      	adds	r4, #1
 800e91c:	4798      	blx	r3
 800e91e:	42a6      	cmp	r6, r4
 800e920:	d1f9      	bne.n	800e916 <__libc_init_array+0x2a>
 800e922:	bd70      	pop	{r4, r5, r6, pc}
 800e924:	0801e0f0 	.word	0x0801e0f0
 800e928:	0801e0f0 	.word	0x0801e0f0
 800e92c:	0801e0f8 	.word	0x0801e0f8
 800e930:	0801e0f0 	.word	0x0801e0f0

0800e934 <memset>:
memset():
 800e934:	b4f0      	push	{r4, r5, r6, r7}
 800e936:	0786      	lsls	r6, r0, #30
 800e938:	d046      	beq.n	800e9c8 <memset+0x94>
 800e93a:	1e54      	subs	r4, r2, #1
 800e93c:	2a00      	cmp	r2, #0
 800e93e:	d03c      	beq.n	800e9ba <memset+0x86>
 800e940:	b2ca      	uxtb	r2, r1
 800e942:	4603      	mov	r3, r0
 800e944:	e001      	b.n	800e94a <memset+0x16>
 800e946:	3c01      	subs	r4, #1
 800e948:	d337      	bcc.n	800e9ba <memset+0x86>
 800e94a:	f803 2b01 	strb.w	r2, [r3], #1
 800e94e:	079d      	lsls	r5, r3, #30
 800e950:	d1f9      	bne.n	800e946 <memset+0x12>
 800e952:	2c03      	cmp	r4, #3
 800e954:	d92a      	bls.n	800e9ac <memset+0x78>
 800e956:	b2cd      	uxtb	r5, r1
 800e958:	ea45 2505 	orr.w	r5, r5, r5, lsl #8
 800e95c:	2c0f      	cmp	r4, #15
 800e95e:	ea45 4505 	orr.w	r5, r5, r5, lsl #16
 800e962:	d934      	bls.n	800e9ce <memset+0x9a>
 800e964:	f1a4 0210 	sub.w	r2, r4, #16
 800e968:	f022 0c0f 	bic.w	ip, r2, #15
 800e96c:	f103 0720 	add.w	r7, r3, #32
 800e970:	0916      	lsrs	r6, r2, #4
 800e972:	4467      	add	r7, ip
 800e974:	f103 0210 	add.w	r2, r3, #16
 800e978:	e942 5504 	strd	r5, r5, [r2, #-16]
 800e97c:	e942 5502 	strd	r5, r5, [r2, #-8]
 800e980:	3210      	adds	r2, #16
 800e982:	42ba      	cmp	r2, r7
 800e984:	d1f8      	bne.n	800e978 <memset+0x44>
 800e986:	1c72      	adds	r2, r6, #1
 800e988:	f014 0f0c 	tst.w	r4, #12
 800e98c:	eb03 1202 	add.w	r2, r3, r2, lsl #4
 800e990:	f004 060f 	and.w	r6, r4, #15
 800e994:	d013      	beq.n	800e9be <memset+0x8a>
 800e996:	1f33      	subs	r3, r6, #4
 800e998:	f023 0303 	bic.w	r3, r3, #3
 800e99c:	3304      	adds	r3, #4
 800e99e:	4413      	add	r3, r2
 800e9a0:	f842 5b04 	str.w	r5, [r2], #4
 800e9a4:	4293      	cmp	r3, r2
 800e9a6:	d1fb      	bne.n	800e9a0 <memset+0x6c>
 800e9a8:	f006 0403 	and.w	r4, r6, #3
 800e9ac:	b12c      	cbz	r4, 800e9ba <memset+0x86>
 800e9ae:	b2ca      	uxtb	r2, r1
 800e9b0:	441c      	add	r4, r3
 800e9b2:	f803 2b01 	strb.w	r2, [r3], #1
 800e9b6:	429c      	cmp	r4, r3
 800e9b8:	d1fb      	bne.n	800e9b2 <memset+0x7e>
 800e9ba:	bcf0      	pop	{r4, r5, r6, r7}
 800e9bc:	4770      	bx	lr
 800e9be:	4634      	mov	r4, r6
 800e9c0:	4613      	mov	r3, r2
 800e9c2:	2c00      	cmp	r4, #0
 800e9c4:	d1f3      	bne.n	800e9ae <memset+0x7a>
 800e9c6:	e7f8      	b.n	800e9ba <memset+0x86>
 800e9c8:	4614      	mov	r4, r2
 800e9ca:	4603      	mov	r3, r0
 800e9cc:	e7c1      	b.n	800e952 <memset+0x1e>
 800e9ce:	461a      	mov	r2, r3
 800e9d0:	4626      	mov	r6, r4
 800e9d2:	e7e0      	b.n	800e996 <memset+0x62>

0800e9d4 <srand>:
srand():
 800e9d4:	4b02      	ldr	r3, [pc, #8]	; (800e9e0 <srand+0xc>)
 800e9d6:	681b      	ldr	r3, [r3, #0]
 800e9d8:	2200      	movs	r2, #0
 800e9da:	e9c3 022a 	strd	r0, r2, [r3, #168]	; 0xa8
 800e9de:	4770      	bx	lr
 800e9e0:	20000064 	.word	0x20000064

0800e9e4 <rand>:
rand():
 800e9e4:	4b0b      	ldr	r3, [pc, #44]	; (800ea14 <rand+0x30>)
 800e9e6:	480c      	ldr	r0, [pc, #48]	; (800ea18 <rand+0x34>)
 800e9e8:	6819      	ldr	r1, [r3, #0]
 800e9ea:	e9d1 232a 	ldrd	r2, r3, [r1, #168]	; 0xa8
 800e9ee:	b410      	push	{r4}
 800e9f0:	4c0a      	ldr	r4, [pc, #40]	; (800ea1c <rand+0x38>)
 800e9f2:	fb00 f002 	mul.w	r0, r0, r2
 800e9f6:	fb04 0003 	mla	r0, r4, r3, r0
 800e9fa:	fba2 3404 	umull	r3, r4, r2, r4
 800e9fe:	4404      	add	r4, r0
 800ea00:	1c5a      	adds	r2, r3, #1
 800ea02:	f144 0000 	adc.w	r0, r4, #0
 800ea06:	e9c1 202a 	strd	r2, r0, [r1, #168]	; 0xa8
 800ea0a:	f85d 4b04 	ldr.w	r4, [sp], #4
 800ea0e:	f020 4000 	bic.w	r0, r0, #2147483648	; 0x80000000
 800ea12:	4770      	bx	lr
 800ea14:	20000064 	.word	0x20000064
 800ea18:	5851f42d 	.word	0x5851f42d
 800ea1c:	4c957f2d 	.word	0x4c957f2d

0800ea20 <__register_exitproc>:
__register_exitproc():
 800ea20:	e92d 47f0 	stmdb	sp!, {r4, r5, r6, r7, r8, r9, sl, lr}
 800ea24:	f8df a07c 	ldr.w	sl, [pc, #124]	; 800eaa4 <__register_exitproc+0x84>
 800ea28:	4606      	mov	r6, r0
 800ea2a:	f8da 0000 	ldr.w	r0, [sl]
 800ea2e:	4698      	mov	r8, r3
 800ea30:	460f      	mov	r7, r1
 800ea32:	4691      	mov	r9, r2
 800ea34:	f000 f842 	bl	800eabc <__retarget_lock_acquire_recursive>
 800ea38:	4b19      	ldr	r3, [pc, #100]	; (800eaa0 <__register_exitproc+0x80>)
 800ea3a:	681b      	ldr	r3, [r3, #0]
 800ea3c:	f8d3 4148 	ldr.w	r4, [r3, #328]	; 0x148
 800ea40:	b324      	cbz	r4, 800ea8c <__register_exitproc+0x6c>
 800ea42:	6865      	ldr	r5, [r4, #4]
 800ea44:	f8da 0000 	ldr.w	r0, [sl]
 800ea48:	2d1f      	cmp	r5, #31
 800ea4a:	dc24      	bgt.n	800ea96 <__register_exitproc+0x76>
 800ea4c:	b94e      	cbnz	r6, 800ea62 <__register_exitproc+0x42>
 800ea4e:	1cab      	adds	r3, r5, #2
 800ea50:	3501      	adds	r5, #1
 800ea52:	6065      	str	r5, [r4, #4]
 800ea54:	f844 7023 	str.w	r7, [r4, r3, lsl #2]
 800ea58:	f000 f832 	bl	800eac0 <__retarget_lock_release_recursive>
 800ea5c:	2000      	movs	r0, #0
 800ea5e:	e8bd 87f0 	ldmia.w	sp!, {r4, r5, r6, r7, r8, r9, sl, pc}
 800ea62:	eb04 0385 	add.w	r3, r4, r5, lsl #2
 800ea66:	2201      	movs	r2, #1
 800ea68:	f8c3 9088 	str.w	r9, [r3, #136]	; 0x88
 800ea6c:	f8d4 1188 	ldr.w	r1, [r4, #392]	; 0x188
 800ea70:	40aa      	lsls	r2, r5
 800ea72:	4311      	orrs	r1, r2
 800ea74:	2e02      	cmp	r6, #2
 800ea76:	f8c4 1188 	str.w	r1, [r4, #392]	; 0x188
 800ea7a:	f8c3 8108 	str.w	r8, [r3, #264]	; 0x108
 800ea7e:	d1e6      	bne.n	800ea4e <__register_exitproc+0x2e>
 800ea80:	f8d4 318c 	ldr.w	r3, [r4, #396]	; 0x18c
 800ea84:	431a      	orrs	r2, r3
 800ea86:	f8c4 218c 	str.w	r2, [r4, #396]	; 0x18c
 800ea8a:	e7e0      	b.n	800ea4e <__register_exitproc+0x2e>
 800ea8c:	f503 74a6 	add.w	r4, r3, #332	; 0x14c
 800ea90:	f8c3 4148 	str.w	r4, [r3, #328]	; 0x148
 800ea94:	e7d5      	b.n	800ea42 <__register_exitproc+0x22>
 800ea96:	f000 f813 	bl	800eac0 <__retarget_lock_release_recursive>
 800ea9a:	f04f 30ff 	mov.w	r0, #4294967295	; 0xffffffff
 800ea9e:	e7de      	b.n	800ea5e <__register_exitproc+0x3e>
 800eaa0:	0801e0ec 	.word	0x0801e0ec
 800eaa4:	20000490 	.word	0x20000490

0800eaa8 <register_fini>:
register_fini():
 800eaa8:	4b02      	ldr	r3, [pc, #8]	; (800eab4 <register_fini+0xc>)
 800eaaa:	b113      	cbz	r3, 800eab2 <register_fini+0xa>
 800eaac:	4802      	ldr	r0, [pc, #8]	; (800eab8 <register_fini+0x10>)
 800eaae:	f7ff befb 	b.w	800e8a8 <atexit>
 800eab2:	4770      	bx	lr
 800eab4:	00000000 	.word	0x00000000
 800eab8:	0800e8c1 	.word	0x0800e8c1

0800eabc <__retarget_lock_acquire_recursive>:
__retarget_lock_acquire_recursive():
 800eabc:	4770      	bx	lr
 800eabe:	bf00      	nop

0800eac0 <__retarget_lock_release_recursive>:
__retarget_lock_release_recursive():
 800eac0:	4770      	bx	lr
 800eac2:	bf00      	nop

0800eac4 <malloc>:
malloc():
 800eac4:	4b02      	ldr	r3, [pc, #8]	; (800ead0 <malloc+0xc>)
 800eac6:	4601      	mov	r1, r0
 800eac8:	6818      	ldr	r0, [r3, #0]
 800eaca:	f000 b80b 	b.w	800eae4 <_malloc_r>
 800eace:	bf00      	nop
 800ead0:	20000064 	.word	0x20000064

0800ead4 <free>:
free():
 800ead4:	4b02      	ldr	r3, [pc, #8]	; (800eae0 <free+0xc>)
 800ead6:	4601      	mov	r1, r0
 800ead8:	6818      	ldr	r0, [r3, #0]
 800eada:	f000 bb2d 	b.w	800f138 <_free_r>
 800eade:	bf00      	nop
 800eae0:	20000064 	.word	0x20000064

0800eae4 <_malloc_r>:
_malloc_r():
 800eae4:	e92d 4ff0 	stmdb	sp!, {r4, r5, r6, r7, r8, r9, sl, fp, lr}
 800eae8:	f101 050b 	add.w	r5, r1, #11
 800eaec:	2d16      	cmp	r5, #22
 800eaee:	b083      	sub	sp, #12
 800eaf0:	4606      	mov	r6, r0
 800eaf2:	d823      	bhi.n	800eb3c <_malloc_r+0x58>
 800eaf4:	2910      	cmp	r1, #16
 800eaf6:	f200 80a7 	bhi.w	800ec48 <_malloc_r+0x164>
 800eafa:	f000 faaf 	bl	800f05c <__malloc_lock>
 800eafe:	2510      	movs	r5, #16
 800eb00:	2002      	movs	r0, #2
 800eb02:	2318      	movs	r3, #24
 800eb04:	4fca      	ldr	r7, [pc, #808]	; (800ee30 <_malloc_r+0x34c>)
 800eb06:	443b      	add	r3, r7
 800eb08:	f1a3 0208 	sub.w	r2, r3, #8
 800eb0c:	685c      	ldr	r4, [r3, #4]
 800eb0e:	4294      	cmp	r4, r2
 800eb10:	f000 80a7 	beq.w	800ec62 <_malloc_r+0x17e>
 800eb14:	6863      	ldr	r3, [r4, #4]
 800eb16:	f023 0303 	bic.w	r3, r3, #3
 800eb1a:	4423      	add	r3, r4
 800eb1c:	e9d4 5102 	ldrd	r5, r1, [r4, #8]
 800eb20:	685a      	ldr	r2, [r3, #4]
 800eb22:	60e9      	str	r1, [r5, #12]
 800eb24:	f042 0201 	orr.w	r2, r2, #1
 800eb28:	4630      	mov	r0, r6
 800eb2a:	608d      	str	r5, [r1, #8]
 800eb2c:	605a      	str	r2, [r3, #4]
 800eb2e:	f000 fa9b 	bl	800f068 <__malloc_unlock>
 800eb32:	3408      	adds	r4, #8
 800eb34:	4620      	mov	r0, r4
 800eb36:	b003      	add	sp, #12
 800eb38:	e8bd 8ff0 	ldmia.w	sp!, {r4, r5, r6, r7, r8, r9, sl, fp, pc}
 800eb3c:	f035 0507 	bics.w	r5, r5, #7
 800eb40:	f100 8082 	bmi.w	800ec48 <_malloc_r+0x164>
 800eb44:	42a9      	cmp	r1, r5
 800eb46:	d87f      	bhi.n	800ec48 <_malloc_r+0x164>
 800eb48:	f000 fa88 	bl	800f05c <__malloc_lock>
 800eb4c:	f5b5 7ffc 	cmp.w	r5, #504	; 0x1f8
 800eb50:	f0c0 81a2 	bcc.w	800ee98 <_malloc_r+0x3b4>
 800eb54:	0a6b      	lsrs	r3, r5, #9
 800eb56:	d07e      	beq.n	800ec56 <_malloc_r+0x172>
 800eb58:	2b04      	cmp	r3, #4
 800eb5a:	f200 815d 	bhi.w	800ee18 <_malloc_r+0x334>
 800eb5e:	09ab      	lsrs	r3, r5, #6
 800eb60:	f103 0039 	add.w	r0, r3, #57	; 0x39
 800eb64:	f103 0c38 	add.w	ip, r3, #56	; 0x38
 800eb68:	00c3      	lsls	r3, r0, #3
 800eb6a:	4fb1      	ldr	r7, [pc, #708]	; (800ee30 <_malloc_r+0x34c>)
 800eb6c:	443b      	add	r3, r7
 800eb6e:	f1a3 0108 	sub.w	r1, r3, #8
 800eb72:	685c      	ldr	r4, [r3, #4]
 800eb74:	42a1      	cmp	r1, r4
 800eb76:	d106      	bne.n	800eb86 <_malloc_r+0xa2>
 800eb78:	e00c      	b.n	800eb94 <_malloc_r+0xb0>
 800eb7a:	2a00      	cmp	r2, #0
 800eb7c:	f280 8119 	bge.w	800edb2 <_malloc_r+0x2ce>
 800eb80:	68e4      	ldr	r4, [r4, #12]
 800eb82:	42a1      	cmp	r1, r4
 800eb84:	d006      	beq.n	800eb94 <_malloc_r+0xb0>
 800eb86:	6863      	ldr	r3, [r4, #4]
 800eb88:	f023 0303 	bic.w	r3, r3, #3
 800eb8c:	1b5a      	subs	r2, r3, r5
 800eb8e:	2a0f      	cmp	r2, #15
 800eb90:	ddf3      	ble.n	800eb7a <_malloc_r+0x96>
 800eb92:	4660      	mov	r0, ip
 800eb94:	693c      	ldr	r4, [r7, #16]
 800eb96:	f8df 82ac 	ldr.w	r8, [pc, #684]	; 800ee44 <_malloc_r+0x360>
 800eb9a:	4544      	cmp	r4, r8
 800eb9c:	d06c      	beq.n	800ec78 <_malloc_r+0x194>
 800eb9e:	6862      	ldr	r2, [r4, #4]
 800eba0:	f022 0203 	bic.w	r2, r2, #3
 800eba4:	1b53      	subs	r3, r2, r5
 800eba6:	2b0f      	cmp	r3, #15
 800eba8:	f300 8184 	bgt.w	800eeb4 <_malloc_r+0x3d0>
 800ebac:	2b00      	cmp	r3, #0
 800ebae:	e9c7 8804 	strd	r8, r8, [r7, #16]
 800ebb2:	f280 8175 	bge.w	800eea0 <_malloc_r+0x3bc>
 800ebb6:	f5b2 7f00 	cmp.w	r2, #512	; 0x200
 800ebba:	f080 8108 	bcs.w	800edce <_malloc_r+0x2ea>
 800ebbe:	08d1      	lsrs	r1, r2, #3
 800ebc0:	3101      	adds	r1, #1
 800ebc2:	0952      	lsrs	r2, r2, #5
 800ebc4:	2301      	movs	r3, #1
 800ebc6:	4093      	lsls	r3, r2
 800ebc8:	687a      	ldr	r2, [r7, #4]
 800ebca:	f857 c031 	ldr.w	ip, [r7, r1, lsl #3]
 800ebce:	f8c4 c008 	str.w	ip, [r4, #8]
 800ebd2:	eb07 0ec1 	add.w	lr, r7, r1, lsl #3
 800ebd6:	4313      	orrs	r3, r2
 800ebd8:	f1ae 0208 	sub.w	r2, lr, #8
 800ebdc:	60e2      	str	r2, [r4, #12]
 800ebde:	607b      	str	r3, [r7, #4]
 800ebe0:	f847 4031 	str.w	r4, [r7, r1, lsl #3]
 800ebe4:	f8cc 400c 	str.w	r4, [ip, #12]
 800ebe8:	1082      	asrs	r2, r0, #2
 800ebea:	f04f 0c01 	mov.w	ip, #1
 800ebee:	fa0c fc02 	lsl.w	ip, ip, r2
 800ebf2:	459c      	cmp	ip, r3
 800ebf4:	d848      	bhi.n	800ec88 <_malloc_r+0x1a4>
 800ebf6:	ea1c 0f03 	tst.w	ip, r3
 800ebfa:	d108      	bne.n	800ec0e <_malloc_r+0x12a>
 800ebfc:	f020 0003 	bic.w	r0, r0, #3
 800ec00:	ea4f 0c4c 	mov.w	ip, ip, lsl #1
 800ec04:	ea1c 0f03 	tst.w	ip, r3
 800ec08:	f100 0004 	add.w	r0, r0, #4
 800ec0c:	d0f8      	beq.n	800ec00 <_malloc_r+0x11c>
 800ec0e:	eb07 0ac0 	add.w	sl, r7, r0, lsl #3
 800ec12:	46d6      	mov	lr, sl
 800ec14:	4681      	mov	r9, r0
 800ec16:	f8de 300c 	ldr.w	r3, [lr, #12]
 800ec1a:	e00b      	b.n	800ec34 <_malloc_r+0x150>
 800ec1c:	6859      	ldr	r1, [r3, #4]
 800ec1e:	f021 0103 	bic.w	r1, r1, #3
 800ec22:	1b4a      	subs	r2, r1, r5
 800ec24:	2a0f      	cmp	r2, #15
 800ec26:	461c      	mov	r4, r3
 800ec28:	68db      	ldr	r3, [r3, #12]
 800ec2a:	f300 810f 	bgt.w	800ee4c <_malloc_r+0x368>
 800ec2e:	2a00      	cmp	r2, #0
 800ec30:	f280 8125 	bge.w	800ee7e <_malloc_r+0x39a>
 800ec34:	459e      	cmp	lr, r3
 800ec36:	d1f1      	bne.n	800ec1c <_malloc_r+0x138>
 800ec38:	f109 0901 	add.w	r9, r9, #1
 800ec3c:	f019 0f03 	tst.w	r9, #3
 800ec40:	f10e 0e08 	add.w	lr, lr, #8
 800ec44:	d1e7      	bne.n	800ec16 <_malloc_r+0x132>
 800ec46:	e16a      	b.n	800ef1e <_malloc_r+0x43a>
 800ec48:	230c      	movs	r3, #12
 800ec4a:	6033      	str	r3, [r6, #0]
 800ec4c:	2400      	movs	r4, #0
 800ec4e:	4620      	mov	r0, r4
 800ec50:	b003      	add	sp, #12
 800ec52:	e8bd 8ff0 	ldmia.w	sp!, {r4, r5, r6, r7, r8, r9, sl, fp, pc}
 800ec56:	f44f 7300 	mov.w	r3, #512	; 0x200
 800ec5a:	2040      	movs	r0, #64	; 0x40
 800ec5c:	f04f 0c3f 	mov.w	ip, #63	; 0x3f
 800ec60:	e783      	b.n	800eb6a <_malloc_r+0x86>
 800ec62:	68dc      	ldr	r4, [r3, #12]
 800ec64:	42a3      	cmp	r3, r4
 800ec66:	bf08      	it	eq
 800ec68:	3002      	addeq	r0, #2
 800ec6a:	f47f af53 	bne.w	800eb14 <_malloc_r+0x30>
 800ec6e:	693c      	ldr	r4, [r7, #16]
 800ec70:	f8df 81d0 	ldr.w	r8, [pc, #464]	; 800ee44 <_malloc_r+0x360>
 800ec74:	4544      	cmp	r4, r8
 800ec76:	d192      	bne.n	800eb9e <_malloc_r+0xba>
 800ec78:	687b      	ldr	r3, [r7, #4]
 800ec7a:	1082      	asrs	r2, r0, #2
 800ec7c:	f04f 0c01 	mov.w	ip, #1
 800ec80:	fa0c fc02 	lsl.w	ip, ip, r2
 800ec84:	459c      	cmp	ip, r3
 800ec86:	d9b6      	bls.n	800ebf6 <_malloc_r+0x112>
 800ec88:	68bc      	ldr	r4, [r7, #8]
 800ec8a:	6863      	ldr	r3, [r4, #4]
 800ec8c:	f023 0803 	bic.w	r8, r3, #3
 800ec90:	4545      	cmp	r5, r8
 800ec92:	d803      	bhi.n	800ec9c <_malloc_r+0x1b8>
 800ec94:	eba8 0305 	sub.w	r3, r8, r5
 800ec98:	2b0f      	cmp	r3, #15
 800ec9a:	dc7a      	bgt.n	800ed92 <_malloc_r+0x2ae>
 800ec9c:	f8df 91a8 	ldr.w	r9, [pc, #424]	; 800ee48 <_malloc_r+0x364>
 800eca0:	4b64      	ldr	r3, [pc, #400]	; (800ee34 <_malloc_r+0x350>)
 800eca2:	f8d9 2000 	ldr.w	r2, [r9]
 800eca6:	681b      	ldr	r3, [r3, #0]
 800eca8:	3201      	adds	r2, #1
 800ecaa:	442b      	add	r3, r5
 800ecac:	eb04 0a08 	add.w	sl, r4, r8
 800ecb0:	f000 8150 	beq.w	800ef54 <_malloc_r+0x470>
 800ecb4:	f503 5380 	add.w	r3, r3, #4096	; 0x1000
 800ecb8:	330f      	adds	r3, #15
 800ecba:	f423 6b7f 	bic.w	fp, r3, #4080	; 0xff0
 800ecbe:	f02b 0b0f 	bic.w	fp, fp, #15
 800ecc2:	4659      	mov	r1, fp
 800ecc4:	4630      	mov	r0, r6
 800ecc6:	f000 f9d5 	bl	800f074 <_sbrk_r>
 800ecca:	1c41      	adds	r1, r0, #1
 800eccc:	4602      	mov	r2, r0
 800ecce:	f000 810b 	beq.w	800eee8 <_malloc_r+0x404>
 800ecd2:	4582      	cmp	sl, r0
 800ecd4:	f200 8106 	bhi.w	800eee4 <_malloc_r+0x400>
 800ecd8:	4b57      	ldr	r3, [pc, #348]	; (800ee38 <_malloc_r+0x354>)
 800ecda:	6819      	ldr	r1, [r3, #0]
 800ecdc:	4459      	add	r1, fp
 800ecde:	6019      	str	r1, [r3, #0]
 800ece0:	4608      	mov	r0, r1
 800ece2:	f000 816b 	beq.w	800efbc <_malloc_r+0x4d8>
 800ece6:	f8d9 1000 	ldr.w	r1, [r9]
 800ecea:	9301      	str	r3, [sp, #4]
 800ecec:	3101      	adds	r1, #1
 800ecee:	bf1b      	ittet	ne
 800ecf0:	eba2 0a0a 	subne.w	sl, r2, sl
 800ecf4:	4450      	addne	r0, sl
 800ecf6:	f8c9 2000 	streq.w	r2, [r9]
 800ecfa:	6018      	strne	r0, [r3, #0]
 800ecfc:	f012 0a07 	ands.w	sl, r2, #7
 800ed00:	f000 8134 	beq.w	800ef6c <_malloc_r+0x488>
 800ed04:	f1ca 0108 	rsb	r1, sl, #8
 800ed08:	440a      	add	r2, r1
 800ed0a:	f5ca 5180 	rsb	r1, sl, #4096	; 0x1000
 800ed0e:	4493      	add	fp, r2
 800ed10:	3108      	adds	r1, #8
 800ed12:	eba1 010b 	sub.w	r1, r1, fp
 800ed16:	f3c1 090b 	ubfx	r9, r1, #0, #12
 800ed1a:	4649      	mov	r1, r9
 800ed1c:	4630      	mov	r0, r6
 800ed1e:	9200      	str	r2, [sp, #0]
 800ed20:	f000 f9a8 	bl	800f074 <_sbrk_r>
 800ed24:	1c42      	adds	r2, r0, #1
 800ed26:	e9dd 2300 	ldrd	r2, r3, [sp]
 800ed2a:	f000 816c 	beq.w	800f006 <_malloc_r+0x522>
 800ed2e:	1a80      	subs	r0, r0, r2
 800ed30:	eb00 0b09 	add.w	fp, r0, r9
 800ed34:	6819      	ldr	r1, [r3, #0]
 800ed36:	60ba      	str	r2, [r7, #8]
 800ed38:	f04b 0001 	orr.w	r0, fp, #1
 800ed3c:	4449      	add	r1, r9
 800ed3e:	42bc      	cmp	r4, r7
 800ed40:	6050      	str	r0, [r2, #4]
 800ed42:	6019      	str	r1, [r3, #0]
 800ed44:	f000 8146 	beq.w	800efd4 <_malloc_r+0x4f0>
 800ed48:	f1b8 0f0f 	cmp.w	r8, #15
 800ed4c:	f240 8144 	bls.w	800efd8 <_malloc_r+0x4f4>
 800ed50:	6860      	ldr	r0, [r4, #4]
 800ed52:	f1a8 0c0c 	sub.w	ip, r8, #12
 800ed56:	f02c 0c07 	bic.w	ip, ip, #7
 800ed5a:	f000 0001 	and.w	r0, r0, #1
 800ed5e:	eb04 0e0c 	add.w	lr, r4, ip
 800ed62:	ea40 000c 	orr.w	r0, r0, ip
 800ed66:	f04f 0805 	mov.w	r8, #5
 800ed6a:	f1bc 0f0f 	cmp.w	ip, #15
 800ed6e:	6060      	str	r0, [r4, #4]
 800ed70:	e9ce 8801 	strd	r8, r8, [lr, #4]
 800ed74:	f200 814f 	bhi.w	800f016 <_malloc_r+0x532>
 800ed78:	6850      	ldr	r0, [r2, #4]
 800ed7a:	4614      	mov	r4, r2
 800ed7c:	4b2f      	ldr	r3, [pc, #188]	; (800ee3c <_malloc_r+0x358>)
 800ed7e:	681a      	ldr	r2, [r3, #0]
 800ed80:	428a      	cmp	r2, r1
 800ed82:	bf38      	it	cc
 800ed84:	6019      	strcc	r1, [r3, #0]
 800ed86:	4b2e      	ldr	r3, [pc, #184]	; (800ee40 <_malloc_r+0x35c>)
 800ed88:	681a      	ldr	r2, [r3, #0]
 800ed8a:	428a      	cmp	r2, r1
 800ed8c:	bf38      	it	cc
 800ed8e:	6019      	strcc	r1, [r3, #0]
 800ed90:	e0ac      	b.n	800eeec <_malloc_r+0x408>
 800ed92:	1962      	adds	r2, r4, r5
 800ed94:	f043 0301 	orr.w	r3, r3, #1
 800ed98:	f045 0501 	orr.w	r5, r5, #1
 800ed9c:	6065      	str	r5, [r4, #4]
 800ed9e:	4630      	mov	r0, r6
 800eda0:	60ba      	str	r2, [r7, #8]
 800eda2:	6053      	str	r3, [r2, #4]
 800eda4:	f000 f960 	bl	800f068 <__malloc_unlock>
 800eda8:	3408      	adds	r4, #8
 800edaa:	4620      	mov	r0, r4
 800edac:	b003      	add	sp, #12
 800edae:	e8bd 8ff0 	ldmia.w	sp!, {r4, r5, r6, r7, r8, r9, sl, fp, pc}
 800edb2:	4423      	add	r3, r4
 800edb4:	68e1      	ldr	r1, [r4, #12]
 800edb6:	685a      	ldr	r2, [r3, #4]
 800edb8:	68a5      	ldr	r5, [r4, #8]
 800edba:	f042 0201 	orr.w	r2, r2, #1
 800edbe:	60e9      	str	r1, [r5, #12]
 800edc0:	4630      	mov	r0, r6
 800edc2:	608d      	str	r5, [r1, #8]
 800edc4:	605a      	str	r2, [r3, #4]
 800edc6:	f000 f94f 	bl	800f068 <__malloc_unlock>
 800edca:	3408      	adds	r4, #8
 800edcc:	e73f      	b.n	800ec4e <_malloc_r+0x16a>
 800edce:	f5b2 6f20 	cmp.w	r2, #2560	; 0xa00
 800edd2:	ea4f 2352 	mov.w	r3, r2, lsr #9
 800edd6:	d37f      	bcc.n	800eed8 <_malloc_r+0x3f4>
 800edd8:	2b14      	cmp	r3, #20
 800edda:	f200 80d8 	bhi.w	800ef8e <_malloc_r+0x4aa>
 800edde:	f103 015c 	add.w	r1, r3, #92	; 0x5c
 800ede2:	00c9      	lsls	r1, r1, #3
 800ede4:	335b      	adds	r3, #91	; 0x5b
 800ede6:	eb07 0c01 	add.w	ip, r7, r1
 800edea:	5879      	ldr	r1, [r7, r1]
 800edec:	f1ac 0c08 	sub.w	ip, ip, #8
 800edf0:	458c      	cmp	ip, r1
 800edf2:	f000 80b2 	beq.w	800ef5a <_malloc_r+0x476>
 800edf6:	684b      	ldr	r3, [r1, #4]
 800edf8:	f023 0303 	bic.w	r3, r3, #3
 800edfc:	4293      	cmp	r3, r2
 800edfe:	d902      	bls.n	800ee06 <_malloc_r+0x322>
 800ee00:	6889      	ldr	r1, [r1, #8]
 800ee02:	458c      	cmp	ip, r1
 800ee04:	d1f7      	bne.n	800edf6 <_malloc_r+0x312>
 800ee06:	f8d1 c00c 	ldr.w	ip, [r1, #12]
 800ee0a:	687b      	ldr	r3, [r7, #4]
 800ee0c:	e9c4 1c02 	strd	r1, ip, [r4, #8]
 800ee10:	f8cc 4008 	str.w	r4, [ip, #8]
 800ee14:	60cc      	str	r4, [r1, #12]
 800ee16:	e6e7      	b.n	800ebe8 <_malloc_r+0x104>
 800ee18:	2b14      	cmp	r3, #20
 800ee1a:	d975      	bls.n	800ef08 <_malloc_r+0x424>
 800ee1c:	2b54      	cmp	r3, #84	; 0x54
 800ee1e:	f200 80be 	bhi.w	800ef9e <_malloc_r+0x4ba>
 800ee22:	0b2b      	lsrs	r3, r5, #12
 800ee24:	f103 006f 	add.w	r0, r3, #111	; 0x6f
 800ee28:	f103 0c6e 	add.w	ip, r3, #110	; 0x6e
 800ee2c:	00c3      	lsls	r3, r0, #3
 800ee2e:	e69c      	b.n	800eb6a <_malloc_r+0x86>
 800ee30:	20000494 	.word	0x20000494
 800ee34:	2001f790 	.word	0x2001f790
 800ee38:	2001f760 	.word	0x2001f760
 800ee3c:	2001f788 	.word	0x2001f788
 800ee40:	2001f78c 	.word	0x2001f78c
 800ee44:	2000049c 	.word	0x2000049c
 800ee48:	2000089c 	.word	0x2000089c
 800ee4c:	f8d4 e008 	ldr.w	lr, [r4, #8]
 800ee50:	eb04 0c05 	add.w	ip, r4, r5
 800ee54:	f045 0501 	orr.w	r5, r5, #1
 800ee58:	6065      	str	r5, [r4, #4]
 800ee5a:	f042 0501 	orr.w	r5, r2, #1
 800ee5e:	f8ce 300c 	str.w	r3, [lr, #12]
 800ee62:	4630      	mov	r0, r6
 800ee64:	f8c3 e008 	str.w	lr, [r3, #8]
 800ee68:	e9c7 cc04 	strd	ip, ip, [r7, #16]
 800ee6c:	e9cc 8802 	strd	r8, r8, [ip, #8]
 800ee70:	f8cc 5004 	str.w	r5, [ip, #4]
 800ee74:	5062      	str	r2, [r4, r1]
 800ee76:	f000 f8f7 	bl	800f068 <__malloc_unlock>
 800ee7a:	3408      	adds	r4, #8
 800ee7c:	e6e7      	b.n	800ec4e <_malloc_r+0x16a>
 800ee7e:	4421      	add	r1, r4
 800ee80:	f854 5f08 	ldr.w	r5, [r4, #8]!
 800ee84:	684a      	ldr	r2, [r1, #4]
 800ee86:	f042 0201 	orr.w	r2, r2, #1
 800ee8a:	604a      	str	r2, [r1, #4]
 800ee8c:	4630      	mov	r0, r6
 800ee8e:	60eb      	str	r3, [r5, #12]
 800ee90:	609d      	str	r5, [r3, #8]
 800ee92:	f000 f8e9 	bl	800f068 <__malloc_unlock>
 800ee96:	e6da      	b.n	800ec4e <_malloc_r+0x16a>
 800ee98:	08e8      	lsrs	r0, r5, #3
 800ee9a:	f105 0308 	add.w	r3, r5, #8
 800ee9e:	e631      	b.n	800eb04 <_malloc_r+0x20>
 800eea0:	4422      	add	r2, r4
 800eea2:	4630      	mov	r0, r6
 800eea4:	6853      	ldr	r3, [r2, #4]
 800eea6:	f043 0301 	orr.w	r3, r3, #1
 800eeaa:	6053      	str	r3, [r2, #4]
 800eeac:	3408      	adds	r4, #8
 800eeae:	f000 f8db 	bl	800f068 <__malloc_unlock>
 800eeb2:	e6cc      	b.n	800ec4e <_malloc_r+0x16a>
 800eeb4:	1961      	adds	r1, r4, r5
 800eeb6:	f045 0c01 	orr.w	ip, r5, #1
 800eeba:	f043 0501 	orr.w	r5, r3, #1
 800eebe:	f8c4 c004 	str.w	ip, [r4, #4]
 800eec2:	4630      	mov	r0, r6
 800eec4:	e9c7 1104 	strd	r1, r1, [r7, #16]
 800eec8:	e9c1 8802 	strd	r8, r8, [r1, #8]
 800eecc:	604d      	str	r5, [r1, #4]
 800eece:	50a3      	str	r3, [r4, r2]
 800eed0:	f000 f8ca 	bl	800f068 <__malloc_unlock>
 800eed4:	3408      	adds	r4, #8
 800eed6:	e6ba      	b.n	800ec4e <_malloc_r+0x16a>
 800eed8:	0993      	lsrs	r3, r2, #6
 800eeda:	f103 0139 	add.w	r1, r3, #57	; 0x39
 800eede:	00c9      	lsls	r1, r1, #3
 800eee0:	3338      	adds	r3, #56	; 0x38
 800eee2:	e780      	b.n	800ede6 <_malloc_r+0x302>
 800eee4:	42bc      	cmp	r4, r7
 800eee6:	d064      	beq.n	800efb2 <_malloc_r+0x4ce>
 800eee8:	68bc      	ldr	r4, [r7, #8]
 800eeea:	6860      	ldr	r0, [r4, #4]
 800eeec:	f020 0b03 	bic.w	fp, r0, #3
 800eef0:	455d      	cmp	r5, fp
 800eef2:	ebab 0305 	sub.w	r3, fp, r5
 800eef6:	d802      	bhi.n	800eefe <_malloc_r+0x41a>
 800eef8:	2b0f      	cmp	r3, #15
 800eefa:	f73f af4a 	bgt.w	800ed92 <_malloc_r+0x2ae>
 800eefe:	4630      	mov	r0, r6
 800ef00:	f000 f8b2 	bl	800f068 <__malloc_unlock>
 800ef04:	2400      	movs	r4, #0
 800ef06:	e6a2      	b.n	800ec4e <_malloc_r+0x16a>
 800ef08:	f103 005c 	add.w	r0, r3, #92	; 0x5c
 800ef0c:	f103 0c5b 	add.w	ip, r3, #91	; 0x5b
 800ef10:	00c3      	lsls	r3, r0, #3
 800ef12:	e62a      	b.n	800eb6a <_malloc_r+0x86>
 800ef14:	f85a 3908 	ldr.w	r3, [sl], #-8
 800ef18:	4553      	cmp	r3, sl
 800ef1a:	f040 809b 	bne.w	800f054 <_malloc_r+0x570>
 800ef1e:	f010 0f03 	tst.w	r0, #3
 800ef22:	f100 30ff 	add.w	r0, r0, #4294967295	; 0xffffffff
 800ef26:	d1f5      	bne.n	800ef14 <_malloc_r+0x430>
 800ef28:	687b      	ldr	r3, [r7, #4]
 800ef2a:	ea23 030c 	bic.w	r3, r3, ip
 800ef2e:	607b      	str	r3, [r7, #4]
 800ef30:	ea4f 0c4c 	mov.w	ip, ip, lsl #1
 800ef34:	459c      	cmp	ip, r3
 800ef36:	f63f aea7 	bhi.w	800ec88 <_malloc_r+0x1a4>
 800ef3a:	f1bc 0f00 	cmp.w	ip, #0
 800ef3e:	d104      	bne.n	800ef4a <_malloc_r+0x466>
 800ef40:	e6a2      	b.n	800ec88 <_malloc_r+0x1a4>
 800ef42:	ea4f 0c4c 	mov.w	ip, ip, lsl #1
 800ef46:	f109 0904 	add.w	r9, r9, #4
 800ef4a:	ea1c 0f03 	tst.w	ip, r3
 800ef4e:	d0f8      	beq.n	800ef42 <_malloc_r+0x45e>
 800ef50:	4648      	mov	r0, r9
 800ef52:	e65c      	b.n	800ec0e <_malloc_r+0x12a>
 800ef54:	f103 0b10 	add.w	fp, r3, #16
 800ef58:	e6b3      	b.n	800ecc2 <_malloc_r+0x1de>
 800ef5a:	109a      	asrs	r2, r3, #2
 800ef5c:	f04f 0e01 	mov.w	lr, #1
 800ef60:	687b      	ldr	r3, [r7, #4]
 800ef62:	fa0e f202 	lsl.w	r2, lr, r2
 800ef66:	4313      	orrs	r3, r2
 800ef68:	607b      	str	r3, [r7, #4]
 800ef6a:	e74f      	b.n	800ee0c <_malloc_r+0x328>
 800ef6c:	eb02 010b 	add.w	r1, r2, fp
 800ef70:	4249      	negs	r1, r1
 800ef72:	f3c1 090b 	ubfx	r9, r1, #0, #12
 800ef76:	4649      	mov	r1, r9
 800ef78:	4630      	mov	r0, r6
 800ef7a:	9200      	str	r2, [sp, #0]
 800ef7c:	f000 f87a 	bl	800f074 <_sbrk_r>
 800ef80:	1c43      	adds	r3, r0, #1
 800ef82:	e9dd 2300 	ldrd	r2, r3, [sp]
 800ef86:	f47f aed2 	bne.w	800ed2e <_malloc_r+0x24a>
 800ef8a:	46d1      	mov	r9, sl
 800ef8c:	e6d2      	b.n	800ed34 <_malloc_r+0x250>
 800ef8e:	2b54      	cmp	r3, #84	; 0x54
 800ef90:	d825      	bhi.n	800efde <_malloc_r+0x4fa>
 800ef92:	0b13      	lsrs	r3, r2, #12
 800ef94:	f103 016f 	add.w	r1, r3, #111	; 0x6f
 800ef98:	00c9      	lsls	r1, r1, #3
 800ef9a:	336e      	adds	r3, #110	; 0x6e
 800ef9c:	e723      	b.n	800ede6 <_malloc_r+0x302>
 800ef9e:	f5b3 7faa 	cmp.w	r3, #340	; 0x154
 800efa2:	d825      	bhi.n	800eff0 <_malloc_r+0x50c>
 800efa4:	0beb      	lsrs	r3, r5, #15
 800efa6:	f103 0078 	add.w	r0, r3, #120	; 0x78
 800efaa:	f103 0c77 	add.w	ip, r3, #119	; 0x77
 800efae:	00c3      	lsls	r3, r0, #3
 800efb0:	e5db      	b.n	800eb6a <_malloc_r+0x86>
 800efb2:	4b29      	ldr	r3, [pc, #164]	; (800f058 <_malloc_r+0x574>)
 800efb4:	6818      	ldr	r0, [r3, #0]
 800efb6:	4458      	add	r0, fp
 800efb8:	6018      	str	r0, [r3, #0]
 800efba:	e694      	b.n	800ece6 <_malloc_r+0x202>
 800efbc:	f3ca 0c0b 	ubfx	ip, sl, #0, #12
 800efc0:	f1bc 0f00 	cmp.w	ip, #0
 800efc4:	f47f ae8f 	bne.w	800ece6 <_malloc_r+0x202>
 800efc8:	68bc      	ldr	r4, [r7, #8]
 800efca:	44c3      	add	fp, r8
 800efcc:	f04b 0001 	orr.w	r0, fp, #1
 800efd0:	6060      	str	r0, [r4, #4]
 800efd2:	e6d3      	b.n	800ed7c <_malloc_r+0x298>
 800efd4:	4614      	mov	r4, r2
 800efd6:	e6d1      	b.n	800ed7c <_malloc_r+0x298>
 800efd8:	2301      	movs	r3, #1
 800efda:	6053      	str	r3, [r2, #4]
 800efdc:	e78f      	b.n	800eefe <_malloc_r+0x41a>
 800efde:	f5b3 7faa 	cmp.w	r3, #340	; 0x154
 800efe2:	d823      	bhi.n	800f02c <_malloc_r+0x548>
 800efe4:	0bd3      	lsrs	r3, r2, #15
 800efe6:	f103 0178 	add.w	r1, r3, #120	; 0x78
 800efea:	00c9      	lsls	r1, r1, #3
 800efec:	3377      	adds	r3, #119	; 0x77
 800efee:	e6fa      	b.n	800ede6 <_malloc_r+0x302>
 800eff0:	f240 5254 	movw	r2, #1364	; 0x554
 800eff4:	4293      	cmp	r3, r2
 800eff6:	d823      	bhi.n	800f040 <_malloc_r+0x55c>
 800eff8:	0cab      	lsrs	r3, r5, #18
 800effa:	f103 007d 	add.w	r0, r3, #125	; 0x7d
 800effe:	f103 0c7c 	add.w	ip, r3, #124	; 0x7c
 800f002:	00c3      	lsls	r3, r0, #3
 800f004:	e5b1      	b.n	800eb6a <_malloc_r+0x86>
 800f006:	f1aa 0a08 	sub.w	sl, sl, #8
 800f00a:	44d3      	add	fp, sl
 800f00c:	ebab 0b02 	sub.w	fp, fp, r2
 800f010:	f04f 0900 	mov.w	r9, #0
 800f014:	e68e      	b.n	800ed34 <_malloc_r+0x250>
 800f016:	f104 0108 	add.w	r1, r4, #8
 800f01a:	4630      	mov	r0, r6
 800f01c:	9300      	str	r3, [sp, #0]
 800f01e:	f000 f88b 	bl	800f138 <_free_r>
 800f022:	68bc      	ldr	r4, [r7, #8]
 800f024:	9b00      	ldr	r3, [sp, #0]
 800f026:	6860      	ldr	r0, [r4, #4]
 800f028:	6819      	ldr	r1, [r3, #0]
 800f02a:	e6a7      	b.n	800ed7c <_malloc_r+0x298>
 800f02c:	f240 5154 	movw	r1, #1364	; 0x554
 800f030:	428b      	cmp	r3, r1
 800f032:	d80b      	bhi.n	800f04c <_malloc_r+0x568>
 800f034:	0c93      	lsrs	r3, r2, #18
 800f036:	f103 017d 	add.w	r1, r3, #125	; 0x7d
 800f03a:	00c9      	lsls	r1, r1, #3
 800f03c:	337c      	adds	r3, #124	; 0x7c
 800f03e:	e6d2      	b.n	800ede6 <_malloc_r+0x302>
 800f040:	f44f 737e 	mov.w	r3, #1016	; 0x3f8
 800f044:	207f      	movs	r0, #127	; 0x7f
 800f046:	f04f 0c7e 	mov.w	ip, #126	; 0x7e
 800f04a:	e58e      	b.n	800eb6a <_malloc_r+0x86>
 800f04c:	f44f 717e 	mov.w	r1, #1016	; 0x3f8
 800f050:	237e      	movs	r3, #126	; 0x7e
 800f052:	e6c8      	b.n	800ede6 <_malloc_r+0x302>
 800f054:	687b      	ldr	r3, [r7, #4]
 800f056:	e76b      	b.n	800ef30 <_malloc_r+0x44c>
 800f058:	2001f760 	.word	0x2001f760

0800f05c <__malloc_lock>:
__malloc_lock():
 800f05c:	4801      	ldr	r0, [pc, #4]	; (800f064 <__malloc_lock+0x8>)
 800f05e:	f7ff bd2d 	b.w	800eabc <__retarget_lock_acquire_recursive>
 800f062:	bf00      	nop
 800f064:	2001f7a8 	.word	0x2001f7a8

0800f068 <__malloc_unlock>:
__malloc_unlock():
 800f068:	4801      	ldr	r0, [pc, #4]	; (800f070 <__malloc_unlock+0x8>)
 800f06a:	f7ff bd29 	b.w	800eac0 <__retarget_lock_release_recursive>
 800f06e:	bf00      	nop
 800f070:	2001f7a8 	.word	0x2001f7a8

0800f074 <_sbrk_r>:
_sbrk_r():
 800f074:	b538      	push	{r3, r4, r5, lr}
 800f076:	4d07      	ldr	r5, [pc, #28]	; (800f094 <_sbrk_r+0x20>)
 800f078:	2200      	movs	r2, #0
 800f07a:	4604      	mov	r4, r0
 800f07c:	4608      	mov	r0, r1
 800f07e:	602a      	str	r2, [r5, #0]
 800f080:	f000 f964 	bl	800f34c <_sbrk>
 800f084:	1c43      	adds	r3, r0, #1
 800f086:	d000      	beq.n	800f08a <_sbrk_r+0x16>
 800f088:	bd38      	pop	{r3, r4, r5, pc}
 800f08a:	682b      	ldr	r3, [r5, #0]
 800f08c:	2b00      	cmp	r3, #0
 800f08e:	d0fb      	beq.n	800f088 <_sbrk_r+0x14>
 800f090:	6023      	str	r3, [r4, #0]
 800f092:	bd38      	pop	{r3, r4, r5, pc}
 800f094:	2001f7bc 	.word	0x2001f7bc

0800f098 <_malloc_trim_r>:
_malloc_trim_r():
 800f098:	b5f8      	push	{r3, r4, r5, r6, r7, lr}
 800f09a:	4f24      	ldr	r7, [pc, #144]	; (800f12c <_malloc_trim_r+0x94>)
 800f09c:	460c      	mov	r4, r1
 800f09e:	4606      	mov	r6, r0
 800f0a0:	f7ff ffdc 	bl	800f05c <__malloc_lock>
 800f0a4:	68bb      	ldr	r3, [r7, #8]
 800f0a6:	685d      	ldr	r5, [r3, #4]
 800f0a8:	f5c4 617e 	rsb	r1, r4, #4064	; 0xfe0
 800f0ac:	310f      	adds	r1, #15
 800f0ae:	f025 0503 	bic.w	r5, r5, #3
 800f0b2:	194b      	adds	r3, r1, r5
 800f0b4:	f423 637f 	bic.w	r3, r3, #4080	; 0xff0
 800f0b8:	f023 030f 	bic.w	r3, r3, #15
 800f0bc:	f5a3 5480 	sub.w	r4, r3, #4096	; 0x1000
 800f0c0:	f5b4 5f80 	cmp.w	r4, #4096	; 0x1000
 800f0c4:	db07      	blt.n	800f0d6 <_malloc_trim_r+0x3e>
 800f0c6:	2100      	movs	r1, #0
 800f0c8:	4630      	mov	r0, r6
 800f0ca:	f7ff ffd3 	bl	800f074 <_sbrk_r>
 800f0ce:	68bb      	ldr	r3, [r7, #8]
 800f0d0:	442b      	add	r3, r5
 800f0d2:	4298      	cmp	r0, r3
 800f0d4:	d004      	beq.n	800f0e0 <_malloc_trim_r+0x48>
 800f0d6:	4630      	mov	r0, r6
 800f0d8:	f7ff ffc6 	bl	800f068 <__malloc_unlock>
 800f0dc:	2000      	movs	r0, #0
 800f0de:	bdf8      	pop	{r3, r4, r5, r6, r7, pc}
 800f0e0:	4261      	negs	r1, r4
 800f0e2:	4630      	mov	r0, r6
 800f0e4:	f7ff ffc6 	bl	800f074 <_sbrk_r>
 800f0e8:	3001      	adds	r0, #1
 800f0ea:	d00d      	beq.n	800f108 <_malloc_trim_r+0x70>
 800f0ec:	4a10      	ldr	r2, [pc, #64]	; (800f130 <_malloc_trim_r+0x98>)
 800f0ee:	68b9      	ldr	r1, [r7, #8]
 800f0f0:	6813      	ldr	r3, [r2, #0]
 800f0f2:	1b2d      	subs	r5, r5, r4
 800f0f4:	f045 0501 	orr.w	r5, r5, #1
 800f0f8:	4630      	mov	r0, r6
 800f0fa:	1b1b      	subs	r3, r3, r4
 800f0fc:	604d      	str	r5, [r1, #4]
 800f0fe:	6013      	str	r3, [r2, #0]
 800f100:	f7ff ffb2 	bl	800f068 <__malloc_unlock>
 800f104:	2001      	movs	r0, #1
 800f106:	bdf8      	pop	{r3, r4, r5, r6, r7, pc}
 800f108:	2100      	movs	r1, #0
 800f10a:	4630      	mov	r0, r6
 800f10c:	f7ff ffb2 	bl	800f074 <_sbrk_r>
 800f110:	68ba      	ldr	r2, [r7, #8]
 800f112:	1a83      	subs	r3, r0, r2
 800f114:	2b0f      	cmp	r3, #15
 800f116:	ddde      	ble.n	800f0d6 <_malloc_trim_r+0x3e>
 800f118:	4c06      	ldr	r4, [pc, #24]	; (800f134 <_malloc_trim_r+0x9c>)
 800f11a:	4905      	ldr	r1, [pc, #20]	; (800f130 <_malloc_trim_r+0x98>)
 800f11c:	6824      	ldr	r4, [r4, #0]
 800f11e:	f043 0301 	orr.w	r3, r3, #1
 800f122:	1b00      	subs	r0, r0, r4
 800f124:	6053      	str	r3, [r2, #4]
 800f126:	6008      	str	r0, [r1, #0]
 800f128:	e7d5      	b.n	800f0d6 <_malloc_trim_r+0x3e>
 800f12a:	bf00      	nop
 800f12c:	20000494 	.word	0x20000494
 800f130:	2001f760 	.word	0x2001f760
 800f134:	2000089c 	.word	0x2000089c

0800f138 <_free_r>:
_free_r():
 800f138:	2900      	cmp	r1, #0
 800f13a:	d063      	beq.n	800f204 <_free_r+0xcc>
 800f13c:	b5f8      	push	{r3, r4, r5, r6, r7, lr}
 800f13e:	460c      	mov	r4, r1
 800f140:	4606      	mov	r6, r0
 800f142:	f7ff ff8b 	bl	800f05c <__malloc_lock>
 800f146:	f854 5c04 	ldr.w	r5, [r4, #-4]
 800f14a:	497d      	ldr	r1, [pc, #500]	; (800f340 <_free_r+0x208>)
 800f14c:	f025 0001 	bic.w	r0, r5, #1
 800f150:	f1a4 0c08 	sub.w	ip, r4, #8
 800f154:	eb0c 0300 	add.w	r3, ip, r0
 800f158:	688f      	ldr	r7, [r1, #8]
 800f15a:	685a      	ldr	r2, [r3, #4]
 800f15c:	429f      	cmp	r7, r3
 800f15e:	f022 0203 	bic.w	r2, r2, #3
 800f162:	f000 808e 	beq.w	800f282 <_free_r+0x14a>
 800f166:	07ed      	lsls	r5, r5, #31
 800f168:	605a      	str	r2, [r3, #4]
 800f16a:	eb03 0702 	add.w	r7, r3, r2
 800f16e:	d436      	bmi.n	800f1de <_free_r+0xa6>
 800f170:	f854 ec08 	ldr.w	lr, [r4, #-8]
 800f174:	687c      	ldr	r4, [r7, #4]
 800f176:	ebac 0c0e 	sub.w	ip, ip, lr
 800f17a:	f101 0708 	add.w	r7, r1, #8
 800f17e:	f8dc 5008 	ldr.w	r5, [ip, #8]
 800f182:	42bd      	cmp	r5, r7
 800f184:	4470      	add	r0, lr
 800f186:	f004 0401 	and.w	r4, r4, #1
 800f18a:	d068      	beq.n	800f25e <_free_r+0x126>
 800f18c:	f8dc e00c 	ldr.w	lr, [ip, #12]
 800f190:	f8c5 e00c 	str.w	lr, [r5, #12]
 800f194:	f8ce 5008 	str.w	r5, [lr, #8]
 800f198:	2c00      	cmp	r4, #0
 800f19a:	f000 8099 	beq.w	800f2d0 <_free_r+0x198>
 800f19e:	f040 0201 	orr.w	r2, r0, #1
 800f1a2:	f8cc 2004 	str.w	r2, [ip, #4]
 800f1a6:	6018      	str	r0, [r3, #0]
 800f1a8:	f5b0 7f00 	cmp.w	r0, #512	; 0x200
 800f1ac:	d233      	bcs.n	800f216 <_free_r+0xde>
 800f1ae:	08c3      	lsrs	r3, r0, #3
 800f1b0:	684c      	ldr	r4, [r1, #4]
 800f1b2:	3301      	adds	r3, #1
 800f1b4:	0942      	lsrs	r2, r0, #5
 800f1b6:	2001      	movs	r0, #1
 800f1b8:	4090      	lsls	r0, r2
 800f1ba:	4320      	orrs	r0, r4
 800f1bc:	eb01 02c3 	add.w	r2, r1, r3, lsl #3
 800f1c0:	f851 4033 	ldr.w	r4, [r1, r3, lsl #3]
 800f1c4:	6048      	str	r0, [r1, #4]
 800f1c6:	3a08      	subs	r2, #8
 800f1c8:	e9cc 4202 	strd	r4, r2, [ip, #8]
 800f1cc:	f841 c033 	str.w	ip, [r1, r3, lsl #3]
 800f1d0:	f8c4 c00c 	str.w	ip, [r4, #12]
 800f1d4:	4630      	mov	r0, r6
 800f1d6:	e8bd 40f8 	ldmia.w	sp!, {r3, r4, r5, r6, r7, lr}
 800f1da:	f7ff bf45 	b.w	800f068 <__malloc_unlock>
 800f1de:	687d      	ldr	r5, [r7, #4]
 800f1e0:	07ed      	lsls	r5, r5, #31
 800f1e2:	d410      	bmi.n	800f206 <_free_r+0xce>
 800f1e4:	4410      	add	r0, r2
 800f1e6:	f101 0708 	add.w	r7, r1, #8
 800f1ea:	689a      	ldr	r2, [r3, #8]
 800f1ec:	42ba      	cmp	r2, r7
 800f1ee:	f040 0401 	orr.w	r4, r0, #1
 800f1f2:	d075      	beq.n	800f2e0 <_free_r+0x1a8>
 800f1f4:	68db      	ldr	r3, [r3, #12]
 800f1f6:	60d3      	str	r3, [r2, #12]
 800f1f8:	609a      	str	r2, [r3, #8]
 800f1fa:	f8cc 4004 	str.w	r4, [ip, #4]
 800f1fe:	f84c 0000 	str.w	r0, [ip, r0]
 800f202:	e7d1      	b.n	800f1a8 <_free_r+0x70>
 800f204:	4770      	bx	lr
 800f206:	f040 0201 	orr.w	r2, r0, #1
 800f20a:	f5b0 7f00 	cmp.w	r0, #512	; 0x200
 800f20e:	f844 2c04 	str.w	r2, [r4, #-4]
 800f212:	6018      	str	r0, [r3, #0]
 800f214:	d3cb      	bcc.n	800f1ae <_free_r+0x76>
 800f216:	f5b0 6f20 	cmp.w	r0, #2560	; 0xa00
 800f21a:	ea4f 2350 	mov.w	r3, r0, lsr #9
 800f21e:	d24c      	bcs.n	800f2ba <_free_r+0x182>
 800f220:	0983      	lsrs	r3, r0, #6
 800f222:	f103 0539 	add.w	r5, r3, #57	; 0x39
 800f226:	00ed      	lsls	r5, r5, #3
 800f228:	f103 0238 	add.w	r2, r3, #56	; 0x38
 800f22c:	594b      	ldr	r3, [r1, r5]
 800f22e:	194c      	adds	r4, r1, r5
 800f230:	3c08      	subs	r4, #8
 800f232:	429c      	cmp	r4, r3
 800f234:	d05d      	beq.n	800f2f2 <_free_r+0x1ba>
 800f236:	685a      	ldr	r2, [r3, #4]
 800f238:	f022 0203 	bic.w	r2, r2, #3
 800f23c:	4282      	cmp	r2, r0
 800f23e:	d902      	bls.n	800f246 <_free_r+0x10e>
 800f240:	689b      	ldr	r3, [r3, #8]
 800f242:	429c      	cmp	r4, r3
 800f244:	d1f7      	bne.n	800f236 <_free_r+0xfe>
 800f246:	68dc      	ldr	r4, [r3, #12]
 800f248:	e9cc 3402 	strd	r3, r4, [ip, #8]
 800f24c:	4630      	mov	r0, r6
 800f24e:	f8c4 c008 	str.w	ip, [r4, #8]
 800f252:	f8c3 c00c 	str.w	ip, [r3, #12]
 800f256:	e8bd 40f8 	ldmia.w	sp!, {r3, r4, r5, r6, r7, lr}
 800f25a:	f7ff bf05 	b.w	800f068 <__malloc_unlock>
 800f25e:	2c00      	cmp	r4, #0
 800f260:	d168      	bne.n	800f334 <_free_r+0x1fc>
 800f262:	e9d3 3102 	ldrd	r3, r1, [r3, #8]
 800f266:	4402      	add	r2, r0
 800f268:	f042 0001 	orr.w	r0, r2, #1
 800f26c:	60d9      	str	r1, [r3, #12]
 800f26e:	608b      	str	r3, [r1, #8]
 800f270:	f8cc 0004 	str.w	r0, [ip, #4]
 800f274:	4630      	mov	r0, r6
 800f276:	f84c 2002 	str.w	r2, [ip, r2]
 800f27a:	e8bd 40f8 	ldmia.w	sp!, {r3, r4, r5, r6, r7, lr}
 800f27e:	f7ff bef3 	b.w	800f068 <__malloc_unlock>
 800f282:	07ef      	lsls	r7, r5, #31
 800f284:	4402      	add	r2, r0
 800f286:	d408      	bmi.n	800f29a <_free_r+0x162>
 800f288:	f854 3c08 	ldr.w	r3, [r4, #-8]
 800f28c:	ebac 0c03 	sub.w	ip, ip, r3
 800f290:	441a      	add	r2, r3
 800f292:	e9dc 0302 	ldrd	r0, r3, [ip, #8]
 800f296:	60c3      	str	r3, [r0, #12]
 800f298:	6098      	str	r0, [r3, #8]
 800f29a:	4b2a      	ldr	r3, [pc, #168]	; (800f344 <_free_r+0x20c>)
 800f29c:	681b      	ldr	r3, [r3, #0]
 800f29e:	f042 0001 	orr.w	r0, r2, #1
 800f2a2:	4293      	cmp	r3, r2
 800f2a4:	f8cc 0004 	str.w	r0, [ip, #4]
 800f2a8:	f8c1 c008 	str.w	ip, [r1, #8]
 800f2ac:	d892      	bhi.n	800f1d4 <_free_r+0x9c>
 800f2ae:	4b26      	ldr	r3, [pc, #152]	; (800f348 <_free_r+0x210>)
 800f2b0:	4630      	mov	r0, r6
 800f2b2:	6819      	ldr	r1, [r3, #0]
 800f2b4:	f7ff fef0 	bl	800f098 <_malloc_trim_r>
 800f2b8:	e78c      	b.n	800f1d4 <_free_r+0x9c>
 800f2ba:	2b14      	cmp	r3, #20
 800f2bc:	d90a      	bls.n	800f2d4 <_free_r+0x19c>
 800f2be:	2b54      	cmp	r3, #84	; 0x54
 800f2c0:	d81f      	bhi.n	800f302 <_free_r+0x1ca>
 800f2c2:	0b03      	lsrs	r3, r0, #12
 800f2c4:	f103 056f 	add.w	r5, r3, #111	; 0x6f
 800f2c8:	00ed      	lsls	r5, r5, #3
 800f2ca:	f103 026e 	add.w	r2, r3, #110	; 0x6e
 800f2ce:	e7ad      	b.n	800f22c <_free_r+0xf4>
 800f2d0:	4410      	add	r0, r2
 800f2d2:	e78a      	b.n	800f1ea <_free_r+0xb2>
 800f2d4:	f103 055c 	add.w	r5, r3, #92	; 0x5c
 800f2d8:	00ed      	lsls	r5, r5, #3
 800f2da:	f103 025b 	add.w	r2, r3, #91	; 0x5b
 800f2de:	e7a5      	b.n	800f22c <_free_r+0xf4>
 800f2e0:	e9c1 cc04 	strd	ip, ip, [r1, #16]
 800f2e4:	e9cc 7702 	strd	r7, r7, [ip, #8]
 800f2e8:	f8cc 4004 	str.w	r4, [ip, #4]
 800f2ec:	f84c 0000 	str.w	r0, [ip, r0]
 800f2f0:	e770      	b.n	800f1d4 <_free_r+0x9c>
 800f2f2:	6848      	ldr	r0, [r1, #4]
 800f2f4:	1092      	asrs	r2, r2, #2
 800f2f6:	2501      	movs	r5, #1
 800f2f8:	fa05 f202 	lsl.w	r2, r5, r2
 800f2fc:	4302      	orrs	r2, r0
 800f2fe:	604a      	str	r2, [r1, #4]
 800f300:	e7a2      	b.n	800f248 <_free_r+0x110>
 800f302:	f5b3 7faa 	cmp.w	r3, #340	; 0x154
 800f306:	d806      	bhi.n	800f316 <_free_r+0x1de>
 800f308:	0bc3      	lsrs	r3, r0, #15
 800f30a:	f103 0578 	add.w	r5, r3, #120	; 0x78
 800f30e:	00ed      	lsls	r5, r5, #3
 800f310:	f103 0277 	add.w	r2, r3, #119	; 0x77
 800f314:	e78a      	b.n	800f22c <_free_r+0xf4>
 800f316:	f240 5254 	movw	r2, #1364	; 0x554
 800f31a:	4293      	cmp	r3, r2
 800f31c:	d806      	bhi.n	800f32c <_free_r+0x1f4>
 800f31e:	0c83      	lsrs	r3, r0, #18
 800f320:	f103 057d 	add.w	r5, r3, #125	; 0x7d
 800f324:	00ed      	lsls	r5, r5, #3
 800f326:	f103 027c 	add.w	r2, r3, #124	; 0x7c
 800f32a:	e77f      	b.n	800f22c <_free_r+0xf4>
 800f32c:	f44f 757e 	mov.w	r5, #1016	; 0x3f8
 800f330:	227e      	movs	r2, #126	; 0x7e
 800f332:	e77b      	b.n	800f22c <_free_r+0xf4>
 800f334:	f040 0201 	orr.w	r2, r0, #1
 800f338:	f8cc 2004 	str.w	r2, [ip, #4]
 800f33c:	6018      	str	r0, [r3, #0]
 800f33e:	e749      	b.n	800f1d4 <_free_r+0x9c>
 800f340:	20000494 	.word	0x20000494
 800f344:	200008a0 	.word	0x200008a0
 800f348:	2001f790 	.word	0x2001f790

0800f34c <_sbrk>:
_sbrk():
 800f34c:	4a04      	ldr	r2, [pc, #16]	; (800f360 <_sbrk+0x14>)
 800f34e:	4905      	ldr	r1, [pc, #20]	; (800f364 <_sbrk+0x18>)
 800f350:	6813      	ldr	r3, [r2, #0]
 800f352:	2b00      	cmp	r3, #0
 800f354:	bf08      	it	eq
 800f356:	460b      	moveq	r3, r1
 800f358:	4418      	add	r0, r3
 800f35a:	6010      	str	r0, [r2, #0]
 800f35c:	4618      	mov	r0, r3
 800f35e:	4770      	bx	lr
 800f360:	2001f794 	.word	0x2001f794
 800f364:	10003ed8 	.word	0x10003ed8

0800f368 <_init>:
_init():
 800f368:	b5f8      	push	{r3, r4, r5, r6, r7, lr}
 800f36a:	bf00      	nop
 800f36c:	bcf8      	pop	{r3, r4, r5, r6, r7}
 800f36e:	bc08      	pop	{r3}
 800f370:	469e      	mov	lr, r3
 800f372:	4770      	bx	lr

0800f374 <_fini>:
_fini():
 800f374:	b5f8      	push	{r3, r4, r5, r6, r7, lr}
 800f376:	bf00      	nop
 800f378:	bcf8      	pop	{r3, r4, r5, r6, r7}
 800f37a:	bc08      	pop	{r3}
 800f37c:	469e      	mov	lr, r3
 800f37e:	4770      	bx	lr
