
Dekrispator_v2.elf:     file format elf32-littlearm
Dekrispator_v2.elf
architecture: armv7e-m, flags 0x00000112:
EXEC_P, HAS_SYMS, D_PAGED
start address 0x0800d499

Program Header:
    LOAD off    0x00010000 vaddr 0x08000000 paddr 0x08000000 align 2**16
         filesz 0x0001e2a0 memsz 0x0001e2a0 flags rwx
    LOAD off    0x00030000 vaddr 0x20000000 paddr 0x0801e2a0 align 2**16
         filesz 0x000008ac memsz 0x000008ac flags rw-
    LOAD off    0x00040000 vaddr 0x10000000 paddr 0x0801eb4c align 2**16
         filesz 0x00003ecc memsz 0x00003ecc flags rw-
    LOAD off    0x00003ecc vaddr 0x10003ecc paddr 0x10003ecc align 2**16
         filesz 0x00000000 memsz 0x00002000 flags rw-
    LOAD off    0x000008ac vaddr 0x200008ac paddr 0x200008ac align 2**16
         filesz 0x00000000 memsz 0x0001efa4 flags rw-
private flags = 5000400: [Version5 EABI] [hard-float ABI]

Sections:
Idx Name              Size      VMA       LMA       File off  Algn  Flags
  0 .isr_vector       00000188  08000000  08000000  00010000  2**0  CONTENTS, ALLOC, LOAD, READONLY, DATA
  1 .text             0000f39c  08000188  08000188  00010188  2**2  CONTENTS, ALLOC, LOAD, READONLY, CODE
  2 .rodata           0000ed70  0800f524  0800f524  0001f524  2**2  CONTENTS, ALLOC, LOAD, READONLY, DATA
  3 .init_array       00000008  0801e294  0801e294  0002e294  2**2  CONTENTS, ALLOC, LOAD, DATA
  4 .fini_array       00000004  0801e29c  0801e29c  0002e29c  2**2  CONTENTS, ALLOC, LOAD, DATA
  5 .data             000008ac  20000000  0801e2a0  00030000  2**3  CONTENTS, ALLOC, LOAD, DATA
  6 .ccmram           00003ecc  10000000  0801eb4c  00040000  2**2  CONTENTS, ALLOC, LOAD, DATA
  7 .bss              0001efa4  200008ac  200008ac  000508ac  2**2  ALLOC
  8 ._user_heap_stack 00002000  10003ecc  10003ecc  00043ecc  2**0  ALLOC
  9 .ARM.attributes   00000030  00000000  00000000  00043ecc  2**0  CONTENTS, READONLY
 10 .comment          0000004c  00000000  00000000  00043efc  2**0  CONTENTS, READONLY
 11 .debug_frame      00000780  00000000  00000000  00043f48  2**2  CONTENTS, READONLY, DEBUGGING, OCTETS
SYMBOL TABLE:
08000000 l    d  .isr_vector	00000000 .isr_vector
08000188 l    d  .text	00000000 .text
0800f524 l    d  .rodata	00000000 .rodata
0801e294 l    d  .init_array	00000000 .init_array
0801e29c l    d  .fini_array	00000000 .fini_array
20000000 l    d  .data	00000000 .data
10000000 l    d  .ccmram	00000000 .ccmram
200008ac l    d  .bss	00000000 .bss
10003ecc l    d  ._user_heap_stack	00000000 ._user_heap_stack
00000000 l    d  .ARM.attributes	00000000 .ARM.attributes
00000000 l    d  .comment	00000000 .comment
00000000 l    d  .debug_frame	00000000 .debug_frame
00000000 l    df *ABS*	00000000 ./Synth/startup_stm32f407xx.o
0800d4a8 l       .text	00000000 LoopCopyDataInit
0800d4a0 l       .text	00000000 CopyDataInit
0800d4bc l       .text	00000000 LoopFillZerobss
0800d4b6 l       .text	00000000 FillZerobss
0800d4e8 l       .text	00000000 Infinite_Loop
00000000 l    df *ABS*	00000000 crtstuff.c
0800f50c l     O .text	00000000 __EH_FRAME_BEGIN__
08000188 l     F .text	00000000 __do_global_dtors_aux
200008ac l       .bss	00000001 completed.10277
0801e29c l     O .fini_array	00000000 __do_global_dtors_aux_fini_array_entry
080001ac l     F .text	00000000 frame_dummy
200008b0 l       .bss	00000018 object.10282
0801e298 l     O .init_array	00000000 __frame_dummy_init_array_entry
00000000 l    df *ABS*	00000000 lib_a-memcpy.o
00000000 l    df *ABS*	00000000 
0800078c l     F .text	00000080 USB_DoPing
08001260 l     F .text	0000002a USB_WritePacket
08000578 l     F .text	0000001e USB_HC_ReadInterrupt
080011c4 l     F .text	0000000e USB_DisableGlobalInt
080012ac l     F .text	00000024 USB_FlushTxFifo
0800128c l     F .text	00000020 USB_FlushRxFifo
08000de0 l     F .text	0000000e USB_EnableGlobalInt
08000910 l     F .text	0000007c USBH_Get_StringDesc.constprop.0
0800098c l     F .text	00000294 HAL_GPIO_Init
08000c20 l     F .text	00000072 HAL_GPIO_Init.constprop.1
08000c94 l     F .text	0000005c HAL_NVIC_SetPriority.constprop.2
08000df0 l     F .text	00000270 SVF_calcSample
08001060 l     F .text	000000fc MorphingSaw_SampleCompute
0800115c l     F .text	00000010 Error_Handler
0800116c l     F .text	00000058 USBH_UserProcess_callback
080011d4 l     F .text	00000054 BSP_LED_Init
08001228 l     F .text	00000004 cs43l22_SetFrequency
0800122c l     F .text	00000034 USB_CoreReset
080012d0 l     F .text	000000b4 HAL_RCC_GetHCLKFreq
08001384 l     F .text	00000044 HAL_InitTick.constprop.0
080013c8 l     F .text	000001e0 I2Cx_Init.part.0
080015a8 l     F .text	0000002c I2S_DMAError
080015d4 l     F .text	00002110 HAL_DMA_IRQHandler
080036e4 l     F .text	0000009c HAL_I2C_Mem_Write.part.0.constprop.0
08003780 l     F .text	00000104 I2Cx_WriteData
08003884 l     F .text	00000174 cs43l22_SetOutputMode
080039f8 l     F .text	000001a0 cs43l22_SetMute
08003b98 l     F .text	000003b8 cs43l22_SetVolume
08003f50 l     F .text	00000170 cs43l22_Init
080040c0 l     F .text	00000218 cs43l22_Stop
080042d8 l     F .text	00000332 cs43l22_Resume
0800460c l     F .text	00000210 cs43l22_Pause
0800481c l     F .text	00000220 cs43l22_Play
08004a3c l     F .text	00000220 cs43l22_ReadID
08004c5c l     F .text	000000d4 drifter_nextSample
08004d30 l     F .text	000001f8 seq_sequence_new
08004f28 l     F .text	00000148 delay_read
08005070 l     F .text	00000148 mono_chorus_compute
0800f7a0 l     O .rodata	00001004 sinetable
080051b8 l     F .text	00000408 USBH_Get_DevDesc.constprop.0
08005f54 l     F .text	00000002 HAL_MspInit
08006078 l     F .text	00000002 BSP_AUDIO_OUT_Error_CallBack
0800b3c8 l     F .text	0000002c I2S_DMATxHalfCplt
0800b3f4 l     F .text	00000084 I2S_DMATxCplt
08008a18 l     F .text	000029ae make_sound.constprop.0
08014ea8 l     O .rodata	00009008 step_dd_table
080107a4 l     O .rodata	00004704 slope_dd_table
200008c8 l     O .bss	00000001 Appli_state
200008c9 l     O .bss	00000001 DebouncedKeyPress
200008cc l     O .bss	00000038 I2cHandle
20000954 l     O .bss	00000001 OutputDev
20000958 l     O .bss	00000008 RngHandle
20000960 l     O .bss	00000004 TimingDelay
20000964 l     O .bss	00000004 TimingDelay1
20000968 l     O .bss	00000fa0 audiobuff
2001edd4 l     O .bss	00000004 dmax
2001edd8 l     O .bss	00000004 dmin
2001edec l     O .bss	00000040 hAudioOutI2s
2001f6d4 l     O .bss	00000050 hdma_i2sTx.8621
2001f728 l     O .bss	00000004 lfoPhase
2001f7b0 l     O .bss	00000018 old
2001f7c8 l     O .bss	00000004 old_dy
2001f7ec l     O .bss	00000004 zm1
10000090 l     O .ccmram	00000004 vol
100012d8 l     O .ccmram	00000004 f0
20000000 l     O .data	00000001 Count
20000001 l     O .data	00000001 Is_cs43l22_Stop
20000004 l     O .data	00000020 MIDI_Class
20000028 l     O .data	0000002c cs43l22_drv
0800f52c l     O .rodata	00000010 APBAHBPrescTable
0800f5f4 l     O .rodata	000001ac notesFreq
00000000 l    df *ABS*	00000000 
00000000 l    df *ABS*	00000000 sf_floor.c
00000000 l    df *ABS*	00000000 sf_lrint.c
0801deb0 l     O .rodata	00000008 TWO23
00000000 l    df *ABS*	00000000 sf_rint.c
0801deb8 l     O .rodata	00000008 TWO23
00000000 l    df *ABS*	00000000 sf_sin.c
00000000 l    df *ABS*	00000000 wf_pow.c
00000000 l    df *ABS*	00000000 ef_pow.c
00000000 l    df *ABS*	00000000 ef_rem_pio2.c
0801dec0 l     O .rodata	00000080 npio2_hw
0801df40 l     O .rodata	00000318 two_over_pi
00000000 l    df *ABS*	00000000 ef_sqrt.c
00000000 l    df *ABS*	00000000 kf_cos.c
00000000 l    df *ABS*	00000000 kf_rem_pio2.c
0801e258 l     O .rodata	0000002c PIo2
0801e284 l     O .rodata	0000000c init_jk
00000000 l    df *ABS*	00000000 kf_sin.c
00000000 l    df *ABS*	00000000 sf_fabs.c
00000000 l    df *ABS*	00000000 sf_finite.c
00000000 l    df *ABS*	00000000 sf_nan.c
00000000 l    df *ABS*	00000000 sf_scalbn.c
00000000 l    df *ABS*	00000000 errno.c
00000000 l    df *ABS*	00000000 init.c
00000000 l    df *ABS*	00000000 memset.c
00000000 l    df *ABS*	00000000 rand.c
00000000 l    df *ABS*	00000000 __call_atexit.c
0800eb98 l     F .text	00000014 register_fini
00000000 l    df *ABS*	00000000 atexit.c
00000000 l    df *ABS*	00000000 fini.c
00000000 l    df *ABS*	00000000 lock.c
00000000 l    df *ABS*	00000000 __atexit.c
00000000 l    df *ABS*	00000000 malloc.c
00000000 l    df *ABS*	00000000 mallocr.c
00000000 l    df *ABS*	00000000 mlock.c
00000000 l    df *ABS*	00000000 sbrkr.c
00000000 l    df *ABS*	00000000 mallocr.c
00000000 l    df *ABS*	00000000 sbrk.c
2001f824 l     O .bss	00000004 heap_end.5507
00000000 l    df *ABS*	00000000 /home/bluexav/progs/gcc-arm-none-eabi-9-2020-q2-update/bin/../lib/gcc/arm-none-eabi/9.3.1/thumb/v7e-m+fp/hard/crti.o
00000000 l    df *ABS*	00000000 /home/bluexav/progs/gcc-arm-none-eabi-9-2020-q2-update/bin/../lib/gcc/arm-none-eabi/9.3.1/thumb/v7e-m+fp/hard/crtn.o
00000000 l    df *ABS*	00000000 impure.c
20000070 l     O .data	00000428 impure_data
00000000 l    df *ABS*	00000000 s_lib_ver.c
00000000 l    df *ABS*	00000000 reent.c
00000000 l    df *ABS*	00000000 
0801e2a0 l       .fini_array	00000000 __fini_array_end
0801e29c l       .fini_array	00000000 __fini_array_start
0801e29c l       .init_array	00000000 __init_array_end
0801e294 l       .init_array	00000000 __preinit_array_end
0801e294 l       .init_array	00000000 __init_array_start
0801e294 l       .init_array	00000000 __preinit_array_start
0800d4e8  w    F .text	00000002 RTC_Alarm_IRQHandler
0800d4e8  w    F .text	00000002 HASH_RNG_IRQHandler
0800d4e8  w    F .text	00000002 EXTI2_IRQHandler
0800f5c8 g     O .rodata	00000004 .hidden MIDIscale09
0800d4e8  w    F .text	00000002 TIM8_CC_IRQHandler
10000160 g     O .ccmram	00000020 .hidden SVFilter2
08006064 g     F .text	00000002 DebugMon_Handler
10000220 g     O .ccmram	00000020 .hidden filt_lfo
0800f5dc g     O .rodata	0000000d .hidden MIDIscale12
10000099 g     O .ccmram	00000001 .hidden phaserON.lto_priv.0
2001f828 g     O .bss	00000001 __lock___atexit_recursive_mutex
0800d4e8  w    F .text	00000002 TIM1_CC_IRQHandler
0800d4e8  w    F .text	00000002 DMA2_Stream5_IRQHandler
08006078 g     F .text	00000002 HardFault_Handler
0800d4e8  w    F .text	00000002 DMA1_Stream5_IRQHandler
0800f218 g     F .text	0000000c __malloc_unlock
00001000 g       *ABS*	00000000 _Min_Stack_Size
08005f94 g     F .text	000000cc SysTick_Handler
2001f82c g     O .bss	00000001 __lock___arc4random_mutex
0800d4e8  w    F .text	00000002 PVD_IRQHandler
0800d4e8  w    F .text	00000002 SDIO_IRQHandler
0800d4e8  w    F .text	00000002 TAMP_STAMP_IRQHandler
0801e2a0 g       *ABS*	00000000 _sidata
08006060 g     F .text	00000002 PendSV_Handler
0800d760 g     F .text	00000140 powf
08005f54 g     F .text	00000002 NMI_Handler
0801e294 g       .init_array	00000000 __exidx_end
0800d4e8  w    F .text	00000002 CAN2_RX1_IRQHandler
0800d4e8  w    F .text	00000002 EXTI3_IRQHandler
20000498 g     O .data	00000004 __atexit_recursive_mutex
0800ea58 g     F .text	0000000c __errno
08007a10 g     F .text	00000bf8 .hidden MagicPatch.part.0
10000120 g     O .ccmram	00000010 .hidden lfoL.lto_priv.0
0800dea0 g     F .text	00000294 __ieee754_rem_pio2f
0800d4e8  w    F .text	00000002 TIM8_TRG_COM_TIM14_IRQHandler
2001f0bc g     O .bss	00000618 .hidden hUSBHost
0800d4e8  w    F .text	00000002 TIM1_UP_TIM10_IRQHandler
0800f5ec g     O .rodata	00000002 .hidden MIDIscale13
2001f84c g     O .bss	00000004 errno
0800f524 g       .text	00000000 _etext
200008ac g       .bss	00000000 _sbss
2001f7d4 g     O .bss	00000004 .hidden readpos.lto_priv.0
0800d4e8  w    F .text	00000002 TIM8_UP_TIM13_IRQHandler
0800d4e8  w    F .text	00000002 I2C3_ER_IRQHandler
100001e0 g     O .ccmram	00000020 .hidden op4
1000009c g     O .ccmram	0000002c .hidden d1
100001a0 g     O .ccmram	00000020 .hidden op2
10000d80 g     O .ccmram	00000558 .hidden mbTriOsc
080001c8 g     F .text	00000134 memcpy
2001f7e4 g     O .bss	00000004 .hidden wet.lto_priv.1
08005f80 g     F .text	00000014 EXTI0_IRQHandler
0800d4e8  w    F .text	00000002 I2C2_EV_IRQHandler
0800d4e8  w    F .text	00000002 DMA1_Stream2_IRQHandler
0800d4e8  w    F .text	00000002 CAN1_RX0_IRQHandler
0800d4e8  w    F .text	00000002 FPU_IRQHandler
0800b9bc g     F .text	0000001c .hidden HAL_Delay
0800d4e8  w    F .text	00000002 OTG_HS_WKUP_IRQHandler
0800ec78 g     F .text	00000010 malloc
0800f5c4 g     O .rodata	00000003 .hidden MIDIscale08
100028d4 g     O .ccmram	000015f8 .hidden delL.lto_priv.0
0800606c g     F .text	00000002 UsageFault_Handler
0800d4e8  w    F .text	00000002 CAN2_SCE_IRQHandler
2001f820 g     O .bss	00000004 __malloc_top_pad
0800d4e8  w    F .text	00000002 DMA2_Stream2_IRQHandler
0800f5d4 g     O .rodata	00000008 .hidden MIDIscale11
200008ac g       .bss	00000000 __bss_start__
0800f578 g     O .rodata	00000008 .hidden GPIO_PIN
20000000 g       .data	00000000 _sdata
0800d4e8  w    F .text	00000002 SPI1_IRQHandler
0800e94c g     F .text	0000001a finitef
0800f224 g     F .text	00000024 _sbrk_r
0800f5f0 g     O .rodata	00000003 .hidden MIDIscale14
0800d4e8  w    F .text	00000002 TIM6_DAC_IRQHandler
0800e93c g     F .text	0000000e fabsf
2001f7e8 g     O .bss	00000004 .hidden writepos.lto_priv.0
0800d4e8  w    F .text	00000002 TIM1_BRK_TIM9_IRQHandler
0800d4e8  w    F .text	00000002 DCMI_IRQHandler
0800d4e8  w    F .text	00000002 CAN2_RX0_IRQHandler
2001f818 g     O .bss	00000004 __malloc_max_sbrked_mem
0801e294 g       .init_array	00000000 __exidx_start
2001f830 g     O .bss	00000001 __lock___env_recursive_mutex
0800d4e8  w    F .text	00000002 DMA2_Stream3_IRQHandler
20000064 g     O .data	00000001 __fdlib_version
2001f834 g     O .bss	00000001 __lock___sinit_recursive_mutex
0801e290 g     O .rodata	00000004 _global_impure_ptr
0800ea64 g     F .text	00000048 __libc_init_array
0800e8ac g     F .text	00000090 __kernel_sinf
0800f4f0 g     F .text	0000001c _sbrk
10000260 g     O .ccmram	00000020 .hidden amp_lfo
0800f590 g     O .rodata	00000006 .hidden MIDIscale01
0800d4e8  w    F .text	00000002 USART6_IRQHandler
0800f50c g     F .text	00000000 _init
20000060 g     O .data	00000004 .hidden wet.lto_priv.0
0800d4e8  w    F .text	00000002 USART3_IRQHandler
0800ebb8 g     F .text	0000002c __libc_fini_array
10000098 g     O .ccmram	00000001 .hidden delayON.lto_priv.0
2001f850 g       .bss	00000000 _ebss
2001ede0 g     O .bss	00000004 .hidden filterFreq
0800d498  w    F .text	00000038 Reset_Handler
0800d4e8  w    F .text	00000002 CAN1_RX1_IRQHandler
0800d4e8  w    F .text	00000002 UART5_IRQHandler
2001f838 g     O .bss	00000001 __lock___malloc_recursive_mutex
0800e13c g     F .text	00000104 __kernel_cosf
10000140 g     O .ccmram	00000020 .hidden SVFilter
0800d4e8  w    F .text	00000002 DMA2_Stream0_IRQHandler
0800d578 g     F .text	00000098 lrintf
08005f50 g     F .text	00000002 TIM4_IRQHandler
20000058 g     O .data	00000004 .hidden fdb.lto_priv.0
20000024 g     O .data	00000004 .hidden centralFreq.lto_priv.0
20001908 g     O .bss	00000001 .hidden currentNote
100012dc g     O .ccmram	000015f8 .hidden delR.lto_priv.0
0800f5a0 g     O .rodata	00000007 .hidden MIDIscale03
0800607c g     F .text	000005b4 .hidden Synth_Init
10003ecc g       ._user_heap_stack	00000000 end
0800d4e8  w    F .text	00000002 I2C1_EV_IRQHandler
0800ebe8 g     F .text	00000002 __retarget_lock_release_recursive
0800d4e8  w    F .text	00000002 DMA1_Stream6_IRQHandler
0800080c g     F .text	00000104 .hidden USB_StopHost
0800d4e8  w    F .text	00000002 DMA1_Stream1_IRQHandler
0800d4e8  w    F .text	00000002 UART4_IRQHandler
2001f850 g       .bss	00000000 __bss_end__
0800f2e8 g     F .text	00000208 _free_r
0800f580 g     O .rodata	00000010 .hidden GPIO_PORT
0800d4e8  w    F .text	00000002 TIM3_IRQHandler
0800d4e8  w    F .text	00000002 RCC_IRQHandler
20000054 g     O .data	00000001 .hidden demoMode
10000095 g     O .ccmram	00000001 .hidden autoFilterON.lto_priv.0
0800d4e8  w    F .text	00000002 TIM8_BRK_TIM12_IRQHandler
0800bd44 g     F .text	000016ac .hidden USBH_MIDI_Process.lto_priv.0
00001000 g       *ABS*	00000000 _Min_Heap_Size
10000180 g     O .ccmram	00000020 .hidden op1
0800d4e8 g       .text	00000002 Default_Handler
200008a4 g     O .data	00000004 __malloc_sbrk_base
0800eb5c g     F .text	0000003c rand
0800d4e8  w    F .text	00000002 EXTI15_10_IRQHandler
0800ebec g     F .text	0000008c __register_exitproc
2001f7dc g     O .bss	00000004 .hidden uwTick.lto_priv.0
0800d4e8  w    F .text	00000002 ADC_IRQHandler
10000094 g     O .ccmram	00000001 .hidden sound.lto_priv.0
2001ee2c g     O .bss	00000290 .hidden hHCD
2001f7f0 g     O .bss	00000028 __malloc_current_mallinfo
0800f5a8 g     O .rodata	00000005 .hidden MIDIscale04
0800f5c0 g     O .rodata	00000003 .hidden MIDIscale07
2001f7d0 g     O .bss	00000004 .hidden rateCoeff
08005f60 g     F .text	0000000c DMA1_Stream7_IRQHandler
10000068 g     O .ccmram	00000028 .hidden adsr
100000c8 g     O .ccmram	0000002c .hidden d2
0800d4e8  w    F .text	00000002 TIM7_IRQHandler
0800f5b8 g     O .rodata	00000008 .hidden MIDIscale06
0800d4e8  w    F .text	00000002 CAN2_TX_IRQHandler
0800d4e8  w    F .text	00000002 TIM5_IRQHandler
0800d4e8  w    F .text	00000002 DMA2_Stream7_IRQHandler
2001f7e0 g     O .bss	00000001 .hidden velocity
100002d8 g     O .ccmram	0000054c .hidden mbSawOsc
0800d4e8  w    F .text	00000002 I2C3_EV_IRQHandler
10000240 g     O .ccmram	00000020 .hidden filt2_lfo
0800d4e8  w    F .text	00000002 EXTI9_5_IRQHandler
0800b47c g     F .text	0000000e .hidden USBH_MIDI_ClassRequest.lto_priv.0
0800d4e8  w    F .text	00000002 RTC_WKUP_IRQHandler
2000049c g     O .data	00000408 __malloc_av_
0800d8a0 g     F .text	00000600 __ieee754_powf
0800d4e8  w    F .text	00000002 ETH_WKUP_IRQHandler
0800f20c g     F .text	0000000c __malloc_lock
0800e974 g     F .text	000000e4 scalbnf
2001eddc g     O .bss	00000004 .hidden fb.lto_priv.0
0800d4e8  w    F .text	00000002 SPI2_IRQHandler
2000005c g     O .data	00000001 .hidden sequencerIsOn
0800ebe4 g     F .text	00000002 __retarget_lock_acquire_recursive
0800d4e8  w    F .text	00000002 OTG_HS_EP1_IN_IRQHandler
0800eaac g     F .text	000000a0 memset
0800e134 g     F .text	00000006 __ieee754_sqrtf
08006074 g     F .text	00000002 MemManage_Handler
2001f730 g     O .bss	00000080 .hidden notes_On
08006630 g     F .text	000013e0 main
2001f81c g     O .bss	00000004 __malloc_max_total_mem
0800d4e8  w    F .text	00000002 DMA1_Stream0_IRQHandler
0800eb4c g     F .text	00000010 srand
0801eb4c g       *ABS*	00000000 _siccmram
08000cf0 g     F .text	000000ee .hidden USBH_LL_OpenPipe
0800d4e8  w    F .text	00000002 CAN1_TX_IRQHandler
08006068 g     F .text	00000002 SVC_Handler
0800f598 g     O .rodata	00000007 .hidden MIDIscale02
10000000 g     O .ccmram	00000054 .hidden seq
0800ec98 g     F .text	00000574 _malloc_r
10000130 g     O .ccmram	00000010 .hidden lfoR.lto_priv.0
0800f5b0 g     O .rodata	00000007 .hidden MIDIscale05
20000904 g     O .bss	00000010 .hidden LED_counter
0800d4e8  w    F .text	00000002 EXTI4_IRQHandler
0800f248 g     F .text	000000a0 _malloc_trim_r
10000200 g     O .ccmram	00000020 .hidden vibr_lfo
0800b478 g     F .text	00000004 .hidden USBH_MIDI_SOFProcess.lto_priv.0
080055c0 g     F .text	00000050 SystemInit
0800b48c g     F .text	00000530 .hidden USBH_MIDI_InterfaceInit.lto_priv.0
0800f518 g     F .text	00000000 _fini
0800ebac g     F .text	0000000c atexit
100002ac g     O .ccmram	0000002c .hidden ph.lto_priv.0
10003ecc g       .ccmram	00000000 _eccmram
2001ede4 g     O .bss	00000004 .hidden filterFreq2
100001c0 g     O .ccmram	00000020 .hidden op3
0800d4e8  w    F .text	00000002 FSMC_IRQHandler
0800d4e8  w    F .text	00000002 ETH_IRQHandler
0800e968 g     F .text	0000000c nanf
20000068 g     O .data	00000004 _impure_ptr
2001f724 g     O .bss	00000004 .hidden lfoInc.lto_priv.0
0800d4e8  w    F .text	00000002 OTG_HS_EP1_OUT_IRQHandler
0800d4e8  w    F .text	00000002 WWDG_IRQHandler
0800f5cc g     O .rodata	00000005 .hidden MIDIscale10
0800d4e8  w    F .text	00000002 TIM2_IRQHandler
0800d6cc g     F .text	00000094 sinf
0800d4e8  w    F .text	00000002 OTG_FS_WKUP_IRQHandler
0800d4e8  w    F .text	00000002 TIM1_TRG_COM_TIM11_IRQHandler
0800d4e8  w    F .text	00000002 OTG_HS_IRQHandler
0800d3f0 g     F .text	000000a8 .hidden USBH_MIDI_InterfaceDeInit.lto_priv.0
2001ffff g       *ABS*	00000000 _estack
08005f6c g     F .text	00000014 EXTI1_IRQHandler
20000914 g     O .bss	00000040 .hidden MIDI_RX_Buffer
2001f7cc g     O .bss	00000004 .hidden pAudioDrv.lto_priv.0
200008ac g       .data	00000000 _edata
10000000 g       .ccmram	00000000 _sccmram
2001f7d8 g     O .bss	00000004 .hidden shift.lto_priv.0
10000054 g     O .ccmram	00000014 .hidden noteGen
08000598 g     F .text	000001f2 .hidden USB_HC_Halt
2001f83c g     O .bss	00000001 __lock___at_quick_exit_mutex
0800d4e8  w    F .text	00000002 USART2_IRQHandler
200008a8 g     O .data	00000004 __malloc_trim_threshold
08000000 g     O .isr_vector	00000000 g_pfnVectors
2000190c g     O .bss	0001d4c8 .hidden delayline.lto_priv.0
0800d4e8  w    F .text	00000002 I2C2_ER_IRQHandler
2001f72c g     O .bss	00000001 .hidden notesCount
10000824 g     O .ccmram	0000055c .hidden mbRectOsc
10000097 g     O .ccmram	00000001 .hidden chorusON.lto_priv.0
0800d4e8  w    F .text	00000002 DMA2_Stream1_IRQHandler
0800f53c g     O .rodata	0000003c .hidden CSWTCH.14.lto_priv.0
0800d4e8  w    F .text	00000002 CAN1_SCE_IRQHandler
0800d4e8  w    F .text	00000002 FLASH_IRQHandler
0800e240 g     F .text	0000066c __kernel_rem_pio2f
2001ede8 g     O .bss	00000001 .hidden freeze
0800d4e8  w    F .text	00000002 DMA2_Stream4_IRQHandler
08006070 g     F .text	00000002 BusFault_Handler
0800d4e8  w    F .text	00000002 USART1_IRQHandler
2001f840 g     O .bss	00000001 __lock___dd_hash_mutex
0800b9d8 g     F .text	0000036c .hidden USBH_CtlReq.part.0
2001f844 g     O .bss	00000001 __lock___tz_mutex
08005610 g     F .text	00000940 OTG_FS_IRQHandler
0800d610 g     F .text	000000bc rintf
0800d4e8  w    F .text	00000002 SPI3_IRQHandler
0800d4e8  w    F .text	00000002 DMA1_Stream4_IRQHandler
0800d4e8  w    F .text	00000002 I2C1_ER_IRQHandler
0800d4ec g     F .text	0000008c floorf
10000280 g     O .ccmram	0000002c .hidden a.lto_priv.0
080002fc g     F .text	0000027c .hidden USB_HC_StartXfer
10000096 g     O .ccmram	00000001 .hidden autoSound.lto_priv.0
0800d4e8  w    F .text	00000002 DMA2_Stream6_IRQHandler
08008608 g     F .text	00000410 .hidden MagicFX.part.0
100000f4 g     O .ccmram	0000002c .hidden d3
08005f58 g     F .text	00000006 DMA1_Stream3_IRQHandler
2001f848 g     O .bss	00000001 __lock___sfp_recursive_mutex
0800ec88 g     F .text	00000010 free



Disassembly of section .text:

08000188 <__do_global_dtors_aux>:
__do_global_dtors_aux():
 8000188:	b510      	push	{r4, lr}
 800018a:	4c05      	ldr	r4, [pc, #20]	; (80001a0 <__do_global_dtors_aux+0x18>)
 800018c:	7823      	ldrb	r3, [r4, #0]
 800018e:	b933      	cbnz	r3, 800019e <__do_global_dtors_aux+0x16>
 8000190:	4b04      	ldr	r3, [pc, #16]	; (80001a4 <__do_global_dtors_aux+0x1c>)
 8000192:	b113      	cbz	r3, 800019a <__do_global_dtors_aux+0x12>
 8000194:	4804      	ldr	r0, [pc, #16]	; (80001a8 <__do_global_dtors_aux+0x20>)
 8000196:	f3af 8000 	nop.w
 800019a:	2301      	movs	r3, #1
 800019c:	7023      	strb	r3, [r4, #0]
 800019e:	bd10      	pop	{r4, pc}
 80001a0:	200008ac 	.word	0x200008ac
 80001a4:	00000000 	.word	0x00000000
 80001a8:	0800f50c 	.word	0x0800f50c

080001ac <frame_dummy>:
frame_dummy():
 80001ac:	b508      	push	{r3, lr}
 80001ae:	4b03      	ldr	r3, [pc, #12]	; (80001bc <frame_dummy+0x10>)
 80001b0:	b11b      	cbz	r3, 80001ba <frame_dummy+0xe>
 80001b2:	4903      	ldr	r1, [pc, #12]	; (80001c0 <frame_dummy+0x14>)
 80001b4:	4803      	ldr	r0, [pc, #12]	; (80001c4 <frame_dummy+0x18>)
 80001b6:	f3af 8000 	nop.w
 80001ba:	bd08      	pop	{r3, pc}
 80001bc:	00000000 	.word	0x00000000
 80001c0:	200008b0 	.word	0x200008b0
 80001c4:	0800f50c 	.word	0x0800f50c

080001c8 <memcpy>:
memcpy():
 80001c8:	4684      	mov	ip, r0
 80001ca:	ea41 0300 	orr.w	r3, r1, r0
 80001ce:	f013 0303 	ands.w	r3, r3, #3
 80001d2:	d16d      	bne.n	80002b0 <memcpy+0xe8>
 80001d4:	3a40      	subs	r2, #64	; 0x40
 80001d6:	d341      	bcc.n	800025c <memcpy+0x94>
 80001d8:	f851 3b04 	ldr.w	r3, [r1], #4
 80001dc:	f840 3b04 	str.w	r3, [r0], #4
 80001e0:	f851 3b04 	ldr.w	r3, [r1], #4
 80001e4:	f840 3b04 	str.w	r3, [r0], #4
 80001e8:	f851 3b04 	ldr.w	r3, [r1], #4
 80001ec:	f840 3b04 	str.w	r3, [r0], #4
 80001f0:	f851 3b04 	ldr.w	r3, [r1], #4
 80001f4:	f840 3b04 	str.w	r3, [r0], #4
 80001f8:	f851 3b04 	ldr.w	r3, [r1], #4
 80001fc:	f840 3b04 	str.w	r3, [r0], #4
 8000200:	f851 3b04 	ldr.w	r3, [r1], #4
 8000204:	f840 3b04 	str.w	r3, [r0], #4
 8000208:	f851 3b04 	ldr.w	r3, [r1], #4
 800020c:	f840 3b04 	str.w	r3, [r0], #4
 8000210:	f851 3b04 	ldr.w	r3, [r1], #4
 8000214:	f840 3b04 	str.w	r3, [r0], #4
 8000218:	f851 3b04 	ldr.w	r3, [r1], #4
 800021c:	f840 3b04 	str.w	r3, [r0], #4
 8000220:	f851 3b04 	ldr.w	r3, [r1], #4
 8000224:	f840 3b04 	str.w	r3, [r0], #4
 8000228:	f851 3b04 	ldr.w	r3, [r1], #4
 800022c:	f840 3b04 	str.w	r3, [r0], #4
 8000230:	f851 3b04 	ldr.w	r3, [r1], #4
 8000234:	f840 3b04 	str.w	r3, [r0], #4
 8000238:	f851 3b04 	ldr.w	r3, [r1], #4
 800023c:	f840 3b04 	str.w	r3, [r0], #4
 8000240:	f851 3b04 	ldr.w	r3, [r1], #4
 8000244:	f840 3b04 	str.w	r3, [r0], #4
 8000248:	f851 3b04 	ldr.w	r3, [r1], #4
 800024c:	f840 3b04 	str.w	r3, [r0], #4
 8000250:	f851 3b04 	ldr.w	r3, [r1], #4
 8000254:	f840 3b04 	str.w	r3, [r0], #4
 8000258:	3a40      	subs	r2, #64	; 0x40
 800025a:	d2bd      	bcs.n	80001d8 <memcpy+0x10>
 800025c:	3230      	adds	r2, #48	; 0x30
 800025e:	d311      	bcc.n	8000284 <memcpy+0xbc>
 8000260:	f851 3b04 	ldr.w	r3, [r1], #4
 8000264:	f840 3b04 	str.w	r3, [r0], #4
 8000268:	f851 3b04 	ldr.w	r3, [r1], #4
 800026c:	f840 3b04 	str.w	r3, [r0], #4
 8000270:	f851 3b04 	ldr.w	r3, [r1], #4
 8000274:	f840 3b04 	str.w	r3, [r0], #4
 8000278:	f851 3b04 	ldr.w	r3, [r1], #4
 800027c:	f840 3b04 	str.w	r3, [r0], #4
 8000280:	3a10      	subs	r2, #16
 8000282:	d2ed      	bcs.n	8000260 <memcpy+0x98>
 8000284:	320c      	adds	r2, #12
 8000286:	d305      	bcc.n	8000294 <memcpy+0xcc>
 8000288:	f851 3b04 	ldr.w	r3, [r1], #4
 800028c:	f840 3b04 	str.w	r3, [r0], #4
 8000290:	3a04      	subs	r2, #4
 8000292:	d2f9      	bcs.n	8000288 <memcpy+0xc0>
 8000294:	3204      	adds	r2, #4
 8000296:	d008      	beq.n	80002aa <memcpy+0xe2>
 8000298:	07d2      	lsls	r2, r2, #31
 800029a:	bf1c      	itt	ne
 800029c:	f811 3b01 	ldrbne.w	r3, [r1], #1
 80002a0:	f800 3b01 	strbne.w	r3, [r0], #1
 80002a4:	d301      	bcc.n	80002aa <memcpy+0xe2>
 80002a6:	880b      	ldrh	r3, [r1, #0]
 80002a8:	8003      	strh	r3, [r0, #0]
 80002aa:	4660      	mov	r0, ip
 80002ac:	4770      	bx	lr
 80002ae:	bf00      	nop
 80002b0:	2a08      	cmp	r2, #8
 80002b2:	d313      	bcc.n	80002dc <memcpy+0x114>
 80002b4:	078b      	lsls	r3, r1, #30
 80002b6:	d08d      	beq.n	80001d4 <memcpy+0xc>
 80002b8:	f010 0303 	ands.w	r3, r0, #3
 80002bc:	d08a      	beq.n	80001d4 <memcpy+0xc>
 80002be:	f1c3 0304 	rsb	r3, r3, #4
 80002c2:	1ad2      	subs	r2, r2, r3
 80002c4:	07db      	lsls	r3, r3, #31
 80002c6:	bf1c      	itt	ne
 80002c8:	f811 3b01 	ldrbne.w	r3, [r1], #1
 80002cc:	f800 3b01 	strbne.w	r3, [r0], #1
 80002d0:	d380      	bcc.n	80001d4 <memcpy+0xc>
 80002d2:	f831 3b02 	ldrh.w	r3, [r1], #2
 80002d6:	f820 3b02 	strh.w	r3, [r0], #2
 80002da:	e77b      	b.n	80001d4 <memcpy+0xc>
 80002dc:	3a04      	subs	r2, #4
 80002de:	d3d9      	bcc.n	8000294 <memcpy+0xcc>
 80002e0:	3a01      	subs	r2, #1
 80002e2:	f811 3b01 	ldrb.w	r3, [r1], #1
 80002e6:	f800 3b01 	strb.w	r3, [r0], #1
 80002ea:	d2f9      	bcs.n	80002e0 <memcpy+0x118>
 80002ec:	780b      	ldrb	r3, [r1, #0]
 80002ee:	7003      	strb	r3, [r0, #0]
 80002f0:	784b      	ldrb	r3, [r1, #1]
 80002f2:	7043      	strb	r3, [r0, #1]
 80002f4:	788b      	ldrb	r3, [r1, #2]
 80002f6:	7083      	strb	r3, [r0, #2]
 80002f8:	4660      	mov	r0, ip
 80002fa:	4770      	bx	lr

080002fc <USB_HC_StartXfer>:
USB_HC_StartXfer():
 80002fc:	b580      	push	{r7, lr}
 80002fe:	b088      	sub	sp, #32
 8000300:	af02      	add	r7, sp, #8
 8000302:	60f8      	str	r0, [r7, #12]
 8000304:	60b9      	str	r1, [r7, #8]
 8000306:	4613      	mov	r3, r2
 8000308:	71fb      	strb	r3, [r7, #7]
 800030a:	2300      	movs	r3, #0
 800030c:	757b      	strb	r3, [r7, #21]
 800030e:	2300      	movs	r3, #0
 8000310:	827b      	strh	r3, [r7, #18]
 8000312:	2300      	movs	r3, #0
 8000314:	82fb      	strh	r3, [r7, #22]
 8000316:	f44f 7380 	mov.w	r3, #256	; 0x100
 800031a:	823b      	strh	r3, [r7, #16]
 800031c:	68fb      	ldr	r3, [r7, #12]
 800031e:	f1b3 4fa0 	cmp.w	r3, #1342177280	; 0x50000000
 8000322:	d02a      	beq.n	800037a <USB_HC_StartXfer+0x7e>
 8000324:	68bb      	ldr	r3, [r7, #8]
 8000326:	791b      	ldrb	r3, [r3, #4]
 8000328:	2b00      	cmp	r3, #0
 800032a:	d126      	bne.n	800037a <USB_HC_StartXfer+0x7e>
 800032c:	79fb      	ldrb	r3, [r7, #7]
 800032e:	2b00      	cmp	r3, #0
 8000330:	d10b      	bne.n	800034a <USB_HC_StartXfer+0x4e>
 8000332:	68bb      	ldr	r3, [r7, #8]
 8000334:	795b      	ldrb	r3, [r3, #5]
 8000336:	2b01      	cmp	r3, #1
 8000338:	d107      	bne.n	800034a <USB_HC_StartXfer+0x4e>
 800033a:	68bb      	ldr	r3, [r7, #8]
 800033c:	785b      	ldrb	r3, [r3, #1]
 800033e:	4619      	mov	r1, r3
 8000340:	68f8      	ldr	r0, [r7, #12]
 8000342:	f000 fa23 	bl	800078c <USB_DoPing>
 8000346:	2300      	movs	r3, #0
 8000348:	e110      	b.n	800056c <USB_HC_StartXfer+0x270>
 800034a:	79fb      	ldrb	r3, [r7, #7]
 800034c:	2b01      	cmp	r3, #1
 800034e:	d114      	bne.n	800037a <USB_HC_StartXfer+0x7e>
 8000350:	68bb      	ldr	r3, [r7, #8]
 8000352:	785b      	ldrb	r3, [r3, #1]
 8000354:	015a      	lsls	r2, r3, #5
 8000356:	68fb      	ldr	r3, [r7, #12]
 8000358:	4413      	add	r3, r2
 800035a:	f503 63a0 	add.w	r3, r3, #1280	; 0x500
 800035e:	68db      	ldr	r3, [r3, #12]
 8000360:	68ba      	ldr	r2, [r7, #8]
 8000362:	7852      	ldrb	r2, [r2, #1]
 8000364:	0151      	lsls	r1, r2, #5
 8000366:	68fa      	ldr	r2, [r7, #12]
 8000368:	440a      	add	r2, r1
 800036a:	f502 62a0 	add.w	r2, r2, #1280	; 0x500
 800036e:	f023 0360 	bic.w	r3, r3, #96	; 0x60
 8000372:	60d3      	str	r3, [r2, #12]
 8000374:	68bb      	ldr	r3, [r7, #8]
 8000376:	2200      	movs	r2, #0
 8000378:	715a      	strb	r2, [r3, #5]
 800037a:	68bb      	ldr	r3, [r7, #8]
 800037c:	691b      	ldr	r3, [r3, #16]
 800037e:	2b00      	cmp	r3, #0
 8000380:	d019      	beq.n	80003b6 <USB_HC_StartXfer+0xba>
 8000382:	68bb      	ldr	r3, [r7, #8]
 8000384:	691b      	ldr	r3, [r3, #16]
 8000386:	68ba      	ldr	r2, [r7, #8]
 8000388:	8912      	ldrh	r2, [r2, #8]
 800038a:	4413      	add	r3, r2
 800038c:	3b01      	subs	r3, #1
 800038e:	68ba      	ldr	r2, [r7, #8]
 8000390:	8912      	ldrh	r2, [r2, #8]
 8000392:	fbb3 f3f2 	udiv	r3, r3, r2
 8000396:	82fb      	strh	r3, [r7, #22]
 8000398:	8afa      	ldrh	r2, [r7, #22]
 800039a:	8a3b      	ldrh	r3, [r7, #16]
 800039c:	429a      	cmp	r2, r3
 800039e:	d90c      	bls.n	80003ba <USB_HC_StartXfer+0xbe>
 80003a0:	8a3b      	ldrh	r3, [r7, #16]
 80003a2:	82fb      	strh	r3, [r7, #22]
 80003a4:	8afb      	ldrh	r3, [r7, #22]
 80003a6:	68ba      	ldr	r2, [r7, #8]
 80003a8:	8912      	ldrh	r2, [r2, #8]
 80003aa:	fb02 f303 	mul.w	r3, r2, r3
 80003ae:	461a      	mov	r2, r3
 80003b0:	68bb      	ldr	r3, [r7, #8]
 80003b2:	611a      	str	r2, [r3, #16]
 80003b4:	e001      	b.n	80003ba <USB_HC_StartXfer+0xbe>
 80003b6:	2301      	movs	r3, #1
 80003b8:	82fb      	strh	r3, [r7, #22]
 80003ba:	68bb      	ldr	r3, [r7, #8]
 80003bc:	78db      	ldrb	r3, [r3, #3]
 80003be:	2b00      	cmp	r3, #0
 80003c0:	d007      	beq.n	80003d2 <USB_HC_StartXfer+0xd6>
 80003c2:	8afb      	ldrh	r3, [r7, #22]
 80003c4:	68ba      	ldr	r2, [r7, #8]
 80003c6:	8912      	ldrh	r2, [r2, #8]
 80003c8:	fb02 f303 	mul.w	r3, r2, r3
 80003cc:	461a      	mov	r2, r3
 80003ce:	68bb      	ldr	r3, [r7, #8]
 80003d0:	611a      	str	r2, [r3, #16]
 80003d2:	68bb      	ldr	r3, [r7, #8]
 80003d4:	691b      	ldr	r3, [r3, #16]
 80003d6:	f3c3 0212 	ubfx	r2, r3, #0, #19
 80003da:	8afb      	ldrh	r3, [r7, #22]
 80003dc:	04db      	lsls	r3, r3, #19
 80003de:	4619      	mov	r1, r3
 80003e0:	4b64      	ldr	r3, [pc, #400]	; (8000574 <USB_HC_StartXfer+0x278>)
 80003e2:	400b      	ands	r3, r1
 80003e4:	431a      	orrs	r2, r3
 80003e6:	68bb      	ldr	r3, [r7, #8]
 80003e8:	7a9b      	ldrb	r3, [r3, #10]
 80003ea:	075b      	lsls	r3, r3, #29
 80003ec:	f003 43c0 	and.w	r3, r3, #1610612736	; 0x60000000
 80003f0:	68b9      	ldr	r1, [r7, #8]
 80003f2:	7849      	ldrb	r1, [r1, #1]
 80003f4:	0148      	lsls	r0, r1, #5
 80003f6:	68f9      	ldr	r1, [r7, #12]
 80003f8:	4401      	add	r1, r0
 80003fa:	f501 61a0 	add.w	r1, r1, #1280	; 0x500
 80003fe:	4313      	orrs	r3, r2
 8000400:	610b      	str	r3, [r1, #16]
 8000402:	79fb      	ldrb	r3, [r7, #7]
 8000404:	2b00      	cmp	r3, #0
 8000406:	d00a      	beq.n	800041e <USB_HC_StartXfer+0x122>
 8000408:	68bb      	ldr	r3, [r7, #8]
 800040a:	68d9      	ldr	r1, [r3, #12]
 800040c:	68bb      	ldr	r3, [r7, #8]
 800040e:	785b      	ldrb	r3, [r3, #1]
 8000410:	015a      	lsls	r2, r3, #5
 8000412:	68fb      	ldr	r3, [r7, #12]
 8000414:	4413      	add	r3, r2
 8000416:	f503 63a0 	add.w	r3, r3, #1280	; 0x500
 800041a:	460a      	mov	r2, r1
 800041c:	615a      	str	r2, [r3, #20]
 800041e:	68fb      	ldr	r3, [r7, #12]
 8000420:	f503 6380 	add.w	r3, r3, #1024	; 0x400
 8000424:	689b      	ldr	r3, [r3, #8]
 8000426:	f003 0301 	and.w	r3, r3, #1
 800042a:	2b00      	cmp	r3, #0
 800042c:	bf0c      	ite	eq
 800042e:	2301      	moveq	r3, #1
 8000430:	2300      	movne	r3, #0
 8000432:	b2db      	uxtb	r3, r3
 8000434:	757b      	strb	r3, [r7, #21]
 8000436:	68bb      	ldr	r3, [r7, #8]
 8000438:	785b      	ldrb	r3, [r3, #1]
 800043a:	015a      	lsls	r2, r3, #5
 800043c:	68fb      	ldr	r3, [r7, #12]
 800043e:	4413      	add	r3, r2
 8000440:	f503 63a0 	add.w	r3, r3, #1280	; 0x500
 8000444:	681b      	ldr	r3, [r3, #0]
 8000446:	68ba      	ldr	r2, [r7, #8]
 8000448:	7852      	ldrb	r2, [r2, #1]
 800044a:	0151      	lsls	r1, r2, #5
 800044c:	68fa      	ldr	r2, [r7, #12]
 800044e:	440a      	add	r2, r1
 8000450:	f502 62a0 	add.w	r2, r2, #1280	; 0x500
 8000454:	f023 5300 	bic.w	r3, r3, #536870912	; 0x20000000
 8000458:	6013      	str	r3, [r2, #0]
 800045a:	68bb      	ldr	r3, [r7, #8]
 800045c:	785b      	ldrb	r3, [r3, #1]
 800045e:	015a      	lsls	r2, r3, #5
 8000460:	68fb      	ldr	r3, [r7, #12]
 8000462:	4413      	add	r3, r2
 8000464:	f503 63a0 	add.w	r3, r3, #1280	; 0x500
 8000468:	681b      	ldr	r3, [r3, #0]
 800046a:	7d7a      	ldrb	r2, [r7, #21]
 800046c:	0752      	lsls	r2, r2, #29
 800046e:	4610      	mov	r0, r2
 8000470:	68ba      	ldr	r2, [r7, #8]
 8000472:	7852      	ldrb	r2, [r2, #1]
 8000474:	0151      	lsls	r1, r2, #5
 8000476:	68fa      	ldr	r2, [r7, #12]
 8000478:	440a      	add	r2, r1
 800047a:	f502 62a0 	add.w	r2, r2, #1280	; 0x500
 800047e:	4303      	orrs	r3, r0
 8000480:	6013      	str	r3, [r2, #0]
 8000482:	68bb      	ldr	r3, [r7, #8]
 8000484:	785b      	ldrb	r3, [r3, #1]
 8000486:	015a      	lsls	r2, r3, #5
 8000488:	68fb      	ldr	r3, [r7, #12]
 800048a:	4413      	add	r3, r2
 800048c:	f503 63a0 	add.w	r3, r3, #1280	; 0x500
 8000490:	681b      	ldr	r3, [r3, #0]
 8000492:	68ba      	ldr	r2, [r7, #8]
 8000494:	7852      	ldrb	r2, [r2, #1]
 8000496:	0151      	lsls	r1, r2, #5
 8000498:	68fa      	ldr	r2, [r7, #12]
 800049a:	440a      	add	r2, r1
 800049c:	f502 62a0 	add.w	r2, r2, #1280	; 0x500
 80004a0:	f023 4380 	bic.w	r3, r3, #1073741824	; 0x40000000
 80004a4:	6013      	str	r3, [r2, #0]
 80004a6:	68bb      	ldr	r3, [r7, #8]
 80004a8:	785b      	ldrb	r3, [r3, #1]
 80004aa:	015a      	lsls	r2, r3, #5
 80004ac:	68fb      	ldr	r3, [r7, #12]
 80004ae:	4413      	add	r3, r2
 80004b0:	f503 63a0 	add.w	r3, r3, #1280	; 0x500
 80004b4:	681b      	ldr	r3, [r3, #0]
 80004b6:	68ba      	ldr	r2, [r7, #8]
 80004b8:	7852      	ldrb	r2, [r2, #1]
 80004ba:	0151      	lsls	r1, r2, #5
 80004bc:	68fa      	ldr	r2, [r7, #12]
 80004be:	440a      	add	r2, r1
 80004c0:	f502 62a0 	add.w	r2, r2, #1280	; 0x500
 80004c4:	f043 4300 	orr.w	r3, r3, #2147483648	; 0x80000000
 80004c8:	6013      	str	r3, [r2, #0]
 80004ca:	79fb      	ldrb	r3, [r7, #7]
 80004cc:	2b00      	cmp	r3, #0
 80004ce:	d14c      	bne.n	800056a <USB_HC_StartXfer+0x26e>
 80004d0:	68bb      	ldr	r3, [r7, #8]
 80004d2:	78db      	ldrb	r3, [r3, #3]
 80004d4:	2b00      	cmp	r3, #0
 80004d6:	d148      	bne.n	800056a <USB_HC_StartXfer+0x26e>
 80004d8:	68bb      	ldr	r3, [r7, #8]
 80004da:	691b      	ldr	r3, [r3, #16]
 80004dc:	2b00      	cmp	r3, #0
 80004de:	d044      	beq.n	800056a <USB_HC_StartXfer+0x26e>
 80004e0:	68bb      	ldr	r3, [r7, #8]
 80004e2:	79db      	ldrb	r3, [r3, #7]
 80004e4:	2b03      	cmp	r3, #3
 80004e6:	d834      	bhi.n	8000552 <USB_HC_StartXfer+0x256>
 80004e8:	a201      	add	r2, pc, #4	; (adr r2, 80004f0 <USB_HC_StartXfer+0x1f4>)
 80004ea:	f852 f023 	ldr.w	pc, [r2, r3, lsl #2]
 80004ee:	bf00      	nop
 80004f0:	08000501 	.word	0x08000501
 80004f4:	08000525 	.word	0x08000525
 80004f8:	08000501 	.word	0x08000501
 80004fc:	08000525 	.word	0x08000525
 8000500:	68bb      	ldr	r3, [r7, #8]
 8000502:	691b      	ldr	r3, [r3, #16]
 8000504:	3303      	adds	r3, #3
 8000506:	089b      	lsrs	r3, r3, #2
 8000508:	827b      	strh	r3, [r7, #18]
 800050a:	8a7a      	ldrh	r2, [r7, #18]
 800050c:	68fb      	ldr	r3, [r7, #12]
 800050e:	6adb      	ldr	r3, [r3, #44]	; 0x2c
 8000510:	b29b      	uxth	r3, r3
 8000512:	429a      	cmp	r2, r3
 8000514:	d91a      	bls.n	800054c <USB_HC_StartXfer+0x250>
 8000516:	68fb      	ldr	r3, [r7, #12]
 8000518:	699b      	ldr	r3, [r3, #24]
 800051a:	f043 0220 	orr.w	r2, r3, #32
 800051e:	68fb      	ldr	r3, [r7, #12]
 8000520:	619a      	str	r2, [r3, #24]
 8000522:	e016      	b.n	8000552 <USB_HC_StartXfer+0x256>
 8000524:	68bb      	ldr	r3, [r7, #8]
 8000526:	691b      	ldr	r3, [r3, #16]
 8000528:	3303      	adds	r3, #3
 800052a:	089b      	lsrs	r3, r3, #2
 800052c:	827b      	strh	r3, [r7, #18]
 800052e:	8a7a      	ldrh	r2, [r7, #18]
 8000530:	68fb      	ldr	r3, [r7, #12]
 8000532:	f503 6380 	add.w	r3, r3, #1024	; 0x400
 8000536:	691b      	ldr	r3, [r3, #16]
 8000538:	b29b      	uxth	r3, r3
 800053a:	429a      	cmp	r2, r3
 800053c:	d908      	bls.n	8000550 <USB_HC_StartXfer+0x254>
 800053e:	68fb      	ldr	r3, [r7, #12]
 8000540:	699b      	ldr	r3, [r3, #24]
 8000542:	f043 6280 	orr.w	r2, r3, #67108864	; 0x4000000
 8000546:	68fb      	ldr	r3, [r7, #12]
 8000548:	619a      	str	r2, [r3, #24]
 800054a:	e002      	b.n	8000552 <USB_HC_StartXfer+0x256>
 800054c:	bf00      	nop
 800054e:	e000      	b.n	8000552 <USB_HC_StartXfer+0x256>
 8000550:	bf00      	nop
 8000552:	68bb      	ldr	r3, [r7, #8]
 8000554:	68d9      	ldr	r1, [r3, #12]
 8000556:	68bb      	ldr	r3, [r7, #8]
 8000558:	785a      	ldrb	r2, [r3, #1]
 800055a:	68bb      	ldr	r3, [r7, #8]
 800055c:	691b      	ldr	r3, [r3, #16]
 800055e:	b29b      	uxth	r3, r3
 8000560:	2000      	movs	r0, #0
 8000562:	9000      	str	r0, [sp, #0]
 8000564:	68f8      	ldr	r0, [r7, #12]
 8000566:	f000 fe7b 	bl	8001260 <USB_WritePacket>
 800056a:	2300      	movs	r3, #0
 800056c:	4618      	mov	r0, r3
 800056e:	3718      	adds	r7, #24
 8000570:	46bd      	mov	sp, r7
 8000572:	bd80      	pop	{r7, pc}
 8000574:	1ff80000 	.word	0x1ff80000

08000578 <USB_HC_ReadInterrupt>:
USB_HC_ReadInterrupt():
 8000578:	b480      	push	{r7}
 800057a:	b083      	sub	sp, #12
 800057c:	af00      	add	r7, sp, #0
 800057e:	6078      	str	r0, [r7, #4]
 8000580:	687b      	ldr	r3, [r7, #4]
 8000582:	f503 6380 	add.w	r3, r3, #1024	; 0x400
 8000586:	695b      	ldr	r3, [r3, #20]
 8000588:	b29b      	uxth	r3, r3
 800058a:	4618      	mov	r0, r3
 800058c:	370c      	adds	r7, #12
 800058e:	46bd      	mov	sp, r7
 8000590:	f85d 7b04 	ldr.w	r7, [sp], #4
 8000594:	4770      	bx	lr
 8000596:	bf00      	nop

08000598 <USB_HC_Halt>:
USB_HC_Halt():
 8000598:	b480      	push	{r7}
 800059a:	b085      	sub	sp, #20
 800059c:	af00      	add	r7, sp, #0
 800059e:	6078      	str	r0, [r7, #4]
 80005a0:	460b      	mov	r3, r1
 80005a2:	70fb      	strb	r3, [r7, #3]
 80005a4:	2300      	movs	r3, #0
 80005a6:	60fb      	str	r3, [r7, #12]
 80005a8:	78fb      	ldrb	r3, [r7, #3]
 80005aa:	015a      	lsls	r2, r3, #5
 80005ac:	687b      	ldr	r3, [r7, #4]
 80005ae:	4413      	add	r3, r2
 80005b0:	f503 63a0 	add.w	r3, r3, #1280	; 0x500
 80005b4:	681b      	ldr	r3, [r3, #0]
 80005b6:	78fb      	ldrb	r3, [r7, #3]
 80005b8:	015a      	lsls	r2, r3, #5
 80005ba:	687b      	ldr	r3, [r7, #4]
 80005bc:	4413      	add	r3, r2
 80005be:	f503 63a0 	add.w	r3, r3, #1280	; 0x500
 80005c2:	681b      	ldr	r3, [r3, #0]
 80005c4:	f403 2300 	and.w	r3, r3, #524288	; 0x80000
 80005c8:	2b00      	cmp	r3, #0
 80005ca:	d06a      	beq.n	80006a2 <USB_HC_Halt+0x10a>
 80005cc:	78fb      	ldrb	r3, [r7, #3]
 80005ce:	015a      	lsls	r2, r3, #5
 80005d0:	687b      	ldr	r3, [r7, #4]
 80005d2:	4413      	add	r3, r2
 80005d4:	f503 63a0 	add.w	r3, r3, #1280	; 0x500
 80005d8:	681b      	ldr	r3, [r3, #0]
 80005da:	78fa      	ldrb	r2, [r7, #3]
 80005dc:	0151      	lsls	r1, r2, #5
 80005de:	687a      	ldr	r2, [r7, #4]
 80005e0:	440a      	add	r2, r1
 80005e2:	f502 62a0 	add.w	r2, r2, #1280	; 0x500
 80005e6:	f043 4380 	orr.w	r3, r3, #1073741824	; 0x40000000
 80005ea:	6013      	str	r3, [r2, #0]
 80005ec:	687b      	ldr	r3, [r7, #4]
 80005ee:	6adb      	ldr	r3, [r3, #44]	; 0x2c
 80005f0:	b29b      	uxth	r3, r3
 80005f2:	2b00      	cmp	r3, #0
 80005f4:	d144      	bne.n	8000680 <USB_HC_Halt+0xe8>
 80005f6:	78fb      	ldrb	r3, [r7, #3]
 80005f8:	015a      	lsls	r2, r3, #5
 80005fa:	687b      	ldr	r3, [r7, #4]
 80005fc:	4413      	add	r3, r2
 80005fe:	f503 63a0 	add.w	r3, r3, #1280	; 0x500
 8000602:	681b      	ldr	r3, [r3, #0]
 8000604:	78fa      	ldrb	r2, [r7, #3]
 8000606:	0151      	lsls	r1, r2, #5
 8000608:	687a      	ldr	r2, [r7, #4]
 800060a:	440a      	add	r2, r1
 800060c:	f502 62a0 	add.w	r2, r2, #1280	; 0x500
 8000610:	f023 4300 	bic.w	r3, r3, #2147483648	; 0x80000000
 8000614:	6013      	str	r3, [r2, #0]
 8000616:	78fb      	ldrb	r3, [r7, #3]
 8000618:	015a      	lsls	r2, r3, #5
 800061a:	687b      	ldr	r3, [r7, #4]
 800061c:	4413      	add	r3, r2
 800061e:	f503 63a0 	add.w	r3, r3, #1280	; 0x500
 8000622:	681b      	ldr	r3, [r3, #0]
 8000624:	78fa      	ldrb	r2, [r7, #3]
 8000626:	0151      	lsls	r1, r2, #5
 8000628:	687a      	ldr	r2, [r7, #4]
 800062a:	440a      	add	r2, r1
 800062c:	f502 62a0 	add.w	r2, r2, #1280	; 0x500
 8000630:	f043 4300 	orr.w	r3, r3, #2147483648	; 0x80000000
 8000634:	6013      	str	r3, [r2, #0]
 8000636:	78fb      	ldrb	r3, [r7, #3]
 8000638:	015a      	lsls	r2, r3, #5
 800063a:	687b      	ldr	r3, [r7, #4]
 800063c:	4413      	add	r3, r2
 800063e:	f503 63a0 	add.w	r3, r3, #1280	; 0x500
 8000642:	681b      	ldr	r3, [r3, #0]
 8000644:	78fa      	ldrb	r2, [r7, #3]
 8000646:	0151      	lsls	r1, r2, #5
 8000648:	687a      	ldr	r2, [r7, #4]
 800064a:	440a      	add	r2, r1
 800064c:	f502 62a0 	add.w	r2, r2, #1280	; 0x500
 8000650:	f423 4300 	bic.w	r3, r3, #32768	; 0x8000
 8000654:	6013      	str	r3, [r2, #0]
 8000656:	68fb      	ldr	r3, [r7, #12]
 8000658:	3301      	adds	r3, #1
 800065a:	60fb      	str	r3, [r7, #12]
 800065c:	68fb      	ldr	r3, [r7, #12]
 800065e:	f5b3 7f7a 	cmp.w	r3, #1000	; 0x3e8
 8000662:	f200 808a 	bhi.w	800077a <USB_HC_Halt+0x1e2>
 8000666:	78fb      	ldrb	r3, [r7, #3]
 8000668:	015a      	lsls	r2, r3, #5
 800066a:	687b      	ldr	r3, [r7, #4]
 800066c:	4413      	add	r3, r2
 800066e:	f503 63a0 	add.w	r3, r3, #1280	; 0x500
 8000672:	681b      	ldr	r3, [r3, #0]
 8000674:	f003 4300 	and.w	r3, r3, #2147483648	; 0x80000000
 8000678:	f1b3 4f00 	cmp.w	r3, #2147483648	; 0x80000000
 800067c:	d0eb      	beq.n	8000656 <USB_HC_Halt+0xbe>
 800067e:	e07c      	b.n	800077a <USB_HC_Halt+0x1e2>
 8000680:	78fb      	ldrb	r3, [r7, #3]
 8000682:	015a      	lsls	r2, r3, #5
 8000684:	687b      	ldr	r3, [r7, #4]
 8000686:	4413      	add	r3, r2
 8000688:	f503 63a0 	add.w	r3, r3, #1280	; 0x500
 800068c:	681b      	ldr	r3, [r3, #0]
 800068e:	78fa      	ldrb	r2, [r7, #3]
 8000690:	0151      	lsls	r1, r2, #5
 8000692:	687a      	ldr	r2, [r7, #4]
 8000694:	440a      	add	r2, r1
 8000696:	f502 62a0 	add.w	r2, r2, #1280	; 0x500
 800069a:	f043 4300 	orr.w	r3, r3, #2147483648	; 0x80000000
 800069e:	6013      	str	r3, [r2, #0]
 80006a0:	e06c      	b.n	800077c <USB_HC_Halt+0x1e4>
 80006a2:	78fb      	ldrb	r3, [r7, #3]
 80006a4:	015a      	lsls	r2, r3, #5
 80006a6:	687b      	ldr	r3, [r7, #4]
 80006a8:	4413      	add	r3, r2
 80006aa:	f503 63a0 	add.w	r3, r3, #1280	; 0x500
 80006ae:	681b      	ldr	r3, [r3, #0]
 80006b0:	78fa      	ldrb	r2, [r7, #3]
 80006b2:	0151      	lsls	r1, r2, #5
 80006b4:	687a      	ldr	r2, [r7, #4]
 80006b6:	440a      	add	r2, r1
 80006b8:	f502 62a0 	add.w	r2, r2, #1280	; 0x500
 80006bc:	f043 4380 	orr.w	r3, r3, #1073741824	; 0x40000000
 80006c0:	6013      	str	r3, [r2, #0]
 80006c2:	687b      	ldr	r3, [r7, #4]
 80006c4:	f503 6380 	add.w	r3, r3, #1024	; 0x400
 80006c8:	691b      	ldr	r3, [r3, #16]
 80006ca:	b29b      	uxth	r3, r3
 80006cc:	2b00      	cmp	r3, #0
 80006ce:	d143      	bne.n	8000758 <USB_HC_Halt+0x1c0>
 80006d0:	78fb      	ldrb	r3, [r7, #3]
 80006d2:	015a      	lsls	r2, r3, #5
 80006d4:	687b      	ldr	r3, [r7, #4]
 80006d6:	4413      	add	r3, r2
 80006d8:	f503 63a0 	add.w	r3, r3, #1280	; 0x500
 80006dc:	681b      	ldr	r3, [r3, #0]
 80006de:	78fa      	ldrb	r2, [r7, #3]
 80006e0:	0151      	lsls	r1, r2, #5
 80006e2:	687a      	ldr	r2, [r7, #4]
 80006e4:	440a      	add	r2, r1
 80006e6:	f502 62a0 	add.w	r2, r2, #1280	; 0x500
 80006ea:	f023 4300 	bic.w	r3, r3, #2147483648	; 0x80000000
 80006ee:	6013      	str	r3, [r2, #0]
 80006f0:	78fb      	ldrb	r3, [r7, #3]
 80006f2:	015a      	lsls	r2, r3, #5
 80006f4:	687b      	ldr	r3, [r7, #4]
 80006f6:	4413      	add	r3, r2
 80006f8:	f503 63a0 	add.w	r3, r3, #1280	; 0x500
 80006fc:	681b      	ldr	r3, [r3, #0]
 80006fe:	78fa      	ldrb	r2, [r7, #3]
 8000700:	0151      	lsls	r1, r2, #5
 8000702:	687a      	ldr	r2, [r7, #4]
 8000704:	440a      	add	r2, r1
 8000706:	f502 62a0 	add.w	r2, r2, #1280	; 0x500
 800070a:	f043 4300 	orr.w	r3, r3, #2147483648	; 0x80000000
 800070e:	6013      	str	r3, [r2, #0]
 8000710:	78fb      	ldrb	r3, [r7, #3]
 8000712:	015a      	lsls	r2, r3, #5
 8000714:	687b      	ldr	r3, [r7, #4]
 8000716:	4413      	add	r3, r2
 8000718:	f503 63a0 	add.w	r3, r3, #1280	; 0x500
 800071c:	681b      	ldr	r3, [r3, #0]
 800071e:	78fa      	ldrb	r2, [r7, #3]
 8000720:	0151      	lsls	r1, r2, #5
 8000722:	687a      	ldr	r2, [r7, #4]
 8000724:	440a      	add	r2, r1
 8000726:	f502 62a0 	add.w	r2, r2, #1280	; 0x500
 800072a:	f423 4300 	bic.w	r3, r3, #32768	; 0x8000
 800072e:	6013      	str	r3, [r2, #0]
 8000730:	68fb      	ldr	r3, [r7, #12]
 8000732:	3301      	adds	r3, #1
 8000734:	60fb      	str	r3, [r7, #12]
 8000736:	68fb      	ldr	r3, [r7, #12]
 8000738:	f5b3 7f7a 	cmp.w	r3, #1000	; 0x3e8
 800073c:	d81e      	bhi.n	800077c <USB_HC_Halt+0x1e4>
 800073e:	78fb      	ldrb	r3, [r7, #3]
 8000740:	015a      	lsls	r2, r3, #5
 8000742:	687b      	ldr	r3, [r7, #4]
 8000744:	4413      	add	r3, r2
 8000746:	f503 63a0 	add.w	r3, r3, #1280	; 0x500
 800074a:	681b      	ldr	r3, [r3, #0]
 800074c:	f003 4300 	and.w	r3, r3, #2147483648	; 0x80000000
 8000750:	f1b3 4f00 	cmp.w	r3, #2147483648	; 0x80000000
 8000754:	d0ec      	beq.n	8000730 <USB_HC_Halt+0x198>
 8000756:	e011      	b.n	800077c <USB_HC_Halt+0x1e4>
 8000758:	78fb      	ldrb	r3, [r7, #3]
 800075a:	015a      	lsls	r2, r3, #5
 800075c:	687b      	ldr	r3, [r7, #4]
 800075e:	4413      	add	r3, r2
 8000760:	f503 63a0 	add.w	r3, r3, #1280	; 0x500
 8000764:	681b      	ldr	r3, [r3, #0]
 8000766:	78fa      	ldrb	r2, [r7, #3]
 8000768:	0151      	lsls	r1, r2, #5
 800076a:	687a      	ldr	r2, [r7, #4]
 800076c:	440a      	add	r2, r1
 800076e:	f502 62a0 	add.w	r2, r2, #1280	; 0x500
 8000772:	f043 4300 	orr.w	r3, r3, #2147483648	; 0x80000000
 8000776:	6013      	str	r3, [r2, #0]
 8000778:	e000      	b.n	800077c <USB_HC_Halt+0x1e4>
 800077a:	bf00      	nop
 800077c:	2300      	movs	r3, #0
 800077e:	4618      	mov	r0, r3
 8000780:	3714      	adds	r7, #20
 8000782:	46bd      	mov	sp, r7
 8000784:	f85d 7b04 	ldr.w	r7, [sp], #4
 8000788:	4770      	bx	lr
 800078a:	bf00      	nop

0800078c <USB_DoPing>:
USB_DoPing():
 800078c:	b480      	push	{r7}
 800078e:	b085      	sub	sp, #20
 8000790:	af00      	add	r7, sp, #0
 8000792:	6078      	str	r0, [r7, #4]
 8000794:	460b      	mov	r3, r1
 8000796:	70fb      	strb	r3, [r7, #3]
 8000798:	2301      	movs	r3, #1
 800079a:	73fb      	strb	r3, [r7, #15]
 800079c:	7bfb      	ldrb	r3, [r7, #15]
 800079e:	04db      	lsls	r3, r3, #19
 80007a0:	461a      	mov	r2, r3
 80007a2:	4b19      	ldr	r3, [pc, #100]	; (8000808 <USB_DoPing+0x7c>)
 80007a4:	4013      	ands	r3, r2
 80007a6:	78fa      	ldrb	r2, [r7, #3]
 80007a8:	0151      	lsls	r1, r2, #5
 80007aa:	687a      	ldr	r2, [r7, #4]
 80007ac:	440a      	add	r2, r1
 80007ae:	f502 62a0 	add.w	r2, r2, #1280	; 0x500
 80007b2:	f043 4300 	orr.w	r3, r3, #2147483648	; 0x80000000
 80007b6:	6113      	str	r3, [r2, #16]
 80007b8:	78fb      	ldrb	r3, [r7, #3]
 80007ba:	015a      	lsls	r2, r3, #5
 80007bc:	687b      	ldr	r3, [r7, #4]
 80007be:	4413      	add	r3, r2
 80007c0:	f503 63a0 	add.w	r3, r3, #1280	; 0x500
 80007c4:	681b      	ldr	r3, [r3, #0]
 80007c6:	78fa      	ldrb	r2, [r7, #3]
 80007c8:	0151      	lsls	r1, r2, #5
 80007ca:	687a      	ldr	r2, [r7, #4]
 80007cc:	440a      	add	r2, r1
 80007ce:	f502 62a0 	add.w	r2, r2, #1280	; 0x500
 80007d2:	f023 4380 	bic.w	r3, r3, #1073741824	; 0x40000000
 80007d6:	6013      	str	r3, [r2, #0]
 80007d8:	78fb      	ldrb	r3, [r7, #3]
 80007da:	015a      	lsls	r2, r3, #5
 80007dc:	687b      	ldr	r3, [r7, #4]
 80007de:	4413      	add	r3, r2
 80007e0:	f503 63a0 	add.w	r3, r3, #1280	; 0x500
 80007e4:	681b      	ldr	r3, [r3, #0]
 80007e6:	78fa      	ldrb	r2, [r7, #3]
 80007e8:	0151      	lsls	r1, r2, #5
 80007ea:	687a      	ldr	r2, [r7, #4]
 80007ec:	440a      	add	r2, r1
 80007ee:	f502 62a0 	add.w	r2, r2, #1280	; 0x500
 80007f2:	f043 4300 	orr.w	r3, r3, #2147483648	; 0x80000000
 80007f6:	6013      	str	r3, [r2, #0]
 80007f8:	2300      	movs	r3, #0
 80007fa:	4618      	mov	r0, r3
 80007fc:	3714      	adds	r7, #20
 80007fe:	46bd      	mov	sp, r7
 8000800:	f85d 7b04 	ldr.w	r7, [sp], #4
 8000804:	4770      	bx	lr
 8000806:	bf00      	nop
 8000808:	1ff80000 	.word	0x1ff80000

0800080c <USB_StopHost>:
USB_StopHost():
 800080c:	b580      	push	{r7, lr}
 800080e:	b086      	sub	sp, #24
 8000810:	af00      	add	r7, sp, #0
 8000812:	6078      	str	r0, [r7, #4]
 8000814:	2300      	movs	r3, #0
 8000816:	613b      	str	r3, [r7, #16]
 8000818:	6878      	ldr	r0, [r7, #4]
 800081a:	f000 fcd3 	bl	80011c4 <USB_DisableGlobalInt>
 800081e:	2110      	movs	r1, #16
 8000820:	6878      	ldr	r0, [r7, #4]
 8000822:	f000 fd43 	bl	80012ac <USB_FlushTxFifo>
 8000826:	6878      	ldr	r0, [r7, #4]
 8000828:	f000 fd30 	bl	800128c <USB_FlushRxFifo>
 800082c:	2300      	movs	r3, #0
 800082e:	75fb      	strb	r3, [r7, #23]
 8000830:	e01f      	b.n	8000872 <USB_StopHost+0x66>
 8000832:	7dfb      	ldrb	r3, [r7, #23]
 8000834:	015a      	lsls	r2, r3, #5
 8000836:	687b      	ldr	r3, [r7, #4]
 8000838:	4413      	add	r3, r2
 800083a:	f503 63a0 	add.w	r3, r3, #1280	; 0x500
 800083e:	681b      	ldr	r3, [r3, #0]
 8000840:	60fb      	str	r3, [r7, #12]
 8000842:	68fb      	ldr	r3, [r7, #12]
 8000844:	f043 4380 	orr.w	r3, r3, #1073741824	; 0x40000000
 8000848:	60fb      	str	r3, [r7, #12]
 800084a:	68fb      	ldr	r3, [r7, #12]
 800084c:	f023 4300 	bic.w	r3, r3, #2147483648	; 0x80000000
 8000850:	60fb      	str	r3, [r7, #12]
 8000852:	68fb      	ldr	r3, [r7, #12]
 8000854:	f423 4300 	bic.w	r3, r3, #32768	; 0x8000
 8000858:	60fb      	str	r3, [r7, #12]
 800085a:	7dfb      	ldrb	r3, [r7, #23]
 800085c:	015a      	lsls	r2, r3, #5
 800085e:	687b      	ldr	r3, [r7, #4]
 8000860:	4413      	add	r3, r2
 8000862:	f503 63a0 	add.w	r3, r3, #1280	; 0x500
 8000866:	461a      	mov	r2, r3
 8000868:	68fb      	ldr	r3, [r7, #12]
 800086a:	6013      	str	r3, [r2, #0]
 800086c:	7dfb      	ldrb	r3, [r7, #23]
 800086e:	3301      	adds	r3, #1
 8000870:	75fb      	strb	r3, [r7, #23]
 8000872:	7dfb      	ldrb	r3, [r7, #23]
 8000874:	2b0f      	cmp	r3, #15
 8000876:	d9dc      	bls.n	8000832 <USB_StopHost+0x26>
 8000878:	2300      	movs	r3, #0
 800087a:	75fb      	strb	r3, [r7, #23]
 800087c:	e032      	b.n	80008e4 <USB_StopHost+0xd8>
 800087e:	7dfb      	ldrb	r3, [r7, #23]
 8000880:	015a      	lsls	r2, r3, #5
 8000882:	687b      	ldr	r3, [r7, #4]
 8000884:	4413      	add	r3, r2
 8000886:	f503 63a0 	add.w	r3, r3, #1280	; 0x500
 800088a:	681b      	ldr	r3, [r3, #0]
 800088c:	60fb      	str	r3, [r7, #12]
 800088e:	68fb      	ldr	r3, [r7, #12]
 8000890:	f043 4380 	orr.w	r3, r3, #1073741824	; 0x40000000
 8000894:	60fb      	str	r3, [r7, #12]
 8000896:	68fb      	ldr	r3, [r7, #12]
 8000898:	f043 4300 	orr.w	r3, r3, #2147483648	; 0x80000000
 800089c:	60fb      	str	r3, [r7, #12]
 800089e:	68fb      	ldr	r3, [r7, #12]
 80008a0:	f423 4300 	bic.w	r3, r3, #32768	; 0x8000
 80008a4:	60fb      	str	r3, [r7, #12]
 80008a6:	7dfb      	ldrb	r3, [r7, #23]
 80008a8:	015a      	lsls	r2, r3, #5
 80008aa:	687b      	ldr	r3, [r7, #4]
 80008ac:	4413      	add	r3, r2
 80008ae:	f503 63a0 	add.w	r3, r3, #1280	; 0x500
 80008b2:	461a      	mov	r2, r3
 80008b4:	68fb      	ldr	r3, [r7, #12]
 80008b6:	6013      	str	r3, [r2, #0]
 80008b8:	693b      	ldr	r3, [r7, #16]
 80008ba:	3301      	adds	r3, #1
 80008bc:	613b      	str	r3, [r7, #16]
 80008be:	693b      	ldr	r3, [r7, #16]
 80008c0:	f5b3 7f7a 	cmp.w	r3, #1000	; 0x3e8
 80008c4:	d80b      	bhi.n	80008de <USB_StopHost+0xd2>
 80008c6:	7dfb      	ldrb	r3, [r7, #23]
 80008c8:	015a      	lsls	r2, r3, #5
 80008ca:	687b      	ldr	r3, [r7, #4]
 80008cc:	4413      	add	r3, r2
 80008ce:	f503 63a0 	add.w	r3, r3, #1280	; 0x500
 80008d2:	681b      	ldr	r3, [r3, #0]
 80008d4:	f003 4300 	and.w	r3, r3, #2147483648	; 0x80000000
 80008d8:	f1b3 4f00 	cmp.w	r3, #2147483648	; 0x80000000
 80008dc:	d0ec      	beq.n	80008b8 <USB_StopHost+0xac>
 80008de:	7dfb      	ldrb	r3, [r7, #23]
 80008e0:	3301      	adds	r3, #1
 80008e2:	75fb      	strb	r3, [r7, #23]
 80008e4:	7dfb      	ldrb	r3, [r7, #23]
 80008e6:	2b0f      	cmp	r3, #15
 80008e8:	d9c9      	bls.n	800087e <USB_StopHost+0x72>
 80008ea:	687b      	ldr	r3, [r7, #4]
 80008ec:	f503 6380 	add.w	r3, r3, #1024	; 0x400
 80008f0:	461a      	mov	r2, r3
 80008f2:	f04f 33ff 	mov.w	r3, #4294967295	; 0xffffffff
 80008f6:	6153      	str	r3, [r2, #20]
 80008f8:	687b      	ldr	r3, [r7, #4]
 80008fa:	f04f 32ff 	mov.w	r2, #4294967295	; 0xffffffff
 80008fe:	615a      	str	r2, [r3, #20]
 8000900:	6878      	ldr	r0, [r7, #4]
 8000902:	f000 fa6d 	bl	8000de0 <USB_EnableGlobalInt>
 8000906:	2300      	movs	r3, #0
 8000908:	4618      	mov	r0, r3
 800090a:	3718      	adds	r7, #24
 800090c:	46bd      	mov	sp, r7
 800090e:	bd80      	pop	{r7, pc}

08000910 <USBH_Get_StringDesc.constprop.0>:
USBH_Get_StringDesc.constprop.0():
 8000910:	b570      	push	{r4, r5, r6, lr}
 8000912:	4c1c      	ldr	r4, [pc, #112]	; (8000984 <USBH_Get_StringDesc.constprop.0+0x74>)
 8000914:	78a2      	ldrb	r2, [r4, #2]
 8000916:	2a01      	cmp	r2, #1
 8000918:	d00f      	beq.n	800093a <USBH_Get_StringDesc.constprop.0+0x2a>
 800091a:	2a02      	cmp	r2, #2
 800091c:	d10a      	bne.n	8000934 <USBH_Get_StringDesc.constprop.0+0x24>
 800091e:	4620      	mov	r0, r4
 8000920:	460d      	mov	r5, r1
 8000922:	f00b f859 	bl	800b9d8 <USBH_CtlReq.part.0>
 8000926:	4602      	mov	r2, r0
 8000928:	b910      	cbnz	r0, 8000930 <USBH_Get_StringDesc.constprop.0+0x20>
 800092a:	7f63      	ldrb	r3, [r4, #29]
 800092c:	2b03      	cmp	r3, #3
 800092e:	d017      	beq.n	8000960 <USBH_Get_StringDesc.constprop.0+0x50>
 8000930:	4610      	mov	r0, r2
 8000932:	bd70      	pop	{r4, r5, r6, pc}
 8000934:	2201      	movs	r2, #1
 8000936:	4610      	mov	r0, r2
 8000938:	bd70      	pop	{r4, r5, r6, pc}
 800093a:	4913      	ldr	r1, [pc, #76]	; (8000988 <USBH_Get_StringDesc.constprop.0+0x78>)
 800093c:	7622      	strb	r2, [r4, #24]
 800093e:	f440 7040 	orr.w	r0, r0, #768	; 0x300
 8000942:	f44f 6cd0 	mov.w	ip, #1664	; 0x680
 8000946:	f104 061c 	add.w	r6, r4, #28
 800094a:	25ff      	movs	r5, #255	; 0xff
 800094c:	2302      	movs	r3, #2
 800094e:	8260      	strh	r0, [r4, #18]
 8000950:	f8a4 c010 	strh.w	ip, [r4, #16]
 8000954:	60a6      	str	r6, [r4, #8]
 8000956:	81a5      	strh	r5, [r4, #12]
 8000958:	6161      	str	r1, [r4, #20]
 800095a:	70a3      	strb	r3, [r4, #2]
 800095c:	4610      	mov	r0, r2
 800095e:	bd70      	pop	{r4, r5, r6, pc}
 8000960:	7f20      	ldrb	r0, [r4, #28]
 8000962:	3802      	subs	r0, #2
 8000964:	b280      	uxth	r0, r0
 8000966:	b140      	cbz	r0, 800097a <USBH_Get_StringDesc.constprop.0+0x6a>
 8000968:	4613      	mov	r3, r2
 800096a:	18e1      	adds	r1, r4, r3
 800096c:	3302      	adds	r3, #2
 800096e:	b29b      	uxth	r3, r3
 8000970:	7f89      	ldrb	r1, [r1, #30]
 8000972:	f805 1b01 	strb.w	r1, [r5], #1
 8000976:	4298      	cmp	r0, r3
 8000978:	d8f7      	bhi.n	800096a <USBH_Get_StringDesc.constprop.0+0x5a>
 800097a:	2300      	movs	r3, #0
 800097c:	702b      	strb	r3, [r5, #0]
 800097e:	4610      	mov	r0, r2
 8000980:	bd70      	pop	{r4, r5, r6, pc}
 8000982:	bf00      	nop
 8000984:	2001f0bc 	.word	0x2001f0bc
 8000988:	00ff0409 	.word	0x00ff0409

0800098c <HAL_GPIO_Init>:
HAL_GPIO_Init():
 800098c:	e92d 4f70 	stmdb	sp!, {r4, r5, r6, r8, r9, sl, fp, lr}
 8000990:	b082      	sub	sp, #8
 8000992:	680e      	ldr	r6, [r1, #0]
 8000994:	f8df e278 	ldr.w	lr, [pc, #632]	; 8000c10 <HAL_GPIO_Init+0x284>
 8000998:	9101      	str	r1, [sp, #4]
 800099a:	2300      	movs	r3, #0
 800099c:	e003      	b.n	80009a6 <HAL_GPIO_Init+0x1a>
 800099e:	3301      	adds	r3, #1
 80009a0:	2b10      	cmp	r3, #16
 80009a2:	f000 80ac 	beq.w	8000afe <HAL_GPIO_Init+0x172>
 80009a6:	2201      	movs	r2, #1
 80009a8:	409a      	lsls	r2, r3
 80009aa:	ea32 0106 	bics.w	r1, r2, r6
 80009ae:	ea02 0c06 	and.w	ip, r2, r6
 80009b2:	d1f4      	bne.n	800099e <HAL_GPIO_Init+0x12>
 80009b4:	9901      	ldr	r1, [sp, #4]
 80009b6:	684d      	ldr	r5, [r1, #4]
 80009b8:	f025 0a10 	bic.w	sl, r5, #16
 80009bc:	f1ba 0f02 	cmp.w	sl, #2
 80009c0:	f000 80a0 	beq.w	8000b04 <HAL_GPIO_Init+0x178>
 80009c4:	f8d0 b000 	ldr.w	fp, [r0]
 80009c8:	ea4f 0843 	mov.w	r8, r3, lsl #1
 80009cc:	2403      	movs	r4, #3
 80009ce:	fa04 f408 	lsl.w	r4, r4, r8
 80009d2:	f005 0903 	and.w	r9, r5, #3
 80009d6:	ea2b 0b04 	bic.w	fp, fp, r4
 80009da:	fa09 f908 	lsl.w	r9, r9, r8
 80009de:	f10a 3aff 	add.w	sl, sl, #4294967295	; 0xffffffff
 80009e2:	ea49 090b 	orr.w	r9, r9, fp
 80009e6:	f1ba 0f01 	cmp.w	sl, #1
 80009ea:	ea6f 0404 	mvn.w	r4, r4
 80009ee:	f8c0 9000 	str.w	r9, [r0]
 80009f2:	f240 80b0 	bls.w	8000b56 <HAL_GPIO_Init+0x1ca>
 80009f6:	68c2      	ldr	r2, [r0, #12]
 80009f8:	4014      	ands	r4, r2
 80009fa:	9a01      	ldr	r2, [sp, #4]
 80009fc:	6892      	ldr	r2, [r2, #8]
 80009fe:	fa02 f208 	lsl.w	r2, r2, r8
 8000a02:	4322      	orrs	r2, r4
 8000a04:	60c2      	str	r2, [r0, #12]
 8000a06:	00ea      	lsls	r2, r5, #3
 8000a08:	d5c9      	bpl.n	800099e <HAL_GPIO_Init+0x12>
 8000a0a:	4a7b      	ldr	r2, [pc, #492]	; (8000bf8 <HAL_GPIO_Init+0x26c>)
 8000a0c:	f023 0403 	bic.w	r4, r3, #3
 8000a10:	4611      	mov	r1, r2
 8000a12:	6c52      	ldr	r2, [r2, #68]	; 0x44
 8000a14:	f104 4480 	add.w	r4, r4, #1073741824	; 0x40000000
 8000a18:	f442 4280 	orr.w	r2, r2, #16384	; 0x4000
 8000a1c:	f504 349c 	add.w	r4, r4, #79872	; 0x13800
 8000a20:	644a      	str	r2, [r1, #68]	; 0x44
 8000a22:	f003 0803 	and.w	r8, r3, #3
 8000a26:	f8d4 9008 	ldr.w	r9, [r4, #8]
 8000a2a:	ea4f 0888 	mov.w	r8, r8, lsl #2
 8000a2e:	220f      	movs	r2, #15
 8000a30:	f5a1 5160 	sub.w	r1, r1, #14336	; 0x3800
 8000a34:	fa02 f208 	lsl.w	r2, r2, r8
 8000a38:	4288      	cmp	r0, r1
 8000a3a:	ea29 0202 	bic.w	r2, r9, r2
 8000a3e:	d02e      	beq.n	8000a9e <HAL_GPIO_Init+0x112>
 8000a40:	f501 6180 	add.w	r1, r1, #1024	; 0x400
 8000a44:	4288      	cmp	r0, r1
 8000a46:	f000 809e 	beq.w	8000b86 <HAL_GPIO_Init+0x1fa>
 8000a4a:	496c      	ldr	r1, [pc, #432]	; (8000bfc <HAL_GPIO_Init+0x270>)
 8000a4c:	4288      	cmp	r0, r1
 8000a4e:	f000 80a1 	beq.w	8000b94 <HAL_GPIO_Init+0x208>
 8000a52:	496b      	ldr	r1, [pc, #428]	; (8000c00 <HAL_GPIO_Init+0x274>)
 8000a54:	4288      	cmp	r0, r1
 8000a56:	f000 80a4 	beq.w	8000ba2 <HAL_GPIO_Init+0x216>
 8000a5a:	496a      	ldr	r1, [pc, #424]	; (8000c04 <HAL_GPIO_Init+0x278>)
 8000a5c:	4288      	cmp	r0, r1
 8000a5e:	f000 80a7 	beq.w	8000bb0 <HAL_GPIO_Init+0x224>
 8000a62:	4969      	ldr	r1, [pc, #420]	; (8000c08 <HAL_GPIO_Init+0x27c>)
 8000a64:	4288      	cmp	r0, r1
 8000a66:	f000 80b1 	beq.w	8000bcc <HAL_GPIO_Init+0x240>
 8000a6a:	4968      	ldr	r1, [pc, #416]	; (8000c0c <HAL_GPIO_Init+0x280>)
 8000a6c:	4288      	cmp	r0, r1
 8000a6e:	f000 80b4 	beq.w	8000bda <HAL_GPIO_Init+0x24e>
 8000a72:	f8df 91a0 	ldr.w	r9, [pc, #416]	; 8000c14 <HAL_GPIO_Init+0x288>
 8000a76:	4548      	cmp	r0, r9
 8000a78:	f000 80a1 	beq.w	8000bbe <HAL_GPIO_Init+0x232>
 8000a7c:	f8df 9198 	ldr.w	r9, [pc, #408]	; 8000c18 <HAL_GPIO_Init+0x28c>
 8000a80:	4548      	cmp	r0, r9
 8000a82:	f000 80b1 	beq.w	8000be8 <HAL_GPIO_Init+0x25c>
 8000a86:	f8df 9194 	ldr.w	r9, [pc, #404]	; 8000c1c <HAL_GPIO_Init+0x290>
 8000a8a:	4548      	cmp	r0, r9
 8000a8c:	bf0c      	ite	eq
 8000a8e:	f04f 0909 	moveq.w	r9, #9
 8000a92:	f04f 090a 	movne.w	r9, #10
 8000a96:	fa09 f808 	lsl.w	r8, r9, r8
 8000a9a:	ea42 0208 	orr.w	r2, r2, r8
 8000a9e:	60a2      	str	r2, [r4, #8]
 8000aa0:	f8de 2000 	ldr.w	r2, [lr]
 8000aa4:	ea6f 080c 	mvn.w	r8, ip
 8000aa8:	03ec      	lsls	r4, r5, #15
 8000aaa:	bf54      	ite	pl
 8000aac:	ea08 0202 	andpl.w	r2, r8, r2
 8000ab0:	ea4c 0202 	orrmi.w	r2, ip, r2
 8000ab4:	f8ce 2000 	str.w	r2, [lr]
 8000ab8:	f8de 4004 	ldr.w	r4, [lr, #4]
 8000abc:	03a9      	lsls	r1, r5, #14
 8000abe:	bf54      	ite	pl
 8000ac0:	ea08 0404 	andpl.w	r4, r8, r4
 8000ac4:	ea4c 0404 	orrmi.w	r4, ip, r4
 8000ac8:	f8ce 4004 	str.w	r4, [lr, #4]
 8000acc:	f8de 4008 	ldr.w	r4, [lr, #8]
 8000ad0:	02ea      	lsls	r2, r5, #11
 8000ad2:	bf54      	ite	pl
 8000ad4:	ea08 0404 	andpl.w	r4, r8, r4
 8000ad8:	ea4c 0404 	orrmi.w	r4, ip, r4
 8000adc:	f8ce 4008 	str.w	r4, [lr, #8]
 8000ae0:	f8de 200c 	ldr.w	r2, [lr, #12]
 8000ae4:	02a9      	lsls	r1, r5, #10
 8000ae6:	f103 0301 	add.w	r3, r3, #1
 8000aea:	bf54      	ite	pl
 8000aec:	ea08 0202 	andpl.w	r2, r8, r2
 8000af0:	ea4c 0202 	orrmi.w	r2, ip, r2
 8000af4:	2b10      	cmp	r3, #16
 8000af6:	f8ce 200c 	str.w	r2, [lr, #12]
 8000afa:	f47f af54 	bne.w	80009a6 <HAL_GPIO_Init+0x1a>
 8000afe:	b002      	add	sp, #8
 8000b00:	e8bd 8f70 	ldmia.w	sp!, {r4, r5, r6, r8, r9, sl, fp, pc}
 8000b04:	ea4f 09d3 	mov.w	r9, r3, lsr #3
 8000b08:	eb00 0989 	add.w	r9, r0, r9, lsl #2
 8000b0c:	f003 0807 	and.w	r8, r3, #7
 8000b10:	f8d9 4020 	ldr.w	r4, [r9, #32]
 8000b14:	6909      	ldr	r1, [r1, #16]
 8000b16:	ea4f 0888 	mov.w	r8, r8, lsl #2
 8000b1a:	f04f 0b0f 	mov.w	fp, #15
 8000b1e:	fa0b fb08 	lsl.w	fp, fp, r8
 8000b22:	ea24 0a0b 	bic.w	sl, r4, fp
 8000b26:	fa01 f408 	lsl.w	r4, r1, r8
 8000b2a:	ea44 040a 	orr.w	r4, r4, sl
 8000b2e:	f8c9 4020 	str.w	r4, [r9, #32]
 8000b32:	f8d0 a000 	ldr.w	sl, [r0]
 8000b36:	ea4f 0843 	mov.w	r8, r3, lsl #1
 8000b3a:	2403      	movs	r4, #3
 8000b3c:	fa04 f408 	lsl.w	r4, r4, r8
 8000b40:	f005 0903 	and.w	r9, r5, #3
 8000b44:	ea2a 0a04 	bic.w	sl, sl, r4
 8000b48:	fa09 f908 	lsl.w	r9, r9, r8
 8000b4c:	ea49 090a 	orr.w	r9, r9, sl
 8000b50:	43e4      	mvns	r4, r4
 8000b52:	f8c0 9000 	str.w	r9, [r0]
 8000b56:	9901      	ldr	r1, [sp, #4]
 8000b58:	f8d0 a008 	ldr.w	sl, [r0, #8]
 8000b5c:	68c9      	ldr	r1, [r1, #12]
 8000b5e:	ea0a 0a04 	and.w	sl, sl, r4
 8000b62:	fa01 f908 	lsl.w	r9, r1, r8
 8000b66:	ea49 090a 	orr.w	r9, r9, sl
 8000b6a:	f8c0 9008 	str.w	r9, [r0, #8]
 8000b6e:	f8d0 a004 	ldr.w	sl, [r0, #4]
 8000b72:	f3c5 1900 	ubfx	r9, r5, #4, #1
 8000b76:	ea2a 0a02 	bic.w	sl, sl, r2
 8000b7a:	464a      	mov	r2, r9
 8000b7c:	409a      	lsls	r2, r3
 8000b7e:	ea42 020a 	orr.w	r2, r2, sl
 8000b82:	6042      	str	r2, [r0, #4]
 8000b84:	e737      	b.n	80009f6 <HAL_GPIO_Init+0x6a>
 8000b86:	f04f 0901 	mov.w	r9, #1
 8000b8a:	fa09 f808 	lsl.w	r8, r9, r8
 8000b8e:	ea42 0208 	orr.w	r2, r2, r8
 8000b92:	e784      	b.n	8000a9e <HAL_GPIO_Init+0x112>
 8000b94:	f04f 0902 	mov.w	r9, #2
 8000b98:	fa09 f808 	lsl.w	r8, r9, r8
 8000b9c:	ea42 0208 	orr.w	r2, r2, r8
 8000ba0:	e77d      	b.n	8000a9e <HAL_GPIO_Init+0x112>
 8000ba2:	f04f 0903 	mov.w	r9, #3
 8000ba6:	fa09 f808 	lsl.w	r8, r9, r8
 8000baa:	ea42 0208 	orr.w	r2, r2, r8
 8000bae:	e776      	b.n	8000a9e <HAL_GPIO_Init+0x112>
 8000bb0:	f04f 0904 	mov.w	r9, #4
 8000bb4:	fa09 f808 	lsl.w	r8, r9, r8
 8000bb8:	ea42 0208 	orr.w	r2, r2, r8
 8000bbc:	e76f      	b.n	8000a9e <HAL_GPIO_Init+0x112>
 8000bbe:	f04f 0907 	mov.w	r9, #7
 8000bc2:	fa09 f808 	lsl.w	r8, r9, r8
 8000bc6:	ea42 0208 	orr.w	r2, r2, r8
 8000bca:	e768      	b.n	8000a9e <HAL_GPIO_Init+0x112>
 8000bcc:	f04f 0905 	mov.w	r9, #5
 8000bd0:	fa09 f808 	lsl.w	r8, r9, r8
 8000bd4:	ea42 0208 	orr.w	r2, r2, r8
 8000bd8:	e761      	b.n	8000a9e <HAL_GPIO_Init+0x112>
 8000bda:	f04f 0906 	mov.w	r9, #6
 8000bde:	fa09 f808 	lsl.w	r8, r9, r8
 8000be2:	ea42 0208 	orr.w	r2, r2, r8
 8000be6:	e75a      	b.n	8000a9e <HAL_GPIO_Init+0x112>
 8000be8:	f04f 0908 	mov.w	r9, #8
 8000bec:	fa09 f808 	lsl.w	r8, r9, r8
 8000bf0:	ea42 0208 	orr.w	r2, r2, r8
 8000bf4:	e753      	b.n	8000a9e <HAL_GPIO_Init+0x112>
 8000bf6:	bf00      	nop
 8000bf8:	40023800 	.word	0x40023800
 8000bfc:	40020800 	.word	0x40020800
 8000c00:	40020c00 	.word	0x40020c00
 8000c04:	40021000 	.word	0x40021000
 8000c08:	40021400 	.word	0x40021400
 8000c0c:	40021800 	.word	0x40021800
 8000c10:	40013c00 	.word	0x40013c00
 8000c14:	40021c00 	.word	0x40021c00
 8000c18:	40022000 	.word	0x40022000
 8000c1c:	40022400 	.word	0x40022400

08000c20 <HAL_GPIO_Init.constprop.1>:
HAL_GPIO_Init.constprop.1():
 8000c20:	f8d1 c000 	ldr.w	ip, [r1]
 8000c24:	e92d 4f70 	stmdb	sp!, {r4, r5, r6, r8, r9, sl, fp, lr}
 8000c28:	2300      	movs	r3, #0
 8000c2a:	2601      	movs	r6, #1
 8000c2c:	f04f 0803 	mov.w	r8, #3
 8000c30:	f04f 0e02 	mov.w	lr, #2
 8000c34:	fa06 f203 	lsl.w	r2, r6, r3
 8000c38:	ea32 040c 	bics.w	r4, r2, ip
 8000c3c:	d124      	bne.n	8000c88 <HAL_GPIO_Init.constprop.1+0x68>
 8000c3e:	f8d0 b000 	ldr.w	fp, [r0]
 8000c42:	688c      	ldr	r4, [r1, #8]
 8000c44:	005d      	lsls	r5, r3, #1
 8000c46:	fa08 fa05 	lsl.w	sl, r8, r5
 8000c4a:	ea2b 0b0a 	bic.w	fp, fp, sl
 8000c4e:	fa06 f905 	lsl.w	r9, r6, r5
 8000c52:	ea49 090b 	orr.w	r9, r9, fp
 8000c56:	f8c0 9000 	str.w	r9, [r0]
 8000c5a:	f8d0 b008 	ldr.w	fp, [r0, #8]
 8000c5e:	fa0e f905 	lsl.w	r9, lr, r5
 8000c62:	ea2b 0b0a 	bic.w	fp, fp, sl
 8000c66:	ea49 090b 	orr.w	r9, r9, fp
 8000c6a:	f8c0 9008 	str.w	r9, [r0, #8]
 8000c6e:	f8d0 9004 	ldr.w	r9, [r0, #4]
 8000c72:	ea29 0202 	bic.w	r2, r9, r2
 8000c76:	6042      	str	r2, [r0, #4]
 8000c78:	f8d0 900c 	ldr.w	r9, [r0, #12]
 8000c7c:	fa04 f205 	lsl.w	r2, r4, r5
 8000c80:	ea29 040a 	bic.w	r4, r9, sl
 8000c84:	4322      	orrs	r2, r4
 8000c86:	60c2      	str	r2, [r0, #12]
 8000c88:	3301      	adds	r3, #1
 8000c8a:	2b10      	cmp	r3, #16
 8000c8c:	d1d2      	bne.n	8000c34 <HAL_GPIO_Init.constprop.1+0x14>
 8000c8e:	e8bd 8f70 	ldmia.w	sp!, {r4, r5, r6, r8, r9, sl, fp, pc}
 8000c92:	bf00      	nop

08000c94 <HAL_NVIC_SetPriority.constprop.2>:
HAL_NVIC_SetPriority.constprop.2():
 8000c94:	4b15      	ldr	r3, [pc, #84]	; (8000cec <HAL_NVIC_SetPriority.constprop.2+0x58>)
 8000c96:	68da      	ldr	r2, [r3, #12]
 8000c98:	f3c2 2202 	ubfx	r2, r2, #8, #3
 8000c9c:	b410      	push	{r4}
 8000c9e:	f1c2 0407 	rsb	r4, r2, #7
 8000ca2:	1d13      	adds	r3, r2, #4
 8000ca4:	2c04      	cmp	r4, #4
 8000ca6:	bf28      	it	cs
 8000ca8:	2404      	movcs	r4, #4
 8000caa:	2b06      	cmp	r3, #6
 8000cac:	f04f 0301 	mov.w	r3, #1
 8000cb0:	fa03 f304 	lsl.w	r3, r3, r4
 8000cb4:	f103 33ff 	add.w	r3, r3, #4294967295	; 0xffffffff
 8000cb8:	bf8c      	ite	hi
 8000cba:	3a03      	subhi	r2, #3
 8000cbc:	2200      	movls	r2, #0
 8000cbe:	4019      	ands	r1, r3
 8000cc0:	1c43      	adds	r3, r0, #1
 8000cc2:	fa01 f102 	lsl.w	r1, r1, r2
 8000cc6:	d00a      	beq.n	8000cde <HAL_NVIC_SetPriority.constprop.2+0x4a>
 8000cc8:	f100 4060 	add.w	r0, r0, #3758096384	; 0xe0000000
 8000ccc:	f500 4061 	add.w	r0, r0, #57600	; 0xe100
 8000cd0:	0109      	lsls	r1, r1, #4
 8000cd2:	b2c9      	uxtb	r1, r1
 8000cd4:	f880 1300 	strb.w	r1, [r0, #768]	; 0x300
 8000cd8:	f85d 4b04 	ldr.w	r4, [sp], #4
 8000cdc:	4770      	bx	lr
 8000cde:	4b03      	ldr	r3, [pc, #12]	; (8000cec <HAL_NVIC_SetPriority.constprop.2+0x58>)
 8000ce0:	0109      	lsls	r1, r1, #4
 8000ce2:	b2c9      	uxtb	r1, r1
 8000ce4:	f883 1023 	strb.w	r1, [r3, #35]	; 0x23
 8000ce8:	e7f6      	b.n	8000cd8 <HAL_NVIC_SetPriority.constprop.2+0x44>
 8000cea:	bf00      	nop
 8000cec:	e000ed00 	.word	0xe000ed00

08000cf0 <USBH_LL_OpenPipe>:
USBH_LL_OpenPipe():
 8000cf0:	e92d 4f70 	stmdb	sp!, {r4, r5, r6, r8, r9, sl, fp, lr}
 8000cf4:	f8d0 5610 	ldr.w	r5, [r0, #1552]	; 0x610
 8000cf8:	f89d 6020 	ldrb.w	r6, [sp, #32]
 8000cfc:	f895 4288 	ldrb.w	r4, [r5, #648]	; 0x288
 8000d00:	f89d e024 	ldrb.w	lr, [sp, #36]	; 0x24
 8000d04:	f8bd 0028 	ldrh.w	r0, [sp, #40]	; 0x28
 8000d08:	2c01      	cmp	r4, #1
 8000d0a:	d05e      	beq.n	8000dca <USBH_LL_OpenPipe+0xda>
 8000d0c:	eb01 0481 	add.w	r4, r1, r1, lsl #2
 8000d10:	eb05 04c4 	add.w	r4, r5, r4, lsl #3
 8000d14:	f002 0c7f 	and.w	ip, r2, #127	; 0x7f
 8000d18:	ea4f 19d2 	mov.w	r9, r2, lsr #7
 8000d1c:	f884 3030 	strb.w	r3, [r4, #48]	; 0x30
 8000d20:	f884 1031 	strb.w	r1, [r4, #49]	; 0x31
 8000d24:	f884 e037 	strb.w	lr, [r4, #55]	; 0x37
 8000d28:	f884 6034 	strb.w	r6, [r4, #52]	; 0x34
 8000d2c:	f884 c032 	strb.w	ip, [r4, #50]	; 0x32
 8000d30:	f884 9033 	strb.w	r9, [r4, #51]	; 0x33
 8000d34:	f8d5 c000 	ldr.w	ip, [r5]
 8000d38:	8720      	strh	r0, [r4, #56]	; 0x38
 8000d3a:	f44f 64a0 	mov.w	r4, #1280	; 0x500
 8000d3e:	eb04 1441 	add.w	r4, r4, r1, lsl #5
 8000d42:	eb04 0a0c 	add.w	sl, r4, ip
 8000d46:	f240 489d 	movw	r8, #1181	; 0x49d
 8000d4a:	f04f 3bff 	mov.w	fp, #4294967295	; 0xffffffff
 8000d4e:	f8ca b008 	str.w	fp, [sl, #8]
 8000d52:	f8ca 800c 	str.w	r8, [sl, #12]
 8000d56:	fa4f f882 	sxtb.w	r8, r2
 8000d5a:	f1b9 0f00 	cmp.w	r9, #0
 8000d5e:	d137      	bne.n	8000dd0 <USBH_LL_OpenPipe+0xe0>
 8000d60:	f1bc 4fa0 	cmp.w	ip, #1342177280	; 0x50000000
 8000d64:	d005      	beq.n	8000d72 <USBH_LL_OpenPipe+0x82>
 8000d66:	f8da 900c 	ldr.w	r9, [sl, #12]
 8000d6a:	f049 0960 	orr.w	r9, r9, #96	; 0x60
 8000d6e:	f8ca 900c 	str.w	r9, [sl, #12]
 8000d72:	f3c0 000a 	ubfx	r0, r0, #0, #11
 8000d76:	f8dc a418 	ldr.w	sl, [ip, #1048]	; 0x418
 8000d7a:	ea40 408e 	orr.w	r0, r0, lr, lsl #18
 8000d7e:	f04f 0e01 	mov.w	lr, #1
 8000d82:	059b      	lsls	r3, r3, #22
 8000d84:	fa0e f101 	lsl.w	r1, lr, r1
 8000d88:	f003 53fe 	and.w	r3, r3, #532676608	; 0x1fc00000
 8000d8c:	ea41 010a 	orr.w	r1, r1, sl
 8000d90:	f8cc 1418 	str.w	r1, [ip, #1048]	; 0x418
 8000d94:	4318      	orrs	r0, r3
 8000d96:	02d2      	lsls	r2, r2, #11
 8000d98:	f408 4300 	and.w	r3, r8, #32768	; 0x8000
 8000d9c:	f8dc 1018 	ldr.w	r1, [ip, #24]
 8000da0:	f402 42f0 	and.w	r2, r2, #30720	; 0x7800
 8000da4:	2e02      	cmp	r6, #2
 8000da6:	ea43 0300 	orr.w	r3, r3, r0
 8000daa:	ea43 0302 	orr.w	r3, r3, r2
 8000dae:	bf0c      	ite	eq
 8000db0:	f44f 3200 	moveq.w	r2, #131072	; 0x20000
 8000db4:	2200      	movne	r2, #0
 8000db6:	4313      	orrs	r3, r2
 8000db8:	f041 7200 	orr.w	r2, r1, #33554432	; 0x2000000
 8000dbc:	2100      	movs	r1, #0
 8000dbe:	f8cc 2018 	str.w	r2, [ip, #24]
 8000dc2:	f844 300c 	str.w	r3, [r4, ip]
 8000dc6:	f885 1288 	strb.w	r1, [r5, #648]	; 0x288
 8000dca:	2000      	movs	r0, #0
 8000dcc:	e8bd 8f70 	ldmia.w	sp!, {r4, r5, r6, r8, r9, sl, fp, pc}
 8000dd0:	f8da 900c 	ldr.w	r9, [sl, #12]
 8000dd4:	f449 7980 	orr.w	r9, r9, #256	; 0x100
 8000dd8:	f8ca 900c 	str.w	r9, [sl, #12]
 8000ddc:	e7c9      	b.n	8000d72 <USBH_LL_OpenPipe+0x82>
 8000dde:	bf00      	nop

08000de0 <USB_EnableGlobalInt>:
USB_EnableGlobalInt():
 8000de0:	4603      	mov	r3, r0
 8000de2:	2000      	movs	r0, #0
 8000de4:	689a      	ldr	r2, [r3, #8]
 8000de6:	f042 0201 	orr.w	r2, r2, #1
 8000dea:	609a      	str	r2, [r3, #8]
 8000dec:	4770      	bx	lr
 8000dee:	bf00      	nop

08000df0 <SVF_calcSample>:
SVF_calcSample():
 8000df0:	ed90 5a06 	vldr	s10, [r0, #24]
 8000df4:	edd0 6a01 	vldr	s13, [r0, #4]
 8000df8:	eddf 7a90 	vldr	s15, [pc, #576]	; 800103c <SVF_calcSample+0x24c>
 8000dfc:	ed9f 1a90 	vldr	s2, [pc, #576]	; 8001040 <SVF_calcSample+0x250>
 8000e00:	ed9f 4a90 	vldr	s8, [pc, #576]	; 8001044 <SVF_calcSample+0x254>
 8000e04:	eddf 1a90 	vldr	s3, [pc, #576]	; 8001048 <SVF_calcSample+0x258>
 8000e08:	ed90 3a04 	vldr	s6, [r0, #16]
 8000e0c:	edd0 3a05 	vldr	s7, [r0, #20]
 8000e10:	ed90 7a02 	vldr	s14, [r0, #8]
 8000e14:	7803      	ldrb	r3, [r0, #0]
 8000e16:	ee20 5a05 	vmul.f32	s10, s0, s10
 8000e1a:	eef6 0a00 	vmov.f32	s1, #96	; 0x3f000000  0.5
 8000e1e:	ee25 6a20 	vmul.f32	s12, s10, s1
 8000e22:	eef4 6ae7 	vcmpe.f32	s13, s15
 8000e26:	ee66 5a06 	vmul.f32	s11, s12, s12
 8000e2a:	eef2 6a0e 	vmov.f32	s13, #46	; 0x41700000  15.0
 8000e2e:	ee25 6aa6 	vmul.f32	s12, s11, s13
 8000e32:	ee35 2a84 	vadd.f32	s4, s11, s8
 8000e36:	ee36 6a01 	vadd.f32	s12, s12, s2
 8000e3a:	ee22 2a25 	vmul.f32	s4, s4, s11
 8000e3e:	ee26 6a25 	vmul.f32	s12, s12, s11
 8000e42:	ee72 5a21 	vadd.f32	s11, s4, s3
 8000e46:	ee36 6a21 	vadd.f32	s12, s12, s3
 8000e4a:	ed2d 8b02 	vpush	{d8}
 8000e4e:	eec5 8a86 	vdiv.f32	s17, s11, s12
 8000e52:	3b01      	subs	r3, #1
 8000e54:	eef1 fa10 	vmrs	APSR_nzcv, fpscr
 8000e58:	ee28 5a85 	vmul.f32	s10, s17, s10
 8000e5c:	bfb8      	it	lt
 8000e5e:	edd0 2a03 	vldrlt	s5, [r0, #12]
 8000e62:	edd0 7a07 	vldr	s15, [r0, #28]
 8000e66:	ed80 5a07 	vstr	s10, [r0, #28]
 8000e6a:	bfb8      	it	lt
 8000e6c:	ee72 4aa2 	vaddlt.f32	s9, s5, s5
 8000e70:	ee75 7a27 	vadd.f32	s15, s10, s15
 8000e74:	bfa8      	it	ge
 8000e76:	eef0 4a00 	vmovge.f32	s9, #0	; 0x40000000  2.0
 8000e7a:	ee23 8a24 	vmul.f32	s16, s6, s9
 8000e7e:	ee67 7aa0 	vmul.f32	s15, s15, s1
 8000e82:	ee23 2a20 	vmul.f32	s4, s6, s1
 8000e86:	ee77 7ac8 	vsub.f32	s15, s15, s16
 8000e8a:	ee22 2a02 	vmul.f32	s4, s4, s4
 8000e8e:	ee77 7ae3 	vsub.f32	s15, s15, s7
 8000e92:	ee22 6a26 	vmul.f32	s12, s4, s13
 8000e96:	ee67 7aa0 	vmul.f32	s15, s15, s1
 8000e9a:	ee72 0a04 	vadd.f32	s1, s4, s8
 8000e9e:	ee67 7aa7 	vmul.f32	s15, s15, s15
 8000ea2:	ee36 6a01 	vadd.f32	s12, s12, s2
 8000ea6:	ee67 6aa6 	vmul.f32	s13, s15, s13
 8000eaa:	ee37 4a84 	vadd.f32	s8, s15, s8
 8000eae:	ee76 6a81 	vadd.f32	s13, s13, s2
 8000eb2:	ee24 4a27 	vmul.f32	s8, s8, s15
 8000eb6:	ee66 7aa7 	vmul.f32	s15, s13, s15
 8000eba:	ee34 4a21 	vadd.f32	s8, s8, s3
 8000ebe:	ee77 7aa1 	vadd.f32	s15, s15, s3
 8000ec2:	bfa8      	it	ge
 8000ec4:	eef7 2a00 	vmovge.f32	s5, #112	; 0x3f800000  1.0
 8000ec8:	ee84 1a27 	vdiv.f32	s2, s8, s15
 8000ecc:	ee26 6a02 	vmul.f32	s12, s12, s4
 8000ed0:	ee27 4a01 	vmul.f32	s8, s14, s2
 8000ed4:	ee20 2a82 	vmul.f32	s4, s1, s4
 8000ed8:	ee34 4a04 	vadd.f32	s8, s8, s8
 8000edc:	eef7 5a00 	vmov.f32	s11, #112	; 0x3f800000  1.0
 8000ee0:	ee24 4a22 	vmul.f32	s8, s8, s5
 8000ee4:	ee36 6a21 	vadd.f32	s12, s12, s3
 8000ee8:	ee34 4a25 	vadd.f32	s8, s8, s11
 8000eec:	ee72 1a21 	vadd.f32	s3, s4, s3
 8000ef0:	ee71 7a01 	vadd.f32	s15, s2, s2
 8000ef4:	eec1 6a86 	vdiv.f32	s13, s3, s12
 8000ef8:	eec5 1a84 	vdiv.f32	s3, s11, s8
 8000efc:	ee27 6a07 	vmul.f32	s12, s14, s14
 8000f00:	ee27 4a21 	vmul.f32	s8, s14, s3
 8000f04:	ee26 6a21 	vmul.f32	s12, s12, s3
 8000f08:	ee67 2aa2 	vmul.f32	s5, s15, s5
 8000f0c:	ee26 6a01 	vmul.f32	s12, s12, s2
 8000f10:	ee24 4a26 	vmul.f32	s8, s8, s13
 8000f14:	ee26 6a26 	vmul.f32	s12, s12, s13
 8000f18:	ee24 4a03 	vmul.f32	s8, s8, s6
 8000f1c:	ee66 7a05 	vmul.f32	s15, s12, s10
 8000f20:	ee76 5a25 	vadd.f32	s11, s12, s11
 8000f24:	ee37 6aa3 	vadd.f32	s12, s15, s7
 8000f28:	ee23 2a26 	vmul.f32	s4, s6, s13
 8000f2c:	ee34 4a06 	vadd.f32	s8, s8, s12
 8000f30:	ee77 0a07 	vadd.f32	s1, s14, s14
 8000f34:	ee84 3a25 	vdiv.f32	s6, s8, s11
 8000f38:	ee20 6aa6 	vmul.f32	s12, s1, s13
 8000f3c:	ee75 6a43 	vsub.f32	s13, s10, s6
 8000f40:	ee66 7a81 	vmul.f32	s15, s13, s2
 8000f44:	ee27 7a27 	vmul.f32	s14, s14, s15
 8000f48:	ee37 7a02 	vadd.f32	s14, s14, s4
 8000f4c:	ee27 7a21 	vmul.f32	s14, s14, s3
 8000f50:	ee62 2a87 	vmul.f32	s5, s5, s14
 8000f54:	ee66 6a07 	vmul.f32	s13, s12, s14
 8000f58:	ee77 7ae2 	vsub.f32	s15, s15, s5
 8000f5c:	ee76 6aa3 	vadd.f32	s13, s13, s7
 8000f60:	ee67 7aa0 	vmul.f32	s15, s15, s1
 8000f64:	edc0 6a05 	vstr	s13, [r0, #20]
 8000f68:	ee77 7a82 	vadd.f32	s15, s15, s4
 8000f6c:	edc0 7a04 	vstr	s15, [r0, #16]
 8000f70:	2b04      	cmp	r3, #4
 8000f72:	d81e      	bhi.n	8000fb2 <SVF_calcSample+0x1c2>
 8000f74:	e8df f003 	tbb	[pc, r3]
 8000f78:	524d4203 	.word	0x524d4203
 8000f7c:	35          	.byte	0x35
 8000f7d:	00          	.byte	0x00
 8000f7e:	eddf 7a33 	vldr	s15, [pc, #204]	; 800104c <SVF_calcSample+0x25c>
 8000f82:	eeb4 3ae7 	vcmpe.f32	s6, s15
 8000f86:	eef1 fa10 	vmrs	APSR_nzcv, fpscr
 8000f8a:	d450      	bmi.n	800102e <SVF_calcSample+0x23e>
 8000f8c:	eddf 7a30 	vldr	s15, [pc, #192]	; 8001050 <SVF_calcSample+0x260>
 8000f90:	eeb4 3ae7 	vcmpe.f32	s6, s15
 8000f94:	eef1 fa10 	vmrs	APSR_nzcv, fpscr
 8000f98:	dc4c      	bgt.n	8001034 <SVF_calcSample+0x244>
 8000f9a:	ed9f 7a2e 	vldr	s14, [pc, #184]	; 8001054 <SVF_calcSample+0x264>
 8000f9e:	eddf 6a2e 	vldr	s13, [pc, #184]	; 8001058 <SVF_calcSample+0x268>
 8000fa2:	ee63 7a03 	vmul.f32	s15, s6, s6
 8000fa6:	ee23 7a07 	vmul.f32	s14, s6, s14
 8000faa:	ee77 7aa6 	vadd.f32	s15, s15, s13
 8000fae:	ee87 0a27 	vdiv.f32	s0, s14, s15
 8000fb2:	eeb7 7a00 	vmov.f32	s14, #112	; 0x3f800000  1.0
 8000fb6:	eeb4 0ac7 	vcmpe.f32	s0, s14
 8000fba:	eef1 fa10 	vmrs	APSR_nzcv, fpscr
 8000fbe:	dd04      	ble.n	8000fca <SVF_calcSample+0x1da>
 8000fc0:	eeb0 0a47 	vmov.f32	s0, s14
 8000fc4:	ecbd 8b02 	vpop	{d8}
 8000fc8:	4770      	bx	lr
 8000fca:	eebf 7a00 	vmov.f32	s14, #240	; 0xbf800000 -1.0
 8000fce:	eeb4 0ac7 	vcmpe.f32	s0, s14
 8000fd2:	eef1 fa10 	vmrs	APSR_nzcv, fpscr
 8000fd6:	bf48      	it	mi
 8000fd8:	eeb0 0a47 	vmovmi.f32	s0, s14
 8000fdc:	ecbd 8b02 	vpop	{d8}
 8000fe0:	4770      	bx	lr
 8000fe2:	ee27 7a24 	vmul.f32	s14, s14, s9
 8000fe6:	ed9f 0a1d 	vldr	s0, [pc, #116]	; 800105c <SVF_calcSample+0x26c>
 8000fea:	ee35 7a47 	vsub.f32	s14, s10, s14
 8000fee:	ee37 5a43 	vsub.f32	s10, s14, s6
 8000ff2:	ee33 7a45 	vsub.f32	s14, s6, s10
 8000ff6:	ee27 0a00 	vmul.f32	s0, s14, s0
 8000ffa:	e7da      	b.n	8000fb2 <SVF_calcSample+0x1c2>
 8000ffc:	ee27 7a24 	vmul.f32	s14, s14, s9
 8001000:	ed9f 0a16 	vldr	s0, [pc, #88]	; 800105c <SVF_calcSample+0x26c>
 8001004:	ee35 7a47 	vsub.f32	s14, s10, s14
 8001008:	ee37 7a43 	vsub.f32	s14, s14, s6
 800100c:	ee27 0a00 	vmul.f32	s0, s14, s0
 8001010:	e7cf      	b.n	8000fb2 <SVF_calcSample+0x1c2>
 8001012:	ed9f 0a12 	vldr	s0, [pc, #72]	; 800105c <SVF_calcSample+0x26c>
 8001016:	ee27 0a00 	vmul.f32	s0, s14, s0
 800101a:	e7ca      	b.n	8000fb2 <SVF_calcSample+0x1c2>
 800101c:	ee27 7a24 	vmul.f32	s14, s14, s9
 8001020:	ed9f 0a0e 	vldr	s0, [pc, #56]	; 800105c <SVF_calcSample+0x26c>
 8001024:	ee35 7a47 	vsub.f32	s14, s10, s14
 8001028:	ee27 0a00 	vmul.f32	s0, s14, s0
 800102c:	e7c1      	b.n	8000fb2 <SVF_calcSample+0x1c2>
 800102e:	eebf 0a00 	vmov.f32	s0, #240	; 0xbf800000 -1.0
 8001032:	e7c7      	b.n	8000fc4 <SVF_calcSample+0x1d4>
 8001034:	eeb7 0a00 	vmov.f32	s0, #112	; 0x3f800000  1.0
 8001038:	e7c4      	b.n	8000fc4 <SVF_calcSample+0x1d4>
 800103a:	bf00      	nop
 800103c:	3ee6594b 	.word	0x3ee6594b
 8001040:	43d20000 	.word	0x43d20000
 8001044:	42d20000 	.word	0x42d20000
 8001048:	446c4000 	.word	0x446c4000
 800104c:	bff9999a 	.word	0xbff9999a
 8001050:	3ff9999a 	.word	0x3ff9999a
 8001054:	4084cccd 	.word	0x4084cccd
 8001058:	408947ae 	.word	0x408947ae
 800105c:	3f6147ae 	.word	0x3f6147ae

08001060 <MorphingSaw_SampleCompute>:
MorphingSaw_SampleCompute():
 8001060:	edd0 7a03 	vldr	s15, [r0, #12]
 8001064:	eef5 7ac0 	vcmpe.f32	s15, #0.0
 8001068:	eef1 fa10 	vmrs	APSR_nzcv, fpscr
 800106c:	d50a      	bpl.n	8001084 <MorphingSaw_SampleCompute+0x24>
 800106e:	ed9f 7a35 	vldr	s14, [pc, #212]	; 8001144 <MorphingSaw_SampleCompute+0xe4>
 8001072:	ee77 7a87 	vadd.f32	s15, s15, s14
 8001076:	eef5 7ac0 	vcmpe.f32	s15, #0.0
 800107a:	eef1 fa10 	vmrs	APSR_nzcv, fpscr
 800107e:	d4f8      	bmi.n	8001072 <MorphingSaw_SampleCompute+0x12>
 8001080:	edc0 7a03 	vstr	s15, [r0, #12]
 8001084:	ed9f 7a2f 	vldr	s14, [pc, #188]	; 8001144 <MorphingSaw_SampleCompute+0xe4>
 8001088:	eef4 7ac7 	vcmpe.f32	s15, s14
 800108c:	eef1 fa10 	vmrs	APSR_nzcv, fpscr
 8001090:	db08      	blt.n	80010a4 <MorphingSaw_SampleCompute+0x44>
 8001092:	ee77 7ac7 	vsub.f32	s15, s15, s14
 8001096:	eef4 7ac7 	vcmpe.f32	s15, s14
 800109a:	eef1 fa10 	vmrs	APSR_nzcv, fpscr
 800109e:	daf8      	bge.n	8001092 <MorphingSaw_SampleCompute+0x32>
 80010a0:	edc0 7a03 	vstr	s15, [r0, #12]
 80010a4:	ed90 7a02 	vldr	s14, [r0, #8]
 80010a8:	eddf 6a27 	vldr	s13, [pc, #156]	; 8001148 <MorphingSaw_SampleCompute+0xe8>
 80010ac:	eeb4 7ae6 	vcmpe.f32	s14, s13
 80010b0:	eef1 fa10 	vmrs	APSR_nzcv, fpscr
 80010b4:	d52c      	bpl.n	8001110 <MorphingSaw_SampleCompute+0xb0>
 80010b6:	eddf 6a25 	vldr	s13, [pc, #148]	; 800114c <MorphingSaw_SampleCompute+0xec>
 80010ba:	ed9f 6a25 	vldr	s12, [pc, #148]	; 8001150 <MorphingSaw_SampleCompute+0xf0>
 80010be:	ee67 6a26 	vmul.f32	s13, s14, s13
 80010c2:	eef4 6ac6 	vcmpe.f32	s13, s12
 80010c6:	eef1 fa10 	vmrs	APSR_nzcv, fpscr
 80010ca:	d823      	bhi.n	8001114 <MorphingSaw_SampleCompute+0xb4>
 80010cc:	eef0 6a46 	vmov.f32	s13, s12
 80010d0:	eef4 7ae6 	vcmpe.f32	s15, s13
 80010d4:	eef1 fa10 	vmrs	APSR_nzcv, fpscr
 80010d8:	ed80 6a04 	vstr	s12, [r0, #16]
 80010dc:	d521      	bpl.n	8001122 <MorphingSaw_SampleCompute+0xc2>
 80010de:	eeb8 6a00 	vmov.f32	s12, #128	; 0xc0000000 -2.0
 80010e2:	ee86 0a26 	vdiv.f32	s0, s12, s13
 80010e6:	eeb7 6a00 	vmov.f32	s12, #112	; 0x3f800000  1.0
 80010ea:	ee20 0a27 	vmul.f32	s0, s0, s15
 80010ee:	edd0 6a00 	vldr	s13, [r0]
 80010f2:	ee30 0a06 	vadd.f32	s0, s0, s12
 80010f6:	ee20 0a26 	vmul.f32	s0, s0, s13
 80010fa:	eddf 6a16 	vldr	s13, [pc, #88]	; 8001154 <MorphingSaw_SampleCompute+0xf4>
 80010fe:	ed80 0a07 	vstr	s0, [r0, #28]
 8001102:	ee27 7a26 	vmul.f32	s14, s14, s13
 8001106:	ee77 7a27 	vadd.f32	s15, s14, s15
 800110a:	edc0 7a03 	vstr	s15, [r0, #12]
 800110e:	4770      	bx	lr
 8001110:	eddf 6a11 	vldr	s13, [pc, #68]	; 8001158 <MorphingSaw_SampleCompute+0xf8>
 8001114:	edc0 6a04 	vstr	s13, [r0, #16]
 8001118:	eef4 7ae6 	vcmpe.f32	s15, s13
 800111c:	eef1 fa10 	vmrs	APSR_nzcv, fpscr
 8001120:	d4dd      	bmi.n	80010de <MorphingSaw_SampleCompute+0x7e>
 8001122:	eddf 5a08 	vldr	s11, [pc, #32]	; 8001144 <MorphingSaw_SampleCompute+0xe4>
 8001126:	ed90 5a00 	vldr	s10, [r0]
 800112a:	ee37 6aa7 	vadd.f32	s12, s15, s15
 800112e:	ee36 6a65 	vsub.f32	s12, s12, s11
 8001132:	ee75 5ae6 	vsub.f32	s11, s11, s13
 8001136:	ee76 6a66 	vsub.f32	s13, s12, s13
 800113a:	ee66 6a85 	vmul.f32	s13, s13, s10
 800113e:	ee86 0aa5 	vdiv.f32	s0, s13, s11
 8001142:	e7da      	b.n	80010fa <MorphingSaw_SampleCompute+0x9a>
 8001144:	40c90fdb 	.word	0x40c90fdb
 8001148:	45fa0000 	.word	0x45fa0000
 800114c:	39cde32e 	.word	0x39cde32e
 8001150:	38d1b717 	.word	0x38d1b717
 8001154:	39156592 	.word	0x39156592
 8001158:	40490fdb 	.word	0x40490fdb

0800115c <Error_Handler>:
Error_Handler():
 800115c:	4b02      	ldr	r3, [pc, #8]	; (8001168 <Error_Handler+0xc>)
 800115e:	f44f 4280 	mov.w	r2, #16384	; 0x4000
 8001162:	831a      	strh	r2, [r3, #24]
 8001164:	e7fe      	b.n	8001164 <Error_Handler+0x8>
 8001166:	bf00      	nop
 8001168:	40020c00 	.word	0x40020c00

0800116c <USBH_UserProcess_callback>:
USBH_UserProcess_callback():
 800116c:	2904      	cmp	r1, #4
 800116e:	d004      	beq.n	800117a <USBH_UserProcess_callback+0xe>
 8001170:	2905      	cmp	r1, #5
 8001172:	d014      	beq.n	800119e <USBH_UserProcess_callback+0x32>
 8001174:	2902      	cmp	r1, #2
 8001176:	d008      	beq.n	800118a <USBH_UserProcess_callback+0x1e>
 8001178:	4770      	bx	lr
 800117a:	4910      	ldr	r1, [pc, #64]	; (80011bc <USBH_UserProcess_callback+0x50>)
 800117c:	4b10      	ldr	r3, [pc, #64]	; (80011c0 <USBH_UserProcess_callback+0x54>)
 800117e:	2001      	movs	r0, #1
 8001180:	f44f 4200 	mov.w	r2, #32768	; 0x8000
 8001184:	7008      	strb	r0, [r1, #0]
 8001186:	831a      	strh	r2, [r3, #24]
 8001188:	4770      	bx	lr
 800118a:	4a0c      	ldr	r2, [pc, #48]	; (80011bc <USBH_UserProcess_callback+0x50>)
 800118c:	4b0c      	ldr	r3, [pc, #48]	; (80011c0 <USBH_UserProcess_callback+0x54>)
 800118e:	7011      	strb	r1, [r2, #0]
 8001190:	f44f 5180 	mov.w	r1, #4096	; 0x1000
 8001194:	f44f 4200 	mov.w	r2, #32768	; 0x8000
 8001198:	8319      	strh	r1, [r3, #24]
 800119a:	835a      	strh	r2, [r3, #26]
 800119c:	4770      	bx	lr
 800119e:	4807      	ldr	r0, [pc, #28]	; (80011bc <USBH_UserProcess_callback+0x50>)
 80011a0:	4b07      	ldr	r3, [pc, #28]	; (80011c0 <USBH_UserProcess_callback+0x54>)
 80011a2:	b410      	push	{r4}
 80011a4:	2404      	movs	r4, #4
 80011a6:	7004      	strb	r4, [r0, #0]
 80011a8:	f44f 5180 	mov.w	r1, #4096	; 0x1000
 80011ac:	f44f 4200 	mov.w	r2, #32768	; 0x8000
 80011b0:	8359      	strh	r1, [r3, #26]
 80011b2:	f85d 4b04 	ldr.w	r4, [sp], #4
 80011b6:	835a      	strh	r2, [r3, #26]
 80011b8:	4770      	bx	lr
 80011ba:	bf00      	nop
 80011bc:	200008c8 	.word	0x200008c8
 80011c0:	40020c00 	.word	0x40020c00

080011c4 <USB_DisableGlobalInt>:
USB_DisableGlobalInt():
 80011c4:	4603      	mov	r3, r0
 80011c6:	2000      	movs	r0, #0
 80011c8:	689a      	ldr	r2, [r3, #8]
 80011ca:	f022 0201 	bic.w	r2, r2, #1
 80011ce:	609a      	str	r2, [r3, #8]
 80011d0:	4770      	bx	lr
 80011d2:	bf00      	nop

080011d4 <BSP_LED_Init>:
BSP_LED_Init():
 80011d4:	b530      	push	{r4, r5, lr}
 80011d6:	b087      	sub	sp, #28
 80011d8:	b138      	cbz	r0, 80011ea <BSP_LED_Init+0x16>
 80011da:	2801      	cmp	r0, #1
 80011dc:	d005      	beq.n	80011ea <BSP_LED_Init+0x16>
 80011de:	4a0f      	ldr	r2, [pc, #60]	; (800121c <BSP_LED_Init+0x48>)
 80011e0:	6b13      	ldr	r3, [r2, #48]	; 0x30
 80011e2:	f043 0308 	orr.w	r3, r3, #8
 80011e6:	6313      	str	r3, [r2, #48]	; 0x30
 80011e8:	e004      	b.n	80011f4 <BSP_LED_Init+0x20>
 80011ea:	4a0c      	ldr	r2, [pc, #48]	; (800121c <BSP_LED_Init+0x48>)
 80011ec:	6b13      	ldr	r3, [r2, #48]	; 0x30
 80011ee:	f043 0308 	orr.w	r3, r3, #8
 80011f2:	6313      	str	r3, [r2, #48]	; 0x30
 80011f4:	4a0a      	ldr	r2, [pc, #40]	; (8001220 <BSP_LED_Init+0x4c>)
 80011f6:	4b0b      	ldr	r3, [pc, #44]	; (8001224 <BSP_LED_Init+0x50>)
 80011f8:	f852 4020 	ldr.w	r4, [r2, r0, lsl #2]
 80011fc:	f833 5010 	ldrh.w	r5, [r3, r0, lsl #1]
 8001200:	9501      	str	r5, [sp, #4]
 8001202:	2301      	movs	r3, #1
 8001204:	2202      	movs	r2, #2
 8001206:	4620      	mov	r0, r4
 8001208:	a901      	add	r1, sp, #4
 800120a:	e9cd 3302 	strd	r3, r3, [sp, #8]
 800120e:	9204      	str	r2, [sp, #16]
 8001210:	f7ff fd06 	bl	8000c20 <HAL_GPIO_Init.constprop.1>
 8001214:	8365      	strh	r5, [r4, #26]
 8001216:	b007      	add	sp, #28
 8001218:	bd30      	pop	{r4, r5, pc}
 800121a:	bf00      	nop
 800121c:	40023800 	.word	0x40023800
 8001220:	0800f580 	.word	0x0800f580
 8001224:	0800f578 	.word	0x0800f578

08001228 <cs43l22_SetFrequency>:
cs43l22_SetFrequency():
 8001228:	2000      	movs	r0, #0
 800122a:	4770      	bx	lr

0800122c <USB_CoreReset>:
USB_CoreReset():
 800122c:	4b0b      	ldr	r3, [pc, #44]	; (800125c <USB_CoreReset+0x30>)
 800122e:	e001      	b.n	8001234 <USB_CoreReset+0x8>
 8001230:	3b01      	subs	r3, #1
 8001232:	d010      	beq.n	8001256 <USB_CoreReset+0x2a>
 8001234:	6902      	ldr	r2, [r0, #16]
 8001236:	2a00      	cmp	r2, #0
 8001238:	dafa      	bge.n	8001230 <USB_CoreReset+0x4>
 800123a:	6903      	ldr	r3, [r0, #16]
 800123c:	4a07      	ldr	r2, [pc, #28]	; (800125c <USB_CoreReset+0x30>)
 800123e:	f043 0301 	orr.w	r3, r3, #1
 8001242:	6103      	str	r3, [r0, #16]
 8001244:	e001      	b.n	800124a <USB_CoreReset+0x1e>
 8001246:	3a01      	subs	r2, #1
 8001248:	d005      	beq.n	8001256 <USB_CoreReset+0x2a>
 800124a:	6903      	ldr	r3, [r0, #16]
 800124c:	f013 0301 	ands.w	r3, r3, #1
 8001250:	d1f9      	bne.n	8001246 <USB_CoreReset+0x1a>
 8001252:	4618      	mov	r0, r3
 8001254:	4770      	bx	lr
 8001256:	2003      	movs	r0, #3
 8001258:	4770      	bx	lr
 800125a:	bf00      	nop
 800125c:	00030d40 	.word	0x00030d40

08001260 <USB_WritePacket>:
USB_WritePacket():
 8001260:	b430      	push	{r4, r5}
 8001262:	f89d 4008 	ldrb.w	r4, [sp, #8]
 8001266:	b96c      	cbnz	r4, 8001284 <USB_WritePacket+0x24>
 8001268:	1cdd      	adds	r5, r3, #3
 800126a:	10ad      	asrs	r5, r5, #2
 800126c:	d00a      	beq.n	8001284 <USB_WritePacket+0x24>
 800126e:	f500 5080 	add.w	r0, r0, #4096	; 0x1000
 8001272:	eb00 3202 	add.w	r2, r0, r2, lsl #12
 8001276:	4623      	mov	r3, r4
 8001278:	3301      	adds	r3, #1
 800127a:	f851 0b04 	ldr.w	r0, [r1], #4
 800127e:	6010      	str	r0, [r2, #0]
 8001280:	429d      	cmp	r5, r3
 8001282:	d1f9      	bne.n	8001278 <USB_WritePacket+0x18>
 8001284:	2000      	movs	r0, #0
 8001286:	bc30      	pop	{r4, r5}
 8001288:	4770      	bx	lr
 800128a:	bf00      	nop

0800128c <USB_FlushRxFifo>:
USB_FlushRxFifo():
 800128c:	2310      	movs	r3, #16
 800128e:	4a06      	ldr	r2, [pc, #24]	; (80012a8 <USB_FlushRxFifo+0x1c>)
 8001290:	6103      	str	r3, [r0, #16]
 8001292:	e001      	b.n	8001298 <USB_FlushRxFifo+0xc>
 8001294:	3a01      	subs	r2, #1
 8001296:	d005      	beq.n	80012a4 <USB_FlushRxFifo+0x18>
 8001298:	6903      	ldr	r3, [r0, #16]
 800129a:	f013 0310 	ands.w	r3, r3, #16
 800129e:	d1f9      	bne.n	8001294 <USB_FlushRxFifo+0x8>
 80012a0:	4618      	mov	r0, r3
 80012a2:	4770      	bx	lr
 80012a4:	2003      	movs	r0, #3
 80012a6:	4770      	bx	lr
 80012a8:	00030d40 	.word	0x00030d40

080012ac <USB_FlushTxFifo>:
USB_FlushTxFifo():
 80012ac:	0149      	lsls	r1, r1, #5
 80012ae:	f041 0120 	orr.w	r1, r1, #32
 80012b2:	4a06      	ldr	r2, [pc, #24]	; (80012cc <USB_FlushTxFifo+0x20>)
 80012b4:	6101      	str	r1, [r0, #16]
 80012b6:	e001      	b.n	80012bc <USB_FlushTxFifo+0x10>
 80012b8:	3a01      	subs	r2, #1
 80012ba:	d005      	beq.n	80012c8 <USB_FlushTxFifo+0x1c>
 80012bc:	6903      	ldr	r3, [r0, #16]
 80012be:	f013 0320 	ands.w	r3, r3, #32
 80012c2:	d1f9      	bne.n	80012b8 <USB_FlushTxFifo+0xc>
 80012c4:	4618      	mov	r0, r3
 80012c6:	4770      	bx	lr
 80012c8:	2003      	movs	r0, #3
 80012ca:	4770      	bx	lr
 80012cc:	00030d40 	.word	0x00030d40

080012d0 <HAL_RCC_GetHCLKFreq>:
HAL_RCC_GetHCLKFreq():
 80012d0:	4a28      	ldr	r2, [pc, #160]	; (8001374 <HAL_RCC_GetHCLKFreq+0xa4>)
 80012d2:	6893      	ldr	r3, [r2, #8]
 80012d4:	f003 030c 	and.w	r3, r3, #12
 80012d8:	2b04      	cmp	r3, #4
 80012da:	b410      	push	{r4}
 80012dc:	d048      	beq.n	8001370 <HAL_RCC_GetHCLKFreq+0xa0>
 80012de:	2b08      	cmp	r3, #8
 80012e0:	d144      	bne.n	800136c <HAL_RCC_GetHCLKFreq+0x9c>
 80012e2:	6854      	ldr	r4, [r2, #4]
 80012e4:	6850      	ldr	r0, [r2, #4]
 80012e6:	f004 043f 	and.w	r4, r4, #63	; 0x3f
 80012ea:	f44f 0380 	mov.w	r3, #4194304	; 0x400000
 80012ee:	fa93 f3a3 	rbit	r3, r3
 80012f2:	fab3 f383 	clz	r3, r3
 80012f6:	f400 0080 	and.w	r0, r0, #4194304	; 0x400000
 80012fa:	b2db      	uxtb	r3, r3
 80012fc:	fa30 f303 	lsrs.w	r3, r0, r3
 8001300:	6851      	ldr	r1, [r2, #4]
 8001302:	f647 73c0 	movw	r3, #32704	; 0x7fc0
 8001306:	fa93 f0a3 	rbit	r0, r3
 800130a:	fab0 f080 	clz	r0, r0
 800130e:	4a19      	ldr	r2, [pc, #100]	; (8001374 <HAL_RCC_GetHCLKFreq+0xa4>)
 8001310:	ea01 0103 	and.w	r1, r1, r3
 8001314:	b2c0      	uxtb	r0, r0
 8001316:	fa21 f000 	lsr.w	r0, r1, r0
 800131a:	f44f 3340 	mov.w	r3, #196608	; 0x30000
 800131e:	bf14      	ite	ne
 8001320:	4915      	ldrne	r1, [pc, #84]	; (8001378 <HAL_RCC_GetHCLKFreq+0xa8>)
 8001322:	4916      	ldreq	r1, [pc, #88]	; (800137c <HAL_RCC_GetHCLKFreq+0xac>)
 8001324:	fbb1 f1f4 	udiv	r1, r1, r4
 8001328:	fb01 f100 	mul.w	r1, r1, r0
 800132c:	6850      	ldr	r0, [r2, #4]
 800132e:	fa93 f3a3 	rbit	r3, r3
 8001332:	fab3 f383 	clz	r3, r3
 8001336:	f400 3040 	and.w	r0, r0, #196608	; 0x30000
 800133a:	b2db      	uxtb	r3, r3
 800133c:	40d8      	lsrs	r0, r3
 800133e:	3001      	adds	r0, #1
 8001340:	0040      	lsls	r0, r0, #1
 8001342:	fbb1 f1f0 	udiv	r1, r1, r0
 8001346:	4a0b      	ldr	r2, [pc, #44]	; (8001374 <HAL_RCC_GetHCLKFreq+0xa4>)
 8001348:	23f0      	movs	r3, #240	; 0xf0
 800134a:	6892      	ldr	r2, [r2, #8]
 800134c:	fa93 f3a3 	rbit	r3, r3
 8001350:	fab3 f383 	clz	r3, r3
 8001354:	f002 02f0 	and.w	r2, r2, #240	; 0xf0
 8001358:	b2db      	uxtb	r3, r3
 800135a:	fa22 f303 	lsr.w	r3, r2, r3
 800135e:	4a08      	ldr	r2, [pc, #32]	; (8001380 <HAL_RCC_GetHCLKFreq+0xb0>)
 8001360:	f85d 4b04 	ldr.w	r4, [sp], #4
 8001364:	5cd0      	ldrb	r0, [r2, r3]
 8001366:	fa21 f000 	lsr.w	r0, r1, r0
 800136a:	4770      	bx	lr
 800136c:	4903      	ldr	r1, [pc, #12]	; (800137c <HAL_RCC_GetHCLKFreq+0xac>)
 800136e:	e7ea      	b.n	8001346 <HAL_RCC_GetHCLKFreq+0x76>
 8001370:	4901      	ldr	r1, [pc, #4]	; (8001378 <HAL_RCC_GetHCLKFreq+0xa8>)
 8001372:	e7e8      	b.n	8001346 <HAL_RCC_GetHCLKFreq+0x76>
 8001374:	40023800 	.word	0x40023800
 8001378:	007a1200 	.word	0x007a1200
 800137c:	00f42400 	.word	0x00f42400
 8001380:	0800f52c 	.word	0x0800f52c

08001384 <HAL_InitTick.constprop.0>:
HAL_InitTick.constprop.0():
 8001384:	b510      	push	{r4, lr}
 8001386:	f7ff ffa3 	bl	80012d0 <HAL_RCC_GetHCLKFreq>
 800138a:	4b0c      	ldr	r3, [pc, #48]	; (80013bc <HAL_InitTick.constprop.0+0x38>)
 800138c:	fba3 3000 	umull	r3, r0, r3, r0
 8001390:	0983      	lsrs	r3, r0, #6
 8001392:	3b01      	subs	r3, #1
 8001394:	f1b3 7f80 	cmp.w	r3, #16777216	; 0x1000000
 8001398:	d209      	bcs.n	80013ae <HAL_InitTick.constprop.0+0x2a>
 800139a:	4a09      	ldr	r2, [pc, #36]	; (80013c0 <HAL_InitTick.constprop.0+0x3c>)
 800139c:	4809      	ldr	r0, [pc, #36]	; (80013c4 <HAL_InitTick.constprop.0+0x40>)
 800139e:	6053      	str	r3, [r2, #4]
 80013a0:	24f0      	movs	r4, #240	; 0xf0
 80013a2:	2100      	movs	r1, #0
 80013a4:	2307      	movs	r3, #7
 80013a6:	f880 4023 	strb.w	r4, [r0, #35]	; 0x23
 80013aa:	6091      	str	r1, [r2, #8]
 80013ac:	6013      	str	r3, [r2, #0]
 80013ae:	210f      	movs	r1, #15
 80013b0:	f04f 30ff 	mov.w	r0, #4294967295	; 0xffffffff
 80013b4:	f7ff fc6e 	bl	8000c94 <HAL_NVIC_SetPriority.constprop.2>
 80013b8:	2000      	movs	r0, #0
 80013ba:	bd10      	pop	{r4, pc}
 80013bc:	10624dd3 	.word	0x10624dd3
 80013c0:	e000e010 	.word	0xe000e010
 80013c4:	e000ed00 	.word	0xe000ed00

080013c8 <I2Cx_Init.part.0>:
I2Cx_Init.part.0():
 80013c8:	e92d 4f70 	stmdb	sp!, {r4, r5, r6, r8, r9, sl, fp, lr}
 80013cc:	486c      	ldr	r0, [pc, #432]	; (8001580 <I2Cx_Init.part.0+0x1b8>)
 80013ce:	4c6d      	ldr	r4, [pc, #436]	; (8001584 <I2Cx_Init.part.0+0x1bc>)
 80013d0:	4b6d      	ldr	r3, [pc, #436]	; (8001588 <I2Cx_Init.part.0+0x1c0>)
 80013d2:	6023      	str	r3, [r4, #0]
 80013d4:	6b03      	ldr	r3, [r0, #48]	; 0x30
 80013d6:	4a6d      	ldr	r2, [pc, #436]	; (800158c <I2Cx_Init.part.0+0x1c4>)
 80013d8:	6062      	str	r2, [r4, #4]
 80013da:	f04f 0c00 	mov.w	ip, #0
 80013de:	2633      	movs	r6, #51	; 0x33
 80013e0:	f44f 4580 	mov.w	r5, #16384	; 0x4000
 80013e4:	f043 0302 	orr.w	r3, r3, #2
 80013e8:	2201      	movs	r2, #1
 80013ea:	4969      	ldr	r1, [pc, #420]	; (8001590 <I2Cx_Init.part.0+0x1c8>)
 80013ec:	6125      	str	r5, [r4, #16]
 80013ee:	e9c4 c602 	strd	ip, r6, [r4, #8]
 80013f2:	4691      	mov	r9, r2
 80013f4:	6303      	str	r3, [r0, #48]	; 0x30
 80013f6:	f04f 080f 	mov.w	r8, #15
 80013fa:	f04f 0e04 	mov.w	lr, #4
 80013fe:	f04f 0c03 	mov.w	ip, #3
 8001402:	2602      	movs	r6, #2
 8001404:	fa09 f502 	lsl.w	r5, r9, r2
 8001408:	f435 7310 	bics.w	r3, r5, #576	; 0x240
 800140c:	d129      	bne.n	8001462 <I2Cx_Init.part.0+0x9a>
 800140e:	08d0      	lsrs	r0, r2, #3
 8001410:	0080      	lsls	r0, r0, #2
 8001412:	f100 4080 	add.w	r0, r0, #1073741824	; 0x40000000
 8001416:	f500 3001 	add.w	r0, r0, #132096	; 0x20400
 800141a:	f002 0307 	and.w	r3, r2, #7
 800141e:	f8d0 a020 	ldr.w	sl, [r0, #32]
 8001422:	009b      	lsls	r3, r3, #2
 8001424:	fa08 fb03 	lsl.w	fp, r8, r3
 8001428:	ea2a 0a0b 	bic.w	sl, sl, fp
 800142c:	fa0e f303 	lsl.w	r3, lr, r3
 8001430:	ea43 030a 	orr.w	r3, r3, sl
 8001434:	6203      	str	r3, [r0, #32]
 8001436:	6808      	ldr	r0, [r1, #0]
 8001438:	0053      	lsls	r3, r2, #1
 800143a:	fa0c fa03 	lsl.w	sl, ip, r3
 800143e:	ea20 000a 	bic.w	r0, r0, sl
 8001442:	fa06 f303 	lsl.w	r3, r6, r3
 8001446:	4318      	orrs	r0, r3
 8001448:	6008      	str	r0, [r1, #0]
 800144a:	6888      	ldr	r0, [r1, #8]
 800144c:	ea20 000a 	bic.w	r0, r0, sl
 8001450:	4303      	orrs	r3, r0
 8001452:	608b      	str	r3, [r1, #8]
 8001454:	684b      	ldr	r3, [r1, #4]
 8001456:	431d      	orrs	r5, r3
 8001458:	604d      	str	r5, [r1, #4]
 800145a:	68cb      	ldr	r3, [r1, #12]
 800145c:	ea23 030a 	bic.w	r3, r3, sl
 8001460:	60cb      	str	r3, [r1, #12]
 8001462:	3201      	adds	r2, #1
 8001464:	2a10      	cmp	r2, #16
 8001466:	d1cd      	bne.n	8001404 <I2Cx_Init.part.0+0x3c>
 8001468:	4e45      	ldr	r6, [pc, #276]	; (8001580 <I2Cx_Init.part.0+0x1b8>)
 800146a:	4a4a      	ldr	r2, [pc, #296]	; (8001594 <I2Cx_Init.part.0+0x1cc>)
 800146c:	6c33      	ldr	r3, [r6, #64]	; 0x40
 800146e:	484a      	ldr	r0, [pc, #296]	; (8001598 <I2Cx_Init.part.0+0x1d0>)
 8001470:	4945      	ldr	r1, [pc, #276]	; (8001588 <I2Cx_Init.part.0+0x1c0>)
 8001472:	f443 1300 	orr.w	r3, r3, #2097152	; 0x200000
 8001476:	6433      	str	r3, [r6, #64]	; 0x40
 8001478:	6a33      	ldr	r3, [r6, #32]
 800147a:	f443 1300 	orr.w	r3, r3, #2097152	; 0x200000
 800147e:	6233      	str	r3, [r6, #32]
 8001480:	6a33      	ldr	r3, [r6, #32]
 8001482:	f423 1300 	bic.w	r3, r3, #2097152	; 0x200000
 8001486:	6233      	str	r3, [r6, #32]
 8001488:	f04f 4500 	mov.w	r5, #2147483648	; 0x80000000
 800148c:	2300      	movs	r3, #0
 800148e:	f8d0 c00c 	ldr.w	ip, [r0, #12]
 8001492:	f882 331f 	strb.w	r3, [r2, #799]	; 0x31f
 8001496:	6015      	str	r5, [r2, #0]
 8001498:	2501      	movs	r5, #1
 800149a:	68c0      	ldr	r0, [r0, #12]
 800149c:	f882 3320 	strb.w	r3, [r2, #800]	; 0x320
 80014a0:	6055      	str	r5, [r2, #4]
 80014a2:	2302      	movs	r3, #2
 80014a4:	f894 2035 	ldrb.w	r2, [r4, #53]	; 0x35
 80014a8:	f884 3035 	strb.w	r3, [r4, #53]	; 0x35
 80014ac:	680b      	ldr	r3, [r1, #0]
 80014ae:	f023 0301 	bic.w	r3, r3, #1
 80014b2:	600b      	str	r3, [r1, #0]
 80014b4:	f7ff ff0c 	bl	80012d0 <HAL_RCC_GetHCLKFreq>
 80014b8:	68b2      	ldr	r2, [r6, #8]
 80014ba:	f44f 53e0 	mov.w	r3, #7168	; 0x1c00
 80014be:	fa93 f3a3 	rbit	r3, r3
 80014c2:	fab3 f383 	clz	r3, r3
 80014c6:	b2db      	uxtb	r3, r3
 80014c8:	f402 52e0 	and.w	r2, r2, #7168	; 0x1c00
 80014cc:	40da      	lsrs	r2, r3
 80014ce:	4933      	ldr	r1, [pc, #204]	; (800159c <I2Cx_Init.part.0+0x1d4>)
 80014d0:	4b33      	ldr	r3, [pc, #204]	; (80015a0 <I2Cx_Init.part.0+0x1d8>)
 80014d2:	f811 c002 	ldrb.w	ip, [r1, r2]
 80014d6:	4e2d      	ldr	r6, [pc, #180]	; (800158c <I2Cx_Init.part.0+0x1c4>)
 80014d8:	e9d4 2100 	ldrd	r2, r1, [r4]
 80014dc:	fa20 f00c 	lsr.w	r0, r0, ip
 80014e0:	fba3 c300 	umull	ip, r3, r3, r0
 80014e4:	0c9b      	lsrs	r3, r3, #18
 80014e6:	42b1      	cmp	r1, r6
 80014e8:	6053      	str	r3, [r2, #4]
 80014ea:	d824      	bhi.n	8001536 <I2Cx_Init.part.0+0x16e>
 80014ec:	f640 76fc 	movw	r6, #4092	; 0xffc
 80014f0:	fa01 f505 	lsl.w	r5, r1, r5
 80014f4:	3301      	adds	r3, #1
 80014f6:	fbb0 f5f5 	udiv	r5, r0, r5
 80014fa:	4235      	tst	r5, r6
 80014fc:	6213      	str	r3, [r2, #32]
 80014fe:	bf08      	it	eq
 8001500:	2504      	moveq	r5, #4
 8001502:	e9d4 0c07 	ldrd	r0, ip, [r4, #28]
 8001506:	e9d4 6103 	ldrd	r6, r1, [r4, #12]
 800150a:	61d5      	str	r5, [r2, #28]
 800150c:	6963      	ldr	r3, [r4, #20]
 800150e:	69a5      	ldr	r5, [r4, #24]
 8001510:	ea40 000c 	orr.w	r0, r0, ip
 8001514:	4331      	orrs	r1, r6
 8001516:	432b      	orrs	r3, r5
 8001518:	6010      	str	r0, [r2, #0]
 800151a:	6091      	str	r1, [r2, #8]
 800151c:	60d3      	str	r3, [r2, #12]
 800151e:	6813      	ldr	r3, [r2, #0]
 8001520:	2000      	movs	r0, #0
 8001522:	f043 0301 	orr.w	r3, r3, #1
 8001526:	2101      	movs	r1, #1
 8001528:	6013      	str	r3, [r2, #0]
 800152a:	f884 0036 	strb.w	r0, [r4, #54]	; 0x36
 800152e:	f884 1035 	strb.w	r1, [r4, #53]	; 0x35
 8001532:	e8bd 8f70 	ldmia.w	sp!, {r4, r5, r6, r8, r9, sl, fp, pc}
 8001536:	f44f 7696 	mov.w	r6, #300	; 0x12c
 800153a:	f8df c068 	ldr.w	ip, [pc, #104]	; 80015a4 <I2Cx_Init.part.0+0x1dc>
 800153e:	fb06 f303 	mul.w	r3, r6, r3
 8001542:	fbac 6303 	umull	r6, r3, ip, r3
 8001546:	099b      	lsrs	r3, r3, #6
 8001548:	68a6      	ldr	r6, [r4, #8]
 800154a:	3301      	adds	r3, #1
 800154c:	6213      	str	r3, [r2, #32]
 800154e:	b956      	cbnz	r6, 8001566 <I2Cx_Init.part.0+0x19e>
 8001550:	eb01 0141 	add.w	r1, r1, r1, lsl #1
 8001554:	fbb0 f0f1 	udiv	r0, r0, r1
 8001558:	f3c0 030b 	ubfx	r3, r0, #0, #12
 800155c:	2b00      	cmp	r3, #0
 800155e:	d0d0      	beq.n	8001502 <I2Cx_Init.part.0+0x13a>
 8001560:	f440 4500 	orr.w	r5, r0, #32768	; 0x8000
 8001564:	e7cd      	b.n	8001502 <I2Cx_Init.part.0+0x13a>
 8001566:	eb01 0181 	add.w	r1, r1, r1, lsl #2
 800156a:	eb01 0181 	add.w	r1, r1, r1, lsl #2
 800156e:	fbb0 f1f1 	udiv	r1, r0, r1
 8001572:	f3c1 030b 	ubfx	r3, r1, #0, #12
 8001576:	2b00      	cmp	r3, #0
 8001578:	d0c3      	beq.n	8001502 <I2Cx_Init.part.0+0x13a>
 800157a:	f441 4540 	orr.w	r5, r1, #49152	; 0xc000
 800157e:	e7c0      	b.n	8001502 <I2Cx_Init.part.0+0x13a>
 8001580:	40023800 	.word	0x40023800
 8001584:	200008cc 	.word	0x200008cc
 8001588:	40005400 	.word	0x40005400
 800158c:	000186a0 	.word	0x000186a0
 8001590:	40020400 	.word	0x40020400
 8001594:	e000e100 	.word	0xe000e100
 8001598:	e000ed00 	.word	0xe000ed00
 800159c:	0800f52c 	.word	0x0800f52c
 80015a0:	431bde83 	.word	0x431bde83
 80015a4:	10624dd3 	.word	0x10624dd3

080015a8 <I2S_DMAError>:
I2S_DMAError():
 80015a8:	6b83      	ldr	r3, [r0, #56]	; 0x38
 80015aa:	4909      	ldr	r1, [pc, #36]	; (80015d0 <I2S_DMAError+0x28>)
 80015ac:	2200      	movs	r2, #0
 80015ae:	2001      	movs	r0, #1
 80015b0:	855a      	strh	r2, [r3, #42]	; 0x2a
 80015b2:	865a      	strh	r2, [r3, #50]	; 0x32
 80015b4:	f883 003d 	strb.w	r0, [r3, #61]	; 0x3d
 80015b8:	f893 203e 	ldrb.w	r2, [r3, #62]	; 0x3e
 80015bc:	6818      	ldr	r0, [r3, #0]
 80015be:	f042 0220 	orr.w	r2, r2, #32
 80015c2:	4288      	cmp	r0, r1
 80015c4:	f883 203e 	strb.w	r2, [r3, #62]	; 0x3e
 80015c8:	d000      	beq.n	80015cc <I2S_DMAError+0x24>
 80015ca:	4770      	bx	lr
 80015cc:	e7fe      	b.n	80015cc <I2S_DMAError+0x24>
 80015ce:	bf00      	nop
 80015d0:	40003c00 	.word	0x40003c00

080015d4 <HAL_DMA_IRQHandler>:
HAL_DMA_IRQHandler():
 80015d4:	4abc      	ldr	r2, [pc, #752]	; (80018c8 <HAL_DMA_IRQHandler+0x2f4>)
 80015d6:	6803      	ldr	r3, [r0, #0]
 80015d8:	4293      	cmp	r3, r2
 80015da:	b570      	push	{r4, r5, r6, lr}
 80015dc:	4604      	mov	r4, r0
 80015de:	f240 8091 	bls.w	8001704 <HAL_DMA_IRQHandler+0x130>
 80015e2:	49ba      	ldr	r1, [pc, #744]	; (80018cc <HAL_DMA_IRQHandler+0x2f8>)
 80015e4:	f852 0c54 	ldr.w	r0, [r2, #-84]
 80015e8:	428b      	cmp	r3, r1
 80015ea:	f1a2 0258 	sub.w	r2, r2, #88	; 0x58
 80015ee:	f000 8123 	beq.w	8001838 <HAL_DMA_IRQHandler+0x264>
 80015f2:	f501 6180 	add.w	r1, r1, #1024	; 0x400
 80015f6:	428b      	cmp	r3, r1
 80015f8:	d036      	beq.n	8001668 <HAL_DMA_IRQHandler+0x94>
 80015fa:	f5a1 7168 	sub.w	r1, r1, #928	; 0x3a0
 80015fe:	428b      	cmp	r3, r1
 8001600:	d032      	beq.n	8001668 <HAL_DMA_IRQHandler+0x94>
 8001602:	f501 6180 	add.w	r1, r1, #1024	; 0x400
 8001606:	428b      	cmp	r3, r1
 8001608:	d02e      	beq.n	8001668 <HAL_DMA_IRQHandler+0x94>
 800160a:	f5a1 6189 	sub.w	r1, r1, #1096	; 0x448
 800160e:	428b      	cmp	r3, r1
 8001610:	f000 81f6 	beq.w	8001a00 <HAL_DMA_IRQHandler+0x42c>
 8001614:	f501 6180 	add.w	r1, r1, #1024	; 0x400
 8001618:	428b      	cmp	r3, r1
 800161a:	f000 81f1 	beq.w	8001a00 <HAL_DMA_IRQHandler+0x42c>
 800161e:	f5a1 7168 	sub.w	r1, r1, #928	; 0x3a0
 8001622:	428b      	cmp	r3, r1
 8001624:	f000 81ec 	beq.w	8001a00 <HAL_DMA_IRQHandler+0x42c>
 8001628:	3288      	adds	r2, #136	; 0x88
 800162a:	4293      	cmp	r3, r2
 800162c:	f001 86e9 	beq.w	8003402 <HAL_DMA_IRQHandler+0x1e2e>
 8001630:	f5a2 6289 	sub.w	r2, r2, #1096	; 0x448
 8001634:	4293      	cmp	r3, r2
 8001636:	f001 85aa 	beq.w	800318e <HAL_DMA_IRQHandler+0x1bba>
 800163a:	f502 6280 	add.w	r2, r2, #1024	; 0x400
 800163e:	4293      	cmp	r3, r2
 8001640:	f001 85a5 	beq.w	800318e <HAL_DMA_IRQHandler+0x1bba>
 8001644:	f5a2 7268 	sub.w	r2, r2, #928	; 0x3a0
 8001648:	4293      	cmp	r3, r2
 800164a:	f001 85a0 	beq.w	800318e <HAL_DMA_IRQHandler+0x1bba>
 800164e:	f502 6280 	add.w	r2, r2, #1024	; 0x400
 8001652:	4293      	cmp	r3, r2
 8001654:	f001 859b 	beq.w	800318e <HAL_DMA_IRQHandler+0x1bba>
 8001658:	0185      	lsls	r5, r0, #6
 800165a:	f100 81d4 	bmi.w	8001a06 <HAL_DMA_IRQHandler+0x432>
 800165e:	499c      	ldr	r1, [pc, #624]	; (80018d0 <HAL_DMA_IRQHandler+0x2fc>)
 8001660:	f44f 0280 	mov.w	r2, #4194304	; 0x400000
 8001664:	6849      	ldr	r1, [r1, #4]
 8001666:	e004      	b.n	8001672 <HAL_DMA_IRQHandler+0x9e>
 8001668:	0706      	lsls	r6, r0, #28
 800166a:	f100 81cc 	bmi.w	8001a06 <HAL_DMA_IRQHandler+0x432>
 800166e:	6851      	ldr	r1, [r2, #4]
 8001670:	4a98      	ldr	r2, [pc, #608]	; (80018d4 <HAL_DMA_IRQHandler+0x300>)
 8001672:	420a      	tst	r2, r1
 8001674:	f000 8448 	beq.w	8001f08 <HAL_DMA_IRQHandler+0x934>
 8001678:	695a      	ldr	r2, [r3, #20]
 800167a:	0610      	lsls	r0, r2, #24
 800167c:	f140 8261 	bpl.w	8001b42 <HAL_DMA_IRQHandler+0x56e>
 8001680:	695a      	ldr	r2, [r3, #20]
 8001682:	f022 0280 	bic.w	r2, r2, #128	; 0x80
 8001686:	615a      	str	r2, [r3, #20]
 8001688:	4a90      	ldr	r2, [pc, #576]	; (80018cc <HAL_DMA_IRQHandler+0x2f8>)
 800168a:	4293      	cmp	r3, r2
 800168c:	f000 8246 	beq.w	8001b1c <HAL_DMA_IRQHandler+0x548>
 8001690:	f502 6280 	add.w	r2, r2, #1024	; 0x400
 8001694:	4293      	cmp	r3, r2
 8001696:	f000 8241 	beq.w	8001b1c <HAL_DMA_IRQHandler+0x548>
 800169a:	f5a2 7268 	sub.w	r2, r2, #928	; 0x3a0
 800169e:	4293      	cmp	r3, r2
 80016a0:	f000 823c 	beq.w	8001b1c <HAL_DMA_IRQHandler+0x548>
 80016a4:	f502 6280 	add.w	r2, r2, #1024	; 0x400
 80016a8:	4293      	cmp	r3, r2
 80016aa:	f000 8237 	beq.w	8001b1c <HAL_DMA_IRQHandler+0x548>
 80016ae:	f5a2 6289 	sub.w	r2, r2, #1096	; 0x448
 80016b2:	4293      	cmp	r3, r2
 80016b4:	f001 8554 	beq.w	8003160 <HAL_DMA_IRQHandler+0x1b8c>
 80016b8:	f502 6280 	add.w	r2, r2, #1024	; 0x400
 80016bc:	4293      	cmp	r3, r2
 80016be:	f001 854f 	beq.w	8003160 <HAL_DMA_IRQHandler+0x1b8c>
 80016c2:	f5a2 7268 	sub.w	r2, r2, #928	; 0x3a0
 80016c6:	4293      	cmp	r3, r2
 80016c8:	f001 854a 	beq.w	8003160 <HAL_DMA_IRQHandler+0x1b8c>
 80016cc:	f502 6280 	add.w	r2, r2, #1024	; 0x400
 80016d0:	4293      	cmp	r3, r2
 80016d2:	f001 8545 	beq.w	8003160 <HAL_DMA_IRQHandler+0x1b8c>
 80016d6:	f5a2 6289 	sub.w	r2, r2, #1096	; 0x448
 80016da:	4293      	cmp	r3, r2
 80016dc:	f001 8738 	beq.w	8003550 <HAL_DMA_IRQHandler+0x1f7c>
 80016e0:	f502 6280 	add.w	r2, r2, #1024	; 0x400
 80016e4:	4293      	cmp	r3, r2
 80016e6:	f001 8733 	beq.w	8003550 <HAL_DMA_IRQHandler+0x1f7c>
 80016ea:	f5a2 7268 	sub.w	r2, r2, #928	; 0x3a0
 80016ee:	4293      	cmp	r3, r2
 80016f0:	f001 872e 	beq.w	8003550 <HAL_DMA_IRQHandler+0x1f7c>
 80016f4:	4978      	ldr	r1, [pc, #480]	; (80018d8 <HAL_DMA_IRQHandler+0x304>)
 80016f6:	428b      	cmp	r3, r1
 80016f8:	bf0c      	ite	eq
 80016fa:	f44f 3180 	moveq.w	r1, #65536	; 0x10000
 80016fe:	f44f 0180 	movne.w	r1, #4194304	; 0x400000
 8001702:	e20c      	b.n	8001b1e <HAL_DMA_IRQHandler+0x54a>
 8001704:	4a75      	ldr	r2, [pc, #468]	; (80018dc <HAL_DMA_IRQHandler+0x308>)
 8001706:	4293      	cmp	r3, r2
 8001708:	4619      	mov	r1, r3
 800170a:	d946      	bls.n	800179a <HAL_DMA_IRQHandler+0x1c6>
 800170c:	486f      	ldr	r0, [pc, #444]	; (80018cc <HAL_DMA_IRQHandler+0x2f8>)
 800170e:	f8d2 5348 	ldr.w	r5, [r2, #840]	; 0x348
 8001712:	4283      	cmp	r3, r0
 8001714:	f502 7252 	add.w	r2, r2, #840	; 0x348
 8001718:	f000 81b6 	beq.w	8001a88 <HAL_DMA_IRQHandler+0x4b4>
 800171c:	f500 6080 	add.w	r0, r0, #1024	; 0x400
 8001720:	4283      	cmp	r3, r0
 8001722:	f000 8743 	beq.w	80025ac <HAL_DMA_IRQHandler+0xfd8>
 8001726:	f5a0 7068 	sub.w	r0, r0, #928	; 0x3a0
 800172a:	4283      	cmp	r3, r0
 800172c:	f000 81ac 	beq.w	8001a88 <HAL_DMA_IRQHandler+0x4b4>
 8001730:	f500 6080 	add.w	r0, r0, #1024	; 0x400
 8001734:	4283      	cmp	r3, r0
 8001736:	f000 81a7 	beq.w	8001a88 <HAL_DMA_IRQHandler+0x4b4>
 800173a:	f5a0 6089 	sub.w	r0, r0, #1096	; 0x448
 800173e:	4283      	cmp	r3, r0
 8001740:	f001 84ab 	beq.w	800309a <HAL_DMA_IRQHandler+0x1ac6>
 8001744:	f500 6080 	add.w	r0, r0, #1024	; 0x400
 8001748:	4283      	cmp	r3, r0
 800174a:	f001 84e5 	beq.w	8003118 <HAL_DMA_IRQHandler+0x1b44>
 800174e:	f5a2 725e 	sub.w	r2, r2, #888	; 0x378
 8001752:	4293      	cmp	r3, r2
 8001754:	f001 863f 	beq.w	80033d6 <HAL_DMA_IRQHandler+0x1e02>
 8001758:	f502 6280 	add.w	r2, r2, #1024	; 0x400
 800175c:	4293      	cmp	r3, r2
 800175e:	f001 863a 	beq.w	80033d6 <HAL_DMA_IRQHandler+0x1e02>
 8001762:	f5a2 6289 	sub.w	r2, r2, #1096	; 0x448
 8001766:	4293      	cmp	r3, r2
 8001768:	f001 86b5 	beq.w	80034d6 <HAL_DMA_IRQHandler+0x1f02>
 800176c:	f502 6280 	add.w	r2, r2, #1024	; 0x400
 8001770:	4293      	cmp	r3, r2
 8001772:	f001 8711 	beq.w	8003598 <HAL_DMA_IRQHandler+0x1fc4>
 8001776:	f5a2 7268 	sub.w	r2, r2, #928	; 0x3a0
 800177a:	4293      	cmp	r3, r2
 800177c:	f001 86ab 	beq.w	80034d6 <HAL_DMA_IRQHandler+0x1f02>
 8001780:	f502 6280 	add.w	r2, r2, #1024	; 0x400
 8001784:	4293      	cmp	r3, r2
 8001786:	f001 86a6 	beq.w	80034d6 <HAL_DMA_IRQHandler+0x1f02>
 800178a:	01ad      	lsls	r5, r5, #6
 800178c:	f100 8711 	bmi.w	80025b2 <HAL_DMA_IRQHandler+0xfde>
 8001790:	484f      	ldr	r0, [pc, #316]	; (80018d0 <HAL_DMA_IRQHandler+0x2fc>)
 8001792:	f44f 0280 	mov.w	r2, #4194304	; 0x400000
 8001796:	6800      	ldr	r0, [r0, #0]
 8001798:	e17b      	b.n	8001a92 <HAL_DMA_IRQHandler+0x4be>
 800179a:	4a51      	ldr	r2, [pc, #324]	; (80018e0 <HAL_DMA_IRQHandler+0x30c>)
 800179c:	4293      	cmp	r3, r2
 800179e:	f240 80a5 	bls.w	80018ec <HAL_DMA_IRQHandler+0x318>
 80017a2:	484a      	ldr	r0, [pc, #296]	; (80018cc <HAL_DMA_IRQHandler+0x2f8>)
 80017a4:	f852 5c54 	ldr.w	r5, [r2, #-84]
 80017a8:	4283      	cmp	r3, r0
 80017aa:	f1a2 0258 	sub.w	r2, r2, #88	; 0x58
 80017ae:	f000 87a1 	beq.w	80026f4 <HAL_DMA_IRQHandler+0x1120>
 80017b2:	f500 6080 	add.w	r0, r0, #1024	; 0x400
 80017b6:	4283      	cmp	r3, r0
 80017b8:	f000 879c 	beq.w	80026f4 <HAL_DMA_IRQHandler+0x1120>
 80017bc:	f5a0 7068 	sub.w	r0, r0, #928	; 0x3a0
 80017c0:	4283      	cmp	r3, r0
 80017c2:	f001 845a 	beq.w	800307a <HAL_DMA_IRQHandler+0x1aa6>
 80017c6:	f500 6080 	add.w	r0, r0, #1024	; 0x400
 80017ca:	4283      	cmp	r3, r0
 80017cc:	f000 8792 	beq.w	80026f4 <HAL_DMA_IRQHandler+0x1120>
 80017d0:	f5a0 6089 	sub.w	r0, r0, #1096	; 0x448
 80017d4:	4283      	cmp	r3, r0
 80017d6:	f001 84eb 	beq.w	80031b0 <HAL_DMA_IRQHandler+0x1bdc>
 80017da:	f502 6285 	add.w	r2, r2, #1064	; 0x428
 80017de:	4293      	cmp	r3, r2
 80017e0:	f001 8671 	beq.w	80034c6 <HAL_DMA_IRQHandler+0x1ef2>
 80017e4:	f5a2 7268 	sub.w	r2, r2, #928	; 0x3a0
 80017e8:	4293      	cmp	r3, r2
 80017ea:	f001 86c6 	beq.w	800357a <HAL_DMA_IRQHandler+0x1fa6>
 80017ee:	f502 6280 	add.w	r2, r2, #1024	; 0x400
 80017f2:	4293      	cmp	r3, r2
 80017f4:	f001 8667 	beq.w	80034c6 <HAL_DMA_IRQHandler+0x1ef2>
 80017f8:	f5a2 6289 	sub.w	r2, r2, #1096	; 0x448
 80017fc:	4293      	cmp	r3, r2
 80017fe:	f001 86b3 	beq.w	8003568 <HAL_DMA_IRQHandler+0x1f94>
 8001802:	f502 6280 	add.w	r2, r2, #1024	; 0x400
 8001806:	4293      	cmp	r3, r2
 8001808:	f001 86ae 	beq.w	8003568 <HAL_DMA_IRQHandler+0x1f94>
 800180c:	f5a2 7268 	sub.w	r2, r2, #928	; 0x3a0
 8001810:	4293      	cmp	r3, r2
 8001812:	f001 873a 	beq.w	800368a <HAL_DMA_IRQHandler+0x20b6>
 8001816:	f502 6280 	add.w	r2, r2, #1024	; 0x400
 800181a:	4293      	cmp	r3, r2
 800181c:	f001 86a4 	beq.w	8003568 <HAL_DMA_IRQHandler+0x1f94>
 8001820:	01aa      	lsls	r2, r5, #6
 8001822:	f100 876a 	bmi.w	80026fa <HAL_DMA_IRQHandler+0x1126>
 8001826:	482f      	ldr	r0, [pc, #188]	; (80018e4 <HAL_DMA_IRQHandler+0x310>)
 8001828:	6840      	ldr	r0, [r0, #4]
 800182a:	f44f 0280 	mov.w	r2, #4194304	; 0x400000
 800182e:	4202      	tst	r2, r0
 8001830:	f040 8598 	bne.w	8002364 <HAL_DMA_IRQHandler+0xd90>
 8001834:	6823      	ldr	r3, [r4, #0]
 8001836:	e190      	b.n	8001b5a <HAL_DMA_IRQHandler+0x586>
 8001838:	0701      	lsls	r1, r0, #28
 800183a:	f57f af18 	bpl.w	800166e <HAL_DMA_IRQHandler+0x9a>
 800183e:	6819      	ldr	r1, [r3, #0]
 8001840:	0749      	lsls	r1, r1, #29
 8001842:	f100 87b1 	bmi.w	80027a8 <HAL_DMA_IRQHandler+0x11d4>
 8001846:	4a21      	ldr	r2, [pc, #132]	; (80018cc <HAL_DMA_IRQHandler+0x2f8>)
 8001848:	4921      	ldr	r1, [pc, #132]	; (80018d0 <HAL_DMA_IRQHandler+0x2fc>)
 800184a:	4293      	cmp	r3, r2
 800184c:	6849      	ldr	r1, [r1, #4]
 800184e:	f000 87c0 	beq.w	80027d2 <HAL_DMA_IRQHandler+0x11fe>
 8001852:	4a25      	ldr	r2, [pc, #148]	; (80018e8 <HAL_DMA_IRQHandler+0x314>)
 8001854:	4293      	cmp	r3, r2
 8001856:	f43f af0b 	beq.w	8001670 <HAL_DMA_IRQHandler+0x9c>
 800185a:	f5a2 7268 	sub.w	r2, r2, #928	; 0x3a0
 800185e:	4293      	cmp	r3, r2
 8001860:	f43f af06 	beq.w	8001670 <HAL_DMA_IRQHandler+0x9c>
 8001864:	f502 6280 	add.w	r2, r2, #1024	; 0x400
 8001868:	4293      	cmp	r3, r2
 800186a:	f43f af01 	beq.w	8001670 <HAL_DMA_IRQHandler+0x9c>
 800186e:	f5a2 6289 	sub.w	r2, r2, #1096	; 0x448
 8001872:	4293      	cmp	r3, r2
 8001874:	f000 8339 	beq.w	8001eea <HAL_DMA_IRQHandler+0x916>
 8001878:	f502 6280 	add.w	r2, r2, #1024	; 0x400
 800187c:	4293      	cmp	r3, r2
 800187e:	f000 8334 	beq.w	8001eea <HAL_DMA_IRQHandler+0x916>
 8001882:	f5a2 7268 	sub.w	r2, r2, #928	; 0x3a0
 8001886:	4293      	cmp	r3, r2
 8001888:	f000 832f 	beq.w	8001eea <HAL_DMA_IRQHandler+0x916>
 800188c:	f502 6280 	add.w	r2, r2, #1024	; 0x400
 8001890:	4293      	cmp	r3, r2
 8001892:	f000 832a 	beq.w	8001eea <HAL_DMA_IRQHandler+0x916>
 8001896:	f5a2 6289 	sub.w	r2, r2, #1096	; 0x448
 800189a:	4293      	cmp	r3, r2
 800189c:	f001 85fb 	beq.w	8003496 <HAL_DMA_IRQHandler+0x1ec2>
 80018a0:	f502 6280 	add.w	r2, r2, #1024	; 0x400
 80018a4:	4293      	cmp	r3, r2
 80018a6:	f001 85f6 	beq.w	8003496 <HAL_DMA_IRQHandler+0x1ec2>
 80018aa:	f5a2 7268 	sub.w	r2, r2, #928	; 0x3a0
 80018ae:	4293      	cmp	r3, r2
 80018b0:	f001 85f1 	beq.w	8003496 <HAL_DMA_IRQHandler+0x1ec2>
 80018b4:	f502 6280 	add.w	r2, r2, #1024	; 0x400
 80018b8:	4293      	cmp	r3, r2
 80018ba:	bf0c      	ite	eq
 80018bc:	f44f 3280 	moveq.w	r2, #65536	; 0x10000
 80018c0:	f44f 0280 	movne.w	r2, #4194304	; 0x400000
 80018c4:	e6d5      	b.n	8001672 <HAL_DMA_IRQHandler+0x9e>
 80018c6:	bf00      	nop
 80018c8:	40026458 	.word	0x40026458
 80018cc:	40026010 	.word	0x40026010
 80018d0:	40026400 	.word	0x40026400
 80018d4:	00800001 	.word	0x00800001
 80018d8:	400264a0 	.word	0x400264a0
 80018dc:	400260b8 	.word	0x400260b8
 80018e0:	40026058 	.word	0x40026058
 80018e4:	40026000 	.word	0x40026000
 80018e8:	40026410 	.word	0x40026410
 80018ec:	48da      	ldr	r0, [pc, #872]	; (8001c58 <HAL_DMA_IRQHandler+0x684>)
 80018ee:	4adb      	ldr	r2, [pc, #876]	; (8001c5c <HAL_DMA_IRQHandler+0x688>)
 80018f0:	4283      	cmp	r3, r0
 80018f2:	6815      	ldr	r5, [r2, #0]
 80018f4:	f001 8408 	beq.w	8003108 <HAL_DMA_IRQHandler+0x1b34>
 80018f8:	f500 6080 	add.w	r0, r0, #1024	; 0x400
 80018fc:	4283      	cmp	r3, r0
 80018fe:	f000 8204 	beq.w	8001d0a <HAL_DMA_IRQHandler+0x736>
 8001902:	f5a0 7068 	sub.w	r0, r0, #928	; 0x3a0
 8001906:	4283      	cmp	r3, r0
 8001908:	f000 81ff 	beq.w	8001d0a <HAL_DMA_IRQHandler+0x736>
 800190c:	f500 6080 	add.w	r0, r0, #1024	; 0x400
 8001910:	4283      	cmp	r3, r0
 8001912:	f000 81fa 	beq.w	8001d0a <HAL_DMA_IRQHandler+0x736>
 8001916:	f5a0 6089 	sub.w	r0, r0, #1096	; 0x448
 800191a:	4283      	cmp	r3, r0
 800191c:	f001 844f 	beq.w	80031be <HAL_DMA_IRQHandler+0x1bea>
 8001920:	f502 6285 	add.w	r2, r2, #1064	; 0x428
 8001924:	4293      	cmp	r3, r2
 8001926:	f001 8564 	beq.w	80033f2 <HAL_DMA_IRQHandler+0x1e1e>
 800192a:	f5a2 7268 	sub.w	r2, r2, #928	; 0x3a0
 800192e:	4293      	cmp	r3, r2
 8001930:	f001 855f 	beq.w	80033f2 <HAL_DMA_IRQHandler+0x1e1e>
 8001934:	f502 6280 	add.w	r2, r2, #1024	; 0x400
 8001938:	4293      	cmp	r3, r2
 800193a:	f001 855a 	beq.w	80033f2 <HAL_DMA_IRQHandler+0x1e1e>
 800193e:	f5a2 6289 	sub.w	r2, r2, #1096	; 0x448
 8001942:	4293      	cmp	r3, r2
 8001944:	f001 8672 	beq.w	800362c <HAL_DMA_IRQHandler+0x2058>
 8001948:	f502 6280 	add.w	r2, r2, #1024	; 0x400
 800194c:	4293      	cmp	r3, r2
 800194e:	f001 861a 	beq.w	8003586 <HAL_DMA_IRQHandler+0x1fb2>
 8001952:	f5a2 7268 	sub.w	r2, r2, #928	; 0x3a0
 8001956:	4293      	cmp	r3, r2
 8001958:	f001 8615 	beq.w	8003586 <HAL_DMA_IRQHandler+0x1fb2>
 800195c:	f502 6280 	add.w	r2, r2, #1024	; 0x400
 8001960:	4293      	cmp	r3, r2
 8001962:	f001 8610 	beq.w	8003586 <HAL_DMA_IRQHandler+0x1fb2>
 8001966:	01ae      	lsls	r6, r5, #6
 8001968:	f100 81d2 	bmi.w	8001d10 <HAL_DMA_IRQHandler+0x73c>
 800196c:	48bb      	ldr	r0, [pc, #748]	; (8001c5c <HAL_DMA_IRQHandler+0x688>)
 800196e:	6800      	ldr	r0, [r0, #0]
 8001970:	f44f 0280 	mov.w	r2, #4194304	; 0x400000
 8001974:	4202      	tst	r2, r0
 8001976:	f040 84f5 	bne.w	8002364 <HAL_DMA_IRQHandler+0xd90>
 800197a:	6823      	ldr	r3, [r4, #0]
 800197c:	4ab6      	ldr	r2, [pc, #728]	; (8001c58 <HAL_DMA_IRQHandler+0x684>)
 800197e:	49b7      	ldr	r1, [pc, #732]	; (8001c5c <HAL_DMA_IRQHandler+0x688>)
 8001980:	4293      	cmp	r3, r2
 8001982:	6809      	ldr	r1, [r1, #0]
 8001984:	f000 866c 	beq.w	8002660 <HAL_DMA_IRQHandler+0x108c>
 8001988:	f502 6280 	add.w	r2, r2, #1024	; 0x400
 800198c:	4293      	cmp	r3, r2
 800198e:	f000 8667 	beq.w	8002660 <HAL_DMA_IRQHandler+0x108c>
 8001992:	f5a2 7268 	sub.w	r2, r2, #928	; 0x3a0
 8001996:	4293      	cmp	r3, r2
 8001998:	f000 8662 	beq.w	8002660 <HAL_DMA_IRQHandler+0x108c>
 800199c:	f502 6280 	add.w	r2, r2, #1024	; 0x400
 80019a0:	4293      	cmp	r3, r2
 80019a2:	f000 865d 	beq.w	8002660 <HAL_DMA_IRQHandler+0x108c>
 80019a6:	f5a2 6289 	sub.w	r2, r2, #1096	; 0x448
 80019aa:	4293      	cmp	r3, r2
 80019ac:	f001 83e3 	beq.w	8003176 <HAL_DMA_IRQHandler+0x1ba2>
 80019b0:	f502 6280 	add.w	r2, r2, #1024	; 0x400
 80019b4:	4293      	cmp	r3, r2
 80019b6:	f001 83de 	beq.w	8003176 <HAL_DMA_IRQHandler+0x1ba2>
 80019ba:	f5a2 7268 	sub.w	r2, r2, #928	; 0x3a0
 80019be:	4293      	cmp	r3, r2
 80019c0:	f001 83d9 	beq.w	8003176 <HAL_DMA_IRQHandler+0x1ba2>
 80019c4:	f502 6280 	add.w	r2, r2, #1024	; 0x400
 80019c8:	4293      	cmp	r3, r2
 80019ca:	f001 83d4 	beq.w	8003176 <HAL_DMA_IRQHandler+0x1ba2>
 80019ce:	f5a2 6289 	sub.w	r2, r2, #1096	; 0x448
 80019d2:	4293      	cmp	r3, r2
 80019d4:	f001 85b8 	beq.w	8003548 <HAL_DMA_IRQHandler+0x1f74>
 80019d8:	f502 6280 	add.w	r2, r2, #1024	; 0x400
 80019dc:	4293      	cmp	r3, r2
 80019de:	f001 85b3 	beq.w	8003548 <HAL_DMA_IRQHandler+0x1f74>
 80019e2:	f5a2 7268 	sub.w	r2, r2, #928	; 0x3a0
 80019e6:	4293      	cmp	r3, r2
 80019e8:	f001 85ae 	beq.w	8003548 <HAL_DMA_IRQHandler+0x1f74>
 80019ec:	f502 6280 	add.w	r2, r2, #1024	; 0x400
 80019f0:	4293      	cmp	r3, r2
 80019f2:	bf0c      	ite	eq
 80019f4:	f44f 2280 	moveq.w	r2, #262144	; 0x40000
 80019f8:	f04f 7280 	movne.w	r2, #16777216	; 0x1000000
 80019fc:	f000 be31 	b.w	8002662 <HAL_DMA_IRQHandler+0x108e>
 8001a00:	0580      	lsls	r0, r0, #22
 8001a02:	f140 8271 	bpl.w	8001ee8 <HAL_DMA_IRQHandler+0x914>
 8001a06:	681a      	ldr	r2, [r3, #0]
 8001a08:	0752      	lsls	r2, r2, #29
 8001a0a:	f57f af1c 	bpl.w	8001846 <HAL_DMA_IRQHandler+0x272>
 8001a0e:	681a      	ldr	r2, [r3, #0]
 8001a10:	4993      	ldr	r1, [pc, #588]	; (8001c60 <HAL_DMA_IRQHandler+0x68c>)
 8001a12:	f022 0204 	bic.w	r2, r2, #4
 8001a16:	428b      	cmp	r3, r1
 8001a18:	601a      	str	r2, [r3, #0]
 8001a1a:	f000 8208 	beq.w	8001e2e <HAL_DMA_IRQHandler+0x85a>
 8001a1e:	4a91      	ldr	r2, [pc, #580]	; (8001c64 <HAL_DMA_IRQHandler+0x690>)
 8001a20:	4293      	cmp	r3, r2
 8001a22:	f000 8204 	beq.w	8001e2e <HAL_DMA_IRQHandler+0x85a>
 8001a26:	f502 6280 	add.w	r2, r2, #1024	; 0x400
 8001a2a:	4293      	cmp	r3, r2
 8001a2c:	f000 81ff 	beq.w	8001e2e <HAL_DMA_IRQHandler+0x85a>
 8001a30:	f5a2 6289 	sub.w	r2, r2, #1096	; 0x448
 8001a34:	4293      	cmp	r3, r2
 8001a36:	f001 83a6 	beq.w	8003186 <HAL_DMA_IRQHandler+0x1bb2>
 8001a3a:	f502 6280 	add.w	r2, r2, #1024	; 0x400
 8001a3e:	4293      	cmp	r3, r2
 8001a40:	f001 83a1 	beq.w	8003186 <HAL_DMA_IRQHandler+0x1bb2>
 8001a44:	f5a2 7268 	sub.w	r2, r2, #928	; 0x3a0
 8001a48:	4293      	cmp	r3, r2
 8001a4a:	f001 839c 	beq.w	8003186 <HAL_DMA_IRQHandler+0x1bb2>
 8001a4e:	f502 6280 	add.w	r2, r2, #1024	; 0x400
 8001a52:	4293      	cmp	r3, r2
 8001a54:	f001 8397 	beq.w	8003186 <HAL_DMA_IRQHandler+0x1bb2>
 8001a58:	f5a2 6289 	sub.w	r2, r2, #1096	; 0x448
 8001a5c:	4293      	cmp	r3, r2
 8001a5e:	f001 856b 	beq.w	8003538 <HAL_DMA_IRQHandler+0x1f64>
 8001a62:	f502 6280 	add.w	r2, r2, #1024	; 0x400
 8001a66:	4293      	cmp	r3, r2
 8001a68:	f001 8566 	beq.w	8003538 <HAL_DMA_IRQHandler+0x1f64>
 8001a6c:	f5a2 7268 	sub.w	r2, r2, #928	; 0x3a0
 8001a70:	4293      	cmp	r3, r2
 8001a72:	f001 8561 	beq.w	8003538 <HAL_DMA_IRQHandler+0x1f64>
 8001a76:	f502 6280 	add.w	r2, r2, #1024	; 0x400
 8001a7a:	4293      	cmp	r3, r2
 8001a7c:	bf14      	ite	ne
 8001a7e:	f04f 7200 	movne.w	r2, #33554432	; 0x2000000
 8001a82:	f44f 2200 	moveq.w	r2, #524288	; 0x80000
 8001a86:	e1d3      	b.n	8001e30 <HAL_DMA_IRQHandler+0x85c>
 8001a88:	072e      	lsls	r6, r5, #28
 8001a8a:	f100 8592 	bmi.w	80025b2 <HAL_DMA_IRQHandler+0xfde>
 8001a8e:	6810      	ldr	r0, [r2, #0]
 8001a90:	4a75      	ldr	r2, [pc, #468]	; (8001c68 <HAL_DMA_IRQHandler+0x694>)
 8001a92:	4202      	tst	r2, r0
 8001a94:	f040 8466 	bne.w	8002364 <HAL_DMA_IRQHandler+0xd90>
 8001a98:	6823      	ldr	r3, [r4, #0]
 8001a9a:	4a6f      	ldr	r2, [pc, #444]	; (8001c58 <HAL_DMA_IRQHandler+0x684>)
 8001a9c:	4973      	ldr	r1, [pc, #460]	; (8001c6c <HAL_DMA_IRQHandler+0x698>)
 8001a9e:	4293      	cmp	r3, r2
 8001aa0:	6809      	ldr	r1, [r1, #0]
 8001aa2:	f000 841a 	beq.w	80022da <HAL_DMA_IRQHandler+0xd06>
 8001aa6:	f502 6280 	add.w	r2, r2, #1024	; 0x400
 8001aaa:	4293      	cmp	r3, r2
 8001aac:	f000 8415 	beq.w	80022da <HAL_DMA_IRQHandler+0xd06>
 8001ab0:	f5a2 7268 	sub.w	r2, r2, #928	; 0x3a0
 8001ab4:	4293      	cmp	r3, r2
 8001ab6:	f000 8410 	beq.w	80022da <HAL_DMA_IRQHandler+0xd06>
 8001aba:	f502 6280 	add.w	r2, r2, #1024	; 0x400
 8001abe:	4293      	cmp	r3, r2
 8001ac0:	f000 840b 	beq.w	80022da <HAL_DMA_IRQHandler+0xd06>
 8001ac4:	f5a2 6289 	sub.w	r2, r2, #1096	; 0x448
 8001ac8:	4293      	cmp	r3, r2
 8001aca:	f001 82e2 	beq.w	8003092 <HAL_DMA_IRQHandler+0x1abe>
 8001ace:	f502 6280 	add.w	r2, r2, #1024	; 0x400
 8001ad2:	4293      	cmp	r3, r2
 8001ad4:	f001 82dd 	beq.w	8003092 <HAL_DMA_IRQHandler+0x1abe>
 8001ad8:	f5a2 7268 	sub.w	r2, r2, #928	; 0x3a0
 8001adc:	4293      	cmp	r3, r2
 8001ade:	f001 82d8 	beq.w	8003092 <HAL_DMA_IRQHandler+0x1abe>
 8001ae2:	f502 6280 	add.w	r2, r2, #1024	; 0x400
 8001ae6:	4293      	cmp	r3, r2
 8001ae8:	f001 82d3 	beq.w	8003092 <HAL_DMA_IRQHandler+0x1abe>
 8001aec:	f5a2 6289 	sub.w	r2, r2, #1096	; 0x448
 8001af0:	4293      	cmp	r3, r2
 8001af2:	f001 84c8 	beq.w	8003486 <HAL_DMA_IRQHandler+0x1eb2>
 8001af6:	f502 6280 	add.w	r2, r2, #1024	; 0x400
 8001afa:	4293      	cmp	r3, r2
 8001afc:	f001 84c3 	beq.w	8003486 <HAL_DMA_IRQHandler+0x1eb2>
 8001b00:	f5a2 7268 	sub.w	r2, r2, #928	; 0x3a0
 8001b04:	4293      	cmp	r3, r2
 8001b06:	f001 84be 	beq.w	8003486 <HAL_DMA_IRQHandler+0x1eb2>
 8001b0a:	f502 6280 	add.w	r2, r2, #1024	; 0x400
 8001b0e:	4293      	cmp	r3, r2
 8001b10:	bf0c      	ite	eq
 8001b12:	f44f 2280 	moveq.w	r2, #262144	; 0x40000
 8001b16:	f04f 7280 	movne.w	r2, #16777216	; 0x1000000
 8001b1a:	e3df      	b.n	80022dc <HAL_DMA_IRQHandler+0xd08>
 8001b1c:	4952      	ldr	r1, [pc, #328]	; (8001c68 <HAL_DMA_IRQHandler+0x694>)
 8001b1e:	4a53      	ldr	r2, [pc, #332]	; (8001c6c <HAL_DMA_IRQHandler+0x698>)
 8001b20:	6ca3      	ldr	r3, [r4, #72]	; 0x48
 8001b22:	60d1      	str	r1, [r2, #12]
 8001b24:	6ce2      	ldr	r2, [r4, #76]	; 0x4c
 8001b26:	2104      	movs	r1, #4
 8001b28:	f042 0202 	orr.w	r2, r2, #2
 8001b2c:	2000      	movs	r0, #0
 8001b2e:	64e2      	str	r2, [r4, #76]	; 0x4c
 8001b30:	f884 0034 	strb.w	r0, [r4, #52]	; 0x34
 8001b34:	f884 1035 	strb.w	r1, [r4, #53]	; 0x35
 8001b38:	2b00      	cmp	r3, #0
 8001b3a:	f000 81e5 	beq.w	8001f08 <HAL_DMA_IRQHandler+0x934>
 8001b3e:	4620      	mov	r0, r4
 8001b40:	4798      	blx	r3
 8001b42:	6823      	ldr	r3, [r4, #0]
 8001b44:	4a4a      	ldr	r2, [pc, #296]	; (8001c70 <HAL_DMA_IRQHandler+0x69c>)
 8001b46:	4293      	cmp	r3, r2
 8001b48:	f200 81df 	bhi.w	8001f0a <HAL_DMA_IRQHandler+0x936>
 8001b4c:	4a49      	ldr	r2, [pc, #292]	; (8001c74 <HAL_DMA_IRQHandler+0x6a0>)
 8001b4e:	4293      	cmp	r3, r2
 8001b50:	d8a3      	bhi.n	8001a9a <HAL_DMA_IRQHandler+0x4c6>
 8001b52:	4a49      	ldr	r2, [pc, #292]	; (8001c78 <HAL_DMA_IRQHandler+0x6a4>)
 8001b54:	4293      	cmp	r3, r2
 8001b56:	f67f af11 	bls.w	800197c <HAL_DMA_IRQHandler+0x3a8>
 8001b5a:	4a3f      	ldr	r2, [pc, #252]	; (8001c58 <HAL_DMA_IRQHandler+0x684>)
 8001b5c:	493f      	ldr	r1, [pc, #252]	; (8001c5c <HAL_DMA_IRQHandler+0x688>)
 8001b5e:	4293      	cmp	r3, r2
 8001b60:	6849      	ldr	r1, [r1, #4]
 8001b62:	d037      	beq.n	8001bd4 <HAL_DMA_IRQHandler+0x600>
 8001b64:	f502 6280 	add.w	r2, r2, #1024	; 0x400
 8001b68:	4293      	cmp	r3, r2
 8001b6a:	d033      	beq.n	8001bd4 <HAL_DMA_IRQHandler+0x600>
 8001b6c:	f5a2 7268 	sub.w	r2, r2, #928	; 0x3a0
 8001b70:	4293      	cmp	r3, r2
 8001b72:	d02f      	beq.n	8001bd4 <HAL_DMA_IRQHandler+0x600>
 8001b74:	f502 6280 	add.w	r2, r2, #1024	; 0x400
 8001b78:	4293      	cmp	r3, r2
 8001b7a:	d02b      	beq.n	8001bd4 <HAL_DMA_IRQHandler+0x600>
 8001b7c:	f5a2 6289 	sub.w	r2, r2, #1096	; 0x448
 8001b80:	4293      	cmp	r3, r2
 8001b82:	f001 82f4 	beq.w	800316e <HAL_DMA_IRQHandler+0x1b9a>
 8001b86:	f502 6280 	add.w	r2, r2, #1024	; 0x400
 8001b8a:	4293      	cmp	r3, r2
 8001b8c:	f001 82ef 	beq.w	800316e <HAL_DMA_IRQHandler+0x1b9a>
 8001b90:	f5a2 7268 	sub.w	r2, r2, #928	; 0x3a0
 8001b94:	4293      	cmp	r3, r2
 8001b96:	f001 82ea 	beq.w	800316e <HAL_DMA_IRQHandler+0x1b9a>
 8001b9a:	f502 6280 	add.w	r2, r2, #1024	; 0x400
 8001b9e:	4293      	cmp	r3, r2
 8001ba0:	f001 82e5 	beq.w	800316e <HAL_DMA_IRQHandler+0x1b9a>
 8001ba4:	f5a2 6289 	sub.w	r2, r2, #1096	; 0x448
 8001ba8:	4293      	cmp	r3, r2
 8001baa:	f001 84c9 	beq.w	8003540 <HAL_DMA_IRQHandler+0x1f6c>
 8001bae:	f502 6280 	add.w	r2, r2, #1024	; 0x400
 8001bb2:	4293      	cmp	r3, r2
 8001bb4:	f001 84c4 	beq.w	8003540 <HAL_DMA_IRQHandler+0x1f6c>
 8001bb8:	f5a2 7268 	sub.w	r2, r2, #928	; 0x3a0
 8001bbc:	4293      	cmp	r3, r2
 8001bbe:	f001 84bf 	beq.w	8003540 <HAL_DMA_IRQHandler+0x1f6c>
 8001bc2:	f502 6280 	add.w	r2, r2, #1024	; 0x400
 8001bc6:	4293      	cmp	r3, r2
 8001bc8:	bf0c      	ite	eq
 8001bca:	f44f 2280 	moveq.w	r2, #262144	; 0x40000
 8001bce:	f04f 7280 	movne.w	r2, #16777216	; 0x1000000
 8001bd2:	e000      	b.n	8001bd6 <HAL_DMA_IRQHandler+0x602>
 8001bd4:	4a29      	ldr	r2, [pc, #164]	; (8001c7c <HAL_DMA_IRQHandler+0x6a8>)
 8001bd6:	4211      	tst	r1, r2
 8001bd8:	f040 81be 	bne.w	8001f58 <HAL_DMA_IRQHandler+0x984>
 8001bdc:	4a1e      	ldr	r2, [pc, #120]	; (8001c58 <HAL_DMA_IRQHandler+0x684>)
 8001bde:	491f      	ldr	r1, [pc, #124]	; (8001c5c <HAL_DMA_IRQHandler+0x688>)
 8001be0:	4293      	cmp	r3, r2
 8001be2:	6849      	ldr	r1, [r1, #4]
 8001be4:	d04c      	beq.n	8001c80 <HAL_DMA_IRQHandler+0x6ac>
 8001be6:	f502 6280 	add.w	r2, r2, #1024	; 0x400
 8001bea:	4293      	cmp	r3, r2
 8001bec:	d048      	beq.n	8001c80 <HAL_DMA_IRQHandler+0x6ac>
 8001bee:	f5a2 7268 	sub.w	r2, r2, #928	; 0x3a0
 8001bf2:	4293      	cmp	r3, r2
 8001bf4:	d044      	beq.n	8001c80 <HAL_DMA_IRQHandler+0x6ac>
 8001bf6:	f502 6280 	add.w	r2, r2, #1024	; 0x400
 8001bfa:	4293      	cmp	r3, r2
 8001bfc:	d040      	beq.n	8001c80 <HAL_DMA_IRQHandler+0x6ac>
 8001bfe:	f5a2 6289 	sub.w	r2, r2, #1096	; 0x448
 8001c02:	4293      	cmp	r3, r2
 8001c04:	f001 82a8 	beq.w	8003158 <HAL_DMA_IRQHandler+0x1b84>
 8001c08:	f502 6280 	add.w	r2, r2, #1024	; 0x400
 8001c0c:	4293      	cmp	r3, r2
 8001c0e:	f001 82a3 	beq.w	8003158 <HAL_DMA_IRQHandler+0x1b84>
 8001c12:	f5a2 7268 	sub.w	r2, r2, #928	; 0x3a0
 8001c16:	4293      	cmp	r3, r2
 8001c18:	f001 829e 	beq.w	8003158 <HAL_DMA_IRQHandler+0x1b84>
 8001c1c:	f502 6280 	add.w	r2, r2, #1024	; 0x400
 8001c20:	4293      	cmp	r3, r2
 8001c22:	f001 8299 	beq.w	8003158 <HAL_DMA_IRQHandler+0x1b84>
 8001c26:	f5a2 6289 	sub.w	r2, r2, #1096	; 0x448
 8001c2a:	4293      	cmp	r3, r2
 8001c2c:	f001 847c 	beq.w	8003528 <HAL_DMA_IRQHandler+0x1f54>
 8001c30:	f502 6280 	add.w	r2, r2, #1024	; 0x400
 8001c34:	4293      	cmp	r3, r2
 8001c36:	f001 8477 	beq.w	8003528 <HAL_DMA_IRQHandler+0x1f54>
 8001c3a:	f5a2 7268 	sub.w	r2, r2, #928	; 0x3a0
 8001c3e:	4293      	cmp	r3, r2
 8001c40:	f001 8472 	beq.w	8003528 <HAL_DMA_IRQHandler+0x1f54>
 8001c44:	f502 6280 	add.w	r2, r2, #1024	; 0x400
 8001c48:	4293      	cmp	r3, r2
 8001c4a:	bf0c      	ite	eq
 8001c4c:	f44f 1280 	moveq.w	r2, #1048576	; 0x100000
 8001c50:	f04f 6280 	movne.w	r2, #67108864	; 0x4000000
 8001c54:	e015      	b.n	8001c82 <HAL_DMA_IRQHandler+0x6ae>
 8001c56:	bf00      	nop
 8001c58:	40026010 	.word	0x40026010
 8001c5c:	40026000 	.word	0x40026000
 8001c60:	40026410 	.word	0x40026410
 8001c64:	40026070 	.word	0x40026070
 8001c68:	00800001 	.word	0x00800001
 8001c6c:	40026400 	.word	0x40026400
 8001c70:	40026458 	.word	0x40026458
 8001c74:	400260b8 	.word	0x400260b8
 8001c78:	40026058 	.word	0x40026058
 8001c7c:	00800004 	.word	0x00800004
 8001c80:	2210      	movs	r2, #16
 8001c82:	4211      	tst	r1, r2
 8001c84:	f040 8214 	bne.w	80020b0 <HAL_DMA_IRQHandler+0xadc>
 8001c88:	4a99      	ldr	r2, [pc, #612]	; (8001ef0 <HAL_DMA_IRQHandler+0x91c>)
 8001c8a:	499a      	ldr	r1, [pc, #616]	; (8001ef4 <HAL_DMA_IRQHandler+0x920>)
 8001c8c:	4293      	cmp	r3, r2
 8001c8e:	6849      	ldr	r1, [r1, #4]
 8001c90:	f000 81af 	beq.w	8001ff2 <HAL_DMA_IRQHandler+0xa1e>
 8001c94:	f502 6280 	add.w	r2, r2, #1024	; 0x400
 8001c98:	4293      	cmp	r3, r2
 8001c9a:	f000 81aa 	beq.w	8001ff2 <HAL_DMA_IRQHandler+0xa1e>
 8001c9e:	f5a2 7268 	sub.w	r2, r2, #928	; 0x3a0
 8001ca2:	4293      	cmp	r3, r2
 8001ca4:	f000 81a5 	beq.w	8001ff2 <HAL_DMA_IRQHandler+0xa1e>
 8001ca8:	f502 6280 	add.w	r2, r2, #1024	; 0x400
 8001cac:	4293      	cmp	r3, r2
 8001cae:	f000 81a0 	beq.w	8001ff2 <HAL_DMA_IRQHandler+0xa1e>
 8001cb2:	f5a2 6289 	sub.w	r2, r2, #1096	; 0x448
 8001cb6:	4293      	cmp	r3, r2
 8001cb8:	f000 83ba 	beq.w	8002430 <HAL_DMA_IRQHandler+0xe5c>
 8001cbc:	f502 6280 	add.w	r2, r2, #1024	; 0x400
 8001cc0:	4293      	cmp	r3, r2
 8001cc2:	f000 83b5 	beq.w	8002430 <HAL_DMA_IRQHandler+0xe5c>
 8001cc6:	f5a2 7268 	sub.w	r2, r2, #928	; 0x3a0
 8001cca:	4293      	cmp	r3, r2
 8001ccc:	f000 83b0 	beq.w	8002430 <HAL_DMA_IRQHandler+0xe5c>
 8001cd0:	f502 6280 	add.w	r2, r2, #1024	; 0x400
 8001cd4:	4293      	cmp	r3, r2
 8001cd6:	f000 83ab 	beq.w	8002430 <HAL_DMA_IRQHandler+0xe5c>
 8001cda:	f5a2 6289 	sub.w	r2, r2, #1096	; 0x448
 8001cde:	4293      	cmp	r3, r2
 8001ce0:	f001 81e2 	beq.w	80030a8 <HAL_DMA_IRQHandler+0x1ad4>
 8001ce4:	f502 6280 	add.w	r2, r2, #1024	; 0x400
 8001ce8:	4293      	cmp	r3, r2
 8001cea:	f001 81dd 	beq.w	80030a8 <HAL_DMA_IRQHandler+0x1ad4>
 8001cee:	f5a2 7268 	sub.w	r2, r2, #928	; 0x3a0
 8001cf2:	4293      	cmp	r3, r2
 8001cf4:	f001 81d8 	beq.w	80030a8 <HAL_DMA_IRQHandler+0x1ad4>
 8001cf8:	f502 6280 	add.w	r2, r2, #1024	; 0x400
 8001cfc:	4293      	cmp	r3, r2
 8001cfe:	bf0c      	ite	eq
 8001d00:	f44f 1200 	moveq.w	r2, #2097152	; 0x200000
 8001d04:	f04f 6200 	movne.w	r2, #134217728	; 0x8000000
 8001d08:	e174      	b.n	8001ff4 <HAL_DMA_IRQHandler+0xa20>
 8001d0a:	072d      	lsls	r5, r5, #28
 8001d0c:	f141 8184 	bpl.w	8003018 <HAL_DMA_IRQHandler+0x1a44>
 8001d10:	681a      	ldr	r2, [r3, #0]
 8001d12:	0750      	lsls	r0, r2, #29
 8001d14:	f140 80a4 	bpl.w	8001e60 <HAL_DMA_IRQHandler+0x88c>
 8001d18:	681a      	ldr	r2, [r3, #0]
 8001d1a:	4875      	ldr	r0, [pc, #468]	; (8001ef0 <HAL_DMA_IRQHandler+0x91c>)
 8001d1c:	f022 0204 	bic.w	r2, r2, #4
 8001d20:	4283      	cmp	r3, r0
 8001d22:	601a      	str	r2, [r3, #0]
 8001d24:	f001 83bb 	beq.w	800349e <HAL_DMA_IRQHandler+0x1eca>
 8001d28:	4a73      	ldr	r2, [pc, #460]	; (8001ef8 <HAL_DMA_IRQHandler+0x924>)
 8001d2a:	4293      	cmp	r3, r2
 8001d2c:	f001 835b 	beq.w	80033e6 <HAL_DMA_IRQHandler+0x1e12>
 8001d30:	f5a2 7268 	sub.w	r2, r2, #928	; 0x3a0
 8001d34:	4293      	cmp	r3, r2
 8001d36:	f001 8356 	beq.w	80033e6 <HAL_DMA_IRQHandler+0x1e12>
 8001d3a:	f502 6280 	add.w	r2, r2, #1024	; 0x400
 8001d3e:	4293      	cmp	r3, r2
 8001d40:	f001 8351 	beq.w	80033e6 <HAL_DMA_IRQHandler+0x1e12>
 8001d44:	f5a2 6289 	sub.w	r2, r2, #1096	; 0x448
 8001d48:	4293      	cmp	r3, r2
 8001d4a:	f001 83e1 	beq.w	8003510 <HAL_DMA_IRQHandler+0x1f3c>
 8001d4e:	f502 6280 	add.w	r2, r2, #1024	; 0x400
 8001d52:	4293      	cmp	r3, r2
 8001d54:	f001 83dc 	beq.w	8003510 <HAL_DMA_IRQHandler+0x1f3c>
 8001d58:	f5a2 7268 	sub.w	r2, r2, #928	; 0x3a0
 8001d5c:	4293      	cmp	r3, r2
 8001d5e:	f001 83d7 	beq.w	8003510 <HAL_DMA_IRQHandler+0x1f3c>
 8001d62:	f502 6280 	add.w	r2, r2, #1024	; 0x400
 8001d66:	4293      	cmp	r3, r2
 8001d68:	f001 83d2 	beq.w	8003510 <HAL_DMA_IRQHandler+0x1f3c>
 8001d6c:	f5a2 6289 	sub.w	r2, r2, #1096	; 0x448
 8001d70:	4293      	cmp	r3, r2
 8001d72:	f001 8465 	beq.w	8003640 <HAL_DMA_IRQHandler+0x206c>
 8001d76:	f502 6280 	add.w	r2, r2, #1024	; 0x400
 8001d7a:	4293      	cmp	r3, r2
 8001d7c:	f001 8460 	beq.w	8003640 <HAL_DMA_IRQHandler+0x206c>
 8001d80:	f5a2 7268 	sub.w	r2, r2, #928	; 0x3a0
 8001d84:	4293      	cmp	r3, r2
 8001d86:	f001 845b 	beq.w	8003640 <HAL_DMA_IRQHandler+0x206c>
 8001d8a:	f502 6280 	add.w	r2, r2, #1024	; 0x400
 8001d8e:	4293      	cmp	r3, r2
 8001d90:	bf14      	ite	ne
 8001d92:	f04f 7200 	movne.w	r2, #33554432	; 0x2000000
 8001d96:	f44f 2200 	moveq.w	r2, #524288	; 0x80000
 8001d9a:	4856      	ldr	r0, [pc, #344]	; (8001ef4 <HAL_DMA_IRQHandler+0x920>)
 8001d9c:	6ca5      	ldr	r5, [r4, #72]	; 0x48
 8001d9e:	6082      	str	r2, [r0, #8]
 8001da0:	6ce2      	ldr	r2, [r4, #76]	; 0x4c
 8001da2:	f042 0201 	orr.w	r2, r2, #1
 8001da6:	64e2      	str	r2, [r4, #76]	; 0x4c
 8001da8:	2604      	movs	r6, #4
 8001daa:	2200      	movs	r2, #0
 8001dac:	f884 6035 	strb.w	r6, [r4, #53]	; 0x35
 8001db0:	f884 2034 	strb.w	r2, [r4, #52]	; 0x34
 8001db4:	2d00      	cmp	r5, #0
 8001db6:	d14b      	bne.n	8001e50 <HAL_DMA_IRQHandler+0x87c>
 8001db8:	6800      	ldr	r0, [r0, #0]
 8001dba:	4a4f      	ldr	r2, [pc, #316]	; (8001ef8 <HAL_DMA_IRQHandler+0x924>)
 8001dbc:	4293      	cmp	r3, r2
 8001dbe:	f001 812c 	beq.w	800301a <HAL_DMA_IRQHandler+0x1a46>
 8001dc2:	f5a2 7268 	sub.w	r2, r2, #928	; 0x3a0
 8001dc6:	4293      	cmp	r3, r2
 8001dc8:	f001 8127 	beq.w	800301a <HAL_DMA_IRQHandler+0x1a46>
 8001dcc:	f502 6280 	add.w	r2, r2, #1024	; 0x400
 8001dd0:	4293      	cmp	r3, r2
 8001dd2:	f001 8122 	beq.w	800301a <HAL_DMA_IRQHandler+0x1a46>
 8001dd6:	f5a2 6289 	sub.w	r2, r2, #1096	; 0x448
 8001dda:	4293      	cmp	r3, r2
 8001ddc:	f001 81f4 	beq.w	80031c8 <HAL_DMA_IRQHandler+0x1bf4>
 8001de0:	f502 6280 	add.w	r2, r2, #1024	; 0x400
 8001de4:	4293      	cmp	r3, r2
 8001de6:	f001 81ef 	beq.w	80031c8 <HAL_DMA_IRQHandler+0x1bf4>
 8001dea:	f5a2 7268 	sub.w	r2, r2, #928	; 0x3a0
 8001dee:	4293      	cmp	r3, r2
 8001df0:	f001 81ea 	beq.w	80031c8 <HAL_DMA_IRQHandler+0x1bf4>
 8001df4:	f502 6280 	add.w	r2, r2, #1024	; 0x400
 8001df8:	4293      	cmp	r3, r2
 8001dfa:	f001 81e5 	beq.w	80031c8 <HAL_DMA_IRQHandler+0x1bf4>
 8001dfe:	f5a2 6289 	sub.w	r2, r2, #1096	; 0x448
 8001e02:	4293      	cmp	r3, r2
 8001e04:	f001 8406 	beq.w	8003614 <HAL_DMA_IRQHandler+0x2040>
 8001e08:	f502 6280 	add.w	r2, r2, #1024	; 0x400
 8001e0c:	4293      	cmp	r3, r2
 8001e0e:	f001 8401 	beq.w	8003614 <HAL_DMA_IRQHandler+0x2040>
 8001e12:	f5a2 7268 	sub.w	r2, r2, #928	; 0x3a0
 8001e16:	4293      	cmp	r3, r2
 8001e18:	f001 83fc 	beq.w	8003614 <HAL_DMA_IRQHandler+0x2040>
 8001e1c:	f502 6280 	add.w	r2, r2, #1024	; 0x400
 8001e20:	4293      	cmp	r3, r2
 8001e22:	bf0c      	ite	eq
 8001e24:	f44f 3280 	moveq.w	r2, #65536	; 0x10000
 8001e28:	f44f 0280 	movne.w	r2, #4194304	; 0x400000
 8001e2c:	e5a2      	b.n	8001974 <HAL_DMA_IRQHandler+0x3a0>
 8001e2e:	2208      	movs	r2, #8
 8001e30:	4932      	ldr	r1, [pc, #200]	; (8001efc <HAL_DMA_IRQHandler+0x928>)
 8001e32:	6ca5      	ldr	r5, [r4, #72]	; 0x48
 8001e34:	60ca      	str	r2, [r1, #12]
 8001e36:	6ce2      	ldr	r2, [r4, #76]	; 0x4c
 8001e38:	2004      	movs	r0, #4
 8001e3a:	f042 0201 	orr.w	r2, r2, #1
 8001e3e:	2600      	movs	r6, #0
 8001e40:	64e2      	str	r2, [r4, #76]	; 0x4c
 8001e42:	f884 6034 	strb.w	r6, [r4, #52]	; 0x34
 8001e46:	f884 0035 	strb.w	r0, [r4, #53]	; 0x35
 8001e4a:	2d00      	cmp	r5, #0
 8001e4c:	f001 816f 	beq.w	800312e <HAL_DMA_IRQHandler+0x1b5a>
 8001e50:	4620      	mov	r0, r4
 8001e52:	47a8      	blx	r5
 8001e54:	6823      	ldr	r3, [r4, #0]
 8001e56:	4a2a      	ldr	r2, [pc, #168]	; (8001f00 <HAL_DMA_IRQHandler+0x92c>)
 8001e58:	4293      	cmp	r3, r2
 8001e5a:	4619      	mov	r1, r3
 8001e5c:	f63f acf3 	bhi.w	8001846 <HAL_DMA_IRQHandler+0x272>
 8001e60:	4a28      	ldr	r2, [pc, #160]	; (8001f04 <HAL_DMA_IRQHandler+0x930>)
 8001e62:	4293      	cmp	r3, r2
 8001e64:	f240 8401 	bls.w	800266a <HAL_DMA_IRQHandler+0x1096>
 8001e68:	4824      	ldr	r0, [pc, #144]	; (8001efc <HAL_DMA_IRQHandler+0x928>)
 8001e6a:	3aa8      	subs	r2, #168	; 0xa8
 8001e6c:	4293      	cmp	r3, r2
 8001e6e:	6800      	ldr	r0, [r0, #0]
 8001e70:	f001 80ff 	beq.w	8003072 <HAL_DMA_IRQHandler+0x1a9e>
 8001e74:	4a20      	ldr	r2, [pc, #128]	; (8001ef8 <HAL_DMA_IRQHandler+0x924>)
 8001e76:	4293      	cmp	r3, r2
 8001e78:	f43f ae0a 	beq.w	8001a90 <HAL_DMA_IRQHandler+0x4bc>
 8001e7c:	f5a2 7268 	sub.w	r2, r2, #928	; 0x3a0
 8001e80:	4293      	cmp	r3, r2
 8001e82:	f43f ae05 	beq.w	8001a90 <HAL_DMA_IRQHandler+0x4bc>
 8001e86:	f502 6280 	add.w	r2, r2, #1024	; 0x400
 8001e8a:	4293      	cmp	r3, r2
 8001e8c:	f43f ae00 	beq.w	8001a90 <HAL_DMA_IRQHandler+0x4bc>
 8001e90:	f5a2 6289 	sub.w	r2, r2, #1096	; 0x448
 8001e94:	4293      	cmp	r3, r2
 8001e96:	f001 8144 	beq.w	8003122 <HAL_DMA_IRQHandler+0x1b4e>
 8001e9a:	f502 6280 	add.w	r2, r2, #1024	; 0x400
 8001e9e:	4293      	cmp	r3, r2
 8001ea0:	f001 813f 	beq.w	8003122 <HAL_DMA_IRQHandler+0x1b4e>
 8001ea4:	f5a2 7268 	sub.w	r2, r2, #928	; 0x3a0
 8001ea8:	4293      	cmp	r3, r2
 8001eaa:	f001 813a 	beq.w	8003122 <HAL_DMA_IRQHandler+0x1b4e>
 8001eae:	f502 6280 	add.w	r2, r2, #1024	; 0x400
 8001eb2:	4293      	cmp	r3, r2
 8001eb4:	f001 8135 	beq.w	8003122 <HAL_DMA_IRQHandler+0x1b4e>
 8001eb8:	f5a2 6289 	sub.w	r2, r2, #1096	; 0x448
 8001ebc:	4293      	cmp	r3, r2
 8001ebe:	f001 834f 	beq.w	8003560 <HAL_DMA_IRQHandler+0x1f8c>
 8001ec2:	f502 6280 	add.w	r2, r2, #1024	; 0x400
 8001ec6:	4293      	cmp	r3, r2
 8001ec8:	f001 834a 	beq.w	8003560 <HAL_DMA_IRQHandler+0x1f8c>
 8001ecc:	f5a2 7268 	sub.w	r2, r2, #928	; 0x3a0
 8001ed0:	4293      	cmp	r3, r2
 8001ed2:	f001 8345 	beq.w	8003560 <HAL_DMA_IRQHandler+0x1f8c>
 8001ed6:	f502 6280 	add.w	r2, r2, #1024	; 0x400
 8001eda:	4293      	cmp	r3, r2
 8001edc:	bf0c      	ite	eq
 8001ede:	f44f 3280 	moveq.w	r2, #65536	; 0x10000
 8001ee2:	f44f 0280 	movne.w	r2, #4194304	; 0x400000
 8001ee6:	e5d4      	b.n	8001a92 <HAL_DMA_IRQHandler+0x4be>
 8001ee8:	6851      	ldr	r1, [r2, #4]
 8001eea:	2240      	movs	r2, #64	; 0x40
 8001eec:	f7ff bbc1 	b.w	8001672 <HAL_DMA_IRQHandler+0x9e>
 8001ef0:	40026010 	.word	0x40026010
 8001ef4:	40026000 	.word	0x40026000
 8001ef8:	40026410 	.word	0x40026410
 8001efc:	40026400 	.word	0x40026400
 8001f00:	40026458 	.word	0x40026458
 8001f04:	400260b8 	.word	0x400260b8
 8001f08:	6823      	ldr	r3, [r4, #0]
 8001f0a:	4aba      	ldr	r2, [pc, #744]	; (80021f4 <HAL_DMA_IRQHandler+0xc20>)
 8001f0c:	49ba      	ldr	r1, [pc, #744]	; (80021f8 <HAL_DMA_IRQHandler+0xc24>)
 8001f0e:	4293      	cmp	r3, r2
 8001f10:	6849      	ldr	r1, [r1, #4]
 8001f12:	f000 81de 	beq.w	80022d2 <HAL_DMA_IRQHandler+0xcfe>
 8001f16:	f502 6280 	add.w	r2, r2, #1024	; 0x400
 8001f1a:	4293      	cmp	r3, r2
 8001f1c:	f000 81d9 	beq.w	80022d2 <HAL_DMA_IRQHandler+0xcfe>
 8001f20:	f5a2 7268 	sub.w	r2, r2, #928	; 0x3a0
 8001f24:	4293      	cmp	r3, r2
 8001f26:	f000 81d4 	beq.w	80022d2 <HAL_DMA_IRQHandler+0xcfe>
 8001f2a:	f502 6280 	add.w	r2, r2, #1024	; 0x400
 8001f2e:	4293      	cmp	r3, r2
 8001f30:	f000 81cf 	beq.w	80022d2 <HAL_DMA_IRQHandler+0xcfe>
 8001f34:	f5a2 6289 	sub.w	r2, r2, #1096	; 0x448
 8001f38:	4293      	cmp	r3, r2
 8001f3a:	d008      	beq.n	8001f4e <HAL_DMA_IRQHandler+0x97a>
 8001f3c:	f502 6280 	add.w	r2, r2, #1024	; 0x400
 8001f40:	4293      	cmp	r3, r2
 8001f42:	d004      	beq.n	8001f4e <HAL_DMA_IRQHandler+0x97a>
 8001f44:	f5a2 7268 	sub.w	r2, r2, #928	; 0x3a0
 8001f48:	4293      	cmp	r3, r2
 8001f4a:	f040 8690 	bne.w	8002c6e <HAL_DMA_IRQHandler+0x169a>
 8001f4e:	f44f 7280 	mov.w	r2, #256	; 0x100
 8001f52:	4211      	tst	r1, r2
 8001f54:	f000 8104 	beq.w	8002160 <HAL_DMA_IRQHandler+0xb8c>
 8001f58:	681a      	ldr	r2, [r3, #0]
 8001f5a:	0792      	lsls	r2, r2, #30
 8001f5c:	d526      	bpl.n	8001fac <HAL_DMA_IRQHandler+0x9d8>
 8001f5e:	681a      	ldr	r2, [r3, #0]
 8001f60:	49a6      	ldr	r1, [pc, #664]	; (80021fc <HAL_DMA_IRQHandler+0xc28>)
 8001f62:	f022 0202 	bic.w	r2, r2, #2
 8001f66:	428b      	cmp	r3, r1
 8001f68:	601a      	str	r2, [r3, #0]
 8001f6a:	f240 82c0 	bls.w	80024ee <HAL_DMA_IRQHandler+0xf1a>
 8001f6e:	4aa1      	ldr	r2, [pc, #644]	; (80021f4 <HAL_DMA_IRQHandler+0xc20>)
 8001f70:	4293      	cmp	r3, r2
 8001f72:	d008      	beq.n	8001f86 <HAL_DMA_IRQHandler+0x9b2>
 8001f74:	f502 6280 	add.w	r2, r2, #1024	; 0x400
 8001f78:	4293      	cmp	r3, r2
 8001f7a:	d004      	beq.n	8001f86 <HAL_DMA_IRQHandler+0x9b2>
 8001f7c:	f5a2 7268 	sub.w	r2, r2, #928	; 0x3a0
 8001f80:	4293      	cmp	r3, r2
 8001f82:	f040 8643 	bne.w	8002c0c <HAL_DMA_IRQHandler+0x1638>
 8001f86:	489e      	ldr	r0, [pc, #632]	; (8002200 <HAL_DMA_IRQHandler+0xc2c>)
 8001f88:	499b      	ldr	r1, [pc, #620]	; (80021f8 <HAL_DMA_IRQHandler+0xc24>)
 8001f8a:	6ca2      	ldr	r2, [r4, #72]	; 0x48
 8001f8c:	60c8      	str	r0, [r1, #12]
 8001f8e:	6ce1      	ldr	r1, [r4, #76]	; 0x4c
 8001f90:	2004      	movs	r0, #4
 8001f92:	4301      	orrs	r1, r0
 8001f94:	2500      	movs	r5, #0
 8001f96:	64e1      	str	r1, [r4, #76]	; 0x4c
 8001f98:	f884 5034 	strb.w	r5, [r4, #52]	; 0x34
 8001f9c:	f884 0035 	strb.w	r0, [r4, #53]	; 0x35
 8001fa0:	2a00      	cmp	r2, #0
 8001fa2:	f000 80dd 	beq.w	8002160 <HAL_DMA_IRQHandler+0xb8c>
 8001fa6:	4620      	mov	r0, r4
 8001fa8:	4790      	blx	r2
 8001faa:	6823      	ldr	r3, [r4, #0]
 8001fac:	4a93      	ldr	r2, [pc, #588]	; (80021fc <HAL_DMA_IRQHandler+0xc28>)
 8001fae:	4293      	cmp	r3, r2
 8001fb0:	f200 80d6 	bhi.w	8002160 <HAL_DMA_IRQHandler+0xb8c>
 8001fb4:	4a93      	ldr	r2, [pc, #588]	; (8002204 <HAL_DMA_IRQHandler+0xc30>)
 8001fb6:	4293      	cmp	r3, r2
 8001fb8:	f200 8193 	bhi.w	80022e2 <HAL_DMA_IRQHandler+0xd0e>
 8001fbc:	4a92      	ldr	r2, [pc, #584]	; (8002208 <HAL_DMA_IRQHandler+0xc34>)
 8001fbe:	4293      	cmp	r3, r2
 8001fc0:	f63f ae0c 	bhi.w	8001bdc <HAL_DMA_IRQHandler+0x608>
 8001fc4:	4a8b      	ldr	r2, [pc, #556]	; (80021f4 <HAL_DMA_IRQHandler+0xc20>)
 8001fc6:	4991      	ldr	r1, [pc, #580]	; (800220c <HAL_DMA_IRQHandler+0xc38>)
 8001fc8:	4293      	cmp	r3, r2
 8001fca:	6809      	ldr	r1, [r1, #0]
 8001fcc:	d008      	beq.n	8001fe0 <HAL_DMA_IRQHandler+0xa0c>
 8001fce:	f502 6280 	add.w	r2, r2, #1024	; 0x400
 8001fd2:	4293      	cmp	r3, r2
 8001fd4:	d004      	beq.n	8001fe0 <HAL_DMA_IRQHandler+0xa0c>
 8001fd6:	f5a2 7268 	sub.w	r2, r2, #928	; 0x3a0
 8001fda:	4293      	cmp	r3, r2
 8001fdc:	f040 85e4 	bne.w	8002ba8 <HAL_DMA_IRQHandler+0x15d4>
 8001fe0:	2210      	movs	r2, #16
 8001fe2:	4211      	tst	r1, r2
 8001fe4:	d164      	bne.n	80020b0 <HAL_DMA_IRQHandler+0xadc>
 8001fe6:	4a83      	ldr	r2, [pc, #524]	; (80021f4 <HAL_DMA_IRQHandler+0xc20>)
 8001fe8:	4988      	ldr	r1, [pc, #544]	; (800220c <HAL_DMA_IRQHandler+0xc38>)
 8001fea:	4293      	cmp	r3, r2
 8001fec:	6809      	ldr	r1, [r1, #0]
 8001fee:	f47f ae51 	bne.w	8001c94 <HAL_DMA_IRQHandler+0x6c0>
 8001ff2:	2220      	movs	r2, #32
 8001ff4:	4211      	tst	r1, r2
 8001ff6:	bf14      	ite	ne
 8001ff8:	2201      	movne	r2, #1
 8001ffa:	2200      	moveq	r2, #0
 8001ffc:	2a00      	cmp	r2, #0
 8001ffe:	d052      	beq.n	80020a6 <HAL_DMA_IRQHandler+0xad2>
 8002000:	681a      	ldr	r2, [r3, #0]
 8002002:	06d6      	lsls	r6, r2, #27
 8002004:	d54f      	bpl.n	80020a6 <HAL_DMA_IRQHandler+0xad2>
 8002006:	681a      	ldr	r2, [r3, #0]
 8002008:	0355      	lsls	r5, r2, #13
 800200a:	f140 8214 	bpl.w	8002436 <HAL_DMA_IRQHandler+0xe62>
 800200e:	4a7b      	ldr	r2, [pc, #492]	; (80021fc <HAL_DMA_IRQHandler+0xc28>)
 8002010:	4293      	cmp	r3, r2
 8002012:	f240 8499 	bls.w	8002948 <HAL_DMA_IRQHandler+0x1374>
 8002016:	f5a2 6289 	sub.w	r2, r2, #1096	; 0x448
 800201a:	4293      	cmp	r3, r2
 800201c:	f001 800b 	beq.w	8003036 <HAL_DMA_IRQHandler+0x1a62>
 8002020:	f502 6280 	add.w	r2, r2, #1024	; 0x400
 8002024:	4293      	cmp	r3, r2
 8002026:	f001 8006 	beq.w	8003036 <HAL_DMA_IRQHandler+0x1a62>
 800202a:	f5a2 7268 	sub.w	r2, r2, #928	; 0x3a0
 800202e:	4293      	cmp	r3, r2
 8002030:	f001 8001 	beq.w	8003036 <HAL_DMA_IRQHandler+0x1a62>
 8002034:	f502 6280 	add.w	r2, r2, #1024	; 0x400
 8002038:	4293      	cmp	r3, r2
 800203a:	f000 87fc 	beq.w	8003036 <HAL_DMA_IRQHandler+0x1a62>
 800203e:	f5a2 6289 	sub.w	r2, r2, #1096	; 0x448
 8002042:	4293      	cmp	r3, r2
 8002044:	f001 8208 	beq.w	8003458 <HAL_DMA_IRQHandler+0x1e84>
 8002048:	f502 6280 	add.w	r2, r2, #1024	; 0x400
 800204c:	4293      	cmp	r3, r2
 800204e:	f001 8203 	beq.w	8003458 <HAL_DMA_IRQHandler+0x1e84>
 8002052:	f5a2 7268 	sub.w	r2, r2, #928	; 0x3a0
 8002056:	4293      	cmp	r3, r2
 8002058:	f001 81fe 	beq.w	8003458 <HAL_DMA_IRQHandler+0x1e84>
 800205c:	f502 6280 	add.w	r2, r2, #1024	; 0x400
 8002060:	4293      	cmp	r3, r2
 8002062:	f001 81f9 	beq.w	8003458 <HAL_DMA_IRQHandler+0x1e84>
 8002066:	f5a2 6289 	sub.w	r2, r2, #1096	; 0x448
 800206a:	4293      	cmp	r3, r2
 800206c:	f001 82da 	beq.w	8003624 <HAL_DMA_IRQHandler+0x2050>
 8002070:	f502 6280 	add.w	r2, r2, #1024	; 0x400
 8002074:	4293      	cmp	r3, r2
 8002076:	f001 82d5 	beq.w	8003624 <HAL_DMA_IRQHandler+0x2050>
 800207a:	f5a2 7268 	sub.w	r2, r2, #928	; 0x3a0
 800207e:	4293      	cmp	r3, r2
 8002080:	f001 82d0 	beq.w	8003624 <HAL_DMA_IRQHandler+0x2050>
 8002084:	4962      	ldr	r1, [pc, #392]	; (8002210 <HAL_DMA_IRQHandler+0xc3c>)
 8002086:	428b      	cmp	r3, r1
 8002088:	bf0c      	ite	eq
 800208a:	f44f 1100 	moveq.w	r1, #2097152	; 0x200000
 800208e:	f04f 6100 	movne.w	r1, #134217728	; 0x8000000
 8002092:	4a59      	ldr	r2, [pc, #356]	; (80021f8 <HAL_DMA_IRQHandler+0xc24>)
 8002094:	60d1      	str	r1, [r2, #12]
 8002096:	681a      	ldr	r2, [r3, #0]
 8002098:	0310      	lsls	r0, r2, #12
 800209a:	f101 802b 	bmi.w	80030f4 <HAL_DMA_IRQHandler+0x1b20>
 800209e:	6c63      	ldr	r3, [r4, #68]	; 0x44
 80020a0:	2b00      	cmp	r3, #0
 80020a2:	f040 8220 	bne.w	80024e6 <HAL_DMA_IRQHandler+0xf12>
 80020a6:	bd70      	pop	{r4, r5, r6, pc}
 80020a8:	2210      	movs	r2, #16
 80020aa:	4211      	tst	r1, r2
 80020ac:	f000 81b9 	beq.w	8002422 <HAL_DMA_IRQHandler+0xe4e>
 80020b0:	681a      	ldr	r2, [r3, #0]
 80020b2:	0716      	lsls	r6, r2, #28
 80020b4:	f140 8101 	bpl.w	80022ba <HAL_DMA_IRQHandler+0xce6>
 80020b8:	681a      	ldr	r2, [r3, #0]
 80020ba:	0355      	lsls	r5, r2, #13
 80020bc:	f140 80aa 	bpl.w	8002214 <HAL_DMA_IRQHandler+0xc40>
 80020c0:	4a4e      	ldr	r2, [pc, #312]	; (80021fc <HAL_DMA_IRQHandler+0xc28>)
 80020c2:	4293      	cmp	r3, r2
 80020c4:	f240 848a 	bls.w	80029dc <HAL_DMA_IRQHandler+0x1408>
 80020c8:	f5a2 6289 	sub.w	r2, r2, #1096	; 0x448
 80020cc:	4293      	cmp	r3, r2
 80020ce:	f000 87bb 	beq.w	8003048 <HAL_DMA_IRQHandler+0x1a74>
 80020d2:	f502 6280 	add.w	r2, r2, #1024	; 0x400
 80020d6:	4293      	cmp	r3, r2
 80020d8:	f000 87b6 	beq.w	8003048 <HAL_DMA_IRQHandler+0x1a74>
 80020dc:	f5a2 7268 	sub.w	r2, r2, #928	; 0x3a0
 80020e0:	4293      	cmp	r3, r2
 80020e2:	f000 87b1 	beq.w	8003048 <HAL_DMA_IRQHandler+0x1a74>
 80020e6:	f502 6280 	add.w	r2, r2, #1024	; 0x400
 80020ea:	4293      	cmp	r3, r2
 80020ec:	f000 87ac 	beq.w	8003048 <HAL_DMA_IRQHandler+0x1a74>
 80020f0:	f5a2 6289 	sub.w	r2, r2, #1096	; 0x448
 80020f4:	4293      	cmp	r3, r2
 80020f6:	f001 81bf 	beq.w	8003478 <HAL_DMA_IRQHandler+0x1ea4>
 80020fa:	f502 6280 	add.w	r2, r2, #1024	; 0x400
 80020fe:	4293      	cmp	r3, r2
 8002100:	f001 81ba 	beq.w	8003478 <HAL_DMA_IRQHandler+0x1ea4>
 8002104:	f5a2 7268 	sub.w	r2, r2, #928	; 0x3a0
 8002108:	4293      	cmp	r3, r2
 800210a:	f001 81b5 	beq.w	8003478 <HAL_DMA_IRQHandler+0x1ea4>
 800210e:	f502 6280 	add.w	r2, r2, #1024	; 0x400
 8002112:	4293      	cmp	r3, r2
 8002114:	f001 81b0 	beq.w	8003478 <HAL_DMA_IRQHandler+0x1ea4>
 8002118:	f5a2 6289 	sub.w	r2, r2, #1096	; 0x448
 800211c:	4293      	cmp	r3, r2
 800211e:	f001 826d 	beq.w	80035fc <HAL_DMA_IRQHandler+0x2028>
 8002122:	f502 6280 	add.w	r2, r2, #1024	; 0x400
 8002126:	4293      	cmp	r3, r2
 8002128:	f001 8268 	beq.w	80035fc <HAL_DMA_IRQHandler+0x2028>
 800212c:	f5a2 7268 	sub.w	r2, r2, #928	; 0x3a0
 8002130:	4293      	cmp	r3, r2
 8002132:	f001 8263 	beq.w	80035fc <HAL_DMA_IRQHandler+0x2028>
 8002136:	4936      	ldr	r1, [pc, #216]	; (8002210 <HAL_DMA_IRQHandler+0xc3c>)
 8002138:	428b      	cmp	r3, r1
 800213a:	bf0c      	ite	eq
 800213c:	f44f 1180 	moveq.w	r1, #1048576	; 0x100000
 8002140:	f04f 6180 	movne.w	r1, #67108864	; 0x4000000
 8002144:	4a2c      	ldr	r2, [pc, #176]	; (80021f8 <HAL_DMA_IRQHandler+0xc24>)
 8002146:	60d1      	str	r1, [r2, #12]
 8002148:	681a      	ldr	r2, [r3, #0]
 800214a:	0310      	lsls	r0, r2, #12
 800214c:	f140 80ad 	bpl.w	80022aa <HAL_DMA_IRQHandler+0xcd6>
 8002150:	681a      	ldr	r2, [r3, #0]
 8002152:	0311      	lsls	r1, r2, #12
 8002154:	f140 80ac 	bpl.w	80022b0 <HAL_DMA_IRQHandler+0xcdc>
 8002158:	2241      	movs	r2, #65	; 0x41
 800215a:	f884 2035 	strb.w	r2, [r4, #53]	; 0x35
 800215e:	e0a7      	b.n	80022b0 <HAL_DMA_IRQHandler+0xcdc>
 8002160:	4a24      	ldr	r2, [pc, #144]	; (80021f4 <HAL_DMA_IRQHandler+0xc20>)
 8002162:	4925      	ldr	r1, [pc, #148]	; (80021f8 <HAL_DMA_IRQHandler+0xc24>)
 8002164:	4293      	cmp	r3, r2
 8002166:	6849      	ldr	r1, [r1, #4]
 8002168:	f000 80b5 	beq.w	80022d6 <HAL_DMA_IRQHandler+0xd02>
 800216c:	f502 6280 	add.w	r2, r2, #1024	; 0x400
 8002170:	4293      	cmp	r3, r2
 8002172:	f000 80b0 	beq.w	80022d6 <HAL_DMA_IRQHandler+0xd02>
 8002176:	f5a2 7268 	sub.w	r2, r2, #928	; 0x3a0
 800217a:	4293      	cmp	r3, r2
 800217c:	f000 80ab 	beq.w	80022d6 <HAL_DMA_IRQHandler+0xd02>
 8002180:	f502 6280 	add.w	r2, r2, #1024	; 0x400
 8002184:	4293      	cmp	r3, r2
 8002186:	f000 80a6 	beq.w	80022d6 <HAL_DMA_IRQHandler+0xd02>
 800218a:	f5a2 6289 	sub.w	r2, r2, #1096	; 0x448
 800218e:	4293      	cmp	r3, r2
 8002190:	d023      	beq.n	80021da <HAL_DMA_IRQHandler+0xc06>
 8002192:	f502 6280 	add.w	r2, r2, #1024	; 0x400
 8002196:	4293      	cmp	r3, r2
 8002198:	d01f      	beq.n	80021da <HAL_DMA_IRQHandler+0xc06>
 800219a:	f5a2 7268 	sub.w	r2, r2, #928	; 0x3a0
 800219e:	4293      	cmp	r3, r2
 80021a0:	d01b      	beq.n	80021da <HAL_DMA_IRQHandler+0xc06>
 80021a2:	f502 6280 	add.w	r2, r2, #1024	; 0x400
 80021a6:	4293      	cmp	r3, r2
 80021a8:	d017      	beq.n	80021da <HAL_DMA_IRQHandler+0xc06>
 80021aa:	f5a2 6289 	sub.w	r2, r2, #1096	; 0x448
 80021ae:	4293      	cmp	r3, r2
 80021b0:	f000 87f6 	beq.w	80031a0 <HAL_DMA_IRQHandler+0x1bcc>
 80021b4:	f502 6280 	add.w	r2, r2, #1024	; 0x400
 80021b8:	4293      	cmp	r3, r2
 80021ba:	f000 87f1 	beq.w	80031a0 <HAL_DMA_IRQHandler+0x1bcc>
 80021be:	f5a2 7268 	sub.w	r2, r2, #928	; 0x3a0
 80021c2:	4293      	cmp	r3, r2
 80021c4:	f000 87ec 	beq.w	80031a0 <HAL_DMA_IRQHandler+0x1bcc>
 80021c8:	f502 6280 	add.w	r2, r2, #1024	; 0x400
 80021cc:	4293      	cmp	r3, r2
 80021ce:	bf0c      	ite	eq
 80021d0:	f44f 1280 	moveq.w	r2, #1048576	; 0x100000
 80021d4:	f04f 6280 	movne.w	r2, #67108864	; 0x4000000
 80021d8:	e001      	b.n	80021de <HAL_DMA_IRQHandler+0xc0a>
 80021da:	f44f 6280 	mov.w	r2, #1024	; 0x400
 80021de:	4211      	tst	r1, r2
 80021e0:	f47f af66 	bne.w	80020b0 <HAL_DMA_IRQHandler+0xadc>
 80021e4:	4a03      	ldr	r2, [pc, #12]	; (80021f4 <HAL_DMA_IRQHandler+0xc20>)
 80021e6:	4904      	ldr	r1, [pc, #16]	; (80021f8 <HAL_DMA_IRQHandler+0xc24>)
 80021e8:	4293      	cmp	r3, r2
 80021ea:	6849      	ldr	r1, [r1, #4]
 80021ec:	f47f ad52 	bne.w	8001c94 <HAL_DMA_IRQHandler+0x6c0>
 80021f0:	e6ff      	b.n	8001ff2 <HAL_DMA_IRQHandler+0xa1e>
 80021f2:	bf00      	nop
 80021f4:	40026010 	.word	0x40026010
 80021f8:	40026400 	.word	0x40026400
 80021fc:	40026458 	.word	0x40026458
 8002200:	00800004 	.word	0x00800004
 8002204:	400260b8 	.word	0x400260b8
 8002208:	40026058 	.word	0x40026058
 800220c:	40026000 	.word	0x40026000
 8002210:	400264a0 	.word	0x400264a0
 8002214:	681a      	ldr	r2, [r3, #0]
 8002216:	05d2      	lsls	r2, r2, #23
 8002218:	d403      	bmi.n	8002222 <HAL_DMA_IRQHandler+0xc4e>
 800221a:	681a      	ldr	r2, [r3, #0]
 800221c:	f022 0208 	bic.w	r2, r2, #8
 8002220:	601a      	str	r2, [r3, #0]
 8002222:	4adb      	ldr	r2, [pc, #876]	; (8002590 <HAL_DMA_IRQHandler+0xfbc>)
 8002224:	4293      	cmp	r3, r2
 8002226:	f240 846c 	bls.w	8002b02 <HAL_DMA_IRQHandler+0x152e>
 800222a:	f5a2 6289 	sub.w	r2, r2, #1096	; 0x448
 800222e:	4293      	cmp	r3, r2
 8002230:	f000 8707 	beq.w	8003042 <HAL_DMA_IRQHandler+0x1a6e>
 8002234:	f502 6280 	add.w	r2, r2, #1024	; 0x400
 8002238:	4293      	cmp	r3, r2
 800223a:	f000 8702 	beq.w	8003042 <HAL_DMA_IRQHandler+0x1a6e>
 800223e:	f5a2 7268 	sub.w	r2, r2, #928	; 0x3a0
 8002242:	4293      	cmp	r3, r2
 8002244:	f000 86fd 	beq.w	8003042 <HAL_DMA_IRQHandler+0x1a6e>
 8002248:	f502 6280 	add.w	r2, r2, #1024	; 0x400
 800224c:	4293      	cmp	r3, r2
 800224e:	f000 86f8 	beq.w	8003042 <HAL_DMA_IRQHandler+0x1a6e>
 8002252:	f5a2 6289 	sub.w	r2, r2, #1096	; 0x448
 8002256:	4293      	cmp	r3, r2
 8002258:	f001 80fa 	beq.w	8003450 <HAL_DMA_IRQHandler+0x1e7c>
 800225c:	f502 6280 	add.w	r2, r2, #1024	; 0x400
 8002260:	4293      	cmp	r3, r2
 8002262:	f001 80f5 	beq.w	8003450 <HAL_DMA_IRQHandler+0x1e7c>
 8002266:	f5a2 7268 	sub.w	r2, r2, #928	; 0x3a0
 800226a:	4293      	cmp	r3, r2
 800226c:	f001 80f0 	beq.w	8003450 <HAL_DMA_IRQHandler+0x1e7c>
 8002270:	f502 6280 	add.w	r2, r2, #1024	; 0x400
 8002274:	4293      	cmp	r3, r2
 8002276:	f001 80eb 	beq.w	8003450 <HAL_DMA_IRQHandler+0x1e7c>
 800227a:	f5a2 6289 	sub.w	r2, r2, #1096	; 0x448
 800227e:	4293      	cmp	r3, r2
 8002280:	f001 81cc 	beq.w	800361c <HAL_DMA_IRQHandler+0x2048>
 8002284:	f502 6280 	add.w	r2, r2, #1024	; 0x400
 8002288:	4293      	cmp	r3, r2
 800228a:	f001 81c7 	beq.w	800361c <HAL_DMA_IRQHandler+0x2048>
 800228e:	f5a2 7268 	sub.w	r2, r2, #928	; 0x3a0
 8002292:	4293      	cmp	r3, r2
 8002294:	f001 81c2 	beq.w	800361c <HAL_DMA_IRQHandler+0x2048>
 8002298:	49be      	ldr	r1, [pc, #760]	; (8002594 <HAL_DMA_IRQHandler+0xfc0>)
 800229a:	428b      	cmp	r3, r1
 800229c:	bf0c      	ite	eq
 800229e:	f44f 1180 	moveq.w	r1, #1048576	; 0x100000
 80022a2:	f04f 6180 	movne.w	r1, #67108864	; 0x4000000
 80022a6:	4abc      	ldr	r2, [pc, #752]	; (8002598 <HAL_DMA_IRQHandler+0xfc4>)
 80022a8:	60d1      	str	r1, [r2, #12]
 80022aa:	2231      	movs	r2, #49	; 0x31
 80022ac:	f884 2035 	strb.w	r2, [r4, #53]	; 0x35
 80022b0:	6c22      	ldr	r2, [r4, #64]	; 0x40
 80022b2:	b112      	cbz	r2, 80022ba <HAL_DMA_IRQHandler+0xce6>
 80022b4:	4620      	mov	r0, r4
 80022b6:	4790      	blx	r2
 80022b8:	6823      	ldr	r3, [r4, #0]
 80022ba:	4ab5      	ldr	r2, [pc, #724]	; (8002590 <HAL_DMA_IRQHandler+0xfbc>)
 80022bc:	4293      	cmp	r3, r2
 80022be:	d891      	bhi.n	80021e4 <HAL_DMA_IRQHandler+0xc10>
 80022c0:	4ab6      	ldr	r2, [pc, #728]	; (800259c <HAL_DMA_IRQHandler+0xfc8>)
 80022c2:	4293      	cmp	r3, r2
 80022c4:	f200 80ad 	bhi.w	8002422 <HAL_DMA_IRQHandler+0xe4e>
 80022c8:	4ab5      	ldr	r2, [pc, #724]	; (80025a0 <HAL_DMA_IRQHandler+0xfcc>)
 80022ca:	4293      	cmp	r3, r2
 80022cc:	f63f acdc 	bhi.w	8001c88 <HAL_DMA_IRQHandler+0x6b4>
 80022d0:	e689      	b.n	8001fe6 <HAL_DMA_IRQHandler+0xa12>
 80022d2:	4ab4      	ldr	r2, [pc, #720]	; (80025a4 <HAL_DMA_IRQHandler+0xfd0>)
 80022d4:	e63d      	b.n	8001f52 <HAL_DMA_IRQHandler+0x97e>
 80022d6:	2210      	movs	r2, #16
 80022d8:	e781      	b.n	80021de <HAL_DMA_IRQHandler+0xc0a>
 80022da:	4ab2      	ldr	r2, [pc, #712]	; (80025a4 <HAL_DMA_IRQHandler+0xfd0>)
 80022dc:	4211      	tst	r1, r2
 80022de:	f47f ae3b 	bne.w	8001f58 <HAL_DMA_IRQHandler+0x984>
 80022e2:	4ab1      	ldr	r2, [pc, #708]	; (80025a8 <HAL_DMA_IRQHandler+0xfd4>)
 80022e4:	49ac      	ldr	r1, [pc, #688]	; (8002598 <HAL_DMA_IRQHandler+0xfc4>)
 80022e6:	4293      	cmp	r3, r2
 80022e8:	6809      	ldr	r1, [r1, #0]
 80022ea:	f43f aedd 	beq.w	80020a8 <HAL_DMA_IRQHandler+0xad4>
 80022ee:	f502 6280 	add.w	r2, r2, #1024	; 0x400
 80022f2:	4293      	cmp	r3, r2
 80022f4:	f43f aed8 	beq.w	80020a8 <HAL_DMA_IRQHandler+0xad4>
 80022f8:	f5a2 7268 	sub.w	r2, r2, #928	; 0x3a0
 80022fc:	4293      	cmp	r3, r2
 80022fe:	f43f aed3 	beq.w	80020a8 <HAL_DMA_IRQHandler+0xad4>
 8002302:	f502 6280 	add.w	r2, r2, #1024	; 0x400
 8002306:	4293      	cmp	r3, r2
 8002308:	f43f aece 	beq.w	80020a8 <HAL_DMA_IRQHandler+0xad4>
 800230c:	f5a2 6289 	sub.w	r2, r2, #1096	; 0x448
 8002310:	4293      	cmp	r3, r2
 8002312:	f000 86ba 	beq.w	800308a <HAL_DMA_IRQHandler+0x1ab6>
 8002316:	f502 6280 	add.w	r2, r2, #1024	; 0x400
 800231a:	4293      	cmp	r3, r2
 800231c:	f000 86b5 	beq.w	800308a <HAL_DMA_IRQHandler+0x1ab6>
 8002320:	f5a2 7268 	sub.w	r2, r2, #928	; 0x3a0
 8002324:	4293      	cmp	r3, r2
 8002326:	f000 86b0 	beq.w	800308a <HAL_DMA_IRQHandler+0x1ab6>
 800232a:	f502 6280 	add.w	r2, r2, #1024	; 0x400
 800232e:	4293      	cmp	r3, r2
 8002330:	f000 86ab 	beq.w	800308a <HAL_DMA_IRQHandler+0x1ab6>
 8002334:	f5a2 6289 	sub.w	r2, r2, #1096	; 0x448
 8002338:	4293      	cmp	r3, r2
 800233a:	f001 80a8 	beq.w	800348e <HAL_DMA_IRQHandler+0x1eba>
 800233e:	f502 6280 	add.w	r2, r2, #1024	; 0x400
 8002342:	4293      	cmp	r3, r2
 8002344:	f001 80a3 	beq.w	800348e <HAL_DMA_IRQHandler+0x1eba>
 8002348:	f5a2 7268 	sub.w	r2, r2, #928	; 0x3a0
 800234c:	4293      	cmp	r3, r2
 800234e:	f001 809e 	beq.w	800348e <HAL_DMA_IRQHandler+0x1eba>
 8002352:	f502 6280 	add.w	r2, r2, #1024	; 0x400
 8002356:	4293      	cmp	r3, r2
 8002358:	bf0c      	ite	eq
 800235a:	f44f 1280 	moveq.w	r2, #1048576	; 0x100000
 800235e:	f04f 6280 	movne.w	r2, #67108864	; 0x4000000
 8002362:	e6a2      	b.n	80020aa <HAL_DMA_IRQHandler+0xad6>
 8002364:	695a      	ldr	r2, [r3, #20]
 8002366:	0610      	lsls	r0, r2, #24
 8002368:	f57f abeb 	bpl.w	8001b42 <HAL_DMA_IRQHandler+0x56e>
 800236c:	695a      	ldr	r2, [r3, #20]
 800236e:	4888      	ldr	r0, [pc, #544]	; (8002590 <HAL_DMA_IRQHandler+0xfbc>)
 8002370:	f022 0280 	bic.w	r2, r2, #128	; 0x80
 8002374:	4281      	cmp	r1, r0
 8002376:	615a      	str	r2, [r3, #20]
 8002378:	f63f a986 	bhi.w	8001688 <HAL_DMA_IRQHandler+0xb4>
 800237c:	4a87      	ldr	r2, [pc, #540]	; (800259c <HAL_DMA_IRQHandler+0xfc8>)
 800237e:	4291      	cmp	r1, r2
 8002380:	f240 822b 	bls.w	80027da <HAL_DMA_IRQHandler+0x1206>
 8002384:	3aa8      	subs	r2, #168	; 0xa8
 8002386:	4293      	cmp	r3, r2
 8002388:	f000 8652 	beq.w	8003030 <HAL_DMA_IRQHandler+0x1a5c>
 800238c:	f502 6280 	add.w	r2, r2, #1024	; 0x400
 8002390:	4293      	cmp	r3, r2
 8002392:	f000 864d 	beq.w	8003030 <HAL_DMA_IRQHandler+0x1a5c>
 8002396:	f5a2 7268 	sub.w	r2, r2, #928	; 0x3a0
 800239a:	4293      	cmp	r3, r2
 800239c:	f000 8648 	beq.w	8003030 <HAL_DMA_IRQHandler+0x1a5c>
 80023a0:	f502 6280 	add.w	r2, r2, #1024	; 0x400
 80023a4:	4293      	cmp	r3, r2
 80023a6:	f000 8643 	beq.w	8003030 <HAL_DMA_IRQHandler+0x1a5c>
 80023aa:	f5a2 6289 	sub.w	r2, r2, #1096	; 0x448
 80023ae:	4293      	cmp	r3, r2
 80023b0:	f001 8066 	beq.w	8003480 <HAL_DMA_IRQHandler+0x1eac>
 80023b4:	f502 6280 	add.w	r2, r2, #1024	; 0x400
 80023b8:	4293      	cmp	r3, r2
 80023ba:	f001 8061 	beq.w	8003480 <HAL_DMA_IRQHandler+0x1eac>
 80023be:	f5a2 7268 	sub.w	r2, r2, #928	; 0x3a0
 80023c2:	4293      	cmp	r3, r2
 80023c4:	f001 805c 	beq.w	8003480 <HAL_DMA_IRQHandler+0x1eac>
 80023c8:	f502 6280 	add.w	r2, r2, #1024	; 0x400
 80023cc:	4293      	cmp	r3, r2
 80023ce:	f001 8057 	beq.w	8003480 <HAL_DMA_IRQHandler+0x1eac>
 80023d2:	f5a2 6289 	sub.w	r2, r2, #1096	; 0x448
 80023d6:	4293      	cmp	r3, r2
 80023d8:	f001 8114 	beq.w	8003604 <HAL_DMA_IRQHandler+0x2030>
 80023dc:	f502 6280 	add.w	r2, r2, #1024	; 0x400
 80023e0:	4293      	cmp	r3, r2
 80023e2:	f001 810f 	beq.w	8003604 <HAL_DMA_IRQHandler+0x2030>
 80023e6:	f5a2 7268 	sub.w	r2, r2, #928	; 0x3a0
 80023ea:	4293      	cmp	r3, r2
 80023ec:	f001 810a 	beq.w	8003604 <HAL_DMA_IRQHandler+0x2030>
 80023f0:	4968      	ldr	r1, [pc, #416]	; (8002594 <HAL_DMA_IRQHandler+0xfc0>)
 80023f2:	428b      	cmp	r3, r1
 80023f4:	bf0c      	ite	eq
 80023f6:	f44f 3180 	moveq.w	r1, #65536	; 0x10000
 80023fa:	f44f 0180 	movne.w	r1, #4194304	; 0x400000
 80023fe:	4a66      	ldr	r2, [pc, #408]	; (8002598 <HAL_DMA_IRQHandler+0xfc4>)
 8002400:	6ca3      	ldr	r3, [r4, #72]	; 0x48
 8002402:	6091      	str	r1, [r2, #8]
 8002404:	6ce2      	ldr	r2, [r4, #76]	; 0x4c
 8002406:	2104      	movs	r1, #4
 8002408:	f042 0202 	orr.w	r2, r2, #2
 800240c:	2000      	movs	r0, #0
 800240e:	64e2      	str	r2, [r4, #76]	; 0x4c
 8002410:	f884 0034 	strb.w	r0, [r4, #52]	; 0x34
 8002414:	f884 1035 	strb.w	r1, [r4, #53]	; 0x35
 8002418:	2b00      	cmp	r3, #0
 800241a:	f47f ab90 	bne.w	8001b3e <HAL_DMA_IRQHandler+0x56a>
 800241e:	f7ff bb3b 	b.w	8001a98 <HAL_DMA_IRQHandler+0x4c4>
 8002422:	4a61      	ldr	r2, [pc, #388]	; (80025a8 <HAL_DMA_IRQHandler+0xfd4>)
 8002424:	495c      	ldr	r1, [pc, #368]	; (8002598 <HAL_DMA_IRQHandler+0xfc4>)
 8002426:	4293      	cmp	r3, r2
 8002428:	6809      	ldr	r1, [r1, #0]
 800242a:	f47f ac33 	bne.w	8001c94 <HAL_DMA_IRQHandler+0x6c0>
 800242e:	e5e0      	b.n	8001ff2 <HAL_DMA_IRQHandler+0xa1e>
 8002430:	f44f 6200 	mov.w	r2, #2048	; 0x800
 8002434:	e5de      	b.n	8001ff4 <HAL_DMA_IRQHandler+0xa20>
 8002436:	681a      	ldr	r2, [r3, #0]
 8002438:	05d2      	lsls	r2, r2, #23
 800243a:	d403      	bmi.n	8002444 <HAL_DMA_IRQHandler+0xe70>
 800243c:	681a      	ldr	r2, [r3, #0]
 800243e:	f022 0210 	bic.w	r2, r2, #16
 8002442:	601a      	str	r2, [r3, #0]
 8002444:	4a52      	ldr	r2, [pc, #328]	; (8002590 <HAL_DMA_IRQHandler+0xfbc>)
 8002446:	4293      	cmp	r3, r2
 8002448:	f240 8312 	bls.w	8002a70 <HAL_DMA_IRQHandler+0x149c>
 800244c:	f5a2 6289 	sub.w	r2, r2, #1096	; 0x448
 8002450:	4293      	cmp	r3, r2
 8002452:	f000 85f3 	beq.w	800303c <HAL_DMA_IRQHandler+0x1a68>
 8002456:	f502 6280 	add.w	r2, r2, #1024	; 0x400
 800245a:	4293      	cmp	r3, r2
 800245c:	f000 85ee 	beq.w	800303c <HAL_DMA_IRQHandler+0x1a68>
 8002460:	f5a2 7268 	sub.w	r2, r2, #928	; 0x3a0
 8002464:	4293      	cmp	r3, r2
 8002466:	f000 85e9 	beq.w	800303c <HAL_DMA_IRQHandler+0x1a68>
 800246a:	f502 6280 	add.w	r2, r2, #1024	; 0x400
 800246e:	4293      	cmp	r3, r2
 8002470:	f000 85e4 	beq.w	800303c <HAL_DMA_IRQHandler+0x1a68>
 8002474:	f5a2 6289 	sub.w	r2, r2, #1096	; 0x448
 8002478:	4293      	cmp	r3, r2
 800247a:	f000 87f5 	beq.w	8003468 <HAL_DMA_IRQHandler+0x1e94>
 800247e:	f502 6280 	add.w	r2, r2, #1024	; 0x400
 8002482:	4293      	cmp	r3, r2
 8002484:	f000 87f0 	beq.w	8003468 <HAL_DMA_IRQHandler+0x1e94>
 8002488:	f5a2 7268 	sub.w	r2, r2, #928	; 0x3a0
 800248c:	4293      	cmp	r3, r2
 800248e:	f000 87eb 	beq.w	8003468 <HAL_DMA_IRQHandler+0x1e94>
 8002492:	f502 6280 	add.w	r2, r2, #1024	; 0x400
 8002496:	4293      	cmp	r3, r2
 8002498:	f000 87e6 	beq.w	8003468 <HAL_DMA_IRQHandler+0x1e94>
 800249c:	f5a2 6289 	sub.w	r2, r2, #1096	; 0x448
 80024a0:	4293      	cmp	r3, r2
 80024a2:	f001 80a3 	beq.w	80035ec <HAL_DMA_IRQHandler+0x2018>
 80024a6:	f502 6280 	add.w	r2, r2, #1024	; 0x400
 80024aa:	4293      	cmp	r3, r2
 80024ac:	f001 809e 	beq.w	80035ec <HAL_DMA_IRQHandler+0x2018>
 80024b0:	f5a2 7268 	sub.w	r2, r2, #928	; 0x3a0
 80024b4:	4293      	cmp	r3, r2
 80024b6:	f001 8099 	beq.w	80035ec <HAL_DMA_IRQHandler+0x2018>
 80024ba:	f502 6280 	add.w	r2, r2, #1024	; 0x400
 80024be:	4293      	cmp	r3, r2
 80024c0:	bf0c      	ite	eq
 80024c2:	f44f 1200 	moveq.w	r2, #2097152	; 0x200000
 80024c6:	f04f 6200 	movne.w	r2, #134217728	; 0x8000000
 80024ca:	4b33      	ldr	r3, [pc, #204]	; (8002598 <HAL_DMA_IRQHandler+0xfc4>)
 80024cc:	60da      	str	r2, [r3, #12]
 80024ce:	6ce2      	ldr	r2, [r4, #76]	; 0x4c
 80024d0:	6be3      	ldr	r3, [r4, #60]	; 0x3c
 80024d2:	64e2      	str	r2, [r4, #76]	; 0x4c
 80024d4:	2111      	movs	r1, #17
 80024d6:	2200      	movs	r2, #0
 80024d8:	f884 1035 	strb.w	r1, [r4, #53]	; 0x35
 80024dc:	f884 2034 	strb.w	r2, [r4, #52]	; 0x34
 80024e0:	2b00      	cmp	r3, #0
 80024e2:	f43f ade0 	beq.w	80020a6 <HAL_DMA_IRQHandler+0xad2>
 80024e6:	4620      	mov	r0, r4
 80024e8:	e8bd 4070 	ldmia.w	sp!, {r4, r5, r6, lr}
 80024ec:	4718      	bx	r3
 80024ee:	4a2b      	ldr	r2, [pc, #172]	; (800259c <HAL_DMA_IRQHandler+0xfc8>)
 80024f0:	4293      	cmp	r3, r2
 80024f2:	f240 81c6 	bls.w	8002882 <HAL_DMA_IRQHandler+0x12ae>
 80024f6:	3aa8      	subs	r2, #168	; 0xa8
 80024f8:	4293      	cmp	r3, r2
 80024fa:	f000 8596 	beq.w	800302a <HAL_DMA_IRQHandler+0x1a56>
 80024fe:	f502 6280 	add.w	r2, r2, #1024	; 0x400
 8002502:	4293      	cmp	r3, r2
 8002504:	f000 8591 	beq.w	800302a <HAL_DMA_IRQHandler+0x1a56>
 8002508:	f5a2 7268 	sub.w	r2, r2, #928	; 0x3a0
 800250c:	4293      	cmp	r3, r2
 800250e:	f000 858c 	beq.w	800302a <HAL_DMA_IRQHandler+0x1a56>
 8002512:	f502 6280 	add.w	r2, r2, #1024	; 0x400
 8002516:	4293      	cmp	r3, r2
 8002518:	f000 8587 	beq.w	800302a <HAL_DMA_IRQHandler+0x1a56>
 800251c:	f5a2 6289 	sub.w	r2, r2, #1096	; 0x448
 8002520:	4293      	cmp	r3, r2
 8002522:	f000 87a5 	beq.w	8003470 <HAL_DMA_IRQHandler+0x1e9c>
 8002526:	f502 6280 	add.w	r2, r2, #1024	; 0x400
 800252a:	4293      	cmp	r3, r2
 800252c:	f000 87a0 	beq.w	8003470 <HAL_DMA_IRQHandler+0x1e9c>
 8002530:	f5a2 7268 	sub.w	r2, r2, #928	; 0x3a0
 8002534:	4293      	cmp	r3, r2
 8002536:	f000 879b 	beq.w	8003470 <HAL_DMA_IRQHandler+0x1e9c>
 800253a:	f502 6280 	add.w	r2, r2, #1024	; 0x400
 800253e:	4293      	cmp	r3, r2
 8002540:	f000 8796 	beq.w	8003470 <HAL_DMA_IRQHandler+0x1e9c>
 8002544:	f5a2 6289 	sub.w	r2, r2, #1096	; 0x448
 8002548:	4293      	cmp	r3, r2
 800254a:	f001 8053 	beq.w	80035f4 <HAL_DMA_IRQHandler+0x2020>
 800254e:	f502 6280 	add.w	r2, r2, #1024	; 0x400
 8002552:	4293      	cmp	r3, r2
 8002554:	f001 804e 	beq.w	80035f4 <HAL_DMA_IRQHandler+0x2020>
 8002558:	f5a2 7268 	sub.w	r2, r2, #928	; 0x3a0
 800255c:	4293      	cmp	r3, r2
 800255e:	f001 8049 	beq.w	80035f4 <HAL_DMA_IRQHandler+0x2020>
 8002562:	480c      	ldr	r0, [pc, #48]	; (8002594 <HAL_DMA_IRQHandler+0xfc0>)
 8002564:	4283      	cmp	r3, r0
 8002566:	bf0c      	ite	eq
 8002568:	f44f 2080 	moveq.w	r0, #262144	; 0x40000
 800256c:	f04f 7080 	movne.w	r0, #16777216	; 0x1000000
 8002570:	4909      	ldr	r1, [pc, #36]	; (8002598 <HAL_DMA_IRQHandler+0xfc4>)
 8002572:	6ca2      	ldr	r2, [r4, #72]	; 0x48
 8002574:	6088      	str	r0, [r1, #8]
 8002576:	6ce1      	ldr	r1, [r4, #76]	; 0x4c
 8002578:	2004      	movs	r0, #4
 800257a:	4301      	orrs	r1, r0
 800257c:	2500      	movs	r5, #0
 800257e:	64e1      	str	r1, [r4, #76]	; 0x4c
 8002580:	f884 5034 	strb.w	r5, [r4, #52]	; 0x34
 8002584:	f884 0035 	strb.w	r0, [r4, #53]	; 0x35
 8002588:	2a00      	cmp	r2, #0
 800258a:	f47f ad0c 	bne.w	8001fa6 <HAL_DMA_IRQHandler+0x9d2>
 800258e:	e6a8      	b.n	80022e2 <HAL_DMA_IRQHandler+0xd0e>
 8002590:	40026458 	.word	0x40026458
 8002594:	400264a0 	.word	0x400264a0
 8002598:	40026400 	.word	0x40026400
 800259c:	400260b8 	.word	0x400260b8
 80025a0:	40026058 	.word	0x40026058
 80025a4:	00800004 	.word	0x00800004
 80025a8:	40026010 	.word	0x40026010
 80025ac:	072d      	lsls	r5, r5, #28
 80025ae:	f140 8537 	bpl.w	8003020 <HAL_DMA_IRQHandler+0x1a4c>
 80025b2:	681a      	ldr	r2, [r3, #0]
 80025b4:	0756      	lsls	r6, r2, #29
 80025b6:	f57f ac53 	bpl.w	8001e60 <HAL_DMA_IRQHandler+0x88c>
 80025ba:	681a      	ldr	r2, [r3, #0]
 80025bc:	48da      	ldr	r0, [pc, #872]	; (8002928 <HAL_DMA_IRQHandler+0x1354>)
 80025be:	f022 0204 	bic.w	r2, r2, #4
 80025c2:	4283      	cmp	r3, r0
 80025c4:	601a      	str	r2, [r3, #0]
 80025c6:	f000 8542 	beq.w	800304e <HAL_DMA_IRQHandler+0x1a7a>
 80025ca:	4ad8      	ldr	r2, [pc, #864]	; (800292c <HAL_DMA_IRQHandler+0x1358>)
 80025cc:	4293      	cmp	r3, r2
 80025ce:	f000 85ab 	beq.w	8003128 <HAL_DMA_IRQHandler+0x1b54>
 80025d2:	f5a2 7268 	sub.w	r2, r2, #928	; 0x3a0
 80025d6:	4293      	cmp	r3, r2
 80025d8:	f000 85a6 	beq.w	8003128 <HAL_DMA_IRQHandler+0x1b54>
 80025dc:	f502 6280 	add.w	r2, r2, #1024	; 0x400
 80025e0:	4293      	cmp	r3, r2
 80025e2:	f000 85a1 	beq.w	8003128 <HAL_DMA_IRQHandler+0x1b54>
 80025e6:	f5a2 6289 	sub.w	r2, r2, #1096	; 0x448
 80025ea:	4293      	cmp	r3, r2
 80025ec:	f000 8738 	beq.w	8003460 <HAL_DMA_IRQHandler+0x1e8c>
 80025f0:	f502 6280 	add.w	r2, r2, #1024	; 0x400
 80025f4:	4293      	cmp	r3, r2
 80025f6:	f000 8733 	beq.w	8003460 <HAL_DMA_IRQHandler+0x1e8c>
 80025fa:	f5a2 7268 	sub.w	r2, r2, #928	; 0x3a0
 80025fe:	4293      	cmp	r3, r2
 8002600:	f000 872e 	beq.w	8003460 <HAL_DMA_IRQHandler+0x1e8c>
 8002604:	f502 6280 	add.w	r2, r2, #1024	; 0x400
 8002608:	4293      	cmp	r3, r2
 800260a:	f000 8729 	beq.w	8003460 <HAL_DMA_IRQHandler+0x1e8c>
 800260e:	f5a2 6289 	sub.w	r2, r2, #1096	; 0x448
 8002612:	4293      	cmp	r3, r2
 8002614:	f000 87fa 	beq.w	800360c <HAL_DMA_IRQHandler+0x2038>
 8002618:	f502 6280 	add.w	r2, r2, #1024	; 0x400
 800261c:	4293      	cmp	r3, r2
 800261e:	f000 87f5 	beq.w	800360c <HAL_DMA_IRQHandler+0x2038>
 8002622:	f5a2 7268 	sub.w	r2, r2, #928	; 0x3a0
 8002626:	4293      	cmp	r3, r2
 8002628:	f000 87f0 	beq.w	800360c <HAL_DMA_IRQHandler+0x2038>
 800262c:	f502 6280 	add.w	r2, r2, #1024	; 0x400
 8002630:	4293      	cmp	r3, r2
 8002632:	bf14      	ite	ne
 8002634:	f04f 7200 	movne.w	r2, #33554432	; 0x2000000
 8002638:	f44f 2200 	moveq.w	r2, #524288	; 0x80000
 800263c:	48bc      	ldr	r0, [pc, #752]	; (8002930 <HAL_DMA_IRQHandler+0x135c>)
 800263e:	6ca5      	ldr	r5, [r4, #72]	; 0x48
 8002640:	6082      	str	r2, [r0, #8]
 8002642:	6ce2      	ldr	r2, [r4, #76]	; 0x4c
 8002644:	f042 0201 	orr.w	r2, r2, #1
 8002648:	64e2      	str	r2, [r4, #76]	; 0x4c
 800264a:	2604      	movs	r6, #4
 800264c:	2200      	movs	r2, #0
 800264e:	f884 6035 	strb.w	r6, [r4, #53]	; 0x35
 8002652:	f884 2034 	strb.w	r2, [r4, #52]	; 0x34
 8002656:	2d00      	cmp	r5, #0
 8002658:	f47f abfa 	bne.w	8001e50 <HAL_DMA_IRQHandler+0x87c>
 800265c:	6800      	ldr	r0, [r0, #0]
 800265e:	e409      	b.n	8001e74 <HAL_DMA_IRQHandler+0x8a0>
 8002660:	4ab4      	ldr	r2, [pc, #720]	; (8002934 <HAL_DMA_IRQHandler+0x1360>)
 8002662:	4211      	tst	r1, r2
 8002664:	f43f acae 	beq.w	8001fc4 <HAL_DMA_IRQHandler+0x9f0>
 8002668:	e476      	b.n	8001f58 <HAL_DMA_IRQHandler+0x984>
 800266a:	4ab3      	ldr	r2, [pc, #716]	; (8002938 <HAL_DMA_IRQHandler+0x1364>)
 800266c:	48b3      	ldr	r0, [pc, #716]	; (800293c <HAL_DMA_IRQHandler+0x1368>)
 800266e:	4293      	cmp	r3, r2
 8002670:	f240 8291 	bls.w	8002b96 <HAL_DMA_IRQHandler+0x15c2>
 8002674:	3a48      	subs	r2, #72	; 0x48
 8002676:	4293      	cmp	r3, r2
 8002678:	6840      	ldr	r0, [r0, #4]
 800267a:	f000 8537 	beq.w	80030ec <HAL_DMA_IRQHandler+0x1b18>
 800267e:	4aab      	ldr	r2, [pc, #684]	; (800292c <HAL_DMA_IRQHandler+0x1358>)
 8002680:	4293      	cmp	r3, r2
 8002682:	f000 8313 	beq.w	8002cac <HAL_DMA_IRQHandler+0x16d8>
 8002686:	f5a2 7268 	sub.w	r2, r2, #928	; 0x3a0
 800268a:	4293      	cmp	r3, r2
 800268c:	f000 830e 	beq.w	8002cac <HAL_DMA_IRQHandler+0x16d8>
 8002690:	f502 6280 	add.w	r2, r2, #1024	; 0x400
 8002694:	4293      	cmp	r3, r2
 8002696:	f000 8309 	beq.w	8002cac <HAL_DMA_IRQHandler+0x16d8>
 800269a:	f5a2 6289 	sub.w	r2, r2, #1096	; 0x448
 800269e:	4293      	cmp	r3, r2
 80026a0:	f000 858a 	beq.w	80031b8 <HAL_DMA_IRQHandler+0x1be4>
 80026a4:	f502 6280 	add.w	r2, r2, #1024	; 0x400
 80026a8:	4293      	cmp	r3, r2
 80026aa:	f000 8585 	beq.w	80031b8 <HAL_DMA_IRQHandler+0x1be4>
 80026ae:	f5a2 7268 	sub.w	r2, r2, #928	; 0x3a0
 80026b2:	4293      	cmp	r3, r2
 80026b4:	f000 8580 	beq.w	80031b8 <HAL_DMA_IRQHandler+0x1be4>
 80026b8:	f502 6280 	add.w	r2, r2, #1024	; 0x400
 80026bc:	4293      	cmp	r3, r2
 80026be:	f000 857b 	beq.w	80031b8 <HAL_DMA_IRQHandler+0x1be4>
 80026c2:	f5a2 6289 	sub.w	r2, r2, #1096	; 0x448
 80026c6:	4293      	cmp	r3, r2
 80026c8:	f000 878c 	beq.w	80035e4 <HAL_DMA_IRQHandler+0x2010>
 80026cc:	f502 6280 	add.w	r2, r2, #1024	; 0x400
 80026d0:	4293      	cmp	r3, r2
 80026d2:	f000 8787 	beq.w	80035e4 <HAL_DMA_IRQHandler+0x2010>
 80026d6:	f5a2 7268 	sub.w	r2, r2, #928	; 0x3a0
 80026da:	4293      	cmp	r3, r2
 80026dc:	f000 8782 	beq.w	80035e4 <HAL_DMA_IRQHandler+0x2010>
 80026e0:	f502 6280 	add.w	r2, r2, #1024	; 0x400
 80026e4:	4293      	cmp	r3, r2
 80026e6:	bf0c      	ite	eq
 80026e8:	f44f 3280 	moveq.w	r2, #65536	; 0x10000
 80026ec:	f44f 0280 	movne.w	r2, #4194304	; 0x400000
 80026f0:	f7ff b89d 	b.w	800182e <HAL_DMA_IRQHandler+0x25a>
 80026f4:	072d      	lsls	r5, r5, #28
 80026f6:	f140 82d8 	bpl.w	8002caa <HAL_DMA_IRQHandler+0x16d6>
 80026fa:	681a      	ldr	r2, [r3, #0]
 80026fc:	0755      	lsls	r5, r2, #29
 80026fe:	f57f abaf 	bpl.w	8001e60 <HAL_DMA_IRQHandler+0x88c>
 8002702:	681a      	ldr	r2, [r3, #0]
 8002704:	4888      	ldr	r0, [pc, #544]	; (8002928 <HAL_DMA_IRQHandler+0x1354>)
 8002706:	f022 0204 	bic.w	r2, r2, #4
 800270a:	4283      	cmp	r3, r0
 800270c:	601a      	str	r2, [r3, #0]
 800270e:	f000 84db 	beq.w	80030c8 <HAL_DMA_IRQHandler+0x1af4>
 8002712:	4a86      	ldr	r2, [pc, #536]	; (800292c <HAL_DMA_IRQHandler+0x1358>)
 8002714:	4293      	cmp	r3, r2
 8002716:	f000 8669 	beq.w	80033ec <HAL_DMA_IRQHandler+0x1e18>
 800271a:	f5a2 7268 	sub.w	r2, r2, #928	; 0x3a0
 800271e:	4293      	cmp	r3, r2
 8002720:	f000 8664 	beq.w	80033ec <HAL_DMA_IRQHandler+0x1e18>
 8002724:	f502 6280 	add.w	r2, r2, #1024	; 0x400
 8002728:	4293      	cmp	r3, r2
 800272a:	f000 865f 	beq.w	80033ec <HAL_DMA_IRQHandler+0x1e18>
 800272e:	f5a2 6289 	sub.w	r2, r2, #1096	; 0x448
 8002732:	4293      	cmp	r3, r2
 8002734:	f000 86df 	beq.w	80034f6 <HAL_DMA_IRQHandler+0x1f22>
 8002738:	f502 6280 	add.w	r2, r2, #1024	; 0x400
 800273c:	4293      	cmp	r3, r2
 800273e:	f000 86da 	beq.w	80034f6 <HAL_DMA_IRQHandler+0x1f22>
 8002742:	f5a2 7268 	sub.w	r2, r2, #928	; 0x3a0
 8002746:	4293      	cmp	r3, r2
 8002748:	f000 86d5 	beq.w	80034f6 <HAL_DMA_IRQHandler+0x1f22>
 800274c:	f502 6280 	add.w	r2, r2, #1024	; 0x400
 8002750:	4293      	cmp	r3, r2
 8002752:	f000 86d0 	beq.w	80034f6 <HAL_DMA_IRQHandler+0x1f22>
 8002756:	f5a2 6289 	sub.w	r2, r2, #1096	; 0x448
 800275a:	4293      	cmp	r3, r2
 800275c:	f000 877a 	beq.w	8003654 <HAL_DMA_IRQHandler+0x2080>
 8002760:	f502 6280 	add.w	r2, r2, #1024	; 0x400
 8002764:	4293      	cmp	r3, r2
 8002766:	f000 8775 	beq.w	8003654 <HAL_DMA_IRQHandler+0x2080>
 800276a:	f5a2 7268 	sub.w	r2, r2, #928	; 0x3a0
 800276e:	4293      	cmp	r3, r2
 8002770:	f000 8770 	beq.w	8003654 <HAL_DMA_IRQHandler+0x2080>
 8002774:	f502 6280 	add.w	r2, r2, #1024	; 0x400
 8002778:	4293      	cmp	r3, r2
 800277a:	bf14      	ite	ne
 800277c:	f04f 7200 	movne.w	r2, #33554432	; 0x2000000
 8002780:	f44f 2200 	moveq.w	r2, #524288	; 0x80000
 8002784:	486d      	ldr	r0, [pc, #436]	; (800293c <HAL_DMA_IRQHandler+0x1368>)
 8002786:	6ca5      	ldr	r5, [r4, #72]	; 0x48
 8002788:	60c2      	str	r2, [r0, #12]
 800278a:	6ce2      	ldr	r2, [r4, #76]	; 0x4c
 800278c:	f042 0201 	orr.w	r2, r2, #1
 8002790:	64e2      	str	r2, [r4, #76]	; 0x4c
 8002792:	2604      	movs	r6, #4
 8002794:	2200      	movs	r2, #0
 8002796:	f884 6035 	strb.w	r6, [r4, #53]	; 0x35
 800279a:	f884 2034 	strb.w	r2, [r4, #52]	; 0x34
 800279e:	2d00      	cmp	r5, #0
 80027a0:	f47f ab56 	bne.w	8001e50 <HAL_DMA_IRQHandler+0x87c>
 80027a4:	6840      	ldr	r0, [r0, #4]
 80027a6:	e76a      	b.n	800267e <HAL_DMA_IRQHandler+0x10aa>
 80027a8:	6819      	ldr	r1, [r3, #0]
 80027aa:	6ca5      	ldr	r5, [r4, #72]	; 0x48
 80027ac:	f021 0104 	bic.w	r1, r1, #4
 80027b0:	2008      	movs	r0, #8
 80027b2:	6019      	str	r1, [r3, #0]
 80027b4:	60d0      	str	r0, [r2, #12]
 80027b6:	6ce3      	ldr	r3, [r4, #76]	; 0x4c
 80027b8:	2104      	movs	r1, #4
 80027ba:	f043 0301 	orr.w	r3, r3, #1
 80027be:	2000      	movs	r0, #0
 80027c0:	64e3      	str	r3, [r4, #76]	; 0x4c
 80027c2:	f884 0034 	strb.w	r0, [r4, #52]	; 0x34
 80027c6:	f884 1035 	strb.w	r1, [r4, #53]	; 0x35
 80027ca:	2d00      	cmp	r5, #0
 80027cc:	f47f ab40 	bne.w	8001e50 <HAL_DMA_IRQHandler+0x87c>
 80027d0:	6851      	ldr	r1, [r2, #4]
 80027d2:	4b55      	ldr	r3, [pc, #340]	; (8002928 <HAL_DMA_IRQHandler+0x1354>)
 80027d4:	4a5a      	ldr	r2, [pc, #360]	; (8002940 <HAL_DMA_IRQHandler+0x136c>)
 80027d6:	f7fe bf4c 	b.w	8001672 <HAL_DMA_IRQHandler+0x9e>
 80027da:	4a57      	ldr	r2, [pc, #348]	; (8002938 <HAL_DMA_IRQHandler+0x1364>)
 80027dc:	4291      	cmp	r1, r2
 80027de:	f240 82f9 	bls.w	8002dd4 <HAL_DMA_IRQHandler+0x1800>
 80027e2:	3a48      	subs	r2, #72	; 0x48
 80027e4:	4293      	cmp	r3, r2
 80027e6:	f000 84a9 	beq.w	800313c <HAL_DMA_IRQHandler+0x1b68>
 80027ea:	f502 6280 	add.w	r2, r2, #1024	; 0x400
 80027ee:	4293      	cmp	r3, r2
 80027f0:	f000 84a4 	beq.w	800313c <HAL_DMA_IRQHandler+0x1b68>
 80027f4:	f5a2 7268 	sub.w	r2, r2, #928	; 0x3a0
 80027f8:	4293      	cmp	r3, r2
 80027fa:	f000 849f 	beq.w	800313c <HAL_DMA_IRQHandler+0x1b68>
 80027fe:	f502 6280 	add.w	r2, r2, #1024	; 0x400
 8002802:	4293      	cmp	r3, r2
 8002804:	f000 849a 	beq.w	800313c <HAL_DMA_IRQHandler+0x1b68>
 8002808:	f5a2 6289 	sub.w	r2, r2, #1096	; 0x448
 800280c:	4293      	cmp	r3, r2
 800280e:	f000 8679 	beq.w	8003504 <HAL_DMA_IRQHandler+0x1f30>
 8002812:	f502 6280 	add.w	r2, r2, #1024	; 0x400
 8002816:	4293      	cmp	r3, r2
 8002818:	f000 8674 	beq.w	8003504 <HAL_DMA_IRQHandler+0x1f30>
 800281c:	f5a2 7268 	sub.w	r2, r2, #928	; 0x3a0
 8002820:	4293      	cmp	r3, r2
 8002822:	f000 866f 	beq.w	8003504 <HAL_DMA_IRQHandler+0x1f30>
 8002826:	f502 6280 	add.w	r2, r2, #1024	; 0x400
 800282a:	4293      	cmp	r3, r2
 800282c:	f000 866a 	beq.w	8003504 <HAL_DMA_IRQHandler+0x1f30>
 8002830:	f5a2 6289 	sub.w	r2, r2, #1096	; 0x448
 8002834:	4293      	cmp	r3, r2
 8002836:	f000 8724 	beq.w	8003682 <HAL_DMA_IRQHandler+0x20ae>
 800283a:	f502 6280 	add.w	r2, r2, #1024	; 0x400
 800283e:	4293      	cmp	r3, r2
 8002840:	f000 871f 	beq.w	8003682 <HAL_DMA_IRQHandler+0x20ae>
 8002844:	f5a2 7268 	sub.w	r2, r2, #928	; 0x3a0
 8002848:	4293      	cmp	r3, r2
 800284a:	f000 871a 	beq.w	8003682 <HAL_DMA_IRQHandler+0x20ae>
 800284e:	f502 6280 	add.w	r2, r2, #1024	; 0x400
 8002852:	4293      	cmp	r3, r2
 8002854:	bf0c      	ite	eq
 8002856:	f44f 3280 	moveq.w	r2, #65536	; 0x10000
 800285a:	f44f 0280 	movne.w	r2, #4194304	; 0x400000
 800285e:	4937      	ldr	r1, [pc, #220]	; (800293c <HAL_DMA_IRQHandler+0x1368>)
 8002860:	6ca3      	ldr	r3, [r4, #72]	; 0x48
 8002862:	60ca      	str	r2, [r1, #12]
 8002864:	6ce2      	ldr	r2, [r4, #76]	; 0x4c
 8002866:	2104      	movs	r1, #4
 8002868:	f042 0202 	orr.w	r2, r2, #2
 800286c:	2000      	movs	r0, #0
 800286e:	64e2      	str	r2, [r4, #76]	; 0x4c
 8002870:	f884 0034 	strb.w	r0, [r4, #52]	; 0x34
 8002874:	f884 1035 	strb.w	r1, [r4, #53]	; 0x35
 8002878:	2b00      	cmp	r3, #0
 800287a:	f47f a960 	bne.w	8001b3e <HAL_DMA_IRQHandler+0x56a>
 800287e:	f7fe bfd9 	b.w	8001834 <HAL_DMA_IRQHandler+0x260>
 8002882:	4a2d      	ldr	r2, [pc, #180]	; (8002938 <HAL_DMA_IRQHandler+0x1364>)
 8002884:	4293      	cmp	r3, r2
 8002886:	f240 8379 	bls.w	8002f7c <HAL_DMA_IRQHandler+0x19a8>
 800288a:	3a48      	subs	r2, #72	; 0x48
 800288c:	4293      	cmp	r3, r2
 800288e:	f000 8458 	beq.w	8003142 <HAL_DMA_IRQHandler+0x1b6e>
 8002892:	f502 6280 	add.w	r2, r2, #1024	; 0x400
 8002896:	4293      	cmp	r3, r2
 8002898:	f000 8453 	beq.w	8003142 <HAL_DMA_IRQHandler+0x1b6e>
 800289c:	f5a2 7268 	sub.w	r2, r2, #928	; 0x3a0
 80028a0:	4293      	cmp	r3, r2
 80028a2:	f000 844e 	beq.w	8003142 <HAL_DMA_IRQHandler+0x1b6e>
 80028a6:	f502 6280 	add.w	r2, r2, #1024	; 0x400
 80028aa:	4293      	cmp	r3, r2
 80028ac:	f000 8449 	beq.w	8003142 <HAL_DMA_IRQHandler+0x1b6e>
 80028b0:	f5a2 6289 	sub.w	r2, r2, #1096	; 0x448
 80028b4:	4293      	cmp	r3, r2
 80028b6:	f000 8617 	beq.w	80034e8 <HAL_DMA_IRQHandler+0x1f14>
 80028ba:	f502 6280 	add.w	r2, r2, #1024	; 0x400
 80028be:	4293      	cmp	r3, r2
 80028c0:	f000 8612 	beq.w	80034e8 <HAL_DMA_IRQHandler+0x1f14>
 80028c4:	f5a2 7268 	sub.w	r2, r2, #928	; 0x3a0
 80028c8:	4293      	cmp	r3, r2
 80028ca:	f000 860d 	beq.w	80034e8 <HAL_DMA_IRQHandler+0x1f14>
 80028ce:	f502 6280 	add.w	r2, r2, #1024	; 0x400
 80028d2:	4293      	cmp	r3, r2
 80028d4:	f000 8608 	beq.w	80034e8 <HAL_DMA_IRQHandler+0x1f14>
 80028d8:	f5a2 6289 	sub.w	r2, r2, #1096	; 0x448
 80028dc:	4293      	cmp	r3, r2
 80028de:	f000 86c5 	beq.w	800366c <HAL_DMA_IRQHandler+0x2098>
 80028e2:	f502 6280 	add.w	r2, r2, #1024	; 0x400
 80028e6:	4293      	cmp	r3, r2
 80028e8:	f000 86c0 	beq.w	800366c <HAL_DMA_IRQHandler+0x2098>
 80028ec:	f5a2 7268 	sub.w	r2, r2, #928	; 0x3a0
 80028f0:	4293      	cmp	r3, r2
 80028f2:	f000 86bb 	beq.w	800366c <HAL_DMA_IRQHandler+0x2098>
 80028f6:	4913      	ldr	r1, [pc, #76]	; (8002944 <HAL_DMA_IRQHandler+0x1370>)
 80028f8:	428b      	cmp	r3, r1
 80028fa:	bf0c      	ite	eq
 80028fc:	f44f 2180 	moveq.w	r1, #262144	; 0x40000
 8002900:	f04f 7180 	movne.w	r1, #16777216	; 0x1000000
 8002904:	480d      	ldr	r0, [pc, #52]	; (800293c <HAL_DMA_IRQHandler+0x1368>)
 8002906:	6ca2      	ldr	r2, [r4, #72]	; 0x48
 8002908:	60c1      	str	r1, [r0, #12]
 800290a:	6ce1      	ldr	r1, [r4, #76]	; 0x4c
 800290c:	2004      	movs	r0, #4
 800290e:	4301      	orrs	r1, r0
 8002910:	2500      	movs	r5, #0
 8002912:	64e1      	str	r1, [r4, #76]	; 0x4c
 8002914:	f884 5034 	strb.w	r5, [r4, #52]	; 0x34
 8002918:	f884 0035 	strb.w	r0, [r4, #53]	; 0x35
 800291c:	2a00      	cmp	r2, #0
 800291e:	f47f ab42 	bne.w	8001fa6 <HAL_DMA_IRQHandler+0x9d2>
 8002922:	f7ff b95b 	b.w	8001bdc <HAL_DMA_IRQHandler+0x608>
 8002926:	bf00      	nop
 8002928:	40026010 	.word	0x40026010
 800292c:	40026410 	.word	0x40026410
 8002930:	40026400 	.word	0x40026400
 8002934:	00800004 	.word	0x00800004
 8002938:	40026058 	.word	0x40026058
 800293c:	40026000 	.word	0x40026000
 8002940:	00800001 	.word	0x00800001
 8002944:	400264a0 	.word	0x400264a0
 8002948:	4ada      	ldr	r2, [pc, #872]	; (8002cb4 <HAL_DMA_IRQHandler+0x16e0>)
 800294a:	4293      	cmp	r3, r2
 800294c:	f200 82d4 	bhi.w	8002ef8 <HAL_DMA_IRQHandler+0x1924>
 8002950:	4ad9      	ldr	r2, [pc, #868]	; (8002cb8 <HAL_DMA_IRQHandler+0x16e4>)
 8002952:	4293      	cmp	r3, r2
 8002954:	f240 843b 	bls.w	80031ce <HAL_DMA_IRQHandler+0x1bfa>
 8002958:	3a48      	subs	r2, #72	; 0x48
 800295a:	4293      	cmp	r3, r2
 800295c:	f000 855b 	beq.w	8003416 <HAL_DMA_IRQHandler+0x1e42>
 8002960:	f502 6280 	add.w	r2, r2, #1024	; 0x400
 8002964:	4293      	cmp	r3, r2
 8002966:	f000 8556 	beq.w	8003416 <HAL_DMA_IRQHandler+0x1e42>
 800296a:	f5a2 7268 	sub.w	r2, r2, #928	; 0x3a0
 800296e:	4293      	cmp	r3, r2
 8002970:	f000 8551 	beq.w	8003416 <HAL_DMA_IRQHandler+0x1e42>
 8002974:	f502 6280 	add.w	r2, r2, #1024	; 0x400
 8002978:	4293      	cmp	r3, r2
 800297a:	f000 854c 	beq.w	8003416 <HAL_DMA_IRQHandler+0x1e42>
 800297e:	f5a2 6289 	sub.w	r2, r2, #1096	; 0x448
 8002982:	4293      	cmp	r3, r2
 8002984:	f000 8627 	beq.w	80035d6 <HAL_DMA_IRQHandler+0x2002>
 8002988:	f502 6280 	add.w	r2, r2, #1024	; 0x400
 800298c:	4293      	cmp	r3, r2
 800298e:	f000 8622 	beq.w	80035d6 <HAL_DMA_IRQHandler+0x2002>
 8002992:	f5a2 7268 	sub.w	r2, r2, #928	; 0x3a0
 8002996:	4293      	cmp	r3, r2
 8002998:	f000 861d 	beq.w	80035d6 <HAL_DMA_IRQHandler+0x2002>
 800299c:	f502 6280 	add.w	r2, r2, #1024	; 0x400
 80029a0:	4293      	cmp	r3, r2
 80029a2:	f000 8618 	beq.w	80035d6 <HAL_DMA_IRQHandler+0x2002>
 80029a6:	f5a2 6289 	sub.w	r2, r2, #1096	; 0x448
 80029aa:	4293      	cmp	r3, r2
 80029ac:	f000 8687 	beq.w	80036be <HAL_DMA_IRQHandler+0x20ea>
 80029b0:	f502 6280 	add.w	r2, r2, #1024	; 0x400
 80029b4:	4293      	cmp	r3, r2
 80029b6:	f000 8682 	beq.w	80036be <HAL_DMA_IRQHandler+0x20ea>
 80029ba:	f5a2 7268 	sub.w	r2, r2, #928	; 0x3a0
 80029be:	4293      	cmp	r3, r2
 80029c0:	f000 867d 	beq.w	80036be <HAL_DMA_IRQHandler+0x20ea>
 80029c4:	f502 6280 	add.w	r2, r2, #1024	; 0x400
 80029c8:	4293      	cmp	r3, r2
 80029ca:	bf0c      	ite	eq
 80029cc:	f44f 1200 	moveq.w	r2, #2097152	; 0x200000
 80029d0:	f04f 6200 	movne.w	r2, #134217728	; 0x8000000
 80029d4:	49b9      	ldr	r1, [pc, #740]	; (8002cbc <HAL_DMA_IRQHandler+0x16e8>)
 80029d6:	60ca      	str	r2, [r1, #12]
 80029d8:	f7ff bb5d 	b.w	8002096 <HAL_DMA_IRQHandler+0xac2>
 80029dc:	4ab5      	ldr	r2, [pc, #724]	; (8002cb4 <HAL_DMA_IRQHandler+0x16e0>)
 80029de:	4293      	cmp	r3, r2
 80029e0:	f200 8248 	bhi.w	8002e74 <HAL_DMA_IRQHandler+0x18a0>
 80029e4:	4ab4      	ldr	r2, [pc, #720]	; (8002cb8 <HAL_DMA_IRQHandler+0x16e4>)
 80029e6:	4293      	cmp	r3, r2
 80029e8:	f240 84b7 	bls.w	800335a <HAL_DMA_IRQHandler+0x1d86>
 80029ec:	3a48      	subs	r2, #72	; 0x48
 80029ee:	4293      	cmp	r3, r2
 80029f0:	f000 8519 	beq.w	8003426 <HAL_DMA_IRQHandler+0x1e52>
 80029f4:	f502 6280 	add.w	r2, r2, #1024	; 0x400
 80029f8:	4293      	cmp	r3, r2
 80029fa:	f000 8514 	beq.w	8003426 <HAL_DMA_IRQHandler+0x1e52>
 80029fe:	f5a2 7268 	sub.w	r2, r2, #928	; 0x3a0
 8002a02:	4293      	cmp	r3, r2
 8002a04:	f000 850f 	beq.w	8003426 <HAL_DMA_IRQHandler+0x1e52>
 8002a08:	f502 6280 	add.w	r2, r2, #1024	; 0x400
 8002a0c:	4293      	cmp	r3, r2
 8002a0e:	f000 850a 	beq.w	8003426 <HAL_DMA_IRQHandler+0x1e52>
 8002a12:	f5a2 6289 	sub.w	r2, r2, #1096	; 0x448
 8002a16:	4293      	cmp	r3, r2
 8002a18:	f000 85c8 	beq.w	80035ac <HAL_DMA_IRQHandler+0x1fd8>
 8002a1c:	f502 6280 	add.w	r2, r2, #1024	; 0x400
 8002a20:	4293      	cmp	r3, r2
 8002a22:	f000 85c3 	beq.w	80035ac <HAL_DMA_IRQHandler+0x1fd8>
 8002a26:	f5a2 7268 	sub.w	r2, r2, #928	; 0x3a0
 8002a2a:	4293      	cmp	r3, r2
 8002a2c:	f000 85be 	beq.w	80035ac <HAL_DMA_IRQHandler+0x1fd8>
 8002a30:	f502 6280 	add.w	r2, r2, #1024	; 0x400
 8002a34:	4293      	cmp	r3, r2
 8002a36:	f000 85b9 	beq.w	80035ac <HAL_DMA_IRQHandler+0x1fd8>
 8002a3a:	f5a2 6289 	sub.w	r2, r2, #1096	; 0x448
 8002a3e:	4293      	cmp	r3, r2
 8002a40:	f000 862d 	beq.w	800369e <HAL_DMA_IRQHandler+0x20ca>
 8002a44:	f502 6280 	add.w	r2, r2, #1024	; 0x400
 8002a48:	4293      	cmp	r3, r2
 8002a4a:	f000 8628 	beq.w	800369e <HAL_DMA_IRQHandler+0x20ca>
 8002a4e:	f5a2 7268 	sub.w	r2, r2, #928	; 0x3a0
 8002a52:	4293      	cmp	r3, r2
 8002a54:	f000 8623 	beq.w	800369e <HAL_DMA_IRQHandler+0x20ca>
 8002a58:	f502 6280 	add.w	r2, r2, #1024	; 0x400
 8002a5c:	4293      	cmp	r3, r2
 8002a5e:	bf0c      	ite	eq
 8002a60:	f44f 1280 	moveq.w	r2, #1048576	; 0x100000
 8002a64:	f04f 6280 	movne.w	r2, #67108864	; 0x4000000
 8002a68:	4994      	ldr	r1, [pc, #592]	; (8002cbc <HAL_DMA_IRQHandler+0x16e8>)
 8002a6a:	60ca      	str	r2, [r1, #12]
 8002a6c:	f7ff bb6c 	b.w	8002148 <HAL_DMA_IRQHandler+0xb74>
 8002a70:	4a90      	ldr	r2, [pc, #576]	; (8002cb4 <HAL_DMA_IRQHandler+0x16e0>)
 8002a72:	4293      	cmp	r3, r2
 8002a74:	f200 816c 	bhi.w	8002d50 <HAL_DMA_IRQHandler+0x177c>
 8002a78:	4a8f      	ldr	r2, [pc, #572]	; (8002cb8 <HAL_DMA_IRQHandler+0x16e4>)
 8002a7a:	4293      	cmp	r3, r2
 8002a7c:	f240 842b 	bls.w	80032d6 <HAL_DMA_IRQHandler+0x1d02>
 8002a80:	3a48      	subs	r2, #72	; 0x48
 8002a82:	4293      	cmp	r3, r2
 8002a84:	f000 84d4 	beq.w	8003430 <HAL_DMA_IRQHandler+0x1e5c>
 8002a88:	f502 6280 	add.w	r2, r2, #1024	; 0x400
 8002a8c:	4293      	cmp	r3, r2
 8002a8e:	f000 84cf 	beq.w	8003430 <HAL_DMA_IRQHandler+0x1e5c>
 8002a92:	f5a2 7268 	sub.w	r2, r2, #928	; 0x3a0
 8002a96:	4293      	cmp	r3, r2
 8002a98:	f000 84ca 	beq.w	8003430 <HAL_DMA_IRQHandler+0x1e5c>
 8002a9c:	f502 6280 	add.w	r2, r2, #1024	; 0x400
 8002aa0:	4293      	cmp	r3, r2
 8002aa2:	f000 84c5 	beq.w	8003430 <HAL_DMA_IRQHandler+0x1e5c>
 8002aa6:	f5a2 6289 	sub.w	r2, r2, #1096	; 0x448
 8002aaa:	4293      	cmp	r3, r2
 8002aac:	f000 858c 	beq.w	80035c8 <HAL_DMA_IRQHandler+0x1ff4>
 8002ab0:	f502 6280 	add.w	r2, r2, #1024	; 0x400
 8002ab4:	4293      	cmp	r3, r2
 8002ab6:	f000 8587 	beq.w	80035c8 <HAL_DMA_IRQHandler+0x1ff4>
 8002aba:	f5a2 7268 	sub.w	r2, r2, #928	; 0x3a0
 8002abe:	4293      	cmp	r3, r2
 8002ac0:	f000 8582 	beq.w	80035c8 <HAL_DMA_IRQHandler+0x1ff4>
 8002ac4:	f502 6280 	add.w	r2, r2, #1024	; 0x400
 8002ac8:	4293      	cmp	r3, r2
 8002aca:	f000 857d 	beq.w	80035c8 <HAL_DMA_IRQHandler+0x1ff4>
 8002ace:	f5a2 6289 	sub.w	r2, r2, #1096	; 0x448
 8002ad2:	4293      	cmp	r3, r2
 8002ad4:	f000 85fb 	beq.w	80036ce <HAL_DMA_IRQHandler+0x20fa>
 8002ad8:	f502 6280 	add.w	r2, r2, #1024	; 0x400
 8002adc:	4293      	cmp	r3, r2
 8002ade:	f000 85f6 	beq.w	80036ce <HAL_DMA_IRQHandler+0x20fa>
 8002ae2:	f5a2 7268 	sub.w	r2, r2, #928	; 0x3a0
 8002ae6:	4293      	cmp	r3, r2
 8002ae8:	f000 85f1 	beq.w	80036ce <HAL_DMA_IRQHandler+0x20fa>
 8002aec:	f502 6280 	add.w	r2, r2, #1024	; 0x400
 8002af0:	4293      	cmp	r3, r2
 8002af2:	bf0c      	ite	eq
 8002af4:	f44f 1300 	moveq.w	r3, #2097152	; 0x200000
 8002af8:	f04f 6300 	movne.w	r3, #134217728	; 0x8000000
 8002afc:	4a6f      	ldr	r2, [pc, #444]	; (8002cbc <HAL_DMA_IRQHandler+0x16e8>)
 8002afe:	60d3      	str	r3, [r2, #12]
 8002b00:	e4e5      	b.n	80024ce <HAL_DMA_IRQHandler+0xefa>
 8002b02:	4a6c      	ldr	r2, [pc, #432]	; (8002cb4 <HAL_DMA_IRQHandler+0x16e0>)
 8002b04:	4293      	cmp	r3, r2
 8002b06:	f200 80e1 	bhi.w	8002ccc <HAL_DMA_IRQHandler+0x16f8>
 8002b0a:	4a6b      	ldr	r2, [pc, #428]	; (8002cb8 <HAL_DMA_IRQHandler+0x16e4>)
 8002b0c:	4293      	cmp	r3, r2
 8002b0e:	f240 83a0 	bls.w	8003252 <HAL_DMA_IRQHandler+0x1c7e>
 8002b12:	3a48      	subs	r2, #72	; 0x48
 8002b14:	4293      	cmp	r3, r2
 8002b16:	f000 8481 	beq.w	800341c <HAL_DMA_IRQHandler+0x1e48>
 8002b1a:	f502 6280 	add.w	r2, r2, #1024	; 0x400
 8002b1e:	4293      	cmp	r3, r2
 8002b20:	f000 847c 	beq.w	800341c <HAL_DMA_IRQHandler+0x1e48>
 8002b24:	f5a2 7268 	sub.w	r2, r2, #928	; 0x3a0
 8002b28:	4293      	cmp	r3, r2
 8002b2a:	f000 8477 	beq.w	800341c <HAL_DMA_IRQHandler+0x1e48>
 8002b2e:	f502 6280 	add.w	r2, r2, #1024	; 0x400
 8002b32:	4293      	cmp	r3, r2
 8002b34:	f000 8472 	beq.w	800341c <HAL_DMA_IRQHandler+0x1e48>
 8002b38:	f5a2 6289 	sub.w	r2, r2, #1096	; 0x448
 8002b3c:	4293      	cmp	r3, r2
 8002b3e:	f000 853f 	beq.w	80035c0 <HAL_DMA_IRQHandler+0x1fec>
 8002b42:	f502 6280 	add.w	r2, r2, #1024	; 0x400
 8002b46:	4293      	cmp	r3, r2
 8002b48:	f000 853a 	beq.w	80035c0 <HAL_DMA_IRQHandler+0x1fec>
 8002b4c:	f5a2 7268 	sub.w	r2, r2, #928	; 0x3a0
 8002b50:	4293      	cmp	r3, r2
 8002b52:	f000 8535 	beq.w	80035c0 <HAL_DMA_IRQHandler+0x1fec>
 8002b56:	f502 6280 	add.w	r2, r2, #1024	; 0x400
 8002b5a:	4293      	cmp	r3, r2
 8002b5c:	f000 8530 	beq.w	80035c0 <HAL_DMA_IRQHandler+0x1fec>
 8002b60:	f5a2 6289 	sub.w	r2, r2, #1096	; 0x448
 8002b64:	4293      	cmp	r3, r2
 8002b66:	f000 85ae 	beq.w	80036c6 <HAL_DMA_IRQHandler+0x20f2>
 8002b6a:	f502 6280 	add.w	r2, r2, #1024	; 0x400
 8002b6e:	4293      	cmp	r3, r2
 8002b70:	f000 85a9 	beq.w	80036c6 <HAL_DMA_IRQHandler+0x20f2>
 8002b74:	f5a2 7268 	sub.w	r2, r2, #928	; 0x3a0
 8002b78:	4293      	cmp	r3, r2
 8002b7a:	f000 85a4 	beq.w	80036c6 <HAL_DMA_IRQHandler+0x20f2>
 8002b7e:	f502 6280 	add.w	r2, r2, #1024	; 0x400
 8002b82:	4293      	cmp	r3, r2
 8002b84:	bf0c      	ite	eq
 8002b86:	f44f 1280 	moveq.w	r2, #1048576	; 0x100000
 8002b8a:	f04f 6280 	movne.w	r2, #67108864	; 0x4000000
 8002b8e:	494b      	ldr	r1, [pc, #300]	; (8002cbc <HAL_DMA_IRQHandler+0x16e8>)
 8002b90:	60ca      	str	r2, [r1, #12]
 8002b92:	f7ff bb8a 	b.w	80022aa <HAL_DMA_IRQHandler+0xcd6>
 8002b96:	4a4a      	ldr	r2, [pc, #296]	; (8002cc0 <HAL_DMA_IRQHandler+0x16ec>)
 8002b98:	6800      	ldr	r0, [r0, #0]
 8002b9a:	4293      	cmp	r3, r2
 8002b9c:	f47f a90d 	bne.w	8001dba <HAL_DMA_IRQHandler+0x7e6>
 8002ba0:	4b47      	ldr	r3, [pc, #284]	; (8002cc0 <HAL_DMA_IRQHandler+0x16ec>)
 8002ba2:	4a48      	ldr	r2, [pc, #288]	; (8002cc4 <HAL_DMA_IRQHandler+0x16f0>)
 8002ba4:	f7fe bee6 	b.w	8001974 <HAL_DMA_IRQHandler+0x3a0>
 8002ba8:	f502 6280 	add.w	r2, r2, #1024	; 0x400
 8002bac:	4293      	cmp	r3, r2
 8002bae:	f43f aa17 	beq.w	8001fe0 <HAL_DMA_IRQHandler+0xa0c>
 8002bb2:	f5a2 6289 	sub.w	r2, r2, #1096	; 0x448
 8002bb6:	4293      	cmp	r3, r2
 8002bb8:	f000 82e1 	beq.w	800317e <HAL_DMA_IRQHandler+0x1baa>
 8002bbc:	f502 6280 	add.w	r2, r2, #1024	; 0x400
 8002bc0:	4293      	cmp	r3, r2
 8002bc2:	f000 82dc 	beq.w	800317e <HAL_DMA_IRQHandler+0x1baa>
 8002bc6:	f5a2 7268 	sub.w	r2, r2, #928	; 0x3a0
 8002bca:	4293      	cmp	r3, r2
 8002bcc:	f000 82d7 	beq.w	800317e <HAL_DMA_IRQHandler+0x1baa>
 8002bd0:	f502 6280 	add.w	r2, r2, #1024	; 0x400
 8002bd4:	4293      	cmp	r3, r2
 8002bd6:	f000 82d2 	beq.w	800317e <HAL_DMA_IRQHandler+0x1baa>
 8002bda:	f5a2 6289 	sub.w	r2, r2, #1096	; 0x448
 8002bde:	4293      	cmp	r3, r2
 8002be0:	f000 84a6 	beq.w	8003530 <HAL_DMA_IRQHandler+0x1f5c>
 8002be4:	f502 6280 	add.w	r2, r2, #1024	; 0x400
 8002be8:	4293      	cmp	r3, r2
 8002bea:	f000 84a1 	beq.w	8003530 <HAL_DMA_IRQHandler+0x1f5c>
 8002bee:	f5a2 7268 	sub.w	r2, r2, #928	; 0x3a0
 8002bf2:	4293      	cmp	r3, r2
 8002bf4:	f000 849c 	beq.w	8003530 <HAL_DMA_IRQHandler+0x1f5c>
 8002bf8:	f502 6280 	add.w	r2, r2, #1024	; 0x400
 8002bfc:	4293      	cmp	r3, r2
 8002bfe:	bf0c      	ite	eq
 8002c00:	f44f 1280 	moveq.w	r2, #1048576	; 0x100000
 8002c04:	f04f 6280 	movne.w	r2, #67108864	; 0x4000000
 8002c08:	f7ff b9eb 	b.w	8001fe2 <HAL_DMA_IRQHandler+0xa0e>
 8002c0c:	f502 6280 	add.w	r2, r2, #1024	; 0x400
 8002c10:	4293      	cmp	r3, r2
 8002c12:	f43f a9b8 	beq.w	8001f86 <HAL_DMA_IRQHandler+0x9b2>
 8002c16:	f5a2 6289 	sub.w	r2, r2, #1096	; 0x448
 8002c1a:	4293      	cmp	r3, r2
 8002c1c:	f000 82a3 	beq.w	8003166 <HAL_DMA_IRQHandler+0x1b92>
 8002c20:	f502 6280 	add.w	r2, r2, #1024	; 0x400
 8002c24:	4293      	cmp	r3, r2
 8002c26:	f000 829e 	beq.w	8003166 <HAL_DMA_IRQHandler+0x1b92>
 8002c2a:	f5a2 7268 	sub.w	r2, r2, #928	; 0x3a0
 8002c2e:	4293      	cmp	r3, r2
 8002c30:	f000 8299 	beq.w	8003166 <HAL_DMA_IRQHandler+0x1b92>
 8002c34:	f502 6280 	add.w	r2, r2, #1024	; 0x400
 8002c38:	4293      	cmp	r3, r2
 8002c3a:	f000 8294 	beq.w	8003166 <HAL_DMA_IRQHandler+0x1b92>
 8002c3e:	f5a2 6289 	sub.w	r2, r2, #1096	; 0x448
 8002c42:	4293      	cmp	r3, r2
 8002c44:	f000 8488 	beq.w	8003558 <HAL_DMA_IRQHandler+0x1f84>
 8002c48:	f502 6280 	add.w	r2, r2, #1024	; 0x400
 8002c4c:	4293      	cmp	r3, r2
 8002c4e:	f000 8483 	beq.w	8003558 <HAL_DMA_IRQHandler+0x1f84>
 8002c52:	f5a2 7268 	sub.w	r2, r2, #928	; 0x3a0
 8002c56:	4293      	cmp	r3, r2
 8002c58:	f000 847e 	beq.w	8003558 <HAL_DMA_IRQHandler+0x1f84>
 8002c5c:	481a      	ldr	r0, [pc, #104]	; (8002cc8 <HAL_DMA_IRQHandler+0x16f4>)
 8002c5e:	4283      	cmp	r3, r0
 8002c60:	bf0c      	ite	eq
 8002c62:	f44f 2080 	moveq.w	r0, #262144	; 0x40000
 8002c66:	f04f 7080 	movne.w	r0, #16777216	; 0x1000000
 8002c6a:	f7ff b98d 	b.w	8001f88 <HAL_DMA_IRQHandler+0x9b4>
 8002c6e:	f502 6280 	add.w	r2, r2, #1024	; 0x400
 8002c72:	4293      	cmp	r3, r2
 8002c74:	f43f a96b 	beq.w	8001f4e <HAL_DMA_IRQHandler+0x97a>
 8002c78:	f5a2 6289 	sub.w	r2, r2, #1096	; 0x448
 8002c7c:	4293      	cmp	r3, r2
 8002c7e:	f000 8293 	beq.w	80031a8 <HAL_DMA_IRQHandler+0x1bd4>
 8002c82:	f502 6280 	add.w	r2, r2, #1024	; 0x400
 8002c86:	4293      	cmp	r3, r2
 8002c88:	f000 828e 	beq.w	80031a8 <HAL_DMA_IRQHandler+0x1bd4>
 8002c8c:	f5a2 7268 	sub.w	r2, r2, #928	; 0x3a0
 8002c90:	4293      	cmp	r3, r2
 8002c92:	f000 8289 	beq.w	80031a8 <HAL_DMA_IRQHandler+0x1bd4>
 8002c96:	f502 6280 	add.w	r2, r2, #1024	; 0x400
 8002c9a:	4293      	cmp	r3, r2
 8002c9c:	bf0c      	ite	eq
 8002c9e:	f44f 2280 	moveq.w	r2, #262144	; 0x40000
 8002ca2:	f04f 7280 	movne.w	r2, #16777216	; 0x1000000
 8002ca6:	f7ff b954 	b.w	8001f52 <HAL_DMA_IRQHandler+0x97e>
 8002caa:	6850      	ldr	r0, [r2, #4]
 8002cac:	4a05      	ldr	r2, [pc, #20]	; (8002cc4 <HAL_DMA_IRQHandler+0x16f0>)
 8002cae:	f7fe bdbe 	b.w	800182e <HAL_DMA_IRQHandler+0x25a>
 8002cb2:	bf00      	nop
 8002cb4:	400260b8 	.word	0x400260b8
 8002cb8:	40026058 	.word	0x40026058
 8002cbc:	40026000 	.word	0x40026000
 8002cc0:	40026010 	.word	0x40026010
 8002cc4:	00800001 	.word	0x00800001
 8002cc8:	400264a0 	.word	0x400264a0
 8002ccc:	3aa8      	subs	r2, #168	; 0xa8
 8002cce:	4293      	cmp	r3, r2
 8002cd0:	f000 823a 	beq.w	8003148 <HAL_DMA_IRQHandler+0x1b74>
 8002cd4:	f502 6280 	add.w	r2, r2, #1024	; 0x400
 8002cd8:	4293      	cmp	r3, r2
 8002cda:	f000 8235 	beq.w	8003148 <HAL_DMA_IRQHandler+0x1b74>
 8002cde:	f5a2 7268 	sub.w	r2, r2, #928	; 0x3a0
 8002ce2:	4293      	cmp	r3, r2
 8002ce4:	f000 8230 	beq.w	8003148 <HAL_DMA_IRQHandler+0x1b74>
 8002ce8:	f502 6280 	add.w	r2, r2, #1024	; 0x400
 8002cec:	4293      	cmp	r3, r2
 8002cee:	f000 822b 	beq.w	8003148 <HAL_DMA_IRQHandler+0x1b74>
 8002cf2:	f5a2 6289 	sub.w	r2, r2, #1096	; 0x448
 8002cf6:	4293      	cmp	r3, r2
 8002cf8:	f000 83fa 	beq.w	80034f0 <HAL_DMA_IRQHandler+0x1f1c>
 8002cfc:	f502 6280 	add.w	r2, r2, #1024	; 0x400
 8002d00:	4293      	cmp	r3, r2
 8002d02:	f000 83f5 	beq.w	80034f0 <HAL_DMA_IRQHandler+0x1f1c>
 8002d06:	f5a2 7268 	sub.w	r2, r2, #928	; 0x3a0
 8002d0a:	4293      	cmp	r3, r2
 8002d0c:	f000 83f0 	beq.w	80034f0 <HAL_DMA_IRQHandler+0x1f1c>
 8002d10:	f502 6280 	add.w	r2, r2, #1024	; 0x400
 8002d14:	4293      	cmp	r3, r2
 8002d16:	f000 83eb 	beq.w	80034f0 <HAL_DMA_IRQHandler+0x1f1c>
 8002d1a:	f5a2 6289 	sub.w	r2, r2, #1096	; 0x448
 8002d1e:	4293      	cmp	r3, r2
 8002d20:	f000 849c 	beq.w	800365c <HAL_DMA_IRQHandler+0x2088>
 8002d24:	f502 6280 	add.w	r2, r2, #1024	; 0x400
 8002d28:	4293      	cmp	r3, r2
 8002d2a:	f000 8497 	beq.w	800365c <HAL_DMA_IRQHandler+0x2088>
 8002d2e:	f5a2 7268 	sub.w	r2, r2, #928	; 0x3a0
 8002d32:	4293      	cmp	r3, r2
 8002d34:	f000 8492 	beq.w	800365c <HAL_DMA_IRQHandler+0x2088>
 8002d38:	f502 6280 	add.w	r2, r2, #1024	; 0x400
 8002d3c:	4293      	cmp	r3, r2
 8002d3e:	bf0c      	ite	eq
 8002d40:	f44f 1280 	moveq.w	r2, #1048576	; 0x100000
 8002d44:	f04f 6280 	movne.w	r2, #67108864	; 0x4000000
 8002d48:	49d9      	ldr	r1, [pc, #868]	; (80030b0 <HAL_DMA_IRQHandler+0x1adc>)
 8002d4a:	608a      	str	r2, [r1, #8]
 8002d4c:	f7ff baad 	b.w	80022aa <HAL_DMA_IRQHandler+0xcd6>
 8002d50:	3aa8      	subs	r2, #168	; 0xa8
 8002d52:	4293      	cmp	r3, r2
 8002d54:	f000 81f0 	beq.w	8003138 <HAL_DMA_IRQHandler+0x1b64>
 8002d58:	f502 6280 	add.w	r2, r2, #1024	; 0x400
 8002d5c:	4293      	cmp	r3, r2
 8002d5e:	f000 81eb 	beq.w	8003138 <HAL_DMA_IRQHandler+0x1b64>
 8002d62:	f5a2 7268 	sub.w	r2, r2, #928	; 0x3a0
 8002d66:	4293      	cmp	r3, r2
 8002d68:	f000 81e6 	beq.w	8003138 <HAL_DMA_IRQHandler+0x1b64>
 8002d6c:	f502 6280 	add.w	r2, r2, #1024	; 0x400
 8002d70:	4293      	cmp	r3, r2
 8002d72:	f000 81e1 	beq.w	8003138 <HAL_DMA_IRQHandler+0x1b64>
 8002d76:	f5a2 6289 	sub.w	r2, r2, #1096	; 0x448
 8002d7a:	4293      	cmp	r3, r2
 8002d7c:	f000 83bf 	beq.w	80034fe <HAL_DMA_IRQHandler+0x1f2a>
 8002d80:	f502 6280 	add.w	r2, r2, #1024	; 0x400
 8002d84:	4293      	cmp	r3, r2
 8002d86:	f000 83ba 	beq.w	80034fe <HAL_DMA_IRQHandler+0x1f2a>
 8002d8a:	f5a2 7268 	sub.w	r2, r2, #928	; 0x3a0
 8002d8e:	4293      	cmp	r3, r2
 8002d90:	f000 83b5 	beq.w	80034fe <HAL_DMA_IRQHandler+0x1f2a>
 8002d94:	f502 6280 	add.w	r2, r2, #1024	; 0x400
 8002d98:	4293      	cmp	r3, r2
 8002d9a:	f000 83b0 	beq.w	80034fe <HAL_DMA_IRQHandler+0x1f2a>
 8002d9e:	f5a2 6289 	sub.w	r2, r2, #1096	; 0x448
 8002da2:	4293      	cmp	r3, r2
 8002da4:	f000 845e 	beq.w	8003664 <HAL_DMA_IRQHandler+0x2090>
 8002da8:	f502 6280 	add.w	r2, r2, #1024	; 0x400
 8002dac:	4293      	cmp	r3, r2
 8002dae:	f000 8459 	beq.w	8003664 <HAL_DMA_IRQHandler+0x2090>
 8002db2:	f5a2 7268 	sub.w	r2, r2, #928	; 0x3a0
 8002db6:	4293      	cmp	r3, r2
 8002db8:	f000 8454 	beq.w	8003664 <HAL_DMA_IRQHandler+0x2090>
 8002dbc:	f502 6280 	add.w	r2, r2, #1024	; 0x400
 8002dc0:	4293      	cmp	r3, r2
 8002dc2:	bf0c      	ite	eq
 8002dc4:	f44f 1300 	moveq.w	r3, #2097152	; 0x200000
 8002dc8:	f04f 6300 	movne.w	r3, #134217728	; 0x8000000
 8002dcc:	4ab8      	ldr	r2, [pc, #736]	; (80030b0 <HAL_DMA_IRQHandler+0x1adc>)
 8002dce:	6093      	str	r3, [r2, #8]
 8002dd0:	f7ff bb7d 	b.w	80024ce <HAL_DMA_IRQHandler+0xefa>
 8002dd4:	4ab7      	ldr	r2, [pc, #732]	; (80030b4 <HAL_DMA_IRQHandler+0x1ae0>)
 8002dd6:	4293      	cmp	r3, r2
 8002dd8:	f000 81bc 	beq.w	8003154 <HAL_DMA_IRQHandler+0x1b80>
 8002ddc:	f502 6280 	add.w	r2, r2, #1024	; 0x400
 8002de0:	4293      	cmp	r3, r2
 8002de2:	f000 81b7 	beq.w	8003154 <HAL_DMA_IRQHandler+0x1b80>
 8002de6:	f5a2 7268 	sub.w	r2, r2, #928	; 0x3a0
 8002dea:	4293      	cmp	r3, r2
 8002dec:	f000 81b2 	beq.w	8003154 <HAL_DMA_IRQHandler+0x1b80>
 8002df0:	f502 6280 	add.w	r2, r2, #1024	; 0x400
 8002df4:	4293      	cmp	r3, r2
 8002df6:	f000 81ad 	beq.w	8003154 <HAL_DMA_IRQHandler+0x1b80>
 8002dfa:	f5a2 6289 	sub.w	r2, r2, #1096	; 0x448
 8002dfe:	4293      	cmp	r3, r2
 8002e00:	f000 8390 	beq.w	8003524 <HAL_DMA_IRQHandler+0x1f50>
 8002e04:	f502 6280 	add.w	r2, r2, #1024	; 0x400
 8002e08:	4293      	cmp	r3, r2
 8002e0a:	f000 838b 	beq.w	8003524 <HAL_DMA_IRQHandler+0x1f50>
 8002e0e:	f5a2 7268 	sub.w	r2, r2, #928	; 0x3a0
 8002e12:	4293      	cmp	r3, r2
 8002e14:	f000 8386 	beq.w	8003524 <HAL_DMA_IRQHandler+0x1f50>
 8002e18:	f502 6280 	add.w	r2, r2, #1024	; 0x400
 8002e1c:	4293      	cmp	r3, r2
 8002e1e:	f000 8381 	beq.w	8003524 <HAL_DMA_IRQHandler+0x1f50>
 8002e22:	f5a2 6289 	sub.w	r2, r2, #1096	; 0x448
 8002e26:	4293      	cmp	r3, r2
 8002e28:	f000 8427 	beq.w	800367a <HAL_DMA_IRQHandler+0x20a6>
 8002e2c:	f502 6280 	add.w	r2, r2, #1024	; 0x400
 8002e30:	4293      	cmp	r3, r2
 8002e32:	f000 8422 	beq.w	800367a <HAL_DMA_IRQHandler+0x20a6>
 8002e36:	f5a2 7268 	sub.w	r2, r2, #928	; 0x3a0
 8002e3a:	4293      	cmp	r3, r2
 8002e3c:	f000 841d 	beq.w	800367a <HAL_DMA_IRQHandler+0x20a6>
 8002e40:	f502 6280 	add.w	r2, r2, #1024	; 0x400
 8002e44:	4293      	cmp	r3, r2
 8002e46:	bf0c      	ite	eq
 8002e48:	f44f 3280 	moveq.w	r2, #65536	; 0x10000
 8002e4c:	f44f 0280 	movne.w	r2, #4194304	; 0x400000
 8002e50:	4999      	ldr	r1, [pc, #612]	; (80030b8 <HAL_DMA_IRQHandler+0x1ae4>)
 8002e52:	6ca3      	ldr	r3, [r4, #72]	; 0x48
 8002e54:	608a      	str	r2, [r1, #8]
 8002e56:	6ce2      	ldr	r2, [r4, #76]	; 0x4c
 8002e58:	2104      	movs	r1, #4
 8002e5a:	f042 0202 	orr.w	r2, r2, #2
 8002e5e:	2000      	movs	r0, #0
 8002e60:	64e2      	str	r2, [r4, #76]	; 0x4c
 8002e62:	f884 0034 	strb.w	r0, [r4, #52]	; 0x34
 8002e66:	f884 1035 	strb.w	r1, [r4, #53]	; 0x35
 8002e6a:	2b00      	cmp	r3, #0
 8002e6c:	f47e ae67 	bne.w	8001b3e <HAL_DMA_IRQHandler+0x56a>
 8002e70:	f7fe bd83 	b.w	800197a <HAL_DMA_IRQHandler+0x3a6>
 8002e74:	3aa8      	subs	r2, #168	; 0xa8
 8002e76:	4293      	cmp	r3, r2
 8002e78:	f000 8168 	beq.w	800314c <HAL_DMA_IRQHandler+0x1b78>
 8002e7c:	f502 6280 	add.w	r2, r2, #1024	; 0x400
 8002e80:	4293      	cmp	r3, r2
 8002e82:	f000 8163 	beq.w	800314c <HAL_DMA_IRQHandler+0x1b78>
 8002e86:	f5a2 7268 	sub.w	r2, r2, #928	; 0x3a0
 8002e8a:	4293      	cmp	r3, r2
 8002e8c:	f000 815e 	beq.w	800314c <HAL_DMA_IRQHandler+0x1b78>
 8002e90:	f502 6280 	add.w	r2, r2, #1024	; 0x400
 8002e94:	4293      	cmp	r3, r2
 8002e96:	f000 8159 	beq.w	800314c <HAL_DMA_IRQHandler+0x1b78>
 8002e9a:	f5a2 6289 	sub.w	r2, r2, #1096	; 0x448
 8002e9e:	4293      	cmp	r3, r2
 8002ea0:	f000 833a 	beq.w	8003518 <HAL_DMA_IRQHandler+0x1f44>
 8002ea4:	f502 6280 	add.w	r2, r2, #1024	; 0x400
 8002ea8:	4293      	cmp	r3, r2
 8002eaa:	f000 8335 	beq.w	8003518 <HAL_DMA_IRQHandler+0x1f44>
 8002eae:	f5a2 7268 	sub.w	r2, r2, #928	; 0x3a0
 8002eb2:	4293      	cmp	r3, r2
 8002eb4:	f000 8330 	beq.w	8003518 <HAL_DMA_IRQHandler+0x1f44>
 8002eb8:	f502 6280 	add.w	r2, r2, #1024	; 0x400
 8002ebc:	4293      	cmp	r3, r2
 8002ebe:	f000 832b 	beq.w	8003518 <HAL_DMA_IRQHandler+0x1f44>
 8002ec2:	f5a2 6289 	sub.w	r2, r2, #1096	; 0x448
 8002ec6:	4293      	cmp	r3, r2
 8002ec8:	f000 83d4 	beq.w	8003674 <HAL_DMA_IRQHandler+0x20a0>
 8002ecc:	f502 6280 	add.w	r2, r2, #1024	; 0x400
 8002ed0:	4293      	cmp	r3, r2
 8002ed2:	f000 83cf 	beq.w	8003674 <HAL_DMA_IRQHandler+0x20a0>
 8002ed6:	f5a2 7268 	sub.w	r2, r2, #928	; 0x3a0
 8002eda:	4293      	cmp	r3, r2
 8002edc:	f000 83ca 	beq.w	8003674 <HAL_DMA_IRQHandler+0x20a0>
 8002ee0:	f502 6280 	add.w	r2, r2, #1024	; 0x400
 8002ee4:	4293      	cmp	r3, r2
 8002ee6:	bf0c      	ite	eq
 8002ee8:	f44f 1280 	moveq.w	r2, #1048576	; 0x100000
 8002eec:	f04f 6280 	movne.w	r2, #67108864	; 0x4000000
 8002ef0:	496f      	ldr	r1, [pc, #444]	; (80030b0 <HAL_DMA_IRQHandler+0x1adc>)
 8002ef2:	608a      	str	r2, [r1, #8]
 8002ef4:	f7ff b928 	b.w	8002148 <HAL_DMA_IRQHandler+0xb74>
 8002ef8:	3aa8      	subs	r2, #168	; 0xa8
 8002efa:	4293      	cmp	r3, r2
 8002efc:	f000 8128 	beq.w	8003150 <HAL_DMA_IRQHandler+0x1b7c>
 8002f00:	f502 6280 	add.w	r2, r2, #1024	; 0x400
 8002f04:	4293      	cmp	r3, r2
 8002f06:	f000 8123 	beq.w	8003150 <HAL_DMA_IRQHandler+0x1b7c>
 8002f0a:	f5a2 7268 	sub.w	r2, r2, #928	; 0x3a0
 8002f0e:	4293      	cmp	r3, r2
 8002f10:	f000 811e 	beq.w	8003150 <HAL_DMA_IRQHandler+0x1b7c>
 8002f14:	f502 6280 	add.w	r2, r2, #1024	; 0x400
 8002f18:	4293      	cmp	r3, r2
 8002f1a:	f000 8119 	beq.w	8003150 <HAL_DMA_IRQHandler+0x1b7c>
 8002f1e:	f5a2 6289 	sub.w	r2, r2, #1096	; 0x448
 8002f22:	4293      	cmp	r3, r2
 8002f24:	f000 82fb 	beq.w	800351e <HAL_DMA_IRQHandler+0x1f4a>
 8002f28:	f502 6280 	add.w	r2, r2, #1024	; 0x400
 8002f2c:	4293      	cmp	r3, r2
 8002f2e:	f000 82f6 	beq.w	800351e <HAL_DMA_IRQHandler+0x1f4a>
 8002f32:	f5a2 7268 	sub.w	r2, r2, #928	; 0x3a0
 8002f36:	4293      	cmp	r3, r2
 8002f38:	f000 82f1 	beq.w	800351e <HAL_DMA_IRQHandler+0x1f4a>
 8002f3c:	f502 6280 	add.w	r2, r2, #1024	; 0x400
 8002f40:	4293      	cmp	r3, r2
 8002f42:	f000 82ec 	beq.w	800351e <HAL_DMA_IRQHandler+0x1f4a>
 8002f46:	f5a2 6289 	sub.w	r2, r2, #1096	; 0x448
 8002f4a:	4293      	cmp	r3, r2
 8002f4c:	f000 837f 	beq.w	800364e <HAL_DMA_IRQHandler+0x207a>
 8002f50:	f502 6280 	add.w	r2, r2, #1024	; 0x400
 8002f54:	4293      	cmp	r3, r2
 8002f56:	f000 837a 	beq.w	800364e <HAL_DMA_IRQHandler+0x207a>
 8002f5a:	f5a2 7268 	sub.w	r2, r2, #928	; 0x3a0
 8002f5e:	4293      	cmp	r3, r2
 8002f60:	f000 8375 	beq.w	800364e <HAL_DMA_IRQHandler+0x207a>
 8002f64:	f502 6280 	add.w	r2, r2, #1024	; 0x400
 8002f68:	4293      	cmp	r3, r2
 8002f6a:	bf0c      	ite	eq
 8002f6c:	f44f 1200 	moveq.w	r2, #2097152	; 0x200000
 8002f70:	f04f 6200 	movne.w	r2, #134217728	; 0x8000000
 8002f74:	494e      	ldr	r1, [pc, #312]	; (80030b0 <HAL_DMA_IRQHandler+0x1adc>)
 8002f76:	608a      	str	r2, [r1, #8]
 8002f78:	f7ff b88d 	b.w	8002096 <HAL_DMA_IRQHandler+0xac2>
 8002f7c:	4a4d      	ldr	r2, [pc, #308]	; (80030b4 <HAL_DMA_IRQHandler+0x1ae0>)
 8002f7e:	4293      	cmp	r3, r2
 8002f80:	f000 80d8 	beq.w	8003134 <HAL_DMA_IRQHandler+0x1b60>
 8002f84:	f502 6280 	add.w	r2, r2, #1024	; 0x400
 8002f88:	4293      	cmp	r3, r2
 8002f8a:	f000 80d3 	beq.w	8003134 <HAL_DMA_IRQHandler+0x1b60>
 8002f8e:	f5a2 7268 	sub.w	r2, r2, #928	; 0x3a0
 8002f92:	4293      	cmp	r3, r2
 8002f94:	f000 80ce 	beq.w	8003134 <HAL_DMA_IRQHandler+0x1b60>
 8002f98:	f502 6280 	add.w	r2, r2, #1024	; 0x400
 8002f9c:	4293      	cmp	r3, r2
 8002f9e:	f000 80c9 	beq.w	8003134 <HAL_DMA_IRQHandler+0x1b60>
 8002fa2:	f5a2 6289 	sub.w	r2, r2, #1096	; 0x448
 8002fa6:	4293      	cmp	r3, r2
 8002fa8:	f000 82af 	beq.w	800350a <HAL_DMA_IRQHandler+0x1f36>
 8002fac:	f502 6280 	add.w	r2, r2, #1024	; 0x400
 8002fb0:	4293      	cmp	r3, r2
 8002fb2:	f000 82aa 	beq.w	800350a <HAL_DMA_IRQHandler+0x1f36>
 8002fb6:	f5a2 7268 	sub.w	r2, r2, #928	; 0x3a0
 8002fba:	4293      	cmp	r3, r2
 8002fbc:	f000 82a5 	beq.w	800350a <HAL_DMA_IRQHandler+0x1f36>
 8002fc0:	f502 6280 	add.w	r2, r2, #1024	; 0x400
 8002fc4:	4293      	cmp	r3, r2
 8002fc6:	f000 82a0 	beq.w	800350a <HAL_DMA_IRQHandler+0x1f36>
 8002fca:	f5a2 6289 	sub.w	r2, r2, #1096	; 0x448
 8002fce:	4293      	cmp	r3, r2
 8002fd0:	f000 833a 	beq.w	8003648 <HAL_DMA_IRQHandler+0x2074>
 8002fd4:	f502 6280 	add.w	r2, r2, #1024	; 0x400
 8002fd8:	4293      	cmp	r3, r2
 8002fda:	f000 8335 	beq.w	8003648 <HAL_DMA_IRQHandler+0x2074>
 8002fde:	f5a2 7268 	sub.w	r2, r2, #928	; 0x3a0
 8002fe2:	4293      	cmp	r3, r2
 8002fe4:	f000 8330 	beq.w	8003648 <HAL_DMA_IRQHandler+0x2074>
 8002fe8:	4934      	ldr	r1, [pc, #208]	; (80030bc <HAL_DMA_IRQHandler+0x1ae8>)
 8002fea:	428b      	cmp	r3, r1
 8002fec:	bf0c      	ite	eq
 8002fee:	f44f 2180 	moveq.w	r1, #262144	; 0x40000
 8002ff2:	f04f 7180 	movne.w	r1, #16777216	; 0x1000000
 8002ff6:	4830      	ldr	r0, [pc, #192]	; (80030b8 <HAL_DMA_IRQHandler+0x1ae4>)
 8002ff8:	6ca2      	ldr	r2, [r4, #72]	; 0x48
 8002ffa:	6081      	str	r1, [r0, #8]
 8002ffc:	6ce1      	ldr	r1, [r4, #76]	; 0x4c
 8002ffe:	2004      	movs	r0, #4
 8003000:	4301      	orrs	r1, r0
 8003002:	2500      	movs	r5, #0
 8003004:	64e1      	str	r1, [r4, #76]	; 0x4c
 8003006:	f884 5034 	strb.w	r5, [r4, #52]	; 0x34
 800300a:	f884 0035 	strb.w	r0, [r4, #53]	; 0x35
 800300e:	2a00      	cmp	r2, #0
 8003010:	f47e afc9 	bne.w	8001fa6 <HAL_DMA_IRQHandler+0x9d2>
 8003014:	f7fe bfd6 	b.w	8001fc4 <HAL_DMA_IRQHandler+0x9f0>
 8003018:	6810      	ldr	r0, [r2, #0]
 800301a:	4a29      	ldr	r2, [pc, #164]	; (80030c0 <HAL_DMA_IRQHandler+0x1aec>)
 800301c:	f7fe bcaa 	b.w	8001974 <HAL_DMA_IRQHandler+0x3a0>
 8003020:	6810      	ldr	r0, [r2, #0]
 8003022:	4a27      	ldr	r2, [pc, #156]	; (80030c0 <HAL_DMA_IRQHandler+0x1aec>)
 8003024:	4619      	mov	r1, r3
 8003026:	f7fe bd34 	b.w	8001a92 <HAL_DMA_IRQHandler+0x4be>
 800302a:	4826      	ldr	r0, [pc, #152]	; (80030c4 <HAL_DMA_IRQHandler+0x1af0>)
 800302c:	f7ff baa0 	b.w	8002570 <HAL_DMA_IRQHandler+0xf9c>
 8003030:	4923      	ldr	r1, [pc, #140]	; (80030c0 <HAL_DMA_IRQHandler+0x1aec>)
 8003032:	f7ff b9e4 	b.w	80023fe <HAL_DMA_IRQHandler+0xe2a>
 8003036:	2120      	movs	r1, #32
 8003038:	f7ff b82b 	b.w	8002092 <HAL_DMA_IRQHandler+0xabe>
 800303c:	2220      	movs	r2, #32
 800303e:	f7ff ba44 	b.w	80024ca <HAL_DMA_IRQHandler+0xef6>
 8003042:	2110      	movs	r1, #16
 8003044:	f7ff b92f 	b.w	80022a6 <HAL_DMA_IRQHandler+0xcd2>
 8003048:	2110      	movs	r1, #16
 800304a:	f7ff b87b 	b.w	8002144 <HAL_DMA_IRQHandler+0xb70>
 800304e:	4a18      	ldr	r2, [pc, #96]	; (80030b0 <HAL_DMA_IRQHandler+0x1adc>)
 8003050:	6ca5      	ldr	r5, [r4, #72]	; 0x48
 8003052:	2308      	movs	r3, #8
 8003054:	6093      	str	r3, [r2, #8]
 8003056:	6ce3      	ldr	r3, [r4, #76]	; 0x4c
 8003058:	2004      	movs	r0, #4
 800305a:	f043 0301 	orr.w	r3, r3, #1
 800305e:	2600      	movs	r6, #0
 8003060:	64e3      	str	r3, [r4, #76]	; 0x4c
 8003062:	f884 6034 	strb.w	r6, [r4, #52]	; 0x34
 8003066:	f884 0035 	strb.w	r0, [r4, #53]	; 0x35
 800306a:	2d00      	cmp	r5, #0
 800306c:	f47e aef0 	bne.w	8001e50 <HAL_DMA_IRQHandler+0x87c>
 8003070:	6810      	ldr	r0, [r2, #0]
 8003072:	4b10      	ldr	r3, [pc, #64]	; (80030b4 <HAL_DMA_IRQHandler+0x1ae0>)
 8003074:	4a12      	ldr	r2, [pc, #72]	; (80030c0 <HAL_DMA_IRQHandler+0x1aec>)
 8003076:	f7fe bd0c 	b.w	8001a92 <HAL_DMA_IRQHandler+0x4be>
 800307a:	0728      	lsls	r0, r5, #28
 800307c:	f53f ab3d 	bmi.w	80026fa <HAL_DMA_IRQHandler+0x1126>
 8003080:	6850      	ldr	r0, [r2, #4]
 8003082:	4a0f      	ldr	r2, [pc, #60]	; (80030c0 <HAL_DMA_IRQHandler+0x1aec>)
 8003084:	4619      	mov	r1, r3
 8003086:	f7fe bbd2 	b.w	800182e <HAL_DMA_IRQHandler+0x25a>
 800308a:	f44f 6280 	mov.w	r2, #1024	; 0x400
 800308e:	f7ff b80c 	b.w	80020aa <HAL_DMA_IRQHandler+0xad6>
 8003092:	f44f 7280 	mov.w	r2, #256	; 0x100
 8003096:	f7ff b921 	b.w	80022dc <HAL_DMA_IRQHandler+0xd08>
 800309a:	05a8      	lsls	r0, r5, #22
 800309c:	f53f aa89 	bmi.w	80025b2 <HAL_DMA_IRQHandler+0xfde>
 80030a0:	6810      	ldr	r0, [r2, #0]
 80030a2:	2240      	movs	r2, #64	; 0x40
 80030a4:	f7fe bcf5 	b.w	8001a92 <HAL_DMA_IRQHandler+0x4be>
 80030a8:	f44f 1200 	mov.w	r2, #2097152	; 0x200000
 80030ac:	f7fe bfa2 	b.w	8001ff4 <HAL_DMA_IRQHandler+0xa20>
 80030b0:	40026400 	.word	0x40026400
 80030b4:	40026010 	.word	0x40026010
 80030b8:	40026000 	.word	0x40026000
 80030bc:	400264a0 	.word	0x400264a0
 80030c0:	00800001 	.word	0x00800001
 80030c4:	00800004 	.word	0x00800004
 80030c8:	4adb      	ldr	r2, [pc, #876]	; (8003438 <HAL_DMA_IRQHandler+0x1e64>)
 80030ca:	6ca5      	ldr	r5, [r4, #72]	; 0x48
 80030cc:	2308      	movs	r3, #8
 80030ce:	60d3      	str	r3, [r2, #12]
 80030d0:	6ce3      	ldr	r3, [r4, #76]	; 0x4c
 80030d2:	2004      	movs	r0, #4
 80030d4:	f043 0301 	orr.w	r3, r3, #1
 80030d8:	2600      	movs	r6, #0
 80030da:	64e3      	str	r3, [r4, #76]	; 0x4c
 80030dc:	f884 6034 	strb.w	r6, [r4, #52]	; 0x34
 80030e0:	f884 0035 	strb.w	r0, [r4, #53]	; 0x35
 80030e4:	2d00      	cmp	r5, #0
 80030e6:	f47e aeb3 	bne.w	8001e50 <HAL_DMA_IRQHandler+0x87c>
 80030ea:	6850      	ldr	r0, [r2, #4]
 80030ec:	4bd3      	ldr	r3, [pc, #844]	; (800343c <HAL_DMA_IRQHandler+0x1e68>)
 80030ee:	4ad4      	ldr	r2, [pc, #848]	; (8003440 <HAL_DMA_IRQHandler+0x1e6c>)
 80030f0:	f7fe bb9d 	b.w	800182e <HAL_DMA_IRQHandler+0x25a>
 80030f4:	681b      	ldr	r3, [r3, #0]
 80030f6:	0319      	lsls	r1, r3, #12
 80030f8:	f57e afd5 	bpl.w	80020a6 <HAL_DMA_IRQHandler+0xad2>
 80030fc:	6be3      	ldr	r3, [r4, #60]	; 0x3c
 80030fe:	2b00      	cmp	r3, #0
 8003100:	f47f a9f1 	bne.w	80024e6 <HAL_DMA_IRQHandler+0xf12>
 8003104:	f7fe bfcf 	b.w	80020a6 <HAL_DMA_IRQHandler+0xad2>
 8003108:	0728      	lsls	r0, r5, #28
 800310a:	f53e ae01 	bmi.w	8001d10 <HAL_DMA_IRQHandler+0x73c>
 800310e:	6810      	ldr	r0, [r2, #0]
 8003110:	4acb      	ldr	r2, [pc, #812]	; (8003440 <HAL_DMA_IRQHandler+0x1e6c>)
 8003112:	4619      	mov	r1, r3
 8003114:	f7fe bc2e 	b.w	8001974 <HAL_DMA_IRQHandler+0x3a0>
 8003118:	05a8      	lsls	r0, r5, #22
 800311a:	f53f aa4a 	bmi.w	80025b2 <HAL_DMA_IRQHandler+0xfde>
 800311e:	6810      	ldr	r0, [r2, #0]
 8003120:	4619      	mov	r1, r3
 8003122:	2240      	movs	r2, #64	; 0x40
 8003124:	f7fe bcb5 	b.w	8001a92 <HAL_DMA_IRQHandler+0x4be>
 8003128:	2208      	movs	r2, #8
 800312a:	f7ff ba87 	b.w	800263c <HAL_DMA_IRQHandler+0x1068>
 800312e:	6849      	ldr	r1, [r1, #4]
 8003130:	f7fe bb8f 	b.w	8001852 <HAL_DMA_IRQHandler+0x27e>
 8003134:	49c3      	ldr	r1, [pc, #780]	; (8003444 <HAL_DMA_IRQHandler+0x1e70>)
 8003136:	e75e      	b.n	8002ff6 <HAL_DMA_IRQHandler+0x1a22>
 8003138:	2320      	movs	r3, #32
 800313a:	e647      	b.n	8002dcc <HAL_DMA_IRQHandler+0x17f8>
 800313c:	4ac0      	ldr	r2, [pc, #768]	; (8003440 <HAL_DMA_IRQHandler+0x1e6c>)
 800313e:	f7ff bb8e 	b.w	800285e <HAL_DMA_IRQHandler+0x128a>
 8003142:	49c0      	ldr	r1, [pc, #768]	; (8003444 <HAL_DMA_IRQHandler+0x1e70>)
 8003144:	f7ff bbde 	b.w	8002904 <HAL_DMA_IRQHandler+0x1330>
 8003148:	2210      	movs	r2, #16
 800314a:	e5fd      	b.n	8002d48 <HAL_DMA_IRQHandler+0x1774>
 800314c:	2210      	movs	r2, #16
 800314e:	e6cf      	b.n	8002ef0 <HAL_DMA_IRQHandler+0x191c>
 8003150:	2220      	movs	r2, #32
 8003152:	e70f      	b.n	8002f74 <HAL_DMA_IRQHandler+0x19a0>
 8003154:	4aba      	ldr	r2, [pc, #744]	; (8003440 <HAL_DMA_IRQHandler+0x1e6c>)
 8003156:	e67b      	b.n	8002e50 <HAL_DMA_IRQHandler+0x187c>
 8003158:	f44f 6280 	mov.w	r2, #1024	; 0x400
 800315c:	f7fe bd91 	b.w	8001c82 <HAL_DMA_IRQHandler+0x6ae>
 8003160:	2140      	movs	r1, #64	; 0x40
 8003162:	f7fe bcdc 	b.w	8001b1e <HAL_DMA_IRQHandler+0x54a>
 8003166:	f44f 7080 	mov.w	r0, #256	; 0x100
 800316a:	f7fe bf0d 	b.w	8001f88 <HAL_DMA_IRQHandler+0x9b4>
 800316e:	f44f 7280 	mov.w	r2, #256	; 0x100
 8003172:	f7fe bd30 	b.w	8001bd6 <HAL_DMA_IRQHandler+0x602>
 8003176:	f44f 7280 	mov.w	r2, #256	; 0x100
 800317a:	f7ff ba72 	b.w	8002662 <HAL_DMA_IRQHandler+0x108e>
 800317e:	f44f 6280 	mov.w	r2, #1024	; 0x400
 8003182:	f7fe bf2e 	b.w	8001fe2 <HAL_DMA_IRQHandler+0xa0e>
 8003186:	f44f 7200 	mov.w	r2, #512	; 0x200
 800318a:	f7fe be51 	b.w	8001e30 <HAL_DMA_IRQHandler+0x85c>
 800318e:	0306      	lsls	r6, r0, #12
 8003190:	f53e ac39 	bmi.w	8001a06 <HAL_DMA_IRQHandler+0x432>
 8003194:	49ac      	ldr	r1, [pc, #688]	; (8003448 <HAL_DMA_IRQHandler+0x1e74>)
 8003196:	f44f 3280 	mov.w	r2, #65536	; 0x10000
 800319a:	6849      	ldr	r1, [r1, #4]
 800319c:	f7fe ba69 	b.w	8001672 <HAL_DMA_IRQHandler+0x9e>
 80031a0:	f44f 1280 	mov.w	r2, #1048576	; 0x100000
 80031a4:	f7ff b81b 	b.w	80021de <HAL_DMA_IRQHandler+0xc0a>
 80031a8:	f44f 2280 	mov.w	r2, #262144	; 0x40000
 80031ac:	f7fe bed1 	b.w	8001f52 <HAL_DMA_IRQHandler+0x97e>
 80031b0:	05a8      	lsls	r0, r5, #22
 80031b2:	f53f aaa2 	bmi.w	80026fa <HAL_DMA_IRQHandler+0x1126>
 80031b6:	6850      	ldr	r0, [r2, #4]
 80031b8:	2240      	movs	r2, #64	; 0x40
 80031ba:	f7fe bb38 	b.w	800182e <HAL_DMA_IRQHandler+0x25a>
 80031be:	05a8      	lsls	r0, r5, #22
 80031c0:	f53e ada6 	bmi.w	8001d10 <HAL_DMA_IRQHandler+0x73c>
 80031c4:	6810      	ldr	r0, [r2, #0]
 80031c6:	4619      	mov	r1, r3
 80031c8:	2240      	movs	r2, #64	; 0x40
 80031ca:	f7fe bbd3 	b.w	8001974 <HAL_DMA_IRQHandler+0x3a0>
 80031ce:	4a9b      	ldr	r2, [pc, #620]	; (800343c <HAL_DMA_IRQHandler+0x1e68>)
 80031d0:	4293      	cmp	r3, r2
 80031d2:	f000 8126 	beq.w	8003422 <HAL_DMA_IRQHandler+0x1e4e>
 80031d6:	f502 6280 	add.w	r2, r2, #1024	; 0x400
 80031da:	4293      	cmp	r3, r2
 80031dc:	f000 8121 	beq.w	8003422 <HAL_DMA_IRQHandler+0x1e4e>
 80031e0:	f5a2 7268 	sub.w	r2, r2, #928	; 0x3a0
 80031e4:	4293      	cmp	r3, r2
 80031e6:	f000 811c 	beq.w	8003422 <HAL_DMA_IRQHandler+0x1e4e>
 80031ea:	f502 6280 	add.w	r2, r2, #1024	; 0x400
 80031ee:	4293      	cmp	r3, r2
 80031f0:	f000 8117 	beq.w	8003422 <HAL_DMA_IRQHandler+0x1e4e>
 80031f4:	f5a2 6289 	sub.w	r2, r2, #1096	; 0x448
 80031f8:	4293      	cmp	r3, r2
 80031fa:	f000 81f0 	beq.w	80035de <HAL_DMA_IRQHandler+0x200a>
 80031fe:	f502 6280 	add.w	r2, r2, #1024	; 0x400
 8003202:	4293      	cmp	r3, r2
 8003204:	f000 81eb 	beq.w	80035de <HAL_DMA_IRQHandler+0x200a>
 8003208:	f5a2 7268 	sub.w	r2, r2, #928	; 0x3a0
 800320c:	4293      	cmp	r3, r2
 800320e:	f000 81e6 	beq.w	80035de <HAL_DMA_IRQHandler+0x200a>
 8003212:	f502 6280 	add.w	r2, r2, #1024	; 0x400
 8003216:	4293      	cmp	r3, r2
 8003218:	f000 81e1 	beq.w	80035de <HAL_DMA_IRQHandler+0x200a>
 800321c:	f5a2 6289 	sub.w	r2, r2, #1096	; 0x448
 8003220:	4293      	cmp	r3, r2
 8003222:	f000 8246 	beq.w	80036b2 <HAL_DMA_IRQHandler+0x20de>
 8003226:	f502 6280 	add.w	r2, r2, #1024	; 0x400
 800322a:	4293      	cmp	r3, r2
 800322c:	f000 8241 	beq.w	80036b2 <HAL_DMA_IRQHandler+0x20de>
 8003230:	f5a2 7268 	sub.w	r2, r2, #928	; 0x3a0
 8003234:	4293      	cmp	r3, r2
 8003236:	f000 823c 	beq.w	80036b2 <HAL_DMA_IRQHandler+0x20de>
 800323a:	f502 6280 	add.w	r2, r2, #1024	; 0x400
 800323e:	4293      	cmp	r3, r2
 8003240:	bf0c      	ite	eq
 8003242:	f44f 1200 	moveq.w	r2, #2097152	; 0x200000
 8003246:	f04f 6200 	movne.w	r2, #134217728	; 0x8000000
 800324a:	497b      	ldr	r1, [pc, #492]	; (8003438 <HAL_DMA_IRQHandler+0x1e64>)
 800324c:	608a      	str	r2, [r1, #8]
 800324e:	f7fe bf22 	b.w	8002096 <HAL_DMA_IRQHandler+0xac2>
 8003252:	4a7a      	ldr	r2, [pc, #488]	; (800343c <HAL_DMA_IRQHandler+0x1e68>)
 8003254:	4293      	cmp	r3, r2
 8003256:	f000 80f9 	beq.w	800344c <HAL_DMA_IRQHandler+0x1e78>
 800325a:	f502 6280 	add.w	r2, r2, #1024	; 0x400
 800325e:	4293      	cmp	r3, r2
 8003260:	f000 80f4 	beq.w	800344c <HAL_DMA_IRQHandler+0x1e78>
 8003264:	f5a2 7268 	sub.w	r2, r2, #928	; 0x3a0
 8003268:	4293      	cmp	r3, r2
 800326a:	f000 80ef 	beq.w	800344c <HAL_DMA_IRQHandler+0x1e78>
 800326e:	f502 6280 	add.w	r2, r2, #1024	; 0x400
 8003272:	4293      	cmp	r3, r2
 8003274:	f000 80ea 	beq.w	800344c <HAL_DMA_IRQHandler+0x1e78>
 8003278:	f5a2 6289 	sub.w	r2, r2, #1096	; 0x448
 800327c:	4293      	cmp	r3, r2
 800327e:	f000 819c 	beq.w	80035ba <HAL_DMA_IRQHandler+0x1fe6>
 8003282:	f502 6280 	add.w	r2, r2, #1024	; 0x400
 8003286:	4293      	cmp	r3, r2
 8003288:	f000 8197 	beq.w	80035ba <HAL_DMA_IRQHandler+0x1fe6>
 800328c:	f5a2 7268 	sub.w	r2, r2, #928	; 0x3a0
 8003290:	4293      	cmp	r3, r2
 8003292:	f000 8192 	beq.w	80035ba <HAL_DMA_IRQHandler+0x1fe6>
 8003296:	f502 6280 	add.w	r2, r2, #1024	; 0x400
 800329a:	4293      	cmp	r3, r2
 800329c:	f000 818d 	beq.w	80035ba <HAL_DMA_IRQHandler+0x1fe6>
 80032a0:	f5a2 6289 	sub.w	r2, r2, #1096	; 0x448
 80032a4:	4293      	cmp	r3, r2
 80032a6:	f000 81fe 	beq.w	80036a6 <HAL_DMA_IRQHandler+0x20d2>
 80032aa:	f502 6280 	add.w	r2, r2, #1024	; 0x400
 80032ae:	4293      	cmp	r3, r2
 80032b0:	f000 81f9 	beq.w	80036a6 <HAL_DMA_IRQHandler+0x20d2>
 80032b4:	f5a2 7268 	sub.w	r2, r2, #928	; 0x3a0
 80032b8:	4293      	cmp	r3, r2
 80032ba:	f000 81f4 	beq.w	80036a6 <HAL_DMA_IRQHandler+0x20d2>
 80032be:	f502 6280 	add.w	r2, r2, #1024	; 0x400
 80032c2:	4293      	cmp	r3, r2
 80032c4:	bf0c      	ite	eq
 80032c6:	f44f 1280 	moveq.w	r2, #1048576	; 0x100000
 80032ca:	f04f 6280 	movne.w	r2, #67108864	; 0x4000000
 80032ce:	495a      	ldr	r1, [pc, #360]	; (8003438 <HAL_DMA_IRQHandler+0x1e64>)
 80032d0:	608a      	str	r2, [r1, #8]
 80032d2:	f7fe bfea 	b.w	80022aa <HAL_DMA_IRQHandler+0xcd6>
 80032d6:	4a59      	ldr	r2, [pc, #356]	; (800343c <HAL_DMA_IRQHandler+0x1e68>)
 80032d8:	4293      	cmp	r3, r2
 80032da:	f000 80a7 	beq.w	800342c <HAL_DMA_IRQHandler+0x1e58>
 80032de:	f502 6280 	add.w	r2, r2, #1024	; 0x400
 80032e2:	4293      	cmp	r3, r2
 80032e4:	f000 80a2 	beq.w	800342c <HAL_DMA_IRQHandler+0x1e58>
 80032e8:	f5a2 7268 	sub.w	r2, r2, #928	; 0x3a0
 80032ec:	4293      	cmp	r3, r2
 80032ee:	f000 809d 	beq.w	800342c <HAL_DMA_IRQHandler+0x1e58>
 80032f2:	f502 6280 	add.w	r2, r2, #1024	; 0x400
 80032f6:	4293      	cmp	r3, r2
 80032f8:	f000 8098 	beq.w	800342c <HAL_DMA_IRQHandler+0x1e58>
 80032fc:	f5a2 6289 	sub.w	r2, r2, #1096	; 0x448
 8003300:	4293      	cmp	r3, r2
 8003302:	f000 8157 	beq.w	80035b4 <HAL_DMA_IRQHandler+0x1fe0>
 8003306:	f502 6280 	add.w	r2, r2, #1024	; 0x400
 800330a:	4293      	cmp	r3, r2
 800330c:	f000 8152 	beq.w	80035b4 <HAL_DMA_IRQHandler+0x1fe0>
 8003310:	f5a2 7268 	sub.w	r2, r2, #928	; 0x3a0
 8003314:	4293      	cmp	r3, r2
 8003316:	f000 814d 	beq.w	80035b4 <HAL_DMA_IRQHandler+0x1fe0>
 800331a:	f502 6280 	add.w	r2, r2, #1024	; 0x400
 800331e:	4293      	cmp	r3, r2
 8003320:	f000 8148 	beq.w	80035b4 <HAL_DMA_IRQHandler+0x1fe0>
 8003324:	f5a2 6289 	sub.w	r2, r2, #1096	; 0x448
 8003328:	4293      	cmp	r3, r2
 800332a:	f000 81c5 	beq.w	80036b8 <HAL_DMA_IRQHandler+0x20e4>
 800332e:	f502 6280 	add.w	r2, r2, #1024	; 0x400
 8003332:	4293      	cmp	r3, r2
 8003334:	f000 81c0 	beq.w	80036b8 <HAL_DMA_IRQHandler+0x20e4>
 8003338:	f5a2 7268 	sub.w	r2, r2, #928	; 0x3a0
 800333c:	4293      	cmp	r3, r2
 800333e:	f000 81bb 	beq.w	80036b8 <HAL_DMA_IRQHandler+0x20e4>
 8003342:	f502 6280 	add.w	r2, r2, #1024	; 0x400
 8003346:	4293      	cmp	r3, r2
 8003348:	bf0c      	ite	eq
 800334a:	f44f 1300 	moveq.w	r3, #2097152	; 0x200000
 800334e:	f04f 6300 	movne.w	r3, #134217728	; 0x8000000
 8003352:	4a39      	ldr	r2, [pc, #228]	; (8003438 <HAL_DMA_IRQHandler+0x1e64>)
 8003354:	6093      	str	r3, [r2, #8]
 8003356:	f7ff b8ba 	b.w	80024ce <HAL_DMA_IRQHandler+0xefa>
 800335a:	4a38      	ldr	r2, [pc, #224]	; (800343c <HAL_DMA_IRQHandler+0x1e68>)
 800335c:	4293      	cmp	r3, r2
 800335e:	d058      	beq.n	8003412 <HAL_DMA_IRQHandler+0x1e3e>
 8003360:	f502 6280 	add.w	r2, r2, #1024	; 0x400
 8003364:	4293      	cmp	r3, r2
 8003366:	d054      	beq.n	8003412 <HAL_DMA_IRQHandler+0x1e3e>
 8003368:	f5a2 7268 	sub.w	r2, r2, #928	; 0x3a0
 800336c:	4293      	cmp	r3, r2
 800336e:	d050      	beq.n	8003412 <HAL_DMA_IRQHandler+0x1e3e>
 8003370:	f502 6280 	add.w	r2, r2, #1024	; 0x400
 8003374:	4293      	cmp	r3, r2
 8003376:	d04c      	beq.n	8003412 <HAL_DMA_IRQHandler+0x1e3e>
 8003378:	f5a2 6289 	sub.w	r2, r2, #1096	; 0x448
 800337c:	4293      	cmp	r3, r2
 800337e:	f000 8127 	beq.w	80035d0 <HAL_DMA_IRQHandler+0x1ffc>
 8003382:	f502 6280 	add.w	r2, r2, #1024	; 0x400
 8003386:	4293      	cmp	r3, r2
 8003388:	f000 8122 	beq.w	80035d0 <HAL_DMA_IRQHandler+0x1ffc>
 800338c:	f5a2 7268 	sub.w	r2, r2, #928	; 0x3a0
 8003390:	4293      	cmp	r3, r2
 8003392:	f000 811d 	beq.w	80035d0 <HAL_DMA_IRQHandler+0x1ffc>
 8003396:	f502 6280 	add.w	r2, r2, #1024	; 0x400
 800339a:	4293      	cmp	r3, r2
 800339c:	f000 8118 	beq.w	80035d0 <HAL_DMA_IRQHandler+0x1ffc>
 80033a0:	f5a2 6289 	sub.w	r2, r2, #1096	; 0x448
 80033a4:	4293      	cmp	r3, r2
 80033a6:	f000 8181 	beq.w	80036ac <HAL_DMA_IRQHandler+0x20d8>
 80033aa:	f502 6280 	add.w	r2, r2, #1024	; 0x400
 80033ae:	4293      	cmp	r3, r2
 80033b0:	f000 817c 	beq.w	80036ac <HAL_DMA_IRQHandler+0x20d8>
 80033b4:	f5a2 7268 	sub.w	r2, r2, #928	; 0x3a0
 80033b8:	4293      	cmp	r3, r2
 80033ba:	f000 8177 	beq.w	80036ac <HAL_DMA_IRQHandler+0x20d8>
 80033be:	f502 6280 	add.w	r2, r2, #1024	; 0x400
 80033c2:	4293      	cmp	r3, r2
 80033c4:	bf0c      	ite	eq
 80033c6:	f44f 1280 	moveq.w	r2, #1048576	; 0x100000
 80033ca:	f04f 6280 	movne.w	r2, #67108864	; 0x4000000
 80033ce:	491a      	ldr	r1, [pc, #104]	; (8003438 <HAL_DMA_IRQHandler+0x1e64>)
 80033d0:	608a      	str	r2, [r1, #8]
 80033d2:	f7fe beb9 	b.w	8002148 <HAL_DMA_IRQHandler+0xb74>
 80033d6:	05aa      	lsls	r2, r5, #22
 80033d8:	f53f a8eb 	bmi.w	80025b2 <HAL_DMA_IRQHandler+0xfde>
 80033dc:	481a      	ldr	r0, [pc, #104]	; (8003448 <HAL_DMA_IRQHandler+0x1e74>)
 80033de:	2240      	movs	r2, #64	; 0x40
 80033e0:	6800      	ldr	r0, [r0, #0]
 80033e2:	f7fe bb56 	b.w	8001a92 <HAL_DMA_IRQHandler+0x4be>
 80033e6:	2208      	movs	r2, #8
 80033e8:	f7fe bcd7 	b.w	8001d9a <HAL_DMA_IRQHandler+0x7c6>
 80033ec:	2208      	movs	r2, #8
 80033ee:	f7ff b9c9 	b.w	8002784 <HAL_DMA_IRQHandler+0x11b0>
 80033f2:	05ae      	lsls	r6, r5, #22
 80033f4:	f53e ac8c 	bmi.w	8001d10 <HAL_DMA_IRQHandler+0x73c>
 80033f8:	480f      	ldr	r0, [pc, #60]	; (8003438 <HAL_DMA_IRQHandler+0x1e64>)
 80033fa:	2240      	movs	r2, #64	; 0x40
 80033fc:	6800      	ldr	r0, [r0, #0]
 80033fe:	f7fe bab9 	b.w	8001974 <HAL_DMA_IRQHandler+0x3a0>
 8003402:	0582      	lsls	r2, r0, #22
 8003404:	f53e aaff 	bmi.w	8001a06 <HAL_DMA_IRQHandler+0x432>
 8003408:	490f      	ldr	r1, [pc, #60]	; (8003448 <HAL_DMA_IRQHandler+0x1e74>)
 800340a:	2240      	movs	r2, #64	; 0x40
 800340c:	6849      	ldr	r1, [r1, #4]
 800340e:	f7fe b930 	b.w	8001672 <HAL_DMA_IRQHandler+0x9e>
 8003412:	2210      	movs	r2, #16
 8003414:	e7db      	b.n	80033ce <HAL_DMA_IRQHandler+0x1dfa>
 8003416:	2220      	movs	r2, #32
 8003418:	f7ff badc 	b.w	80029d4 <HAL_DMA_IRQHandler+0x1400>
 800341c:	2210      	movs	r2, #16
 800341e:	f7ff bbb6 	b.w	8002b8e <HAL_DMA_IRQHandler+0x15ba>
 8003422:	2220      	movs	r2, #32
 8003424:	e711      	b.n	800324a <HAL_DMA_IRQHandler+0x1c76>
 8003426:	2210      	movs	r2, #16
 8003428:	f7ff bb1e 	b.w	8002a68 <HAL_DMA_IRQHandler+0x1494>
 800342c:	2320      	movs	r3, #32
 800342e:	e790      	b.n	8003352 <HAL_DMA_IRQHandler+0x1d7e>
 8003430:	2320      	movs	r3, #32
 8003432:	f7ff bb63 	b.w	8002afc <HAL_DMA_IRQHandler+0x1528>
 8003436:	bf00      	nop
 8003438:	40026000 	.word	0x40026000
 800343c:	40026010 	.word	0x40026010
 8003440:	00800001 	.word	0x00800001
 8003444:	00800004 	.word	0x00800004
 8003448:	40026400 	.word	0x40026400
 800344c:	2210      	movs	r2, #16
 800344e:	e73e      	b.n	80032ce <HAL_DMA_IRQHandler+0x1cfa>
 8003450:	f44f 6180 	mov.w	r1, #1024	; 0x400
 8003454:	f7fe bf27 	b.w	80022a6 <HAL_DMA_IRQHandler+0xcd2>
 8003458:	f44f 6100 	mov.w	r1, #2048	; 0x800
 800345c:	f7fe be19 	b.w	8002092 <HAL_DMA_IRQHandler+0xabe>
 8003460:	f44f 7200 	mov.w	r2, #512	; 0x200
 8003464:	f7ff b8ea 	b.w	800263c <HAL_DMA_IRQHandler+0x1068>
 8003468:	f44f 6200 	mov.w	r2, #2048	; 0x800
 800346c:	f7ff b82d 	b.w	80024ca <HAL_DMA_IRQHandler+0xef6>
 8003470:	f44f 7080 	mov.w	r0, #256	; 0x100
 8003474:	f7ff b87c 	b.w	8002570 <HAL_DMA_IRQHandler+0xf9c>
 8003478:	f44f 6180 	mov.w	r1, #1024	; 0x400
 800347c:	f7fe be62 	b.w	8002144 <HAL_DMA_IRQHandler+0xb70>
 8003480:	2140      	movs	r1, #64	; 0x40
 8003482:	f7fe bfbc 	b.w	80023fe <HAL_DMA_IRQHandler+0xe2a>
 8003486:	f44f 2280 	mov.w	r2, #262144	; 0x40000
 800348a:	f7fe bf27 	b.w	80022dc <HAL_DMA_IRQHandler+0xd08>
 800348e:	f44f 1280 	mov.w	r2, #1048576	; 0x100000
 8003492:	f7fe be0a 	b.w	80020aa <HAL_DMA_IRQHandler+0xad6>
 8003496:	f44f 3280 	mov.w	r2, #65536	; 0x10000
 800349a:	f7fe b8ea 	b.w	8001672 <HAL_DMA_IRQHandler+0x9e>
 800349e:	4a8e      	ldr	r2, [pc, #568]	; (80036d8 <HAL_DMA_IRQHandler+0x2104>)
 80034a0:	6ca5      	ldr	r5, [r4, #72]	; 0x48
 80034a2:	2308      	movs	r3, #8
 80034a4:	6093      	str	r3, [r2, #8]
 80034a6:	6ce3      	ldr	r3, [r4, #76]	; 0x4c
 80034a8:	2004      	movs	r0, #4
 80034aa:	f043 0301 	orr.w	r3, r3, #1
 80034ae:	2600      	movs	r6, #0
 80034b0:	64e3      	str	r3, [r4, #76]	; 0x4c
 80034b2:	f884 6034 	strb.w	r6, [r4, #52]	; 0x34
 80034b6:	f884 0035 	strb.w	r0, [r4, #53]	; 0x35
 80034ba:	2d00      	cmp	r5, #0
 80034bc:	f47e acc8 	bne.w	8001e50 <HAL_DMA_IRQHandler+0x87c>
 80034c0:	6810      	ldr	r0, [r2, #0]
 80034c2:	f7ff bb6d 	b.w	8002ba0 <HAL_DMA_IRQHandler+0x15cc>
 80034c6:	05ad      	lsls	r5, r5, #22
 80034c8:	f53f a917 	bmi.w	80026fa <HAL_DMA_IRQHandler+0x1126>
 80034cc:	4882      	ldr	r0, [pc, #520]	; (80036d8 <HAL_DMA_IRQHandler+0x2104>)
 80034ce:	2240      	movs	r2, #64	; 0x40
 80034d0:	6840      	ldr	r0, [r0, #4]
 80034d2:	f7fe b9ac 	b.w	800182e <HAL_DMA_IRQHandler+0x25a>
 80034d6:	032d      	lsls	r5, r5, #12
 80034d8:	f53f a86b 	bmi.w	80025b2 <HAL_DMA_IRQHandler+0xfde>
 80034dc:	487f      	ldr	r0, [pc, #508]	; (80036dc <HAL_DMA_IRQHandler+0x2108>)
 80034de:	f44f 3280 	mov.w	r2, #65536	; 0x10000
 80034e2:	6800      	ldr	r0, [r0, #0]
 80034e4:	f7fe bad5 	b.w	8001a92 <HAL_DMA_IRQHandler+0x4be>
 80034e8:	f44f 7180 	mov.w	r1, #256	; 0x100
 80034ec:	f7ff ba0a 	b.w	8002904 <HAL_DMA_IRQHandler+0x1330>
 80034f0:	f44f 6280 	mov.w	r2, #1024	; 0x400
 80034f4:	e428      	b.n	8002d48 <HAL_DMA_IRQHandler+0x1774>
 80034f6:	f44f 7200 	mov.w	r2, #512	; 0x200
 80034fa:	f7ff b943 	b.w	8002784 <HAL_DMA_IRQHandler+0x11b0>
 80034fe:	f44f 6300 	mov.w	r3, #2048	; 0x800
 8003502:	e463      	b.n	8002dcc <HAL_DMA_IRQHandler+0x17f8>
 8003504:	2240      	movs	r2, #64	; 0x40
 8003506:	f7ff b9aa 	b.w	800285e <HAL_DMA_IRQHandler+0x128a>
 800350a:	f44f 7180 	mov.w	r1, #256	; 0x100
 800350e:	e572      	b.n	8002ff6 <HAL_DMA_IRQHandler+0x1a22>
 8003510:	f44f 7200 	mov.w	r2, #512	; 0x200
 8003514:	f7fe bc41 	b.w	8001d9a <HAL_DMA_IRQHandler+0x7c6>
 8003518:	f44f 6280 	mov.w	r2, #1024	; 0x400
 800351c:	e4e8      	b.n	8002ef0 <HAL_DMA_IRQHandler+0x191c>
 800351e:	f44f 6200 	mov.w	r2, #2048	; 0x800
 8003522:	e527      	b.n	8002f74 <HAL_DMA_IRQHandler+0x19a0>
 8003524:	2240      	movs	r2, #64	; 0x40
 8003526:	e493      	b.n	8002e50 <HAL_DMA_IRQHandler+0x187c>
 8003528:	f44f 1280 	mov.w	r2, #1048576	; 0x100000
 800352c:	f7fe bba9 	b.w	8001c82 <HAL_DMA_IRQHandler+0x6ae>
 8003530:	f44f 1280 	mov.w	r2, #1048576	; 0x100000
 8003534:	f7fe bd55 	b.w	8001fe2 <HAL_DMA_IRQHandler+0xa0e>
 8003538:	f44f 2200 	mov.w	r2, #524288	; 0x80000
 800353c:	f7fe bc78 	b.w	8001e30 <HAL_DMA_IRQHandler+0x85c>
 8003540:	f44f 2280 	mov.w	r2, #262144	; 0x40000
 8003544:	f7fe bb47 	b.w	8001bd6 <HAL_DMA_IRQHandler+0x602>
 8003548:	f44f 2280 	mov.w	r2, #262144	; 0x40000
 800354c:	f7ff b889 	b.w	8002662 <HAL_DMA_IRQHandler+0x108e>
 8003550:	f44f 3180 	mov.w	r1, #65536	; 0x10000
 8003554:	f7fe bae3 	b.w	8001b1e <HAL_DMA_IRQHandler+0x54a>
 8003558:	f44f 2080 	mov.w	r0, #262144	; 0x40000
 800355c:	f7fe bd14 	b.w	8001f88 <HAL_DMA_IRQHandler+0x9b4>
 8003560:	f44f 3280 	mov.w	r2, #65536	; 0x10000
 8003564:	f7fe ba95 	b.w	8001a92 <HAL_DMA_IRQHandler+0x4be>
 8003568:	032e      	lsls	r6, r5, #12
 800356a:	f53f a8c6 	bmi.w	80026fa <HAL_DMA_IRQHandler+0x1126>
 800356e:	485a      	ldr	r0, [pc, #360]	; (80036d8 <HAL_DMA_IRQHandler+0x2104>)
 8003570:	f44f 3280 	mov.w	r2, #65536	; 0x10000
 8003574:	6840      	ldr	r0, [r0, #4]
 8003576:	f7fe b95a 	b.w	800182e <HAL_DMA_IRQHandler+0x25a>
 800357a:	05aa      	lsls	r2, r5, #22
 800357c:	f53f a8bd 	bmi.w	80026fa <HAL_DMA_IRQHandler+0x1126>
 8003580:	4a55      	ldr	r2, [pc, #340]	; (80036d8 <HAL_DMA_IRQHandler+0x2104>)
 8003582:	4957      	ldr	r1, [pc, #348]	; (80036e0 <HAL_DMA_IRQHandler+0x210c>)
 8003584:	e617      	b.n	80031b6 <HAL_DMA_IRQHandler+0x1be2>
 8003586:	032d      	lsls	r5, r5, #12
 8003588:	f53e abc2 	bmi.w	8001d10 <HAL_DMA_IRQHandler+0x73c>
 800358c:	4852      	ldr	r0, [pc, #328]	; (80036d8 <HAL_DMA_IRQHandler+0x2104>)
 800358e:	f44f 3280 	mov.w	r2, #65536	; 0x10000
 8003592:	6800      	ldr	r0, [r0, #0]
 8003594:	f7fe b9ee 	b.w	8001974 <HAL_DMA_IRQHandler+0x3a0>
 8003598:	032e      	lsls	r6, r5, #12
 800359a:	f53f a80a 	bmi.w	80025b2 <HAL_DMA_IRQHandler+0xfde>
 800359e:	4a4f      	ldr	r2, [pc, #316]	; (80036dc <HAL_DMA_IRQHandler+0x2108>)
 80035a0:	4619      	mov	r1, r3
 80035a2:	6810      	ldr	r0, [r2, #0]
 80035a4:	f44f 3280 	mov.w	r2, #65536	; 0x10000
 80035a8:	f7fe ba73 	b.w	8001a92 <HAL_DMA_IRQHandler+0x4be>
 80035ac:	f44f 6280 	mov.w	r2, #1024	; 0x400
 80035b0:	f7ff ba5a 	b.w	8002a68 <HAL_DMA_IRQHandler+0x1494>
 80035b4:	f44f 6300 	mov.w	r3, #2048	; 0x800
 80035b8:	e6cb      	b.n	8003352 <HAL_DMA_IRQHandler+0x1d7e>
 80035ba:	f44f 6280 	mov.w	r2, #1024	; 0x400
 80035be:	e686      	b.n	80032ce <HAL_DMA_IRQHandler+0x1cfa>
 80035c0:	f44f 6280 	mov.w	r2, #1024	; 0x400
 80035c4:	f7ff bae3 	b.w	8002b8e <HAL_DMA_IRQHandler+0x15ba>
 80035c8:	f44f 6300 	mov.w	r3, #2048	; 0x800
 80035cc:	f7ff ba96 	b.w	8002afc <HAL_DMA_IRQHandler+0x1528>
 80035d0:	f44f 6280 	mov.w	r2, #1024	; 0x400
 80035d4:	e6fb      	b.n	80033ce <HAL_DMA_IRQHandler+0x1dfa>
 80035d6:	f44f 6200 	mov.w	r2, #2048	; 0x800
 80035da:	f7ff b9fb 	b.w	80029d4 <HAL_DMA_IRQHandler+0x1400>
 80035de:	f44f 6200 	mov.w	r2, #2048	; 0x800
 80035e2:	e632      	b.n	800324a <HAL_DMA_IRQHandler+0x1c76>
 80035e4:	f44f 3280 	mov.w	r2, #65536	; 0x10000
 80035e8:	f7fe b921 	b.w	800182e <HAL_DMA_IRQHandler+0x25a>
 80035ec:	f44f 1200 	mov.w	r2, #2097152	; 0x200000
 80035f0:	f7fe bf6b 	b.w	80024ca <HAL_DMA_IRQHandler+0xef6>
 80035f4:	f44f 2080 	mov.w	r0, #262144	; 0x40000
 80035f8:	f7fe bfba 	b.w	8002570 <HAL_DMA_IRQHandler+0xf9c>
 80035fc:	f44f 1180 	mov.w	r1, #1048576	; 0x100000
 8003600:	f7fe bda0 	b.w	8002144 <HAL_DMA_IRQHandler+0xb70>
 8003604:	f44f 3180 	mov.w	r1, #65536	; 0x10000
 8003608:	f7fe bef9 	b.w	80023fe <HAL_DMA_IRQHandler+0xe2a>
 800360c:	f44f 2200 	mov.w	r2, #524288	; 0x80000
 8003610:	f7ff b814 	b.w	800263c <HAL_DMA_IRQHandler+0x1068>
 8003614:	f44f 3280 	mov.w	r2, #65536	; 0x10000
 8003618:	f7fe b9ac 	b.w	8001974 <HAL_DMA_IRQHandler+0x3a0>
 800361c:	f44f 1180 	mov.w	r1, #1048576	; 0x100000
 8003620:	f7fe be41 	b.w	80022a6 <HAL_DMA_IRQHandler+0xcd2>
 8003624:	f44f 1100 	mov.w	r1, #2097152	; 0x200000
 8003628:	f7fe bd33 	b.w	8002092 <HAL_DMA_IRQHandler+0xabe>
 800362c:	032a      	lsls	r2, r5, #12
 800362e:	f53e ab6f 	bmi.w	8001d10 <HAL_DMA_IRQHandler+0x73c>
 8003632:	4a29      	ldr	r2, [pc, #164]	; (80036d8 <HAL_DMA_IRQHandler+0x2104>)
 8003634:	4619      	mov	r1, r3
 8003636:	6810      	ldr	r0, [r2, #0]
 8003638:	f44f 3280 	mov.w	r2, #65536	; 0x10000
 800363c:	f7fe b99a 	b.w	8001974 <HAL_DMA_IRQHandler+0x3a0>
 8003640:	f44f 2200 	mov.w	r2, #524288	; 0x80000
 8003644:	f7fe bba9 	b.w	8001d9a <HAL_DMA_IRQHandler+0x7c6>
 8003648:	f44f 2180 	mov.w	r1, #262144	; 0x40000
 800364c:	e4d3      	b.n	8002ff6 <HAL_DMA_IRQHandler+0x1a22>
 800364e:	f44f 1200 	mov.w	r2, #2097152	; 0x200000
 8003652:	e48f      	b.n	8002f74 <HAL_DMA_IRQHandler+0x19a0>
 8003654:	f44f 2200 	mov.w	r2, #524288	; 0x80000
 8003658:	f7ff b894 	b.w	8002784 <HAL_DMA_IRQHandler+0x11b0>
 800365c:	f44f 1280 	mov.w	r2, #1048576	; 0x100000
 8003660:	f7ff bb72 	b.w	8002d48 <HAL_DMA_IRQHandler+0x1774>
 8003664:	f44f 1300 	mov.w	r3, #2097152	; 0x200000
 8003668:	f7ff bbb0 	b.w	8002dcc <HAL_DMA_IRQHandler+0x17f8>
 800366c:	f44f 2180 	mov.w	r1, #262144	; 0x40000
 8003670:	f7ff b948 	b.w	8002904 <HAL_DMA_IRQHandler+0x1330>
 8003674:	f44f 1280 	mov.w	r2, #1048576	; 0x100000
 8003678:	e43a      	b.n	8002ef0 <HAL_DMA_IRQHandler+0x191c>
 800367a:	f44f 3280 	mov.w	r2, #65536	; 0x10000
 800367e:	f7ff bbe7 	b.w	8002e50 <HAL_DMA_IRQHandler+0x187c>
 8003682:	f44f 3280 	mov.w	r2, #65536	; 0x10000
 8003686:	f7ff b8ea 	b.w	800285e <HAL_DMA_IRQHandler+0x128a>
 800368a:	032e      	lsls	r6, r5, #12
 800368c:	f53f a835 	bmi.w	80026fa <HAL_DMA_IRQHandler+0x1126>
 8003690:	4a11      	ldr	r2, [pc, #68]	; (80036d8 <HAL_DMA_IRQHandler+0x2104>)
 8003692:	4619      	mov	r1, r3
 8003694:	6850      	ldr	r0, [r2, #4]
 8003696:	f44f 3280 	mov.w	r2, #65536	; 0x10000
 800369a:	f7fe b8c8 	b.w	800182e <HAL_DMA_IRQHandler+0x25a>
 800369e:	f44f 1280 	mov.w	r2, #1048576	; 0x100000
 80036a2:	f7ff b9e1 	b.w	8002a68 <HAL_DMA_IRQHandler+0x1494>
 80036a6:	f44f 1280 	mov.w	r2, #1048576	; 0x100000
 80036aa:	e610      	b.n	80032ce <HAL_DMA_IRQHandler+0x1cfa>
 80036ac:	f44f 1280 	mov.w	r2, #1048576	; 0x100000
 80036b0:	e68d      	b.n	80033ce <HAL_DMA_IRQHandler+0x1dfa>
 80036b2:	f44f 1200 	mov.w	r2, #2097152	; 0x200000
 80036b6:	e5c8      	b.n	800324a <HAL_DMA_IRQHandler+0x1c76>
 80036b8:	f44f 1300 	mov.w	r3, #2097152	; 0x200000
 80036bc:	e649      	b.n	8003352 <HAL_DMA_IRQHandler+0x1d7e>
 80036be:	f44f 1200 	mov.w	r2, #2097152	; 0x200000
 80036c2:	f7ff b987 	b.w	80029d4 <HAL_DMA_IRQHandler+0x1400>
 80036c6:	f44f 1280 	mov.w	r2, #1048576	; 0x100000
 80036ca:	f7ff ba60 	b.w	8002b8e <HAL_DMA_IRQHandler+0x15ba>
 80036ce:	f44f 1300 	mov.w	r3, #2097152	; 0x200000
 80036d2:	f7ff ba13 	b.w	8002afc <HAL_DMA_IRQHandler+0x1528>
 80036d6:	bf00      	nop
 80036d8:	40026000 	.word	0x40026000
 80036dc:	40026400 	.word	0x40026400
 80036e0:	40026088 	.word	0x40026088

080036e4 <HAL_I2C_Mem_Write.part.0.constprop.0>:
HAL_I2C_Mem_Write.part.0.constprop.0():
 80036e4:	b470      	push	{r4, r5, r6}
 80036e6:	4c24      	ldr	r4, [pc, #144]	; (8003778 <HAL_I2C_Mem_Write.part.0.constprop.0+0x94>)
 80036e8:	4d24      	ldr	r5, [pc, #144]	; (800377c <HAL_I2C_Mem_Write.part.0.constprop.0+0x98>)
 80036ea:	6826      	ldr	r6, [r4, #0]
 80036ec:	682b      	ldr	r3, [r5, #0]
 80036ee:	1c4a      	adds	r2, r1, #1
 80036f0:	d11d      	bne.n	800372e <HAL_I2C_Mem_Write.part.0.constprop.0+0x4a>
 80036f2:	695a      	ldr	r2, [r3, #20]
 80036f4:	0616      	lsls	r6, r2, #24
 80036f6:	d5fc      	bpl.n	80036f2 <HAL_I2C_Mem_Write.part.0.constprop.0+0xe>
 80036f8:	7802      	ldrb	r2, [r0, #0]
 80036fa:	611a      	str	r2, [r3, #16]
 80036fc:	695a      	ldr	r2, [r3, #20]
 80036fe:	6822      	ldr	r2, [r4, #0]
 8003700:	1c48      	adds	r0, r1, #1
 8003702:	d125      	bne.n	8003750 <HAL_I2C_Mem_Write.part.0.constprop.0+0x6c>
 8003704:	695a      	ldr	r2, [r3, #20]
 8003706:	0616      	lsls	r6, r2, #24
 8003708:	d5fc      	bpl.n	8003704 <HAL_I2C_Mem_Write.part.0.constprop.0+0x20>
 800370a:	681a      	ldr	r2, [r3, #0]
 800370c:	f442 7200 	orr.w	r2, r2, #512	; 0x200
 8003710:	601a      	str	r2, [r3, #0]
 8003712:	6820      	ldr	r0, [r4, #0]
 8003714:	1c4e      	adds	r6, r1, #1
 8003716:	d125      	bne.n	8003764 <HAL_I2C_Mem_Write.part.0.constprop.0+0x80>
 8003718:	699a      	ldr	r2, [r3, #24]
 800371a:	0791      	lsls	r1, r2, #30
 800371c:	d4fc      	bmi.n	8003718 <HAL_I2C_Mem_Write.part.0.constprop.0+0x34>
 800371e:	2000      	movs	r0, #0
 8003720:	2301      	movs	r3, #1
 8003722:	f885 3035 	strb.w	r3, [r5, #53]	; 0x35
 8003726:	f885 0034 	strb.w	r0, [r5, #52]	; 0x34
 800372a:	bc70      	pop	{r4, r5, r6}
 800372c:	4770      	bx	lr
 800372e:	695a      	ldr	r2, [r3, #20]
 8003730:	0612      	lsls	r2, r2, #24
 8003732:	d4e1      	bmi.n	80036f8 <HAL_I2C_Mem_Write.part.0.constprop.0+0x14>
 8003734:	b119      	cbz	r1, 800373e <HAL_I2C_Mem_Write.part.0.constprop.0+0x5a>
 8003736:	6822      	ldr	r2, [r4, #0]
 8003738:	1b92      	subs	r2, r2, r6
 800373a:	4291      	cmp	r1, r2
 800373c:	d2d7      	bcs.n	80036ee <HAL_I2C_Mem_Write.part.0.constprop.0+0xa>
 800373e:	2201      	movs	r2, #1
 8003740:	2300      	movs	r3, #0
 8003742:	f885 2035 	strb.w	r2, [r5, #53]	; 0x35
 8003746:	f885 3034 	strb.w	r3, [r5, #52]	; 0x34
 800374a:	2003      	movs	r0, #3
 800374c:	bc70      	pop	{r4, r5, r6}
 800374e:	4770      	bx	lr
 8003750:	6958      	ldr	r0, [r3, #20]
 8003752:	0600      	lsls	r0, r0, #24
 8003754:	d4d9      	bmi.n	800370a <HAL_I2C_Mem_Write.part.0.constprop.0+0x26>
 8003756:	2900      	cmp	r1, #0
 8003758:	d0f1      	beq.n	800373e <HAL_I2C_Mem_Write.part.0.constprop.0+0x5a>
 800375a:	6820      	ldr	r0, [r4, #0]
 800375c:	1a80      	subs	r0, r0, r2
 800375e:	4281      	cmp	r1, r0
 8003760:	d2ce      	bcs.n	8003700 <HAL_I2C_Mem_Write.part.0.constprop.0+0x1c>
 8003762:	e7ec      	b.n	800373e <HAL_I2C_Mem_Write.part.0.constprop.0+0x5a>
 8003764:	699a      	ldr	r2, [r3, #24]
 8003766:	0792      	lsls	r2, r2, #30
 8003768:	d5d9      	bpl.n	800371e <HAL_I2C_Mem_Write.part.0.constprop.0+0x3a>
 800376a:	2900      	cmp	r1, #0
 800376c:	d0e7      	beq.n	800373e <HAL_I2C_Mem_Write.part.0.constprop.0+0x5a>
 800376e:	6822      	ldr	r2, [r4, #0]
 8003770:	1a12      	subs	r2, r2, r0
 8003772:	4291      	cmp	r1, r2
 8003774:	d2ce      	bcs.n	8003714 <HAL_I2C_Mem_Write.part.0.constprop.0+0x30>
 8003776:	e7e2      	b.n	800373e <HAL_I2C_Mem_Write.part.0.constprop.0+0x5a>
 8003778:	2001f7dc 	.word	0x2001f7dc
 800377c:	200008cc 	.word	0x200008cc

08003780 <I2Cx_WriteData>:
I2Cx_WriteData():
 8003780:	b570      	push	{r4, r5, r6, lr}
 8003782:	4c3e      	ldr	r4, [pc, #248]	; (800387c <I2Cx_WriteData+0xfc>)
 8003784:	f894 3035 	ldrb.w	r3, [r4, #53]	; 0x35
 8003788:	b082      	sub	sp, #8
 800378a:	2b01      	cmp	r3, #1
 800378c:	f88d 2007 	strb.w	r2, [sp, #7]
 8003790:	d163      	bne.n	800385a <I2Cx_WriteData+0xda>
 8003792:	b2dd      	uxtb	r5, r3
 8003794:	6823      	ldr	r3, [r4, #0]
 8003796:	699a      	ldr	r2, [r3, #24]
 8003798:	f012 0202 	ands.w	r2, r2, #2
 800379c:	d12d      	bne.n	80037fa <I2Cx_WriteData+0x7a>
 800379e:	f894 6034 	ldrb.w	r6, [r4, #52]	; 0x34
 80037a2:	2e01      	cmp	r6, #1
 80037a4:	d029      	beq.n	80037fa <I2Cx_WriteData+0x7a>
 80037a6:	2632      	movs	r6, #50	; 0x32
 80037a8:	f884 6035 	strb.w	r6, [r4, #53]	; 0x35
 80037ac:	f884 5034 	strb.w	r5, [r4, #52]	; 0x34
 80037b0:	f884 2036 	strb.w	r2, [r4, #54]	; 0x36
 80037b4:	681a      	ldr	r2, [r3, #0]
 80037b6:	4d32      	ldr	r5, [pc, #200]	; (8003880 <I2Cx_WriteData+0x100>)
 80037b8:	f442 7280 	orr.w	r2, r2, #256	; 0x100
 80037bc:	601a      	str	r2, [r3, #0]
 80037be:	682e      	ldr	r6, [r5, #0]
 80037c0:	695a      	ldr	r2, [r3, #20]
 80037c2:	07d2      	lsls	r2, r2, #31
 80037c4:	d42c      	bmi.n	8003820 <I2Cx_WriteData+0xa0>
 80037c6:	682a      	ldr	r2, [r5, #0]
 80037c8:	1b92      	subs	r2, r2, r6
 80037ca:	f5b2 5f80 	cmp.w	r2, #4096	; 0x1000
 80037ce:	d9f7      	bls.n	80037c0 <I2Cx_WriteData+0x40>
 80037d0:	2201      	movs	r2, #1
 80037d2:	f884 2035 	strb.w	r2, [r4, #53]	; 0x35
 80037d6:	e00e      	b.n	80037f6 <I2Cx_WriteData+0x76>
 80037d8:	681a      	ldr	r2, [r3, #0]
 80037da:	f46f 6580 	mvn.w	r5, #1024	; 0x400
 80037de:	f442 7200 	orr.w	r2, r2, #512	; 0x200
 80037e2:	2004      	movs	r0, #4
 80037e4:	2101      	movs	r1, #1
 80037e6:	601a      	str	r2, [r3, #0]
 80037e8:	615d      	str	r5, [r3, #20]
 80037ea:	f884 0036 	strb.w	r0, [r4, #54]	; 0x36
 80037ee:	f884 1035 	strb.w	r1, [r4, #53]	; 0x35
 80037f2:	f894 2036 	ldrb.w	r2, [r4, #54]	; 0x36
 80037f6:	f894 2036 	ldrb.w	r2, [r4, #54]	; 0x36
 80037fa:	2202      	movs	r2, #2
 80037fc:	f884 2035 	strb.w	r2, [r4, #53]	; 0x35
 8003800:	6819      	ldr	r1, [r3, #0]
 8003802:	2200      	movs	r2, #0
 8003804:	f021 0101 	bic.w	r1, r1, #1
 8003808:	6019      	str	r1, [r3, #0]
 800380a:	f884 2036 	strb.w	r2, [r4, #54]	; 0x36
 800380e:	f884 2035 	strb.w	r2, [r4, #53]	; 0x35
 8003812:	f894 3035 	ldrb.w	r3, [r4, #53]	; 0x35
 8003816:	f884 2034 	strb.w	r2, [r4, #52]	; 0x34
 800381a:	b35b      	cbz	r3, 8003874 <I2Cx_WriteData+0xf4>
 800381c:	b002      	add	sp, #8
 800381e:	bd70      	pop	{r4, r5, r6, pc}
 8003820:	f000 00fe 	and.w	r0, r0, #254	; 0xfe
 8003824:	6118      	str	r0, [r3, #16]
 8003826:	6828      	ldr	r0, [r5, #0]
 8003828:	695a      	ldr	r2, [r3, #20]
 800382a:	f012 0f02 	tst.w	r2, #2
 800382e:	695a      	ldr	r2, [r3, #20]
 8003830:	d115      	bne.n	800385e <I2Cx_WriteData+0xde>
 8003832:	0556      	lsls	r6, r2, #21
 8003834:	d4d0      	bmi.n	80037d8 <I2Cx_WriteData+0x58>
 8003836:	682a      	ldr	r2, [r5, #0]
 8003838:	1a12      	subs	r2, r2, r0
 800383a:	f5b2 5f80 	cmp.w	r2, #4096	; 0x1000
 800383e:	d9f3      	bls.n	8003828 <I2Cx_WriteData+0xa8>
 8003840:	2201      	movs	r2, #1
 8003842:	f884 2035 	strb.w	r2, [r4, #53]	; 0x35
 8003846:	e7d4      	b.n	80037f2 <I2Cx_WriteData+0x72>
 8003848:	6119      	str	r1, [r3, #16]
 800384a:	f10d 0007 	add.w	r0, sp, #7
 800384e:	f44f 5180 	mov.w	r1, #4096	; 0x1000
 8003852:	f7ff ff47 	bl	80036e4 <HAL_I2C_Mem_Write.part.0.constprop.0>
 8003856:	2800      	cmp	r0, #0
 8003858:	d0e0      	beq.n	800381c <I2Cx_WriteData+0x9c>
 800385a:	6823      	ldr	r3, [r4, #0]
 800385c:	e7cd      	b.n	80037fa <I2Cx_WriteData+0x7a>
 800385e:	699a      	ldr	r2, [r3, #24]
 8003860:	6828      	ldr	r0, [r5, #0]
 8003862:	695a      	ldr	r2, [r3, #20]
 8003864:	0612      	lsls	r2, r2, #24
 8003866:	d4ef      	bmi.n	8003848 <I2Cx_WriteData+0xc8>
 8003868:	682a      	ldr	r2, [r5, #0]
 800386a:	1a12      	subs	r2, r2, r0
 800386c:	f5b2 5f80 	cmp.w	r2, #4096	; 0x1000
 8003870:	d9f7      	bls.n	8003862 <I2Cx_WriteData+0xe2>
 8003872:	e7ad      	b.n	80037d0 <I2Cx_WriteData+0x50>
 8003874:	f7fd fda8 	bl	80013c8 <I2Cx_Init.part.0>
 8003878:	b002      	add	sp, #8
 800387a:	bd70      	pop	{r4, r5, r6, pc}
 800387c:	200008cc 	.word	0x200008cc
 8003880:	2001f7dc 	.word	0x2001f7dc

08003884 <cs43l22_SetOutputMode>:
cs43l22_SetOutputMode():
 8003884:	b530      	push	{r4, r5, lr}
 8003886:	3901      	subs	r1, #1
 8003888:	b083      	sub	sp, #12
 800388a:	2903      	cmp	r1, #3
 800388c:	d82f      	bhi.n	80038ee <cs43l22_SetOutputMode+0x6a>
 800388e:	e8df f001 	tbb	[pc, r1]
 8003892:	1823      	.short	0x1823
 8003894:	020d      	.short	0x020d
 8003896:	2205      	movs	r2, #5
 8003898:	b2c0      	uxtb	r0, r0
 800389a:	2104      	movs	r1, #4
 800389c:	f7ff ff70 	bl	8003780 <I2Cx_WriteData>
 80038a0:	4b52      	ldr	r3, [pc, #328]	; (80039ec <cs43l22_SetOutputMode+0x168>)
 80038a2:	2205      	movs	r2, #5
 80038a4:	701a      	strb	r2, [r3, #0]
 80038a6:	2000      	movs	r0, #0
 80038a8:	b003      	add	sp, #12
 80038aa:	bd30      	pop	{r4, r5, pc}
 80038ac:	b2c0      	uxtb	r0, r0
 80038ae:	22aa      	movs	r2, #170	; 0xaa
 80038b0:	2104      	movs	r1, #4
 80038b2:	f7ff ff65 	bl	8003780 <I2Cx_WriteData>
 80038b6:	4b4d      	ldr	r3, [pc, #308]	; (80039ec <cs43l22_SetOutputMode+0x168>)
 80038b8:	22aa      	movs	r2, #170	; 0xaa
 80038ba:	2000      	movs	r0, #0
 80038bc:	701a      	strb	r2, [r3, #0]
 80038be:	b003      	add	sp, #12
 80038c0:	bd30      	pop	{r4, r5, pc}
 80038c2:	b2c0      	uxtb	r0, r0
 80038c4:	22af      	movs	r2, #175	; 0xaf
 80038c6:	2104      	movs	r1, #4
 80038c8:	f7ff ff5a 	bl	8003780 <I2Cx_WriteData>
 80038cc:	4b47      	ldr	r3, [pc, #284]	; (80039ec <cs43l22_SetOutputMode+0x168>)
 80038ce:	22af      	movs	r2, #175	; 0xaf
 80038d0:	2000      	movs	r0, #0
 80038d2:	701a      	strb	r2, [r3, #0]
 80038d4:	b003      	add	sp, #12
 80038d6:	bd30      	pop	{r4, r5, pc}
 80038d8:	b2c0      	uxtb	r0, r0
 80038da:	22fa      	movs	r2, #250	; 0xfa
 80038dc:	2104      	movs	r1, #4
 80038de:	f7ff ff4f 	bl	8003780 <I2Cx_WriteData>
 80038e2:	4b42      	ldr	r3, [pc, #264]	; (80039ec <cs43l22_SetOutputMode+0x168>)
 80038e4:	22fa      	movs	r2, #250	; 0xfa
 80038e6:	2000      	movs	r0, #0
 80038e8:	701a      	strb	r2, [r3, #0]
 80038ea:	b003      	add	sp, #12
 80038ec:	bd30      	pop	{r4, r5, pc}
 80038ee:	4c40      	ldr	r4, [pc, #256]	; (80039f0 <cs43l22_SetOutputMode+0x16c>)
 80038f0:	f894 3035 	ldrb.w	r3, [r4, #53]	; 0x35
 80038f4:	2205      	movs	r2, #5
 80038f6:	2b01      	cmp	r3, #1
 80038f8:	b2dd      	uxtb	r5, r3
 80038fa:	f88d 2007 	strb.w	r2, [sp, #7]
 80038fe:	6823      	ldr	r3, [r4, #0]
 8003900:	d121      	bne.n	8003946 <cs43l22_SetOutputMode+0xc2>
 8003902:	699a      	ldr	r2, [r3, #24]
 8003904:	f012 0202 	ands.w	r2, r2, #2
 8003908:	d11d      	bne.n	8003946 <cs43l22_SetOutputMode+0xc2>
 800390a:	f894 1034 	ldrb.w	r1, [r4, #52]	; 0x34
 800390e:	2901      	cmp	r1, #1
 8003910:	d019      	beq.n	8003946 <cs43l22_SetOutputMode+0xc2>
 8003912:	2132      	movs	r1, #50	; 0x32
 8003914:	f884 1035 	strb.w	r1, [r4, #53]	; 0x35
 8003918:	f884 5034 	strb.w	r5, [r4, #52]	; 0x34
 800391c:	f884 2036 	strb.w	r2, [r4, #54]	; 0x36
 8003920:	6819      	ldr	r1, [r3, #0]
 8003922:	4a34      	ldr	r2, [pc, #208]	; (80039f4 <cs43l22_SetOutputMode+0x170>)
 8003924:	f441 7180 	orr.w	r1, r1, #256	; 0x100
 8003928:	6019      	str	r1, [r3, #0]
 800392a:	6815      	ldr	r5, [r2, #0]
 800392c:	6959      	ldr	r1, [r3, #20]
 800392e:	07c9      	lsls	r1, r1, #31
 8003930:	d421      	bmi.n	8003976 <cs43l22_SetOutputMode+0xf2>
 8003932:	6811      	ldr	r1, [r2, #0]
 8003934:	1b49      	subs	r1, r1, r5
 8003936:	f5b1 5f80 	cmp.w	r1, #4096	; 0x1000
 800393a:	d9f7      	bls.n	800392c <cs43l22_SetOutputMode+0xa8>
 800393c:	2201      	movs	r2, #1
 800393e:	f884 2035 	strb.w	r2, [r4, #53]	; 0x35
 8003942:	f894 2036 	ldrb.w	r2, [r4, #54]	; 0x36
 8003946:	2202      	movs	r2, #2
 8003948:	f884 2035 	strb.w	r2, [r4, #53]	; 0x35
 800394c:	6819      	ldr	r1, [r3, #0]
 800394e:	2200      	movs	r2, #0
 8003950:	f021 0101 	bic.w	r1, r1, #1
 8003954:	6019      	str	r1, [r3, #0]
 8003956:	f884 2036 	strb.w	r2, [r4, #54]	; 0x36
 800395a:	f884 2035 	strb.w	r2, [r4, #53]	; 0x35
 800395e:	f894 3035 	ldrb.w	r3, [r4, #53]	; 0x35
 8003962:	f884 2034 	strb.w	r2, [r4, #52]	; 0x34
 8003966:	b11b      	cbz	r3, 8003970 <cs43l22_SetOutputMode+0xec>
 8003968:	4b20      	ldr	r3, [pc, #128]	; (80039ec <cs43l22_SetOutputMode+0x168>)
 800396a:	2205      	movs	r2, #5
 800396c:	701a      	strb	r2, [r3, #0]
 800396e:	e79a      	b.n	80038a6 <cs43l22_SetOutputMode+0x22>
 8003970:	f7fd fd2a 	bl	80013c8 <I2Cx_Init.part.0>
 8003974:	e7f8      	b.n	8003968 <cs43l22_SetOutputMode+0xe4>
 8003976:	f000 00fe 	and.w	r0, r0, #254	; 0xfe
 800397a:	6118      	str	r0, [r3, #16]
 800397c:	6810      	ldr	r0, [r2, #0]
 800397e:	6959      	ldr	r1, [r3, #20]
 8003980:	f011 0f02 	tst.w	r1, #2
 8003984:	6959      	ldr	r1, [r3, #20]
 8003986:	d10c      	bne.n	80039a2 <cs43l22_SetOutputMode+0x11e>
 8003988:	054d      	lsls	r5, r1, #21
 800398a:	d415      	bmi.n	80039b8 <cs43l22_SetOutputMode+0x134>
 800398c:	6811      	ldr	r1, [r2, #0]
 800398e:	1a09      	subs	r1, r1, r0
 8003990:	f5b1 5f80 	cmp.w	r1, #4096	; 0x1000
 8003994:	d9f3      	bls.n	800397e <cs43l22_SetOutputMode+0xfa>
 8003996:	2201      	movs	r2, #1
 8003998:	f884 2035 	strb.w	r2, [r4, #53]	; 0x35
 800399c:	f894 2036 	ldrb.w	r2, [r4, #54]	; 0x36
 80039a0:	e7cf      	b.n	8003942 <cs43l22_SetOutputMode+0xbe>
 80039a2:	6999      	ldr	r1, [r3, #24]
 80039a4:	6810      	ldr	r0, [r2, #0]
 80039a6:	6959      	ldr	r1, [r3, #20]
 80039a8:	0609      	lsls	r1, r1, #24
 80039aa:	d413      	bmi.n	80039d4 <cs43l22_SetOutputMode+0x150>
 80039ac:	6811      	ldr	r1, [r2, #0]
 80039ae:	1a09      	subs	r1, r1, r0
 80039b0:	f5b1 5f80 	cmp.w	r1, #4096	; 0x1000
 80039b4:	d9f7      	bls.n	80039a6 <cs43l22_SetOutputMode+0x122>
 80039b6:	e7c1      	b.n	800393c <cs43l22_SetOutputMode+0xb8>
 80039b8:	681a      	ldr	r2, [r3, #0]
 80039ba:	f46f 6580 	mvn.w	r5, #1024	; 0x400
 80039be:	f442 7200 	orr.w	r2, r2, #512	; 0x200
 80039c2:	2004      	movs	r0, #4
 80039c4:	2101      	movs	r1, #1
 80039c6:	601a      	str	r2, [r3, #0]
 80039c8:	615d      	str	r5, [r3, #20]
 80039ca:	f884 0036 	strb.w	r0, [r4, #54]	; 0x36
 80039ce:	f884 1035 	strb.w	r1, [r4, #53]	; 0x35
 80039d2:	e7e3      	b.n	800399c <cs43l22_SetOutputMode+0x118>
 80039d4:	2204      	movs	r2, #4
 80039d6:	611a      	str	r2, [r3, #16]
 80039d8:	f44f 5180 	mov.w	r1, #4096	; 0x1000
 80039dc:	f10d 0007 	add.w	r0, sp, #7
 80039e0:	f7ff fe80 	bl	80036e4 <HAL_I2C_Mem_Write.part.0.constprop.0>
 80039e4:	2800      	cmp	r0, #0
 80039e6:	d0bf      	beq.n	8003968 <cs43l22_SetOutputMode+0xe4>
 80039e8:	6823      	ldr	r3, [r4, #0]
 80039ea:	e7ac      	b.n	8003946 <cs43l22_SetOutputMode+0xc2>
 80039ec:	20000954 	.word	0x20000954
 80039f0:	200008cc 	.word	0x200008cc
 80039f4:	2001f7dc 	.word	0x2001f7dc

080039f8 <cs43l22_SetMute>:
cs43l22_SetMute():
 80039f8:	b530      	push	{r4, r5, lr}
 80039fa:	2901      	cmp	r1, #1
 80039fc:	b083      	sub	sp, #12
 80039fe:	d041      	beq.n	8003a84 <cs43l22_SetMute+0x8c>
 8003a00:	4b62      	ldr	r3, [pc, #392]	; (8003b8c <cs43l22_SetMute+0x194>)
 8003a02:	4c63      	ldr	r4, [pc, #396]	; (8003b90 <cs43l22_SetMute+0x198>)
 8003a04:	781a      	ldrb	r2, [r3, #0]
 8003a06:	f894 3035 	ldrb.w	r3, [r4, #53]	; 0x35
 8003a0a:	f88d 2007 	strb.w	r2, [sp, #7]
 8003a0e:	2b01      	cmp	r3, #1
 8003a10:	b2d9      	uxtb	r1, r3
 8003a12:	6823      	ldr	r3, [r4, #0]
 8003a14:	d121      	bne.n	8003a5a <cs43l22_SetMute+0x62>
 8003a16:	699a      	ldr	r2, [r3, #24]
 8003a18:	f012 0202 	ands.w	r2, r2, #2
 8003a1c:	d11d      	bne.n	8003a5a <cs43l22_SetMute+0x62>
 8003a1e:	f894 5034 	ldrb.w	r5, [r4, #52]	; 0x34
 8003a22:	2d01      	cmp	r5, #1
 8003a24:	d019      	beq.n	8003a5a <cs43l22_SetMute+0x62>
 8003a26:	2532      	movs	r5, #50	; 0x32
 8003a28:	f884 5035 	strb.w	r5, [r4, #53]	; 0x35
 8003a2c:	f884 1034 	strb.w	r1, [r4, #52]	; 0x34
 8003a30:	f884 2036 	strb.w	r2, [r4, #54]	; 0x36
 8003a34:	681a      	ldr	r2, [r3, #0]
 8003a36:	4957      	ldr	r1, [pc, #348]	; (8003b94 <cs43l22_SetMute+0x19c>)
 8003a38:	f442 7280 	orr.w	r2, r2, #256	; 0x100
 8003a3c:	601a      	str	r2, [r3, #0]
 8003a3e:	680d      	ldr	r5, [r1, #0]
 8003a40:	695a      	ldr	r2, [r3, #20]
 8003a42:	07d2      	lsls	r2, r2, #31
 8003a44:	d446      	bmi.n	8003ad4 <cs43l22_SetMute+0xdc>
 8003a46:	680a      	ldr	r2, [r1, #0]
 8003a48:	1b52      	subs	r2, r2, r5
 8003a4a:	f5b2 5f80 	cmp.w	r2, #4096	; 0x1000
 8003a4e:	d9f7      	bls.n	8003a40 <cs43l22_SetMute+0x48>
 8003a50:	2201      	movs	r2, #1
 8003a52:	f884 2035 	strb.w	r2, [r4, #53]	; 0x35
 8003a56:	f894 2036 	ldrb.w	r2, [r4, #54]	; 0x36
 8003a5a:	2202      	movs	r2, #2
 8003a5c:	f884 2035 	strb.w	r2, [r4, #53]	; 0x35
 8003a60:	6819      	ldr	r1, [r3, #0]
 8003a62:	2200      	movs	r2, #0
 8003a64:	f021 0101 	bic.w	r1, r1, #1
 8003a68:	6019      	str	r1, [r3, #0]
 8003a6a:	f884 2036 	strb.w	r2, [r4, #54]	; 0x36
 8003a6e:	f884 2035 	strb.w	r2, [r4, #53]	; 0x35
 8003a72:	f894 3035 	ldrb.w	r3, [r4, #53]	; 0x35
 8003a76:	f884 2034 	strb.w	r2, [r4, #52]	; 0x34
 8003a7a:	2b00      	cmp	r3, #0
 8003a7c:	d05f      	beq.n	8003b3e <cs43l22_SetMute+0x146>
 8003a7e:	2000      	movs	r0, #0
 8003a80:	b003      	add	sp, #12
 8003a82:	bd30      	pop	{r4, r5, pc}
 8003a84:	4c42      	ldr	r4, [pc, #264]	; (8003b90 <cs43l22_SetMute+0x198>)
 8003a86:	f894 3035 	ldrb.w	r3, [r4, #53]	; 0x35
 8003a8a:	22ff      	movs	r2, #255	; 0xff
 8003a8c:	2b01      	cmp	r3, #1
 8003a8e:	b2d9      	uxtb	r1, r3
 8003a90:	f88d 2007 	strb.w	r2, [sp, #7]
 8003a94:	6823      	ldr	r3, [r4, #0]
 8003a96:	d1e0      	bne.n	8003a5a <cs43l22_SetMute+0x62>
 8003a98:	699a      	ldr	r2, [r3, #24]
 8003a9a:	f012 0202 	ands.w	r2, r2, #2
 8003a9e:	d1dc      	bne.n	8003a5a <cs43l22_SetMute+0x62>
 8003aa0:	f894 5034 	ldrb.w	r5, [r4, #52]	; 0x34
 8003aa4:	2d01      	cmp	r5, #1
 8003aa6:	d0d8      	beq.n	8003a5a <cs43l22_SetMute+0x62>
 8003aa8:	2532      	movs	r5, #50	; 0x32
 8003aaa:	f884 5035 	strb.w	r5, [r4, #53]	; 0x35
 8003aae:	f884 1034 	strb.w	r1, [r4, #52]	; 0x34
 8003ab2:	f884 2036 	strb.w	r2, [r4, #54]	; 0x36
 8003ab6:	681a      	ldr	r2, [r3, #0]
 8003ab8:	4936      	ldr	r1, [pc, #216]	; (8003b94 <cs43l22_SetMute+0x19c>)
 8003aba:	f442 7280 	orr.w	r2, r2, #256	; 0x100
 8003abe:	601a      	str	r2, [r3, #0]
 8003ac0:	680d      	ldr	r5, [r1, #0]
 8003ac2:	695a      	ldr	r2, [r3, #20]
 8003ac4:	07d2      	lsls	r2, r2, #31
 8003ac6:	d419      	bmi.n	8003afc <cs43l22_SetMute+0x104>
 8003ac8:	680a      	ldr	r2, [r1, #0]
 8003aca:	1b52      	subs	r2, r2, r5
 8003acc:	f5b2 5f80 	cmp.w	r2, #4096	; 0x1000
 8003ad0:	d9f7      	bls.n	8003ac2 <cs43l22_SetMute+0xca>
 8003ad2:	e7bd      	b.n	8003a50 <cs43l22_SetMute+0x58>
 8003ad4:	f000 00fe 	and.w	r0, r0, #254	; 0xfe
 8003ad8:	6118      	str	r0, [r3, #16]
 8003ada:	6808      	ldr	r0, [r1, #0]
 8003adc:	695a      	ldr	r2, [r3, #20]
 8003ade:	f012 0f02 	tst.w	r2, #2
 8003ae2:	695a      	ldr	r2, [r3, #20]
 8003ae4:	d130      	bne.n	8003b48 <cs43l22_SetMute+0x150>
 8003ae6:	0555      	lsls	r5, r2, #21
 8003ae8:	d419      	bmi.n	8003b1e <cs43l22_SetMute+0x126>
 8003aea:	680a      	ldr	r2, [r1, #0]
 8003aec:	1a12      	subs	r2, r2, r0
 8003aee:	f5b2 5f80 	cmp.w	r2, #4096	; 0x1000
 8003af2:	d9f3      	bls.n	8003adc <cs43l22_SetMute+0xe4>
 8003af4:	2201      	movs	r2, #1
 8003af6:	f884 2035 	strb.w	r2, [r4, #53]	; 0x35
 8003afa:	e01d      	b.n	8003b38 <cs43l22_SetMute+0x140>
 8003afc:	f000 00fe 	and.w	r0, r0, #254	; 0xfe
 8003b00:	6118      	str	r0, [r3, #16]
 8003b02:	6808      	ldr	r0, [r1, #0]
 8003b04:	695a      	ldr	r2, [r3, #20]
 8003b06:	f012 0f02 	tst.w	r2, #2
 8003b0a:	695a      	ldr	r2, [r3, #20]
 8003b0c:	d133      	bne.n	8003b76 <cs43l22_SetMute+0x17e>
 8003b0e:	0552      	lsls	r2, r2, #21
 8003b10:	d405      	bmi.n	8003b1e <cs43l22_SetMute+0x126>
 8003b12:	680a      	ldr	r2, [r1, #0]
 8003b14:	1a12      	subs	r2, r2, r0
 8003b16:	f5b2 5f80 	cmp.w	r2, #4096	; 0x1000
 8003b1a:	d9f3      	bls.n	8003b04 <cs43l22_SetMute+0x10c>
 8003b1c:	e7ea      	b.n	8003af4 <cs43l22_SetMute+0xfc>
 8003b1e:	681a      	ldr	r2, [r3, #0]
 8003b20:	f46f 6580 	mvn.w	r5, #1024	; 0x400
 8003b24:	f442 7200 	orr.w	r2, r2, #512	; 0x200
 8003b28:	2004      	movs	r0, #4
 8003b2a:	2101      	movs	r1, #1
 8003b2c:	601a      	str	r2, [r3, #0]
 8003b2e:	615d      	str	r5, [r3, #20]
 8003b30:	f884 0036 	strb.w	r0, [r4, #54]	; 0x36
 8003b34:	f884 1035 	strb.w	r1, [r4, #53]	; 0x35
 8003b38:	f894 2036 	ldrb.w	r2, [r4, #54]	; 0x36
 8003b3c:	e78b      	b.n	8003a56 <cs43l22_SetMute+0x5e>
 8003b3e:	f7fd fc43 	bl	80013c8 <I2Cx_Init.part.0>
 8003b42:	2000      	movs	r0, #0
 8003b44:	b003      	add	sp, #12
 8003b46:	bd30      	pop	{r4, r5, pc}
 8003b48:	699a      	ldr	r2, [r3, #24]
 8003b4a:	6808      	ldr	r0, [r1, #0]
 8003b4c:	695a      	ldr	r2, [r3, #20]
 8003b4e:	0612      	lsls	r2, r2, #24
 8003b50:	d405      	bmi.n	8003b5e <cs43l22_SetMute+0x166>
 8003b52:	680a      	ldr	r2, [r1, #0]
 8003b54:	1a12      	subs	r2, r2, r0
 8003b56:	f5b2 5f80 	cmp.w	r2, #4096	; 0x1000
 8003b5a:	d9f7      	bls.n	8003b4c <cs43l22_SetMute+0x154>
 8003b5c:	e778      	b.n	8003a50 <cs43l22_SetMute+0x58>
 8003b5e:	2204      	movs	r2, #4
 8003b60:	611a      	str	r2, [r3, #16]
 8003b62:	f44f 5180 	mov.w	r1, #4096	; 0x1000
 8003b66:	f10d 0007 	add.w	r0, sp, #7
 8003b6a:	f7ff fdbb 	bl	80036e4 <HAL_I2C_Mem_Write.part.0.constprop.0>
 8003b6e:	2800      	cmp	r0, #0
 8003b70:	d085      	beq.n	8003a7e <cs43l22_SetMute+0x86>
 8003b72:	6823      	ldr	r3, [r4, #0]
 8003b74:	e771      	b.n	8003a5a <cs43l22_SetMute+0x62>
 8003b76:	699a      	ldr	r2, [r3, #24]
 8003b78:	6808      	ldr	r0, [r1, #0]
 8003b7a:	695a      	ldr	r2, [r3, #20]
 8003b7c:	0615      	lsls	r5, r2, #24
 8003b7e:	d4ee      	bmi.n	8003b5e <cs43l22_SetMute+0x166>
 8003b80:	680a      	ldr	r2, [r1, #0]
 8003b82:	1a12      	subs	r2, r2, r0
 8003b84:	f5b2 5f80 	cmp.w	r2, #4096	; 0x1000
 8003b88:	d9f7      	bls.n	8003b7a <cs43l22_SetMute+0x182>
 8003b8a:	e761      	b.n	8003a50 <cs43l22_SetMute+0x58>
 8003b8c:	20000954 	.word	0x20000954
 8003b90:	200008cc 	.word	0x200008cc
 8003b94:	2001f7dc 	.word	0x2001f7dc

08003b98 <cs43l22_SetVolume>:
cs43l22_SetVolume():
 8003b98:	b570      	push	{r4, r5, r6, lr}
 8003b9a:	2964      	cmp	r1, #100	; 0x64
 8003b9c:	b082      	sub	sp, #8
 8003b9e:	f200 8089 	bhi.w	8003cb4 <cs43l22_SetVolume+0x11c>
 8003ba2:	4db7      	ldr	r5, [pc, #732]	; (8003e80 <cs43l22_SetVolume+0x2e8>)
 8003ba4:	ebc1 2101 	rsb	r1, r1, r1, lsl #8
 8003ba8:	fba5 3501 	umull	r3, r5, r5, r1
 8003bac:	f3c5 1547 	ubfx	r5, r5, #5, #8
 8003bb0:	4cb4      	ldr	r4, [pc, #720]	; (8003e84 <cs43l22_SetVolume+0x2ec>)
 8003bb2:	f894 3035 	ldrb.w	r3, [r4, #53]	; 0x35
 8003bb6:	3519      	adds	r5, #25
 8003bb8:	b2ed      	uxtb	r5, r5
 8003bba:	2b01      	cmp	r3, #1
 8003bbc:	b2d9      	uxtb	r1, r3
 8003bbe:	f88d 5007 	strb.w	r5, [sp, #7]
 8003bc2:	6823      	ldr	r3, [r4, #0]
 8003bc4:	b2c6      	uxtb	r6, r0
 8003bc6:	d122      	bne.n	8003c0e <cs43l22_SetVolume+0x76>
 8003bc8:	699a      	ldr	r2, [r3, #24]
 8003bca:	f012 0202 	ands.w	r2, r2, #2
 8003bce:	d11e      	bne.n	8003c0e <cs43l22_SetVolume+0x76>
 8003bd0:	f894 0034 	ldrb.w	r0, [r4, #52]	; 0x34
 8003bd4:	2801      	cmp	r0, #1
 8003bd6:	d01a      	beq.n	8003c0e <cs43l22_SetVolume+0x76>
 8003bd8:	2032      	movs	r0, #50	; 0x32
 8003bda:	f884 0035 	strb.w	r0, [r4, #53]	; 0x35
 8003bde:	f884 1034 	strb.w	r1, [r4, #52]	; 0x34
 8003be2:	f884 2036 	strb.w	r2, [r4, #54]	; 0x36
 8003be6:	6819      	ldr	r1, [r3, #0]
 8003be8:	4aa7      	ldr	r2, [pc, #668]	; (8003e88 <cs43l22_SetVolume+0x2f0>)
 8003bea:	f441 7180 	orr.w	r1, r1, #256	; 0x100
 8003bee:	6019      	str	r1, [r3, #0]
 8003bf0:	6810      	ldr	r0, [r2, #0]
 8003bf2:	6959      	ldr	r1, [r3, #20]
 8003bf4:	07c9      	lsls	r1, r1, #31
 8003bf6:	f100 810f 	bmi.w	8003e18 <cs43l22_SetVolume+0x280>
 8003bfa:	6811      	ldr	r1, [r2, #0]
 8003bfc:	1a09      	subs	r1, r1, r0
 8003bfe:	f5b1 5f80 	cmp.w	r1, #4096	; 0x1000
 8003c02:	d9f6      	bls.n	8003bf2 <cs43l22_SetVolume+0x5a>
 8003c04:	2201      	movs	r2, #1
 8003c06:	f884 2035 	strb.w	r2, [r4, #53]	; 0x35
 8003c0a:	f894 2036 	ldrb.w	r2, [r4, #54]	; 0x36
 8003c0e:	2202      	movs	r2, #2
 8003c10:	f884 2035 	strb.w	r2, [r4, #53]	; 0x35
 8003c14:	6819      	ldr	r1, [r3, #0]
 8003c16:	2200      	movs	r2, #0
 8003c18:	f021 0101 	bic.w	r1, r1, #1
 8003c1c:	6019      	str	r1, [r3, #0]
 8003c1e:	f884 2036 	strb.w	r2, [r4, #54]	; 0x36
 8003c22:	f884 2035 	strb.w	r2, [r4, #53]	; 0x35
 8003c26:	f894 1035 	ldrb.w	r1, [r4, #53]	; 0x35
 8003c2a:	f884 2034 	strb.w	r2, [r4, #52]	; 0x34
 8003c2e:	2900      	cmp	r1, #0
 8003c30:	f000 8184 	beq.w	8003f3c <cs43l22_SetVolume+0x3a4>
 8003c34:	f894 2035 	ldrb.w	r2, [r4, #53]	; 0x35
 8003c38:	f88d 5007 	strb.w	r5, [sp, #7]
 8003c3c:	2a01      	cmp	r2, #1
 8003c3e:	b2d1      	uxtb	r1, r2
 8003c40:	d122      	bne.n	8003c88 <cs43l22_SetVolume+0xf0>
 8003c42:	699a      	ldr	r2, [r3, #24]
 8003c44:	f012 0202 	ands.w	r2, r2, #2
 8003c48:	d11e      	bne.n	8003c88 <cs43l22_SetVolume+0xf0>
 8003c4a:	f894 0034 	ldrb.w	r0, [r4, #52]	; 0x34
 8003c4e:	2801      	cmp	r0, #1
 8003c50:	d01a      	beq.n	8003c88 <cs43l22_SetVolume+0xf0>
 8003c52:	2032      	movs	r0, #50	; 0x32
 8003c54:	f884 0035 	strb.w	r0, [r4, #53]	; 0x35
 8003c58:	f884 1034 	strb.w	r1, [r4, #52]	; 0x34
 8003c5c:	f884 2036 	strb.w	r2, [r4, #54]	; 0x36
 8003c60:	6819      	ldr	r1, [r3, #0]
 8003c62:	4a89      	ldr	r2, [pc, #548]	; (8003e88 <cs43l22_SetVolume+0x2f0>)
 8003c64:	f441 7180 	orr.w	r1, r1, #256	; 0x100
 8003c68:	6019      	str	r1, [r3, #0]
 8003c6a:	6810      	ldr	r0, [r2, #0]
 8003c6c:	6959      	ldr	r1, [r3, #20]
 8003c6e:	07c9      	lsls	r1, r1, #31
 8003c70:	f100 8099 	bmi.w	8003da6 <cs43l22_SetVolume+0x20e>
 8003c74:	6811      	ldr	r1, [r2, #0]
 8003c76:	1a09      	subs	r1, r1, r0
 8003c78:	f5b1 5f80 	cmp.w	r1, #4096	; 0x1000
 8003c7c:	d9f6      	bls.n	8003c6c <cs43l22_SetVolume+0xd4>
 8003c7e:	2201      	movs	r2, #1
 8003c80:	f884 2035 	strb.w	r2, [r4, #53]	; 0x35
 8003c84:	f894 2036 	ldrb.w	r2, [r4, #54]	; 0x36
 8003c88:	2202      	movs	r2, #2
 8003c8a:	f884 2035 	strb.w	r2, [r4, #53]	; 0x35
 8003c8e:	6819      	ldr	r1, [r3, #0]
 8003c90:	2200      	movs	r2, #0
 8003c92:	f021 0101 	bic.w	r1, r1, #1
 8003c96:	6019      	str	r1, [r3, #0]
 8003c98:	f884 2036 	strb.w	r2, [r4, #54]	; 0x36
 8003c9c:	f884 2035 	strb.w	r2, [r4, #53]	; 0x35
 8003ca0:	f894 3035 	ldrb.w	r3, [r4, #53]	; 0x35
 8003ca4:	f884 2034 	strb.w	r2, [r4, #52]	; 0x34
 8003ca8:	2b00      	cmp	r3, #0
 8003caa:	f000 80d9 	beq.w	8003e60 <cs43l22_SetVolume+0x2c8>
 8003cae:	2000      	movs	r0, #0
 8003cb0:	b002      	add	sp, #8
 8003cb2:	bd70      	pop	{r4, r5, r6, pc}
 8003cb4:	29e6      	cmp	r1, #230	; 0xe6
 8003cb6:	f240 8149 	bls.w	8003f4c <cs43l22_SetVolume+0x3b4>
 8003cba:	4c72      	ldr	r4, [pc, #456]	; (8003e84 <cs43l22_SetVolume+0x2ec>)
 8003cbc:	f894 3035 	ldrb.w	r3, [r4, #53]	; 0x35
 8003cc0:	227d      	movs	r2, #125	; 0x7d
 8003cc2:	2b01      	cmp	r3, #1
 8003cc4:	b2d9      	uxtb	r1, r3
 8003cc6:	b2c5      	uxtb	r5, r0
 8003cc8:	6823      	ldr	r3, [r4, #0]
 8003cca:	f88d 2007 	strb.w	r2, [sp, #7]
 8003cce:	d131      	bne.n	8003d34 <cs43l22_SetVolume+0x19c>
 8003cd0:	699a      	ldr	r2, [r3, #24]
 8003cd2:	f012 0202 	ands.w	r2, r2, #2
 8003cd6:	d12d      	bne.n	8003d34 <cs43l22_SetVolume+0x19c>
 8003cd8:	f894 0034 	ldrb.w	r0, [r4, #52]	; 0x34
 8003cdc:	2801      	cmp	r0, #1
 8003cde:	d029      	beq.n	8003d34 <cs43l22_SetVolume+0x19c>
 8003ce0:	2032      	movs	r0, #50	; 0x32
 8003ce2:	f884 0035 	strb.w	r0, [r4, #53]	; 0x35
 8003ce6:	f884 1034 	strb.w	r1, [r4, #52]	; 0x34
 8003cea:	f884 2036 	strb.w	r2, [r4, #54]	; 0x36
 8003cee:	6819      	ldr	r1, [r3, #0]
 8003cf0:	4a65      	ldr	r2, [pc, #404]	; (8003e88 <cs43l22_SetVolume+0x2f0>)
 8003cf2:	f441 7180 	orr.w	r1, r1, #256	; 0x100
 8003cf6:	6019      	str	r1, [r3, #0]
 8003cf8:	6810      	ldr	r0, [r2, #0]
 8003cfa:	6959      	ldr	r1, [r3, #20]
 8003cfc:	07ce      	lsls	r6, r1, #31
 8003cfe:	d477      	bmi.n	8003df0 <cs43l22_SetVolume+0x258>
 8003d00:	6811      	ldr	r1, [r2, #0]
 8003d02:	1a09      	subs	r1, r1, r0
 8003d04:	f5b1 5f80 	cmp.w	r1, #4096	; 0x1000
 8003d08:	d9f7      	bls.n	8003cfa <cs43l22_SetVolume+0x162>
 8003d0a:	2201      	movs	r2, #1
 8003d0c:	f884 2035 	strb.w	r2, [r4, #53]	; 0x35
 8003d10:	e00e      	b.n	8003d30 <cs43l22_SetVolume+0x198>
 8003d12:	681a      	ldr	r2, [r3, #0]
 8003d14:	f46f 6680 	mvn.w	r6, #1024	; 0x400
 8003d18:	f442 7200 	orr.w	r2, r2, #512	; 0x200
 8003d1c:	2004      	movs	r0, #4
 8003d1e:	2101      	movs	r1, #1
 8003d20:	601a      	str	r2, [r3, #0]
 8003d22:	615e      	str	r6, [r3, #20]
 8003d24:	f884 0036 	strb.w	r0, [r4, #54]	; 0x36
 8003d28:	f884 1035 	strb.w	r1, [r4, #53]	; 0x35
 8003d2c:	f894 2036 	ldrb.w	r2, [r4, #54]	; 0x36
 8003d30:	f894 2036 	ldrb.w	r2, [r4, #54]	; 0x36
 8003d34:	2202      	movs	r2, #2
 8003d36:	f884 2035 	strb.w	r2, [r4, #53]	; 0x35
 8003d3a:	6819      	ldr	r1, [r3, #0]
 8003d3c:	2200      	movs	r2, #0
 8003d3e:	f021 0101 	bic.w	r1, r1, #1
 8003d42:	6019      	str	r1, [r3, #0]
 8003d44:	f884 2036 	strb.w	r2, [r4, #54]	; 0x36
 8003d48:	f884 2035 	strb.w	r2, [r4, #53]	; 0x35
 8003d4c:	f894 1035 	ldrb.w	r1, [r4, #53]	; 0x35
 8003d50:	f884 2034 	strb.w	r2, [r4, #52]	; 0x34
 8003d54:	2900      	cmp	r1, #0
 8003d56:	f000 80f5 	beq.w	8003f44 <cs43l22_SetVolume+0x3ac>
 8003d5a:	f894 2035 	ldrb.w	r2, [r4, #53]	; 0x35
 8003d5e:	217d      	movs	r1, #125	; 0x7d
 8003d60:	2a01      	cmp	r2, #1
 8003d62:	b2d0      	uxtb	r0, r2
 8003d64:	f88d 1007 	strb.w	r1, [sp, #7]
 8003d68:	d18e      	bne.n	8003c88 <cs43l22_SetVolume+0xf0>
 8003d6a:	699a      	ldr	r2, [r3, #24]
 8003d6c:	f012 0202 	ands.w	r2, r2, #2
 8003d70:	d18a      	bne.n	8003c88 <cs43l22_SetVolume+0xf0>
 8003d72:	f894 1034 	ldrb.w	r1, [r4, #52]	; 0x34
 8003d76:	2901      	cmp	r1, #1
 8003d78:	d086      	beq.n	8003c88 <cs43l22_SetVolume+0xf0>
 8003d7a:	2132      	movs	r1, #50	; 0x32
 8003d7c:	f884 1035 	strb.w	r1, [r4, #53]	; 0x35
 8003d80:	f884 0034 	strb.w	r0, [r4, #52]	; 0x34
 8003d84:	f884 2036 	strb.w	r2, [r4, #54]	; 0x36
 8003d88:	6819      	ldr	r1, [r3, #0]
 8003d8a:	4a3f      	ldr	r2, [pc, #252]	; (8003e88 <cs43l22_SetVolume+0x2f0>)
 8003d8c:	f441 7180 	orr.w	r1, r1, #256	; 0x100
 8003d90:	6019      	str	r1, [r3, #0]
 8003d92:	6810      	ldr	r0, [r2, #0]
 8003d94:	6959      	ldr	r1, [r3, #20]
 8003d96:	07c9      	lsls	r1, r1, #31
 8003d98:	d419      	bmi.n	8003dce <cs43l22_SetVolume+0x236>
 8003d9a:	6811      	ldr	r1, [r2, #0]
 8003d9c:	1a09      	subs	r1, r1, r0
 8003d9e:	f5b1 5f80 	cmp.w	r1, #4096	; 0x1000
 8003da2:	d9f7      	bls.n	8003d94 <cs43l22_SetVolume+0x1fc>
 8003da4:	e76b      	b.n	8003c7e <cs43l22_SetVolume+0xe6>
 8003da6:	f006 06fe 	and.w	r6, r6, #254	; 0xfe
 8003daa:	611e      	str	r6, [r3, #16]
 8003dac:	6810      	ldr	r0, [r2, #0]
 8003dae:	6959      	ldr	r1, [r3, #20]
 8003db0:	f011 0f02 	tst.w	r1, #2
 8003db4:	6959      	ldr	r1, [r3, #20]
 8003db6:	d158      	bne.n	8003e6a <cs43l22_SetVolume+0x2d2>
 8003db8:	054d      	lsls	r5, r1, #21
 8003dba:	d441      	bmi.n	8003e40 <cs43l22_SetVolume+0x2a8>
 8003dbc:	6811      	ldr	r1, [r2, #0]
 8003dbe:	1a09      	subs	r1, r1, r0
 8003dc0:	f5b1 5f80 	cmp.w	r1, #4096	; 0x1000
 8003dc4:	d9f3      	bls.n	8003dae <cs43l22_SetVolume+0x216>
 8003dc6:	2201      	movs	r2, #1
 8003dc8:	f884 2035 	strb.w	r2, [r4, #53]	; 0x35
 8003dcc:	e045      	b.n	8003e5a <cs43l22_SetVolume+0x2c2>
 8003dce:	f005 05fe 	and.w	r5, r5, #254	; 0xfe
 8003dd2:	611d      	str	r5, [r3, #16]
 8003dd4:	6810      	ldr	r0, [r2, #0]
 8003dd6:	6959      	ldr	r1, [r3, #20]
 8003dd8:	f011 0f02 	tst.w	r1, #2
 8003ddc:	6959      	ldr	r1, [r3, #20]
 8003dde:	d162      	bne.n	8003ea6 <cs43l22_SetVolume+0x30e>
 8003de0:	054e      	lsls	r6, r1, #21
 8003de2:	d42d      	bmi.n	8003e40 <cs43l22_SetVolume+0x2a8>
 8003de4:	6811      	ldr	r1, [r2, #0]
 8003de6:	1a09      	subs	r1, r1, r0
 8003de8:	f5b1 5f80 	cmp.w	r1, #4096	; 0x1000
 8003dec:	d9f3      	bls.n	8003dd6 <cs43l22_SetVolume+0x23e>
 8003dee:	e7ea      	b.n	8003dc6 <cs43l22_SetVolume+0x22e>
 8003df0:	f005 01fe 	and.w	r1, r5, #254	; 0xfe
 8003df4:	6119      	str	r1, [r3, #16]
 8003df6:	6810      	ldr	r0, [r2, #0]
 8003df8:	6959      	ldr	r1, [r3, #20]
 8003dfa:	f011 0f02 	tst.w	r1, #2
 8003dfe:	6959      	ldr	r1, [r3, #20]
 8003e00:	d15c      	bne.n	8003ebc <cs43l22_SetVolume+0x324>
 8003e02:	0549      	lsls	r1, r1, #21
 8003e04:	d485      	bmi.n	8003d12 <cs43l22_SetVolume+0x17a>
 8003e06:	6811      	ldr	r1, [r2, #0]
 8003e08:	1a09      	subs	r1, r1, r0
 8003e0a:	f5b1 5f80 	cmp.w	r1, #4096	; 0x1000
 8003e0e:	d9f3      	bls.n	8003df8 <cs43l22_SetVolume+0x260>
 8003e10:	2201      	movs	r2, #1
 8003e12:	f884 2035 	strb.w	r2, [r4, #53]	; 0x35
 8003e16:	e789      	b.n	8003d2c <cs43l22_SetVolume+0x194>
 8003e18:	f006 01fe 	and.w	r1, r6, #254	; 0xfe
 8003e1c:	6119      	str	r1, [r3, #16]
 8003e1e:	6810      	ldr	r0, [r2, #0]
 8003e20:	6959      	ldr	r1, [r3, #20]
 8003e22:	f011 0f02 	tst.w	r1, #2
 8003e26:	6959      	ldr	r1, [r3, #20]
 8003e28:	d160      	bne.n	8003eec <cs43l22_SetVolume+0x354>
 8003e2a:	0549      	lsls	r1, r1, #21
 8003e2c:	d476      	bmi.n	8003f1c <cs43l22_SetVolume+0x384>
 8003e2e:	6811      	ldr	r1, [r2, #0]
 8003e30:	1a09      	subs	r1, r1, r0
 8003e32:	f5b1 5f80 	cmp.w	r1, #4096	; 0x1000
 8003e36:	d9f3      	bls.n	8003e20 <cs43l22_SetVolume+0x288>
 8003e38:	2201      	movs	r2, #1
 8003e3a:	f884 2035 	strb.w	r2, [r4, #53]	; 0x35
 8003e3e:	e07a      	b.n	8003f36 <cs43l22_SetVolume+0x39e>
 8003e40:	681a      	ldr	r2, [r3, #0]
 8003e42:	f46f 6580 	mvn.w	r5, #1024	; 0x400
 8003e46:	f442 7200 	orr.w	r2, r2, #512	; 0x200
 8003e4a:	2004      	movs	r0, #4
 8003e4c:	2101      	movs	r1, #1
 8003e4e:	601a      	str	r2, [r3, #0]
 8003e50:	615d      	str	r5, [r3, #20]
 8003e52:	f884 0036 	strb.w	r0, [r4, #54]	; 0x36
 8003e56:	f884 1035 	strb.w	r1, [r4, #53]	; 0x35
 8003e5a:	f894 2036 	ldrb.w	r2, [r4, #54]	; 0x36
 8003e5e:	e711      	b.n	8003c84 <cs43l22_SetVolume+0xec>
 8003e60:	f7fd fab2 	bl	80013c8 <I2Cx_Init.part.0>
 8003e64:	2000      	movs	r0, #0
 8003e66:	b002      	add	sp, #8
 8003e68:	bd70      	pop	{r4, r5, r6, pc}
 8003e6a:	6999      	ldr	r1, [r3, #24]
 8003e6c:	6810      	ldr	r0, [r2, #0]
 8003e6e:	6959      	ldr	r1, [r3, #20]
 8003e70:	0609      	lsls	r1, r1, #24
 8003e72:	d40b      	bmi.n	8003e8c <cs43l22_SetVolume+0x2f4>
 8003e74:	6811      	ldr	r1, [r2, #0]
 8003e76:	1a09      	subs	r1, r1, r0
 8003e78:	f5b1 5f80 	cmp.w	r1, #4096	; 0x1000
 8003e7c:	d9f7      	bls.n	8003e6e <cs43l22_SetVolume+0x2d6>
 8003e7e:	e6fe      	b.n	8003c7e <cs43l22_SetVolume+0xe6>
 8003e80:	51eb851f 	.word	0x51eb851f
 8003e84:	200008cc 	.word	0x200008cc
 8003e88:	2001f7dc 	.word	0x2001f7dc
 8003e8c:	2221      	movs	r2, #33	; 0x21
 8003e8e:	611a      	str	r2, [r3, #16]
 8003e90:	f44f 5180 	mov.w	r1, #4096	; 0x1000
 8003e94:	f10d 0007 	add.w	r0, sp, #7
 8003e98:	f7ff fc24 	bl	80036e4 <HAL_I2C_Mem_Write.part.0.constprop.0>
 8003e9c:	2800      	cmp	r0, #0
 8003e9e:	f43f af06 	beq.w	8003cae <cs43l22_SetVolume+0x116>
 8003ea2:	6823      	ldr	r3, [r4, #0]
 8003ea4:	e6f0      	b.n	8003c88 <cs43l22_SetVolume+0xf0>
 8003ea6:	6999      	ldr	r1, [r3, #24]
 8003ea8:	6810      	ldr	r0, [r2, #0]
 8003eaa:	6959      	ldr	r1, [r3, #20]
 8003eac:	060d      	lsls	r5, r1, #24
 8003eae:	d4ed      	bmi.n	8003e8c <cs43l22_SetVolume+0x2f4>
 8003eb0:	6811      	ldr	r1, [r2, #0]
 8003eb2:	1a09      	subs	r1, r1, r0
 8003eb4:	f5b1 5f80 	cmp.w	r1, #4096	; 0x1000
 8003eb8:	d9f7      	bls.n	8003eaa <cs43l22_SetVolume+0x312>
 8003eba:	e6e0      	b.n	8003c7e <cs43l22_SetVolume+0xe6>
 8003ebc:	6999      	ldr	r1, [r3, #24]
 8003ebe:	6810      	ldr	r0, [r2, #0]
 8003ec0:	6959      	ldr	r1, [r3, #20]
 8003ec2:	060e      	lsls	r6, r1, #24
 8003ec4:	d405      	bmi.n	8003ed2 <cs43l22_SetVolume+0x33a>
 8003ec6:	6811      	ldr	r1, [r2, #0]
 8003ec8:	1a09      	subs	r1, r1, r0
 8003eca:	f5b1 5f80 	cmp.w	r1, #4096	; 0x1000
 8003ece:	d9f7      	bls.n	8003ec0 <cs43l22_SetVolume+0x328>
 8003ed0:	e71b      	b.n	8003d0a <cs43l22_SetVolume+0x172>
 8003ed2:	2220      	movs	r2, #32
 8003ed4:	611a      	str	r2, [r3, #16]
 8003ed6:	f44f 5180 	mov.w	r1, #4096	; 0x1000
 8003eda:	f10d 0007 	add.w	r0, sp, #7
 8003ede:	f7ff fc01 	bl	80036e4 <HAL_I2C_Mem_Write.part.0.constprop.0>
 8003ee2:	6823      	ldr	r3, [r4, #0]
 8003ee4:	2800      	cmp	r0, #0
 8003ee6:	f43f af38 	beq.w	8003d5a <cs43l22_SetVolume+0x1c2>
 8003eea:	e723      	b.n	8003d34 <cs43l22_SetVolume+0x19c>
 8003eec:	6999      	ldr	r1, [r3, #24]
 8003eee:	6810      	ldr	r0, [r2, #0]
 8003ef0:	6959      	ldr	r1, [r3, #20]
 8003ef2:	0609      	lsls	r1, r1, #24
 8003ef4:	d405      	bmi.n	8003f02 <cs43l22_SetVolume+0x36a>
 8003ef6:	6811      	ldr	r1, [r2, #0]
 8003ef8:	1a09      	subs	r1, r1, r0
 8003efa:	f5b1 5f80 	cmp.w	r1, #4096	; 0x1000
 8003efe:	d9f7      	bls.n	8003ef0 <cs43l22_SetVolume+0x358>
 8003f00:	e680      	b.n	8003c04 <cs43l22_SetVolume+0x6c>
 8003f02:	2220      	movs	r2, #32
 8003f04:	611a      	str	r2, [r3, #16]
 8003f06:	f44f 5180 	mov.w	r1, #4096	; 0x1000
 8003f0a:	f10d 0007 	add.w	r0, sp, #7
 8003f0e:	f7ff fbe9 	bl	80036e4 <HAL_I2C_Mem_Write.part.0.constprop.0>
 8003f12:	6823      	ldr	r3, [r4, #0]
 8003f14:	2800      	cmp	r0, #0
 8003f16:	f43f ae8d 	beq.w	8003c34 <cs43l22_SetVolume+0x9c>
 8003f1a:	e678      	b.n	8003c0e <cs43l22_SetVolume+0x76>
 8003f1c:	681a      	ldr	r2, [r3, #0]
 8003f1e:	f442 7200 	orr.w	r2, r2, #512	; 0x200
 8003f22:	601a      	str	r2, [r3, #0]
 8003f24:	f46f 6080 	mvn.w	r0, #1024	; 0x400
 8003f28:	2104      	movs	r1, #4
 8003f2a:	2201      	movs	r2, #1
 8003f2c:	6158      	str	r0, [r3, #20]
 8003f2e:	f884 1036 	strb.w	r1, [r4, #54]	; 0x36
 8003f32:	f884 2035 	strb.w	r2, [r4, #53]	; 0x35
 8003f36:	f894 2036 	ldrb.w	r2, [r4, #54]	; 0x36
 8003f3a:	e666      	b.n	8003c0a <cs43l22_SetVolume+0x72>
 8003f3c:	f7fd fa44 	bl	80013c8 <I2Cx_Init.part.0>
 8003f40:	6823      	ldr	r3, [r4, #0]
 8003f42:	e677      	b.n	8003c34 <cs43l22_SetVolume+0x9c>
 8003f44:	f7fd fa40 	bl	80013c8 <I2Cx_Init.part.0>
 8003f48:	6823      	ldr	r3, [r4, #0]
 8003f4a:	e706      	b.n	8003d5a <cs43l22_SetVolume+0x1c2>
 8003f4c:	2564      	movs	r5, #100	; 0x64
 8003f4e:	e62f      	b.n	8003bb0 <cs43l22_SetVolume+0x18>

08003f50 <cs43l22_Init>:
cs43l22_Init():
 8003f50:	e92d 4178 	stmdb	sp!, {r3, r4, r5, r6, r8, lr}
 8003f54:	4e55      	ldr	r6, [pc, #340]	; (80040ac <cs43l22_Init+0x15c>)
 8003f56:	4b56      	ldr	r3, [pc, #344]	; (80040b0 <cs43l22_Init+0x160>)
 8003f58:	6b34      	ldr	r4, [r6, #48]	; 0x30
 8003f5a:	4d56      	ldr	r5, [pc, #344]	; (80040b4 <cs43l22_Init+0x164>)
 8003f5c:	f044 0408 	orr.w	r4, r4, #8
 8003f60:	6334      	str	r4, [r6, #48]	; 0x30
 8003f62:	681c      	ldr	r4, [r3, #0]
 8003f64:	f424 7440 	bic.w	r4, r4, #768	; 0x300
 8003f68:	f444 7480 	orr.w	r4, r4, #256	; 0x100
 8003f6c:	601c      	str	r4, [r3, #0]
 8003f6e:	689c      	ldr	r4, [r3, #8]
 8003f70:	f424 7440 	bic.w	r4, r4, #768	; 0x300
 8003f74:	f444 7400 	orr.w	r4, r4, #512	; 0x200
 8003f78:	609c      	str	r4, [r3, #8]
 8003f7a:	685c      	ldr	r4, [r3, #4]
 8003f7c:	f024 0410 	bic.w	r4, r4, #16
 8003f80:	605c      	str	r4, [r3, #4]
 8003f82:	68dc      	ldr	r4, [r3, #12]
 8003f84:	f424 7440 	bic.w	r4, r4, #768	; 0x300
 8003f88:	60dc      	str	r4, [r3, #12]
 8003f8a:	f895 3035 	ldrb.w	r3, [r5, #53]	; 0x35
 8003f8e:	4606      	mov	r6, r0
 8003f90:	460d      	mov	r5, r1
 8003f92:	4690      	mov	r8, r2
 8003f94:	2b00      	cmp	r3, #0
 8003f96:	f000 8085 	beq.w	80040a4 <cs43l22_Init+0x154>
 8003f9a:	4a45      	ldr	r2, [pc, #276]	; (80040b0 <cs43l22_Init+0x160>)
 8003f9c:	4b46      	ldr	r3, [pc, #280]	; (80040b8 <cs43l22_Init+0x168>)
 8003f9e:	2110      	movs	r1, #16
 8003fa0:	8351      	strh	r1, [r2, #26]
 8003fa2:	6819      	ldr	r1, [r3, #0]
 8003fa4:	681a      	ldr	r2, [r3, #0]
 8003fa6:	1a52      	subs	r2, r2, r1
 8003fa8:	2a05      	cmp	r2, #5
 8003faa:	d3fb      	bcc.n	8003fa4 <cs43l22_Init+0x54>
 8003fac:	4a40      	ldr	r2, [pc, #256]	; (80040b0 <cs43l22_Init+0x160>)
 8003fae:	2110      	movs	r1, #16
 8003fb0:	8311      	strh	r1, [r2, #24]
 8003fb2:	681a      	ldr	r2, [r3, #0]
 8003fb4:	6819      	ldr	r1, [r3, #0]
 8003fb6:	1a89      	subs	r1, r1, r2
 8003fb8:	2905      	cmp	r1, #5
 8003fba:	d3fb      	bcc.n	8003fb4 <cs43l22_Init+0x64>
 8003fbc:	b2f4      	uxtb	r4, r6
 8003fbe:	2102      	movs	r1, #2
 8003fc0:	4620      	mov	r0, r4
 8003fc2:	2201      	movs	r2, #1
 8003fc4:	f7ff fbdc 	bl	8003780 <I2Cx_WriteData>
 8003fc8:	1e69      	subs	r1, r5, #1
 8003fca:	2903      	cmp	r1, #3
 8003fcc:	d866      	bhi.n	800409c <cs43l22_Init+0x14c>
 8003fce:	e8df f001 	tbb	[pc, r1]
 8003fd2:	4961      	.short	0x4961
 8003fd4:	6502      	.short	0x6502
 8003fd6:	4b39      	ldr	r3, [pc, #228]	; (80040bc <cs43l22_Init+0x16c>)
 8003fd8:	22aa      	movs	r2, #170	; 0xaa
 8003fda:	701a      	strb	r2, [r3, #0]
 8003fdc:	781a      	ldrb	r2, [r3, #0]
 8003fde:	2104      	movs	r1, #4
 8003fe0:	4620      	mov	r0, r4
 8003fe2:	f7ff fbcd 	bl	8003780 <I2Cx_WriteData>
 8003fe6:	2281      	movs	r2, #129	; 0x81
 8003fe8:	2105      	movs	r1, #5
 8003fea:	4620      	mov	r0, r4
 8003fec:	f7ff fbc8 	bl	8003780 <I2Cx_WriteData>
 8003ff0:	2204      	movs	r2, #4
 8003ff2:	2106      	movs	r1, #6
 8003ff4:	4620      	mov	r0, r4
 8003ff6:	f7ff fbc3 	bl	8003780 <I2Cx_WriteData>
 8003ffa:	4641      	mov	r1, r8
 8003ffc:	4630      	mov	r0, r6
 8003ffe:	f7ff fdcb 	bl	8003b98 <cs43l22_SetVolume>
 8004002:	2206      	movs	r2, #6
 8004004:	210f      	movs	r1, #15
 8004006:	4605      	mov	r5, r0
 8004008:	4620      	mov	r0, r4
 800400a:	f7ff fbb9 	bl	8003780 <I2Cx_WriteData>
 800400e:	2200      	movs	r2, #0
 8004010:	2124      	movs	r1, #36	; 0x24
 8004012:	4620      	mov	r0, r4
 8004014:	f7ff fbb4 	bl	8003780 <I2Cx_WriteData>
 8004018:	2200      	movs	r2, #0
 800401a:	2125      	movs	r1, #37	; 0x25
 800401c:	4620      	mov	r0, r4
 800401e:	f7ff fbaf 	bl	8003780 <I2Cx_WriteData>
 8004022:	4620      	mov	r0, r4
 8004024:	2200      	movs	r2, #0
 8004026:	210a      	movs	r1, #10
 8004028:	f7ff fbaa 	bl	8003780 <I2Cx_WriteData>
 800402c:	4620      	mov	r0, r4
 800402e:	2204      	movs	r2, #4
 8004030:	210e      	movs	r1, #14
 8004032:	f7ff fba5 	bl	8003780 <I2Cx_WriteData>
 8004036:	4620      	mov	r0, r4
 8004038:	2200      	movs	r2, #0
 800403a:	2127      	movs	r1, #39	; 0x27
 800403c:	f7ff fba0 	bl	8003780 <I2Cx_WriteData>
 8004040:	4620      	mov	r0, r4
 8004042:	220f      	movs	r2, #15
 8004044:	211f      	movs	r1, #31
 8004046:	f7ff fb9b 	bl	8003780 <I2Cx_WriteData>
 800404a:	4620      	mov	r0, r4
 800404c:	220a      	movs	r2, #10
 800404e:	211a      	movs	r1, #26
 8004050:	f7ff fb96 	bl	8003780 <I2Cx_WriteData>
 8004054:	4620      	mov	r0, r4
 8004056:	220a      	movs	r2, #10
 8004058:	211b      	movs	r1, #27
 800405a:	f7ff fb91 	bl	8003780 <I2Cx_WriteData>
 800405e:	4628      	mov	r0, r5
 8004060:	e8bd 8178 	ldmia.w	sp!, {r3, r4, r5, r6, r8, pc}
 8004064:	4b15      	ldr	r3, [pc, #84]	; (80040bc <cs43l22_Init+0x16c>)
 8004066:	22af      	movs	r2, #175	; 0xaf
 8004068:	701a      	strb	r2, [r3, #0]
 800406a:	781a      	ldrb	r2, [r3, #0]
 800406c:	2104      	movs	r1, #4
 800406e:	4620      	mov	r0, r4
 8004070:	f7ff fb86 	bl	8003780 <I2Cx_WriteData>
 8004074:	2281      	movs	r2, #129	; 0x81
 8004076:	2105      	movs	r1, #5
 8004078:	4620      	mov	r0, r4
 800407a:	f7ff fb81 	bl	8003780 <I2Cx_WriteData>
 800407e:	2204      	movs	r2, #4
 8004080:	2106      	movs	r1, #6
 8004082:	4620      	mov	r0, r4
 8004084:	f7ff fb7c 	bl	8003780 <I2Cx_WriteData>
 8004088:	4641      	mov	r1, r8
 800408a:	4630      	mov	r0, r6
 800408c:	f7ff fd84 	bl	8003b98 <cs43l22_SetVolume>
 8004090:	4605      	mov	r5, r0
 8004092:	e7c6      	b.n	8004022 <cs43l22_Init+0xd2>
 8004094:	4b09      	ldr	r3, [pc, #36]	; (80040bc <cs43l22_Init+0x16c>)
 8004096:	22fa      	movs	r2, #250	; 0xfa
 8004098:	701a      	strb	r2, [r3, #0]
 800409a:	e79f      	b.n	8003fdc <cs43l22_Init+0x8c>
 800409c:	4b07      	ldr	r3, [pc, #28]	; (80040bc <cs43l22_Init+0x16c>)
 800409e:	2205      	movs	r2, #5
 80040a0:	701a      	strb	r2, [r3, #0]
 80040a2:	e79b      	b.n	8003fdc <cs43l22_Init+0x8c>
 80040a4:	f7fd f990 	bl	80013c8 <I2Cx_Init.part.0>
 80040a8:	e777      	b.n	8003f9a <cs43l22_Init+0x4a>
 80040aa:	bf00      	nop
 80040ac:	40023800 	.word	0x40023800
 80040b0:	40020c00 	.word	0x40020c00
 80040b4:	200008cc 	.word	0x200008cc
 80040b8:	2001f7dc 	.word	0x2001f7dc
 80040bc:	20000954 	.word	0x20000954

080040c0 <cs43l22_Stop>:
cs43l22_Stop():
 80040c0:	b570      	push	{r4, r5, r6, lr}
 80040c2:	4c82      	ldr	r4, [pc, #520]	; (80042cc <cs43l22_Stop+0x20c>)
 80040c4:	f894 3035 	ldrb.w	r3, [r4, #53]	; 0x35
 80040c8:	b082      	sub	sp, #8
 80040ca:	22ff      	movs	r2, #255	; 0xff
 80040cc:	2b01      	cmp	r3, #1
 80040ce:	b2c5      	uxtb	r5, r0
 80040d0:	f88d 2007 	strb.w	r2, [sp, #7]
 80040d4:	f040 80b1 	bne.w	800423a <cs43l22_Stop+0x17a>
 80040d8:	b2d9      	uxtb	r1, r3
 80040da:	6823      	ldr	r3, [r4, #0]
 80040dc:	699a      	ldr	r2, [r3, #24]
 80040de:	f012 0202 	ands.w	r2, r2, #2
 80040e2:	d12d      	bne.n	8004140 <cs43l22_Stop+0x80>
 80040e4:	f894 0034 	ldrb.w	r0, [r4, #52]	; 0x34
 80040e8:	2801      	cmp	r0, #1
 80040ea:	d029      	beq.n	8004140 <cs43l22_Stop+0x80>
 80040ec:	2032      	movs	r0, #50	; 0x32
 80040ee:	f884 0035 	strb.w	r0, [r4, #53]	; 0x35
 80040f2:	f884 1034 	strb.w	r1, [r4, #52]	; 0x34
 80040f6:	f884 2036 	strb.w	r2, [r4, #54]	; 0x36
 80040fa:	6819      	ldr	r1, [r3, #0]
 80040fc:	4a74      	ldr	r2, [pc, #464]	; (80042d0 <cs43l22_Stop+0x210>)
 80040fe:	f441 7180 	orr.w	r1, r1, #256	; 0x100
 8004102:	6019      	str	r1, [r3, #0]
 8004104:	6810      	ldr	r0, [r2, #0]
 8004106:	6959      	ldr	r1, [r3, #20]
 8004108:	07c9      	lsls	r1, r1, #31
 800410a:	d46e      	bmi.n	80041ea <cs43l22_Stop+0x12a>
 800410c:	6811      	ldr	r1, [r2, #0]
 800410e:	1a09      	subs	r1, r1, r0
 8004110:	f5b1 5f80 	cmp.w	r1, #4096	; 0x1000
 8004114:	d9f7      	bls.n	8004106 <cs43l22_Stop+0x46>
 8004116:	2201      	movs	r2, #1
 8004118:	f884 2035 	strb.w	r2, [r4, #53]	; 0x35
 800411c:	e00e      	b.n	800413c <cs43l22_Stop+0x7c>
 800411e:	681a      	ldr	r2, [r3, #0]
 8004120:	f46f 6680 	mvn.w	r6, #1024	; 0x400
 8004124:	f442 7200 	orr.w	r2, r2, #512	; 0x200
 8004128:	2004      	movs	r0, #4
 800412a:	2101      	movs	r1, #1
 800412c:	601a      	str	r2, [r3, #0]
 800412e:	615e      	str	r6, [r3, #20]
 8004130:	f884 0036 	strb.w	r0, [r4, #54]	; 0x36
 8004134:	f884 1035 	strb.w	r1, [r4, #53]	; 0x35
 8004138:	f894 2036 	ldrb.w	r2, [r4, #54]	; 0x36
 800413c:	f894 2036 	ldrb.w	r2, [r4, #54]	; 0x36
 8004140:	2202      	movs	r2, #2
 8004142:	f884 2035 	strb.w	r2, [r4, #53]	; 0x35
 8004146:	6819      	ldr	r1, [r3, #0]
 8004148:	2200      	movs	r2, #0
 800414a:	f021 0101 	bic.w	r1, r1, #1
 800414e:	6019      	str	r1, [r3, #0]
 8004150:	f884 2036 	strb.w	r2, [r4, #54]	; 0x36
 8004154:	f884 2035 	strb.w	r2, [r4, #53]	; 0x35
 8004158:	f894 1035 	ldrb.w	r1, [r4, #53]	; 0x35
 800415c:	f884 2034 	strb.w	r2, [r4, #52]	; 0x34
 8004160:	2900      	cmp	r1, #0
 8004162:	f000 80ab 	beq.w	80042bc <cs43l22_Stop+0x1fc>
 8004166:	f894 2035 	ldrb.w	r2, [r4, #53]	; 0x35
 800416a:	219f      	movs	r1, #159	; 0x9f
 800416c:	2a01      	cmp	r2, #1
 800416e:	b2d0      	uxtb	r0, r2
 8004170:	f88d 1007 	strb.w	r1, [sp, #7]
 8004174:	d121      	bne.n	80041ba <cs43l22_Stop+0xfa>
 8004176:	699a      	ldr	r2, [r3, #24]
 8004178:	f012 0202 	ands.w	r2, r2, #2
 800417c:	d11d      	bne.n	80041ba <cs43l22_Stop+0xfa>
 800417e:	f894 1034 	ldrb.w	r1, [r4, #52]	; 0x34
 8004182:	2901      	cmp	r1, #1
 8004184:	d019      	beq.n	80041ba <cs43l22_Stop+0xfa>
 8004186:	2132      	movs	r1, #50	; 0x32
 8004188:	f884 1035 	strb.w	r1, [r4, #53]	; 0x35
 800418c:	f884 0034 	strb.w	r0, [r4, #52]	; 0x34
 8004190:	f884 2036 	strb.w	r2, [r4, #54]	; 0x36
 8004194:	6819      	ldr	r1, [r3, #0]
 8004196:	4a4e      	ldr	r2, [pc, #312]	; (80042d0 <cs43l22_Stop+0x210>)
 8004198:	f441 7180 	orr.w	r1, r1, #256	; 0x100
 800419c:	6019      	str	r1, [r3, #0]
 800419e:	6810      	ldr	r0, [r2, #0]
 80041a0:	6959      	ldr	r1, [r3, #20]
 80041a2:	07ce      	lsls	r6, r1, #31
 80041a4:	d435      	bmi.n	8004212 <cs43l22_Stop+0x152>
 80041a6:	6811      	ldr	r1, [r2, #0]
 80041a8:	1a09      	subs	r1, r1, r0
 80041aa:	f5b1 5f80 	cmp.w	r1, #4096	; 0x1000
 80041ae:	d9f7      	bls.n	80041a0 <cs43l22_Stop+0xe0>
 80041b0:	2201      	movs	r2, #1
 80041b2:	f884 2035 	strb.w	r2, [r4, #53]	; 0x35
 80041b6:	f894 2036 	ldrb.w	r2, [r4, #54]	; 0x36
 80041ba:	2202      	movs	r2, #2
 80041bc:	f884 2035 	strb.w	r2, [r4, #53]	; 0x35
 80041c0:	6819      	ldr	r1, [r3, #0]
 80041c2:	2200      	movs	r2, #0
 80041c4:	f021 0101 	bic.w	r1, r1, #1
 80041c8:	6019      	str	r1, [r3, #0]
 80041ca:	f884 2036 	strb.w	r2, [r4, #54]	; 0x36
 80041ce:	f884 2035 	strb.w	r2, [r4, #53]	; 0x35
 80041d2:	f894 3035 	ldrb.w	r3, [r4, #53]	; 0x35
 80041d6:	f884 2034 	strb.w	r2, [r4, #52]	; 0x34
 80041da:	2b00      	cmp	r3, #0
 80041dc:	d072      	beq.n	80042c4 <cs43l22_Stop+0x204>
 80041de:	4b3d      	ldr	r3, [pc, #244]	; (80042d4 <cs43l22_Stop+0x214>)
 80041e0:	2201      	movs	r2, #1
 80041e2:	2000      	movs	r0, #0
 80041e4:	701a      	strb	r2, [r3, #0]
 80041e6:	b002      	add	sp, #8
 80041e8:	bd70      	pop	{r4, r5, r6, pc}
 80041ea:	f005 01fe 	and.w	r1, r5, #254	; 0xfe
 80041ee:	6119      	str	r1, [r3, #16]
 80041f0:	6810      	ldr	r0, [r2, #0]
 80041f2:	6959      	ldr	r1, [r3, #20]
 80041f4:	f011 0f02 	tst.w	r1, #2
 80041f8:	6959      	ldr	r1, [r3, #20]
 80041fa:	d137      	bne.n	800426c <cs43l22_Stop+0x1ac>
 80041fc:	054e      	lsls	r6, r1, #21
 80041fe:	d48e      	bmi.n	800411e <cs43l22_Stop+0x5e>
 8004200:	6811      	ldr	r1, [r2, #0]
 8004202:	1a09      	subs	r1, r1, r0
 8004204:	f5b1 5f80 	cmp.w	r1, #4096	; 0x1000
 8004208:	d9f3      	bls.n	80041f2 <cs43l22_Stop+0x132>
 800420a:	2201      	movs	r2, #1
 800420c:	f884 2035 	strb.w	r2, [r4, #53]	; 0x35
 8004210:	e792      	b.n	8004138 <cs43l22_Stop+0x78>
 8004212:	f005 05fe 	and.w	r5, r5, #254	; 0xfe
 8004216:	611d      	str	r5, [r3, #16]
 8004218:	6810      	ldr	r0, [r2, #0]
 800421a:	6959      	ldr	r1, [r3, #20]
 800421c:	f011 0f02 	tst.w	r1, #2
 8004220:	6959      	ldr	r1, [r3, #20]
 8004222:	d10c      	bne.n	800423e <cs43l22_Stop+0x17e>
 8004224:	054d      	lsls	r5, r1, #21
 8004226:	d439      	bmi.n	800429c <cs43l22_Stop+0x1dc>
 8004228:	6811      	ldr	r1, [r2, #0]
 800422a:	1a09      	subs	r1, r1, r0
 800422c:	f5b1 5f80 	cmp.w	r1, #4096	; 0x1000
 8004230:	d9f3      	bls.n	800421a <cs43l22_Stop+0x15a>
 8004232:	2201      	movs	r2, #1
 8004234:	f884 2035 	strb.w	r2, [r4, #53]	; 0x35
 8004238:	e03d      	b.n	80042b6 <cs43l22_Stop+0x1f6>
 800423a:	6823      	ldr	r3, [r4, #0]
 800423c:	e780      	b.n	8004140 <cs43l22_Stop+0x80>
 800423e:	6999      	ldr	r1, [r3, #24]
 8004240:	6810      	ldr	r0, [r2, #0]
 8004242:	6959      	ldr	r1, [r3, #20]
 8004244:	0609      	lsls	r1, r1, #24
 8004246:	d405      	bmi.n	8004254 <cs43l22_Stop+0x194>
 8004248:	6811      	ldr	r1, [r2, #0]
 800424a:	1a09      	subs	r1, r1, r0
 800424c:	f5b1 5f80 	cmp.w	r1, #4096	; 0x1000
 8004250:	d9f7      	bls.n	8004242 <cs43l22_Stop+0x182>
 8004252:	e7ad      	b.n	80041b0 <cs43l22_Stop+0xf0>
 8004254:	2202      	movs	r2, #2
 8004256:	611a      	str	r2, [r3, #16]
 8004258:	f44f 5180 	mov.w	r1, #4096	; 0x1000
 800425c:	f10d 0007 	add.w	r0, sp, #7
 8004260:	f7ff fa40 	bl	80036e4 <HAL_I2C_Mem_Write.part.0.constprop.0>
 8004264:	2800      	cmp	r0, #0
 8004266:	d0ba      	beq.n	80041de <cs43l22_Stop+0x11e>
 8004268:	6823      	ldr	r3, [r4, #0]
 800426a:	e7a6      	b.n	80041ba <cs43l22_Stop+0xfa>
 800426c:	6999      	ldr	r1, [r3, #24]
 800426e:	6810      	ldr	r0, [r2, #0]
 8004270:	6959      	ldr	r1, [r3, #20]
 8004272:	0609      	lsls	r1, r1, #24
 8004274:	d405      	bmi.n	8004282 <cs43l22_Stop+0x1c2>
 8004276:	6811      	ldr	r1, [r2, #0]
 8004278:	1a09      	subs	r1, r1, r0
 800427a:	f5b1 5f80 	cmp.w	r1, #4096	; 0x1000
 800427e:	d9f7      	bls.n	8004270 <cs43l22_Stop+0x1b0>
 8004280:	e749      	b.n	8004116 <cs43l22_Stop+0x56>
 8004282:	2204      	movs	r2, #4
 8004284:	611a      	str	r2, [r3, #16]
 8004286:	f44f 5180 	mov.w	r1, #4096	; 0x1000
 800428a:	f10d 0007 	add.w	r0, sp, #7
 800428e:	f7ff fa29 	bl	80036e4 <HAL_I2C_Mem_Write.part.0.constprop.0>
 8004292:	6823      	ldr	r3, [r4, #0]
 8004294:	2800      	cmp	r0, #0
 8004296:	f43f af66 	beq.w	8004166 <cs43l22_Stop+0xa6>
 800429a:	e751      	b.n	8004140 <cs43l22_Stop+0x80>
 800429c:	681a      	ldr	r2, [r3, #0]
 800429e:	f46f 6580 	mvn.w	r5, #1024	; 0x400
 80042a2:	f442 7200 	orr.w	r2, r2, #512	; 0x200
 80042a6:	2004      	movs	r0, #4
 80042a8:	2101      	movs	r1, #1
 80042aa:	601a      	str	r2, [r3, #0]
 80042ac:	615d      	str	r5, [r3, #20]
 80042ae:	f884 0036 	strb.w	r0, [r4, #54]	; 0x36
 80042b2:	f884 1035 	strb.w	r1, [r4, #53]	; 0x35
 80042b6:	f894 2036 	ldrb.w	r2, [r4, #54]	; 0x36
 80042ba:	e77c      	b.n	80041b6 <cs43l22_Stop+0xf6>
 80042bc:	f7fd f884 	bl	80013c8 <I2Cx_Init.part.0>
 80042c0:	6823      	ldr	r3, [r4, #0]
 80042c2:	e750      	b.n	8004166 <cs43l22_Stop+0xa6>
 80042c4:	f7fd f880 	bl	80013c8 <I2Cx_Init.part.0>
 80042c8:	e789      	b.n	80041de <cs43l22_Stop+0x11e>
 80042ca:	bf00      	nop
 80042cc:	200008cc 	.word	0x200008cc
 80042d0:	2001f7dc 	.word	0x2001f7dc
 80042d4:	20000001 	.word	0x20000001

080042d8 <cs43l22_Resume>:
cs43l22_Resume():
 80042d8:	b570      	push	{r4, r5, r6, lr}
 80042da:	b082      	sub	sp, #8
 80042dc:	2300      	movs	r3, #0
 80042de:	4eb1      	ldr	r6, [pc, #708]	; (80045a4 <cs43l22_Resume+0x2cc>)
 80042e0:	4cb1      	ldr	r4, [pc, #708]	; (80045a8 <cs43l22_Resume+0x2d0>)
 80042e2:	9301      	str	r3, [sp, #4]
 80042e4:	7832      	ldrb	r2, [r6, #0]
 80042e6:	f894 3035 	ldrb.w	r3, [r4, #53]	; 0x35
 80042ea:	f88d 2003 	strb.w	r2, [sp, #3]
 80042ee:	2b01      	cmp	r3, #1
 80042f0:	b2c5      	uxtb	r5, r0
 80042f2:	f040 80f9 	bne.w	80044e8 <cs43l22_Resume+0x210>
 80042f6:	6822      	ldr	r2, [r4, #0]
 80042f8:	b2d9      	uxtb	r1, r3
 80042fa:	6993      	ldr	r3, [r2, #24]
 80042fc:	f013 0302 	ands.w	r3, r3, #2
 8004300:	d12e      	bne.n	8004360 <cs43l22_Resume+0x88>
 8004302:	f894 0034 	ldrb.w	r0, [r4, #52]	; 0x34
 8004306:	2801      	cmp	r0, #1
 8004308:	d02a      	beq.n	8004360 <cs43l22_Resume+0x88>
 800430a:	2032      	movs	r0, #50	; 0x32
 800430c:	f884 0035 	strb.w	r0, [r4, #53]	; 0x35
 8004310:	f884 1034 	strb.w	r1, [r4, #52]	; 0x34
 8004314:	f884 3036 	strb.w	r3, [r4, #54]	; 0x36
 8004318:	6813      	ldr	r3, [r2, #0]
 800431a:	49a4      	ldr	r1, [pc, #656]	; (80045ac <cs43l22_Resume+0x2d4>)
 800431c:	f443 7380 	orr.w	r3, r3, #256	; 0x100
 8004320:	6013      	str	r3, [r2, #0]
 8004322:	6808      	ldr	r0, [r1, #0]
 8004324:	6953      	ldr	r3, [r2, #20]
 8004326:	07db      	lsls	r3, r3, #31
 8004328:	f100 80b5 	bmi.w	8004496 <cs43l22_Resume+0x1be>
 800432c:	680b      	ldr	r3, [r1, #0]
 800432e:	1a1b      	subs	r3, r3, r0
 8004330:	f5b3 5f80 	cmp.w	r3, #4096	; 0x1000
 8004334:	d9f6      	bls.n	8004324 <cs43l22_Resume+0x4c>
 8004336:	2301      	movs	r3, #1
 8004338:	f884 3035 	strb.w	r3, [r4, #53]	; 0x35
 800433c:	e00e      	b.n	800435c <cs43l22_Resume+0x84>
 800433e:	6813      	ldr	r3, [r2, #0]
 8004340:	f443 7300 	orr.w	r3, r3, #512	; 0x200
 8004344:	6013      	str	r3, [r2, #0]
 8004346:	f46f 6080 	mvn.w	r0, #1024	; 0x400
 800434a:	2104      	movs	r1, #4
 800434c:	2301      	movs	r3, #1
 800434e:	6150      	str	r0, [r2, #20]
 8004350:	f884 1036 	strb.w	r1, [r4, #54]	; 0x36
 8004354:	f884 3035 	strb.w	r3, [r4, #53]	; 0x35
 8004358:	f894 3036 	ldrb.w	r3, [r4, #54]	; 0x36
 800435c:	f894 3036 	ldrb.w	r3, [r4, #54]	; 0x36
 8004360:	2302      	movs	r3, #2
 8004362:	f884 3035 	strb.w	r3, [r4, #53]	; 0x35
 8004366:	6811      	ldr	r1, [r2, #0]
 8004368:	2300      	movs	r3, #0
 800436a:	f021 0101 	bic.w	r1, r1, #1
 800436e:	6011      	str	r1, [r2, #0]
 8004370:	f884 3036 	strb.w	r3, [r4, #54]	; 0x36
 8004374:	f884 3035 	strb.w	r3, [r4, #53]	; 0x35
 8004378:	f894 1035 	ldrb.w	r1, [r4, #53]	; 0x35
 800437c:	f884 3034 	strb.w	r3, [r4, #52]	; 0x34
 8004380:	2900      	cmp	r1, #0
 8004382:	f000 813e 	beq.w	8004602 <cs43l22_Resume+0x32a>
 8004386:	2300      	movs	r3, #0
 8004388:	9301      	str	r3, [sp, #4]
 800438a:	9b01      	ldr	r3, [sp, #4]
 800438c:	2bfe      	cmp	r3, #254	; 0xfe
 800438e:	d805      	bhi.n	800439c <cs43l22_Resume+0xc4>
 8004390:	9b01      	ldr	r3, [sp, #4]
 8004392:	3301      	adds	r3, #1
 8004394:	9301      	str	r3, [sp, #4]
 8004396:	9b01      	ldr	r3, [sp, #4]
 8004398:	2bfe      	cmp	r3, #254	; 0xfe
 800439a:	d9f9      	bls.n	8004390 <cs43l22_Resume+0xb8>
 800439c:	7831      	ldrb	r1, [r6, #0]
 800439e:	f894 3035 	ldrb.w	r3, [r4, #53]	; 0x35
 80043a2:	f88d 1003 	strb.w	r1, [sp, #3]
 80043a6:	2b01      	cmp	r3, #1
 80043a8:	b2d9      	uxtb	r1, r3
 80043aa:	d121      	bne.n	80043f0 <cs43l22_Resume+0x118>
 80043ac:	6993      	ldr	r3, [r2, #24]
 80043ae:	f013 0302 	ands.w	r3, r3, #2
 80043b2:	d11d      	bne.n	80043f0 <cs43l22_Resume+0x118>
 80043b4:	f894 0034 	ldrb.w	r0, [r4, #52]	; 0x34
 80043b8:	2801      	cmp	r0, #1
 80043ba:	d019      	beq.n	80043f0 <cs43l22_Resume+0x118>
 80043bc:	2032      	movs	r0, #50	; 0x32
 80043be:	f884 0035 	strb.w	r0, [r4, #53]	; 0x35
 80043c2:	f884 1034 	strb.w	r1, [r4, #52]	; 0x34
 80043c6:	f884 3036 	strb.w	r3, [r4, #54]	; 0x36
 80043ca:	6813      	ldr	r3, [r2, #0]
 80043cc:	4977      	ldr	r1, [pc, #476]	; (80045ac <cs43l22_Resume+0x2d4>)
 80043ce:	f443 7380 	orr.w	r3, r3, #256	; 0x100
 80043d2:	6013      	str	r3, [r2, #0]
 80043d4:	6808      	ldr	r0, [r1, #0]
 80043d6:	6953      	ldr	r3, [r2, #20]
 80043d8:	07db      	lsls	r3, r3, #31
 80043da:	d471      	bmi.n	80044c0 <cs43l22_Resume+0x1e8>
 80043dc:	680b      	ldr	r3, [r1, #0]
 80043de:	1a1b      	subs	r3, r3, r0
 80043e0:	f5b3 5f80 	cmp.w	r3, #4096	; 0x1000
 80043e4:	d9f7      	bls.n	80043d6 <cs43l22_Resume+0xfe>
 80043e6:	2301      	movs	r3, #1
 80043e8:	f884 3035 	strb.w	r3, [r4, #53]	; 0x35
 80043ec:	f894 3036 	ldrb.w	r3, [r4, #54]	; 0x36
 80043f0:	2302      	movs	r3, #2
 80043f2:	f884 3035 	strb.w	r3, [r4, #53]	; 0x35
 80043f6:	6811      	ldr	r1, [r2, #0]
 80043f8:	2300      	movs	r3, #0
 80043fa:	f021 0101 	bic.w	r1, r1, #1
 80043fe:	6011      	str	r1, [r2, #0]
 8004400:	f884 3036 	strb.w	r3, [r4, #54]	; 0x36
 8004404:	f884 3035 	strb.w	r3, [r4, #53]	; 0x35
 8004408:	f894 1035 	ldrb.w	r1, [r4, #53]	; 0x35
 800440c:	f884 3034 	strb.w	r3, [r4, #52]	; 0x34
 8004410:	2900      	cmp	r1, #0
 8004412:	f000 80ed 	beq.w	80045f0 <cs43l22_Resume+0x318>
 8004416:	f894 3035 	ldrb.w	r3, [r4, #53]	; 0x35
 800441a:	219e      	movs	r1, #158	; 0x9e
 800441c:	2b01      	cmp	r3, #1
 800441e:	b2d8      	uxtb	r0, r3
 8004420:	f88d 1003 	strb.w	r1, [sp, #3]
 8004424:	d121      	bne.n	800446a <cs43l22_Resume+0x192>
 8004426:	6993      	ldr	r3, [r2, #24]
 8004428:	f013 0302 	ands.w	r3, r3, #2
 800442c:	d11d      	bne.n	800446a <cs43l22_Resume+0x192>
 800442e:	f894 1034 	ldrb.w	r1, [r4, #52]	; 0x34
 8004432:	2901      	cmp	r1, #1
 8004434:	d019      	beq.n	800446a <cs43l22_Resume+0x192>
 8004436:	2132      	movs	r1, #50	; 0x32
 8004438:	f884 1035 	strb.w	r1, [r4, #53]	; 0x35
 800443c:	f884 0034 	strb.w	r0, [r4, #52]	; 0x34
 8004440:	f884 3036 	strb.w	r3, [r4, #54]	; 0x36
 8004444:	6813      	ldr	r3, [r2, #0]
 8004446:	4959      	ldr	r1, [pc, #356]	; (80045ac <cs43l22_Resume+0x2d4>)
 8004448:	f443 7380 	orr.w	r3, r3, #256	; 0x100
 800444c:	6013      	str	r3, [r2, #0]
 800444e:	6808      	ldr	r0, [r1, #0]
 8004450:	6953      	ldr	r3, [r2, #20]
 8004452:	07de      	lsls	r6, r3, #31
 8004454:	d44a      	bmi.n	80044ec <cs43l22_Resume+0x214>
 8004456:	680b      	ldr	r3, [r1, #0]
 8004458:	1a1b      	subs	r3, r3, r0
 800445a:	f5b3 5f80 	cmp.w	r3, #4096	; 0x1000
 800445e:	d9f7      	bls.n	8004450 <cs43l22_Resume+0x178>
 8004460:	2301      	movs	r3, #1
 8004462:	f884 3035 	strb.w	r3, [r4, #53]	; 0x35
 8004466:	f894 3036 	ldrb.w	r3, [r4, #54]	; 0x36
 800446a:	2302      	movs	r3, #2
 800446c:	f884 3035 	strb.w	r3, [r4, #53]	; 0x35
 8004470:	6811      	ldr	r1, [r2, #0]
 8004472:	2300      	movs	r3, #0
 8004474:	f021 0101 	bic.w	r1, r1, #1
 8004478:	6011      	str	r1, [r2, #0]
 800447a:	f884 3036 	strb.w	r3, [r4, #54]	; 0x36
 800447e:	f884 3035 	strb.w	r3, [r4, #53]	; 0x35
 8004482:	f894 2035 	ldrb.w	r2, [r4, #53]	; 0x35
 8004486:	f884 3034 	strb.w	r3, [r4, #52]	; 0x34
 800448a:	2a00      	cmp	r2, #0
 800448c:	f000 80b4 	beq.w	80045f8 <cs43l22_Resume+0x320>
 8004490:	2000      	movs	r0, #0
 8004492:	b002      	add	sp, #8
 8004494:	bd70      	pop	{r4, r5, r6, pc}
 8004496:	f005 03fe 	and.w	r3, r5, #254	; 0xfe
 800449a:	6113      	str	r3, [r2, #16]
 800449c:	6808      	ldr	r0, [r1, #0]
 800449e:	6953      	ldr	r3, [r2, #20]
 80044a0:	f013 0f02 	tst.w	r3, #2
 80044a4:	6953      	ldr	r3, [r2, #20]
 80044a6:	d164      	bne.n	8004572 <cs43l22_Resume+0x29a>
 80044a8:	055b      	lsls	r3, r3, #21
 80044aa:	f53f af48 	bmi.w	800433e <cs43l22_Resume+0x66>
 80044ae:	680b      	ldr	r3, [r1, #0]
 80044b0:	1a1b      	subs	r3, r3, r0
 80044b2:	f5b3 5f80 	cmp.w	r3, #4096	; 0x1000
 80044b6:	d9f2      	bls.n	800449e <cs43l22_Resume+0x1c6>
 80044b8:	2301      	movs	r3, #1
 80044ba:	f884 3035 	strb.w	r3, [r4, #53]	; 0x35
 80044be:	e74b      	b.n	8004358 <cs43l22_Resume+0x80>
 80044c0:	f005 03fe 	and.w	r3, r5, #254	; 0xfe
 80044c4:	6113      	str	r3, [r2, #16]
 80044c6:	6808      	ldr	r0, [r1, #0]
 80044c8:	6953      	ldr	r3, [r2, #20]
 80044ca:	f013 0f02 	tst.w	r3, #2
 80044ce:	6953      	ldr	r3, [r2, #20]
 80044d0:	d120      	bne.n	8004514 <cs43l22_Resume+0x23c>
 80044d2:	055e      	lsls	r6, r3, #21
 80044d4:	d46c      	bmi.n	80045b0 <cs43l22_Resume+0x2d8>
 80044d6:	680b      	ldr	r3, [r1, #0]
 80044d8:	1a1b      	subs	r3, r3, r0
 80044da:	f5b3 5f80 	cmp.w	r3, #4096	; 0x1000
 80044de:	d9f3      	bls.n	80044c8 <cs43l22_Resume+0x1f0>
 80044e0:	2301      	movs	r3, #1
 80044e2:	f884 3035 	strb.w	r3, [r4, #53]	; 0x35
 80044e6:	e070      	b.n	80045ca <cs43l22_Resume+0x2f2>
 80044e8:	6822      	ldr	r2, [r4, #0]
 80044ea:	e739      	b.n	8004360 <cs43l22_Resume+0x88>
 80044ec:	f005 05fe 	and.w	r5, r5, #254	; 0xfe
 80044f0:	6115      	str	r5, [r2, #16]
 80044f2:	6808      	ldr	r0, [r1, #0]
 80044f4:	6953      	ldr	r3, [r2, #20]
 80044f6:	f013 0f02 	tst.w	r3, #2
 80044fa:	6953      	ldr	r3, [r2, #20]
 80044fc:	d122      	bne.n	8004544 <cs43l22_Resume+0x26c>
 80044fe:	055d      	lsls	r5, r3, #21
 8004500:	d466      	bmi.n	80045d0 <cs43l22_Resume+0x2f8>
 8004502:	680b      	ldr	r3, [r1, #0]
 8004504:	1a1b      	subs	r3, r3, r0
 8004506:	f5b3 5f80 	cmp.w	r3, #4096	; 0x1000
 800450a:	d9f3      	bls.n	80044f4 <cs43l22_Resume+0x21c>
 800450c:	2301      	movs	r3, #1
 800450e:	f884 3035 	strb.w	r3, [r4, #53]	; 0x35
 8004512:	e06a      	b.n	80045ea <cs43l22_Resume+0x312>
 8004514:	6993      	ldr	r3, [r2, #24]
 8004516:	6808      	ldr	r0, [r1, #0]
 8004518:	6953      	ldr	r3, [r2, #20]
 800451a:	061b      	lsls	r3, r3, #24
 800451c:	d405      	bmi.n	800452a <cs43l22_Resume+0x252>
 800451e:	680b      	ldr	r3, [r1, #0]
 8004520:	1a1b      	subs	r3, r3, r0
 8004522:	f5b3 5f80 	cmp.w	r3, #4096	; 0x1000
 8004526:	d9f7      	bls.n	8004518 <cs43l22_Resume+0x240>
 8004528:	e75d      	b.n	80043e6 <cs43l22_Resume+0x10e>
 800452a:	2304      	movs	r3, #4
 800452c:	6113      	str	r3, [r2, #16]
 800452e:	f44f 5180 	mov.w	r1, #4096	; 0x1000
 8004532:	f10d 0003 	add.w	r0, sp, #3
 8004536:	f7ff f8d5 	bl	80036e4 <HAL_I2C_Mem_Write.part.0.constprop.0>
 800453a:	6822      	ldr	r2, [r4, #0]
 800453c:	2800      	cmp	r0, #0
 800453e:	f43f af6a 	beq.w	8004416 <cs43l22_Resume+0x13e>
 8004542:	e755      	b.n	80043f0 <cs43l22_Resume+0x118>
 8004544:	6993      	ldr	r3, [r2, #24]
 8004546:	6808      	ldr	r0, [r1, #0]
 8004548:	6953      	ldr	r3, [r2, #20]
 800454a:	061b      	lsls	r3, r3, #24
 800454c:	d405      	bmi.n	800455a <cs43l22_Resume+0x282>
 800454e:	680b      	ldr	r3, [r1, #0]
 8004550:	1a1b      	subs	r3, r3, r0
 8004552:	f5b3 5f80 	cmp.w	r3, #4096	; 0x1000
 8004556:	d9f7      	bls.n	8004548 <cs43l22_Resume+0x270>
 8004558:	e782      	b.n	8004460 <cs43l22_Resume+0x188>
 800455a:	2302      	movs	r3, #2
 800455c:	6113      	str	r3, [r2, #16]
 800455e:	f44f 5180 	mov.w	r1, #4096	; 0x1000
 8004562:	f10d 0003 	add.w	r0, sp, #3
 8004566:	f7ff f8bd 	bl	80036e4 <HAL_I2C_Mem_Write.part.0.constprop.0>
 800456a:	2800      	cmp	r0, #0
 800456c:	d090      	beq.n	8004490 <cs43l22_Resume+0x1b8>
 800456e:	6822      	ldr	r2, [r4, #0]
 8004570:	e77b      	b.n	800446a <cs43l22_Resume+0x192>
 8004572:	6993      	ldr	r3, [r2, #24]
 8004574:	6808      	ldr	r0, [r1, #0]
 8004576:	6953      	ldr	r3, [r2, #20]
 8004578:	061b      	lsls	r3, r3, #24
 800457a:	d405      	bmi.n	8004588 <cs43l22_Resume+0x2b0>
 800457c:	680b      	ldr	r3, [r1, #0]
 800457e:	1a1b      	subs	r3, r3, r0
 8004580:	f5b3 5f80 	cmp.w	r3, #4096	; 0x1000
 8004584:	d9f7      	bls.n	8004576 <cs43l22_Resume+0x29e>
 8004586:	e6d6      	b.n	8004336 <cs43l22_Resume+0x5e>
 8004588:	2304      	movs	r3, #4
 800458a:	6113      	str	r3, [r2, #16]
 800458c:	f44f 5180 	mov.w	r1, #4096	; 0x1000
 8004590:	f10d 0003 	add.w	r0, sp, #3
 8004594:	f7ff f8a6 	bl	80036e4 <HAL_I2C_Mem_Write.part.0.constprop.0>
 8004598:	6822      	ldr	r2, [r4, #0]
 800459a:	2800      	cmp	r0, #0
 800459c:	f43f aef3 	beq.w	8004386 <cs43l22_Resume+0xae>
 80045a0:	e6de      	b.n	8004360 <cs43l22_Resume+0x88>
 80045a2:	bf00      	nop
 80045a4:	20000954 	.word	0x20000954
 80045a8:	200008cc 	.word	0x200008cc
 80045ac:	2001f7dc 	.word	0x2001f7dc
 80045b0:	6813      	ldr	r3, [r2, #0]
 80045b2:	f46f 6680 	mvn.w	r6, #1024	; 0x400
 80045b6:	f443 7300 	orr.w	r3, r3, #512	; 0x200
 80045ba:	2004      	movs	r0, #4
 80045bc:	2101      	movs	r1, #1
 80045be:	6013      	str	r3, [r2, #0]
 80045c0:	6156      	str	r6, [r2, #20]
 80045c2:	f884 0036 	strb.w	r0, [r4, #54]	; 0x36
 80045c6:	f884 1035 	strb.w	r1, [r4, #53]	; 0x35
 80045ca:	f894 3036 	ldrb.w	r3, [r4, #54]	; 0x36
 80045ce:	e70d      	b.n	80043ec <cs43l22_Resume+0x114>
 80045d0:	6813      	ldr	r3, [r2, #0]
 80045d2:	f46f 6580 	mvn.w	r5, #1024	; 0x400
 80045d6:	f443 7300 	orr.w	r3, r3, #512	; 0x200
 80045da:	2004      	movs	r0, #4
 80045dc:	2101      	movs	r1, #1
 80045de:	6013      	str	r3, [r2, #0]
 80045e0:	6155      	str	r5, [r2, #20]
 80045e2:	f884 0036 	strb.w	r0, [r4, #54]	; 0x36
 80045e6:	f884 1035 	strb.w	r1, [r4, #53]	; 0x35
 80045ea:	f894 3036 	ldrb.w	r3, [r4, #54]	; 0x36
 80045ee:	e73a      	b.n	8004466 <cs43l22_Resume+0x18e>
 80045f0:	f7fc feea 	bl	80013c8 <I2Cx_Init.part.0>
 80045f4:	6822      	ldr	r2, [r4, #0]
 80045f6:	e70e      	b.n	8004416 <cs43l22_Resume+0x13e>
 80045f8:	f7fc fee6 	bl	80013c8 <I2Cx_Init.part.0>
 80045fc:	2000      	movs	r0, #0
 80045fe:	b002      	add	sp, #8
 8004600:	bd70      	pop	{r4, r5, r6, pc}
 8004602:	f7fc fee1 	bl	80013c8 <I2Cx_Init.part.0>
 8004606:	6822      	ldr	r2, [r4, #0]
 8004608:	e6bd      	b.n	8004386 <cs43l22_Resume+0xae>
 800460a:	bf00      	nop

0800460c <cs43l22_Pause>:
cs43l22_Pause():
 800460c:	b570      	push	{r4, r5, r6, lr}
 800460e:	4c81      	ldr	r4, [pc, #516]	; (8004814 <cs43l22_Pause+0x208>)
 8004610:	f894 3035 	ldrb.w	r3, [r4, #53]	; 0x35
 8004614:	b082      	sub	sp, #8
 8004616:	22ff      	movs	r2, #255	; 0xff
 8004618:	2b01      	cmp	r3, #1
 800461a:	b2c5      	uxtb	r5, r0
 800461c:	f88d 2007 	strb.w	r2, [sp, #7]
 8004620:	f040 80ae 	bne.w	8004780 <cs43l22_Pause+0x174>
 8004624:	b2d9      	uxtb	r1, r3
 8004626:	6823      	ldr	r3, [r4, #0]
 8004628:	699a      	ldr	r2, [r3, #24]
 800462a:	f012 0202 	ands.w	r2, r2, #2
 800462e:	d12d      	bne.n	800468c <cs43l22_Pause+0x80>
 8004630:	f894 0034 	ldrb.w	r0, [r4, #52]	; 0x34
 8004634:	2801      	cmp	r0, #1
 8004636:	d029      	beq.n	800468c <cs43l22_Pause+0x80>
 8004638:	2032      	movs	r0, #50	; 0x32
 800463a:	f884 0035 	strb.w	r0, [r4, #53]	; 0x35
 800463e:	f884 1034 	strb.w	r1, [r4, #52]	; 0x34
 8004642:	f884 2036 	strb.w	r2, [r4, #54]	; 0x36
 8004646:	6819      	ldr	r1, [r3, #0]
 8004648:	4a73      	ldr	r2, [pc, #460]	; (8004818 <cs43l22_Pause+0x20c>)
 800464a:	f441 7180 	orr.w	r1, r1, #256	; 0x100
 800464e:	6019      	str	r1, [r3, #0]
 8004650:	6810      	ldr	r0, [r2, #0]
 8004652:	6959      	ldr	r1, [r3, #20]
 8004654:	07c9      	lsls	r1, r1, #31
 8004656:	d46b      	bmi.n	8004730 <cs43l22_Pause+0x124>
 8004658:	6811      	ldr	r1, [r2, #0]
 800465a:	1a09      	subs	r1, r1, r0
 800465c:	f5b1 5f80 	cmp.w	r1, #4096	; 0x1000
 8004660:	d9f7      	bls.n	8004652 <cs43l22_Pause+0x46>
 8004662:	2201      	movs	r2, #1
 8004664:	f884 2035 	strb.w	r2, [r4, #53]	; 0x35
 8004668:	e00e      	b.n	8004688 <cs43l22_Pause+0x7c>
 800466a:	681a      	ldr	r2, [r3, #0]
 800466c:	f46f 6680 	mvn.w	r6, #1024	; 0x400
 8004670:	f442 7200 	orr.w	r2, r2, #512	; 0x200
 8004674:	2004      	movs	r0, #4
 8004676:	2101      	movs	r1, #1
 8004678:	601a      	str	r2, [r3, #0]
 800467a:	615e      	str	r6, [r3, #20]
 800467c:	f884 0036 	strb.w	r0, [r4, #54]	; 0x36
 8004680:	f884 1035 	strb.w	r1, [r4, #53]	; 0x35
 8004684:	f894 2036 	ldrb.w	r2, [r4, #54]	; 0x36
 8004688:	f894 2036 	ldrb.w	r2, [r4, #54]	; 0x36
 800468c:	2202      	movs	r2, #2
 800468e:	f884 2035 	strb.w	r2, [r4, #53]	; 0x35
 8004692:	6819      	ldr	r1, [r3, #0]
 8004694:	2200      	movs	r2, #0
 8004696:	f021 0101 	bic.w	r1, r1, #1
 800469a:	6019      	str	r1, [r3, #0]
 800469c:	f884 2036 	strb.w	r2, [r4, #54]	; 0x36
 80046a0:	f884 2035 	strb.w	r2, [r4, #53]	; 0x35
 80046a4:	f894 1035 	ldrb.w	r1, [r4, #53]	; 0x35
 80046a8:	f884 2034 	strb.w	r2, [r4, #52]	; 0x34
 80046ac:	2900      	cmp	r1, #0
 80046ae:	f000 80a8 	beq.w	8004802 <cs43l22_Pause+0x1f6>
 80046b2:	f894 2035 	ldrb.w	r2, [r4, #53]	; 0x35
 80046b6:	2101      	movs	r1, #1
 80046b8:	428a      	cmp	r2, r1
 80046ba:	b2d0      	uxtb	r0, r2
 80046bc:	f88d 1007 	strb.w	r1, [sp, #7]
 80046c0:	d121      	bne.n	8004706 <cs43l22_Pause+0xfa>
 80046c2:	699a      	ldr	r2, [r3, #24]
 80046c4:	f012 0202 	ands.w	r2, r2, #2
 80046c8:	d11d      	bne.n	8004706 <cs43l22_Pause+0xfa>
 80046ca:	f894 1034 	ldrb.w	r1, [r4, #52]	; 0x34
 80046ce:	2901      	cmp	r1, #1
 80046d0:	d019      	beq.n	8004706 <cs43l22_Pause+0xfa>
 80046d2:	2132      	movs	r1, #50	; 0x32
 80046d4:	f884 1035 	strb.w	r1, [r4, #53]	; 0x35
 80046d8:	f884 0034 	strb.w	r0, [r4, #52]	; 0x34
 80046dc:	f884 2036 	strb.w	r2, [r4, #54]	; 0x36
 80046e0:	6819      	ldr	r1, [r3, #0]
 80046e2:	4a4d      	ldr	r2, [pc, #308]	; (8004818 <cs43l22_Pause+0x20c>)
 80046e4:	f441 7180 	orr.w	r1, r1, #256	; 0x100
 80046e8:	6019      	str	r1, [r3, #0]
 80046ea:	6810      	ldr	r0, [r2, #0]
 80046ec:	6959      	ldr	r1, [r3, #20]
 80046ee:	07ce      	lsls	r6, r1, #31
 80046f0:	d432      	bmi.n	8004758 <cs43l22_Pause+0x14c>
 80046f2:	6811      	ldr	r1, [r2, #0]
 80046f4:	1a09      	subs	r1, r1, r0
 80046f6:	f5b1 5f80 	cmp.w	r1, #4096	; 0x1000
 80046fa:	d9f7      	bls.n	80046ec <cs43l22_Pause+0xe0>
 80046fc:	2201      	movs	r2, #1
 80046fe:	f884 2035 	strb.w	r2, [r4, #53]	; 0x35
 8004702:	f894 2036 	ldrb.w	r2, [r4, #54]	; 0x36
 8004706:	2202      	movs	r2, #2
 8004708:	f884 2035 	strb.w	r2, [r4, #53]	; 0x35
 800470c:	6819      	ldr	r1, [r3, #0]
 800470e:	2200      	movs	r2, #0
 8004710:	f021 0101 	bic.w	r1, r1, #1
 8004714:	6019      	str	r1, [r3, #0]
 8004716:	f884 2036 	strb.w	r2, [r4, #54]	; 0x36
 800471a:	f884 2035 	strb.w	r2, [r4, #53]	; 0x35
 800471e:	f894 3035 	ldrb.w	r3, [r4, #53]	; 0x35
 8004722:	f884 2034 	strb.w	r2, [r4, #52]	; 0x34
 8004726:	2b00      	cmp	r3, #0
 8004728:	d06f      	beq.n	800480a <cs43l22_Pause+0x1fe>
 800472a:	2000      	movs	r0, #0
 800472c:	b002      	add	sp, #8
 800472e:	bd70      	pop	{r4, r5, r6, pc}
 8004730:	f005 01fe 	and.w	r1, r5, #254	; 0xfe
 8004734:	6119      	str	r1, [r3, #16]
 8004736:	6810      	ldr	r0, [r2, #0]
 8004738:	6959      	ldr	r1, [r3, #20]
 800473a:	f011 0f02 	tst.w	r1, #2
 800473e:	6959      	ldr	r1, [r3, #20]
 8004740:	d137      	bne.n	80047b2 <cs43l22_Pause+0x1a6>
 8004742:	054e      	lsls	r6, r1, #21
 8004744:	d491      	bmi.n	800466a <cs43l22_Pause+0x5e>
 8004746:	6811      	ldr	r1, [r2, #0]
 8004748:	1a09      	subs	r1, r1, r0
 800474a:	f5b1 5f80 	cmp.w	r1, #4096	; 0x1000
 800474e:	d9f3      	bls.n	8004738 <cs43l22_Pause+0x12c>
 8004750:	2201      	movs	r2, #1
 8004752:	f884 2035 	strb.w	r2, [r4, #53]	; 0x35
 8004756:	e795      	b.n	8004684 <cs43l22_Pause+0x78>
 8004758:	f005 05fe 	and.w	r5, r5, #254	; 0xfe
 800475c:	611d      	str	r5, [r3, #16]
 800475e:	6810      	ldr	r0, [r2, #0]
 8004760:	6959      	ldr	r1, [r3, #20]
 8004762:	f011 0f02 	tst.w	r1, #2
 8004766:	6959      	ldr	r1, [r3, #20]
 8004768:	d10c      	bne.n	8004784 <cs43l22_Pause+0x178>
 800476a:	054d      	lsls	r5, r1, #21
 800476c:	d439      	bmi.n	80047e2 <cs43l22_Pause+0x1d6>
 800476e:	6811      	ldr	r1, [r2, #0]
 8004770:	1a09      	subs	r1, r1, r0
 8004772:	f5b1 5f80 	cmp.w	r1, #4096	; 0x1000
 8004776:	d9f3      	bls.n	8004760 <cs43l22_Pause+0x154>
 8004778:	2201      	movs	r2, #1
 800477a:	f884 2035 	strb.w	r2, [r4, #53]	; 0x35
 800477e:	e03d      	b.n	80047fc <cs43l22_Pause+0x1f0>
 8004780:	6823      	ldr	r3, [r4, #0]
 8004782:	e783      	b.n	800468c <cs43l22_Pause+0x80>
 8004784:	6999      	ldr	r1, [r3, #24]
 8004786:	6810      	ldr	r0, [r2, #0]
 8004788:	6959      	ldr	r1, [r3, #20]
 800478a:	0609      	lsls	r1, r1, #24
 800478c:	d405      	bmi.n	800479a <cs43l22_Pause+0x18e>
 800478e:	6811      	ldr	r1, [r2, #0]
 8004790:	1a09      	subs	r1, r1, r0
 8004792:	f5b1 5f80 	cmp.w	r1, #4096	; 0x1000
 8004796:	d9f7      	bls.n	8004788 <cs43l22_Pause+0x17c>
 8004798:	e7b0      	b.n	80046fc <cs43l22_Pause+0xf0>
 800479a:	2202      	movs	r2, #2
 800479c:	611a      	str	r2, [r3, #16]
 800479e:	f44f 5180 	mov.w	r1, #4096	; 0x1000
 80047a2:	f10d 0007 	add.w	r0, sp, #7
 80047a6:	f7fe ff9d 	bl	80036e4 <HAL_I2C_Mem_Write.part.0.constprop.0>
 80047aa:	2800      	cmp	r0, #0
 80047ac:	d0bd      	beq.n	800472a <cs43l22_Pause+0x11e>
 80047ae:	6823      	ldr	r3, [r4, #0]
 80047b0:	e7a9      	b.n	8004706 <cs43l22_Pause+0xfa>
 80047b2:	6999      	ldr	r1, [r3, #24]
 80047b4:	6810      	ldr	r0, [r2, #0]
 80047b6:	6959      	ldr	r1, [r3, #20]
 80047b8:	0609      	lsls	r1, r1, #24
 80047ba:	d405      	bmi.n	80047c8 <cs43l22_Pause+0x1bc>
 80047bc:	6811      	ldr	r1, [r2, #0]
 80047be:	1a09      	subs	r1, r1, r0
 80047c0:	f5b1 5f80 	cmp.w	r1, #4096	; 0x1000
 80047c4:	d9f7      	bls.n	80047b6 <cs43l22_Pause+0x1aa>
 80047c6:	e74c      	b.n	8004662 <cs43l22_Pause+0x56>
 80047c8:	2204      	movs	r2, #4
 80047ca:	611a      	str	r2, [r3, #16]
 80047cc:	f44f 5180 	mov.w	r1, #4096	; 0x1000
 80047d0:	f10d 0007 	add.w	r0, sp, #7
 80047d4:	f7fe ff86 	bl	80036e4 <HAL_I2C_Mem_Write.part.0.constprop.0>
 80047d8:	6823      	ldr	r3, [r4, #0]
 80047da:	2800      	cmp	r0, #0
 80047dc:	f43f af69 	beq.w	80046b2 <cs43l22_Pause+0xa6>
 80047e0:	e754      	b.n	800468c <cs43l22_Pause+0x80>
 80047e2:	681a      	ldr	r2, [r3, #0]
 80047e4:	f46f 6580 	mvn.w	r5, #1024	; 0x400
 80047e8:	f442 7200 	orr.w	r2, r2, #512	; 0x200
 80047ec:	2004      	movs	r0, #4
 80047ee:	2101      	movs	r1, #1
 80047f0:	601a      	str	r2, [r3, #0]
 80047f2:	615d      	str	r5, [r3, #20]
 80047f4:	f884 0036 	strb.w	r0, [r4, #54]	; 0x36
 80047f8:	f884 1035 	strb.w	r1, [r4, #53]	; 0x35
 80047fc:	f894 2036 	ldrb.w	r2, [r4, #54]	; 0x36
 8004800:	e77f      	b.n	8004702 <cs43l22_Pause+0xf6>
 8004802:	f7fc fde1 	bl	80013c8 <I2Cx_Init.part.0>
 8004806:	6823      	ldr	r3, [r4, #0]
 8004808:	e753      	b.n	80046b2 <cs43l22_Pause+0xa6>
 800480a:	f7fc fddd 	bl	80013c8 <I2Cx_Init.part.0>
 800480e:	2000      	movs	r0, #0
 8004810:	b002      	add	sp, #8
 8004812:	bd70      	pop	{r4, r5, r6, pc}
 8004814:	200008cc 	.word	0x200008cc
 8004818:	2001f7dc 	.word	0x2001f7dc

0800481c <cs43l22_Play>:
cs43l22_Play():
 800481c:	b570      	push	{r4, r5, r6, lr}
 800481e:	4e83      	ldr	r6, [pc, #524]	; (8004a2c <cs43l22_Play+0x210>)
 8004820:	7833      	ldrb	r3, [r6, #0]
 8004822:	2b01      	cmp	r3, #1
 8004824:	b082      	sub	sp, #8
 8004826:	d002      	beq.n	800482e <cs43l22_Play+0x12>
 8004828:	2000      	movs	r0, #0
 800482a:	b002      	add	sp, #8
 800482c:	bd70      	pop	{r4, r5, r6, pc}
 800482e:	4b80      	ldr	r3, [pc, #512]	; (8004a30 <cs43l22_Play+0x214>)
 8004830:	4d80      	ldr	r5, [pc, #512]	; (8004a34 <cs43l22_Play+0x218>)
 8004832:	781a      	ldrb	r2, [r3, #0]
 8004834:	f895 3035 	ldrb.w	r3, [r5, #53]	; 0x35
 8004838:	f88d 2007 	strb.w	r2, [sp, #7]
 800483c:	2b01      	cmp	r3, #1
 800483e:	b2d9      	uxtb	r1, r3
 8004840:	b2c4      	uxtb	r4, r0
 8004842:	682b      	ldr	r3, [r5, #0]
 8004844:	d121      	bne.n	800488a <cs43l22_Play+0x6e>
 8004846:	699a      	ldr	r2, [r3, #24]
 8004848:	f012 0202 	ands.w	r2, r2, #2
 800484c:	d11d      	bne.n	800488a <cs43l22_Play+0x6e>
 800484e:	f895 0034 	ldrb.w	r0, [r5, #52]	; 0x34
 8004852:	2801      	cmp	r0, #1
 8004854:	d019      	beq.n	800488a <cs43l22_Play+0x6e>
 8004856:	2032      	movs	r0, #50	; 0x32
 8004858:	f885 0035 	strb.w	r0, [r5, #53]	; 0x35
 800485c:	f885 1034 	strb.w	r1, [r5, #52]	; 0x34
 8004860:	f885 2036 	strb.w	r2, [r5, #54]	; 0x36
 8004864:	681a      	ldr	r2, [r3, #0]
 8004866:	4974      	ldr	r1, [pc, #464]	; (8004a38 <cs43l22_Play+0x21c>)
 8004868:	f442 7280 	orr.w	r2, r2, #256	; 0x100
 800486c:	601a      	str	r2, [r3, #0]
 800486e:	6808      	ldr	r0, [r1, #0]
 8004870:	695a      	ldr	r2, [r3, #20]
 8004872:	07d2      	lsls	r2, r2, #31
 8004874:	d45b      	bmi.n	800492e <cs43l22_Play+0x112>
 8004876:	680a      	ldr	r2, [r1, #0]
 8004878:	1a12      	subs	r2, r2, r0
 800487a:	f5b2 5f80 	cmp.w	r2, #4096	; 0x1000
 800487e:	d9f7      	bls.n	8004870 <cs43l22_Play+0x54>
 8004880:	2201      	movs	r2, #1
 8004882:	f885 2035 	strb.w	r2, [r5, #53]	; 0x35
 8004886:	f895 2036 	ldrb.w	r2, [r5, #54]	; 0x36
 800488a:	2202      	movs	r2, #2
 800488c:	f885 2035 	strb.w	r2, [r5, #53]	; 0x35
 8004890:	6819      	ldr	r1, [r3, #0]
 8004892:	2200      	movs	r2, #0
 8004894:	f021 0101 	bic.w	r1, r1, #1
 8004898:	6019      	str	r1, [r3, #0]
 800489a:	f885 2036 	strb.w	r2, [r5, #54]	; 0x36
 800489e:	f885 2035 	strb.w	r2, [r5, #53]	; 0x35
 80048a2:	f895 1035 	ldrb.w	r1, [r5, #53]	; 0x35
 80048a6:	f885 2034 	strb.w	r2, [r5, #52]	; 0x34
 80048aa:	2900      	cmp	r1, #0
 80048ac:	d06e      	beq.n	800498c <cs43l22_Play+0x170>
 80048ae:	f895 2035 	ldrb.w	r2, [r5, #53]	; 0x35
 80048b2:	219e      	movs	r1, #158	; 0x9e
 80048b4:	2a01      	cmp	r2, #1
 80048b6:	b2d0      	uxtb	r0, r2
 80048b8:	f88d 1007 	strb.w	r1, [sp, #7]
 80048bc:	d121      	bne.n	8004902 <cs43l22_Play+0xe6>
 80048be:	699a      	ldr	r2, [r3, #24]
 80048c0:	f012 0202 	ands.w	r2, r2, #2
 80048c4:	d11d      	bne.n	8004902 <cs43l22_Play+0xe6>
 80048c6:	f895 1034 	ldrb.w	r1, [r5, #52]	; 0x34
 80048ca:	2901      	cmp	r1, #1
 80048cc:	d019      	beq.n	8004902 <cs43l22_Play+0xe6>
 80048ce:	2132      	movs	r1, #50	; 0x32
 80048d0:	f885 1035 	strb.w	r1, [r5, #53]	; 0x35
 80048d4:	f885 0034 	strb.w	r0, [r5, #52]	; 0x34
 80048d8:	f885 2036 	strb.w	r2, [r5, #54]	; 0x36
 80048dc:	681a      	ldr	r2, [r3, #0]
 80048de:	4956      	ldr	r1, [pc, #344]	; (8004a38 <cs43l22_Play+0x21c>)
 80048e0:	f442 7280 	orr.w	r2, r2, #256	; 0x100
 80048e4:	601a      	str	r2, [r3, #0]
 80048e6:	6808      	ldr	r0, [r1, #0]
 80048e8:	695a      	ldr	r2, [r3, #20]
 80048ea:	07d2      	lsls	r2, r2, #31
 80048ec:	d435      	bmi.n	800495a <cs43l22_Play+0x13e>
 80048ee:	680a      	ldr	r2, [r1, #0]
 80048f0:	1a12      	subs	r2, r2, r0
 80048f2:	f5b2 5f80 	cmp.w	r2, #4096	; 0x1000
 80048f6:	d9f7      	bls.n	80048e8 <cs43l22_Play+0xcc>
 80048f8:	2201      	movs	r2, #1
 80048fa:	f885 2035 	strb.w	r2, [r5, #53]	; 0x35
 80048fe:	f895 2036 	ldrb.w	r2, [r5, #54]	; 0x36
 8004902:	2202      	movs	r2, #2
 8004904:	f885 2035 	strb.w	r2, [r5, #53]	; 0x35
 8004908:	6819      	ldr	r1, [r3, #0]
 800490a:	2200      	movs	r2, #0
 800490c:	f021 0101 	bic.w	r1, r1, #1
 8004910:	6019      	str	r1, [r3, #0]
 8004912:	f885 2036 	strb.w	r2, [r5, #54]	; 0x36
 8004916:	f885 2035 	strb.w	r2, [r5, #53]	; 0x35
 800491a:	f895 3035 	ldrb.w	r3, [r5, #53]	; 0x35
 800491e:	f885 2034 	strb.w	r2, [r5, #52]	; 0x34
 8004922:	b383      	cbz	r3, 8004986 <cs43l22_Play+0x16a>
 8004924:	2300      	movs	r3, #0
 8004926:	2000      	movs	r0, #0
 8004928:	7033      	strb	r3, [r6, #0]
 800492a:	b002      	add	sp, #8
 800492c:	bd70      	pop	{r4, r5, r6, pc}
 800492e:	f004 02fe 	and.w	r2, r4, #254	; 0xfe
 8004932:	611a      	str	r2, [r3, #16]
 8004934:	6808      	ldr	r0, [r1, #0]
 8004936:	695a      	ldr	r2, [r3, #20]
 8004938:	f012 0f02 	tst.w	r2, #2
 800493c:	695a      	ldr	r2, [r3, #20]
 800493e:	d129      	bne.n	8004994 <cs43l22_Play+0x178>
 8004940:	0552      	lsls	r2, r2, #21
 8004942:	d456      	bmi.n	80049f2 <cs43l22_Play+0x1d6>
 8004944:	680a      	ldr	r2, [r1, #0]
 8004946:	1a12      	subs	r2, r2, r0
 8004948:	f5b2 5f80 	cmp.w	r2, #4096	; 0x1000
 800494c:	d9f3      	bls.n	8004936 <cs43l22_Play+0x11a>
 800494e:	2201      	movs	r2, #1
 8004950:	f885 2035 	strb.w	r2, [r5, #53]	; 0x35
 8004954:	f895 2036 	ldrb.w	r2, [r5, #54]	; 0x36
 8004958:	e795      	b.n	8004886 <cs43l22_Play+0x6a>
 800495a:	f004 04fe 	and.w	r4, r4, #254	; 0xfe
 800495e:	611c      	str	r4, [r3, #16]
 8004960:	6808      	ldr	r0, [r1, #0]
 8004962:	695a      	ldr	r2, [r3, #20]
 8004964:	f012 0f02 	tst.w	r2, #2
 8004968:	695a      	ldr	r2, [r3, #20]
 800496a:	d12b      	bne.n	80049c4 <cs43l22_Play+0x1a8>
 800496c:	0554      	lsls	r4, r2, #21
 800496e:	d44e      	bmi.n	8004a0e <cs43l22_Play+0x1f2>
 8004970:	680a      	ldr	r2, [r1, #0]
 8004972:	1a12      	subs	r2, r2, r0
 8004974:	f5b2 5f80 	cmp.w	r2, #4096	; 0x1000
 8004978:	d9f3      	bls.n	8004962 <cs43l22_Play+0x146>
 800497a:	2201      	movs	r2, #1
 800497c:	f885 2035 	strb.w	r2, [r5, #53]	; 0x35
 8004980:	f895 2036 	ldrb.w	r2, [r5, #54]	; 0x36
 8004984:	e7bb      	b.n	80048fe <cs43l22_Play+0xe2>
 8004986:	f7fc fd1f 	bl	80013c8 <I2Cx_Init.part.0>
 800498a:	e7cb      	b.n	8004924 <cs43l22_Play+0x108>
 800498c:	f7fc fd1c 	bl	80013c8 <I2Cx_Init.part.0>
 8004990:	682b      	ldr	r3, [r5, #0]
 8004992:	e78c      	b.n	80048ae <cs43l22_Play+0x92>
 8004994:	699a      	ldr	r2, [r3, #24]
 8004996:	6808      	ldr	r0, [r1, #0]
 8004998:	695a      	ldr	r2, [r3, #20]
 800499a:	0612      	lsls	r2, r2, #24
 800499c:	d405      	bmi.n	80049aa <cs43l22_Play+0x18e>
 800499e:	680a      	ldr	r2, [r1, #0]
 80049a0:	1a12      	subs	r2, r2, r0
 80049a2:	f5b2 5f80 	cmp.w	r2, #4096	; 0x1000
 80049a6:	d9f7      	bls.n	8004998 <cs43l22_Play+0x17c>
 80049a8:	e76a      	b.n	8004880 <cs43l22_Play+0x64>
 80049aa:	2204      	movs	r2, #4
 80049ac:	611a      	str	r2, [r3, #16]
 80049ae:	f44f 5180 	mov.w	r1, #4096	; 0x1000
 80049b2:	f10d 0007 	add.w	r0, sp, #7
 80049b6:	f7fe fe95 	bl	80036e4 <HAL_I2C_Mem_Write.part.0.constprop.0>
 80049ba:	682b      	ldr	r3, [r5, #0]
 80049bc:	2800      	cmp	r0, #0
 80049be:	f43f af76 	beq.w	80048ae <cs43l22_Play+0x92>
 80049c2:	e762      	b.n	800488a <cs43l22_Play+0x6e>
 80049c4:	699a      	ldr	r2, [r3, #24]
 80049c6:	6808      	ldr	r0, [r1, #0]
 80049c8:	695a      	ldr	r2, [r3, #20]
 80049ca:	0612      	lsls	r2, r2, #24
 80049cc:	d405      	bmi.n	80049da <cs43l22_Play+0x1be>
 80049ce:	680a      	ldr	r2, [r1, #0]
 80049d0:	1a12      	subs	r2, r2, r0
 80049d2:	f5b2 5f80 	cmp.w	r2, #4096	; 0x1000
 80049d6:	d9f7      	bls.n	80049c8 <cs43l22_Play+0x1ac>
 80049d8:	e78e      	b.n	80048f8 <cs43l22_Play+0xdc>
 80049da:	2202      	movs	r2, #2
 80049dc:	611a      	str	r2, [r3, #16]
 80049de:	f44f 5180 	mov.w	r1, #4096	; 0x1000
 80049e2:	f10d 0007 	add.w	r0, sp, #7
 80049e6:	f7fe fe7d 	bl	80036e4 <HAL_I2C_Mem_Write.part.0.constprop.0>
 80049ea:	2800      	cmp	r0, #0
 80049ec:	d09a      	beq.n	8004924 <cs43l22_Play+0x108>
 80049ee:	682b      	ldr	r3, [r5, #0]
 80049f0:	e787      	b.n	8004902 <cs43l22_Play+0xe6>
 80049f2:	681a      	ldr	r2, [r3, #0]
 80049f4:	f442 7200 	orr.w	r2, r2, #512	; 0x200
 80049f8:	601a      	str	r2, [r3, #0]
 80049fa:	f46f 6080 	mvn.w	r0, #1024	; 0x400
 80049fe:	2104      	movs	r1, #4
 8004a00:	2201      	movs	r2, #1
 8004a02:	6158      	str	r0, [r3, #20]
 8004a04:	f885 1036 	strb.w	r1, [r5, #54]	; 0x36
 8004a08:	f885 2035 	strb.w	r2, [r5, #53]	; 0x35
 8004a0c:	e7a2      	b.n	8004954 <cs43l22_Play+0x138>
 8004a0e:	681a      	ldr	r2, [r3, #0]
 8004a10:	f46f 6480 	mvn.w	r4, #1024	; 0x400
 8004a14:	f442 7200 	orr.w	r2, r2, #512	; 0x200
 8004a18:	2004      	movs	r0, #4
 8004a1a:	2101      	movs	r1, #1
 8004a1c:	601a      	str	r2, [r3, #0]
 8004a1e:	615c      	str	r4, [r3, #20]
 8004a20:	f885 0036 	strb.w	r0, [r5, #54]	; 0x36
 8004a24:	f885 1035 	strb.w	r1, [r5, #53]	; 0x35
 8004a28:	e7aa      	b.n	8004980 <cs43l22_Play+0x164>
 8004a2a:	bf00      	nop
 8004a2c:	20000001 	.word	0x20000001
 8004a30:	20000954 	.word	0x20000954
 8004a34:	200008cc 	.word	0x200008cc
 8004a38:	2001f7dc 	.word	0x2001f7dc

08004a3c <cs43l22_ReadID>:
cs43l22_ReadID():
 8004a3c:	4983      	ldr	r1, [pc, #524]	; (8004c4c <cs43l22_ReadID+0x210>)
 8004a3e:	4b84      	ldr	r3, [pc, #528]	; (8004c50 <cs43l22_ReadID+0x214>)
 8004a40:	6b0a      	ldr	r2, [r1, #48]	; 0x30
 8004a42:	f042 0208 	orr.w	r2, r2, #8
 8004a46:	b570      	push	{r4, r5, r6, lr}
 8004a48:	630a      	str	r2, [r1, #48]	; 0x30
 8004a4a:	681a      	ldr	r2, [r3, #0]
 8004a4c:	4c81      	ldr	r4, [pc, #516]	; (8004c54 <cs43l22_ReadID+0x218>)
 8004a4e:	f422 7240 	bic.w	r2, r2, #768	; 0x300
 8004a52:	f442 7280 	orr.w	r2, r2, #256	; 0x100
 8004a56:	601a      	str	r2, [r3, #0]
 8004a58:	689a      	ldr	r2, [r3, #8]
 8004a5a:	f422 7240 	bic.w	r2, r2, #768	; 0x300
 8004a5e:	f442 7200 	orr.w	r2, r2, #512	; 0x200
 8004a62:	609a      	str	r2, [r3, #8]
 8004a64:	685a      	ldr	r2, [r3, #4]
 8004a66:	f022 0210 	bic.w	r2, r2, #16
 8004a6a:	605a      	str	r2, [r3, #4]
 8004a6c:	68da      	ldr	r2, [r3, #12]
 8004a6e:	f422 7240 	bic.w	r2, r2, #768	; 0x300
 8004a72:	60da      	str	r2, [r3, #12]
 8004a74:	f894 3035 	ldrb.w	r3, [r4, #53]	; 0x35
 8004a78:	4606      	mov	r6, r0
 8004a7a:	2b00      	cmp	r3, #0
 8004a7c:	d066      	beq.n	8004b4c <cs43l22_ReadID+0x110>
 8004a7e:	4b74      	ldr	r3, [pc, #464]	; (8004c50 <cs43l22_ReadID+0x214>)
 8004a80:	4a75      	ldr	r2, [pc, #468]	; (8004c58 <cs43l22_ReadID+0x21c>)
 8004a82:	2110      	movs	r1, #16
 8004a84:	8359      	strh	r1, [r3, #26]
 8004a86:	6811      	ldr	r1, [r2, #0]
 8004a88:	6813      	ldr	r3, [r2, #0]
 8004a8a:	1a5b      	subs	r3, r3, r1
 8004a8c:	2b05      	cmp	r3, #5
 8004a8e:	d3fb      	bcc.n	8004a88 <cs43l22_ReadID+0x4c>
 8004a90:	4b6f      	ldr	r3, [pc, #444]	; (8004c50 <cs43l22_ReadID+0x214>)
 8004a92:	2110      	movs	r1, #16
 8004a94:	8319      	strh	r1, [r3, #24]
 8004a96:	6811      	ldr	r1, [r2, #0]
 8004a98:	6813      	ldr	r3, [r2, #0]
 8004a9a:	1a5b      	subs	r3, r3, r1
 8004a9c:	2b05      	cmp	r3, #5
 8004a9e:	d3fb      	bcc.n	8004a98 <cs43l22_ReadID+0x5c>
 8004aa0:	f894 3035 	ldrb.w	r3, [r4, #53]	; 0x35
 8004aa4:	2b01      	cmp	r3, #1
 8004aa6:	b2d9      	uxtb	r1, r3
 8004aa8:	6823      	ldr	r3, [r4, #0]
 8004aaa:	d138      	bne.n	8004b1e <cs43l22_ReadID+0xe2>
 8004aac:	699d      	ldr	r5, [r3, #24]
 8004aae:	f015 0502 	ands.w	r5, r5, #2
 8004ab2:	d134      	bne.n	8004b1e <cs43l22_ReadID+0xe2>
 8004ab4:	f894 0034 	ldrb.w	r0, [r4, #52]	; 0x34
 8004ab8:	2801      	cmp	r0, #1
 8004aba:	d01c      	beq.n	8004af6 <cs43l22_ReadID+0xba>
 8004abc:	2042      	movs	r0, #66	; 0x42
 8004abe:	f884 0035 	strb.w	r0, [r4, #53]	; 0x35
 8004ac2:	f884 1034 	strb.w	r1, [r4, #52]	; 0x34
 8004ac6:	f884 5036 	strb.w	r5, [r4, #54]	; 0x36
 8004aca:	6819      	ldr	r1, [r3, #0]
 8004acc:	f441 6180 	orr.w	r1, r1, #1024	; 0x400
 8004ad0:	6019      	str	r1, [r3, #0]
 8004ad2:	6819      	ldr	r1, [r3, #0]
 8004ad4:	f441 7180 	orr.w	r1, r1, #256	; 0x100
 8004ad8:	6019      	str	r1, [r3, #0]
 8004ada:	6810      	ldr	r0, [r2, #0]
 8004adc:	6959      	ldr	r1, [r3, #20]
 8004ade:	07c9      	lsls	r1, r1, #31
 8004ae0:	d41f      	bmi.n	8004b22 <cs43l22_ReadID+0xe6>
 8004ae2:	6811      	ldr	r1, [r2, #0]
 8004ae4:	1a09      	subs	r1, r1, r0
 8004ae6:	f5b1 5f80 	cmp.w	r1, #4096	; 0x1000
 8004aea:	d9f7      	bls.n	8004adc <cs43l22_ReadID+0xa0>
 8004aec:	2201      	movs	r2, #1
 8004aee:	f884 2035 	strb.w	r2, [r4, #53]	; 0x35
 8004af2:	f894 2036 	ldrb.w	r2, [r4, #54]	; 0x36
 8004af6:	2202      	movs	r2, #2
 8004af8:	f884 2035 	strb.w	r2, [r4, #53]	; 0x35
 8004afc:	6819      	ldr	r1, [r3, #0]
 8004afe:	2200      	movs	r2, #0
 8004b00:	f021 0101 	bic.w	r1, r1, #1
 8004b04:	6019      	str	r1, [r3, #0]
 8004b06:	f884 2036 	strb.w	r2, [r4, #54]	; 0x36
 8004b0a:	f884 2035 	strb.w	r2, [r4, #53]	; 0x35
 8004b0e:	f894 3035 	ldrb.w	r3, [r4, #53]	; 0x35
 8004b12:	f884 2034 	strb.w	r2, [r4, #52]	; 0x34
 8004b16:	2b00      	cmp	r3, #0
 8004b18:	d036      	beq.n	8004b88 <cs43l22_ReadID+0x14c>
 8004b1a:	4628      	mov	r0, r5
 8004b1c:	bd70      	pop	{r4, r5, r6, pc}
 8004b1e:	2500      	movs	r5, #0
 8004b20:	e7e9      	b.n	8004af6 <cs43l22_ReadID+0xba>
 8004b22:	f006 01fe 	and.w	r1, r6, #254	; 0xfe
 8004b26:	6119      	str	r1, [r3, #16]
 8004b28:	6810      	ldr	r0, [r2, #0]
 8004b2a:	b2f6      	uxtb	r6, r6
 8004b2c:	6959      	ldr	r1, [r3, #20]
 8004b2e:	f011 0f02 	tst.w	r1, #2
 8004b32:	6959      	ldr	r1, [r3, #20]
 8004b34:	d11d      	bne.n	8004b72 <cs43l22_ReadID+0x136>
 8004b36:	0549      	lsls	r1, r1, #21
 8004b38:	d40b      	bmi.n	8004b52 <cs43l22_ReadID+0x116>
 8004b3a:	6811      	ldr	r1, [r2, #0]
 8004b3c:	1a09      	subs	r1, r1, r0
 8004b3e:	f5b1 5f80 	cmp.w	r1, #4096	; 0x1000
 8004b42:	d9f3      	bls.n	8004b2c <cs43l22_ReadID+0xf0>
 8004b44:	2201      	movs	r2, #1
 8004b46:	f884 2035 	strb.w	r2, [r4, #53]	; 0x35
 8004b4a:	e00f      	b.n	8004b6c <cs43l22_ReadID+0x130>
 8004b4c:	f7fc fc3c 	bl	80013c8 <I2Cx_Init.part.0>
 8004b50:	e795      	b.n	8004a7e <cs43l22_ReadID+0x42>
 8004b52:	681a      	ldr	r2, [r3, #0]
 8004b54:	f46f 6680 	mvn.w	r6, #1024	; 0x400
 8004b58:	f442 7200 	orr.w	r2, r2, #512	; 0x200
 8004b5c:	2004      	movs	r0, #4
 8004b5e:	2101      	movs	r1, #1
 8004b60:	601a      	str	r2, [r3, #0]
 8004b62:	615e      	str	r6, [r3, #20]
 8004b64:	f884 0036 	strb.w	r0, [r4, #54]	; 0x36
 8004b68:	f884 1035 	strb.w	r1, [r4, #53]	; 0x35
 8004b6c:	f894 2036 	ldrb.w	r2, [r4, #54]	; 0x36
 8004b70:	e7bf      	b.n	8004af2 <cs43l22_ReadID+0xb6>
 8004b72:	6999      	ldr	r1, [r3, #24]
 8004b74:	6810      	ldr	r0, [r2, #0]
 8004b76:	6959      	ldr	r1, [r3, #20]
 8004b78:	0609      	lsls	r1, r1, #24
 8004b7a:	d409      	bmi.n	8004b90 <cs43l22_ReadID+0x154>
 8004b7c:	6811      	ldr	r1, [r2, #0]
 8004b7e:	1a09      	subs	r1, r1, r0
 8004b80:	f5b1 5f80 	cmp.w	r1, #4096	; 0x1000
 8004b84:	d9f7      	bls.n	8004b76 <cs43l22_ReadID+0x13a>
 8004b86:	e7b1      	b.n	8004aec <cs43l22_ReadID+0xb0>
 8004b88:	f7fc fc1e 	bl	80013c8 <I2Cx_Init.part.0>
 8004b8c:	4628      	mov	r0, r5
 8004b8e:	bd70      	pop	{r4, r5, r6, pc}
 8004b90:	2101      	movs	r1, #1
 8004b92:	6119      	str	r1, [r3, #16]
 8004b94:	6810      	ldr	r0, [r2, #0]
 8004b96:	6959      	ldr	r1, [r3, #20]
 8004b98:	0609      	lsls	r1, r1, #24
 8004b9a:	d405      	bmi.n	8004ba8 <cs43l22_ReadID+0x16c>
 8004b9c:	6811      	ldr	r1, [r2, #0]
 8004b9e:	1a09      	subs	r1, r1, r0
 8004ba0:	f5b1 5f80 	cmp.w	r1, #4096	; 0x1000
 8004ba4:	d9f7      	bls.n	8004b96 <cs43l22_ReadID+0x15a>
 8004ba6:	e7a1      	b.n	8004aec <cs43l22_ReadID+0xb0>
 8004ba8:	6819      	ldr	r1, [r3, #0]
 8004baa:	f441 7180 	orr.w	r1, r1, #256	; 0x100
 8004bae:	6019      	str	r1, [r3, #0]
 8004bb0:	6810      	ldr	r0, [r2, #0]
 8004bb2:	6959      	ldr	r1, [r3, #20]
 8004bb4:	07c9      	lsls	r1, r1, #31
 8004bb6:	d405      	bmi.n	8004bc4 <cs43l22_ReadID+0x188>
 8004bb8:	6811      	ldr	r1, [r2, #0]
 8004bba:	1a09      	subs	r1, r1, r0
 8004bbc:	f5b1 5f80 	cmp.w	r1, #4096	; 0x1000
 8004bc0:	d9f7      	bls.n	8004bb2 <cs43l22_ReadID+0x176>
 8004bc2:	e793      	b.n	8004aec <cs43l22_ReadID+0xb0>
 8004bc4:	f046 0601 	orr.w	r6, r6, #1
 8004bc8:	611e      	str	r6, [r3, #16]
 8004bca:	6810      	ldr	r0, [r2, #0]
 8004bcc:	6959      	ldr	r1, [r3, #20]
 8004bce:	078e      	lsls	r6, r1, #30
 8004bd0:	d408      	bmi.n	8004be4 <cs43l22_ReadID+0x1a8>
 8004bd2:	6959      	ldr	r1, [r3, #20]
 8004bd4:	0549      	lsls	r1, r1, #21
 8004bd6:	d4bc      	bmi.n	8004b52 <cs43l22_ReadID+0x116>
 8004bd8:	6811      	ldr	r1, [r2, #0]
 8004bda:	1a09      	subs	r1, r1, r0
 8004bdc:	f5b1 5f80 	cmp.w	r1, #4096	; 0x1000
 8004be0:	d9f4      	bls.n	8004bcc <cs43l22_ReadID+0x190>
 8004be2:	e7af      	b.n	8004b44 <cs43l22_ReadID+0x108>
 8004be4:	6819      	ldr	r1, [r3, #0]
 8004be6:	f421 6180 	bic.w	r1, r1, #1024	; 0x400
 8004bea:	6019      	str	r1, [r3, #0]
 8004bec:	6959      	ldr	r1, [r3, #20]
 8004bee:	6999      	ldr	r1, [r3, #24]
 8004bf0:	6819      	ldr	r1, [r3, #0]
 8004bf2:	f441 7100 	orr.w	r1, r1, #512	; 0x200
 8004bf6:	6019      	str	r1, [r3, #0]
 8004bf8:	6810      	ldr	r0, [r2, #0]
 8004bfa:	6959      	ldr	r1, [r3, #20]
 8004bfc:	064d      	lsls	r5, r1, #25
 8004bfe:	d409      	bmi.n	8004c14 <cs43l22_ReadID+0x1d8>
 8004c00:	6811      	ldr	r1, [r2, #0]
 8004c02:	1a09      	subs	r1, r1, r0
 8004c04:	f5b1 5f80 	cmp.w	r1, #4096	; 0x1000
 8004c08:	d9f7      	bls.n	8004bfa <cs43l22_ReadID+0x1be>
 8004c0a:	2201      	movs	r2, #1
 8004c0c:	f884 2035 	strb.w	r2, [r4, #53]	; 0x35
 8004c10:	2500      	movs	r5, #0
 8004c12:	e770      	b.n	8004af6 <cs43l22_ReadID+0xba>
 8004c14:	691d      	ldr	r5, [r3, #16]
 8004c16:	6819      	ldr	r1, [r3, #0]
 8004c18:	f421 6100 	bic.w	r1, r1, #2048	; 0x800
 8004c1c:	6019      	str	r1, [r3, #0]
 8004c1e:	6811      	ldr	r1, [r2, #0]
 8004c20:	6998      	ldr	r0, [r3, #24]
 8004c22:	0780      	lsls	r0, r0, #30
 8004c24:	d509      	bpl.n	8004c3a <cs43l22_ReadID+0x1fe>
 8004c26:	6810      	ldr	r0, [r2, #0]
 8004c28:	1a40      	subs	r0, r0, r1
 8004c2a:	f5b0 5f80 	cmp.w	r0, #4096	; 0x1000
 8004c2e:	d9f7      	bls.n	8004c20 <cs43l22_ReadID+0x1e4>
 8004c30:	2201      	movs	r2, #1
 8004c32:	b2ed      	uxtb	r5, r5
 8004c34:	f884 2035 	strb.w	r2, [r4, #53]	; 0x35
 8004c38:	e75d      	b.n	8004af6 <cs43l22_ReadID+0xba>
 8004c3a:	2201      	movs	r2, #1
 8004c3c:	2300      	movs	r3, #0
 8004c3e:	b2ed      	uxtb	r5, r5
 8004c40:	f884 2035 	strb.w	r2, [r4, #53]	; 0x35
 8004c44:	f884 3034 	strb.w	r3, [r4, #52]	; 0x34
 8004c48:	e767      	b.n	8004b1a <cs43l22_ReadID+0xde>
 8004c4a:	bf00      	nop
 8004c4c:	40023800 	.word	0x40023800
 8004c50:	40020c00 	.word	0x40020c00
 8004c54:	200008cc 	.word	0x200008cc
 8004c58:	2001f7dc 	.word	0x2001f7dc

08004c5c <drifter_nextSample>:
drifter_nextSample():
 8004c5c:	ed90 6a06 	vldr	s12, [r0, #24]
 8004c60:	edd0 6a09 	vldr	s13, [r0, #36]	; 0x24
 8004c64:	ed90 7a07 	vldr	s14, [r0, #28]
 8004c68:	edd0 7a02 	vldr	s15, [r0, #8]
 8004c6c:	6942      	ldr	r2, [r0, #20]
 8004c6e:	eeb8 0a46 	vcvt.f32.u32	s0, s12
 8004c72:	ee16 3a10 	vmov	r3, s12
 8004c76:	ee20 0a26 	vmul.f32	s0, s0, s13
 8004c7a:	3301      	adds	r3, #1
 8004c7c:	ee30 0a07 	vadd.f32	s0, s0, s14
 8004c80:	4293      	cmp	r3, r2
 8004c82:	ee20 0a27 	vmul.f32	s0, s0, s15
 8004c86:	6183      	str	r3, [r0, #24]
 8004c88:	ed80 0a0a 	vstr	s0, [r0, #40]	; 0x28
 8004c8c:	d200      	bcs.n	8004c90 <drifter_nextSample+0x34>
 8004c8e:	4770      	bx	lr
 8004c90:	b510      	push	{r4, lr}
 8004c92:	eddf 7a25 	vldr	s15, [pc, #148]	; 8004d28 <drifter_nextSample+0xcc>
 8004c96:	edd0 6a00 	vldr	s13, [r0]
 8004c9a:	ed90 7a01 	vldr	s14, [r0, #4]
 8004c9e:	6a03      	ldr	r3, [r0, #32]
 8004ca0:	ed2d 8b04 	vpush	{d8-d9}
 8004ca4:	eec7 8aa6 	vdiv.f32	s17, s15, s13
 8004ca8:	61c3      	str	r3, [r0, #28]
 8004caa:	2300      	movs	r3, #0
 8004cac:	6183      	str	r3, [r0, #24]
 8004cae:	4604      	mov	r4, r0
 8004cb0:	ee87 8a87 	vdiv.f32	s16, s15, s14
 8004cb4:	edc0 8a03 	vstr	s17, [r0, #12]
 8004cb8:	ed80 8a04 	vstr	s16, [r0, #16]
 8004cbc:	f009 ff4e 	bl	800eb5c <rand>
 8004cc0:	ee07 0a90 	vmov	s15, r0
 8004cc4:	ed9f 9a19 	vldr	s18, [pc, #100]	; 8004d2c <drifter_nextSample+0xd0>
 8004cc8:	eef8 7ae7 	vcvt.f32.s32	s15, s15
 8004ccc:	ee38 8a68 	vsub.f32	s16, s16, s17
 8004cd0:	ee67 7a89 	vmul.f32	s15, s15, s18
 8004cd4:	ee67 7a88 	vmul.f32	s15, s15, s16
 8004cd8:	ee77 7aa8 	vadd.f32	s15, s15, s17
 8004cdc:	eefc 7ae7 	vcvt.u32.f32	s15, s15
 8004ce0:	edc4 7a05 	vstr	s15, [r4, #20]
 8004ce4:	f009 ff3a 	bl	800eb5c <rand>
 8004ce8:	ee07 0a90 	vmov	s15, r0
 8004cec:	eef8 7ae7 	vcvt.f32.s32	s15, s15
 8004cf0:	eeb7 6a00 	vmov.f32	s12, #112	; 0x3f800000  1.0
 8004cf4:	ee67 7a89 	vmul.f32	s15, s15, s18
 8004cf8:	edd4 6a07 	vldr	s13, [r4, #28]
 8004cfc:	ed94 7a05 	vldr	s14, [r4, #20]
 8004d00:	ed94 0a0a 	vldr	s0, [r4, #40]	; 0x28
 8004d04:	ee77 7aa7 	vadd.f32	s15, s15, s15
 8004d08:	eeb8 7a47 	vcvt.f32.u32	s14, s14
 8004d0c:	ee77 7ac6 	vsub.f32	s15, s15, s12
 8004d10:	ecbd 8b04 	vpop	{d8-d9}
 8004d14:	ee77 6ae6 	vsub.f32	s13, s15, s13
 8004d18:	edc4 7a08 	vstr	s15, [r4, #32]
 8004d1c:	eec6 7a87 	vdiv.f32	s15, s13, s14
 8004d20:	edc4 7a09 	vstr	s15, [r4, #36]	; 0x24
 8004d24:	bd10      	pop	{r4, pc}
 8004d26:	bf00      	nop
 8004d28:	46ac4400 	.word	0x46ac4400
 8004d2c:	30000000 	.word	0x30000000

08004d30 <seq_sequence_new>:
seq_sequence_new():
 8004d30:	e92d 4f70 	stmdb	sp!, {r4, r5, r6, r8, r9, sl, fp, lr}
 8004d34:	f8df 81ec 	ldr.w	r8, [pc, #492]	; 8004f24 <seq_sequence_new+0x1f4>
 8004d38:	4d77      	ldr	r5, [pc, #476]	; (8004f18 <seq_sequence_new+0x1e8>)
 8004d3a:	ed2d 8b04 	vpush	{d8-d9}
 8004d3e:	eddf 8a77 	vldr	s17, [pc, #476]	; 8004f1c <seq_sequence_new+0x1ec>
 8004d42:	ed9f 9a77 	vldr	s18, [pc, #476]	; 8004f20 <seq_sequence_new+0x1f0>
 8004d46:	f108 0620 	add.w	r6, r8, #32
 8004d4a:	f108 0402 	add.w	r4, r8, #2
 8004d4e:	f8d4 9058 	ldr.w	r9, [r4, #88]	; 0x58
 8004d52:	f899 3000 	ldrb.w	r3, [r9]
 8004d56:	ee08 3a10 	vmov	s16, r3
 8004d5a:	f009 feff 	bl	800eb5c <rand>
 8004d5e:	ee07 0a90 	vmov	s15, r0
 8004d62:	eeb8 8a48 	vcvt.f32.u32	s16, s16
 8004d66:	eef8 7ae7 	vcvt.f32.s32	s15, s15
 8004d6a:	eeb7 0a00 	vmov.f32	s0, #112	; 0x3f800000  1.0
 8004d6e:	ee38 8a40 	vsub.f32	s16, s16, s0
 8004d72:	ee67 7aa8 	vmul.f32	s15, s15, s17
 8004d76:	ee67 7a88 	vmul.f32	s15, s15, s16
 8004d7a:	ee37 0a80 	vadd.f32	s0, s15, s0
 8004d7e:	f008 fbfb 	bl	800d578 <lrintf>
 8004d82:	f9b4 305c 	ldrsh.w	r3, [r4, #92]	; 0x5c
 8004d86:	f819 9000 	ldrb.w	r9, [r9, r0]
 8004d8a:	ee00 3a10 	vmov	s0, r3
 8004d8e:	eeb8 8ac0 	vcvt.f32.s32	s16, s0
 8004d92:	f009 fee3 	bl	800eb5c <rand>
 8004d96:	ee07 0a90 	vmov	s15, r0
 8004d9a:	eeb8 0ae7 	vcvt.f32.s32	s0, s15
 8004d9e:	ee20 0a28 	vmul.f32	s0, s0, s17
 8004da2:	ee20 0a08 	vmul.f32	s0, s0, s16
 8004da6:	ee30 0a09 	vadd.f32	s0, s0, s18
 8004daa:	f008 fbe5 	bl	800d578 <lrintf>
 8004dae:	f8b4 205e 	ldrh.w	r2, [r4, #94]	; 0x5e
 8004db2:	eb00 0040 	add.w	r0, r0, r0, lsl #1
 8004db6:	f1a2 0315 	sub.w	r3, r2, #21
 8004dba:	eb03 0380 	add.w	r3, r3, r0, lsl #2
 8004dbe:	444b      	add	r3, r9
 8004dc0:	fa0f fc83 	sxth.w	ip, r3
 8004dc4:	f1bc 0f6a 	cmp.w	ip, #106	; 0x6a
 8004dc8:	b29b      	uxth	r3, r3
 8004dca:	dd52      	ble.n	8004e72 <seq_sequence_new+0x142>
 8004dcc:	f1a3 026b 	sub.w	r2, r3, #107	; 0x6b
 8004dd0:	b292      	uxth	r2, r2
 8004dd2:	fba5 1a02 	umull	r1, sl, r5, r2
 8004dd6:	ea4f 0ada 	mov.w	sl, sl, lsr #3
 8004dda:	2a23      	cmp	r2, #35	; 0x23
 8004ddc:	f10a 0a01 	add.w	sl, sl, #1
 8004de0:	d92d      	bls.n	8004e3e <seq_sequence_new+0x10e>
 8004de2:	f1a3 0118 	sub.w	r1, r3, #24
 8004de6:	2200      	movs	r2, #0
 8004de8:	f361 020f 	bfi	r2, r1, #0, #16
 8004dec:	3b24      	subs	r3, #36	; 0x24
 8004dee:	f363 421f 	bfi	r2, r3, #16, #16
 8004df2:	ea4f 0b9a 	mov.w	fp, sl, lsr #2
 8004df6:	f04f 0e00 	mov.w	lr, #0
 8004dfa:	f1a2 090c 	sub.w	r9, r2, #12
 8004dfe:	f3c2 410f 	ubfx	r1, r2, #16, #16
 8004e02:	f1a2 0030 	sub.w	r0, r2, #48	; 0x30
 8004e06:	2300      	movs	r3, #0
 8004e08:	f342 420f 	sbfx	r2, r2, #16, #16
 8004e0c:	f10e 0e01 	add.w	lr, lr, #1
 8004e10:	390c      	subs	r1, #12
 8004e12:	f369 030f 	bfi	r3, r9, #0, #16
 8004e16:	b280      	uxth	r0, r0
 8004e18:	3a30      	subs	r2, #48	; 0x30
 8004e1a:	45f3      	cmp	fp, lr
 8004e1c:	f361 431f 	bfi	r3, r1, #16, #16
 8004e20:	ea40 4202 	orr.w	r2, r0, r2, lsl #16
 8004e24:	d1e9      	bne.n	8004dfa <seq_sequence_new+0xca>
 8004e26:	f02a 0203 	bic.w	r2, sl, #3
 8004e2a:	eba2 0182 	sub.w	r1, r2, r2, lsl #2
 8004e2e:	eb0c 0c81 	add.w	ip, ip, r1, lsl #2
 8004e32:	4552      	cmp	r2, sl
 8004e34:	ea4f 4323 	mov.w	r3, r3, asr #16
 8004e38:	fa0f fc8c 	sxth.w	ip, ip
 8004e3c:	d010      	beq.n	8004e60 <seq_sequence_new+0x130>
 8004e3e:	fa1f fc8c 	uxth.w	ip, ip
 8004e42:	f1ac 030c 	sub.w	r3, ip, #12
 8004e46:	b29a      	uxth	r2, r3
 8004e48:	2a6a      	cmp	r2, #106	; 0x6a
 8004e4a:	b21b      	sxth	r3, r3
 8004e4c:	d908      	bls.n	8004e60 <seq_sequence_new+0x130>
 8004e4e:	f1ac 0318 	sub.w	r3, ip, #24
 8004e52:	b29a      	uxth	r2, r3
 8004e54:	2a6a      	cmp	r2, #106	; 0x6a
 8004e56:	b21b      	sxth	r3, r3
 8004e58:	d902      	bls.n	8004e60 <seq_sequence_new+0x130>
 8004e5a:	f1ac 0324 	sub.w	r3, ip, #36	; 0x24
 8004e5e:	b21b      	sxth	r3, r3
 8004e60:	f828 3f02 	strh.w	r3, [r8, #2]!
 8004e64:	45b0      	cmp	r8, r6
 8004e66:	f47f af72 	bne.w	8004d4e <seq_sequence_new+0x1e>
 8004e6a:	ecbd 8b04 	vpop	{d8-d9}
 8004e6e:	e8bd 8f70 	ldmia.w	sp!, {r4, r5, r6, r8, r9, sl, fp, pc}
 8004e72:	f1bc 0f00 	cmp.w	ip, #0
 8004e76:	da4c      	bge.n	8004f12 <seq_sequence_new+0x1e2>
 8004e78:	ea6f 0903 	mvn.w	r9, r3
 8004e7c:	fa1f f989 	uxth.w	r9, r9
 8004e80:	fba5 2909 	umull	r2, r9, r5, r9
 8004e84:	f64f 72db 	movw	r2, #65499	; 0xffdb
 8004e88:	ea4f 09d9 	mov.w	r9, r9, lsr #3
 8004e8c:	4293      	cmp	r3, r2
 8004e8e:	f109 0901 	add.w	r9, r9, #1
 8004e92:	d82e      	bhi.n	8004ef2 <seq_sequence_new+0x1c2>
 8004e94:	f10c 0318 	add.w	r3, ip, #24
 8004e98:	2200      	movs	r2, #0
 8004e9a:	f363 020f 	bfi	r2, r3, #0, #16
 8004e9e:	f10c 0324 	add.w	r3, ip, #36	; 0x24
 8004ea2:	f363 421f 	bfi	r2, r3, #16, #16
 8004ea6:	ea4f 0b99 	mov.w	fp, r9, lsr #2
 8004eaa:	f04f 0e00 	mov.w	lr, #0
 8004eae:	f102 0a0c 	add.w	sl, r2, #12
 8004eb2:	f3c2 410f 	ubfx	r1, r2, #16, #16
 8004eb6:	f102 0030 	add.w	r0, r2, #48	; 0x30
 8004eba:	2300      	movs	r3, #0
 8004ebc:	f342 420f 	sbfx	r2, r2, #16, #16
 8004ec0:	f10e 0e01 	add.w	lr, lr, #1
 8004ec4:	310c      	adds	r1, #12
 8004ec6:	f36a 030f 	bfi	r3, sl, #0, #16
 8004eca:	b280      	uxth	r0, r0
 8004ecc:	3230      	adds	r2, #48	; 0x30
 8004ece:	45f3      	cmp	fp, lr
 8004ed0:	f361 431f 	bfi	r3, r1, #16, #16
 8004ed4:	ea40 4202 	orr.w	r2, r0, r2, lsl #16
 8004ed8:	d1e9      	bne.n	8004eae <seq_sequence_new+0x17e>
 8004eda:	f029 0203 	bic.w	r2, r9, #3
 8004ede:	eb02 0142 	add.w	r1, r2, r2, lsl #1
 8004ee2:	eb0c 0c81 	add.w	ip, ip, r1, lsl #2
 8004ee6:	4591      	cmp	r9, r2
 8004ee8:	ea4f 4323 	mov.w	r3, r3, asr #16
 8004eec:	fa0f fc8c 	sxth.w	ip, ip
 8004ef0:	d0b6      	beq.n	8004e60 <seq_sequence_new+0x130>
 8004ef2:	fa1f fc8c 	uxth.w	ip, ip
 8004ef6:	f10c 030c 	add.w	r3, ip, #12
 8004efa:	b21b      	sxth	r3, r3
 8004efc:	2b00      	cmp	r3, #0
 8004efe:	daaf      	bge.n	8004e60 <seq_sequence_new+0x130>
 8004f00:	f10c 0318 	add.w	r3, ip, #24
 8004f04:	b21b      	sxth	r3, r3
 8004f06:	2b00      	cmp	r3, #0
 8004f08:	daaa      	bge.n	8004e60 <seq_sequence_new+0x130>
 8004f0a:	f10c 0324 	add.w	r3, ip, #36	; 0x24
 8004f0e:	b21b      	sxth	r3, r3
 8004f10:	e7a6      	b.n	8004e60 <seq_sequence_new+0x130>
 8004f12:	4663      	mov	r3, ip
 8004f14:	e7a4      	b.n	8004e60 <seq_sequence_new+0x130>
 8004f16:	bf00      	nop
 8004f18:	aaaaaaab 	.word	0xaaaaaaab
 8004f1c:	30000000 	.word	0x30000000
 8004f20:	00000000 	.word	0x00000000
 8004f24:	0ffffffe 	.word	0x0ffffffe

08004f28 <delay_read>:
delay_read():
 8004f28:	b500      	push	{lr}
 8004f2a:	eef1 7a08 	vmov.f32	s15, #24	; 0x40c00000  6.0
 8004f2e:	ed2d 8b02 	vpush	{d8}
 8004f32:	eeb4 0ae7 	vcmpe.f32	s0, s15
 8004f36:	eef1 fa10 	vmrs	APSR_nzcv, fpscr
 8004f3a:	b083      	sub	sp, #12
 8004f3c:	d44e      	bmi.n	8004fdc <delay_read+0xb4>
 8004f3e:	ed9f 7a46 	vldr	s14, [pc, #280]	; 8005058 <delay_read+0x130>
 8004f42:	eeb4 0ac7 	vcmpe.f32	s0, s14
 8004f46:	eef1 fa10 	vmrs	APSR_nzcv, fpscr
 8004f4a:	eeb0 8a40 	vmov.f32	s16, s0
 8004f4e:	dd53      	ble.n	8004ff8 <delay_read+0xd0>
 8004f50:	eef0 6a67 	vmov.f32	s13, s15
 8004f54:	ed9f 5a41 	vldr	s10, [pc, #260]	; 800505c <delay_read+0x134>
 8004f58:	eddf 7a41 	vldr	s15, [pc, #260]	; 8005060 <delay_read+0x138>
 8004f5c:	ed9f 7a41 	vldr	s14, [pc, #260]	; 8005064 <delay_read+0x13c>
 8004f60:	ed9f 4a41 	vldr	s8, [pc, #260]	; 8005068 <delay_read+0x140>
 8004f64:	f240 5272 	movw	r2, #1394	; 0x572
 8004f68:	eef7 4a08 	vmov.f32	s9, #120	; 0x3fc00000  1.5
 8004f6c:	68c3      	ldr	r3, [r0, #12]
 8004f6e:	1a9b      	subs	r3, r3, r2
 8004f70:	bf48      	it	mi
 8004f72:	f503 63af 	addmi.w	r3, r3, #1400	; 0x578
 8004f76:	eb00 0283 	add.w	r2, r0, r3, lsl #2
 8004f7a:	ed92 0a04 	vldr	s0, [r2, #16]
 8004f7e:	1e5a      	subs	r2, r3, #1
 8004f80:	bf48      	it	mi
 8004f82:	f203 5277 	addwmi	r2, r3, #1399	; 0x577
 8004f86:	eb00 0382 	add.w	r3, r0, r2, lsl #2
 8004f8a:	edd3 5a04 	vldr	s11, [r3, #16]
 8004f8e:	1e53      	subs	r3, r2, #1
 8004f90:	bf48      	it	mi
 8004f92:	f202 5377 	addwmi	r3, r2, #1399	; 0x577
 8004f96:	eb00 0283 	add.w	r2, r0, r3, lsl #2
 8004f9a:	ed92 6a04 	vldr	s12, [r2, #16]
 8004f9e:	1e5a      	subs	r2, r3, #1
 8004fa0:	bf48      	it	mi
 8004fa2:	f203 5277 	addwmi	r2, r3, #1399	; 0x577
 8004fa6:	eb00 0082 	add.w	r0, r0, r2, lsl #2
 8004faa:	edd0 3a04 	vldr	s7, [r0, #16]
 8004fae:	ee26 6a24 	vmul.f32	s12, s12, s9
 8004fb2:	ee20 0a04 	vmul.f32	s0, s0, s8
 8004fb6:	ee25 7a87 	vmul.f32	s14, s11, s14
 8004fba:	ee67 7aa3 	vmul.f32	s15, s15, s7
 8004fbe:	ee30 0a07 	vadd.f32	s0, s0, s14
 8004fc2:	ee77 7a86 	vadd.f32	s15, s15, s12
 8004fc6:	ee20 0a26 	vmul.f32	s0, s0, s13
 8004fca:	ee67 7a85 	vmul.f32	s15, s15, s10
 8004fce:	ee37 0a80 	vadd.f32	s0, s15, s0
 8004fd2:	b003      	add	sp, #12
 8004fd4:	ecbd 8b02 	vpop	{d8}
 8004fd8:	f85d fb04 	ldr.w	pc, [sp], #4
 8004fdc:	eef0 6a67 	vmov.f32	s13, s15
 8004fe0:	ed9f 5a1e 	vldr	s10, [pc, #120]	; 800505c <delay_read+0x134>
 8004fe4:	eddf 7a1e 	vldr	s15, [pc, #120]	; 8005060 <delay_read+0x138>
 8004fe8:	ed9f 7a1e 	vldr	s14, [pc, #120]	; 8005064 <delay_read+0x13c>
 8004fec:	ed9f 4a1e 	vldr	s8, [pc, #120]	; 8005068 <delay_read+0x140>
 8004ff0:	2206      	movs	r2, #6
 8004ff2:	eef7 4a08 	vmov.f32	s9, #120	; 0x3fc00000  1.5
 8004ff6:	e7b9      	b.n	8004f6c <delay_read+0x44>
 8004ff8:	9001      	str	r0, [sp, #4]
 8004ffa:	f008 fa77 	bl	800d4ec <floorf>
 8004ffe:	eefd 7ac0 	vcvt.s32.f32	s15, s0
 8005002:	eeb0 6a08 	vmov.f32	s12, #8	; 0x40400000  3.0
 8005006:	ee17 2a90 	vmov	r2, s15
 800500a:	ee07 2a10 	vmov	s14, r2
 800500e:	eeb8 7ac7 	vcvt.f32.s32	s14, s14
 8005012:	eef0 7a00 	vmov.f32	s15, #0	; 0x40000000  2.0
 8005016:	ee38 8a47 	vsub.f32	s16, s16, s14
 800501a:	eeb7 5a00 	vmov.f32	s10, #112	; 0x3f800000  1.0
 800501e:	ee38 7a67 	vsub.f32	s14, s16, s15
 8005022:	ee38 6a46 	vsub.f32	s12, s16, s12
 8005026:	ee38 5a45 	vsub.f32	s10, s16, s10
 800502a:	eddf 7a0f 	vldr	s15, [pc, #60]	; 8005068 <delay_read+0x140>
 800502e:	ed9f 4a0f 	vldr	s8, [pc, #60]	; 800506c <delay_read+0x144>
 8005032:	9801      	ldr	r0, [sp, #4]
 8005034:	eefe 4a00 	vmov.f32	s9, #224	; 0xbf000000 -0.5
 8005038:	eef6 5a00 	vmov.f32	s11, #96	; 0x3f000000  0.5
 800503c:	ee67 6a06 	vmul.f32	s13, s14, s12
 8005040:	ee67 7a27 	vmul.f32	s15, s14, s15
 8005044:	ee25 4a04 	vmul.f32	s8, s10, s8
 8005048:	ee66 4a24 	vmul.f32	s9, s12, s9
 800504c:	ee28 5a05 	vmul.f32	s10, s16, s10
 8005050:	ee28 7a25 	vmul.f32	s14, s16, s11
 8005054:	e78a      	b.n	8004f6c <delay_read+0x44>
 8005056:	bf00      	nop
 8005058:	44ae4000 	.word	0x44ae4000
 800505c:	80000000 	.word	0x80000000
 8005060:	beaaaaab 	.word	0xbeaaaaab
 8005064:	00000000 	.word	0x00000000
 8005068:	3e2aaaab 	.word	0x3e2aaaab
 800506c:	be2aaaab 	.word	0xbe2aaaab

08005070 <mono_chorus_compute>:
mono_chorus_compute():
 8005070:	edd1 7a01 	vldr	s15, [r1, #4]
 8005074:	eddf 6a4c 	vldr	s13, [pc, #304]	; 80051a8 <mono_chorus_compute+0x138>
 8005078:	ed91 7a02 	vldr	s14, [r1, #8]
 800507c:	ee67 7aa6 	vmul.f32	s15, s15, s13
 8005080:	b570      	push	{r4, r5, r6, lr}
 8005082:	ee77 7a87 	vadd.f32	s15, s15, s14
 8005086:	f500 56af 	add.w	r6, r0, #5600	; 0x15e0
 800508a:	eef5 7ac0 	vcmpe.f32	s15, #0.0
 800508e:	3610      	adds	r6, #16
 8005090:	eef1 fa10 	vmrs	APSR_nzcv, fpscr
 8005094:	ed2d 8b04 	vpush	{d8-d9}
 8005098:	460d      	mov	r5, r1
 800509a:	edd6 8a00 	vldr	s17, [r6]
 800509e:	edc1 7a02 	vstr	s15, [r1, #8]
 80050a2:	4604      	mov	r4, r0
 80050a4:	eeb0 8a40 	vmov.f32	s16, s0
 80050a8:	d50a      	bpl.n	80050c0 <mono_chorus_compute+0x50>
 80050aa:	ed9f 7a40 	vldr	s14, [pc, #256]	; 80051ac <mono_chorus_compute+0x13c>
 80050ae:	ee77 7a87 	vadd.f32	s15, s15, s14
 80050b2:	eef5 7ac0 	vcmpe.f32	s15, #0.0
 80050b6:	eef1 fa10 	vmrs	APSR_nzcv, fpscr
 80050ba:	d4f8      	bmi.n	80050ae <mono_chorus_compute+0x3e>
 80050bc:	edc5 7a02 	vstr	s15, [r5, #8]
 80050c0:	ed9f 7a3a 	vldr	s14, [pc, #232]	; 80051ac <mono_chorus_compute+0x13c>
 80050c4:	eef4 7ac7 	vcmpe.f32	s15, s14
 80050c8:	eef1 fa10 	vmrs	APSR_nzcv, fpscr
 80050cc:	db08      	blt.n	80050e0 <mono_chorus_compute+0x70>
 80050ce:	ee77 7ac7 	vsub.f32	s15, s15, s14
 80050d2:	eef4 7ac7 	vcmpe.f32	s15, s14
 80050d6:	eef1 fa10 	vmrs	APSR_nzcv, fpscr
 80050da:	daf8      	bge.n	80050ce <mono_chorus_compute+0x5e>
 80050dc:	edc5 7a02 	vstr	s15, [r5, #8]
 80050e0:	ed9f 0a33 	vldr	s0, [pc, #204]	; 80051b0 <mono_chorus_compute+0x140>
 80050e4:	ee27 0a80 	vmul.f32	s0, s15, s0
 80050e8:	f008 fa46 	bl	800d578 <lrintf>
 80050ec:	4b31      	ldr	r3, [pc, #196]	; (80051b4 <mono_chorus_compute+0x144>)
 80050ee:	ed95 7a00 	vldr	s14, [r5]
 80050f2:	eb03 0080 	add.w	r0, r3, r0, lsl #2
 80050f6:	edd0 7a00 	vldr	s15, [r0]
 80050fa:	eef7 6a00 	vmov.f32	s13, #112	; 0x3f800000  1.0
 80050fe:	ee77 7aa6 	vadd.f32	s15, s15, s13
 8005102:	eeb1 9a08 	vmov.f32	s18, #24	; 0x40c00000  6.0
 8005106:	ee67 7a87 	vmul.f32	s15, s15, s14
 800510a:	4620      	mov	r0, r4
 800510c:	ee38 0aa7 	vadd.f32	s0, s17, s15
 8005110:	edc5 7a03 	vstr	s15, [r5, #12]
 8005114:	ee30 0a09 	vadd.f32	s0, s0, s18
 8005118:	f7ff ff06 	bl	8004f28 <delay_read>
 800511c:	f241 53f4 	movw	r3, #5620	; 0x15f4
 8005120:	eef0 8a40 	vmov.f32	s17, s0
 8005124:	56e3      	ldrsb	r3, [r4, r3]
 8005126:	2b01      	cmp	r3, #1
 8005128:	d037      	beq.n	800519a <mono_chorus_compute+0x12a>
 800512a:	ed96 0a00 	vldr	s0, [r6]
 800512e:	4620      	mov	r0, r4
 8005130:	ee30 0a09 	vadd.f32	s0, s0, s18
 8005134:	f7ff fef8 	bl	8004f28 <delay_read>
 8005138:	edd4 7a01 	vldr	s15, [r4, #4]
 800513c:	ee20 0a27 	vmul.f32	s0, s0, s15
 8005140:	ee70 7a08 	vadd.f32	s15, s0, s16
 8005144:	eeb7 7a00 	vmov.f32	s14, #112	; 0x3f800000  1.0
 8005148:	eef4 7ac7 	vcmpe.f32	s15, s14
 800514c:	eef1 fa10 	vmrs	APSR_nzcv, fpscr
 8005150:	dd19      	ble.n	8005186 <mono_chorus_compute+0x116>
 8005152:	eef0 7a47 	vmov.f32	s15, s14
 8005156:	ed94 0a00 	vldr	s0, [r4]
 800515a:	ed94 7a02 	vldr	s14, [r4, #8]
 800515e:	68e3      	ldr	r3, [r4, #12]
 8005160:	ee68 8a87 	vmul.f32	s17, s17, s14
 8005164:	ee27 0a80 	vmul.f32	s0, s15, s0
 8005168:	eb04 0283 	add.w	r2, r4, r3, lsl #2
 800516c:	ee30 0a28 	vadd.f32	s0, s0, s17
 8005170:	ecbd 8b04 	vpop	{d8-d9}
 8005174:	3301      	adds	r3, #1
 8005176:	f5b3 6faf 	cmp.w	r3, #1400	; 0x578
 800517a:	bfa8      	it	ge
 800517c:	2300      	movge	r3, #0
 800517e:	edc2 7a04 	vstr	s15, [r2, #16]
 8005182:	60e3      	str	r3, [r4, #12]
 8005184:	bd70      	pop	{r4, r5, r6, pc}
 8005186:	eebf 7a00 	vmov.f32	s14, #240	; 0xbf800000 -1.0
 800518a:	eef4 7a47 	vcmp.f32	s15, s14
 800518e:	eef1 fa10 	vmrs	APSR_nzcv, fpscr
 8005192:	bf48      	it	mi
 8005194:	eef0 7a47 	vmovmi.f32	s15, s14
 8005198:	e7dd      	b.n	8005156 <mono_chorus_compute+0xe6>
 800519a:	edd4 7a01 	vldr	s15, [r4, #4]
 800519e:	ee60 7a27 	vmul.f32	s15, s0, s15
 80051a2:	ee77 7a88 	vadd.f32	s15, s15, s16
 80051a6:	e7cd      	b.n	8005144 <mono_chorus_compute+0xd4>
 80051a8:	39156592 	.word	0x39156592
 80051ac:	40c90fdb 	.word	0x40c90fdb
 80051b0:	4322f983 	.word	0x4322f983
 80051b4:	0800f7a0 	.word	0x0800f7a0

080051b8 <USBH_Get_DevDesc.constprop.0>:
USBH_Get_DevDesc.constprop.0():
 80051b8:	e92d 4178 	stmdb	sp!, {r3, r4, r5, r6, r8, lr}
 80051bc:	4cce      	ldr	r4, [pc, #824]	; (80054f8 <USBH_Get_DevDesc.constprop.0+0x340>)
 80051be:	78a5      	ldrb	r5, [r4, #2]
 80051c0:	2d01      	cmp	r5, #1
 80051c2:	d027      	beq.n	8005214 <USBH_Get_DevDesc.constprop.0+0x5c>
 80051c4:	2d02      	cmp	r5, #2
 80051c6:	d121      	bne.n	800520c <USBH_Get_DevDesc.constprop.0+0x54>
 80051c8:	7e26      	ldrb	r6, [r4, #24]
 80051ca:	1e73      	subs	r3, r6, #1
 80051cc:	2b0a      	cmp	r3, #10
 80051ce:	d81d      	bhi.n	800520c <USBH_Get_DevDesc.constprop.0+0x54>
 80051d0:	e8df f013 	tbh	[pc, r3, lsl #1]
 80051d4:	0070004a 	.word	0x0070004a
 80051d8:	016b0082 	.word	0x016b0082
 80051dc:	017b0122 	.word	0x017b0122
 80051e0:	00d200ab 	.word	0x00d200ab
 80051e4:	000b00e5 	.word	0x000b00e5
 80051e8:	0030      	.short	0x0030
 80051ea:	7963      	ldrb	r3, [r4, #5]
 80051ec:	f8d4 2610 	ldr.w	r2, [r4, #1552]	; 0x610
 80051f0:	eb03 0383 	add.w	r3, r3, r3, lsl #2
 80051f4:	eb02 03c3 	add.w	r3, r2, r3, lsl #3
 80051f8:	f893 3054 	ldrb.w	r3, [r3, #84]	; 0x54
 80051fc:	2b01      	cmp	r3, #1
 80051fe:	f000 8181 	beq.w	8005504 <USBH_Get_DevDesc.constprop.0+0x34c>
 8005202:	2b02      	cmp	r3, #2
 8005204:	f000 81b2 	beq.w	800556c <USBH_Get_DevDesc.constprop.0+0x3b4>
 8005208:	2b04      	cmp	r3, #4
 800520a:	d061      	beq.n	80052d0 <USBH_Get_DevDesc.constprop.0+0x118>
 800520c:	2501      	movs	r5, #1
 800520e:	4628      	mov	r0, r5
 8005210:	e8bd 8178 	ldmia.w	sp!, {r3, r4, r5, r6, r8, pc}
 8005214:	b283      	uxth	r3, r0
 8005216:	4eb9      	ldr	r6, [pc, #740]	; (80054fc <USBH_Get_DevDesc.constprop.0+0x344>)
 8005218:	82e3      	strh	r3, [r4, #22]
 800521a:	2000      	movs	r0, #0
 800521c:	f104 011c 	add.w	r1, r4, #28
 8005220:	2202      	movs	r2, #2
 8005222:	82a0      	strh	r0, [r4, #20]
 8005224:	81a3      	strh	r3, [r4, #12]
 8005226:	7625      	strb	r5, [r4, #24]
 8005228:	6126      	str	r6, [r4, #16]
 800522a:	60a1      	str	r1, [r4, #8]
 800522c:	70a2      	strb	r2, [r4, #2]
 800522e:	4628      	mov	r0, r5
 8005230:	e8bd 8178 	ldmia.w	sp!, {r3, r4, r5, r6, r8, pc}
 8005234:	7e63      	ldrb	r3, [r4, #25]
 8005236:	3301      	adds	r3, #1
 8005238:	b2db      	uxtb	r3, r3
 800523a:	2b02      	cmp	r3, #2
 800523c:	7663      	strb	r3, [r4, #25]
 800523e:	f200 8199 	bhi.w	8005574 <USBH_Get_DevDesc.constprop.0+0x3bc>
 8005242:	f8d4 5610 	ldr.w	r5, [r4, #1552]	; 0x610
 8005246:	f895 3288 	ldrb.w	r3, [r5, #648]	; 0x288
 800524a:	2b01      	cmp	r3, #1
 800524c:	d008      	beq.n	8005260 <USBH_Get_DevDesc.constprop.0+0xa8>
 800524e:	2301      	movs	r3, #1
 8005250:	f885 3288 	strb.w	r3, [r5, #648]	; 0x288
 8005254:	6828      	ldr	r0, [r5, #0]
 8005256:	f7fb fad9 	bl	800080c <USB_StopHost>
 800525a:	2300      	movs	r3, #0
 800525c:	f885 3288 	strb.w	r3, [r5, #648]	; 0x288
 8005260:	2501      	movs	r5, #1
 8005262:	7625      	strb	r5, [r4, #24]
 8005264:	70a5      	strb	r5, [r4, #2]
 8005266:	e7d2      	b.n	800520e <USBH_Get_DevDesc.constprop.0+0x56>
 8005268:	7961      	ldrb	r1, [r4, #5]
 800526a:	f8d4 0610 	ldr.w	r0, [r4, #1552]	; 0x610
 800526e:	4da4      	ldr	r5, [pc, #656]	; (8005500 <USBH_Get_DevDesc.constprop.0+0x348>)
 8005270:	eb01 0381 	add.w	r3, r1, r1, lsl #2
 8005274:	eb00 03c3 	add.w	r3, r0, r3, lsl #3
 8005278:	2203      	movs	r2, #3
 800527a:	f883 203a 	strb.w	r2, [r3, #58]	; 0x3a
 800527e:	2228      	movs	r2, #40	; 0x28
 8005280:	f883 1031 	strb.w	r1, [r3, #49]	; 0x31
 8005284:	fb02 0101 	mla	r1, r2, r1, r0
 8005288:	2200      	movs	r2, #0
 800528a:	f883 2033 	strb.w	r2, [r3, #51]	; 0x33
 800528e:	f883 2037 	strb.w	r2, [r3, #55]	; 0x37
 8005292:	f883 2054 	strb.w	r2, [r3, #84]	; 0x54
 8005296:	f883 2055 	strb.w	r2, [r3, #85]	; 0x55
 800529a:	63dd      	str	r5, [r3, #60]	; 0x3c
 800529c:	2508      	movs	r5, #8
 800529e:	641d      	str	r5, [r3, #64]	; 0x40
 80052a0:	645a      	str	r2, [r3, #68]	; 0x44
 80052a2:	3130      	adds	r1, #48	; 0x30
 80052a4:	7c02      	ldrb	r2, [r0, #16]
 80052a6:	6800      	ldr	r0, [r0, #0]
 80052a8:	f7fb f828 	bl	80002fc <USB_HC_StartXfer>
 80052ac:	2302      	movs	r3, #2
 80052ae:	4635      	mov	r5, r6
 80052b0:	7623      	strb	r3, [r4, #24]
 80052b2:	e7ac      	b.n	800520e <USBH_Get_DevDesc.constprop.0+0x56>
 80052b4:	7963      	ldrb	r3, [r4, #5]
 80052b6:	f8d4 2610 	ldr.w	r2, [r4, #1552]	; 0x610
 80052ba:	eb03 0383 	add.w	r3, r3, r3, lsl #2
 80052be:	eb02 03c3 	add.w	r3, r2, r3, lsl #3
 80052c2:	f893 5054 	ldrb.w	r5, [r3, #84]	; 0x54
 80052c6:	2d01      	cmp	r5, #1
 80052c8:	f000 8166 	beq.w	8005598 <USBH_Get_DevDesc.constprop.0+0x3e0>
 80052cc:	2d04      	cmp	r5, #4
 80052ce:	d19d      	bne.n	800520c <USBH_Get_DevDesc.constprop.0+0x54>
 80052d0:	230b      	movs	r3, #11
 80052d2:	7623      	strb	r3, [r4, #24]
 80052d4:	2501      	movs	r5, #1
 80052d6:	e79a      	b.n	800520e <USBH_Get_DevDesc.constprop.0+0x56>
 80052d8:	7921      	ldrb	r1, [r4, #4]
 80052da:	f8d4 0610 	ldr.w	r0, [r4, #1552]	; 0x610
 80052de:	f8d4 3608 	ldr.w	r3, [r4, #1544]	; 0x608
 80052e2:	81e3      	strh	r3, [r4, #14]
 80052e4:	eb01 0381 	add.w	r3, r1, r1, lsl #2
 80052e8:	eb00 03c3 	add.w	r3, r0, r3, lsl #3
 80052ec:	2602      	movs	r6, #2
 80052ee:	2228      	movs	r2, #40	; 0x28
 80052f0:	f883 603a 	strb.w	r6, [r3, #58]	; 0x3a
 80052f4:	f883 1031 	strb.w	r1, [r3, #49]	; 0x31
 80052f8:	68a6      	ldr	r6, [r4, #8]
 80052fa:	63de      	str	r6, [r3, #60]	; 0x3c
 80052fc:	fb02 0101 	mla	r1, r2, r1, r0
 8005300:	2501      	movs	r5, #1
 8005302:	2200      	movs	r2, #0
 8005304:	f883 5033 	strb.w	r5, [r3, #51]	; 0x33
 8005308:	f883 2037 	strb.w	r2, [r3, #55]	; 0x37
 800530c:	f883 2054 	strb.w	r2, [r3, #84]	; 0x54
 8005310:	f883 2055 	strb.w	r2, [r3, #85]	; 0x55
 8005314:	89a6      	ldrh	r6, [r4, #12]
 8005316:	645a      	str	r2, [r3, #68]	; 0x44
 8005318:	641e      	str	r6, [r3, #64]	; 0x40
 800531a:	7c02      	ldrb	r2, [r0, #16]
 800531c:	6800      	ldr	r0, [r0, #0]
 800531e:	3130      	adds	r1, #48	; 0x30
 8005320:	f7fa ffec 	bl	80002fc <USB_HC_StartXfer>
 8005324:	2304      	movs	r3, #4
 8005326:	7623      	strb	r3, [r4, #24]
 8005328:	e771      	b.n	800520e <USBH_Get_DevDesc.constprop.0+0x56>
 800532a:	7921      	ldrb	r1, [r4, #4]
 800532c:	f8d4 0610 	ldr.w	r0, [r4, #1552]	; 0x610
 8005330:	eb01 0381 	add.w	r3, r1, r1, lsl #2
 8005334:	eb00 03c3 	add.w	r3, r0, r3, lsl #3
 8005338:	2202      	movs	r2, #2
 800533a:	f883 203a 	strb.w	r2, [r3, #58]	; 0x3a
 800533e:	2628      	movs	r6, #40	; 0x28
 8005340:	2200      	movs	r2, #0
 8005342:	2501      	movs	r5, #1
 8005344:	f883 1031 	strb.w	r1, [r3, #49]	; 0x31
 8005348:	f883 5033 	strb.w	r5, [r3, #51]	; 0x33
 800534c:	f883 2037 	strb.w	r2, [r3, #55]	; 0x37
 8005350:	f883 2054 	strb.w	r2, [r3, #84]	; 0x54
 8005354:	f883 2055 	strb.w	r2, [r3, #85]	; 0x55
 8005358:	fb06 0101 	mla	r1, r6, r1, r0
 800535c:	e9c3 220f 	strd	r2, r2, [r3, #60]	; 0x3c
 8005360:	645a      	str	r2, [r3, #68]	; 0x44
 8005362:	3130      	adds	r1, #48	; 0x30
 8005364:	7c02      	ldrb	r2, [r0, #16]
 8005366:	6800      	ldr	r0, [r0, #0]
 8005368:	f7fa ffc8 	bl	80002fc <USB_HC_StartXfer>
 800536c:	f8d4 3608 	ldr.w	r3, [r4, #1544]	; 0x608
 8005370:	81e3      	strh	r3, [r4, #14]
 8005372:	2308      	movs	r3, #8
 8005374:	7623      	strb	r3, [r4, #24]
 8005376:	e74a      	b.n	800520e <USBH_Get_DevDesc.constprop.0+0x56>
 8005378:	7923      	ldrb	r3, [r4, #4]
 800537a:	f8d4 2610 	ldr.w	r2, [r4, #1552]	; 0x610
 800537e:	eb03 0383 	add.w	r3, r3, r3, lsl #2
 8005382:	eb02 03c3 	add.w	r3, r2, r3, lsl #3
 8005386:	f893 3054 	ldrb.w	r3, [r3, #84]	; 0x54
 800538a:	2b01      	cmp	r3, #1
 800538c:	f000 80ba 	beq.w	8005504 <USBH_Get_DevDesc.constprop.0+0x34c>
 8005390:	2b04      	cmp	r3, #4
 8005392:	d09d      	beq.n	80052d0 <USBH_Get_DevDesc.constprop.0+0x118>
 8005394:	2b05      	cmp	r3, #5
 8005396:	bf14      	ite	ne
 8005398:	2501      	movne	r5, #1
 800539a:	2503      	moveq	r5, #3
 800539c:	e737      	b.n	800520e <USBH_Get_DevDesc.constprop.0+0x56>
 800539e:	7961      	ldrb	r1, [r4, #5]
 80053a0:	f8d4 0610 	ldr.w	r0, [r4, #1552]	; 0x610
 80053a4:	f894 521d 	ldrb.w	r5, [r4, #541]	; 0x21d
 80053a8:	eb01 0281 	add.w	r2, r1, r1, lsl #2
 80053ac:	eb00 02c2 	add.w	r2, r0, r2, lsl #3
 80053b0:	f04f 0c02 	mov.w	ip, #2
 80053b4:	f892 6054 	ldrb.w	r6, [r2, #84]	; 0x54
 80053b8:	f882 c03a 	strb.w	ip, [r2, #58]	; 0x3a
 80053bc:	2301      	movs	r3, #1
 80053be:	f882 3049 	strb.w	r3, [r2, #73]	; 0x49
 80053c2:	4566      	cmp	r6, ip
 80053c4:	f04f 0300 	mov.w	r3, #0
 80053c8:	f882 3033 	strb.w	r3, [r2, #51]	; 0x33
 80053cc:	f882 3037 	strb.w	r3, [r2, #55]	; 0x37
 80053d0:	fa01 f30c 	lsl.w	r3, r1, ip
 80053d4:	d004      	beq.n	80053e0 <USBH_Get_DevDesc.constprop.0+0x228>
 80053d6:	fab5 f585 	clz	r5, r5
 80053da:	096d      	lsrs	r5, r5, #5
 80053dc:	f882 5035 	strb.w	r5, [r2, #53]	; 0x35
 80053e0:	440b      	add	r3, r1
 80053e2:	eb00 03c3 	add.w	r3, r0, r3, lsl #3
 80053e6:	2200      	movs	r2, #0
 80053e8:	2528      	movs	r5, #40	; 0x28
 80053ea:	f883 1031 	strb.w	r1, [r3, #49]	; 0x31
 80053ee:	f883 2054 	strb.w	r2, [r3, #84]	; 0x54
 80053f2:	f883 2055 	strb.w	r2, [r3, #85]	; 0x55
 80053f6:	fb05 0101 	mla	r1, r5, r1, r0
 80053fa:	e9c3 220f 	strd	r2, r2, [r3, #60]	; 0x3c
 80053fe:	645a      	str	r2, [r3, #68]	; 0x44
 8005400:	3130      	adds	r1, #48	; 0x30
 8005402:	7c02      	ldrb	r2, [r0, #16]
 8005404:	6800      	ldr	r0, [r0, #0]
 8005406:	f7fa ff79 	bl	80002fc <USB_HC_StartXfer>
 800540a:	f8d4 3608 	ldr.w	r3, [r4, #1544]	; 0x608
 800540e:	81e3      	strh	r3, [r4, #14]
 8005410:	230a      	movs	r3, #10
 8005412:	7623      	strb	r3, [r4, #24]
 8005414:	2501      	movs	r5, #1
 8005416:	e6fa      	b.n	800520e <USBH_Get_DevDesc.constprop.0+0x56>
 8005418:	7961      	ldrb	r1, [r4, #5]
 800541a:	f8d4 0610 	ldr.w	r0, [r4, #1552]	; 0x610
 800541e:	89a6      	ldrh	r6, [r4, #12]
 8005420:	f894 e21d 	ldrb.w	lr, [r4, #541]	; 0x21d
 8005424:	f8d4 c008 	ldr.w	ip, [r4, #8]
 8005428:	eb01 0281 	add.w	r2, r1, r1, lsl #2
 800542c:	eb00 02c2 	add.w	r2, r0, r2, lsl #3
 8005430:	2300      	movs	r3, #0
 8005432:	2502      	movs	r5, #2
 8005434:	f882 3033 	strb.w	r3, [r2, #51]	; 0x33
 8005438:	f882 3037 	strb.w	r3, [r2, #55]	; 0x37
 800543c:	f882 503a 	strb.w	r5, [r2, #58]	; 0x3a
 8005440:	fa01 f305 	lsl.w	r3, r1, r5
 8005444:	2e00      	cmp	r6, #0
 8005446:	f040 809d 	bne.w	8005584 <USBH_Get_DevDesc.constprop.0+0x3cc>
 800544a:	f04f 0801 	mov.w	r8, #1
 800544e:	f882 8049 	strb.w	r8, [r2, #73]	; 0x49
 8005452:	185a      	adds	r2, r3, r1
 8005454:	eb00 02c2 	add.w	r2, r0, r2, lsl #3
 8005458:	f892 8054 	ldrb.w	r8, [r2, #84]	; 0x54
 800545c:	f882 503a 	strb.w	r5, [r2, #58]	; 0x3a
 8005460:	f1b8 0f02 	cmp.w	r8, #2
 8005464:	d004      	beq.n	8005470 <USBH_Get_DevDesc.constprop.0+0x2b8>
 8005466:	fabe f58e 	clz	r5, lr
 800546a:	096d      	lsrs	r5, r5, #5
 800546c:	f882 5035 	strb.w	r5, [r2, #53]	; 0x35
 8005470:	440b      	add	r3, r1
 8005472:	eb00 03c3 	add.w	r3, r0, r3, lsl #3
 8005476:	2200      	movs	r2, #0
 8005478:	2528      	movs	r5, #40	; 0x28
 800547a:	f883 1031 	strb.w	r1, [r3, #49]	; 0x31
 800547e:	f883 2054 	strb.w	r2, [r3, #84]	; 0x54
 8005482:	f883 2055 	strb.w	r2, [r3, #85]	; 0x55
 8005486:	fb05 0101 	mla	r1, r5, r1, r0
 800548a:	e9c3 6210 	strd	r6, r2, [r3, #64]	; 0x40
 800548e:	f8c3 c03c 	str.w	ip, [r3, #60]	; 0x3c
 8005492:	7c02      	ldrb	r2, [r0, #16]
 8005494:	6800      	ldr	r0, [r0, #0]
 8005496:	3130      	adds	r1, #48	; 0x30
 8005498:	f7fa ff30 	bl	80002fc <USB_HC_StartXfer>
 800549c:	f8d4 3608 	ldr.w	r3, [r4, #1544]	; 0x608
 80054a0:	81e3      	strh	r3, [r4, #14]
 80054a2:	2306      	movs	r3, #6
 80054a4:	7623      	strb	r3, [r4, #24]
 80054a6:	2501      	movs	r5, #1
 80054a8:	e6b1      	b.n	800520e <USBH_Get_DevDesc.constprop.0+0x56>
 80054aa:	7923      	ldrb	r3, [r4, #4]
 80054ac:	f8d4 2610 	ldr.w	r2, [r4, #1552]	; 0x610
 80054b0:	eb03 0383 	add.w	r3, r3, r3, lsl #2
 80054b4:	eb02 03c3 	add.w	r3, r2, r3, lsl #3
 80054b8:	f893 3054 	ldrb.w	r3, [r3, #84]	; 0x54
 80054bc:	2b01      	cmp	r3, #1
 80054be:	d055      	beq.n	800556c <USBH_Get_DevDesc.constprop.0+0x3b4>
 80054c0:	2b05      	cmp	r3, #5
 80054c2:	f47f aea1 	bne.w	8005208 <USBH_Get_DevDesc.constprop.0+0x50>
 80054c6:	2503      	movs	r5, #3
 80054c8:	e6a1      	b.n	800520e <USBH_Get_DevDesc.constprop.0+0x56>
 80054ca:	7963      	ldrb	r3, [r4, #5]
 80054cc:	f8d4 2610 	ldr.w	r2, [r4, #1552]	; 0x610
 80054d0:	eb03 0383 	add.w	r3, r3, r3, lsl #2
 80054d4:	eb02 03c3 	add.w	r3, r2, r3, lsl #3
 80054d8:	f893 3054 	ldrb.w	r3, [r3, #84]	; 0x54
 80054dc:	2b01      	cmp	r3, #1
 80054de:	d057      	beq.n	8005590 <USBH_Get_DevDesc.constprop.0+0x3d8>
 80054e0:	2b05      	cmp	r3, #5
 80054e2:	d063      	beq.n	80055ac <USBH_Get_DevDesc.constprop.0+0x3f4>
 80054e4:	2b02      	cmp	r3, #2
 80054e6:	d05d      	beq.n	80055a4 <USBH_Get_DevDesc.constprop.0+0x3ec>
 80054e8:	2b04      	cmp	r3, #4
 80054ea:	f47f ae8f 	bne.w	800520c <USBH_Get_DevDesc.constprop.0+0x54>
 80054ee:	230b      	movs	r3, #11
 80054f0:	7623      	strb	r3, [r4, #24]
 80054f2:	2301      	movs	r3, #1
 80054f4:	70a3      	strb	r3, [r4, #2]
 80054f6:	e68a      	b.n	800520e <USBH_Get_DevDesc.constprop.0+0x56>
 80054f8:	2001f0bc 	.word	0x2001f0bc
 80054fc:	01000680 	.word	0x01000680
 8005500:	2001f0cc 	.word	0x2001f0cc
 8005504:	7fe1      	ldrb	r1, [r4, #31]
 8005506:	7fa3      	ldrb	r3, [r4, #30]
 8005508:	8ba5      	ldrh	r5, [r4, #28]
 800550a:	6a22      	ldr	r2, [r4, #32]
 800550c:	f8a4 5220 	strh.w	r5, [r4, #544]	; 0x220
 8005510:	eb03 2301 	add.w	r3, r3, r1, lsl #8
 8005514:	2500      	movs	r5, #0
 8005516:	2101      	movs	r1, #1
 8005518:	2808      	cmp	r0, #8
 800551a:	f8a4 3222 	strh.w	r3, [r4, #546]	; 0x222
 800551e:	70a1      	strb	r1, [r4, #2]
 8005520:	7625      	strb	r5, [r4, #24]
 8005522:	f8c4 2224 	str.w	r2, [r4, #548]	; 0x224
 8005526:	f43f ae72 	beq.w	800520e <USBH_Get_DevDesc.constprop.0+0x56>
 800552a:	f894 0029 	ldrb.w	r0, [r4, #41]	; 0x29
 800552e:	f894 c025 	ldrb.w	ip, [r4, #37]	; 0x25
 8005532:	f894 1024 	ldrb.w	r1, [r4, #36]	; 0x24
 8005536:	f894 6027 	ldrb.w	r6, [r4, #39]	; 0x27
 800553a:	f894 2026 	ldrb.w	r2, [r4, #38]	; 0x26
 800553e:	f894 3028 	ldrb.w	r3, [r4, #40]	; 0x28
 8005542:	eb01 210c 	add.w	r1, r1, ip, lsl #8
 8005546:	eb03 2300 	add.w	r3, r3, r0, lsl #8
 800554a:	eb02 2206 	add.w	r2, r2, r6, lsl #8
 800554e:	f8d4 002a 	ldr.w	r0, [r4, #42]	; 0x2a
 8005552:	f8c4 022e 	str.w	r0, [r4, #558]	; 0x22e
 8005556:	f8a4 1228 	strh.w	r1, [r4, #552]	; 0x228
 800555a:	f8a4 222a 	strh.w	r2, [r4, #554]	; 0x22a
 800555e:	f8a4 322c 	strh.w	r3, [r4, #556]	; 0x22c
 8005562:	4628      	mov	r0, r5
 8005564:	e8bd 8178 	ldmia.w	sp!, {r3, r4, r5, r6, r8, pc}
 8005568:	0613      	lsls	r3, r2, #24
 800556a:	d511      	bpl.n	8005590 <USBH_Get_DevDesc.constprop.0+0x3d8>
 800556c:	2309      	movs	r3, #9
 800556e:	7623      	strb	r3, [r4, #24]
 8005570:	2501      	movs	r5, #1
 8005572:	e64c      	b.n	800520e <USBH_Get_DevDesc.constprop.0+0x56>
 8005574:	f8d4 3614 	ldr.w	r3, [r4, #1556]	; 0x614
 8005578:	4810      	ldr	r0, [pc, #64]	; (80055bc <USBH_Get_DevDesc.constprop.0+0x404>)
 800557a:	2106      	movs	r1, #6
 800557c:	4798      	blx	r3
 800557e:	2300      	movs	r3, #0
 8005580:	7663      	strb	r3, [r4, #25]
 8005582:	e7b6      	b.n	80054f2 <USBH_Get_DevDesc.constprop.0+0x33a>
 8005584:	f892 5049 	ldrb.w	r5, [r2, #73]	; 0x49
 8005588:	2d00      	cmp	r5, #0
 800558a:	bf18      	it	ne
 800558c:	2502      	movne	r5, #2
 800558e:	e760      	b.n	8005452 <USBH_Get_DevDesc.constprop.0+0x29a>
 8005590:	2307      	movs	r3, #7
 8005592:	7623      	strb	r3, [r4, #24]
 8005594:	2501      	movs	r5, #1
 8005596:	e63a      	b.n	800520e <USBH_Get_DevDesc.constprop.0+0x56>
 8005598:	8ae3      	ldrh	r3, [r4, #22]
 800559a:	7c22      	ldrb	r2, [r4, #16]
 800559c:	2b00      	cmp	r3, #0
 800559e:	d0e3      	beq.n	8005568 <USBH_Get_DevDesc.constprop.0+0x3b0>
 80055a0:	0612      	lsls	r2, r2, #24
 80055a2:	d407      	bmi.n	80055b4 <USBH_Get_DevDesc.constprop.0+0x3fc>
 80055a4:	2305      	movs	r3, #5
 80055a6:	7623      	strb	r3, [r4, #24]
 80055a8:	2501      	movs	r5, #1
 80055aa:	e630      	b.n	800520e <USBH_Get_DevDesc.constprop.0+0x56>
 80055ac:	230c      	movs	r3, #12
 80055ae:	7623      	strb	r3, [r4, #24]
 80055b0:	2503      	movs	r5, #3
 80055b2:	e62c      	b.n	800520e <USBH_Get_DevDesc.constprop.0+0x56>
 80055b4:	2303      	movs	r3, #3
 80055b6:	7623      	strb	r3, [r4, #24]
 80055b8:	e629      	b.n	800520e <USBH_Get_DevDesc.constprop.0+0x56>
 80055ba:	bf00      	nop
 80055bc:	2001f0bc 	.word	0x2001f0bc

080055c0 <SystemInit>:
SystemInit():
 80055c0:	4910      	ldr	r1, [pc, #64]	; (8005604 <SystemInit+0x44>)
 80055c2:	4b11      	ldr	r3, [pc, #68]	; (8005608 <SystemInit+0x48>)
 80055c4:	f8d1 2088 	ldr.w	r2, [r1, #136]	; 0x88
 80055c8:	f442 0270 	orr.w	r2, r2, #15728640	; 0xf00000
 80055cc:	b410      	push	{r4}
 80055ce:	f8c1 2088 	str.w	r2, [r1, #136]	; 0x88
 80055d2:	681a      	ldr	r2, [r3, #0]
 80055d4:	4c0d      	ldr	r4, [pc, #52]	; (800560c <SystemInit+0x4c>)
 80055d6:	2000      	movs	r0, #0
 80055d8:	f042 0201 	orr.w	r2, r2, #1
 80055dc:	601a      	str	r2, [r3, #0]
 80055de:	6098      	str	r0, [r3, #8]
 80055e0:	681a      	ldr	r2, [r3, #0]
 80055e2:	f022 7284 	bic.w	r2, r2, #17301504	; 0x1080000
 80055e6:	f422 3280 	bic.w	r2, r2, #65536	; 0x10000
 80055ea:	601a      	str	r2, [r3, #0]
 80055ec:	605c      	str	r4, [r3, #4]
 80055ee:	681a      	ldr	r2, [r3, #0]
 80055f0:	f04f 6400 	mov.w	r4, #134217728	; 0x8000000
 80055f4:	f422 2280 	bic.w	r2, r2, #262144	; 0x40000
 80055f8:	601a      	str	r2, [r3, #0]
 80055fa:	60d8      	str	r0, [r3, #12]
 80055fc:	608c      	str	r4, [r1, #8]
 80055fe:	f85d 4b04 	ldr.w	r4, [sp], #4
 8005602:	4770      	bx	lr
 8005604:	e000ed00 	.word	0xe000ed00
 8005608:	40023800 	.word	0x40023800
 800560c:	24003010 	.word	0x24003010

08005610 <OTG_FS_IRQHandler>:
OTG_FS_IRQHandler():
 8005610:	e92d 4f70 	stmdb	sp!, {r4, r5, r6, r8, r9, sl, fp, lr}
 8005614:	4c95      	ldr	r4, [pc, #596]	; (800586c <OTG_FS_IRQHandler+0x25c>)
 8005616:	6826      	ldr	r6, [r4, #0]
 8005618:	6973      	ldr	r3, [r6, #20]
 800561a:	07d8      	lsls	r0, r3, #31
 800561c:	b088      	sub	sp, #32
 800561e:	d402      	bmi.n	8005626 <OTG_FS_IRQHandler+0x16>
 8005620:	b008      	add	sp, #32
 8005622:	e8bd 8f70 	ldmia.w	sp!, {r4, r5, r6, r8, r9, sl, fp, pc}
 8005626:	6972      	ldr	r2, [r6, #20]
 8005628:	69b3      	ldr	r3, [r6, #24]
 800562a:	421a      	tst	r2, r3
 800562c:	d0f8      	beq.n	8005620 <OTG_FS_IRQHandler+0x10>
 800562e:	6973      	ldr	r3, [r6, #20]
 8005630:	69b2      	ldr	r2, [r6, #24]
 8005632:	4013      	ands	r3, r2
 8005634:	0299      	lsls	r1, r3, #10
 8005636:	bf44      	itt	mi
 8005638:	f44f 1300 	movmi.w	r3, #2097152	; 0x200000
 800563c:	6173      	strmi	r3, [r6, #20]
 800563e:	6973      	ldr	r3, [r6, #20]
 8005640:	69b2      	ldr	r2, [r6, #24]
 8005642:	4013      	ands	r3, r2
 8005644:	02da      	lsls	r2, r3, #11
 8005646:	bf44      	itt	mi
 8005648:	f44f 1380 	movmi.w	r3, #1048576	; 0x100000
 800564c:	6173      	strmi	r3, [r6, #20]
 800564e:	6973      	ldr	r3, [r6, #20]
 8005650:	69b2      	ldr	r2, [r6, #24]
 8005652:	4013      	ands	r3, r2
 8005654:	015b      	lsls	r3, r3, #5
 8005656:	bf44      	itt	mi
 8005658:	f04f 6380 	movmi.w	r3, #67108864	; 0x4000000
 800565c:	6173      	strmi	r3, [r6, #20]
 800565e:	6973      	ldr	r3, [r6, #20]
 8005660:	69b2      	ldr	r2, [r6, #24]
 8005662:	4013      	ands	r3, r2
 8005664:	079d      	lsls	r5, r3, #30
 8005666:	bf44      	itt	mi
 8005668:	2302      	movmi	r3, #2
 800566a:	6173      	strmi	r3, [r6, #20]
 800566c:	6973      	ldr	r3, [r6, #20]
 800566e:	69b2      	ldr	r2, [r6, #24]
 8005670:	4013      	ands	r3, r2
 8005672:	0098      	lsls	r0, r3, #2
 8005674:	f100 80fc 	bmi.w	8005870 <OTG_FS_IRQHandler+0x260>
 8005678:	4635      	mov	r5, r6
 800567a:	696b      	ldr	r3, [r5, #20]
 800567c:	69aa      	ldr	r2, [r5, #24]
 800567e:	4013      	ands	r3, r2
 8005680:	01d8      	lsls	r0, r3, #7
 8005682:	f100 80cc 	bmi.w	800581e <OTG_FS_IRQHandler+0x20e>
 8005686:	696b      	ldr	r3, [r5, #20]
 8005688:	69aa      	ldr	r2, [r5, #24]
 800568a:	4013      	ands	r3, r2
 800568c:	071a      	lsls	r2, r3, #28
 800568e:	f100 815e 	bmi.w	800594e <OTG_FS_IRQHandler+0x33e>
 8005692:	696b      	ldr	r3, [r5, #20]
 8005694:	69aa      	ldr	r2, [r5, #24]
 8005696:	4013      	ands	r3, r2
 8005698:	019b      	lsls	r3, r3, #6
 800569a:	d413      	bmi.n	80056c4 <OTG_FS_IRQHandler+0xb4>
 800569c:	696b      	ldr	r3, [r5, #20]
 800569e:	69aa      	ldr	r2, [r5, #24]
 80056a0:	4013      	ands	r3, r2
 80056a2:	06db      	lsls	r3, r3, #27
 80056a4:	d5bc      	bpl.n	8005620 <OTG_FS_IRQHandler+0x10>
 80056a6:	69ab      	ldr	r3, [r5, #24]
 80056a8:	f023 0310 	bic.w	r3, r3, #16
 80056ac:	61ab      	str	r3, [r5, #24]
 80056ae:	6a2b      	ldr	r3, [r5, #32]
 80056b0:	f3c3 4243 	ubfx	r2, r3, #17, #4
 80056b4:	2a02      	cmp	r2, #2
 80056b6:	f000 825f 	beq.w	8005b78 <OTG_FS_IRQHandler+0x568>
 80056ba:	69ab      	ldr	r3, [r5, #24]
 80056bc:	f043 0310 	orr.w	r3, r3, #16
 80056c0:	61ab      	str	r3, [r5, #24]
 80056c2:	e7ad      	b.n	8005620 <OTG_FS_IRQHandler+0x10>
 80056c4:	4628      	mov	r0, r5
 80056c6:	f7fa ff57 	bl	8000578 <USB_HC_ReadInterrupt>
 80056ca:	68a2      	ldr	r2, [r4, #8]
 80056cc:	6825      	ldr	r5, [r4, #0]
 80056ce:	4681      	mov	r9, r0
 80056d0:	2a00      	cmp	r2, #0
 80056d2:	f000 80a0 	beq.w	8005816 <OTG_FS_IRQHandler+0x206>
 80056d6:	f506 63a0 	add.w	r3, r6, #1280	; 0x500
 80056da:	9301      	str	r3, [sp, #4]
 80056dc:	2600      	movs	r6, #0
 80056de:	f04f 0a01 	mov.w	sl, #1
 80056e2:	4628      	mov	r0, r5
 80056e4:	e051      	b.n	800578a <OTG_FS_IRQHandler+0x17a>
 80056e6:	fa5f fb86 	uxtb.w	fp, r6
 80056ea:	f500 63a0 	add.w	r3, r0, #1280	; 0x500
 80056ee:	eb03 184b 	add.w	r8, r3, fp, lsl #5
 80056f2:	ea4f 124b 	mov.w	r2, fp, lsl #5
 80056f6:	f8d8 1008 	ldr.w	r1, [r8, #8]
 80056fa:	0749      	lsls	r1, r1, #29
 80056fc:	d562      	bpl.n	80057c4 <OTG_FS_IRQHandler+0x1b4>
 80056fe:	2104      	movs	r1, #4
 8005700:	f8c8 1008 	str.w	r1, [r8, #8]
 8005704:	f8d8 100c 	ldr.w	r1, [r8, #12]
 8005708:	f041 0102 	orr.w	r1, r1, #2
 800570c:	f8c8 100c 	str.w	r1, [r8, #12]
 8005710:	f8d8 1008 	ldr.w	r1, [r8, #8]
 8005714:	0589      	lsls	r1, r1, #22
 8005716:	f100 8150 	bmi.w	80059ba <OTG_FS_IRQHandler+0x3aa>
 800571a:	f8d8 1008 	ldr.w	r1, [r8, #8]
 800571e:	07cd      	lsls	r5, r1, #31
 8005720:	f140 8123 	bpl.w	800596a <OTG_FS_IRQHandler+0x35a>
 8005724:	6921      	ldr	r1, [r4, #16]
 8005726:	b159      	cbz	r1, 8005740 <OTG_FS_IRQHandler+0x130>
 8005728:	eb0b 058b 	add.w	r5, fp, fp, lsl #2
 800572c:	f8d8 1010 	ldr.w	r1, [r8, #16]
 8005730:	eb04 05c5 	add.w	r5, r4, r5, lsl #3
 8005734:	f3c1 0c12 	ubfx	ip, r1, #0, #19
 8005738:	6c29      	ldr	r1, [r5, #64]	; 0x40
 800573a:	eba1 010c 	sub.w	r1, r1, ip
 800573e:	6469      	str	r1, [r5, #68]	; 0x44
 8005740:	ea4f 058b 	mov.w	r5, fp, lsl #2
 8005744:	eb05 010b 	add.w	r1, r5, fp
 8005748:	eb04 01c1 	add.w	r1, r4, r1, lsl #3
 800574c:	f04f 0c00 	mov.w	ip, #0
 8005750:	f8c1 c050 	str.w	ip, [r1, #80]	; 0x50
 8005754:	f881 a055 	strb.w	sl, [r1, #85]	; 0x55
 8005758:	f8c8 a008 	str.w	sl, [r8, #8]
 800575c:	f891 c037 	ldrb.w	ip, [r1, #55]	; 0x37
 8005760:	f01c 0ffd 	tst.w	ip, #253	; 0xfd
 8005764:	f000 81e5 	beq.w	8005b32 <OTG_FS_IRQHandler+0x522>
 8005768:	f1bc 0f03 	cmp.w	ip, #3
 800576c:	f000 833d 	beq.w	8005dea <OTG_FS_IRQHandler+0x7da>
 8005770:	445d      	add	r5, fp
 8005772:	eb04 05c5 	add.w	r5, r4, r5, lsl #3
 8005776:	68a2      	ldr	r2, [r4, #8]
 8005778:	f895 3048 	ldrb.w	r3, [r5, #72]	; 0x48
 800577c:	f083 0301 	eor.w	r3, r3, #1
 8005780:	f885 3048 	strb.w	r3, [r5, #72]	; 0x48
 8005784:	3601      	adds	r6, #1
 8005786:	4296      	cmp	r6, r2
 8005788:	d244      	bcs.n	8005814 <OTG_FS_IRQHandler+0x204>
 800578a:	fa0a f306 	lsl.w	r3, sl, r6
 800578e:	ea13 0f09 	tst.w	r3, r9
 8005792:	d0f7      	beq.n	8005784 <OTG_FS_IRQHandler+0x174>
 8005794:	9901      	ldr	r1, [sp, #4]
 8005796:	0173      	lsls	r3, r6, #5
 8005798:	58cb      	ldr	r3, [r1, r3]
 800579a:	041d      	lsls	r5, r3, #16
 800579c:	d4a3      	bmi.n	80056e6 <OTG_FS_IRQHandler+0xd6>
 800579e:	b2f1      	uxtb	r1, r6
 80057a0:	f500 63a0 	add.w	r3, r0, #1280	; 0x500
 80057a4:	eb03 1541 	add.w	r5, r3, r1, lsl #5
 80057a8:	ea4f 1e41 	mov.w	lr, r1, lsl #5
 80057ac:	f8d5 c008 	ldr.w	ip, [r5, #8]
 80057b0:	f01c 0f04 	tst.w	ip, #4
 80057b4:	d00f      	beq.n	80057d6 <OTG_FS_IRQHandler+0x1c6>
 80057b6:	2304      	movs	r3, #4
 80057b8:	60ab      	str	r3, [r5, #8]
 80057ba:	68eb      	ldr	r3, [r5, #12]
 80057bc:	f043 0302 	orr.w	r3, r3, #2
 80057c0:	60eb      	str	r3, [r5, #12]
 80057c2:	e7df      	b.n	8005784 <OTG_FS_IRQHandler+0x174>
 80057c4:	f8d8 1008 	ldr.w	r1, [r8, #8]
 80057c8:	068d      	lsls	r5, r1, #26
 80057ca:	f140 815d 	bpl.w	8005a88 <OTG_FS_IRQHandler+0x478>
 80057ce:	2120      	movs	r1, #32
 80057d0:	f8c8 1008 	str.w	r1, [r8, #8]
 80057d4:	e79c      	b.n	8005710 <OTG_FS_IRQHandler+0x100>
 80057d6:	f8d5 c008 	ldr.w	ip, [r5, #8]
 80057da:	f01c 0c20 	ands.w	ip, ip, #32
 80057de:	f000 80fc 	beq.w	80059da <OTG_FS_IRQHandler+0x3ca>
 80057e2:	eb01 0881 	add.w	r8, r1, r1, lsl #2
 80057e6:	2320      	movs	r3, #32
 80057e8:	eb04 08c8 	add.w	r8, r4, r8, lsl #3
 80057ec:	60ab      	str	r3, [r5, #8]
 80057ee:	f898 3035 	ldrb.w	r3, [r8, #53]	; 0x35
 80057f2:	2b01      	cmp	r3, #1
 80057f4:	d1c6      	bne.n	8005784 <OTG_FS_IRQHandler+0x174>
 80057f6:	2304      	movs	r3, #4
 80057f8:	f888 3055 	strb.w	r3, [r8, #85]	; 0x55
 80057fc:	68eb      	ldr	r3, [r5, #12]
 80057fe:	f043 0302 	orr.w	r3, r3, #2
 8005802:	60eb      	str	r3, [r5, #12]
 8005804:	f7fa fec8 	bl	8000598 <USB_HC_Halt>
 8005808:	2302      	movs	r3, #2
 800580a:	68a2      	ldr	r2, [r4, #8]
 800580c:	6820      	ldr	r0, [r4, #0]
 800580e:	f888 3054 	strb.w	r3, [r8, #84]	; 0x54
 8005812:	e7b7      	b.n	8005784 <OTG_FS_IRQHandler+0x174>
 8005814:	4605      	mov	r5, r0
 8005816:	f04f 7300 	mov.w	r3, #33554432	; 0x2000000
 800581a:	616b      	str	r3, [r5, #20]
 800581c:	e73e      	b.n	800569c <OTG_FS_IRQHandler+0x8c>
 800581e:	f8d5 3440 	ldr.w	r3, [r5, #1088]	; 0x440
 8005822:	9306      	str	r3, [sp, #24]
 8005824:	f8d5 3440 	ldr.w	r3, [r5, #1088]	; 0x440
 8005828:	9307      	str	r3, [sp, #28]
 800582a:	9b07      	ldr	r3, [sp, #28]
 800582c:	f023 032e 	bic.w	r3, r3, #46	; 0x2e
 8005830:	9307      	str	r3, [sp, #28]
 8005832:	9b06      	ldr	r3, [sp, #24]
 8005834:	0799      	lsls	r1, r3, #30
 8005836:	f505 6888 	add.w	r8, r5, #1088	; 0x440
 800583a:	d507      	bpl.n	800584c <OTG_FS_IRQHandler+0x23c>
 800583c:	9b06      	ldr	r3, [sp, #24]
 800583e:	07da      	lsls	r2, r3, #31
 8005840:	f100 81e9 	bmi.w	8005c16 <OTG_FS_IRQHandler+0x606>
 8005844:	9b07      	ldr	r3, [sp, #28]
 8005846:	f043 0302 	orr.w	r3, r3, #2
 800584a:	9307      	str	r3, [sp, #28]
 800584c:	9b06      	ldr	r3, [sp, #24]
 800584e:	071b      	lsls	r3, r3, #28
 8005850:	f100 8141 	bmi.w	8005ad6 <OTG_FS_IRQHandler+0x4c6>
 8005854:	6825      	ldr	r5, [r4, #0]
 8005856:	9b06      	ldr	r3, [sp, #24]
 8005858:	0699      	lsls	r1, r3, #26
 800585a:	d503      	bpl.n	8005864 <OTG_FS_IRQHandler+0x254>
 800585c:	9b07      	ldr	r3, [sp, #28]
 800585e:	f043 0320 	orr.w	r3, r3, #32
 8005862:	9307      	str	r3, [sp, #28]
 8005864:	9b07      	ldr	r3, [sp, #28]
 8005866:	f8c8 3000 	str.w	r3, [r8]
 800586a:	e70c      	b.n	8005686 <OTG_FS_IRQHandler+0x76>
 800586c:	2001ee2c 	.word	0x2001ee2c
 8005870:	f8d6 3440 	ldr.w	r3, [r6, #1088]	; 0x440
 8005874:	f8d4 528c 	ldr.w	r5, [r4, #652]	; 0x28c
 8005878:	f023 032e 	bic.w	r3, r3, #46	; 0x2e
 800587c:	f8d5 8610 	ldr.w	r8, [r5, #1552]	; 0x610
 8005880:	f8c6 3440 	str.w	r3, [r6, #1088]	; 0x440
 8005884:	f898 3288 	ldrb.w	r3, [r8, #648]	; 0x288
 8005888:	2b01      	cmp	r3, #1
 800588a:	d009      	beq.n	80058a0 <OTG_FS_IRQHandler+0x290>
 800588c:	2301      	movs	r3, #1
 800588e:	f888 3288 	strb.w	r3, [r8, #648]	; 0x288
 8005892:	f8d8 0000 	ldr.w	r0, [r8]
 8005896:	f7fa ffb9 	bl	800080c <USB_StopHost>
 800589a:	2300      	movs	r3, #0
 800589c:	f888 3288 	strb.w	r3, [r8, #648]	; 0x288
 80058a0:	792b      	ldrb	r3, [r5, #4]
 80058a2:	2b0a      	cmp	r3, #10
 80058a4:	d807      	bhi.n	80058b6 <OTG_FS_IRQHandler+0x2a6>
 80058a6:	eb05 0383 	add.w	r3, r5, r3, lsl #2
 80058aa:	f8d3 25cc 	ldr.w	r2, [r3, #1484]	; 0x5cc
 80058ae:	f3c2 020e 	ubfx	r2, r2, #0, #15
 80058b2:	f8c3 25cc 	str.w	r2, [r3, #1484]	; 0x5cc
 80058b6:	796b      	ldrb	r3, [r5, #5]
 80058b8:	2b0a      	cmp	r3, #10
 80058ba:	d807      	bhi.n	80058cc <OTG_FS_IRQHandler+0x2bc>
 80058bc:	eb05 0383 	add.w	r3, r5, r3, lsl #2
 80058c0:	f8d3 25cc 	ldr.w	r2, [r3, #1484]	; 0x5cc
 80058c4:	f3c2 020e 	ubfx	r2, r2, #0, #15
 80058c8:	f8c3 25cc 	str.w	r2, [r3, #1484]	; 0x5cc
 80058cc:	f8d5 3614 	ldr.w	r3, [r5, #1556]	; 0x614
 80058d0:	2200      	movs	r2, #0
 80058d2:	f885 221e 	strb.w	r2, [r5, #542]	; 0x21e
 80058d6:	b113      	cbz	r3, 80058de <OTG_FS_IRQHandler+0x2ce>
 80058d8:	2105      	movs	r1, #5
 80058da:	4628      	mov	r0, r5
 80058dc:	4798      	blx	r3
 80058de:	f8d5 3610 	ldr.w	r3, [r5, #1552]	; 0x610
 80058e2:	f893 2288 	ldrb.w	r2, [r3, #648]	; 0x288
 80058e6:	2a01      	cmp	r2, #1
 80058e8:	d01a      	beq.n	8005920 <OTG_FS_IRQHandler+0x310>
 80058ea:	681a      	ldr	r2, [r3, #0]
 80058ec:	2101      	movs	r1, #1
 80058ee:	f883 1288 	strb.w	r1, [r3, #648]	; 0x288
 80058f2:	6891      	ldr	r1, [r2, #8]
 80058f4:	f041 0101 	orr.w	r1, r1, #1
 80058f8:	6091      	str	r1, [r2, #8]
 80058fa:	f8d2 1440 	ldr.w	r1, [r2, #1088]	; 0x440
 80058fe:	9105      	str	r1, [sp, #20]
 8005900:	9905      	ldr	r1, [sp, #20]
 8005902:	f021 012e 	bic.w	r1, r1, #46	; 0x2e
 8005906:	9105      	str	r1, [sp, #20]
 8005908:	9905      	ldr	r1, [sp, #20]
 800590a:	04c9      	lsls	r1, r1, #19
 800590c:	d404      	bmi.n	8005918 <OTG_FS_IRQHandler+0x308>
 800590e:	9905      	ldr	r1, [sp, #20]
 8005910:	f441 5180 	orr.w	r1, r1, #4096	; 0x1000
 8005914:	f8c2 1440 	str.w	r1, [r2, #1088]	; 0x440
 8005918:	9a05      	ldr	r2, [sp, #20]
 800591a:	2200      	movs	r2, #0
 800591c:	f883 2288 	strb.w	r2, [r3, #648]	; 0x288
 8005920:	2303      	movs	r3, #3
 8005922:	702b      	strb	r3, [r5, #0]
 8005924:	6825      	ldr	r5, [r4, #0]
 8005926:	f8d5 3400 	ldr.w	r3, [r5, #1024]	; 0x400
 800592a:	f023 0303 	bic.w	r3, r3, #3
 800592e:	f8c5 3400 	str.w	r3, [r5, #1024]	; 0x400
 8005932:	f8d5 3400 	ldr.w	r3, [r5, #1024]	; 0x400
 8005936:	f64b 3080 	movw	r0, #48000	; 0xbb80
 800593a:	f043 0301 	orr.w	r3, r3, #1
 800593e:	f04f 5200 	mov.w	r2, #536870912	; 0x20000000
 8005942:	f8c5 3400 	str.w	r3, [r5, #1024]	; 0x400
 8005946:	f8c5 0404 	str.w	r0, [r5, #1028]	; 0x404
 800594a:	616a      	str	r2, [r5, #20]
 800594c:	e695      	b.n	800567a <OTG_FS_IRQHandler+0x6a>
 800594e:	f8d4 028c 	ldr.w	r0, [r4, #652]	; 0x28c
 8005952:	f8d0 3608 	ldr.w	r3, [r0, #1544]	; 0x608
 8005956:	3301      	adds	r3, #1
 8005958:	f8c0 3608 	str.w	r3, [r0, #1544]	; 0x608
 800595c:	7803      	ldrb	r3, [r0, #0]
 800595e:	2b0a      	cmp	r3, #10
 8005960:	f000 8101 	beq.w	8005b66 <OTG_FS_IRQHandler+0x556>
 8005964:	2308      	movs	r3, #8
 8005966:	616b      	str	r3, [r5, #20]
 8005968:	e693      	b.n	8005692 <OTG_FS_IRQHandler+0x82>
 800596a:	f8d8 1008 	ldr.w	r1, [r8, #8]
 800596e:	0789      	lsls	r1, r1, #30
 8005970:	f140 80ed 	bpl.w	8005b4e <OTG_FS_IRQHandler+0x53e>
 8005974:	f8d8 500c 	ldr.w	r5, [r8, #12]
 8005978:	eb0b 018b 	add.w	r1, fp, fp, lsl #2
 800597c:	f025 0502 	bic.w	r5, r5, #2
 8005980:	eb04 01c1 	add.w	r1, r4, r1, lsl #3
 8005984:	f8c8 500c 	str.w	r5, [r8, #12]
 8005988:	f891 c055 	ldrb.w	ip, [r1, #85]	; 0x55
 800598c:	f1bc 0f01 	cmp.w	ip, #1
 8005990:	ea4f 058b 	mov.w	r5, fp, lsl #2
 8005994:	f000 813c 	beq.w	8005c10 <OTG_FS_IRQHandler+0x600>
 8005998:	f1bc 0f05 	cmp.w	ip, #5
 800599c:	f000 8138 	beq.w	8005c10 <OTG_FS_IRQHandler+0x600>
 80059a0:	f1bc 0f06 	cmp.w	ip, #6
 80059a4:	f000 81f0 	beq.w	8005d88 <OTG_FS_IRQHandler+0x778>
 80059a8:	f1bc 0f08 	cmp.w	ip, #8
 80059ac:	f000 81ec 	beq.w	8005d88 <OTG_FS_IRQHandler+0x778>
 80059b0:	2302      	movs	r3, #2
 80059b2:	68a2      	ldr	r2, [r4, #8]
 80059b4:	f8c8 3008 	str.w	r3, [r8, #8]
 80059b8:	e6e4      	b.n	8005784 <OTG_FS_IRQHandler+0x174>
 80059ba:	f8d8 300c 	ldr.w	r3, [r8, #12]
 80059be:	f043 0302 	orr.w	r3, r3, #2
 80059c2:	f8c8 300c 	str.w	r3, [r8, #12]
 80059c6:	4659      	mov	r1, fp
 80059c8:	f7fa fde6 	bl	8000598 <USB_HC_Halt>
 80059cc:	f44f 7300 	mov.w	r3, #512	; 0x200
 80059d0:	f8c8 3008 	str.w	r3, [r8, #8]
 80059d4:	68a2      	ldr	r2, [r4, #8]
 80059d6:	6820      	ldr	r0, [r4, #0]
 80059d8:	e6d4      	b.n	8005784 <OTG_FS_IRQHandler+0x174>
 80059da:	f8d5 8008 	ldr.w	r8, [r5, #8]
 80059de:	f018 0f40 	tst.w	r8, #64	; 0x40
 80059e2:	f040 814e 	bne.w	8005c82 <OTG_FS_IRQHandler+0x672>
 80059e6:	f8d5 c008 	ldr.w	ip, [r5, #8]
 80059ea:	f41c 7c00 	ands.w	ip, ip, #512	; 0x200
 80059ee:	f040 819d 	bne.w	8005d2c <OTG_FS_IRQHandler+0x71c>
 80059f2:	f8d5 8008 	ldr.w	r8, [r5, #8]
 80059f6:	f018 0f01 	tst.w	r8, #1
 80059fa:	f040 81e3 	bne.w	8005dc4 <OTG_FS_IRQHandler+0x7b4>
 80059fe:	f8d5 c008 	ldr.w	ip, [r5, #8]
 8005a02:	f01c 0c08 	ands.w	ip, ip, #8
 8005a06:	f040 81f9 	bne.w	8005dfc <OTG_FS_IRQHandler+0x7ec>
 8005a0a:	f8d5 8008 	ldr.w	r8, [r5, #8]
 8005a0e:	f018 0f10 	tst.w	r8, #16
 8005a12:	f040 820e 	bne.w	8005e32 <OTG_FS_IRQHandler+0x822>
 8005a16:	f8d5 c008 	ldr.w	ip, [r5, #8]
 8005a1a:	f01c 0f80 	tst.w	ip, #128	; 0x80
 8005a1e:	f040 8227 	bne.w	8005e70 <OTG_FS_IRQHandler+0x860>
 8005a22:	f8d5 b008 	ldr.w	fp, [r5, #8]
 8005a26:	f41b 6b80 	ands.w	fp, fp, #1024	; 0x400
 8005a2a:	f040 8234 	bne.w	8005e96 <OTG_FS_IRQHandler+0x886>
 8005a2e:	f8d5 c008 	ldr.w	ip, [r5, #8]
 8005a32:	f01c 0f02 	tst.w	ip, #2
 8005a36:	f43f aea5 	beq.w	8005784 <OTG_FS_IRQHandler+0x174>
 8005a3a:	f8d5 800c 	ldr.w	r8, [r5, #12]
 8005a3e:	f04f 0c28 	mov.w	ip, #40	; 0x28
 8005a42:	f028 0802 	bic.w	r8, r8, #2
 8005a46:	fb0c 4c01 	mla	ip, ip, r1, r4
 8005a4a:	f8c5 800c 	str.w	r8, [r5, #12]
 8005a4e:	f89c 8055 	ldrb.w	r8, [ip, #85]	; 0x55
 8005a52:	f1b8 0f01 	cmp.w	r8, #1
 8005a56:	f000 8234 	beq.w	8005ec2 <OTG_FS_IRQHandler+0x8b2>
 8005a5a:	f1b8 0f03 	cmp.w	r8, #3
 8005a5e:	f000 8269 	beq.w	8005f34 <OTG_FS_IRQHandler+0x924>
 8005a62:	f1b8 0f04 	cmp.w	r8, #4
 8005a66:	f000 825f 	beq.w	8005f28 <OTG_FS_IRQHandler+0x918>
 8005a6a:	f1b8 0f05 	cmp.w	r8, #5
 8005a6e:	f000 8265 	beq.w	8005f3c <OTG_FS_IRQHandler+0x92c>
 8005a72:	f1b8 0f06 	cmp.w	r8, #6
 8005a76:	f000 8235 	beq.w	8005ee4 <OTG_FS_IRQHandler+0x8d4>
 8005a7a:	f1b8 0f08 	cmp.w	r8, #8
 8005a7e:	f000 8231 	beq.w	8005ee4 <OTG_FS_IRQHandler+0x8d4>
 8005a82:	2302      	movs	r3, #2
 8005a84:	60ab      	str	r3, [r5, #8]
 8005a86:	e67d      	b.n	8005784 <OTG_FS_IRQHandler+0x174>
 8005a88:	f8d8 1008 	ldr.w	r1, [r8, #8]
 8005a8c:	0709      	lsls	r1, r1, #28
 8005a8e:	f100 80da 	bmi.w	8005c46 <OTG_FS_IRQHandler+0x636>
 8005a92:	f8d8 1008 	ldr.w	r1, [r8, #8]
 8005a96:	054d      	lsls	r5, r1, #21
 8005a98:	f57f ae3a 	bpl.w	8005710 <OTG_FS_IRQHandler+0x100>
 8005a9c:	f8d8 100c 	ldr.w	r1, [r8, #12]
 8005aa0:	f041 0102 	orr.w	r1, r1, #2
 8005aa4:	f8c8 100c 	str.w	r1, [r8, #12]
 8005aa8:	4659      	mov	r1, fp
 8005aaa:	e9cd 2302 	strd	r2, r3, [sp, #8]
 8005aae:	f7fa fd73 	bl	8000598 <USB_HC_Halt>
 8005ab2:	eb0b 018b 	add.w	r1, fp, fp, lsl #2
 8005ab6:	2510      	movs	r5, #16
 8005ab8:	eb04 01c1 	add.w	r1, r4, r1, lsl #3
 8005abc:	f8c8 5008 	str.w	r5, [r8, #8]
 8005ac0:	2008      	movs	r0, #8
 8005ac2:	f44f 6580 	mov.w	r5, #1024	; 0x400
 8005ac6:	f881 0055 	strb.w	r0, [r1, #85]	; 0x55
 8005aca:	e9dd 2302 	ldrd	r2, r3, [sp, #8]
 8005ace:	6820      	ldr	r0, [r4, #0]
 8005ad0:	f8c8 5008 	str.w	r5, [r8, #8]
 8005ad4:	e61c      	b.n	8005710 <OTG_FS_IRQHandler+0x100>
 8005ad6:	9b07      	ldr	r3, [sp, #28]
 8005ad8:	f043 0308 	orr.w	r3, r3, #8
 8005adc:	9307      	str	r3, [sp, #28]
 8005ade:	9b06      	ldr	r3, [sp, #24]
 8005ae0:	0758      	lsls	r0, r3, #29
 8005ae2:	f140 808d 	bpl.w	8005c00 <OTG_FS_IRQHandler+0x5f0>
 8005ae6:	69a3      	ldr	r3, [r4, #24]
 8005ae8:	2b02      	cmp	r3, #2
 8005aea:	f000 812b 	beq.w	8005d44 <OTG_FS_IRQHandler+0x734>
 8005aee:	68e3      	ldr	r3, [r4, #12]
 8005af0:	2b03      	cmp	r3, #3
 8005af2:	bf04      	itt	eq
 8005af4:	f64e 2360 	movweq	r3, #60000	; 0xea60
 8005af8:	f8c5 3404 	streq.w	r3, [r5, #1028]	; 0x404
 8005afc:	f8d4 028c 	ldr.w	r0, [r4, #652]	; 0x28c
 8005b00:	7803      	ldrb	r3, [r0, #0]
 8005b02:	f003 02ff 	and.w	r2, r3, #255	; 0xff
 8005b06:	2b00      	cmp	r3, #0
 8005b08:	f040 80cf 	bne.w	8005caa <OTG_FS_IRQHandler+0x69a>
 8005b0c:	f8d0 3614 	ldr.w	r3, [r0, #1556]	; 0x614
 8005b10:	2101      	movs	r1, #1
 8005b12:	f880 121e 	strb.w	r1, [r0, #542]	; 0x21e
 8005b16:	7002      	strb	r2, [r0, #0]
 8005b18:	b10b      	cbz	r3, 8005b1e <OTG_FS_IRQHandler+0x50e>
 8005b1a:	2104      	movs	r1, #4
 8005b1c:	4798      	blx	r3
 8005b1e:	68e3      	ldr	r3, [r4, #12]
 8005b20:	6825      	ldr	r5, [r4, #0]
 8005b22:	2b00      	cmp	r3, #0
 8005b24:	f47f ae97 	bne.w	8005856 <OTG_FS_IRQHandler+0x246>
 8005b28:	69ab      	ldr	r3, [r5, #24]
 8005b2a:	f043 5300 	orr.w	r3, r3, #536870912	; 0x20000000
 8005b2e:	61ab      	str	r3, [r5, #24]
 8005b30:	e691      	b.n	8005856 <OTG_FS_IRQHandler+0x246>
 8005b32:	f8d8 300c 	ldr.w	r3, [r8, #12]
 8005b36:	f043 0302 	orr.w	r3, r3, #2
 8005b3a:	f8c8 300c 	str.w	r3, [r8, #12]
 8005b3e:	4659      	mov	r1, fp
 8005b40:	f7fa fd2a 	bl	8000598 <USB_HC_Halt>
 8005b44:	2310      	movs	r3, #16
 8005b46:	6820      	ldr	r0, [r4, #0]
 8005b48:	f8c8 3008 	str.w	r3, [r8, #8]
 8005b4c:	e610      	b.n	8005770 <OTG_FS_IRQHandler+0x160>
 8005b4e:	f8d8 1008 	ldr.w	r1, [r8, #8]
 8005b52:	060d      	lsls	r5, r1, #24
 8005b54:	f100 80d1 	bmi.w	8005cfa <OTG_FS_IRQHandler+0x6ea>
 8005b58:	f8d8 1008 	ldr.w	r1, [r8, #8]
 8005b5c:	06c9      	lsls	r1, r1, #27
 8005b5e:	f100 80aa 	bmi.w	8005cb6 <OTG_FS_IRQHandler+0x6a6>
 8005b62:	68a2      	ldr	r2, [r4, #8]
 8005b64:	e60e      	b.n	8005784 <OTG_FS_IRQHandler+0x174>
 8005b66:	f8d0 35c4 	ldr.w	r3, [r0, #1476]	; 0x5c4
 8005b6a:	2b00      	cmp	r3, #0
 8005b6c:	f43f aefa 	beq.w	8005964 <OTG_FS_IRQHandler+0x354>
 8005b70:	699b      	ldr	r3, [r3, #24]
 8005b72:	4798      	blx	r3
 8005b74:	6825      	ldr	r5, [r4, #0]
 8005b76:	e6f5      	b.n	8005964 <OTG_FS_IRQHandler+0x354>
 8005b78:	f3c3 1c0a 	ubfx	ip, r3, #4, #11
 8005b7c:	f1bc 0f00 	cmp.w	ip, #0
 8005b80:	f43f ad9b 	beq.w	80056ba <OTG_FS_IRQHandler+0xaa>
 8005b84:	f003 030f 	and.w	r3, r3, #15
 8005b88:	eb03 0283 	add.w	r2, r3, r3, lsl #2
 8005b8c:	eb04 02c2 	add.w	r2, r4, r2, lsl #3
 8005b90:	ea4f 0983 	mov.w	r9, r3, lsl #2
 8005b94:	f8d2 803c 	ldr.w	r8, [r2, #60]	; 0x3c
 8005b98:	f1b8 0f00 	cmp.w	r8, #0
 8005b9c:	f43f ad8d 	beq.w	80056ba <OTG_FS_IRQHandler+0xaa>
 8005ba0:	f10c 0603 	add.w	r6, ip, #3
 8005ba4:	10b6      	asrs	r6, r6, #2
 8005ba6:	f505 5e80 	add.w	lr, r5, #4096	; 0x1000
 8005baa:	4641      	mov	r1, r8
 8005bac:	2200      	movs	r2, #0
 8005bae:	3201      	adds	r2, #1
 8005bb0:	f8de 0000 	ldr.w	r0, [lr]
 8005bb4:	f841 0b04 	str.w	r0, [r1], #4
 8005bb8:	4296      	cmp	r6, r2
 8005bba:	d1f8      	bne.n	8005bae <OTG_FS_IRQHandler+0x59e>
 8005bbc:	4499      	add	r9, r3
 8005bbe:	f505 62a0 	add.w	r2, r5, #1280	; 0x500
 8005bc2:	eb04 04c9 	add.w	r4, r4, r9, lsl #3
 8005bc6:	eb02 1343 	add.w	r3, r2, r3, lsl #5
 8005bca:	6c61      	ldr	r1, [r4, #68]	; 0x44
 8005bcc:	691e      	ldr	r6, [r3, #16]
 8005bce:	48c4      	ldr	r0, [pc, #784]	; (8005ee0 <OTG_FS_IRQHandler+0x8d0>)
 8005bd0:	eb08 020c 	add.w	r2, r8, ip
 8005bd4:	4461      	add	r1, ip
 8005bd6:	4030      	ands	r0, r6
 8005bd8:	63e2      	str	r2, [r4, #60]	; 0x3c
 8005bda:	6461      	str	r1, [r4, #68]	; 0x44
 8005bdc:	2800      	cmp	r0, #0
 8005bde:	f43f ad6c 	beq.w	80056ba <OTG_FS_IRQHandler+0xaa>
 8005be2:	681a      	ldr	r2, [r3, #0]
 8005be4:	f022 4280 	bic.w	r2, r2, #1073741824	; 0x40000000
 8005be8:	601a      	str	r2, [r3, #0]
 8005bea:	681a      	ldr	r2, [r3, #0]
 8005bec:	f042 4200 	orr.w	r2, r2, #2147483648	; 0x80000000
 8005bf0:	601a      	str	r2, [r3, #0]
 8005bf2:	f894 3048 	ldrb.w	r3, [r4, #72]	; 0x48
 8005bf6:	f083 0301 	eor.w	r3, r3, #1
 8005bfa:	f884 3048 	strb.w	r3, [r4, #72]	; 0x48
 8005bfe:	e55c      	b.n	80056ba <OTG_FS_IRQHandler+0xaa>
 8005c00:	f8d8 3000 	ldr.w	r3, [r8]
 8005c04:	6825      	ldr	r5, [r4, #0]
 8005c06:	f023 032e 	bic.w	r3, r3, #46	; 0x2e
 8005c0a:	f8c8 3000 	str.w	r3, [r8]
 8005c0e:	e78b      	b.n	8005b28 <OTG_FS_IRQHandler+0x518>
 8005c10:	f881 c054 	strb.w	ip, [r1, #84]	; 0x54
 8005c14:	e6cc      	b.n	80059b0 <OTG_FS_IRQHandler+0x3a0>
 8005c16:	69ab      	ldr	r3, [r5, #24]
 8005c18:	f8d4 028c 	ldr.w	r0, [r4, #652]	; 0x28c
 8005c1c:	f023 5300 	bic.w	r3, r3, #536870912	; 0x20000000
 8005c20:	61ab      	str	r3, [r5, #24]
 8005c22:	7803      	ldrb	r3, [r0, #0]
 8005c24:	f003 02ff 	and.w	r2, r3, #255	; 0xff
 8005c28:	2b00      	cmp	r3, #0
 8005c2a:	f040 80a7 	bne.w	8005d7c <OTG_FS_IRQHandler+0x76c>
 8005c2e:	f8d0 3614 	ldr.w	r3, [r0, #1556]	; 0x614
 8005c32:	2101      	movs	r1, #1
 8005c34:	f880 121e 	strb.w	r1, [r0, #542]	; 0x21e
 8005c38:	7002      	strb	r2, [r0, #0]
 8005c3a:	2b00      	cmp	r3, #0
 8005c3c:	f43f ae02 	beq.w	8005844 <OTG_FS_IRQHandler+0x234>
 8005c40:	2104      	movs	r1, #4
 8005c42:	4798      	blx	r3
 8005c44:	e5fe      	b.n	8005844 <OTG_FS_IRQHandler+0x234>
 8005c46:	f8d8 500c 	ldr.w	r5, [r8, #12]
 8005c4a:	eb0b 018b 	add.w	r1, fp, fp, lsl #2
 8005c4e:	eb04 01c1 	add.w	r1, r4, r1, lsl #3
 8005c52:	f045 0502 	orr.w	r5, r5, #2
 8005c56:	f04f 0c05 	mov.w	ip, #5
 8005c5a:	f8c8 500c 	str.w	r5, [r8, #12]
 8005c5e:	f881 c055 	strb.w	ip, [r1, #85]	; 0x55
 8005c62:	2510      	movs	r5, #16
 8005c64:	f04f 0c08 	mov.w	ip, #8
 8005c68:	f8c8 5008 	str.w	r5, [r8, #8]
 8005c6c:	4659      	mov	r1, fp
 8005c6e:	f8c8 c008 	str.w	ip, [r8, #8]
 8005c72:	e9cd 2302 	strd	r2, r3, [sp, #8]
 8005c76:	f7fa fc8f 	bl	8000598 <USB_HC_Halt>
 8005c7a:	e9dd 2302 	ldrd	r2, r3, [sp, #8]
 8005c7e:	6820      	ldr	r0, [r4, #0]
 8005c80:	e546      	b.n	8005710 <OTG_FS_IRQHandler+0x100>
 8005c82:	eb01 0381 	add.w	r3, r1, r1, lsl #2
 8005c86:	eb04 03c3 	add.w	r3, r4, r3, lsl #3
 8005c8a:	2204      	movs	r2, #4
 8005c8c:	f883 2055 	strb.w	r2, [r3, #85]	; 0x55
 8005c90:	68ea      	ldr	r2, [r5, #12]
 8005c92:	f8c3 c050 	str.w	ip, [r3, #80]	; 0x50
 8005c96:	f042 0202 	orr.w	r2, r2, #2
 8005c9a:	60ea      	str	r2, [r5, #12]
 8005c9c:	f7fa fc7c 	bl	8000598 <USB_HC_Halt>
 8005ca0:	2340      	movs	r3, #64	; 0x40
 8005ca2:	60ab      	str	r3, [r5, #8]
 8005ca4:	68a2      	ldr	r2, [r4, #8]
 8005ca6:	6820      	ldr	r0, [r4, #0]
 8005ca8:	e56c      	b.n	8005784 <OTG_FS_IRQHandler+0x174>
 8005caa:	7803      	ldrb	r3, [r0, #0]
 8005cac:	2b01      	cmp	r3, #1
 8005cae:	bf04      	itt	eq
 8005cb0:	2302      	moveq	r3, #2
 8005cb2:	7003      	strbeq	r3, [r0, #0]
 8005cb4:	e733      	b.n	8005b1e <OTG_FS_IRQHandler+0x50e>
 8005cb6:	eb0b 018b 	add.w	r1, fp, fp, lsl #2
 8005cba:	eb04 01c1 	add.w	r1, r4, r1, lsl #3
 8005cbe:	ea4f 058b 	mov.w	r5, fp, lsl #2
 8005cc2:	f891 1037 	ldrb.w	r1, [r1, #55]	; 0x37
 8005cc6:	2903      	cmp	r1, #3
 8005cc8:	f000 80c7 	beq.w	8005e5a <OTG_FS_IRQHandler+0x84a>
 8005ccc:	f011 0ffd 	tst.w	r1, #253	; 0xfd
 8005cd0:	d107      	bne.n	8005ce2 <OTG_FS_IRQHandler+0x6d2>
 8005cd2:	58d1      	ldr	r1, [r2, r3]
 8005cd4:	f021 4180 	bic.w	r1, r1, #1073741824	; 0x40000000
 8005cd8:	50d1      	str	r1, [r2, r3]
 8005cda:	58d1      	ldr	r1, [r2, r3]
 8005cdc:	f041 4100 	orr.w	r1, r1, #2147483648	; 0x80000000
 8005ce0:	50d1      	str	r1, [r2, r3]
 8005ce2:	eb05 030b 	add.w	r3, r5, fp
 8005ce6:	eb04 03c3 	add.w	r3, r4, r3, lsl #3
 8005cea:	2203      	movs	r2, #3
 8005cec:	2110      	movs	r1, #16
 8005cee:	f883 2055 	strb.w	r2, [r3, #85]	; 0x55
 8005cf2:	68a2      	ldr	r2, [r4, #8]
 8005cf4:	f8c8 1008 	str.w	r1, [r8, #8]
 8005cf8:	e544      	b.n	8005784 <OTG_FS_IRQHandler+0x174>
 8005cfa:	eb0b 028b 	add.w	r2, fp, fp, lsl #2
 8005cfe:	eb04 02c2 	add.w	r2, r4, r2, lsl #3
 8005d02:	f8d8 500c 	ldr.w	r5, [r8, #12]
 8005d06:	6d13      	ldr	r3, [r2, #80]	; 0x50
 8005d08:	f045 0502 	orr.w	r5, r5, #2
 8005d0c:	f8c8 500c 	str.w	r5, [r8, #12]
 8005d10:	3301      	adds	r3, #1
 8005d12:	2506      	movs	r5, #6
 8005d14:	6513      	str	r3, [r2, #80]	; 0x50
 8005d16:	f882 5055 	strb.w	r5, [r2, #85]	; 0x55
 8005d1a:	4659      	mov	r1, fp
 8005d1c:	f7fa fc3c 	bl	8000598 <USB_HC_Halt>
 8005d20:	2380      	movs	r3, #128	; 0x80
 8005d22:	f8c8 3008 	str.w	r3, [r8, #8]
 8005d26:	68a2      	ldr	r2, [r4, #8]
 8005d28:	6820      	ldr	r0, [r4, #0]
 8005d2a:	e52b      	b.n	8005784 <OTG_FS_IRQHandler+0x174>
 8005d2c:	68eb      	ldr	r3, [r5, #12]
 8005d2e:	f043 0302 	orr.w	r3, r3, #2
 8005d32:	60eb      	str	r3, [r5, #12]
 8005d34:	f7fa fc30 	bl	8000598 <USB_HC_Halt>
 8005d38:	f44f 7300 	mov.w	r3, #512	; 0x200
 8005d3c:	60ab      	str	r3, [r5, #8]
 8005d3e:	68a2      	ldr	r2, [r4, #8]
 8005d40:	6820      	ldr	r0, [r4, #0]
 8005d42:	e51f      	b.n	8005784 <OTG_FS_IRQHandler+0x174>
 8005d44:	9b06      	ldr	r3, [sp, #24]
 8005d46:	f403 23c0 	and.w	r3, r3, #393216	; 0x60000
 8005d4a:	f5b3 2f80 	cmp.w	r3, #262144	; 0x40000
 8005d4e:	6823      	ldr	r3, [r4, #0]
 8005d50:	f8d3 2400 	ldr.w	r2, [r3, #1024]	; 0x400
 8005d54:	f022 0203 	bic.w	r2, r2, #3
 8005d58:	f8c3 2400 	str.w	r2, [r3, #1024]	; 0x400
 8005d5c:	f8d3 2400 	ldr.w	r2, [r3, #1024]	; 0x400
 8005d60:	bf07      	ittee	eq
 8005d62:	f241 7070 	movweq	r0, #6000	; 0x1770
 8005d66:	f042 0202 	orreq.w	r2, r2, #2
 8005d6a:	f042 0201 	orrne.w	r2, r2, #1
 8005d6e:	f64b 3080 	movwne	r0, #48000	; 0xbb80
 8005d72:	f8c3 2400 	str.w	r2, [r3, #1024]	; 0x400
 8005d76:	f8c3 0404 	str.w	r0, [r3, #1028]	; 0x404
 8005d7a:	e6bf      	b.n	8005afc <OTG_FS_IRQHandler+0x4ec>
 8005d7c:	7803      	ldrb	r3, [r0, #0]
 8005d7e:	2b01      	cmp	r3, #1
 8005d80:	bf04      	itt	eq
 8005d82:	2302      	moveq	r3, #2
 8005d84:	7003      	strbeq	r3, [r0, #0]
 8005d86:	e55d      	b.n	8005844 <OTG_FS_IRQHandler+0x234>
 8005d88:	eb05 010b 	add.w	r1, r5, fp
 8005d8c:	eb04 01c1 	add.w	r1, r4, r1, lsl #3
 8005d90:	f8d1 c050 	ldr.w	ip, [r1, #80]	; 0x50
 8005d94:	f1bc 0f03 	cmp.w	ip, #3
 8005d98:	d844      	bhi.n	8005e24 <OTG_FS_IRQHandler+0x814>
 8005d9a:	f10c 0c01 	add.w	ip, ip, #1
 8005d9e:	f8c1 c050 	str.w	ip, [r1, #80]	; 0x50
 8005da2:	f04f 0c02 	mov.w	ip, #2
 8005da6:	eb05 010b 	add.w	r1, r5, fp
 8005daa:	eb04 01c1 	add.w	r1, r4, r1, lsl #3
 8005dae:	f881 c054 	strb.w	ip, [r1, #84]	; 0x54
 8005db2:	58d1      	ldr	r1, [r2, r3]
 8005db4:	f021 4180 	bic.w	r1, r1, #1073741824	; 0x40000000
 8005db8:	50d1      	str	r1, [r2, r3]
 8005dba:	58d1      	ldr	r1, [r2, r3]
 8005dbc:	f041 4100 	orr.w	r1, r1, #2147483648	; 0x80000000
 8005dc0:	50d1      	str	r1, [r2, r3]
 8005dc2:	e5f5      	b.n	80059b0 <OTG_FS_IRQHandler+0x3a0>
 8005dc4:	68eb      	ldr	r3, [r5, #12]
 8005dc6:	eb01 0881 	add.w	r8, r1, r1, lsl #2
 8005dca:	eb04 08c8 	add.w	r8, r4, r8, lsl #3
 8005dce:	f043 0302 	orr.w	r3, r3, #2
 8005dd2:	f8c8 c050 	str.w	ip, [r8, #80]	; 0x50
 8005dd6:	60eb      	str	r3, [r5, #12]
 8005dd8:	f7fa fbde 	bl	8000598 <USB_HC_Halt>
 8005ddc:	f8c5 a008 	str.w	sl, [r5, #8]
 8005de0:	68a2      	ldr	r2, [r4, #8]
 8005de2:	6820      	ldr	r0, [r4, #0]
 8005de4:	f888 a055 	strb.w	sl, [r8, #85]	; 0x55
 8005de8:	e4cc      	b.n	8005784 <OTG_FS_IRQHandler+0x174>
 8005dea:	f852 c003 	ldr.w	ip, [r2, r3]
 8005dee:	f04c 5c00 	orr.w	ip, ip, #536870912	; 0x20000000
 8005df2:	f842 c003 	str.w	ip, [r2, r3]
 8005df6:	f881 a054 	strb.w	sl, [r1, #84]	; 0x54
 8005dfa:	e4b9      	b.n	8005770 <OTG_FS_IRQHandler+0x160>
 8005dfc:	2308      	movs	r3, #8
 8005dfe:	60ab      	str	r3, [r5, #8]
 8005e00:	68eb      	ldr	r3, [r5, #12]
 8005e02:	9102      	str	r1, [sp, #8]
 8005e04:	f043 0302 	orr.w	r3, r3, #2
 8005e08:	60eb      	str	r3, [r5, #12]
 8005e0a:	f7fa fbc5 	bl	8000598 <USB_HC_Halt>
 8005e0e:	9902      	ldr	r1, [sp, #8]
 8005e10:	6820      	ldr	r0, [r4, #0]
 8005e12:	eb01 0181 	add.w	r1, r1, r1, lsl #2
 8005e16:	eb04 03c1 	add.w	r3, r4, r1, lsl #3
 8005e1a:	2205      	movs	r2, #5
 8005e1c:	f883 2055 	strb.w	r2, [r3, #85]	; 0x55
 8005e20:	68a2      	ldr	r2, [r4, #8]
 8005e22:	e4af      	b.n	8005784 <OTG_FS_IRQHandler+0x174>
 8005e24:	f04f 0c00 	mov.w	ip, #0
 8005e28:	f8c1 c050 	str.w	ip, [r1, #80]	; 0x50
 8005e2c:	f04f 0c04 	mov.w	ip, #4
 8005e30:	e7b9      	b.n	8005da6 <OTG_FS_IRQHandler+0x796>
 8005e32:	68eb      	ldr	r3, [r5, #12]
 8005e34:	eb01 0881 	add.w	r8, r1, r1, lsl #2
 8005e38:	eb04 08c8 	add.w	r8, r4, r8, lsl #3
 8005e3c:	f043 0302 	orr.w	r3, r3, #2
 8005e40:	f8c8 c050 	str.w	ip, [r8, #80]	; 0x50
 8005e44:	60eb      	str	r3, [r5, #12]
 8005e46:	f7fa fba7 	bl	8000598 <USB_HC_Halt>
 8005e4a:	2203      	movs	r2, #3
 8005e4c:	2310      	movs	r3, #16
 8005e4e:	f888 2055 	strb.w	r2, [r8, #85]	; 0x55
 8005e52:	6820      	ldr	r0, [r4, #0]
 8005e54:	68a2      	ldr	r2, [r4, #8]
 8005e56:	60ab      	str	r3, [r5, #8]
 8005e58:	e494      	b.n	8005784 <OTG_FS_IRQHandler+0x174>
 8005e5a:	f8d8 300c 	ldr.w	r3, [r8, #12]
 8005e5e:	f043 0302 	orr.w	r3, r3, #2
 8005e62:	f8c8 300c 	str.w	r3, [r8, #12]
 8005e66:	4659      	mov	r1, fp
 8005e68:	f7fa fb96 	bl	8000598 <USB_HC_Halt>
 8005e6c:	6820      	ldr	r0, [r4, #0]
 8005e6e:	e738      	b.n	8005ce2 <OTG_FS_IRQHandler+0x6d2>
 8005e70:	68eb      	ldr	r3, [r5, #12]
 8005e72:	9102      	str	r1, [sp, #8]
 8005e74:	f043 0302 	orr.w	r3, r3, #2
 8005e78:	60eb      	str	r3, [r5, #12]
 8005e7a:	f7fa fb8d 	bl	8000598 <USB_HC_Halt>
 8005e7e:	9902      	ldr	r1, [sp, #8]
 8005e80:	6820      	ldr	r0, [r4, #0]
 8005e82:	2328      	movs	r3, #40	; 0x28
 8005e84:	fb03 4101 	mla	r1, r3, r1, r4
 8005e88:	2206      	movs	r2, #6
 8005e8a:	2380      	movs	r3, #128	; 0x80
 8005e8c:	f881 2055 	strb.w	r2, [r1, #85]	; 0x55
 8005e90:	68a2      	ldr	r2, [r4, #8]
 8005e92:	60ab      	str	r3, [r5, #8]
 8005e94:	e476      	b.n	8005784 <OTG_FS_IRQHandler+0x174>
 8005e96:	68eb      	ldr	r3, [r5, #12]
 8005e98:	9102      	str	r1, [sp, #8]
 8005e9a:	f043 0302 	orr.w	r3, r3, #2
 8005e9e:	60eb      	str	r3, [r5, #12]
 8005ea0:	f7fa fb7a 	bl	8000598 <USB_HC_Halt>
 8005ea4:	9902      	ldr	r1, [sp, #8]
 8005ea6:	2328      	movs	r3, #40	; 0x28
 8005ea8:	fb03 4101 	mla	r1, r3, r1, r4
 8005eac:	2010      	movs	r0, #16
 8005eae:	f44f 6280 	mov.w	r2, #1024	; 0x400
 8005eb2:	2308      	movs	r3, #8
 8005eb4:	60a8      	str	r0, [r5, #8]
 8005eb6:	60aa      	str	r2, [r5, #8]
 8005eb8:	6820      	ldr	r0, [r4, #0]
 8005eba:	68a2      	ldr	r2, [r4, #8]
 8005ebc:	f881 3055 	strb.w	r3, [r1, #85]	; 0x55
 8005ec0:	e460      	b.n	8005784 <OTG_FS_IRQHandler+0x174>
 8005ec2:	f89c 3037 	ldrb.w	r3, [ip, #55]	; 0x37
 8005ec6:	f88c 8054 	strb.w	r8, [ip, #84]	; 0x54
 8005eca:	2b02      	cmp	r3, #2
 8005ecc:	f47f add9 	bne.w	8005a82 <OTG_FS_IRQHandler+0x472>
 8005ed0:	f89c 3049 	ldrb.w	r3, [ip, #73]	; 0x49
 8005ed4:	f083 0301 	eor.w	r3, r3, #1
 8005ed8:	f88c 3049 	strb.w	r3, [ip, #73]	; 0x49
 8005edc:	e5d1      	b.n	8005a82 <OTG_FS_IRQHandler+0x472>
 8005ede:	bf00      	nop
 8005ee0:	1ff80000 	.word	0x1ff80000
 8005ee4:	f04f 0c28 	mov.w	ip, #40	; 0x28
 8005ee8:	fb0c 4801 	mla	r8, ip, r1, r4
 8005eec:	f8d8 c050 	ldr.w	ip, [r8, #80]	; 0x50
 8005ef0:	f1bc 0f03 	cmp.w	ip, #3
 8005ef4:	d825      	bhi.n	8005f42 <OTG_FS_IRQHandler+0x932>
 8005ef6:	f10c 0c01 	add.w	ip, ip, #1
 8005efa:	f8c8 c050 	str.w	ip, [r8, #80]	; 0x50
 8005efe:	f04f 0c02 	mov.w	ip, #2
 8005f02:	f04f 0828 	mov.w	r8, #40	; 0x28
 8005f06:	fb08 4101 	mla	r1, r8, r1, r4
 8005f0a:	f881 c054 	strb.w	ip, [r1, #84]	; 0x54
 8005f0e:	f85e 1003 	ldr.w	r1, [lr, r3]
 8005f12:	f021 4180 	bic.w	r1, r1, #1073741824	; 0x40000000
 8005f16:	f84e 1003 	str.w	r1, [lr, r3]
 8005f1a:	f85e 1003 	ldr.w	r1, [lr, r3]
 8005f1e:	f041 4100 	orr.w	r1, r1, #2147483648	; 0x80000000
 8005f22:	f84e 1003 	str.w	r1, [lr, r3]
 8005f26:	e5ac      	b.n	8005a82 <OTG_FS_IRQHandler+0x472>
 8005f28:	2302      	movs	r3, #2
 8005f2a:	f88c b035 	strb.w	fp, [ip, #53]	; 0x35
 8005f2e:	f88c 3054 	strb.w	r3, [ip, #84]	; 0x54
 8005f32:	e5a6      	b.n	8005a82 <OTG_FS_IRQHandler+0x472>
 8005f34:	2302      	movs	r3, #2
 8005f36:	f88c 3054 	strb.w	r3, [ip, #84]	; 0x54
 8005f3a:	e5a2      	b.n	8005a82 <OTG_FS_IRQHandler+0x472>
 8005f3c:	f88c 8054 	strb.w	r8, [ip, #84]	; 0x54
 8005f40:	e59f      	b.n	8005a82 <OTG_FS_IRQHandler+0x472>
 8005f42:	f04f 0c00 	mov.w	ip, #0
 8005f46:	f8c8 c050 	str.w	ip, [r8, #80]	; 0x50
 8005f4a:	f04f 0c04 	mov.w	ip, #4
 8005f4e:	e7d8      	b.n	8005f02 <OTG_FS_IRQHandler+0x8f2>

08005f50 <TIM4_IRQHandler>:
TIM4_IRQHandler():
 8005f50:	4770      	bx	lr
 8005f52:	bf00      	nop

08005f54 <NMI_Handler>:
HAL_MspInit():
 8005f54:	4770      	bx	lr
 8005f56:	bf00      	nop

08005f58 <DMA1_Stream3_IRQHandler>:
DMA1_Stream3_IRQHandler():
 8005f58:	2000      	movs	r0, #0
 8005f5a:	f7fb bb3b 	b.w	80015d4 <HAL_DMA_IRQHandler>
 8005f5e:	bf00      	nop

08005f60 <DMA1_Stream7_IRQHandler>:
DMA1_Stream7_IRQHandler():
 8005f60:	4b01      	ldr	r3, [pc, #4]	; (8005f68 <DMA1_Stream7_IRQHandler+0x8>)
 8005f62:	6b58      	ldr	r0, [r3, #52]	; 0x34
 8005f64:	f7fb bb36 	b.w	80015d4 <HAL_DMA_IRQHandler>
 8005f68:	2001edec 	.word	0x2001edec

08005f6c <EXTI1_IRQHandler>:
EXTI1_IRQHandler():
 8005f6c:	4b03      	ldr	r3, [pc, #12]	; (8005f7c <EXTI1_IRQHandler+0x10>)
 8005f6e:	695a      	ldr	r2, [r3, #20]
 8005f70:	0792      	lsls	r2, r2, #30
 8005f72:	bf44      	itt	mi
 8005f74:	2202      	movmi	r2, #2
 8005f76:	615a      	strmi	r2, [r3, #20]
 8005f78:	4770      	bx	lr
 8005f7a:	bf00      	nop
 8005f7c:	40013c00 	.word	0x40013c00

08005f80 <EXTI0_IRQHandler>:
EXTI0_IRQHandler():
 8005f80:	4b03      	ldr	r3, [pc, #12]	; (8005f90 <EXTI0_IRQHandler+0x10>)
 8005f82:	695a      	ldr	r2, [r3, #20]
 8005f84:	07d2      	lsls	r2, r2, #31
 8005f86:	bf44      	itt	mi
 8005f88:	2201      	movmi	r2, #1
 8005f8a:	615a      	strmi	r2, [r3, #20]
 8005f8c:	4770      	bx	lr
 8005f8e:	bf00      	nop
 8005f90:	40013c00 	.word	0x40013c00

08005f94 <SysTick_Handler>:
SysTick_Handler():
 8005f94:	4926      	ldr	r1, [pc, #152]	; (8006030 <SysTick_Handler+0x9c>)
 8005f96:	4827      	ldr	r0, [pc, #156]	; (8006034 <SysTick_Handler+0xa0>)
 8005f98:	680b      	ldr	r3, [r1, #0]
 8005f9a:	6802      	ldr	r2, [r0, #0]
 8005f9c:	3301      	adds	r3, #1
 8005f9e:	b510      	push	{r4, lr}
 8005fa0:	600b      	str	r3, [r1, #0]
 8005fa2:	b10a      	cbz	r2, 8005fa8 <SysTick_Handler+0x14>
 8005fa4:	3a01      	subs	r2, #1
 8005fa6:	6002      	str	r2, [r0, #0]
 8005fa8:	4a23      	ldr	r2, [pc, #140]	; (8006038 <SysTick_Handler+0xa4>)
 8005faa:	6813      	ldr	r3, [r2, #0]
 8005fac:	b10b      	cbz	r3, 8005fb2 <SysTick_Handler+0x1e>
 8005fae:	3b01      	subs	r3, #1
 8005fb0:	6013      	str	r3, [r2, #0]
 8005fb2:	4a22      	ldr	r2, [pc, #136]	; (800603c <SysTick_Handler+0xa8>)
 8005fb4:	68d3      	ldr	r3, [r2, #12]
 8005fb6:	3b01      	subs	r3, #1
 8005fb8:	60d3      	str	r3, [r2, #12]
 8005fba:	b33b      	cbz	r3, 800600c <SysTick_Handler+0x78>
 8005fbc:	4b20      	ldr	r3, [pc, #128]	; (8006040 <SysTick_Handler+0xac>)
 8005fbe:	4821      	ldr	r0, [pc, #132]	; (8006044 <SysTick_Handler+0xb0>)
 8005fc0:	691a      	ldr	r2, [r3, #16]
 8005fc2:	7801      	ldrb	r1, [r0, #0]
 8005fc4:	f002 0401 	and.w	r4, r2, #1
 8005fc8:	42a1      	cmp	r1, r4
 8005fca:	491f      	ldr	r1, [pc, #124]	; (8006048 <SysTick_Handler+0xb4>)
 8005fcc:	d01b      	beq.n	8006006 <SysTick_Handler+0x72>
 8005fce:	780b      	ldrb	r3, [r1, #0]
 8005fd0:	3b01      	subs	r3, #1
 8005fd2:	b2db      	uxtb	r3, r3
 8005fd4:	700b      	strb	r3, [r1, #0]
 8005fd6:	b9ab      	cbnz	r3, 8006004 <SysTick_Handler+0x70>
 8005fd8:	7004      	strb	r4, [r0, #0]
 8005fda:	b1a4      	cbz	r4, 8006006 <SysTick_Handler+0x72>
 8005fdc:	4a1b      	ldr	r2, [pc, #108]	; (800604c <SysTick_Handler+0xb8>)
 8005fde:	7813      	ldrb	r3, [r2, #0]
 8005fe0:	2005      	movs	r0, #5
 8005fe2:	f083 0301 	eor.w	r3, r3, #1
 8005fe6:	7013      	strb	r3, [r2, #0]
 8005fe8:	7008      	strb	r0, [r1, #0]
 8005fea:	b1a3      	cbz	r3, 8006016 <SysTick_Handler+0x82>
 8005fec:	4b18      	ldr	r3, [pc, #96]	; (8006050 <SysTick_Handler+0xbc>)
 8005fee:	4819      	ldr	r0, [pc, #100]	; (8006054 <SysTick_Handler+0xc0>)
 8005ff0:	2100      	movs	r1, #0
 8005ff2:	2280      	movs	r2, #128	; 0x80
 8005ff4:	7019      	strb	r1, [r3, #0]
 8005ff6:	f008 fd59 	bl	800eaac <memset>
 8005ffa:	4a17      	ldr	r2, [pc, #92]	; (8006058 <SysTick_Handler+0xc4>)
 8005ffc:	6953      	ldr	r3, [r2, #20]
 8005ffe:	f483 4380 	eor.w	r3, r3, #16384	; 0x4000
 8006002:	6153      	str	r3, [r2, #20]
 8006004:	bd10      	pop	{r4, pc}
 8006006:	2305      	movs	r3, #5
 8006008:	700b      	strb	r3, [r1, #0]
 800600a:	bd10      	pop	{r4, pc}
 800600c:	4b12      	ldr	r3, [pc, #72]	; (8006058 <SysTick_Handler+0xc4>)
 800600e:	f44f 4200 	mov.w	r2, #32768	; 0x8000
 8006012:	835a      	strh	r2, [r3, #26]
 8006014:	e7d2      	b.n	8005fbc <SysTick_Handler+0x28>
 8006016:	4a11      	ldr	r2, [pc, #68]	; (800605c <SysTick_Handler+0xc8>)
 8006018:	2000      	movs	r0, #0
 800601a:	6f51      	ldr	r1, [r2, #116]	; 0x74
 800601c:	f8c2 308c 	str.w	r3, [r2, #140]	; 0x8c
 8006020:	2303      	movs	r3, #3
 8006022:	f8c2 0080 	str.w	r0, [r2, #128]	; 0x80
 8006026:	f8c2 1084 	str.w	r1, [r2, #132]	; 0x84
 800602a:	f8c2 3088 	str.w	r3, [r2, #136]	; 0x88
 800602e:	e7dd      	b.n	8005fec <SysTick_Handler+0x58>
 8006030:	2001f7dc 	.word	0x2001f7dc
 8006034:	20000960 	.word	0x20000960
 8006038:	20000964 	.word	0x20000964
 800603c:	20000904 	.word	0x20000904
 8006040:	40020000 	.word	0x40020000
 8006044:	200008c9 	.word	0x200008c9
 8006048:	20000000 	.word	0x20000000
 800604c:	2000005c 	.word	0x2000005c
 8006050:	2001f72c 	.word	0x2001f72c
 8006054:	2001f730 	.word	0x2001f730
 8006058:	40020c00 	.word	0x40020c00
 800605c:	10000000 	.word	0x10000000

08006060 <PendSV_Handler>:
PendSV_Handler():
 8006060:	4770      	bx	lr
 8006062:	bf00      	nop

08006064 <DebugMon_Handler>:
DebugMon_Handler():
 8006064:	4770      	bx	lr
 8006066:	bf00      	nop

08006068 <SVC_Handler>:
SVC_Handler():
 8006068:	4770      	bx	lr
 800606a:	bf00      	nop

0800606c <UsageFault_Handler>:
UsageFault_Handler():
 800606c:	e7fe      	b.n	800606c <UsageFault_Handler>
 800606e:	bf00      	nop

08006070 <BusFault_Handler>:
BusFault_Handler():
 8006070:	e7fe      	b.n	8006070 <BusFault_Handler>
 8006072:	bf00      	nop

08006074 <MemManage_Handler>:
MemManage_Handler():
 8006074:	e7fe      	b.n	8006074 <MemManage_Handler>
 8006076:	bf00      	nop

08006078 <HardFault_Handler>:
BSP_AUDIO_OUT_Error_CallBack():
 8006078:	e7fe      	b.n	8006078 <HardFault_Handler>
 800607a:	bf00      	nop

0800607c <Synth_Init>:
Synth_Init():
 800607c:	e92d 4f70 	stmdb	sp!, {r4, r5, r6, r8, r9, sl, fp, lr}
 8006080:	49e8      	ldr	r1, [pc, #928]	; (8006424 <Synth_Init+0x3a8>)
 8006082:	4ae9      	ldr	r2, [pc, #932]	; (8006428 <Synth_Init+0x3ac>)
 8006084:	4ce9      	ldr	r4, [pc, #932]	; (800642c <Synth_Init+0x3b0>)
 8006086:	4bea      	ldr	r3, [pc, #936]	; (8006430 <Synth_Init+0x3b4>)
 8006088:	f8df a420 	ldr.w	sl, [pc, #1056]	; 80064ac <Synth_Init+0x430>
 800608c:	f8c4 a0ac 	str.w	sl, [r4, #172]	; 0xac
 8006090:	f243 20c8 	movw	r0, #13000	; 0x32c8
 8006094:	ed2d 8b0a 	vpush	{d8-d12}
 8006098:	eddf bae6 	vldr	s23, [pc, #920]	; 8006434 <Synth_Init+0x3b8>
 800609c:	ed9f aae6 	vldr	s20, [pc, #920]	; 8006438 <Synth_Init+0x3bc>
 80060a0:	6008      	str	r0, [r1, #0]
 80060a2:	49e6      	ldr	r1, [pc, #920]	; (800643c <Synth_Init+0x3c0>)
 80060a4:	6011      	str	r1, [r2, #0]
 80060a6:	2500      	movs	r5, #0
 80060a8:	2600      	movs	r6, #0
 80060aa:	eeb7 8a00 	vmov.f32	s16, #112	; 0x3f800000  1.0
 80060ae:	4ae4      	ldr	r2, [pc, #912]	; (8006440 <Synth_Init+0x3c4>)
 80060b0:	601a      	str	r2, [r3, #0]
 80060b2:	f04f 4b80 	mov.w	fp, #1073741824	; 0x40000000
 80060b6:	eeb1 ca00 	vmov.f32	s24, #16	; 0x40800000  4.0
 80060ba:	f884 6094 	strb.w	r6, [r4, #148]	; 0x94
 80060be:	f884 6095 	strb.w	r6, [r4, #149]	; 0x95
 80060c2:	f884 6096 	strb.w	r6, [r4, #150]	; 0x96
 80060c6:	f884 6097 	strb.w	r6, [r4, #151]	; 0x97
 80060ca:	f884 6098 	strb.w	r6, [r4, #152]	; 0x98
 80060ce:	f884 6099 	strb.w	r6, [r4, #153]	; 0x99
 80060d2:	f8c4 60b4 	str.w	r6, [r4, #180]	; 0xb4
 80060d6:	f8c4 b0a0 	str.w	fp, [r4, #160]	; 0xa0
 80060da:	f8c4 50bc 	str.w	r5, [r4, #188]	; 0xbc
 80060de:	ed84 8a24 	vstr	s16, [r4, #144]	; 0x90
 80060e2:	f8c4 50b8 	str.w	r5, [r4, #184]	; 0xb8
 80060e6:	ed84 ca27 	vstr	s24, [r4, #156]	; 0x9c
 80060ea:	ed84 aa29 	vstr	s20, [r4, #164]	; 0xa4
 80060ee:	edc4 ba2a 	vstr	s23, [r4, #168]	; 0xa8
 80060f2:	f008 fd33 	bl	800eb5c <rand>
 80060f6:	ee07 0a90 	vmov	s15, r0
 80060fa:	eddf aad2 	vldr	s21, [pc, #840]	; 8006444 <Synth_Init+0x3c8>
 80060fe:	f8df 83b0 	ldr.w	r8, [pc, #944]	; 80064b0 <Synth_Init+0x434>
 8006102:	ed9f bad1 	vldr	s22, [pc, #836]	; 8006448 <Synth_Init+0x3cc>
 8006106:	eddf 9ad1 	vldr	s19, [pc, #836]	; 800644c <Synth_Init+0x3d0>
 800610a:	eeb8 7ae7 	vcvt.f32.s32	s14, s15
 800610e:	f04f 0901 	mov.w	r9, #1
 8006112:	ee27 7a2a 	vmul.f32	s14, s14, s21
 8006116:	eeb0 9a6a 	vmov.f32	s18, s21
 800611a:	ee27 7a2b 	vmul.f32	s14, s14, s23
 800611e:	eef0 8a4b 	vmov.f32	s17, s22
 8006122:	ee37 7a2b 	vadd.f32	s14, s14, s23
 8006126:	eebc 7ac7 	vcvt.u32.f32	s14, s14
 800612a:	ed84 7a2c 	vstr	s14, [r4, #176]	; 0xb0
 800612e:	f008 fd15 	bl	800eb5c <rand>
 8006132:	ee07 0a90 	vmov	s15, r0
 8006136:	eeb8 7ae7 	vcvt.f32.s32	s14, s15
 800613a:	edd4 6a2e 	vldr	s13, [r4, #184]	; 0xb8
 800613e:	edd4 7a2c 	vldr	s15, [r4, #176]	; 0xb0
 8006142:	f8c4 b0cc 	str.w	fp, [r4, #204]	; 0xcc
 8006146:	ee27 7a2a 	vmul.f32	s14, s14, s21
 800614a:	eef8 7a67 	vcvt.f32.u32	s15, s15
 800614e:	ee37 7a07 	vadd.f32	s14, s14, s14
 8006152:	f8c4 60e0 	str.w	r6, [r4, #224]	; 0xe0
 8006156:	ee37 7a48 	vsub.f32	s14, s14, s16
 800615a:	f8c4 a0d8 	str.w	sl, [r4, #216]	; 0xd8
 800615e:	ee77 6a66 	vsub.f32	s13, s14, s13
 8006162:	ed84 7a2f 	vstr	s14, [r4, #188]	; 0xbc
 8006166:	ee86 6aa7 	vdiv.f32	s12, s13, s15
 800616a:	f8c4 50e8 	str.w	r5, [r4, #232]	; 0xe8
 800616e:	f8c4 50e4 	str.w	r5, [r4, #228]	; 0xe4
 8006172:	ed84 ca32 	vstr	s24, [r4, #200]	; 0xc8
 8006176:	ed84 6a30 	vstr	s12, [r4, #192]	; 0xc0
 800617a:	ed84 aa34 	vstr	s20, [r4, #208]	; 0xd0
 800617e:	edc4 ba35 	vstr	s23, [r4, #212]	; 0xd4
 8006182:	f008 fceb 	bl	800eb5c <rand>
 8006186:	ee07 0a90 	vmov	s15, r0
 800618a:	eeb8 7ae7 	vcvt.f32.s32	s14, s15
 800618e:	ee27 7a2a 	vmul.f32	s14, s14, s21
 8006192:	ee27 7a2b 	vmul.f32	s14, s14, s23
 8006196:	ee37 7a2b 	vadd.f32	s14, s14, s23
 800619a:	eebc 7ac7 	vcvt.u32.f32	s14, s14
 800619e:	ed84 7a37 	vstr	s14, [r4, #220]	; 0xdc
 80061a2:	f008 fcdb 	bl	800eb5c <rand>
 80061a6:	ee07 0a90 	vmov	s15, r0
 80061aa:	eeb8 7ae7 	vcvt.f32.s32	s14, s15
 80061ae:	edd4 6a39 	vldr	s13, [r4, #228]	; 0xe4
 80061b2:	edd4 7a37 	vldr	s15, [r4, #220]	; 0xdc
 80061b6:	f8c4 b0f8 	str.w	fp, [r4, #248]	; 0xf8
 80061ba:	ee27 7a2a 	vmul.f32	s14, s14, s21
 80061be:	eef8 7a67 	vcvt.f32.u32	s15, s15
 80061c2:	ee37 7a07 	vadd.f32	s14, s14, s14
 80061c6:	f8c4 610c 	str.w	r6, [r4, #268]	; 0x10c
 80061ca:	ee37 7a48 	vsub.f32	s14, s14, s16
 80061ce:	f8c4 a104 	str.w	sl, [r4, #260]	; 0x104
 80061d2:	ee77 6a66 	vsub.f32	s13, s14, s13
 80061d6:	ed84 7a3a 	vstr	s14, [r4, #232]	; 0xe8
 80061da:	ee86 6aa7 	vdiv.f32	s12, s13, s15
 80061de:	f8c4 5114 	str.w	r5, [r4, #276]	; 0x114
 80061e2:	f8c4 5110 	str.w	r5, [r4, #272]	; 0x110
 80061e6:	f504 7b22 	add.w	fp, r4, #648	; 0x288
 80061ea:	f504 7a2d 	add.w	sl, r4, #692	; 0x2b4
 80061ee:	ed84 ca3d 	vstr	s24, [r4, #244]	; 0xf4
 80061f2:	ed84 6a3b 	vstr	s12, [r4, #236]	; 0xec
 80061f6:	ed84 aa3f 	vstr	s20, [r4, #252]	; 0xfc
 80061fa:	edc4 ba40 	vstr	s23, [r4, #256]	; 0x100
 80061fe:	f008 fcad 	bl	800eb5c <rand>
 8006202:	ee07 0a90 	vmov	s15, r0
 8006206:	eef8 7ae7 	vcvt.f32.s32	s15, s15
 800620a:	ee67 7aaa 	vmul.f32	s15, s15, s21
 800620e:	ee67 7aab 	vmul.f32	s15, s15, s23
 8006212:	ee77 7aab 	vadd.f32	s15, s15, s23
 8006216:	eefc 7ae7 	vcvt.u32.f32	s15, s15
 800621a:	edc4 7a42 	vstr	s15, [r4, #264]	; 0x108
 800621e:	f008 fc9d 	bl	800eb5c <rand>
 8006222:	ee07 0a90 	vmov	s15, r0
 8006226:	eef8 7ae7 	vcvt.f32.s32	s15, s15
 800622a:	edd4 6a44 	vldr	s13, [r4, #272]	; 0x110
 800622e:	ed94 7a42 	vldr	s14, [r4, #264]	; 0x108
 8006232:	ed9f 0a87 	vldr	s0, [pc, #540]	; 8006450 <Synth_Init+0x3d4>
 8006236:	4a87      	ldr	r2, [pc, #540]	; (8006454 <Synth_Init+0x3d8>)
 8006238:	6422      	str	r2, [r4, #64]	; 0x40
 800623a:	ee67 7aaa 	vmul.f32	s15, s15, s21
 800623e:	eeb8 7a47 	vcvt.f32.u32	s14, s14
 8006242:	ee77 7aa7 	vadd.f32	s15, s15, s15
 8006246:	ee77 7ac8 	vsub.f32	s15, s15, s16
 800624a:	ee77 6ae6 	vsub.f32	s13, s15, s13
 800624e:	edc4 7a45 	vstr	s15, [r4, #276]	; 0x114
 8006252:	eec6 7a87 	vdiv.f32	s15, s13, s14
 8006256:	edc4 7a46 	vstr	s15, [r4, #280]	; 0x118
 800625a:	f007 f98d 	bl	800d578 <lrintf>
 800625e:	497e      	ldr	r1, [pc, #504]	; (8006458 <Synth_Init+0x3dc>)
 8006260:	4a7e      	ldr	r2, [pc, #504]	; (800645c <Synth_Init+0x3e0>)
 8006262:	6460      	str	r0, [r4, #68]	; 0x44
 8006264:	fa40 f309 	asr.w	r3, r0, r9
 8006268:	e9c4 2116 	strd	r2, r1, [r4, #88]	; 0x58
 800626c:	6523      	str	r3, [r4, #80]	; 0x50
 800626e:	64a6      	str	r6, [r4, #72]	; 0x48
 8006270:	f8a4 604c 	strh.w	r6, [r4, #76]	; 0x4c
 8006274:	f8a4 6060 	strh.w	r6, [r4, #96]	; 0x60
 8006278:	f8c4 6062 	str.w	r6, [r4, #98]	; 0x62
 800627c:	f8a4 6054 	strh.w	r6, [r4, #84]	; 0x54
 8006280:	f7fe fd56 	bl	8004d30 <seq_sequence_new>
 8006284:	f8df c22c 	ldr.w	ip, [pc, #556]	; 80064b4 <Synth_Init+0x438>
 8006288:	4a75      	ldr	r2, [pc, #468]	; (8006460 <Synth_Init+0x3e4>)
 800628a:	f8c4 c124 	str.w	ip, [r4, #292]	; 0x124
 800628e:	f8df c228 	ldr.w	ip, [pc, #552]	; 80064b8 <Synth_Init+0x43c>
 8006292:	f8c4 c128 	str.w	ip, [r4, #296]	; 0x128
 8006296:	f04f 5c7c 	mov.w	ip, #1056964608	; 0x3f000000
 800629a:	f8c2 c008 	str.w	ip, [r2, #8]
 800629e:	f8c2 c000 	str.w	ip, [r2]
 80062a2:	4870      	ldr	r0, [pc, #448]	; (8006464 <Synth_Init+0x3e8>)
 80062a4:	f8c4 c070 	str.w	ip, [r4, #112]	; 0x70
 80062a8:	f8c8 c008 	str.w	ip, [r8, #8]
 80062ac:	f8c8 c000 	str.w	ip, [r8]
 80062b0:	f241 5cf4 	movw	ip, #5620	; 0x15f4
 80062b4:	f240 5377 	movw	r3, #1399	; 0x577
 80062b8:	f8c4 0134 	str.w	r0, [r4, #308]	; 0x134
 80062bc:	486a      	ldr	r0, [pc, #424]	; (8006468 <Synth_Init+0x3ec>)
 80062be:	f802 900c 	strb.w	r9, [r2, ip]
 80062c2:	6050      	str	r0, [r2, #4]
 80062c4:	60d3      	str	r3, [r2, #12]
 80062c6:	f8c8 0004 	str.w	r0, [r8, #4]
 80062ca:	f8c8 300c 	str.w	r3, [r8, #12]
 80062ce:	f102 0010 	add.w	r0, r2, #16
 80062d2:	4b66      	ldr	r3, [pc, #408]	; (800646c <Synth_Init+0x3f0>)
 80062d4:	4a66      	ldr	r2, [pc, #408]	; (8006470 <Synth_Init+0x3f4>)
 80062d6:	f8c4 2120 	str.w	r2, [r4, #288]	; 0x120
 80062da:	f8c4 2130 	str.w	r2, [r4, #304]	; 0x130
 80062de:	4a65      	ldr	r2, [pc, #404]	; (8006474 <Synth_Init+0x3f8>)
 80062e0:	601a      	str	r2, [r3, #0]
 80062e2:	4965      	ldr	r1, [pc, #404]	; (8006478 <Synth_Init+0x3fc>)
 80062e4:	f808 900c 	strb.w	r9, [r8, ip]
 80062e8:	f500 53af 	add.w	r3, r0, #5600	; 0x15e0
 80062ec:	ed81 8a00 	vstr	s16, [r1]
 80062f0:	601a      	str	r2, [r3, #0]
 80062f2:	4631      	mov	r1, r6
 80062f4:	f44f 52af 	mov.w	r2, #5600	; 0x15e0
 80062f8:	e9c4 6622 	strd	r6, r6, [r4, #136]	; 0x88
 80062fc:	f8c4 5080 	str.w	r5, [r4, #128]	; 0x80
 8006300:	67a5      	str	r5, [r4, #120]	; 0x78
 8006302:	ed84 aa1d 	vstr	s20, [r4, #116]	; 0x74
 8006306:	f8c4 5138 	str.w	r5, [r4, #312]	; 0x138
 800630a:	ed84 ba1a 	vstr	s22, [r4, #104]	; 0x68
 800630e:	ed84 ba1b 	vstr	s22, [r4, #108]	; 0x6c
 8006312:	f008 fbcb 	bl	800eaac <memset>
 8006316:	4631      	mov	r1, r6
 8006318:	f44f 52af 	mov.w	r2, #5600	; 0x15e0
 800631c:	4e57      	ldr	r6, [pc, #348]	; (800647c <Synth_Init+0x400>)
 800631e:	f108 0010 	add.w	r0, r8, #16
 8006322:	f008 fbc3 	bl	800eaac <memset>
 8006326:	f8df c194 	ldr.w	ip, [pc, #404]	; 80064bc <Synth_Init+0x440>
 800632a:	4b55      	ldr	r3, [pc, #340]	; (8006480 <Synth_Init+0x404>)
 800632c:	f8c4 6158 	str.w	r6, [r4, #344]	; 0x158
 8006330:	f8c4 6178 	str.w	r6, [r4, #376]	; 0x178
 8006334:	f04f 5678 	mov.w	r6, #1040187392	; 0x3e000000
 8006338:	4852      	ldr	r0, [pc, #328]	; (8006484 <Synth_Init+0x408>)
 800633a:	f8c4 c14c 	str.w	ip, [r4, #332]	; 0x14c
 800633e:	f8c4 c16c 	str.w	ip, [r4, #364]	; 0x16c
 8006342:	f8c4 6144 	str.w	r6, [r4, #324]	; 0x144
 8006346:	f8df c178 	ldr.w	ip, [pc, #376]	; 80064c0 <Synth_Init+0x444>
 800634a:	f8c4 6164 	str.w	r6, [r4, #356]	; 0x164
 800634e:	4e4e      	ldr	r6, [pc, #312]	; (8006488 <Synth_Init+0x40c>)
 8006350:	f8c3 c000 	str.w	ip, [r3]
 8006354:	f8c4 0148 	str.w	r0, [r4, #328]	; 0x148
 8006358:	f8df c168 	ldr.w	ip, [pc, #360]	; 80064c4 <Synth_Init+0x448>
 800635c:	f8c4 0168 	str.w	r0, [r4, #360]	; 0x168
 8006360:	484a      	ldr	r0, [pc, #296]	; (800648c <Synth_Init+0x410>)
 8006362:	f8c6 c000 	str.w	ip, [r6]
 8006366:	f8df c160 	ldr.w	ip, [pc, #352]	; 80064c8 <Synth_Init+0x44c>
 800636a:	4e49      	ldr	r6, [pc, #292]	; (8006490 <Synth_Init+0x414>)
 800636c:	f8c0 c000 	str.w	ip, [r0]
 8006370:	f8df c158 	ldr.w	ip, [pc, #344]	; 80064cc <Synth_Init+0x450>
 8006374:	4847      	ldr	r0, [pc, #284]	; (8006494 <Synth_Init+0x418>)
 8006376:	f8c6 c000 	str.w	ip, [r6]
 800637a:	4e47      	ldr	r6, [pc, #284]	; (8006498 <Synth_Init+0x41c>)
 800637c:	6006      	str	r6, [r0, #0]
 800637e:	4b47      	ldr	r3, [pc, #284]	; (800649c <Synth_Init+0x420>)
 8006380:	4e47      	ldr	r6, [pc, #284]	; (80064a0 <Synth_Init+0x424>)
 8006382:	4a48      	ldr	r2, [pc, #288]	; (80064a4 <Synth_Init+0x428>)
 8006384:	4948      	ldr	r1, [pc, #288]	; (80064a8 <Synth_Init+0x42c>)
 8006386:	f8df c148 	ldr.w	ip, [pc, #328]	; 80064d0 <Synth_Init+0x454>
 800638a:	f884 9140 	strb.w	r9, [r4, #320]	; 0x140
 800638e:	f04f 507a 	mov.w	r0, #1048576000	; 0x3e800000
 8006392:	6030      	str	r0, [r6, #0]
 8006394:	f8c4 5150 	str.w	r5, [r4, #336]	; 0x150
 8006398:	f8c4 5154 	str.w	r5, [r4, #340]	; 0x154
 800639c:	f8c4 515c 	str.w	r5, [r4, #348]	; 0x15c
 80063a0:	f884 9160 	strb.w	r9, [r4, #352]	; 0x160
 80063a4:	f8c4 5170 	str.w	r5, [r4, #368]	; 0x170
 80063a8:	f8c4 5174 	str.w	r5, [r4, #372]	; 0x174
 80063ac:	f8c4 517c 	str.w	r5, [r4, #380]	; 0x17c
 80063b0:	f8c4 518c 	str.w	r5, [r4, #396]	; 0x18c
 80063b4:	f8c4 519c 	str.w	r5, [r4, #412]	; 0x19c
 80063b8:	f8c4 5194 	str.w	r5, [r4, #404]	; 0x194
 80063bc:	ed84 8a66 	vstr	s16, [r4, #408]	; 0x198
 80063c0:	f8c4 2180 	str.w	r2, [r4, #384]	; 0x180
 80063c4:	f8c4 2184 	str.w	r2, [r4, #388]	; 0x184
 80063c8:	f8c4 21a0 	str.w	r2, [r4, #416]	; 0x1a0
 80063cc:	f8c4 21a4 	str.w	r2, [r4, #420]	; 0x1a4
 80063d0:	f8c4 1188 	str.w	r1, [r4, #392]	; 0x188
 80063d4:	6018      	str	r0, [r3, #0]
 80063d6:	462e      	mov	r6, r5
 80063d8:	f8c4 11a8 	str.w	r1, [r4, #424]	; 0x1a8
 80063dc:	f8c4 51ac 	str.w	r5, [r4, #428]	; 0x1ac
 80063e0:	f8c4 51bc 	str.w	r5, [r4, #444]	; 0x1bc
 80063e4:	f8c4 51b4 	str.w	r5, [r4, #436]	; 0x1b4
 80063e8:	ed84 8a6e 	vstr	s16, [r4, #440]	; 0x1b8
 80063ec:	f8c4 21c0 	str.w	r2, [r4, #448]	; 0x1c0
 80063f0:	f8c4 21c4 	str.w	r2, [r4, #452]	; 0x1c4
 80063f4:	f8c4 11c8 	str.w	r1, [r4, #456]	; 0x1c8
 80063f8:	f8c4 51cc 	str.w	r5, [r4, #460]	; 0x1cc
 80063fc:	f8c4 51dc 	str.w	r5, [r4, #476]	; 0x1dc
 8006400:	f8c4 51d4 	str.w	r5, [r4, #468]	; 0x1d4
 8006404:	ed84 8a76 	vstr	s16, [r4, #472]	; 0x1d8
 8006408:	f8c4 21e0 	str.w	r2, [r4, #480]	; 0x1e0
 800640c:	f8c4 21e4 	str.w	r2, [r4, #484]	; 0x1e4
 8006410:	f8c4 11e8 	str.w	r1, [r4, #488]	; 0x1e8
 8006414:	f8c4 51ec 	str.w	r5, [r4, #492]	; 0x1ec
 8006418:	f8c4 51fc 	str.w	r5, [r4, #508]	; 0x1fc
 800641c:	f8c4 51f4 	str.w	r5, [r4, #500]	; 0x1f4
 8006420:	e058      	b.n	80064d4 <Synth_Init+0x458>
 8006422:	bf00      	nop
 8006424:	2001f7d8 	.word	0x2001f7d8
 8006428:	2001f7d4 	.word	0x2001f7d4
 800642c:	10000000 	.word	0x10000000
 8006430:	2001f7e8 	.word	0x2001f7e8
 8006434:	45ac4400 	.word	0x45ac4400
 8006438:	3c23d70a 	.word	0x3c23d70a
 800643c:	2000190c 	.word	0x2000190c
 8006440:	2000e42c 	.word	0x2000e42c
 8006444:	30000000 	.word	0x30000000
 8006448:	3a83126f 	.word	0x3a83126f
 800644c:	3f7a9fbf 	.word	0x3f7a9fbf
 8006450:	46013300 	.word	0x46013300
 8006454:	43a00000 	.word	0x43a00000
 8006458:	00240004 	.word	0x00240004
 800645c:	0800f5ec 	.word	0x0800f5ec
 8006460:	100012dc 	.word	0x100012dc
 8006464:	3df5c28f 	.word	0x3df5c28f
 8006468:	be4ccccd 	.word	0xbe4ccccd
 800646c:	10003ec4 	.word	0x10003ec4
 8006470:	42480000 	.word	0x42480000
 8006474:	43700000 	.word	0x43700000
 8006478:	2001f7d0 	.word	0x2001f7d0
 800647c:	3ecccccd 	.word	0x3ecccccd
 8006480:	2001eddc 	.word	0x2001eddc
 8006484:	3ed413a9 	.word	0x3ed413a9
 8006488:	2001f7e4 	.word	0x2001f7e4
 800648c:	2001edd8 	.word	0x2001edd8
 8006490:	2001edd4 	.word	0x2001edd4
 8006494:	2001f724 	.word	0x2001f724
 8006498:	376f08eb 	.word	0x376f08eb
 800649c:	2001ede0 	.word	0x2001ede0
 80064a0:	2001ede4 	.word	0x2001ede4
 80064a4:	3f4ccccd 	.word	0x3f4ccccd
 80064a8:	4412c000 	.word	0x4412c000
 80064ac:	462c4400 	.word	0x462c4400
 80064b0:	100028d4 	.word	0x100028d4
 80064b4:	3de147ae 	.word	0x3de147ae
 80064b8:	3fc90fdb 	.word	0x3fc90fdb
 80064bc:	3f666666 	.word	0x3f666666
 80064c0:	3f333333 	.word	0x3f333333
 80064c4:	3e99999a 	.word	0x3e99999a
 80064c8:	3c149b93 	.word	0x3c149b93
 80064cc:	3d9de54c 	.word	0x3d9de54c
 80064d0:	40b00000 	.word	0x40b00000
 80064d4:	ed84 8a7e 	vstr	s16, [r4, #504]	; 0x1f8
 80064d8:	f8c4 5200 	str.w	r5, [r4, #512]	; 0x200
 80064dc:	f8c4 5204 	str.w	r5, [r4, #516]	; 0x204
 80064e0:	f8c4 520c 	str.w	r5, [r4, #524]	; 0x20c
 80064e4:	f8c4 521c 	str.w	r5, [r4, #540]	; 0x21c
 80064e8:	f8c4 5214 	str.w	r5, [r4, #532]	; 0x214
 80064ec:	ed84 8a86 	vstr	s16, [r4, #536]	; 0x218
 80064f0:	f8c4 5220 	str.w	r5, [r4, #544]	; 0x220
 80064f4:	f8c4 5224 	str.w	r5, [r4, #548]	; 0x224
 80064f8:	f8c4 5228 	str.w	r5, [r4, #552]	; 0x228
 80064fc:	f8c4 522c 	str.w	r5, [r4, #556]	; 0x22c
 8006500:	f8c4 523c 	str.w	r5, [r4, #572]	; 0x23c
 8006504:	f8c4 5234 	str.w	r5, [r4, #564]	; 0x234
 8006508:	ed84 8a8e 	vstr	s16, [r4, #568]	; 0x238
 800650c:	f8c4 c208 	str.w	ip, [r4, #520]	; 0x208
 8006510:	f8c4 5240 	str.w	r5, [r4, #576]	; 0x240
 8006514:	f8c4 5244 	str.w	r5, [r4, #580]	; 0x244
 8006518:	f8c4 5248 	str.w	r5, [r4, #584]	; 0x248
 800651c:	f8c4 524c 	str.w	r5, [r4, #588]	; 0x24c
 8006520:	f8c4 525c 	str.w	r5, [r4, #604]	; 0x25c
 8006524:	f8c4 5254 	str.w	r5, [r4, #596]	; 0x254
 8006528:	ed84 8a96 	vstr	s16, [r4, #600]	; 0x258
 800652c:	f8c4 5260 	str.w	r5, [r4, #608]	; 0x260
 8006530:	f8c4 5264 	str.w	r5, [r4, #612]	; 0x264
 8006534:	f8c4 5268 	str.w	r5, [r4, #616]	; 0x268
 8006538:	f8c4 526c 	str.w	r5, [r4, #620]	; 0x26c
 800653c:	f8c4 527c 	str.w	r5, [r4, #636]	; 0x27c
 8006540:	f8c4 5274 	str.w	r5, [r4, #628]	; 0x274
 8006544:	ed84 8a9e 	vstr	s16, [r4, #632]	; 0x278
 8006548:	ed84 8aa1 	vstr	s16, [r4, #644]	; 0x284
 800654c:	ed84 8aa0 	vstr	s16, [r4, #640]	; 0x280
 8006550:	f8c4 52b0 	str.w	r5, [r4, #688]	; 0x2b0
 8006554:	f8c4 52ac 	str.w	r5, [r4, #684]	; 0x2ac
 8006558:	f008 fb00 	bl	800eb5c <rand>
 800655c:	ee07 0a90 	vmov	s15, r0
 8006560:	eef8 7ae7 	vcvt.f32.s32	s15, s15
 8006564:	4b30      	ldr	r3, [pc, #192]	; (8006628 <Synth_Init+0x5ac>)
 8006566:	f84a 6b04 	str.w	r6, [sl], #4
 800656a:	ee67 7a89 	vmul.f32	s15, s15, s18
 800656e:	ee67 7aa9 	vmul.f32	s15, s15, s19
 8006572:	ee77 7aa8 	vadd.f32	s15, s15, s17
 8006576:	eceb 7a01 	vstmia	fp!, {s15}
 800657a:	ed94 7aa0 	vldr	s14, [r4, #640]	; 0x280
 800657e:	ee77 7a87 	vadd.f32	s15, s15, s14
 8006582:	455b      	cmp	r3, fp
 8006584:	edc4 7aa0 	vstr	s15, [r4, #640]	; 0x280
 8006588:	d1e6      	bne.n	8006558 <Synth_Init+0x4dc>
 800658a:	eeb7 8a00 	vmov.f32	s16, #112	; 0x3f800000  1.0
 800658e:	ee88 7a27 	vdiv.f32	s14, s16, s15
 8006592:	f04f 0800 	mov.w	r8, #0
 8006596:	f503 65af 	add.w	r5, r3, #1400	; 0x578
 800659a:	f8df a090 	ldr.w	sl, [pc, #144]	; 800662c <Synth_Init+0x5b0>
 800659e:	f8c4 881c 	str.w	r8, [r4, #2076]	; 0x81c
 80065a2:	f04f 0901 	mov.w	r9, #1
 80065a6:	f103 0050 	add.w	r0, r3, #80	; 0x50
 80065aa:	4641      	mov	r1, r8
 80065ac:	f44f 62a4 	mov.w	r2, #1312	; 0x520
 80065b0:	f884 9820 	strb.w	r9, [r4, #2080]	; 0x820
 80065b4:	f8c4 62e8 	str.w	r6, [r4, #744]	; 0x2e8
 80065b8:	f8c4 62f8 	str.w	r6, [r4, #760]	; 0x2f8
 80065bc:	f8c4 a2e4 	str.w	sl, [r4, #740]	; 0x2e4
 80065c0:	ed84 8ab7 	vstr	s16, [r4, #732]	; 0x2dc
 80065c4:	ed84 7aa0 	vstr	s14, [r4, #640]	; 0x280
 80065c8:	f008 fa70 	bl	800eaac <memset>
 80065cc:	4641      	mov	r1, r8
 80065ce:	f105 0030 	add.w	r0, r5, #48	; 0x30
 80065d2:	f44f 62a4 	mov.w	r2, #1312	; 0x520
 80065d6:	ed85 8a01 	vstr	s16, [r5, #4]
 80065da:	f884 9d7c 	strb.w	r9, [r4, #3452]	; 0xd7c
 80065de:	f8c4 8d74 	str.w	r8, [r4, #3444]	; 0xd74
 80065e2:	f8c5 a00c 	str.w	sl, [r5, #12]
 80065e6:	616e      	str	r6, [r5, #20]
 80065e8:	612e      	str	r6, [r5, #16]
 80065ea:	62ee      	str	r6, [r5, #44]	; 0x2c
 80065ec:	f008 fa5e 	bl	800eaac <memset>
 80065f0:	f205 535c 	addw	r3, r5, #1372	; 0x55c
 80065f4:	ed83 8a01 	vstr	s16, [r3, #4]
 80065f8:	ecbd 8b0a 	vpop	{d8-d12}
 80065fc:	f241 22cc 	movw	r2, #4812	; 0x12cc
 8006600:	f241 2cd4 	movw	ip, #4820	; 0x12d4
 8006604:	f844 8002 	str.w	r8, [r4, r2]
 8006608:	f804 900c 	strb.w	r9, [r4, ip]
 800660c:	4641      	mov	r1, r8
 800660e:	f505 60b1 	add.w	r0, r5, #1416	; 0x588
 8006612:	f8c3 a00c 	str.w	sl, [r3, #12]
 8006616:	615e      	str	r6, [r3, #20]
 8006618:	611e      	str	r6, [r3, #16]
 800661a:	629e      	str	r6, [r3, #40]	; 0x28
 800661c:	f44f 62a4 	mov.w	r2, #1312	; 0x520
 8006620:	e8bd 4f70 	ldmia.w	sp!, {r4, r5, r6, r8, r9, sl, fp, lr}
 8006624:	f008 ba42 	b.w	800eaac <memset>
 8006628:	100002ac 	.word	0x100002ac
 800662c:	43dc0000 	.word	0x43dc0000

08006630 <main>:
main():
 8006630:	4bab      	ldr	r3, [pc, #684]	; (80068e0 <main+0x2b0>)
 8006632:	48ac      	ldr	r0, [pc, #688]	; (80068e4 <main+0x2b4>)
 8006634:	6819      	ldr	r1, [r3, #0]
 8006636:	4aac      	ldr	r2, [pc, #688]	; (80068e8 <main+0x2b8>)
 8006638:	f441 7100 	orr.w	r1, r1, #512	; 0x200
 800663c:	e92d 4800 	stmdb	sp!, {fp, lr}
 8006640:	6019      	str	r1, [r3, #0]
 8006642:	6819      	ldr	r1, [r3, #0]
 8006644:	f441 6180 	orr.w	r1, r1, #1024	; 0x400
 8006648:	6019      	str	r1, [r3, #0]
 800664a:	6819      	ldr	r1, [r3, #0]
 800664c:	f441 7180 	orr.w	r1, r1, #256	; 0x100
 8006650:	6019      	str	r1, [r3, #0]
 8006652:	68c3      	ldr	r3, [r0, #12]
 8006654:	f64f 01ff 	movw	r1, #63743	; 0xf8ff
 8006658:	400b      	ands	r3, r1
 800665a:	431a      	orrs	r2, r3
 800665c:	60c2      	str	r2, [r0, #12]
 800665e:	b090      	sub	sp, #64	; 0x40
 8006660:	f7fa fe90 	bl	8001384 <HAL_InitTick.constprop.0>
 8006664:	2001      	movs	r0, #1
 8006666:	f7fa fdb5 	bl	80011d4 <BSP_LED_Init>
 800666a:	2000      	movs	r0, #0
 800666c:	f7fa fdb2 	bl	80011d4 <BSP_LED_Init>
 8006670:	2002      	movs	r0, #2
 8006672:	f7fa fdaf 	bl	80011d4 <BSP_LED_Init>
 8006676:	2003      	movs	r0, #3
 8006678:	f7fa fdac 	bl	80011d4 <BSP_LED_Init>
 800667c:	4b9b      	ldr	r3, [pc, #620]	; (80068ec <main+0x2bc>)
 800667e:	499c      	ldr	r1, [pc, #624]	; (80068f0 <main+0x2c0>)
 8006680:	6c1a      	ldr	r2, [r3, #64]	; 0x40
 8006682:	f042 5280 	orr.w	r2, r2, #268435456	; 0x10000000
 8006686:	641a      	str	r2, [r3, #64]	; 0x40
 8006688:	680a      	ldr	r2, [r1, #0]
 800668a:	f442 4240 	orr.w	r2, r2, #49152	; 0xc000
 800668e:	600a      	str	r2, [r1, #0]
 8006690:	689a      	ldr	r2, [r3, #8]
 8006692:	f002 020c 	and.w	r2, r2, #12
 8006696:	2a04      	cmp	r2, #4
 8006698:	d009      	beq.n	80066ae <main+0x7e>
 800669a:	689a      	ldr	r2, [r3, #8]
 800669c:	f002 020c 	and.w	r2, r2, #12
 80066a0:	2a08      	cmp	r2, #8
 80066a2:	f040 8479 	bne.w	8006f98 <main+0x968>
 80066a6:	685b      	ldr	r3, [r3, #4]
 80066a8:	025a      	lsls	r2, r3, #9
 80066aa:	f140 8475 	bpl.w	8006f98 <main+0x968>
 80066ae:	4b8f      	ldr	r3, [pc, #572]	; (80068ec <main+0x2bc>)
 80066b0:	681b      	ldr	r3, [r3, #0]
 80066b2:	488e      	ldr	r0, [pc, #568]	; (80068ec <main+0x2bc>)
 80066b4:	6883      	ldr	r3, [r0, #8]
 80066b6:	f003 030c 	and.w	r3, r3, #12
 80066ba:	2b08      	cmp	r3, #8
 80066bc:	d028      	beq.n	8006710 <main+0xe0>
 80066be:	4b8d      	ldr	r3, [pc, #564]	; (80068f4 <main+0x2c4>)
 80066c0:	4e8d      	ldr	r6, [pc, #564]	; (80068f8 <main+0x2c8>)
 80066c2:	2200      	movs	r2, #0
 80066c4:	601a      	str	r2, [r3, #0]
 80066c6:	6832      	ldr	r2, [r6, #0]
 80066c8:	e028      	b.n	800671c <main+0xec>
 80066ca:	689a      	ldr	r2, [r3, #8]
 80066cc:	f022 02f0 	bic.w	r2, r2, #240	; 0xf0
 80066d0:	609a      	str	r2, [r3, #8]
 80066d2:	681a      	ldr	r2, [r3, #0]
 80066d4:	0195      	lsls	r5, r2, #6
 80066d6:	d51b      	bpl.n	8006710 <main+0xe0>
 80066d8:	689a      	ldr	r2, [r3, #8]
 80066da:	4884      	ldr	r0, [pc, #528]	; (80068ec <main+0x2bc>)
 80066dc:	f022 0203 	bic.w	r2, r2, #3
 80066e0:	f042 0202 	orr.w	r2, r2, #2
 80066e4:	609a      	str	r2, [r3, #8]
 80066e6:	6831      	ldr	r1, [r6, #0]
 80066e8:	f241 3288 	movw	r2, #5000	; 0x1388
 80066ec:	e003      	b.n	80066f6 <main+0xc6>
 80066ee:	6833      	ldr	r3, [r6, #0]
 80066f0:	1a5b      	subs	r3, r3, r1
 80066f2:	4293      	cmp	r3, r2
 80066f4:	d80c      	bhi.n	8006710 <main+0xe0>
 80066f6:	6883      	ldr	r3, [r0, #8]
 80066f8:	f003 030c 	and.w	r3, r3, #12
 80066fc:	2b08      	cmp	r3, #8
 80066fe:	d1f6      	bne.n	80066ee <main+0xbe>
 8006700:	4b77      	ldr	r3, [pc, #476]	; (80068e0 <main+0x2b0>)
 8006702:	2205      	movs	r2, #5
 8006704:	701a      	strb	r2, [r3, #0]
 8006706:	681b      	ldr	r3, [r3, #0]
 8006708:	f003 030f 	and.w	r3, r3, #15
 800670c:	4293      	cmp	r3, r2
 800670e:	d05d      	beq.n	80067cc <main+0x19c>
 8006710:	f7fa fd24 	bl	800115c <Error_Handler>
 8006714:	6833      	ldr	r3, [r6, #0]
 8006716:	1a9b      	subs	r3, r3, r2
 8006718:	2b64      	cmp	r3, #100	; 0x64
 800671a:	d8f9      	bhi.n	8006710 <main+0xe0>
 800671c:	6803      	ldr	r3, [r0, #0]
 800671e:	019c      	lsls	r4, r3, #6
 8006720:	d4f8      	bmi.n	8006714 <main+0xe4>
 8006722:	f647 71c0 	movw	r1, #32704	; 0x7fc0
 8006726:	fa91 f1a1 	rbit	r1, r1
 800672a:	fab1 f181 	clz	r1, r1
 800672e:	f44f 3340 	mov.w	r3, #196608	; 0x30000
 8006732:	fa93 f3a3 	rbit	r3, r3
 8006736:	fab3 f383 	clz	r3, r3
 800673a:	f04f 6370 	mov.w	r3, #251658240	; 0xf000000
 800673e:	fa93 f3a3 	rbit	r3, r3
 8006742:	fab3 f383 	clz	r3, r3
 8006746:	2407      	movs	r4, #7
 8006748:	b2c9      	uxtb	r1, r1
 800674a:	f44f 72a8 	mov.w	r2, #336	; 0x150
 800674e:	b2db      	uxtb	r3, r3
 8006750:	fa04 f303 	lsl.w	r3, r4, r3
 8006754:	408a      	lsls	r2, r1
 8006756:	431a      	orrs	r2, r3
 8006758:	4966      	ldr	r1, [pc, #408]	; (80068f4 <main+0x2c4>)
 800675a:	4b64      	ldr	r3, [pc, #400]	; (80068ec <main+0x2bc>)
 800675c:	f042 5201 	orr.w	r2, r2, #541065216	; 0x20400000
 8006760:	f042 0208 	orr.w	r2, r2, #8
 8006764:	2401      	movs	r4, #1
 8006766:	6042      	str	r2, [r0, #4]
 8006768:	600c      	str	r4, [r1, #0]
 800676a:	6831      	ldr	r1, [r6, #0]
 800676c:	e003      	b.n	8006776 <main+0x146>
 800676e:	6832      	ldr	r2, [r6, #0]
 8006770:	1a52      	subs	r2, r2, r1
 8006772:	2a64      	cmp	r2, #100	; 0x64
 8006774:	d8cc      	bhi.n	8006710 <main+0xe0>
 8006776:	681a      	ldr	r2, [r3, #0]
 8006778:	0190      	lsls	r0, r2, #6
 800677a:	d5f8      	bpl.n	800676e <main+0x13e>
 800677c:	4a58      	ldr	r2, [pc, #352]	; (80068e0 <main+0x2b0>)
 800677e:	6811      	ldr	r1, [r2, #0]
 8006780:	f001 010f 	and.w	r1, r1, #15
 8006784:	2904      	cmp	r1, #4
 8006786:	d8a0      	bhi.n	80066ca <main+0x9a>
 8006788:	2105      	movs	r1, #5
 800678a:	7011      	strb	r1, [r2, #0]
 800678c:	6812      	ldr	r2, [r2, #0]
 800678e:	f002 020f 	and.w	r2, r2, #15
 8006792:	428a      	cmp	r2, r1
 8006794:	d1bc      	bne.n	8006710 <main+0xe0>
 8006796:	689a      	ldr	r2, [r3, #8]
 8006798:	f022 02f0 	bic.w	r2, r2, #240	; 0xf0
 800679c:	609a      	str	r2, [r3, #8]
 800679e:	681a      	ldr	r2, [r3, #0]
 80067a0:	0192      	lsls	r2, r2, #6
 80067a2:	d5b5      	bpl.n	8006710 <main+0xe0>
 80067a4:	689a      	ldr	r2, [r3, #8]
 80067a6:	4851      	ldr	r0, [pc, #324]	; (80068ec <main+0x2bc>)
 80067a8:	f022 0203 	bic.w	r2, r2, #3
 80067ac:	f042 0202 	orr.w	r2, r2, #2
 80067b0:	609a      	str	r2, [r3, #8]
 80067b2:	6831      	ldr	r1, [r6, #0]
 80067b4:	f241 3288 	movw	r2, #5000	; 0x1388
 80067b8:	e003      	b.n	80067c2 <main+0x192>
 80067ba:	6833      	ldr	r3, [r6, #0]
 80067bc:	1a5b      	subs	r3, r3, r1
 80067be:	4293      	cmp	r3, r2
 80067c0:	d8a6      	bhi.n	8006710 <main+0xe0>
 80067c2:	6883      	ldr	r3, [r0, #8]
 80067c4:	f003 030c 	and.w	r3, r3, #12
 80067c8:	2b08      	cmp	r3, #8
 80067ca:	d1f6      	bne.n	80067ba <main+0x18a>
 80067cc:	4c47      	ldr	r4, [pc, #284]	; (80068ec <main+0x2bc>)
 80067ce:	68a3      	ldr	r3, [r4, #8]
 80067d0:	f423 53e0 	bic.w	r3, r3, #7168	; 0x1c00
 80067d4:	f443 53a0 	orr.w	r3, r3, #5120	; 0x1400
 80067d8:	60a3      	str	r3, [r4, #8]
 80067da:	68a3      	ldr	r3, [r4, #8]
 80067dc:	f423 4360 	bic.w	r3, r3, #57344	; 0xe000
 80067e0:	f443 4300 	orr.w	r3, r3, #32768	; 0x8000
 80067e4:	60a3      	str	r3, [r4, #8]
 80067e6:	f7fa fdcd 	bl	8001384 <HAL_InitTick.constprop.0>
 80067ea:	6b23      	ldr	r3, [r4, #48]	; 0x30
 80067ec:	4843      	ldr	r0, [pc, #268]	; (80068fc <main+0x2cc>)
 80067ee:	f043 0301 	orr.w	r3, r3, #1
 80067f2:	6323      	str	r3, [r4, #48]	; 0x30
 80067f4:	4b42      	ldr	r3, [pc, #264]	; (8006900 <main+0x2d0>)
 80067f6:	2201      	movs	r2, #1
 80067f8:	e9cd 230a 	strd	r2, r3, [sp, #40]	; 0x28
 80067fc:	a90a      	add	r1, sp, #40	; 0x28
 80067fe:	2200      	movs	r2, #0
 8006800:	2302      	movs	r3, #2
 8006802:	e9cd 230c 	strd	r2, r3, [sp, #48]	; 0x30
 8006806:	f7fa f8c1 	bl	800098c <HAL_GPIO_Init>
 800680a:	210f      	movs	r1, #15
 800680c:	2006      	movs	r0, #6
 800680e:	f7fa fa41 	bl	8000c94 <HAL_NVIC_SetPriority.constprop.2>
 8006812:	493c      	ldr	r1, [pc, #240]	; (8006904 <main+0x2d4>)
 8006814:	4b3c      	ldr	r3, [pc, #240]	; (8006908 <main+0x2d8>)
 8006816:	4a3d      	ldr	r2, [pc, #244]	; (800690c <main+0x2dc>)
 8006818:	2040      	movs	r0, #64	; 0x40
 800681a:	6008      	str	r0, [r1, #0]
 800681c:	7959      	ldrb	r1, [r3, #5]
 800681e:	601a      	str	r2, [r3, #0]
 8006820:	2900      	cmp	r1, #0
 8006822:	f001 80cc 	beq.w	80079be <main+0x138e>
 8006826:	4a39      	ldr	r2, [pc, #228]	; (800690c <main+0x2dc>)
 8006828:	791d      	ldrb	r5, [r3, #4]
 800682a:	2002      	movs	r0, #2
 800682c:	7158      	strb	r0, [r3, #5]
 800682e:	6811      	ldr	r1, [r2, #0]
 8006830:	2401      	movs	r4, #1
 8006832:	f041 0104 	orr.w	r1, r1, #4
 8006836:	42a5      	cmp	r5, r4
 8006838:	6011      	str	r1, [r2, #0]
 800683a:	715c      	strb	r4, [r3, #5]
 800683c:	d00e      	beq.n	800685c <main+0x22c>
 800683e:	6830      	ldr	r0, [r6, #0]
 8006840:	711c      	strb	r4, [r3, #4]
 8006842:	e005      	b.n	8006850 <main+0x220>
 8006844:	6831      	ldr	r1, [r6, #0]
 8006846:	1a09      	subs	r1, r1, r0
 8006848:	f5b1 7f7a 	cmp.w	r1, #1000	; 0x3e8
 800684c:	f201 80c1 	bhi.w	80079d2 <main+0x13a2>
 8006850:	6851      	ldr	r1, [r2, #4]
 8006852:	07cc      	lsls	r4, r1, #31
 8006854:	d5f6      	bpl.n	8006844 <main+0x214>
 8006856:	2100      	movs	r1, #0
 8006858:	6890      	ldr	r0, [r2, #8]
 800685a:	7119      	strb	r1, [r3, #4]
 800685c:	f008 f976 	bl	800eb4c <srand>
 8006860:	f7ff fc0c 	bl	800607c <Synth_Init>
 8006864:	4821      	ldr	r0, [pc, #132]	; (80068ec <main+0x2bc>)
 8006866:	f647 72c0 	movw	r2, #32704	; 0x7fc0
 800686a:	f8d0 1084 	ldr.w	r1, [r0, #132]	; 0x84
 800686e:	fa92 f2a2 	rbit	r2, r2
 8006872:	fab2 f282 	clz	r2, r2
 8006876:	f04f 42e0 	mov.w	r2, #1879048192	; 0x70000000
 800687a:	f8d0 1084 	ldr.w	r1, [r0, #132]	; 0x84
 800687e:	fa92 f2a2 	rbit	r2, r2
 8006882:	fab2 f282 	clz	r2, r2
 8006886:	4a22      	ldr	r2, [pc, #136]	; (8006910 <main+0x2e0>)
 8006888:	6881      	ldr	r1, [r0, #8]
 800688a:	6f01      	ldr	r1, [r0, #112]	; 0x70
 800688c:	2100      	movs	r1, #0
 800688e:	6011      	str	r1, [r2, #0]
 8006890:	6832      	ldr	r2, [r6, #0]
 8006892:	e003      	b.n	800689c <main+0x26c>
 8006894:	6833      	ldr	r3, [r6, #0]
 8006896:	1a9b      	subs	r3, r3, r2
 8006898:	2b64      	cmp	r3, #100	; 0x64
 800689a:	d842      	bhi.n	8006922 <main+0x2f2>
 800689c:	6803      	ldr	r3, [r0, #0]
 800689e:	0119      	lsls	r1, r3, #4
 80068a0:	d4f8      	bmi.n	8006894 <main+0x264>
 80068a2:	f647 72c0 	movw	r2, #32704	; 0x7fc0
 80068a6:	fa92 f2a2 	rbit	r2, r2
 80068aa:	fab2 f282 	clz	r2, r2
 80068ae:	f04f 43e0 	mov.w	r3, #1879048192	; 0x70000000
 80068b2:	fa93 f3a3 	rbit	r3, r3
 80068b6:	fab3 f383 	clz	r3, r3
 80068ba:	f44f 7191 	mov.w	r1, #290	; 0x122
 80068be:	2402      	movs	r4, #2
 80068c0:	b2d2      	uxtb	r2, r2
 80068c2:	b2db      	uxtb	r3, r3
 80068c4:	fa01 f202 	lsl.w	r2, r1, r2
 80068c8:	fa04 f303 	lsl.w	r3, r4, r3
 80068cc:	4910      	ldr	r1, [pc, #64]	; (8006910 <main+0x2e0>)
 80068ce:	4c07      	ldr	r4, [pc, #28]	; (80068ec <main+0x2bc>)
 80068d0:	4313      	orrs	r3, r2
 80068d2:	2201      	movs	r2, #1
 80068d4:	f8c0 3084 	str.w	r3, [r0, #132]	; 0x84
 80068d8:	600a      	str	r2, [r1, #0]
 80068da:	6832      	ldr	r2, [r6, #0]
 80068dc:	e01e      	b.n	800691c <main+0x2ec>
 80068de:	bf00      	nop
 80068e0:	40023c00 	.word	0x40023c00
 80068e4:	e000ed00 	.word	0xe000ed00
 80068e8:	05fa0300 	.word	0x05fa0300
 80068ec:	40023800 	.word	0x40023800
 80068f0:	40007000 	.word	0x40007000
 80068f4:	42470060 	.word	0x42470060
 80068f8:	2001f7dc 	.word	0x2001f7dc
 80068fc:	40020000 	.word	0x40020000
 8006900:	10110000 	.word	0x10110000
 8006904:	e000e100 	.word	0xe000e100
 8006908:	20000958 	.word	0x20000958
 800690c:	50060800 	.word	0x50060800
 8006910:	42470068 	.word	0x42470068
 8006914:	6833      	ldr	r3, [r6, #0]
 8006916:	1a9b      	subs	r3, r3, r2
 8006918:	2b64      	cmp	r3, #100	; 0x64
 800691a:	d802      	bhi.n	8006922 <main+0x2f2>
 800691c:	6823      	ldr	r3, [r4, #0]
 800691e:	011b      	lsls	r3, r3, #4
 8006920:	d5f8      	bpl.n	8006914 <main+0x2e4>
 8006922:	4dce      	ldr	r5, [pc, #824]	; (8006c5c <main+0x62c>)
 8006924:	2094      	movs	r0, #148	; 0x94
 8006926:	686b      	ldr	r3, [r5, #4]
 8006928:	4798      	blx	r3
 800692a:	f000 00f8 	and.w	r0, r0, #248	; 0xf8
 800692e:	28e0      	cmp	r0, #224	; 0xe0
 8006930:	f47f aeee 	bne.w	8006710 <main+0xe0>
 8006934:	f8df 9348 	ldr.w	r9, [pc, #840]	; 8006c80 <main+0x650>
 8006938:	f8df 8348 	ldr.w	r8, [pc, #840]	; 8006c84 <main+0x654>
 800693c:	f8c9 5000 	str.w	r5, [r9]
 8006940:	f64a 4344 	movw	r3, #44100	; 0xac44
 8006944:	682d      	ldr	r5, [r5, #0]
 8006946:	4cc6      	ldr	r4, [pc, #792]	; (8006c60 <main+0x630>)
 8006948:	2246      	movs	r2, #70	; 0x46
 800694a:	2104      	movs	r1, #4
 800694c:	2094      	movs	r0, #148	; 0x94
 800694e:	47a8      	blx	r5
 8006950:	f8d8 301c 	ldr.w	r3, [r8, #28]
 8006954:	f8c4 8000 	str.w	r8, [r4]
 8006958:	f423 6380 	bic.w	r3, r3, #1024	; 0x400
 800695c:	f8c8 301c 	str.w	r3, [r8, #28]
 8006960:	f894 203d 	ldrb.w	r2, [r4, #61]	; 0x3d
 8006964:	2300      	movs	r3, #0
 8006966:	f44f 7100 	mov.w	r1, #512	; 0x200
 800696a:	f64a 4044 	movw	r0, #44100	; 0xac44
 800696e:	e9c4 3306 	strd	r3, r3, [r4, #24]
 8006972:	e9c4 3302 	strd	r3, r3, [r4, #8]
 8006976:	6160      	str	r0, [r4, #20]
 8006978:	f002 05ff 	and.w	r5, r2, #255	; 0xff
 800697c:	6121      	str	r1, [r4, #16]
 800697e:	6061      	str	r1, [r4, #4]
 8006980:	2a00      	cmp	r2, #0
 8006982:	f000 877b 	beq.w	800787c <main+0x124c>
 8006986:	6821      	ldr	r1, [r4, #0]
 8006988:	f894 303d 	ldrb.w	r3, [r4, #61]	; 0x3d
 800698c:	6965      	ldr	r5, [r4, #20]
 800698e:	2202      	movs	r2, #2
 8006990:	f884 203d 	strb.w	r2, [r4, #61]	; 0x3d
 8006994:	69cb      	ldr	r3, [r1, #28]
 8006996:	f423 637b 	bic.w	r3, r3, #4016	; 0xfb0
 800699a:	f023 030f 	bic.w	r3, r3, #15
 800699e:	61cb      	str	r3, [r1, #28]
 80069a0:	4295      	cmp	r5, r2
 80069a2:	620a      	str	r2, [r1, #32]
 80069a4:	69c8      	ldr	r0, [r1, #28]
 80069a6:	f000 8762 	beq.w	800786e <main+0x123e>
 80069aa:	68e2      	ldr	r2, [r4, #12]
 80069ac:	69e3      	ldr	r3, [r4, #28]
 80069ae:	2a00      	cmp	r2, #0
 80069b0:	bf0c      	ite	eq
 80069b2:	f04f 0c01 	moveq.w	ip, #1
 80069b6:	f04f 0c02 	movne.w	ip, #2
 80069ba:	2b01      	cmp	r3, #1
 80069bc:	f000 874a 	beq.w	8007854 <main+0x1224>
 80069c0:	4ba8      	ldr	r3, [pc, #672]	; (8006c64 <main+0x634>)
 80069c2:	681a      	ldr	r2, [r3, #0]
 80069c4:	0152      	lsls	r2, r2, #5
 80069c6:	f140 8367 	bpl.w	8007098 <main+0xa68>
 80069ca:	689a      	ldr	r2, [r3, #8]
 80069cc:	0212      	lsls	r2, r2, #8
 80069ce:	d503      	bpl.n	80069d8 <main+0x3a8>
 80069d0:	689a      	ldr	r2, [r3, #8]
 80069d2:	f422 0200 	bic.w	r2, r2, #8388608	; 0x800000
 80069d6:	609a      	str	r2, [r3, #8]
 80069d8:	4ba2      	ldr	r3, [pc, #648]	; (8006c64 <main+0x634>)
 80069da:	685a      	ldr	r2, [r3, #4]
 80069dc:	f412 0f80 	tst.w	r2, #4194304	; 0x400000
 80069e0:	685a      	ldr	r2, [r3, #4]
 80069e2:	bf14      	ite	ne
 80069e4:	4ba0      	ldrne	r3, [pc, #640]	; (8006c68 <main+0x638>)
 80069e6:	4ba1      	ldreq	r3, [pc, #644]	; (8006c6c <main+0x63c>)
 80069e8:	f002 023f 	and.w	r2, r2, #63	; 0x3f
 80069ec:	fbb3 f3f2 	udiv	r3, r3, r2
 80069f0:	4a9c      	ldr	r2, [pc, #624]	; (8006c64 <main+0x634>)
 80069f2:	f8d2 e084 	ldr.w	lr, [r2, #132]	; 0x84
 80069f6:	f8d2 2084 	ldr.w	r2, [r2, #132]	; 0x84
 80069fa:	f3ce 1e88 	ubfx	lr, lr, #6, #9
 80069fe:	fb03 f30e 	mul.w	r3, r3, lr
 8006a02:	f3c2 7202 	ubfx	r2, r2, #28, #3
 8006a06:	fbb3 f3f2 	udiv	r3, r3, r2
 8006a0a:	6922      	ldr	r2, [r4, #16]
 8006a0c:	f5b2 7f00 	cmp.w	r2, #512	; 0x200
 8006a10:	f000 8338 	beq.w	8007084 <main+0xa54>
 8006a14:	220a      	movs	r2, #10
 8006a16:	ea4f 1c4c 	mov.w	ip, ip, lsl #5
 8006a1a:	fbb3 f3fc 	udiv	r3, r3, ip
 8006a1e:	fb02 f303 	mul.w	r3, r2, r3
 8006a22:	fbb3 f3f5 	udiv	r3, r3, r5
 8006a26:	3305      	adds	r3, #5
 8006a28:	220a      	movs	r2, #10
 8006a2a:	fbb3 f3f2 	udiv	r3, r3, r2
 8006a2e:	085d      	lsrs	r5, r3, #1
 8006a30:	f1a5 0c02 	sub.w	ip, r5, #2
 8006a34:	f1bc 0ffd 	cmp.w	ip, #253	; 0xfd
 8006a38:	f003 0201 	and.w	r2, r3, #1
 8006a3c:	f240 832a 	bls.w	8007094 <main+0xa64>
 8006a40:	2200      	movs	r2, #0
 8006a42:	2502      	movs	r5, #2
 8006a44:	e9d4 8c01 	ldrd	r8, ip, [r4, #4]
 8006a48:	f8d4 a00c 	ldr.w	sl, [r4, #12]
 8006a4c:	f8d4 e018 	ldr.w	lr, [r4, #24]
 8006a50:	ea48 0b0c 	orr.w	fp, r8, ip
 8006a54:	ea4b 0000 	orr.w	r0, fp, r0
 8006a58:	4315      	orrs	r5, r2
 8006a5a:	ea40 000a 	orr.w	r0, r0, sl
 8006a5e:	6922      	ldr	r2, [r4, #16]
 8006a60:	ea40 000e 	orr.w	r0, r0, lr
 8006a64:	4315      	orrs	r5, r2
 8006a66:	f440 6200 	orr.w	r2, r0, #2048	; 0x800
 8006a6a:	6a20      	ldr	r0, [r4, #32]
 8006a6c:	620d      	str	r5, [r1, #32]
 8006a6e:	2801      	cmp	r0, #1
 8006a70:	61ca      	str	r2, [r1, #28]
 8006a72:	f000 82e5 	beq.w	8007040 <main+0xa10>
 8006a76:	2200      	movs	r2, #0
 8006a78:	2301      	movs	r3, #1
 8006a7a:	f884 203e 	strb.w	r2, [r4, #62]	; 0x3e
 8006a7e:	f884 303d 	strb.w	r3, [r4, #61]	; 0x3d
 8006a82:	f8d9 3000 	ldr.w	r3, [r9]
 8006a86:	4d7a      	ldr	r5, [pc, #488]	; (8006c70 <main+0x640>)
 8006a88:	689b      	ldr	r3, [r3, #8]
 8006a8a:	4629      	mov	r1, r5
 8006a8c:	f44f 627a 	mov.w	r2, #4000	; 0xfa0
 8006a90:	2094      	movs	r0, #148	; 0x94
 8006a92:	4798      	blx	r3
 8006a94:	2800      	cmp	r0, #0
 8006a96:	d179      	bne.n	8006b8c <main+0x55c>
 8006a98:	f894 303d 	ldrb.w	r3, [r4, #61]	; 0x3d
 8006a9c:	2b01      	cmp	r3, #1
 8006a9e:	d175      	bne.n	8006b8c <main+0x55c>
 8006aa0:	6820      	ldr	r0, [r4, #0]
 8006aa2:	6265      	str	r5, [r4, #36]	; 0x24
 8006aa4:	69c2      	ldr	r2, [r0, #28]
 8006aa6:	69c3      	ldr	r3, [r0, #28]
 8006aa8:	f002 0207 	and.w	r2, r2, #7
 8006aac:	2a03      	cmp	r2, #3
 8006aae:	f000 82ae 	beq.w	800700e <main+0x9de>
 8006ab2:	f003 0307 	and.w	r3, r3, #7
 8006ab6:	2b05      	cmp	r3, #5
 8006ab8:	f000 82a9 	beq.w	800700e <main+0x9de>
 8006abc:	f44f 63fa 	mov.w	r3, #2000	; 0x7d0
 8006ac0:	8523      	strh	r3, [r4, #40]	; 0x28
 8006ac2:	8563      	strh	r3, [r4, #42]	; 0x2a
 8006ac4:	f894 303c 	ldrb.w	r3, [r4, #60]	; 0x3c
 8006ac8:	2b01      	cmp	r3, #1
 8006aca:	d05f      	beq.n	8006b8c <main+0x55c>
 8006acc:	6b62      	ldr	r2, [r4, #52]	; 0x34
 8006ace:	f8df e1b8 	ldr.w	lr, [pc, #440]	; 8006c88 <main+0x658>
 8006ad2:	f8df 81b8 	ldr.w	r8, [pc, #440]	; 8006c8c <main+0x65c>
 8006ad6:	f8c2 e040 	str.w	lr, [r2, #64]	; 0x40
 8006ada:	f04f 0c01 	mov.w	ip, #1
 8006ade:	2112      	movs	r1, #18
 8006ae0:	2300      	movs	r3, #0
 8006ae2:	f884 c03c 	strb.w	ip, [r4, #60]	; 0x3c
 8006ae6:	f884 103d 	strb.w	r1, [r4, #61]	; 0x3d
 8006aea:	f884 303e 	strb.w	r3, [r4, #62]	; 0x3e
 8006aee:	f892 3034 	ldrb.w	r3, [r2, #52]	; 0x34
 8006af2:	8d21      	ldrh	r1, [r4, #40]	; 0x28
 8006af4:	f8df e198 	ldr.w	lr, [pc, #408]	; 8006c90 <main+0x660>
 8006af8:	f8c2 e048 	str.w	lr, [r2, #72]	; 0x48
 8006afc:	4563      	cmp	r3, ip
 8006afe:	f8c2 803c 	str.w	r8, [r2, #60]	; 0x3c
 8006b02:	b289      	uxth	r1, r1
 8006b04:	f100 0e0c 	add.w	lr, r0, #12
 8006b08:	d02f      	beq.n	8006b6a <main+0x53a>
 8006b0a:	6813      	ldr	r3, [r2, #0]
 8006b0c:	f882 c034 	strb.w	ip, [r2, #52]	; 0x34
 8006b10:	f04f 0802 	mov.w	r8, #2
 8006b14:	f882 8035 	strb.w	r8, [r2, #53]	; 0x35
 8006b18:	f8d3 c000 	ldr.w	ip, [r3]
 8006b1c:	f8d2 8008 	ldr.w	r8, [r2, #8]
 8006b20:	f02c 0201 	bic.w	r2, ip, #1
 8006b24:	f1b8 0f40 	cmp.w	r8, #64	; 0x40
 8006b28:	601a      	str	r2, [r3, #0]
 8006b2a:	6059      	str	r1, [r3, #4]
 8006b2c:	bf0b      	itete	eq
 8006b2e:	f8c3 e008 	streq.w	lr, [r3, #8]
 8006b32:	609d      	strne	r5, [r3, #8]
 8006b34:	60dd      	streq	r5, [r3, #12]
 8006b36:	f8c3 e00c 	strne.w	lr, [r3, #12]
 8006b3a:	681a      	ldr	r2, [r3, #0]
 8006b3c:	f042 0210 	orr.w	r2, r2, #16
 8006b40:	601a      	str	r2, [r3, #0]
 8006b42:	681a      	ldr	r2, [r3, #0]
 8006b44:	f042 0208 	orr.w	r2, r2, #8
 8006b48:	601a      	str	r2, [r3, #0]
 8006b4a:	681a      	ldr	r2, [r3, #0]
 8006b4c:	f042 0204 	orr.w	r2, r2, #4
 8006b50:	601a      	str	r2, [r3, #0]
 8006b52:	695a      	ldr	r2, [r3, #20]
 8006b54:	f042 0280 	orr.w	r2, r2, #128	; 0x80
 8006b58:	615a      	str	r2, [r3, #20]
 8006b5a:	681a      	ldr	r2, [r3, #0]
 8006b5c:	f042 0202 	orr.w	r2, r2, #2
 8006b60:	601a      	str	r2, [r3, #0]
 8006b62:	681a      	ldr	r2, [r3, #0]
 8006b64:	f042 0201 	orr.w	r2, r2, #1
 8006b68:	601a      	str	r2, [r3, #0]
 8006b6a:	69c3      	ldr	r3, [r0, #28]
 8006b6c:	055d      	lsls	r5, r3, #21
 8006b6e:	d403      	bmi.n	8006b78 <main+0x548>
 8006b70:	69c3      	ldr	r3, [r0, #28]
 8006b72:	f443 6380 	orr.w	r3, r3, #1024	; 0x400
 8006b76:	61c3      	str	r3, [r0, #28]
 8006b78:	6843      	ldr	r3, [r0, #4]
 8006b7a:	0799      	lsls	r1, r3, #30
 8006b7c:	d403      	bmi.n	8006b86 <main+0x556>
 8006b7e:	6843      	ldr	r3, [r0, #4]
 8006b80:	f043 0302 	orr.w	r3, r3, #2
 8006b84:	6043      	str	r3, [r0, #4]
 8006b86:	2300      	movs	r3, #0
 8006b88:	f884 303c 	strb.w	r3, [r4, #60]	; 0x3c
 8006b8c:	4c39      	ldr	r4, [pc, #228]	; (8006c74 <main+0x644>)
 8006b8e:	f8df b104 	ldr.w	fp, [pc, #260]	; 8006c94 <main+0x664>
 8006b92:	2500      	movs	r5, #0
 8006b94:	4629      	mov	r1, r5
 8006b96:	223c      	movs	r2, #60	; 0x3c
 8006b98:	f204 50cc 	addw	r0, r4, #1484	; 0x5cc
 8006b9c:	f884 560c 	strb.w	r5, [r4, #1548]	; 0x60c
 8006ba0:	f8c4 55c4 	str.w	r5, [r4, #1476]	; 0x5c4
 8006ba4:	f8c4 55c8 	str.w	r5, [r4, #1480]	; 0x5c8
 8006ba8:	f007 ff80 	bl	800eaac <memset>
 8006bac:	4629      	mov	r1, r5
 8006bae:	f44f 7200 	mov.w	r2, #512	; 0x200
 8006bb2:	f104 001c 	add.w	r0, r4, #28
 8006bb6:	f007 ff79 	bl	800eaac <memset>
 8006bba:	f04f 0301 	mov.w	r3, #1
 8006bbe:	f44f 7c80 	mov.w	ip, #256	; 0x100
 8006bc2:	70a3      	strb	r3, [r4, #2]
 8006bc4:	f04f 0301 	mov.w	r3, #1
 8006bc8:	4a2b      	ldr	r2, [pc, #172]	; (8006c78 <main+0x648>)
 8006bca:	f8a4 c21c 	strh.w	ip, [r4, #540]	; 0x21c
 8006bce:	f04f 0e40 	mov.w	lr, #64	; 0x40
 8006bd2:	4629      	mov	r1, r5
 8006bd4:	f04f 30ff 	mov.w	r0, #4294967295	; 0xffffffff
 8006bd8:	8323      	strh	r3, [r4, #24]
 8006bda:	7025      	strb	r5, [r4, #0]
 8006bdc:	7065      	strb	r5, [r4, #1]
 8006bde:	f8c4 5608 	str.w	r5, [r4, #1544]	; 0x608
 8006be2:	f884 e006 	strb.w	lr, [r4, #6]
 8006be6:	f8c4 2614 	str.w	r2, [r4, #1556]	; 0x614
 8006bea:	f04f 0803 	mov.w	r8, #3
 8006bee:	f7fa f851 	bl	8000c94 <HAL_NVIC_SetPriority.constprop.2>
 8006bf2:	4a1c      	ldr	r2, [pc, #112]	; (8006c64 <main+0x634>)
 8006bf4:	f88b 8289 	strb.w	r8, [fp, #649]	; 0x289
 8006bf8:	f04f 41a0 	mov.w	r1, #1342177280	; 0x50000000
 8006bfc:	f8cb 1000 	str.w	r1, [fp]
 8006c00:	6b11      	ldr	r1, [r2, #48]	; 0x30
 8006c02:	f8cb 5010 	str.w	r5, [fp, #16]
 8006c06:	f041 0101 	orr.w	r1, r1, #1
 8006c0a:	6311      	str	r1, [r2, #48]	; 0x30
 8006c0c:	6b11      	ldr	r1, [r2, #48]	; 0x30
 8006c0e:	f8cb 5020 	str.w	r5, [fp, #32]
 8006c12:	f041 0104 	orr.w	r1, r1, #4
 8006c16:	6311      	str	r1, [r2, #48]	; 0x30
 8006c18:	2302      	movs	r3, #2
 8006c1a:	f44f 52c0 	mov.w	r2, #6144	; 0x1800
 8006c1e:	e9cd 230a 	strd	r2, r3, [sp, #40]	; 0x28
 8006c22:	f04f 0c0b 	mov.w	ip, #11
 8006c26:	2200      	movs	r2, #0
 8006c28:	2303      	movs	r3, #3
 8006c2a:	f04f 0a02 	mov.w	sl, #2
 8006c2e:	f04f 090a 	mov.w	r9, #10
 8006c32:	4812      	ldr	r0, [pc, #72]	; (8006c7c <main+0x64c>)
 8006c34:	f8cb 501c 	str.w	r5, [fp, #28]
 8006c38:	a90a      	add	r1, sp, #40	; 0x28
 8006c3a:	e9cd 230c 	strd	r2, r3, [sp, #48]	; 0x30
 8006c3e:	f8cb 5024 	str.w	r5, [fp, #36]	; 0x24
 8006c42:	f8cb c008 	str.w	ip, [fp, #8]
 8006c46:	f8cb 428c 	str.w	r4, [fp, #652]	; 0x28c
 8006c4a:	f8c4 b610 	str.w	fp, [r4, #1552]	; 0x610
 8006c4e:	f8cb 800c 	str.w	r8, [fp, #12]
 8006c52:	f8cb a018 	str.w	sl, [fp, #24]
 8006c56:	f8cd 9038 	str.w	r9, [sp, #56]	; 0x38
 8006c5a:	e01d      	b.n	8006c98 <main+0x668>
 8006c5c:	20000028 	.word	0x20000028
 8006c60:	2001edec 	.word	0x2001edec
 8006c64:	40023800 	.word	0x40023800
 8006c68:	007a1200 	.word	0x007a1200
 8006c6c:	00f42400 	.word	0x00f42400
 8006c70:	20000968 	.word	0x20000968
 8006c74:	2001f0bc 	.word	0x2001f0bc
 8006c78:	0800116d 	.word	0x0800116d
 8006c7c:	40020000 	.word	0x40020000
 8006c80:	2001f7cc 	.word	0x2001f7cc
 8006c84:	40003c00 	.word	0x40003c00
 8006c88:	0800b3c9 	.word	0x0800b3c9
 8006c8c:	0800b3f5 	.word	0x0800b3f5
 8006c90:	080015a9 	.word	0x080015a9
 8006c94:	2001ee2c 	.word	0x2001ee2c
 8006c98:	f7f9 fe78 	bl	800098c <HAL_GPIO_Init>
 8006c9c:	f44f 6280 	mov.w	r2, #1024	; 0x400
 8006ca0:	2312      	movs	r3, #18
 8006ca2:	e9cd 230a 	strd	r2, r3, [sp, #40]	; 0x28
 8006ca6:	2201      	movs	r2, #1
 8006ca8:	2303      	movs	r3, #3
 8006caa:	e9cd 230c 	strd	r2, r3, [sp, #48]	; 0x30
 8006cae:	2501      	movs	r5, #1
 8006cb0:	4abe      	ldr	r2, [pc, #760]	; (8006fac <main+0x97c>)
 8006cb2:	f8cd 9038 	str.w	r9, [sp, #56]	; 0x38
 8006cb6:	f8cd a010 	str.w	sl, [sp, #16]
 8006cba:	46ac      	mov	ip, r5
 8006cbc:	9605      	str	r6, [sp, #20]
 8006cbe:	fa0c f005 	lsl.w	r0, ip, r5
 8006cc2:	f430 6380 	bics.w	r3, r0, #1024	; 0x400
 8006cc6:	d134      	bne.n	8006d32 <main+0x702>
 8006cc8:	08e9      	lsrs	r1, r5, #3
 8006cca:	0089      	lsls	r1, r1, #2
 8006ccc:	f101 4180 	add.w	r1, r1, #1073741824	; 0x40000000
 8006cd0:	f501 3100 	add.w	r1, r1, #131072	; 0x20000
 8006cd4:	f005 0307 	and.w	r3, r5, #7
 8006cd8:	f8d1 e020 	ldr.w	lr, [r1, #32]
 8006cdc:	009b      	lsls	r3, r3, #2
 8006cde:	260f      	movs	r6, #15
 8006ce0:	fa06 fa03 	lsl.w	sl, r6, r3
 8006ce4:	ea2e 0e0a 	bic.w	lr, lr, sl
 8006ce8:	fa09 f303 	lsl.w	r3, r9, r3
 8006cec:	ea43 030e 	orr.w	r3, r3, lr
 8006cf0:	620b      	str	r3, [r1, #32]
 8006cf2:	f8d2 a000 	ldr.w	sl, [r2]
 8006cf6:	9e04      	ldr	r6, [sp, #16]
 8006cf8:	006b      	lsls	r3, r5, #1
 8006cfa:	fa08 f103 	lsl.w	r1, r8, r3
 8006cfe:	ea2a 0a01 	bic.w	sl, sl, r1
 8006d02:	fa06 fe03 	lsl.w	lr, r6, r3
 8006d06:	ea4e 0e0a 	orr.w	lr, lr, sl
 8006d0a:	f8c2 e000 	str.w	lr, [r2]
 8006d0e:	f8d2 e008 	ldr.w	lr, [r2, #8]
 8006d12:	ea41 0e0e 	orr.w	lr, r1, lr
 8006d16:	f8c2 e008 	str.w	lr, [r2, #8]
 8006d1a:	f8d2 e004 	ldr.w	lr, [r2, #4]
 8006d1e:	ea40 000e 	orr.w	r0, r0, lr
 8006d22:	6050      	str	r0, [r2, #4]
 8006d24:	68d0      	ldr	r0, [r2, #12]
 8006d26:	fa0c f303 	lsl.w	r3, ip, r3
 8006d2a:	ea20 0101 	bic.w	r1, r0, r1
 8006d2e:	430b      	orrs	r3, r1
 8006d30:	60d3      	str	r3, [r2, #12]
 8006d32:	3501      	adds	r5, #1
 8006d34:	2d10      	cmp	r5, #16
 8006d36:	d1c2      	bne.n	8006cbe <main+0x68e>
 8006d38:	2201      	movs	r2, #1
 8006d3a:	2301      	movs	r3, #1
 8006d3c:	e9cd 230a 	strd	r2, r3, [sp, #40]	; 0x28
 8006d40:	489b      	ldr	r0, [pc, #620]	; (8006fb0 <main+0x980>)
 8006d42:	9e05      	ldr	r6, [sp, #20]
 8006d44:	2200      	movs	r2, #0
 8006d46:	2302      	movs	r3, #2
 8006d48:	a90a      	add	r1, sp, #40	; 0x28
 8006d4a:	e9cd 230c 	strd	r2, r3, [sp, #48]	; 0x30
 8006d4e:	f7f9 ff67 	bl	8000c20 <HAL_GPIO_Init.constprop.1>
 8006d52:	4b98      	ldr	r3, [pc, #608]	; (8006fb4 <main+0x984>)
 8006d54:	6b5a      	ldr	r2, [r3, #52]	; 0x34
 8006d56:	f042 0280 	orr.w	r2, r2, #128	; 0x80
 8006d5a:	635a      	str	r2, [r3, #52]	; 0x34
 8006d5c:	6c5a      	ldr	r2, [r3, #68]	; 0x44
 8006d5e:	f442 4280 	orr.w	r2, r2, #16384	; 0x4000
 8006d62:	645a      	str	r2, [r3, #68]	; 0x44
 8006d64:	2106      	movs	r1, #6
 8006d66:	2043      	movs	r0, #67	; 0x43
 8006d68:	f7f9 ff94 	bl	8000c94 <HAL_NVIC_SetPriority.constprop.2>
 8006d6c:	4b92      	ldr	r3, [pc, #584]	; (8006fb8 <main+0x988>)
 8006d6e:	f8db 2018 	ldr.w	r2, [fp, #24]
 8006d72:	f8db 5010 	ldr.w	r5, [fp, #16]
 8006d76:	2108      	movs	r1, #8
 8006d78:	6099      	str	r1, [r3, #8]
 8006d7a:	f8db 1000 	ldr.w	r1, [fp]
 8006d7e:	688b      	ldr	r3, [r1, #8]
 8006d80:	2a01      	cmp	r2, #1
 8006d82:	f023 0301 	bic.w	r3, r3, #1
 8006d86:	608b      	str	r3, [r1, #8]
 8006d88:	f040 8146 	bne.w	8007018 <main+0x9e8>
 8006d8c:	6b8b      	ldr	r3, [r1, #56]	; 0x38
 8006d8e:	f8db 202c 	ldr.w	r2, [fp, #44]	; 0x2c
 8006d92:	f423 3380 	bic.w	r3, r3, #65536	; 0x10000
 8006d96:	638b      	str	r3, [r1, #56]	; 0x38
 8006d98:	68cb      	ldr	r3, [r1, #12]
 8006d9a:	f423 0384 	bic.w	r3, r3, #4325376	; 0x420000
 8006d9e:	f023 0340 	bic.w	r3, r3, #64	; 0x40
 8006da2:	60cb      	str	r3, [r1, #12]
 8006da4:	68cb      	ldr	r3, [r1, #12]
 8006da6:	2a01      	cmp	r2, #1
 8006da8:	f423 1340 	bic.w	r3, r3, #3145728	; 0x300000
 8006dac:	60cb      	str	r3, [r1, #12]
 8006dae:	d103      	bne.n	8006db8 <main+0x788>
 8006db0:	68cb      	ldr	r3, [r1, #12]
 8006db2:	f443 1380 	orr.w	r3, r3, #1048576	; 0x100000
 8006db6:	60cb      	str	r3, [r1, #12]
 8006db8:	4608      	mov	r0, r1
 8006dba:	f7fa fa37 	bl	800122c <USB_CoreReset>
 8006dbe:	2d01      	cmp	r5, #1
 8006dc0:	d107      	bne.n	8006dd2 <main+0x7a2>
 8006dc2:	688b      	ldr	r3, [r1, #8]
 8006dc4:	f043 030c 	orr.w	r3, r3, #12
 8006dc8:	608b      	str	r3, [r1, #8]
 8006dca:	688b      	ldr	r3, [r1, #8]
 8006dcc:	f043 0320 	orr.w	r3, r3, #32
 8006dd0:	608b      	str	r3, [r1, #8]
 8006dd2:	f8db 3000 	ldr.w	r3, [fp]
 8006dd6:	68da      	ldr	r2, [r3, #12]
 8006dd8:	f022 42c0 	bic.w	r2, r2, #1610612736	; 0x60000000
 8006ddc:	60da      	str	r2, [r3, #12]
 8006dde:	68da      	ldr	r2, [r3, #12]
 8006de0:	f042 5200 	orr.w	r2, r2, #536870912	; 0x20000000
 8006de4:	60da      	str	r2, [r3, #12]
 8006de6:	2032      	movs	r0, #50	; 0x32
 8006de8:	f004 fde8 	bl	800b9bc <HAL_Delay>
 8006dec:	f8db 5000 	ldr.w	r5, [fp]
 8006df0:	f8db 8010 	ldr.w	r8, [fp, #16]
 8006df4:	2300      	movs	r3, #0
 8006df6:	e9db 1202 	ldrd	r1, r2, [fp, #8]
 8006dfa:	f8c5 3e00 	str.w	r3, [r5, #3584]	; 0xe00
 8006dfe:	6bab      	ldr	r3, [r5, #56]	; 0x38
 8006e00:	f423 2380 	bic.w	r3, r3, #262144	; 0x40000
 8006e04:	63ab      	str	r3, [r5, #56]	; 0x38
 8006e06:	6bab      	ldr	r3, [r5, #56]	; 0x38
 8006e08:	f423 2300 	bic.w	r3, r3, #524288	; 0x80000
 8006e0c:	63ab      	str	r3, [r5, #56]	; 0x38
 8006e0e:	6bab      	ldr	r3, [r5, #56]	; 0x38
 8006e10:	f443 1300 	orr.w	r3, r3, #2097152	; 0x200000
 8006e14:	63ab      	str	r3, [r5, #56]	; 0x38
 8006e16:	2a03      	cmp	r2, #3
 8006e18:	f8d5 3400 	ldr.w	r3, [r5, #1024]	; 0x400
 8006e1c:	f000 8107 	beq.w	800702e <main+0x9fe>
 8006e20:	f023 0304 	bic.w	r3, r3, #4
 8006e24:	f8c5 3400 	str.w	r3, [r5, #1024]	; 0x400
 8006e28:	f44f 7308 	mov.w	r3, #544	; 0x220
 8006e2c:	612b      	str	r3, [r5, #16]
 8006e2e:	4b63      	ldr	r3, [pc, #396]	; (8006fbc <main+0x98c>)
 8006e30:	e001      	b.n	8006e36 <main+0x806>
 8006e32:	3b01      	subs	r3, #1
 8006e34:	d002      	beq.n	8006e3c <main+0x80c>
 8006e36:	692a      	ldr	r2, [r5, #16]
 8006e38:	0692      	lsls	r2, r2, #26
 8006e3a:	d4fa      	bmi.n	8006e32 <main+0x802>
 8006e3c:	2310      	movs	r3, #16
 8006e3e:	612b      	str	r3, [r5, #16]
 8006e40:	4b5e      	ldr	r3, [pc, #376]	; (8006fbc <main+0x98c>)
 8006e42:	e001      	b.n	8006e48 <main+0x818>
 8006e44:	3b01      	subs	r3, #1
 8006e46:	d002      	beq.n	8006e4e <main+0x81e>
 8006e48:	692a      	ldr	r2, [r5, #16]
 8006e4a:	06d0      	lsls	r0, r2, #27
 8006e4c:	d4fa      	bmi.n	8006e44 <main+0x814>
 8006e4e:	b169      	cbz	r1, 8006e6c <main+0x83c>
 8006e50:	2200      	movs	r2, #0
 8006e52:	4694      	mov	ip, r2
 8006e54:	f505 63a0 	add.w	r3, r5, #1280	; 0x500
 8006e58:	f04f 30ff 	mov.w	r0, #4294967295	; 0xffffffff
 8006e5c:	3201      	adds	r2, #1
 8006e5e:	4291      	cmp	r1, r2
 8006e60:	6098      	str	r0, [r3, #8]
 8006e62:	f8c3 c00c 	str.w	ip, [r3, #12]
 8006e66:	f103 0320 	add.w	r3, r3, #32
 8006e6a:	d1f7      	bne.n	8006e5c <main+0x82c>
 8006e6c:	f8d5 3440 	ldr.w	r3, [r5, #1088]	; 0x440
 8006e70:	9307      	str	r3, [sp, #28]
 8006e72:	9b07      	ldr	r3, [sp, #28]
 8006e74:	f023 032e 	bic.w	r3, r3, #46	; 0x2e
 8006e78:	9307      	str	r3, [sp, #28]
 8006e7a:	9b07      	ldr	r3, [sp, #28]
 8006e7c:	04db      	lsls	r3, r3, #19
 8006e7e:	d404      	bmi.n	8006e8a <main+0x85a>
 8006e80:	9b07      	ldr	r3, [sp, #28]
 8006e82:	f443 5380 	orr.w	r3, r3, #4096	; 0x1000
 8006e86:	f8c5 3440 	str.w	r3, [r5, #1088]	; 0x440
 8006e8a:	20c8      	movs	r0, #200	; 0xc8
 8006e8c:	9b07      	ldr	r3, [sp, #28]
 8006e8e:	f004 fd95 	bl	800b9bc <HAL_Delay>
 8006e92:	2200      	movs	r2, #0
 8006e94:	f04f 33ff 	mov.w	r3, #4294967295	; 0xffffffff
 8006e98:	f1b5 4fa0 	cmp.w	r5, #1342177280	; 0x50000000
 8006e9c:	61aa      	str	r2, [r5, #24]
 8006e9e:	616b      	str	r3, [r5, #20]
 8006ea0:	f000 84cf 	beq.w	8007842 <main+0x1212>
 8006ea4:	f44f 7300 	mov.w	r3, #512	; 0x200
 8006ea8:	626b      	str	r3, [r5, #36]	; 0x24
 8006eaa:	4a45      	ldr	r2, [pc, #276]	; (8006fc0 <main+0x990>)
 8006eac:	4b45      	ldr	r3, [pc, #276]	; (8006fc4 <main+0x994>)
 8006eae:	62aa      	str	r2, [r5, #40]	; 0x28
 8006eb0:	f8c5 3100 	str.w	r3, [r5, #256]	; 0x100
 8006eb4:	f1b8 0f00 	cmp.w	r8, #0
 8006eb8:	d103      	bne.n	8006ec2 <main+0x892>
 8006eba:	69ab      	ldr	r3, [r5, #24]
 8006ebc:	f043 0310 	orr.w	r3, r3, #16
 8006ec0:	61ab      	str	r3, [r5, #24]
 8006ec2:	69a9      	ldr	r1, [r5, #24]
 8006ec4:	4a40      	ldr	r2, [pc, #256]	; (8006fc8 <main+0x998>)
 8006ec6:	f8db 3000 	ldr.w	r3, [fp]
 8006eca:	430a      	orrs	r2, r1
 8006ecc:	f503 6380 	add.w	r3, r3, #1024	; 0x400
 8006ed0:	2101      	movs	r1, #1
 8006ed2:	61aa      	str	r2, [r5, #24]
 8006ed4:	f88b 1289 	strb.w	r1, [fp, #649]	; 0x289
 8006ed8:	689b      	ldr	r3, [r3, #8]
 8006eda:	f8d4 25c8 	ldr.w	r2, [r4, #1480]	; 0x5c8
 8006ede:	b29b      	uxth	r3, r3
 8006ee0:	f8c4 3608 	str.w	r3, [r4, #1544]	; 0x608
 8006ee4:	b922      	cbnz	r2, 8006ef0 <main+0x8c0>
 8006ee6:	4b39      	ldr	r3, [pc, #228]	; (8006fcc <main+0x99c>)
 8006ee8:	f8c4 15c8 	str.w	r1, [r4, #1480]	; 0x5c8
 8006eec:	f8c4 35c0 	str.w	r3, [r4, #1472]	; 0x5c0
 8006ef0:	f8d4 3610 	ldr.w	r3, [r4, #1552]	; 0x610
 8006ef4:	f893 2288 	ldrb.w	r2, [r3, #648]	; 0x288
 8006ef8:	2a01      	cmp	r2, #1
 8006efa:	d01a      	beq.n	8006f32 <main+0x902>
 8006efc:	681a      	ldr	r2, [r3, #0]
 8006efe:	2101      	movs	r1, #1
 8006f00:	f883 1288 	strb.w	r1, [r3, #648]	; 0x288
 8006f04:	6891      	ldr	r1, [r2, #8]
 8006f06:	f041 0101 	orr.w	r1, r1, #1
 8006f0a:	6091      	str	r1, [r2, #8]
 8006f0c:	f8d2 1440 	ldr.w	r1, [r2, #1088]	; 0x440
 8006f10:	9108      	str	r1, [sp, #32]
 8006f12:	9908      	ldr	r1, [sp, #32]
 8006f14:	f021 012e 	bic.w	r1, r1, #46	; 0x2e
 8006f18:	9108      	str	r1, [sp, #32]
 8006f1a:	9908      	ldr	r1, [sp, #32]
 8006f1c:	04c9      	lsls	r1, r1, #19
 8006f1e:	d404      	bmi.n	8006f2a <main+0x8fa>
 8006f20:	9908      	ldr	r1, [sp, #32]
 8006f22:	f441 5180 	orr.w	r1, r1, #4096	; 0x1000
 8006f26:	f8c2 1440 	str.w	r1, [r2, #1088]	; 0x440
 8006f2a:	9a08      	ldr	r2, [sp, #32]
 8006f2c:	2200      	movs	r2, #0
 8006f2e:	f883 2288 	strb.w	r2, [r3, #648]	; 0x288
 8006f32:	4b1f      	ldr	r3, [pc, #124]	; (8006fb0 <main+0x980>)
 8006f34:	f8df 80a0 	ldr.w	r8, [pc, #160]	; 8006fd8 <main+0x9a8>
 8006f38:	2201      	movs	r2, #1
 8006f3a:	835a      	strh	r2, [r3, #26]
 8006f3c:	20c8      	movs	r0, #200	; 0xc8
 8006f3e:	f004 fd3d 	bl	800b9bc <HAL_Delay>
 8006f42:	2500      	movs	r5, #0
 8006f44:	46ab      	mov	fp, r5
 8006f46:	f898 3000 	ldrb.w	r3, [r8]
 8006f4a:	2b02      	cmp	r3, #2
 8006f4c:	f000 80b8 	beq.w	80070c0 <main+0xa90>
 8006f50:	2b04      	cmp	r3, #4
 8006f52:	f000 834d 	beq.w	80075f0 <main+0xfc0>
 8006f56:	2302      	movs	r3, #2
 8006f58:	f88d 301b 	strb.w	r3, [sp, #27]
 8006f5c:	7821      	ldrb	r1, [r4, #0]
 8006f5e:	b2c9      	uxtb	r1, r1
 8006f60:	290a      	cmp	r1, #10
 8006f62:	d8f0      	bhi.n	8006f46 <main+0x916>
 8006f64:	a301      	add	r3, pc, #4	; (adr r3, 8006f6c <main+0x93c>)
 8006f66:	f853 f021 	ldr.w	pc, [r3, r1, lsl #2]
 8006f6a:	bf00      	nop
 8006f6c:	0800736b 	.word	0x0800736b
 8006f70:	08006f47 	.word	0x08006f47
 8006f74:	08007231 	.word	0x08007231
 8006f78:	0800719d 	.word	0x0800719d
 8006f7c:	08006f47 	.word	0x08006f47
 8006f80:	08007181 	.word	0x08007181
 8006f84:	0800715d 	.word	0x0800715d
 8006f88:	08007147 	.word	0x08007147
 8006f8c:	08007127 	.word	0x08007127
 8006f90:	080070e9 	.word	0x080070e9
 8006f94:	080070a7 	.word	0x080070a7
 8006f98:	4b0d      	ldr	r3, [pc, #52]	; (8006fd0 <main+0x9a0>)
 8006f9a:	4e0e      	ldr	r6, [pc, #56]	; (8006fd4 <main+0x9a4>)
 8006f9c:	4805      	ldr	r0, [pc, #20]	; (8006fb4 <main+0x984>)
 8006f9e:	2200      	movs	r2, #0
 8006fa0:	701a      	strb	r2, [r3, #0]
 8006fa2:	6831      	ldr	r1, [r6, #0]
 8006fa4:	f241 3288 	movw	r2, #5000	; 0x1388
 8006fa8:	e01d      	b.n	8006fe6 <main+0x9b6>
 8006faa:	bf00      	nop
 8006fac:	40020000 	.word	0x40020000
 8006fb0:	40020800 	.word	0x40020800
 8006fb4:	40023800 	.word	0x40023800
 8006fb8:	e000e100 	.word	0xe000e100
 8006fbc:	00030d40 	.word	0x00030d40
 8006fc0:	01000200 	.word	0x01000200
 8006fc4:	00e00300 	.word	0x00e00300
 8006fc8:	a3200008 	.word	0xa3200008
 8006fcc:	20000004 	.word	0x20000004
 8006fd0:	40023802 	.word	0x40023802
 8006fd4:	2001f7dc 	.word	0x2001f7dc
 8006fd8:	200008c8 	.word	0x200008c8
 8006fdc:	6833      	ldr	r3, [r6, #0]
 8006fde:	1a5b      	subs	r3, r3, r1
 8006fe0:	4293      	cmp	r3, r2
 8006fe2:	f63f ab95 	bhi.w	8006710 <main+0xe0>
 8006fe6:	6803      	ldr	r3, [r0, #0]
 8006fe8:	039b      	lsls	r3, r3, #14
 8006fea:	d4f7      	bmi.n	8006fdc <main+0x9ac>
 8006fec:	4b89      	ldr	r3, [pc, #548]	; (8007214 <main+0xbe4>)
 8006fee:	488a      	ldr	r0, [pc, #552]	; (8007218 <main+0xbe8>)
 8006ff0:	2201      	movs	r2, #1
 8006ff2:	701a      	strb	r2, [r3, #0]
 8006ff4:	6831      	ldr	r1, [r6, #0]
 8006ff6:	f241 3288 	movw	r2, #5000	; 0x1388
 8006ffa:	6803      	ldr	r3, [r0, #0]
 8006ffc:	039d      	lsls	r5, r3, #14
 8006ffe:	f53f ab58 	bmi.w	80066b2 <main+0x82>
 8007002:	6833      	ldr	r3, [r6, #0]
 8007004:	1a5b      	subs	r3, r3, r1
 8007006:	4293      	cmp	r3, r2
 8007008:	d9f7      	bls.n	8006ffa <main+0x9ca>
 800700a:	f7ff bb81 	b.w	8006710 <main+0xe0>
 800700e:	f44f 637a 	mov.w	r3, #4000	; 0xfa0
 8007012:	8523      	strh	r3, [r4, #40]	; 0x28
 8007014:	8563      	strh	r3, [r4, #42]	; 0x2a
 8007016:	e555      	b.n	8006ac4 <main+0x494>
 8007018:	68cb      	ldr	r3, [r1, #12]
 800701a:	f043 0340 	orr.w	r3, r3, #64	; 0x40
 800701e:	60cb      	str	r3, [r1, #12]
 8007020:	4608      	mov	r0, r1
 8007022:	f7fa f903 	bl	800122c <USB_CoreReset>
 8007026:	f44f 3380 	mov.w	r3, #65536	; 0x10000
 800702a:	638b      	str	r3, [r1, #56]	; 0x38
 800702c:	e6c7      	b.n	8006dbe <main+0x78e>
 800702e:	f1b5 4fa0 	cmp.w	r5, #1342177280	; 0x50000000
 8007032:	f43f aef5 	beq.w	8006e20 <main+0x7f0>
 8007036:	f043 0304 	orr.w	r3, r3, #4
 800703a:	f8c5 3400 	str.w	r3, [r5, #1024]	; 0x400
 800703e:	e6f3      	b.n	8006e28 <main+0x7f8>
 8007040:	4876      	ldr	r0, [pc, #472]	; (800721c <main+0xbec>)
 8007042:	4a77      	ldr	r2, [pc, #476]	; (8007220 <main+0xbf0>)
 8007044:	4281      	cmp	r1, r0
 8007046:	bf0c      	ite	eq
 8007048:	4611      	moveq	r1, r2
 800704a:	f04f 2140 	movne.w	r1, #1073758208	; 0x40004000
 800704e:	2002      	movs	r0, #2
 8007050:	69ca      	ldr	r2, [r1, #28]
 8007052:	f422 627b 	bic.w	r2, r2, #4016	; 0xfb0
 8007056:	f022 020f 	bic.w	r2, r2, #15
 800705a:	61ca      	str	r2, [r1, #28]
 800705c:	f438 7800 	bics.w	r8, r8, #512	; 0x200
 8007060:	6208      	str	r0, [r1, #32]
 8007062:	69ca      	ldr	r2, [r1, #28]
 8007064:	d01c      	beq.n	80070a0 <main+0xa70>
 8007066:	f5b8 7f80 	cmp.w	r8, #256	; 0x100
 800706a:	bf08      	it	eq
 800706c:	2300      	moveq	r3, #0
 800706e:	ea4c 0c0a 	orr.w	ip, ip, sl
 8007072:	ea4c 0303 	orr.w	r3, ip, r3
 8007076:	ea43 030e 	orr.w	r3, r3, lr
 800707a:	4313      	orrs	r3, r2
 800707c:	f443 6300 	orr.w	r3, r3, #2048	; 0x800
 8007080:	61cb      	str	r3, [r1, #28]
 8007082:	e4f8      	b.n	8006a76 <main+0x446>
 8007084:	0a1a      	lsrs	r2, r3, #8
 8007086:	230a      	movs	r3, #10
 8007088:	fb03 f302 	mul.w	r3, r3, r2
 800708c:	fbb3 f3f5 	udiv	r3, r3, r5
 8007090:	3305      	adds	r3, #5
 8007092:	e4c9      	b.n	8006a28 <main+0x3f8>
 8007094:	0212      	lsls	r2, r2, #8
 8007096:	e4d5      	b.n	8006a44 <main+0x414>
 8007098:	2301      	movs	r3, #1
 800709a:	f884 303d 	strb.w	r3, [r4, #61]	; 0x3d
 800709e:	e4f0      	b.n	8006a82 <main+0x452>
 80070a0:	f44f 7380 	mov.w	r3, #256	; 0x100
 80070a4:	e7e3      	b.n	800706e <main+0xa3e>
 80070a6:	f8d4 35c4 	ldr.w	r3, [r4, #1476]	; 0x5c4
 80070aa:	2b00      	cmp	r3, #0
 80070ac:	f43f af4b 	beq.w	8006f46 <main+0x916>
 80070b0:	695b      	ldr	r3, [r3, #20]
 80070b2:	485c      	ldr	r0, [pc, #368]	; (8007224 <main+0xbf4>)
 80070b4:	4798      	blx	r3
 80070b6:	f898 3000 	ldrb.w	r3, [r8]
 80070ba:	2b02      	cmp	r3, #2
 80070bc:	f47f af48 	bne.w	8006f50 <main+0x920>
 80070c0:	f8d4 35c4 	ldr.w	r3, [r4, #1476]	; 0x5c4
 80070c4:	69db      	ldr	r3, [r3, #28]
 80070c6:	781a      	ldrb	r2, [r3, #0]
 80070c8:	2a01      	cmp	r2, #1
 80070ca:	d809      	bhi.n	80070e0 <main+0xab0>
 80070cc:	4a56      	ldr	r2, [pc, #344]	; (8007228 <main+0xbf8>)
 80070ce:	611a      	str	r2, [r3, #16]
 80070d0:	2040      	movs	r0, #64	; 0x40
 80070d2:	2101      	movs	r1, #1
 80070d4:	f04f 0c03 	mov.w	ip, #3
 80070d8:	82d8      	strh	r0, [r3, #22]
 80070da:	7019      	strb	r1, [r3, #0]
 80070dc:	f883 c019 	strb.w	ip, [r3, #25]
 80070e0:	2303      	movs	r3, #3
 80070e2:	f888 3000 	strb.w	r3, [r8]
 80070e6:	e736      	b.n	8006f56 <main+0x926>
 80070e8:	f8d4 35c8 	ldr.w	r3, [r4, #1480]	; 0x5c8
 80070ec:	2b00      	cmp	r3, #0
 80070ee:	f43f af2a 	beq.w	8006f46 <main+0x916>
 80070f2:	f8d4 35c0 	ldr.w	r3, [r4, #1472]	; 0x5c0
 80070f6:	f8c4 55c4 	str.w	r5, [r4, #1476]	; 0x5c4
 80070fa:	7919      	ldrb	r1, [r3, #4]
 80070fc:	f894 2241 	ldrb.w	r2, [r4, #577]	; 0x241
 8007100:	4291      	cmp	r1, r2
 8007102:	f040 82a6 	bne.w	8007652 <main+0x1022>
 8007106:	f8c4 35c4 	str.w	r3, [r4, #1476]	; 0x5c4
 800710a:	4846      	ldr	r0, [pc, #280]	; (8007224 <main+0xbf4>)
 800710c:	689b      	ldr	r3, [r3, #8]
 800710e:	4798      	blx	r3
 8007110:	2800      	cmp	r0, #0
 8007112:	f040 829e 	bne.w	8007652 <main+0x1022>
 8007116:	2306      	movs	r3, #6
 8007118:	7023      	strb	r3, [r4, #0]
 800711a:	4842      	ldr	r0, [pc, #264]	; (8007224 <main+0xbf4>)
 800711c:	f8d4 3614 	ldr.w	r3, [r4, #1556]	; 0x614
 8007120:	2103      	movs	r1, #3
 8007122:	4798      	blx	r3
 8007124:	e70f      	b.n	8006f46 <main+0x916>
 8007126:	78a3      	ldrb	r3, [r4, #2]
 8007128:	2b01      	cmp	r3, #1
 800712a:	f000 8295 	beq.w	8007658 <main+0x1028>
 800712e:	2b02      	cmp	r3, #2
 8007130:	f47f af09 	bne.w	8006f46 <main+0x916>
 8007134:	483b      	ldr	r0, [pc, #236]	; (8007224 <main+0xbf4>)
 8007136:	f004 fc4f 	bl	800b9d8 <USBH_CtlReq.part.0>
 800713a:	2800      	cmp	r0, #0
 800713c:	f47f af03 	bne.w	8006f46 <main+0x916>
 8007140:	2309      	movs	r3, #9
 8007142:	7023      	strb	r3, [r4, #0]
 8007144:	e6ff      	b.n	8006f46 <main+0x916>
 8007146:	f8d4 3614 	ldr.w	r3, [r4, #1556]	; 0x614
 800714a:	2b00      	cmp	r3, #0
 800714c:	f43f aefb 	beq.w	8006f46 <main+0x916>
 8007150:	4834      	ldr	r0, [pc, #208]	; (8007224 <main+0xbf4>)
 8007152:	2101      	movs	r1, #1
 8007154:	4798      	blx	r3
 8007156:	2308      	movs	r3, #8
 8007158:	7023      	strb	r3, [r4, #0]
 800715a:	e6f4      	b.n	8006f46 <main+0x916>
 800715c:	f8d4 35c4 	ldr.w	r3, [r4, #1476]	; 0x5c4
 8007160:	2b00      	cmp	r3, #0
 8007162:	f000 8276 	beq.w	8007652 <main+0x1022>
 8007166:	691b      	ldr	r3, [r3, #16]
 8007168:	482e      	ldr	r0, [pc, #184]	; (8007224 <main+0xbf4>)
 800716a:	4798      	blx	r3
 800716c:	f88d 001b 	strb.w	r0, [sp, #27]
 8007170:	f89d 301b 	ldrb.w	r3, [sp, #27]
 8007174:	2b00      	cmp	r3, #0
 8007176:	f47f aee6 	bne.w	8006f46 <main+0x916>
 800717a:	230a      	movs	r3, #10
 800717c:	7023      	strb	r3, [r4, #0]
 800717e:	e6e2      	b.n	8006f46 <main+0x916>
 8007180:	7863      	ldrb	r3, [r4, #1]
 8007182:	2b07      	cmp	r3, #7
 8007184:	f63f aedf 	bhi.w	8006f46 <main+0x916>
 8007188:	e8df f013 	tbh	[pc, r3, lsl #1]
 800718c:	018e0209 	.word	0x018e0209
 8007190:	01340197 	.word	0x01340197
 8007194:	012c0155 	.word	0x012c0155
 8007198:	01150124 	.word	0x01150124
 800719c:	f44f 7200 	mov.w	r2, #512	; 0x200
 80071a0:	2100      	movs	r1, #0
 80071a2:	4822      	ldr	r0, [pc, #136]	; (800722c <main+0xbfc>)
 80071a4:	f8c4 55cc 	str.w	r5, [r4, #1484]	; 0x5cc
 80071a8:	f8c4 55d0 	str.w	r5, [r4, #1488]	; 0x5d0
 80071ac:	f8c4 55d4 	str.w	r5, [r4, #1492]	; 0x5d4
 80071b0:	f8c4 55d8 	str.w	r5, [r4, #1496]	; 0x5d8
 80071b4:	f8c4 55dc 	str.w	r5, [r4, #1500]	; 0x5dc
 80071b8:	f8c4 55e0 	str.w	r5, [r4, #1504]	; 0x5e0
 80071bc:	f8c4 55e4 	str.w	r5, [r4, #1508]	; 0x5e4
 80071c0:	f8c4 55e8 	str.w	r5, [r4, #1512]	; 0x5e8
 80071c4:	f8c4 55ec 	str.w	r5, [r4, #1516]	; 0x5ec
 80071c8:	f8c4 55f0 	str.w	r5, [r4, #1520]	; 0x5f0
 80071cc:	f8c4 55f4 	str.w	r5, [r4, #1524]	; 0x5f4
 80071d0:	f8c4 55f8 	str.w	r5, [r4, #1528]	; 0x5f8
 80071d4:	f8c4 55fc 	str.w	r5, [r4, #1532]	; 0x5fc
 80071d8:	f8c4 5600 	str.w	r5, [r4, #1536]	; 0x600
 80071dc:	f8c4 5604 	str.w	r5, [r4, #1540]	; 0x604
 80071e0:	f007 fc64 	bl	800eaac <memset>
 80071e4:	f8d4 25c4 	ldr.w	r2, [r4, #1476]	; 0x5c4
 80071e8:	7025      	strb	r5, [r4, #0]
 80071ea:	2301      	movs	r3, #1
 80071ec:	2040      	movs	r0, #64	; 0x40
 80071ee:	f44f 7180 	mov.w	r1, #256	; 0x100
 80071f2:	7065      	strb	r5, [r4, #1]
 80071f4:	f8c4 5608 	str.w	r5, [r4, #1544]	; 0x608
 80071f8:	70a3      	strb	r3, [r4, #2]
 80071fa:	8323      	strh	r3, [r4, #24]
 80071fc:	71a0      	strb	r0, [r4, #6]
 80071fe:	f8a4 121c 	strh.w	r1, [r4, #540]	; 0x21c
 8007202:	2a00      	cmp	r2, #0
 8007204:	f43f ae9f 	beq.w	8006f46 <main+0x916>
 8007208:	68d3      	ldr	r3, [r2, #12]
 800720a:	4806      	ldr	r0, [pc, #24]	; (8007224 <main+0xbf4>)
 800720c:	4798      	blx	r3
 800720e:	f8c4 55c4 	str.w	r5, [r4, #1476]	; 0x5c4
 8007212:	e698      	b.n	8006f46 <main+0x916>
 8007214:	40023802 	.word	0x40023802
 8007218:	40023800 	.word	0x40023800
 800721c:	40003800 	.word	0x40003800
 8007220:	40003400 	.word	0x40003400
 8007224:	2001f0bc 	.word	0x2001f0bc
 8007228:	20000914 	.word	0x20000914
 800722c:	2001f0d8 	.word	0x2001f0d8
 8007230:	6832      	ldr	r2, [r6, #0]
 8007232:	6833      	ldr	r3, [r6, #0]
 8007234:	1a9b      	subs	r3, r3, r2
 8007236:	2b64      	cmp	r3, #100	; 0x64
 8007238:	d3fb      	bcc.n	8007232 <main+0xc02>
 800723a:	f8d4 3610 	ldr.w	r3, [r4, #1552]	; 0x610
 800723e:	f8d4 25cc 	ldr.w	r2, [r4, #1484]	; 0x5cc
 8007242:	681b      	ldr	r3, [r3, #0]
 8007244:	f8d3 3440 	ldr.w	r3, [r3, #1088]	; 0x440
 8007248:	930a      	str	r3, [sp, #40]	; 0x28
 800724a:	9b0a      	ldr	r3, [sp, #40]	; 0x28
 800724c:	f3c3 4341 	ubfx	r3, r3, #17, #2
 8007250:	2b03      	cmp	r3, #3
 8007252:	bf08      	it	eq
 8007254:	2301      	moveq	r3, #1
 8007256:	b2db      	uxtb	r3, r3
 8007258:	2005      	movs	r0, #5
 800725a:	f412 4200 	ands.w	r2, r2, #32768	; 0x8000
 800725e:	f884 321d 	strb.w	r3, [r4, #541]	; 0x21d
 8007262:	7020      	strb	r0, [r4, #0]
 8007264:	f000 8209 	beq.w	800767a <main+0x104a>
 8007268:	f8d4 25d0 	ldr.w	r2, [r4, #1488]	; 0x5d0
 800726c:	0412      	lsls	r2, r2, #16
 800726e:	f140 821a 	bpl.w	80076a6 <main+0x1076>
 8007272:	f8d4 25d4 	ldr.w	r2, [r4, #1492]	; 0x5d4
 8007276:	0412      	lsls	r2, r2, #16
 8007278:	f140 821b 	bpl.w	80076b2 <main+0x1082>
 800727c:	f8d4 25d8 	ldr.w	r2, [r4, #1496]	; 0x5d8
 8007280:	0412      	lsls	r2, r2, #16
 8007282:	f140 821b 	bpl.w	80076bc <main+0x108c>
 8007286:	f8d4 25dc 	ldr.w	r2, [r4, #1500]	; 0x5dc
 800728a:	0412      	lsls	r2, r2, #16
 800728c:	f140 821f 	bpl.w	80076ce <main+0x109e>
 8007290:	f8d4 25e0 	ldr.w	r2, [r4, #1504]	; 0x5e0
 8007294:	0412      	lsls	r2, r2, #16
 8007296:	f140 8220 	bpl.w	80076da <main+0x10aa>
 800729a:	f8d4 25e4 	ldr.w	r2, [r4, #1508]	; 0x5e4
 800729e:	0410      	lsls	r0, r2, #16
 80072a0:	f140 821e 	bpl.w	80076e0 <main+0x10b0>
 80072a4:	f8d4 25e8 	ldr.w	r2, [r4, #1512]	; 0x5e8
 80072a8:	0412      	lsls	r2, r2, #16
 80072aa:	f140 821f 	bpl.w	80076ec <main+0x10bc>
 80072ae:	f8d4 25ec 	ldr.w	r2, [r4, #1516]	; 0x5ec
 80072b2:	0410      	lsls	r0, r2, #16
 80072b4:	f140 824f 	bpl.w	8007756 <main+0x1126>
 80072b8:	f8d4 25f0 	ldr.w	r2, [r4, #1520]	; 0x5f0
 80072bc:	0412      	lsls	r2, r2, #16
 80072be:	f140 81db 	bpl.w	8007678 <main+0x1048>
 80072c2:	f8d4 25f4 	ldr.w	r2, [r4, #1524]	; 0x5f4
 80072c6:	0410      	lsls	r0, r2, #16
 80072c8:	f140 8258 	bpl.w	800777c <main+0x114c>
 80072cc:	22ff      	movs	r2, #255	; 0xff
 80072ce:	7162      	strb	r2, [r4, #5]
 80072d0:	f8d4 25d0 	ldr.w	r2, [r4, #1488]	; 0x5d0
 80072d4:	0412      	lsls	r2, r2, #16
 80072d6:	f140 81e9 	bpl.w	80076ac <main+0x107c>
 80072da:	f8d4 25d4 	ldr.w	r2, [r4, #1492]	; 0x5d4
 80072de:	0410      	lsls	r0, r2, #16
 80072e0:	f140 81ea 	bpl.w	80076b8 <main+0x1088>
 80072e4:	f8d4 25d8 	ldr.w	r2, [r4, #1496]	; 0x5d8
 80072e8:	0411      	lsls	r1, r2, #16
 80072ea:	f140 81ea 	bpl.w	80076c2 <main+0x1092>
 80072ee:	f8d4 25dc 	ldr.w	r2, [r4, #1500]	; 0x5dc
 80072f2:	0412      	lsls	r2, r2, #16
 80072f4:	f140 81e8 	bpl.w	80076c8 <main+0x1098>
 80072f8:	f8d4 25e0 	ldr.w	r2, [r4, #1504]	; 0x5e0
 80072fc:	0410      	lsls	r0, r2, #16
 80072fe:	f140 81e9 	bpl.w	80076d4 <main+0x10a4>
 8007302:	f8d4 25e4 	ldr.w	r2, [r4, #1508]	; 0x5e4
 8007306:	0411      	lsls	r1, r2, #16
 8007308:	f140 81ed 	bpl.w	80076e6 <main+0x10b6>
 800730c:	f8d4 25e8 	ldr.w	r2, [r4, #1512]	; 0x5e8
 8007310:	0412      	lsls	r2, r2, #16
 8007312:	f140 81ee 	bpl.w	80076f2 <main+0x10c2>
 8007316:	f8d4 25ec 	ldr.w	r2, [r4, #1516]	; 0x5ec
 800731a:	0410      	lsls	r0, r2, #16
 800731c:	f140 8225 	bpl.w	800776a <main+0x113a>
 8007320:	f8d4 25f0 	ldr.w	r2, [r4, #1520]	; 0x5f0
 8007324:	0411      	lsls	r1, r2, #16
 8007326:	f140 8223 	bpl.w	8007770 <main+0x1140>
 800732a:	f8d4 25f4 	ldr.w	r2, [r4, #1524]	; 0x5f4
 800732e:	0412      	lsls	r2, r2, #16
 8007330:	bf48      	it	mi
 8007332:	21ff      	movmi	r1, #255	; 0xff
 8007334:	f140 821f 	bpl.w	8007776 <main+0x1146>
 8007338:	79a2      	ldrb	r2, [r4, #6]
 800733a:	9202      	str	r2, [sp, #8]
 800733c:	e9cd 3b00 	strd	r3, fp, [sp]
 8007340:	2280      	movs	r2, #128	; 0x80
 8007342:	f894 321c 	ldrb.w	r3, [r4, #540]	; 0x21c
 8007346:	7121      	strb	r1, [r4, #4]
 8007348:	48ca      	ldr	r0, [pc, #808]	; (8007674 <main+0x1044>)
 800734a:	f7f9 fcd1 	bl	8000cf0 <USBH_LL_OpenPipe>
 800734e:	79a2      	ldrb	r2, [r4, #6]
 8007350:	f894 321d 	ldrb.w	r3, [r4, #541]	; 0x21d
 8007354:	9300      	str	r3, [sp, #0]
 8007356:	e9cd b201 	strd	fp, r2, [sp, #4]
 800735a:	48c6      	ldr	r0, [pc, #792]	; (8007674 <main+0x1044>)
 800735c:	f894 321c 	ldrb.w	r3, [r4, #540]	; 0x21c
 8007360:	7961      	ldrb	r1, [r4, #5]
 8007362:	2200      	movs	r2, #0
 8007364:	f7f9 fcc4 	bl	8000cf0 <USBH_LL_OpenPipe>
 8007368:	e5ed      	b.n	8006f46 <main+0x916>
 800736a:	f894 321e 	ldrb.w	r3, [r4, #542]	; 0x21e
 800736e:	2b00      	cmp	r3, #0
 8007370:	f43f ade9 	beq.w	8006f46 <main+0x916>
 8007374:	2301      	movs	r3, #1
 8007376:	7023      	strb	r3, [r4, #0]
 8007378:	6832      	ldr	r2, [r6, #0]
 800737a:	6833      	ldr	r3, [r6, #0]
 800737c:	1a9b      	subs	r3, r3, r2
 800737e:	2bc8      	cmp	r3, #200	; 0xc8
 8007380:	d3fb      	bcc.n	800737a <main+0xd4a>
 8007382:	f8d4 3610 	ldr.w	r3, [r4, #1552]	; 0x610
 8007386:	6819      	ldr	r1, [r3, #0]
 8007388:	f8d1 3440 	ldr.w	r3, [r1, #1088]	; 0x440
 800738c:	9309      	str	r3, [sp, #36]	; 0x24
 800738e:	9b09      	ldr	r3, [sp, #36]	; 0x24
 8007390:	f023 032e 	bic.w	r3, r3, #46	; 0x2e
 8007394:	9309      	str	r3, [sp, #36]	; 0x24
 8007396:	9b09      	ldr	r3, [sp, #36]	; 0x24
 8007398:	f443 7380 	orr.w	r3, r3, #256	; 0x100
 800739c:	f8c1 3440 	str.w	r3, [r1, #1088]	; 0x440
 80073a0:	6832      	ldr	r2, [r6, #0]
 80073a2:	6833      	ldr	r3, [r6, #0]
 80073a4:	1a9b      	subs	r3, r3, r2
 80073a6:	2b0a      	cmp	r3, #10
 80073a8:	d3fb      	bcc.n	80073a2 <main+0xd72>
 80073aa:	9b09      	ldr	r3, [sp, #36]	; 0x24
 80073ac:	f423 7380 	bic.w	r3, r3, #256	; 0x100
 80073b0:	f8c1 3440 	str.w	r3, [r1, #1088]	; 0x440
 80073b4:	e5c7      	b.n	8006f46 <main+0x916>
 80073b6:	f894 0230 	ldrb.w	r0, [r4, #560]	; 0x230
 80073ba:	2800      	cmp	r0, #0
 80073bc:	f040 81bc 	bne.w	8007738 <main+0x1108>
 80073c0:	f894 3231 	ldrb.w	r3, [r4, #561]	; 0x231
 80073c4:	f884 521f 	strb.w	r5, [r4, #543]	; 0x21f
 80073c8:	2b01      	cmp	r3, #1
 80073ca:	f43f aec4 	beq.w	8007156 <main+0xb26>
 80073ce:	2307      	movs	r3, #7
 80073d0:	7023      	strb	r3, [r4, #0]
 80073d2:	e5b8      	b.n	8006f46 <main+0x916>
 80073d4:	f894 022f 	ldrb.w	r0, [r4, #559]	; 0x22f
 80073d8:	2800      	cmp	r0, #0
 80073da:	f040 81bf 	bne.w	800775c <main+0x112c>
 80073de:	2307      	movs	r3, #7
 80073e0:	7063      	strb	r3, [r4, #1]
 80073e2:	e5b0      	b.n	8006f46 <main+0x916>
 80073e4:	f894 022e 	ldrb.w	r0, [r4, #558]	; 0x22e
 80073e8:	2800      	cmp	r0, #0
 80073ea:	f040 81ad 	bne.w	8007748 <main+0x1118>
 80073ee:	2306      	movs	r3, #6
 80073f0:	7063      	strb	r3, [r4, #1]
 80073f2:	e5a8      	b.n	8006f46 <main+0x916>
 80073f4:	78a3      	ldrb	r3, [r4, #2]
 80073f6:	2b01      	cmp	r3, #1
 80073f8:	f000 818b 	beq.w	8007712 <main+0x10e2>
 80073fc:	2b02      	cmp	r3, #2
 80073fe:	f47f ada2 	bne.w	8006f46 <main+0x916>
 8007402:	489c      	ldr	r0, [pc, #624]	; (8007674 <main+0x1044>)
 8007404:	f004 fae8 	bl	800b9d8 <USBH_CtlReq.part.0>
 8007408:	2800      	cmp	r0, #0
 800740a:	f47f ad9c 	bne.w	8006f46 <main+0x916>
 800740e:	7fe2      	ldrb	r2, [r4, #31]
 8007410:	7fa3      	ldrb	r3, [r4, #30]
 8007412:	f8b4 c01c 	ldrh.w	ip, [r4, #28]
 8007416:	6a21      	ldr	r1, [r4, #32]
 8007418:	f894 0024 	ldrb.w	r0, [r4, #36]	; 0x24
 800741c:	f8a4 c232 	strh.w	ip, [r4, #562]	; 0x232
 8007420:	eb03 2302 	add.w	r3, r3, r2, lsl #8
 8007424:	2204      	movs	r2, #4
 8007426:	f8a4 3234 	strh.w	r3, [r4, #564]	; 0x234
 800742a:	f8c4 1236 	str.w	r1, [r4, #566]	; 0x236
 800742e:	f884 023a 	strb.w	r0, [r4, #570]	; 0x23a
 8007432:	7062      	strb	r2, [r4, #1]
 8007434:	e587      	b.n	8006f46 <main+0x916>
 8007436:	78a3      	ldrb	r3, [r4, #2]
 8007438:	f8b4 9234 	ldrh.w	r9, [r4, #564]	; 0x234
 800743c:	2b01      	cmp	r3, #1
 800743e:	f000 815b 	beq.w	80076f8 <main+0x10c8>
 8007442:	2b02      	cmp	r3, #2
 8007444:	f47f ad7f 	bne.w	8006f46 <main+0x916>
 8007448:	488a      	ldr	r0, [pc, #552]	; (8007674 <main+0x1044>)
 800744a:	f004 fac5 	bl	800b9d8 <USBH_CtlReq.part.0>
 800744e:	2800      	cmp	r0, #0
 8007450:	f47f ad79 	bne.w	8006f46 <main+0x916>
 8007454:	7fe2      	ldrb	r2, [r4, #31]
 8007456:	f894 c01e 	ldrb.w	ip, [r4, #30]
 800745a:	8ba1      	ldrh	r1, [r4, #28]
 800745c:	6a23      	ldr	r3, [r4, #32]
 800745e:	f8a4 1232 	strh.w	r1, [r4, #562]	; 0x232
 8007462:	eb0c 2c02 	add.w	ip, ip, r2, lsl #8
 8007466:	fa1f fc8c 	uxth.w	ip, ip
 800746a:	f894 2024 	ldrb.w	r2, [r4, #36]	; 0x24
 800746e:	f8a4 c234 	strh.w	ip, [r4, #564]	; 0x234
 8007472:	f1b9 0f09 	cmp.w	r9, #9
 8007476:	f8c4 3236 	str.w	r3, [r4, #566]	; 0x236
 800747a:	f884 223a 	strb.w	r2, [r4, #570]	; 0x23a
 800747e:	d910      	bls.n	80074a2 <main+0xe72>
 8007480:	f8df a1f0 	ldr.w	sl, [pc, #496]	; 8007674 <main+0x1044>
 8007484:	9004      	str	r0, [sp, #16]
 8007486:	f10a 011c 	add.w	r1, sl, #28
 800748a:	2309      	movs	r3, #9
 800748c:	e007      	b.n	800749e <main+0xe6e>
 800748e:	780a      	ldrb	r2, [r1, #0]
 8007490:	4411      	add	r1, r2
 8007492:	4413      	add	r3, r2
 8007494:	784a      	ldrb	r2, [r1, #1]
 8007496:	2a04      	cmp	r2, #4
 8007498:	b29b      	uxth	r3, r3
 800749a:	f000 8172 	beq.w	8007782 <main+0x1152>
 800749e:	459c      	cmp	ip, r3
 80074a0:	d8f5      	bhi.n	800748e <main+0xe5e>
 80074a2:	2305      	movs	r3, #5
 80074a4:	7063      	strb	r3, [r4, #1]
 80074a6:	e54e      	b.n	8006f46 <main+0x916>
 80074a8:	2012      	movs	r0, #18
 80074aa:	f7fd fe85 	bl	80051b8 <USBH_Get_DevDesc.constprop.0>
 80074ae:	2800      	cmp	r0, #0
 80074b0:	f47f ad49 	bne.w	8006f46 <main+0x916>
 80074b4:	2302      	movs	r3, #2
 80074b6:	7063      	strb	r3, [r4, #1]
 80074b8:	e545      	b.n	8006f46 <main+0x916>
 80074ba:	78a3      	ldrb	r3, [r4, #2]
 80074bc:	2b01      	cmp	r3, #1
 80074be:	f000 8137 	beq.w	8007730 <main+0x1100>
 80074c2:	2b02      	cmp	r3, #2
 80074c4:	f47f ad3f 	bne.w	8006f46 <main+0x916>
 80074c8:	486a      	ldr	r0, [pc, #424]	; (8007674 <main+0x1044>)
 80074ca:	f004 fa85 	bl	800b9d8 <USBH_CtlReq.part.0>
 80074ce:	2800      	cmp	r0, #0
 80074d0:	f47f ad39 	bne.w	8006f46 <main+0x916>
 80074d4:	6832      	ldr	r2, [r6, #0]
 80074d6:	6833      	ldr	r3, [r6, #0]
 80074d8:	1a9b      	subs	r3, r3, r2
 80074da:	2b02      	cmp	r3, #2
 80074dc:	d3fb      	bcc.n	80074d6 <main+0xea6>
 80074de:	f8d4 0610 	ldr.w	r0, [r4, #1552]	; 0x610
 80074e2:	79a2      	ldrb	r2, [r4, #6]
 80074e4:	f890 1288 	ldrb.w	r1, [r0, #648]	; 0x288
 80074e8:	f894 921d 	ldrb.w	r9, [r4, #541]	; 0x21d
 80074ec:	f04f 0c03 	mov.w	ip, #3
 80074f0:	b293      	uxth	r3, r2
 80074f2:	f04f 0a01 	mov.w	sl, #1
 80074f6:	2901      	cmp	r1, #1
 80074f8:	9304      	str	r3, [sp, #16]
 80074fa:	f884 a21c 	strb.w	sl, [r4, #540]	; 0x21c
 80074fe:	f884 c001 	strb.w	ip, [r4, #1]
 8007502:	d040      	beq.n	8007586 <main+0xf56>
 8007504:	7921      	ldrb	r1, [r4, #4]
 8007506:	eb01 0e81 	add.w	lr, r1, r1, lsl #2
 800750a:	eb00 0ece 	add.w	lr, r0, lr, lsl #3
 800750e:	f44f 7c80 	mov.w	ip, #256	; 0x100
 8007512:	f88e a030 	strb.w	sl, [lr, #48]	; 0x30
 8007516:	f88e 1031 	strb.w	r1, [lr, #49]	; 0x31
 800751a:	f88e 5037 	strb.w	r5, [lr, #55]	; 0x37
 800751e:	f88e 9034 	strb.w	r9, [lr, #52]	; 0x34
 8007522:	f8ae c032 	strh.w	ip, [lr, #50]	; 0x32
 8007526:	f8d0 c000 	ldr.w	ip, [r0]
 800752a:	f8ae 3038 	strh.w	r3, [lr, #56]	; 0x38
 800752e:	eb0c 1341 	add.w	r3, ip, r1, lsl #5
 8007532:	f04f 3aff 	mov.w	sl, #4294967295	; 0xffffffff
 8007536:	f8c3 a508 	str.w	sl, [r3, #1288]	; 0x508
 800753a:	f240 4a9d 	movw	sl, #1181	; 0x49d
 800753e:	f8c3 a50c 	str.w	sl, [r3, #1292]	; 0x50c
 8007542:	f8d3 a50c 	ldr.w	sl, [r3, #1292]	; 0x50c
 8007546:	9305      	str	r3, [sp, #20]
 8007548:	f44a 7a80 	orr.w	sl, sl, #256	; 0x100
 800754c:	f8c3 a50c 	str.w	sl, [r3, #1292]	; 0x50c
 8007550:	2301      	movs	r3, #1
 8007552:	408b      	lsls	r3, r1
 8007554:	f8dc 1418 	ldr.w	r1, [ip, #1048]	; 0x418
 8007558:	430b      	orrs	r3, r1
 800755a:	f8cc 3418 	str.w	r3, [ip, #1048]	; 0x418
 800755e:	f1b9 0f02 	cmp.w	r9, #2
 8007562:	f8dc 1018 	ldr.w	r1, [ip, #24]
 8007566:	bf0c      	ite	eq
 8007568:	f44f 3300 	moveq.w	r3, #131072	; 0x20000
 800756c:	2300      	movne	r3, #0
 800756e:	4313      	orrs	r3, r2
 8007570:	9a05      	ldr	r2, [sp, #20]
 8007572:	f041 7100 	orr.w	r1, r1, #33554432	; 0x2000000
 8007576:	f443 0381 	orr.w	r3, r3, #4227072	; 0x408000
 800757a:	f8cc 1018 	str.w	r1, [ip, #24]
 800757e:	f8c2 3500 	str.w	r3, [r2, #1280]	; 0x500
 8007582:	f880 5288 	strb.w	r5, [r0, #648]	; 0x288
 8007586:	9b04      	ldr	r3, [sp, #16]
 8007588:	f8cd 9000 	str.w	r9, [sp]
 800758c:	e9cd b301 	strd	fp, r3, [sp, #4]
 8007590:	2200      	movs	r2, #0
 8007592:	7961      	ldrb	r1, [r4, #5]
 8007594:	4837      	ldr	r0, [pc, #220]	; (8007674 <main+0x1044>)
 8007596:	2301      	movs	r3, #1
 8007598:	f7f9 fbaa 	bl	8000cf0 <USBH_LL_OpenPipe>
 800759c:	e4d3      	b.n	8006f46 <main+0x916>
 800759e:	2008      	movs	r0, #8
 80075a0:	f7fd fe0a 	bl	80051b8 <USBH_Get_DevDesc.constprop.0>
 80075a4:	4681      	mov	r9, r0
 80075a6:	2800      	cmp	r0, #0
 80075a8:	f47f accd 	bne.w	8006f46 <main+0x916>
 80075ac:	f894 2227 	ldrb.w	r2, [r4, #551]	; 0x227
 80075b0:	f894 321d 	ldrb.w	r3, [r4, #541]	; 0x21d
 80075b4:	9300      	str	r3, [sp, #0]
 80075b6:	e9cd 0201 	strd	r0, r2, [sp, #4]
 80075ba:	f04f 0c01 	mov.w	ip, #1
 80075be:	f894 321c 	ldrb.w	r3, [r4, #540]	; 0x21c
 80075c2:	7921      	ldrb	r1, [r4, #4]
 80075c4:	71a2      	strb	r2, [r4, #6]
 80075c6:	f884 c001 	strb.w	ip, [r4, #1]
 80075ca:	2280      	movs	r2, #128	; 0x80
 80075cc:	4829      	ldr	r0, [pc, #164]	; (8007674 <main+0x1044>)
 80075ce:	f7f9 fb8f 	bl	8000cf0 <USBH_LL_OpenPipe>
 80075d2:	79a1      	ldrb	r1, [r4, #6]
 80075d4:	f894 321d 	ldrb.w	r3, [r4, #541]	; 0x21d
 80075d8:	9300      	str	r3, [sp, #0]
 80075da:	f8cd 9004 	str.w	r9, [sp, #4]
 80075de:	9102      	str	r1, [sp, #8]
 80075e0:	f894 321c 	ldrb.w	r3, [r4, #540]	; 0x21c
 80075e4:	7961      	ldrb	r1, [r4, #5]
 80075e6:	4823      	ldr	r0, [pc, #140]	; (8007674 <main+0x1044>)
 80075e8:	464a      	mov	r2, r9
 80075ea:	f7f9 fb81 	bl	8000cf0 <USBH_LL_OpenPipe>
 80075ee:	e4aa      	b.n	8006f46 <main+0x916>
 80075f0:	7823      	ldrb	r3, [r4, #0]
 80075f2:	f888 5000 	strb.w	r5, [r8]
 80075f6:	2b0a      	cmp	r3, #10
 80075f8:	f47f acad 	bne.w	8006f56 <main+0x926>
 80075fc:	f8d4 35c4 	ldr.w	r3, [r4, #1476]	; 0x5c4
 8007600:	f8d3 a01c 	ldr.w	sl, [r3, #28]
 8007604:	f88a 5000 	strb.w	r5, [sl]
 8007608:	f8d4 9610 	ldr.w	r9, [r4, #1552]	; 0x610
 800760c:	f899 3288 	ldrb.w	r3, [r9, #648]	; 0x288
 8007610:	2b01      	cmp	r3, #1
 8007612:	f43f aca0 	beq.w	8006f56 <main+0x926>
 8007616:	2301      	movs	r3, #1
 8007618:	f89a 1001 	ldrb.w	r1, [sl, #1]
 800761c:	f8d9 0000 	ldr.w	r0, [r9]
 8007620:	f889 3288 	strb.w	r3, [r9, #648]	; 0x288
 8007624:	f7f8 ffb8 	bl	8000598 <USB_HC_Halt>
 8007628:	f889 5288 	strb.w	r5, [r9, #648]	; 0x288
 800762c:	f8d4 9610 	ldr.w	r9, [r4, #1552]	; 0x610
 8007630:	f89a 1002 	ldrb.w	r1, [sl, #2]
 8007634:	f899 2288 	ldrb.w	r2, [r9, #648]	; 0x288
 8007638:	2a01      	cmp	r2, #1
 800763a:	f43f ac8c 	beq.w	8006f56 <main+0x926>
 800763e:	2301      	movs	r3, #1
 8007640:	f8d9 0000 	ldr.w	r0, [r9]
 8007644:	f889 3288 	strb.w	r3, [r9, #648]	; 0x288
 8007648:	f7f8 ffa6 	bl	8000598 <USB_HC_Halt>
 800764c:	f889 5288 	strb.w	r5, [r9, #648]	; 0x288
 8007650:	e481      	b.n	8006f56 <main+0x926>
 8007652:	230c      	movs	r3, #12
 8007654:	7023      	strb	r3, [r4, #0]
 8007656:	e476      	b.n	8006f46 <main+0x916>
 8007658:	f894 2237 	ldrb.w	r2, [r4, #567]	; 0x237
 800765c:	6165      	str	r5, [r4, #20]
 800765e:	f44f 6310 	mov.w	r3, #2304	; 0x900
 8007662:	8262      	strh	r2, [r4, #18]
 8007664:	8223      	strh	r3, [r4, #16]
 8007666:	2201      	movs	r2, #1
 8007668:	2302      	movs	r3, #2
 800766a:	60a5      	str	r5, [r4, #8]
 800766c:	81a5      	strh	r5, [r4, #12]
 800766e:	7622      	strb	r2, [r4, #24]
 8007670:	70a3      	strb	r3, [r4, #2]
 8007672:	e468      	b.n	8006f46 <main+0x916>
 8007674:	2001f0bc 	.word	0x2001f0bc
 8007678:	2209      	movs	r2, #9
 800767a:	4694      	mov	ip, r2
 800767c:	eb04 0282 	add.w	r2, r4, r2, lsl #2
 8007680:	f44f 4000 	mov.w	r0, #32768	; 0x8000
 8007684:	f8c2 05cc 	str.w	r0, [r2, #1484]	; 0x5cc
 8007688:	f8d4 25cc 	ldr.w	r2, [r4, #1484]	; 0x5cc
 800768c:	f884 c005 	strb.w	ip, [r4, #5]
 8007690:	4002      	ands	r2, r0
 8007692:	f47f ae1d 	bne.w	80072d0 <main+0xca0>
 8007696:	4611      	mov	r1, r2
 8007698:	eb04 0282 	add.w	r2, r4, r2, lsl #2
 800769c:	f248 0080 	movw	r0, #32896	; 0x8080
 80076a0:	f8c2 05cc 	str.w	r0, [r2, #1484]	; 0x5cc
 80076a4:	e648      	b.n	8007338 <main+0xd08>
 80076a6:	2201      	movs	r2, #1
 80076a8:	4694      	mov	ip, r2
 80076aa:	e7e7      	b.n	800767c <main+0x104c>
 80076ac:	2101      	movs	r1, #1
 80076ae:	460a      	mov	r2, r1
 80076b0:	e7f2      	b.n	8007698 <main+0x1068>
 80076b2:	468c      	mov	ip, r1
 80076b4:	2202      	movs	r2, #2
 80076b6:	e7e1      	b.n	800767c <main+0x104c>
 80076b8:	2202      	movs	r2, #2
 80076ba:	e7ed      	b.n	8007698 <main+0x1068>
 80076bc:	2203      	movs	r2, #3
 80076be:	4694      	mov	ip, r2
 80076c0:	e7dc      	b.n	800767c <main+0x104c>
 80076c2:	2103      	movs	r1, #3
 80076c4:	460a      	mov	r2, r1
 80076c6:	e7e7      	b.n	8007698 <main+0x1068>
 80076c8:	2104      	movs	r1, #4
 80076ca:	460a      	mov	r2, r1
 80076cc:	e7e4      	b.n	8007698 <main+0x1068>
 80076ce:	2204      	movs	r2, #4
 80076d0:	4694      	mov	ip, r2
 80076d2:	e7d3      	b.n	800767c <main+0x104c>
 80076d4:	2105      	movs	r1, #5
 80076d6:	460a      	mov	r2, r1
 80076d8:	e7de      	b.n	8007698 <main+0x1068>
 80076da:	4602      	mov	r2, r0
 80076dc:	4684      	mov	ip, r0
 80076de:	e7cd      	b.n	800767c <main+0x104c>
 80076e0:	2206      	movs	r2, #6
 80076e2:	4694      	mov	ip, r2
 80076e4:	e7ca      	b.n	800767c <main+0x104c>
 80076e6:	2106      	movs	r1, #6
 80076e8:	460a      	mov	r2, r1
 80076ea:	e7d5      	b.n	8007698 <main+0x1068>
 80076ec:	2207      	movs	r2, #7
 80076ee:	4694      	mov	ip, r2
 80076f0:	e7c4      	b.n	800767c <main+0x104c>
 80076f2:	2107      	movs	r1, #7
 80076f4:	460a      	mov	r2, r1
 80076f6:	e7cf      	b.n	8007698 <main+0x1068>
 80076f8:	49b7      	ldr	r1, [pc, #732]	; (80079d8 <main+0x13a8>)
 80076fa:	48b8      	ldr	r0, [pc, #736]	; (80079dc <main+0x13ac>)
 80076fc:	82a5      	strh	r5, [r4, #20]
 80076fe:	2202      	movs	r2, #2
 8007700:	f8a4 9016 	strh.w	r9, [r4, #22]
 8007704:	60a0      	str	r0, [r4, #8]
 8007706:	f8a4 900c 	strh.w	r9, [r4, #12]
 800770a:	7623      	strb	r3, [r4, #24]
 800770c:	6121      	str	r1, [r4, #16]
 800770e:	70a2      	strb	r2, [r4, #2]
 8007710:	e419      	b.n	8006f46 <main+0x916>
 8007712:	4ab2      	ldr	r2, [pc, #712]	; (80079dc <main+0x13ac>)
 8007714:	48b0      	ldr	r0, [pc, #704]	; (80079d8 <main+0x13a8>)
 8007716:	60a2      	str	r2, [r4, #8]
 8007718:	f04f 0c09 	mov.w	ip, #9
 800771c:	f44f 2110 	mov.w	r1, #589824	; 0x90000
 8007720:	2202      	movs	r2, #2
 8007722:	e9c4 0104 	strd	r0, r1, [r4, #16]
 8007726:	7623      	strb	r3, [r4, #24]
 8007728:	f8a4 c00c 	strh.w	ip, [r4, #12]
 800772c:	70a2      	strb	r2, [r4, #2]
 800772e:	e40a      	b.n	8006f46 <main+0x916>
 8007730:	4bab      	ldr	r3, [pc, #684]	; (80079e0 <main+0x13b0>)
 8007732:	e9c4 3504 	strd	r3, r5, [r4, #16]
 8007736:	e796      	b.n	8007666 <main+0x1036>
 8007738:	49a8      	ldr	r1, [pc, #672]	; (80079dc <main+0x13ac>)
 800773a:	f7f9 f8e9 	bl	8000910 <USBH_Get_StringDesc.constprop.0>
 800773e:	2800      	cmp	r0, #0
 8007740:	f43f ae3e 	beq.w	80073c0 <main+0xd90>
 8007744:	f7ff bbff 	b.w	8006f46 <main+0x916>
 8007748:	49a4      	ldr	r1, [pc, #656]	; (80079dc <main+0x13ac>)
 800774a:	f7f9 f8e1 	bl	8000910 <USBH_Get_StringDesc.constprop.0>
 800774e:	2800      	cmp	r0, #0
 8007750:	f47f abf9 	bne.w	8006f46 <main+0x916>
 8007754:	e64b      	b.n	80073ee <main+0xdbe>
 8007756:	2208      	movs	r2, #8
 8007758:	4694      	mov	ip, r2
 800775a:	e78f      	b.n	800767c <main+0x104c>
 800775c:	499f      	ldr	r1, [pc, #636]	; (80079dc <main+0x13ac>)
 800775e:	f7f9 f8d7 	bl	8000910 <USBH_Get_StringDesc.constprop.0>
 8007762:	2800      	cmp	r0, #0
 8007764:	f47f abef 	bne.w	8006f46 <main+0x916>
 8007768:	e639      	b.n	80073de <main+0xdae>
 800776a:	2108      	movs	r1, #8
 800776c:	460a      	mov	r2, r1
 800776e:	e793      	b.n	8007698 <main+0x1068>
 8007770:	2109      	movs	r1, #9
 8007772:	460a      	mov	r2, r1
 8007774:	e790      	b.n	8007698 <main+0x1068>
 8007776:	220a      	movs	r2, #10
 8007778:	4611      	mov	r1, r2
 800777a:	e78d      	b.n	8007698 <main+0x1068>
 800777c:	220a      	movs	r2, #10
 800777e:	4694      	mov	ip, r2
 8007780:	e77c      	b.n	800767c <main+0x104c>
 8007782:	780a      	ldrb	r2, [r1, #0]
 8007784:	f88a 223c 	strb.w	r2, [sl, #572]	; 0x23c
 8007788:	784a      	ldrb	r2, [r1, #1]
 800778a:	f88a 223d 	strb.w	r2, [sl, #573]	; 0x23d
 800778e:	788a      	ldrb	r2, [r1, #2]
 8007790:	f88a 223e 	strb.w	r2, [sl, #574]	; 0x23e
 8007794:	78ca      	ldrb	r2, [r1, #3]
 8007796:	f88a 223f 	strb.w	r2, [sl, #575]	; 0x23f
 800779a:	f891 9004 	ldrb.w	r9, [r1, #4]
 800779e:	f88a 9240 	strb.w	r9, [sl, #576]	; 0x240
 80077a2:	794a      	ldrb	r2, [r1, #5]
 80077a4:	f88a 2241 	strb.w	r2, [sl, #577]	; 0x241
 80077a8:	798a      	ldrb	r2, [r1, #6]
 80077aa:	f88a 2242 	strb.w	r2, [sl, #578]	; 0x242
 80077ae:	79ca      	ldrb	r2, [r1, #7]
 80077b0:	f88a 2243 	strb.w	r2, [sl, #579]	; 0x243
 80077b4:	7a0a      	ldrb	r2, [r1, #8]
 80077b6:	f88a 2244 	strb.w	r2, [sl, #580]	; 0x244
 80077ba:	f1b9 0f00 	cmp.w	r9, #0
 80077be:	d037      	beq.n	8007830 <main+0x1200>
 80077c0:	459c      	cmp	ip, r3
 80077c2:	d935      	bls.n	8007830 <main+0x1200>
 80077c4:	9a04      	ldr	r2, [sp, #16]
 80077c6:	205a      	movs	r0, #90	; 0x5a
 80077c8:	fb00 f202 	mul.w	r2, r0, r2
 80077cc:	f04f 0e00 	mov.w	lr, #0
 80077d0:	9205      	str	r2, [sp, #20]
 80077d2:	4670      	mov	r0, lr
 80077d4:	e001      	b.n	80077da <main+0x11aa>
 80077d6:	459c      	cmp	ip, r3
 80077d8:	d92a      	bls.n	8007830 <main+0x1200>
 80077da:	780a      	ldrb	r2, [r1, #0]
 80077dc:	4411      	add	r1, r2
 80077de:	4413      	add	r3, r2
 80077e0:	784a      	ldrb	r2, [r1, #1]
 80077e2:	2a05      	cmp	r2, #5
 80077e4:	b29b      	uxth	r3, r3
 80077e6:	d120      	bne.n	800782a <main+0x11fa>
 80077e8:	1c42      	adds	r2, r0, #1
 80077ea:	9805      	ldr	r0, [sp, #20]
 80077ec:	eb00 02c2 	add.w	r2, r0, r2, lsl #3
 80077f0:	4422      	add	r2, r4
 80077f2:	7808      	ldrb	r0, [r1, #0]
 80077f4:	f882 023e 	strb.w	r0, [r2, #574]	; 0x23e
 80077f8:	7848      	ldrb	r0, [r1, #1]
 80077fa:	f882 023f 	strb.w	r0, [r2, #575]	; 0x23f
 80077fe:	7888      	ldrb	r0, [r1, #2]
 8007800:	f882 0240 	strb.w	r0, [r2, #576]	; 0x240
 8007804:	78c8      	ldrb	r0, [r1, #3]
 8007806:	f882 0241 	strb.w	r0, [r2, #577]	; 0x241
 800780a:	f891 9005 	ldrb.w	r9, [r1, #5]
 800780e:	7908      	ldrb	r0, [r1, #4]
 8007810:	eb00 2009 	add.w	r0, r0, r9, lsl #8
 8007814:	f8a2 0242 	strh.w	r0, [r2, #578]	; 0x242
 8007818:	7988      	ldrb	r0, [r1, #6]
 800781a:	f882 0244 	strb.w	r0, [r2, #580]	; 0x244
 800781e:	f10e 0e01 	add.w	lr, lr, #1
 8007822:	f89a 9240 	ldrb.w	r9, [sl, #576]	; 0x240
 8007826:	fa4f fe8e 	sxtb.w	lr, lr
 800782a:	45ce      	cmp	lr, r9
 800782c:	4670      	mov	r0, lr
 800782e:	dbd2      	blt.n	80077d6 <main+0x11a6>
 8007830:	9a04      	ldr	r2, [sp, #16]
 8007832:	3201      	adds	r2, #1
 8007834:	2a0a      	cmp	r2, #10
 8007836:	9204      	str	r2, [sp, #16]
 8007838:	f10a 0a5a 	add.w	sl, sl, #90	; 0x5a
 800783c:	f47f ae2f 	bne.w	800749e <main+0xe6e>
 8007840:	e62f      	b.n	80074a2 <main+0xe72>
 8007842:	2380      	movs	r3, #128	; 0x80
 8007844:	626b      	str	r3, [r5, #36]	; 0x24
 8007846:	4a67      	ldr	r2, [pc, #412]	; (80079e4 <main+0x13b4>)
 8007848:	4b67      	ldr	r3, [pc, #412]	; (80079e8 <main+0x13b8>)
 800784a:	62aa      	str	r2, [r5, #40]	; 0x28
 800784c:	f8c5 3100 	str.w	r3, [r5, #256]	; 0x100
 8007850:	f7ff bb30 	b.w	8006eb4 <main+0x884>
 8007854:	4a65      	ldr	r2, [pc, #404]	; (80079ec <main+0x13bc>)
 8007856:	6893      	ldr	r3, [r2, #8]
 8007858:	021b      	lsls	r3, r3, #8
 800785a:	d40c      	bmi.n	8007876 <main+0x1246>
 800785c:	f8d2 e008 	ldr.w	lr, [r2, #8]
 8007860:	4b63      	ldr	r3, [pc, #396]	; (80079f0 <main+0x13c0>)
 8007862:	f44e 0e00 	orr.w	lr, lr, #8388608	; 0x800000
 8007866:	f8c2 e008 	str.w	lr, [r2, #8]
 800786a:	f7ff b8ce 	b.w	8006a0a <main+0x3da>
 800786e:	2300      	movs	r3, #0
 8007870:	461a      	mov	r2, r3
 8007872:	f7ff b8e7 	b.w	8006a44 <main+0x414>
 8007876:	4b5e      	ldr	r3, [pc, #376]	; (80079f0 <main+0x13c0>)
 8007878:	f7ff b8c7 	b.w	8006a0a <main+0x3da>
 800787c:	f8df a16c 	ldr.w	sl, [pc, #364]	; 80079ec <main+0x13bc>
 8007880:	485c      	ldr	r0, [pc, #368]	; (80079f4 <main+0x13c4>)
 8007882:	f8da 3040 	ldr.w	r3, [sl, #64]	; 0x40
 8007886:	f443 4300 	orr.w	r3, r3, #32768	; 0x8000
 800788a:	f8ca 3040 	str.w	r3, [sl, #64]	; 0x40
 800788e:	f8da 3030 	ldr.w	r3, [sl, #48]	; 0x30
 8007892:	f043 0304 	orr.w	r3, r3, #4
 8007896:	f8ca 3030 	str.w	r3, [sl, #48]	; 0x30
 800789a:	f8da 3030 	ldr.w	r3, [sl, #48]	; 0x30
 800789e:	f043 0301 	orr.w	r3, r3, #1
 80078a2:	f8ca 3030 	str.w	r3, [sl, #48]	; 0x30
 80078a6:	f44f 52a0 	mov.w	r2, #5120	; 0x1400
 80078aa:	2302      	movs	r3, #2
 80078ac:	e9cd 230a 	strd	r2, r3, [sp, #40]	; 0x28
 80078b0:	2200      	movs	r2, #0
 80078b2:	2302      	movs	r3, #2
 80078b4:	e9cd 230c 	strd	r2, r3, [sp, #48]	; 0x30
 80078b8:	a90a      	add	r1, sp, #40	; 0x28
 80078ba:	2306      	movs	r3, #6
 80078bc:	930e      	str	r3, [sp, #56]	; 0x38
 80078be:	f7f9 f865 	bl	800098c <HAL_GPIO_Init>
 80078c2:	2310      	movs	r3, #16
 80078c4:	484c      	ldr	r0, [pc, #304]	; (80079f8 <main+0x13c8>)
 80078c6:	930a      	str	r3, [sp, #40]	; 0x28
 80078c8:	a90a      	add	r1, sp, #40	; 0x28
 80078ca:	f7f9 f85f 	bl	800098c <HAL_GPIO_Init>
 80078ce:	f8da 3030 	ldr.w	r3, [sl, #48]	; 0x30
 80078d2:	4848      	ldr	r0, [pc, #288]	; (80079f4 <main+0x13c4>)
 80078d4:	f043 0304 	orr.w	r3, r3, #4
 80078d8:	f8ca 3030 	str.w	r3, [sl, #48]	; 0x30
 80078dc:	a90a      	add	r1, sp, #40	; 0x28
 80078de:	2380      	movs	r3, #128	; 0x80
 80078e0:	930a      	str	r3, [sp, #40]	; 0x28
 80078e2:	f7f9 f853 	bl	800098c <HAL_GPIO_Init>
 80078e6:	f8da 3030 	ldr.w	r3, [sl, #48]	; 0x30
 80078ea:	f443 1300 	orr.w	r3, r3, #2097152	; 0x200000
 80078ee:	f8ca 3030 	str.w	r3, [sl, #48]	; 0x30
 80078f2:	6823      	ldr	r3, [r4, #0]
 80078f4:	4543      	cmp	r3, r8
 80078f6:	d009      	beq.n	800790c <main+0x12dc>
 80078f8:	2106      	movs	r1, #6
 80078fa:	202f      	movs	r0, #47	; 0x2f
 80078fc:	f7f9 f9ca 	bl	8000c94 <HAL_NVIC_SetPriority.constprop.2>
 8007900:	4b3e      	ldr	r3, [pc, #248]	; (80079fc <main+0x13cc>)
 8007902:	f44f 4200 	mov.w	r2, #32768	; 0x8000
 8007906:	605a      	str	r2, [r3, #4]
 8007908:	f7ff b83d 	b.w	8006986 <main+0x356>
 800790c:	4b3c      	ldr	r3, [pc, #240]	; (8007a00 <main+0x13d0>)
 800790e:	4a3d      	ldr	r2, [pc, #244]	; (8007a04 <main+0x13d4>)
 8007910:	f893 1035 	ldrb.w	r1, [r3, #53]	; 0x35
 8007914:	605d      	str	r5, [r3, #4]
 8007916:	2040      	movs	r0, #64	; 0x40
 8007918:	6098      	str	r0, [r3, #8]
 800791a:	f44f 6c80 	mov.w	ip, #1024	; 0x400
 800791e:	f44f 6000 	mov.w	r0, #2048	; 0x800
 8007922:	e9c3 c004 	strd	ip, r0, [r3, #16]
 8007926:	f44f 5e00 	mov.w	lr, #8192	; 0x2000
 800792a:	f44f 7080 	mov.w	r0, #256	; 0x100
 800792e:	e9c3 e006 	strd	lr, r0, [r3, #24]
 8007932:	f44f 3800 	mov.w	r8, #131072	; 0x20000
 8007936:	2004      	movs	r0, #4
 8007938:	e9c3 8008 	strd	r8, r0, [r3, #32]
 800793c:	2902      	cmp	r1, #2
 800793e:	f04f 0003 	mov.w	r0, #3
 8007942:	e9c3 550b 	strd	r5, r5, [r3, #44]	; 0x2c
 8007946:	60dd      	str	r5, [r3, #12]
 8007948:	6363      	str	r3, [r4, #52]	; 0x34
 800794a:	639c      	str	r4, [r3, #56]	; 0x38
 800794c:	6298      	str	r0, [r3, #40]	; 0x28
 800794e:	601a      	str	r2, [r3, #0]
 8007950:	d01f      	beq.n	8007992 <main+0x1362>
 8007952:	6810      	ldr	r0, [r2, #0]
 8007954:	492c      	ldr	r1, [pc, #176]	; (8007a08 <main+0x13d8>)
 8007956:	f883 5034 	strb.w	r5, [r3, #52]	; 0x34
 800795a:	f020 0001 	bic.w	r0, r0, #1
 800795e:	6010      	str	r0, [r2, #0]
 8007960:	2021      	movs	r0, #33	; 0x21
 8007962:	6015      	str	r5, [r2, #0]
 8007964:	6055      	str	r5, [r2, #4]
 8007966:	6095      	str	r5, [r2, #8]
 8007968:	60d5      	str	r5, [r2, #12]
 800796a:	6115      	str	r5, [r2, #16]
 800796c:	6150      	str	r0, [r2, #20]
 800796e:	f04f 7280 	mov.w	r2, #16777216	; 0x1000000
 8007972:	60ca      	str	r2, [r1, #12]
 8007974:	f04f 6000 	mov.w	r0, #134217728	; 0x8000000
 8007978:	f04f 7200 	mov.w	r2, #33554432	; 0x2000000
 800797c:	60c8      	str	r0, [r1, #12]
 800797e:	60ca      	str	r2, [r1, #12]
 8007980:	f44f 0080 	mov.w	r0, #4194304	; 0x400000
 8007984:	f04f 6280 	mov.w	r2, #67108864	; 0x4000000
 8007988:	60c8      	str	r0, [r1, #12]
 800798a:	60ca      	str	r2, [r1, #12]
 800798c:	64dd      	str	r5, [r3, #76]	; 0x4c
 800798e:	f883 5035 	strb.w	r5, [r3, #53]	; 0x35
 8007992:	491c      	ldr	r1, [pc, #112]	; (8007a04 <main+0x13d4>)
 8007994:	2202      	movs	r2, #2
 8007996:	f883 2035 	strb.w	r2, [r3, #53]	; 0x35
 800799a:	6808      	ldr	r0, [r1, #0]
 800799c:	4a1b      	ldr	r2, [pc, #108]	; (8007a0c <main+0x13dc>)
 800799e:	4002      	ands	r2, r0
 80079a0:	f442 320b 	orr.w	r2, r2, #142336	; 0x22c00
 80079a4:	f442 72a0 	orr.w	r2, r2, #320	; 0x140
 80079a8:	600a      	str	r2, [r1, #0]
 80079aa:	694a      	ldr	r2, [r1, #20]
 80079ac:	2500      	movs	r5, #0
 80079ae:	f042 0207 	orr.w	r2, r2, #7
 80079b2:	2001      	movs	r0, #1
 80079b4:	614a      	str	r2, [r1, #20]
 80079b6:	64dd      	str	r5, [r3, #76]	; 0x4c
 80079b8:	f883 0035 	strb.w	r0, [r3, #53]	; 0x35
 80079bc:	e79c      	b.n	80078f8 <main+0x12c8>
 80079be:	6b61      	ldr	r1, [r4, #52]	; 0x34
 80079c0:	f041 0140 	orr.w	r1, r1, #64	; 0x40
 80079c4:	6361      	str	r1, [r4, #52]	; 0x34
 80079c6:	6811      	ldr	r1, [r2, #0]
 80079c8:	f041 0104 	orr.w	r1, r1, #4
 80079cc:	6011      	str	r1, [r2, #0]
 80079ce:	f7fe bf2a 	b.w	8006826 <main+0x1f6>
 80079d2:	2003      	movs	r0, #3
 80079d4:	f7fe bf42 	b.w	800685c <main+0x22c>
 80079d8:	02000680 	.word	0x02000680
 80079dc:	2001f0d8 	.word	0x2001f0d8
 80079e0:	00010500 	.word	0x00010500
 80079e4:	00600080 	.word	0x00600080
 80079e8:	004000e0 	.word	0x004000e0
 80079ec:	40023800 	.word	0x40023800
 80079f0:	00bb8000 	.word	0x00bb8000
 80079f4:	40020800 	.word	0x40020800
 80079f8:	40020000 	.word	0x40020000
 80079fc:	e000e100 	.word	0xe000e100
 8007a00:	2001f6d4 	.word	0x2001f6d4
 8007a04:	400260b8 	.word	0x400260b8
 8007a08:	40026000 	.word	0x40026000
 8007a0c:	f014803f 	.word	0xf014803f

08007a10 <MagicPatch.part.0>:
MagicPatch.part.0():
 8007a10:	e92d 4170 	stmdb	sp!, {r4, r5, r6, r8, lr}
 8007a14:	ed2d 8b08 	vpush	{d8-d11}
 8007a18:	b083      	sub	sp, #12
 8007a1a:	f007 f89f 	bl	800eb5c <rand>
 8007a1e:	ee07 0a90 	vmov	s15, r0
 8007a22:	ed9f 9af1 	vldr	s18, [pc, #964]	; 8007de8 <MagicPatch.part.0+0x3d8>
 8007a26:	ed9f 8af1 	vldr	s16, [pc, #964]	; 8007dec <MagicPatch.part.0+0x3dc>
 8007a2a:	eddf 8af1 	vldr	s17, [pc, #964]	; 8007df0 <MagicPatch.part.0+0x3e0>
 8007a2e:	4cf1      	ldr	r4, [pc, #964]	; (8007df4 <MagicPatch.part.0+0x3e4>)
 8007a30:	eeb8 0ae7 	vcvt.f32.s32	s0, s15
 8007a34:	2501      	movs	r5, #1
 8007a36:	ee20 0a09 	vmul.f32	s0, s0, s18
 8007a3a:	ee20 0a08 	vmul.f32	s0, s0, s16
 8007a3e:	ee30 0a28 	vadd.f32	s0, s0, s17
 8007a42:	f005 fd99 	bl	800d578 <lrintf>
 8007a46:	b2c3      	uxtb	r3, r0
 8007a48:	ee07 3a90 	vmov	s15, r3
 8007a4c:	ed9f 7aea 	vldr	s14, [pc, #936]	; 8007df8 <MagicPatch.part.0+0x3e8>
 8007a50:	ed9f 0aea 	vldr	s0, [pc, #936]	; 8007dfc <MagicPatch.part.0+0x3ec>
 8007a54:	eef8 7ae7 	vcvt.f32.s32	s15, s15
 8007a58:	eef3 6a04 	vmov.f32	s13, #52	; 0x41a00000  20.0
 8007a5c:	ee67 7a87 	vmul.f32	s15, s15, s14
 8007a60:	ee87 7a88 	vdiv.f32	s14, s15, s16
 8007a64:	ee77 7a26 	vadd.f32	s15, s14, s13
 8007a68:	ee80 0a27 	vdiv.f32	s0, s0, s15
 8007a6c:	edc4 7a10 	vstr	s15, [r4, #64]	; 0x40
 8007a70:	f005 fd82 	bl	800d578 <lrintf>
 8007a74:	6460      	str	r0, [r4, #68]	; 0x44
 8007a76:	f007 f871 	bl	800eb5c <rand>
 8007a7a:	ee07 0a90 	vmov	s15, r0
 8007a7e:	eeb8 0ae7 	vcvt.f32.s32	s0, s15
 8007a82:	ee20 0a09 	vmul.f32	s0, s0, s18
 8007a86:	ee20 0a08 	vmul.f32	s0, s0, s16
 8007a8a:	ee30 0a28 	vadd.f32	s0, s0, s17
 8007a8e:	f005 fd73 	bl	800d578 <lrintf>
 8007a92:	b2c3      	uxtb	r3, r0
 8007a94:	ee07 3a90 	vmov	s15, r3
 8007a98:	ed9f 7ad9 	vldr	s14, [pc, #868]	; 8007e00 <MagicPatch.part.0+0x3f0>
 8007a9c:	eef8 7ae7 	vcvt.f32.s32	s15, s15
 8007aa0:	2301      	movs	r3, #1
 8007aa2:	ee67 7a87 	vmul.f32	s15, s15, s14
 8007aa6:	f884 3064 	strb.w	r3, [r4, #100]	; 0x64
 8007aaa:	eefc 7ae7 	vcvt.u32.f32	s15, s15
 8007aae:	edcd 7a01 	vstr	s15, [sp, #4]
 8007ab2:	f89d 3004 	ldrb.w	r3, [sp, #4]
 8007ab6:	f8a4 305c 	strh.w	r3, [r4, #92]	; 0x5c
 8007aba:	f007 f84f 	bl	800eb5c <rand>
 8007abe:	ee07 0a90 	vmov	s15, r0
 8007ac2:	eeb8 0ae7 	vcvt.f32.s32	s0, s15
 8007ac6:	ee20 0a09 	vmul.f32	s0, s0, s18
 8007aca:	ed9f 9ac7 	vldr	s18, [pc, #796]	; 8007de8 <MagicPatch.part.0+0x3d8>
 8007ace:	ee20 0a08 	vmul.f32	s0, s0, s16
 8007ad2:	ed9f 8ac7 	vldr	s16, [pc, #796]	; 8007df0 <MagicPatch.part.0+0x3e0>
 8007ad6:	ee30 0a28 	vadd.f32	s0, s0, s17
 8007ada:	f005 fd4d 	bl	800d578 <lrintf>
 8007ade:	b2c0      	uxtb	r0, r0
 8007ae0:	ee07 0a90 	vmov	s15, r0
 8007ae4:	eeb8 0ae7 	vcvt.f32.s32	s0, s15
 8007ae8:	eddf 7ac6 	vldr	s15, [pc, #792]	; 8007e04 <MagicPatch.part.0+0x3f4>
 8007aec:	eddf 8abf 	vldr	s17, [pc, #764]	; 8007dec <MagicPatch.part.0+0x3dc>
 8007af0:	ee20 0a27 	vmul.f32	s0, s0, s15
 8007af4:	f005 fd8c 	bl	800d610 <rintf>
 8007af8:	eefc 7ac0 	vcvt.u32.f32	s15, s0
 8007afc:	f884 5064 	strb.w	r5, [r4, #100]	; 0x64
 8007b00:	edcd 7a01 	vstr	s15, [sp, #4]
 8007b04:	f89d 3004 	ldrb.w	r3, [sp, #4]
 8007b08:	f8a4 3054 	strh.w	r3, [r4, #84]	; 0x54
 8007b0c:	2b0e      	cmp	r3, #14
 8007b0e:	bf96      	itet	ls
 8007b10:	4abd      	ldrls	r2, [pc, #756]	; (8007e08 <MagicPatch.part.0+0x3f8>)
 8007b12:	4bbe      	ldrhi	r3, [pc, #760]	; (8007e0c <MagicPatch.part.0+0x3fc>)
 8007b14:	f852 3023 	ldrls.w	r3, [r2, r3, lsl #2]
 8007b18:	65a3      	str	r3, [r4, #88]	; 0x58
 8007b1a:	f007 f81f 	bl	800eb5c <rand>
 8007b1e:	ee07 0a90 	vmov	s15, r0
 8007b22:	eeb8 0ae7 	vcvt.f32.s32	s0, s15
 8007b26:	ee20 0a09 	vmul.f32	s0, s0, s18
 8007b2a:	ee20 0a28 	vmul.f32	s0, s0, s17
 8007b2e:	ee30 0a08 	vadd.f32	s0, s0, s16
 8007b32:	f005 fd21 	bl	800d578 <lrintf>
 8007b36:	b2c0      	uxtb	r0, r0
 8007b38:	283f      	cmp	r0, #63	; 0x3f
 8007b3a:	bf94      	ite	ls
 8007b3c:	2000      	movls	r0, #0
 8007b3e:	2001      	movhi	r0, #1
 8007b40:	f884 0062 	strb.w	r0, [r4, #98]	; 0x62
 8007b44:	f007 f80a 	bl	800eb5c <rand>
 8007b48:	ee07 0a90 	vmov	s15, r0
 8007b4c:	eeb8 0ae7 	vcvt.f32.s32	s0, s15
 8007b50:	ee20 0a09 	vmul.f32	s0, s0, s18
 8007b54:	ee20 0a28 	vmul.f32	s0, s0, s17
 8007b58:	ee30 0a08 	vadd.f32	s0, s0, s16
 8007b5c:	f005 fd0c 	bl	800d578 <lrintf>
 8007b60:	f010 00ff 	ands.w	r0, r0, #255	; 0xff
 8007b64:	f000 8440 	beq.w	80083e8 <MagicPatch.part.0+0x9d8>
 8007b68:	287f      	cmp	r0, #127	; 0x7f
 8007b6a:	d101      	bne.n	8007b70 <MagicPatch.part.0+0x160>
 8007b6c:	f884 5065 	strb.w	r5, [r4, #101]	; 0x65
 8007b70:	f006 fff4 	bl	800eb5c <rand>
 8007b74:	ee07 0a90 	vmov	s15, r0
 8007b78:	ed9f 8a9b 	vldr	s16, [pc, #620]	; 8007de8 <MagicPatch.part.0+0x3d8>
 8007b7c:	ed9f 9a9b 	vldr	s18, [pc, #620]	; 8007dec <MagicPatch.part.0+0x3dc>
 8007b80:	eddf 8a9b 	vldr	s17, [pc, #620]	; 8007df0 <MagicPatch.part.0+0x3e0>
 8007b84:	eeb8 0ae7 	vcvt.f32.s32	s0, s15
 8007b88:	ee20 0a08 	vmul.f32	s0, s0, s16
 8007b8c:	ee20 0a09 	vmul.f32	s0, s0, s18
 8007b90:	ee30 0a28 	vadd.f32	s0, s0, s17
 8007b94:	f005 fcf0 	bl	800d578 <lrintf>
 8007b98:	b2c3      	uxtb	r3, r0
 8007b9a:	ee07 3a10 	vmov	s14, r3
 8007b9e:	eddf 7a9c 	vldr	s15, [pc, #624]	; 8007e10 <MagicPatch.part.0+0x400>
 8007ba2:	ed9f 6a9c 	vldr	s12, [pc, #624]	; 8007e14 <MagicPatch.part.0+0x404>
 8007ba6:	eeb8 7ac7 	vcvt.f32.s32	s14, s14
 8007baa:	ee27 7a27 	vmul.f32	s14, s14, s15
 8007bae:	edd4 7a11 	vldr	s15, [r4, #68]	; 0x44
 8007bb2:	eef8 6ae7 	vcvt.f32.s32	s13, s15
 8007bb6:	eec7 7a09 	vdiv.f32	s15, s14, s18
 8007bba:	ee77 7a86 	vadd.f32	s15, s15, s12
 8007bbe:	ee67 7aa6 	vmul.f32	s15, s15, s13
 8007bc2:	eefd 7ae7 	vcvt.s32.f32	s15, s15
 8007bc6:	edc4 7a14 	vstr	s15, [r4, #80]	; 0x50
 8007bca:	f006 ffc7 	bl	800eb5c <rand>
 8007bce:	4a92      	ldr	r2, [pc, #584]	; (8007e18 <MagicPatch.part.0+0x408>)
 8007bd0:	fb82 3200 	smull	r3, r2, r2, r0
 8007bd4:	eba2 73e0 	sub.w	r3, r2, r0, asr #31
 8007bd8:	eb03 0343 	add.w	r3, r3, r3, lsl #1
 8007bdc:	1ac3      	subs	r3, r0, r3
 8007bde:	f884 3096 	strb.w	r3, [r4, #150]	; 0x96
 8007be2:	f006 ffbb 	bl	800eb5c <rand>
 8007be6:	ee07 0a90 	vmov	s15, r0
 8007bea:	eeb8 0ae7 	vcvt.f32.s32	s0, s15
 8007bee:	ee20 0a08 	vmul.f32	s0, s0, s16
 8007bf2:	ee20 0a09 	vmul.f32	s0, s0, s18
 8007bf6:	ee30 0a28 	vadd.f32	s0, s0, s17
 8007bfa:	f005 fcbd 	bl	800d578 <lrintf>
 8007bfe:	b2c0      	uxtb	r0, r0
 8007c00:	ee07 0a90 	vmov	s15, r0
 8007c04:	eeb8 0ae7 	vcvt.f32.s32	s0, s15
 8007c08:	eddf 7a84 	vldr	s15, [pc, #528]	; 8007e1c <MagicPatch.part.0+0x40c>
 8007c0c:	ee20 0a27 	vmul.f32	s0, s0, s15
 8007c10:	f005 fcfe 	bl	800d610 <rintf>
 8007c14:	eefc 7ac0 	vcvt.u32.f32	s15, s0
 8007c18:	edcd 7a01 	vstr	s15, [sp, #4]
 8007c1c:	f89d 3004 	ldrb.w	r3, [sp, #4]
 8007c20:	f884 3094 	strb.w	r3, [r4, #148]	; 0x94
 8007c24:	2b04      	cmp	r3, #4
 8007c26:	f040 8317 	bne.w	8008258 <MagicPatch.part.0+0x848>
 8007c2a:	f006 ff97 	bl	800eb5c <rand>
 8007c2e:	ee07 0a90 	vmov	s15, r0
 8007c32:	ed9f 8a6e 	vldr	s16, [pc, #440]	; 8007dec <MagicPatch.part.0+0x3dc>
 8007c36:	ed9f 0a6e 	vldr	s0, [pc, #440]	; 8007df0 <MagicPatch.part.0+0x3e0>
 8007c3a:	eefa 7ae0 	vcvt.f32.s32	s15, s15, #31
 8007c3e:	ee67 7a88 	vmul.f32	s15, s15, s16
 8007c42:	ee37 0a80 	vadd.f32	s0, s15, s0
 8007c46:	f005 fc97 	bl	800d578 <lrintf>
 8007c4a:	b2c0      	uxtb	r0, r0
 8007c4c:	ee07 0a90 	vmov	s15, r0
 8007c50:	eef8 0ae7 	vcvt.f32.s32	s1, s15
 8007c54:	ed9f 0a7a 	vldr	s0, [pc, #488]	; 8007e40 <MagicPatch.part.0+0x430>
 8007c58:	eec0 0a88 	vdiv.f32	s1, s1, s16
 8007c5c:	f005 fd80 	bl	800d760 <powf>
 8007c60:	4b6f      	ldr	r3, [pc, #444]	; (8007e20 <MagicPatch.part.0+0x410>)
 8007c62:	eddf 7a70 	vldr	s15, [pc, #448]	; 8007e24 <MagicPatch.part.0+0x414>
 8007c66:	eddf 6a70 	vldr	s13, [pc, #448]	; 8007e28 <MagicPatch.part.0+0x418>
 8007c6a:	ed9f 7a70 	vldr	s14, [pc, #448]	; 8007e2c <MagicPatch.part.0+0x41c>
 8007c6e:	ee20 0a27 	vmul.f32	s0, s0, s15
 8007c72:	eec0 7a26 	vdiv.f32	s15, s0, s13
 8007c76:	eef4 7ac7 	vcmpe.f32	s15, s14
 8007c7a:	eef1 fa10 	vmrs	APSR_nzcv, fpscr
 8007c7e:	edc3 7a00 	vstr	s15, [r3]
 8007c82:	f300 82bd 	bgt.w	8008200 <MagicPatch.part.0+0x7f0>
 8007c86:	eeb6 7a00 	vmov.f32	s14, #96	; 0x3f000000  0.5
 8007c8a:	ee67 7a87 	vmul.f32	s15, s15, s14
 8007c8e:	ed9f 7a68 	vldr	s14, [pc, #416]	; 8007e30 <MagicPatch.part.0+0x420>
 8007c92:	ee27 7a87 	vmul.f32	s14, s15, s14
 8007c96:	eefa 5a0e 	vmov.f32	s11, #174	; 0xc1700000 -15.0
 8007c9a:	ee77 6a07 	vadd.f32	s13, s14, s14
 8007c9e:	ee27 6a07 	vmul.f32	s12, s14, s14
 8007ca2:	ee66 6a87 	vmul.f32	s13, s13, s14
 8007ca6:	eeb1 5a04 	vmov.f32	s10, #20	; 0x40a00000  5.0
 8007caa:	ee26 6a07 	vmul.f32	s12, s12, s14
 8007cae:	ee76 6ac5 	vsub.f32	s13, s13, s10
 8007cb2:	ee27 7a25 	vmul.f32	s14, s14, s11
 8007cb6:	eef0 5a08 	vmov.f32	s11, #8	; 0x40400000  3.0
 8007cba:	ee66 6aa5 	vmul.f32	s13, s13, s11
 8007cbe:	ee36 7a07 	vadd.f32	s14, s12, s14
 8007cc2:	ee87 6a26 	vdiv.f32	s12, s14, s13
 8007cc6:	ed84 6a52 	vstr	s12, [r4, #328]	; 0x148
 8007cca:	edc4 7a51 	vstr	s15, [r4, #324]	; 0x144
 8007cce:	f006 ff45 	bl	800eb5c <rand>
 8007cd2:	ee07 0a90 	vmov	s15, r0
 8007cd6:	ed9f 9a44 	vldr	s18, [pc, #272]	; 8007de8 <MagicPatch.part.0+0x3d8>
 8007cda:	ed9f 8a44 	vldr	s16, [pc, #272]	; 8007dec <MagicPatch.part.0+0x3dc>
 8007cde:	eddf 8a44 	vldr	s17, [pc, #272]	; 8007df0 <MagicPatch.part.0+0x3e0>
 8007ce2:	eeb8 0ae7 	vcvt.f32.s32	s0, s15
 8007ce6:	ee20 0a09 	vmul.f32	s0, s0, s18
 8007cea:	ee20 0a08 	vmul.f32	s0, s0, s16
 8007cee:	ee30 0a28 	vadd.f32	s0, s0, s17
 8007cf2:	f005 fc41 	bl	800d578 <lrintf>
 8007cf6:	b2c0      	uxtb	r0, r0
 8007cf8:	ee07 0a90 	vmov	s15, r0
 8007cfc:	eef8 7ae7 	vcvt.f32.s32	s15, s15
 8007d00:	eeb7 7a00 	vmov.f32	s14, #112	; 0x3f800000  1.0
 8007d04:	eec7 6a88 	vdiv.f32	s13, s15, s16
 8007d08:	eddf 7a4a 	vldr	s15, [pc, #296]	; 8007e34 <MagicPatch.part.0+0x424>
 8007d0c:	ee37 7a66 	vsub.f32	s14, s14, s13
 8007d10:	eeb4 7ae7 	vcmpe.f32	s14, s15
 8007d14:	eef1 fa10 	vmrs	APSR_nzcv, fpscr
 8007d18:	bf58      	it	pl
 8007d1a:	eef0 7a47 	vmovpl.f32	s15, s14
 8007d1e:	edc4 7a53 	vstr	s15, [r4, #332]	; 0x14c
 8007d22:	f006 ff1b 	bl	800eb5c <rand>
 8007d26:	ee07 0a90 	vmov	s15, r0
 8007d2a:	eeb8 0ae7 	vcvt.f32.s32	s0, s15
 8007d2e:	ee20 0a09 	vmul.f32	s0, s0, s18
 8007d32:	ee20 0a08 	vmul.f32	s0, s0, s16
 8007d36:	ee30 0a28 	vadd.f32	s0, s0, s17
 8007d3a:	f005 fc1d 	bl	800d578 <lrintf>
 8007d3e:	b2c0      	uxtb	r0, r0
 8007d40:	ee07 0a90 	vmov	s15, r0
 8007d44:	eeb8 7ae7 	vcvt.f32.s32	s14, s15
 8007d48:	eef1 6a08 	vmov.f32	s13, #24	; 0x40c00000  6.0
 8007d4c:	eec7 7a08 	vdiv.f32	s15, s14, s16
 8007d50:	ee67 7aa7 	vmul.f32	s15, s15, s15
 8007d54:	ee67 7aa6 	vmul.f32	s15, s15, s13
 8007d58:	edc4 7a56 	vstr	s15, [r4, #344]	; 0x158
 8007d5c:	f006 fefe 	bl	800eb5c <rand>
 8007d60:	ee07 0a90 	vmov	s15, r0
 8007d64:	eeb8 0ae7 	vcvt.f32.s32	s0, s15
 8007d68:	ee20 0a09 	vmul.f32	s0, s0, s18
 8007d6c:	ee20 0a08 	vmul.f32	s0, s0, s16
 8007d70:	ee30 0a28 	vadd.f32	s0, s0, s17
 8007d74:	f005 fc00 	bl	800d578 <lrintf>
 8007d78:	b2c0      	uxtb	r0, r0
 8007d7a:	eb00 0080 	add.w	r0, r0, r0, lsl #2
 8007d7e:	ee07 0a90 	vmov	s15, r0
 8007d82:	eeb8 0ae7 	vcvt.f32.s32	s0, s15
 8007d86:	ee80 0a08 	vdiv.f32	s0, s0, s16
 8007d8a:	f005 fbf5 	bl	800d578 <lrintf>
 8007d8e:	f884 0140 	strb.w	r0, [r4, #320]	; 0x140
 8007d92:	f006 fee3 	bl	800eb5c <rand>
 8007d96:	ee07 0a90 	vmov	s15, r0
 8007d9a:	eeb8 0ae7 	vcvt.f32.s32	s0, s15
 8007d9e:	ee20 0a09 	vmul.f32	s0, s0, s18
 8007da2:	ee20 0a08 	vmul.f32	s0, s0, s16
 8007da6:	ee30 0a28 	vadd.f32	s0, s0, s17
 8007daa:	f005 fbe5 	bl	800d578 <lrintf>
 8007dae:	b2c3      	uxtb	r3, r0
 8007db0:	ee07 3a90 	vmov	s15, r3
 8007db4:	ed9f 7a20 	vldr	s14, [pc, #128]	; 8007e38 <MagicPatch.part.0+0x428>
 8007db8:	eef8 7ae7 	vcvt.f32.s32	s15, s15
 8007dbc:	ee67 7a87 	vmul.f32	s15, s15, s14
 8007dc0:	edc4 7a88 	vstr	s15, [r4, #544]	; 0x220
 8007dc4:	f006 feca 	bl	800eb5c <rand>
 8007dc8:	ee07 0a90 	vmov	s15, r0
 8007dcc:	eeb8 0ae7 	vcvt.f32.s32	s0, s15
 8007dd0:	ee20 0a09 	vmul.f32	s0, s0, s18
 8007dd4:	ee20 0a08 	vmul.f32	s0, s0, s16
 8007dd8:	ee30 0a28 	vadd.f32	s0, s0, s17
 8007ddc:	f005 fbcc 	bl	800d578 <lrintf>
 8007de0:	b2c3      	uxtb	r3, r0
 8007de2:	ee07 3a90 	vmov	s15, r3
 8007de6:	e02d      	b.n	8007e44 <MagicPatch.part.0+0x434>
 8007de8:	30000000 	.word	0x30000000
 8007dec:	42fe0000 	.word	0x42fe0000
 8007df0:	00000000 	.word	0x00000000
 8007df4:	10000000 	.word	0x10000000
 8007df8:	44480000 	.word	0x44480000
 8007dfc:	4a217fc0 	.word	0x4a217fc0
 8007e00:	3d810204 	.word	0x3d810204
 8007e04:	3de1c387 	.word	0x3de1c387
 8007e08:	0800f53c 	.word	0x0800f53c
 8007e0c:	0800f5d4 	.word	0x0800f5d4
 8007e10:	3f4ccccc 	.word	0x3f4ccccc
 8007e14:	3dcccccd 	.word	0x3dcccccd
 8007e18:	55555556 	.word	0x55555556
 8007e1c:	3df1e3c8 	.word	0x3df1e3c8
 8007e20:	2001ede0 	.word	0x2001ede0
 8007e24:	42a00000 	.word	0x42a00000
 8007e28:	472c4400 	.word	0x472c4400
 8007e2c:	3f733333 	.word	0x3f733333
 8007e30:	40490fdb 	.word	0x40490fdb
 8007e34:	3c23d70a 	.word	0x3c23d70a
 8007e38:	3e810204 	.word	0x3e810204
 8007e3c:	3dc18306 	.word	0x3dc18306
 8007e40:	42c80000 	.word	0x42c80000
 8007e44:	ed1f 7a03 	vldr	s14, [pc, #-12]	; 8007e3c <MagicPatch.part.0+0x42c>
 8007e48:	eef8 7ae7 	vcvt.f32.s32	s15, s15
 8007e4c:	ee67 7a87 	vmul.f32	s15, s15, s14
 8007e50:	edc4 7a8a 	vstr	s15, [r4, #552]	; 0x228
 8007e54:	f006 fe82 	bl	800eb5c <rand>
 8007e58:	ee07 0a90 	vmov	s15, r0
 8007e5c:	eeb8 0ae7 	vcvt.f32.s32	s0, s15
 8007e60:	ee20 0a09 	vmul.f32	s0, s0, s18
 8007e64:	ee20 0a08 	vmul.f32	s0, s0, s16
 8007e68:	ee30 0a28 	vadd.f32	s0, s0, s17
 8007e6c:	f005 fb84 	bl	800d578 <lrintf>
 8007e70:	b2c0      	uxtb	r0, r0
 8007e72:	ee07 0a90 	vmov	s15, r0
 8007e76:	eef8 0ae7 	vcvt.f32.s32	s1, s15
 8007e7a:	ed1f 0a0f 	vldr	s0, [pc, #-60]	; 8007e40 <MagicPatch.part.0+0x430>
 8007e7e:	eec0 0a88 	vdiv.f32	s1, s1, s16
 8007e82:	f005 fc6d 	bl	800d760 <powf>
 8007e86:	4be3      	ldr	r3, [pc, #908]	; (8008214 <MagicPatch.part.0+0x804>)
 8007e88:	eddf 7ae3 	vldr	s15, [pc, #908]	; 8008218 <MagicPatch.part.0+0x808>
 8007e8c:	eddf 6ae3 	vldr	s13, [pc, #908]	; 800821c <MagicPatch.part.0+0x80c>
 8007e90:	ed9f 7ae3 	vldr	s14, [pc, #908]	; 8008220 <MagicPatch.part.0+0x810>
 8007e94:	ee20 0a27 	vmul.f32	s0, s0, s15
 8007e98:	eec0 7a26 	vdiv.f32	s15, s0, s13
 8007e9c:	eef4 7ac7 	vcmpe.f32	s15, s14
 8007ea0:	eef1 fa10 	vmrs	APSR_nzcv, fpscr
 8007ea4:	edc3 7a00 	vstr	s15, [r3]
 8007ea8:	f300 81af 	bgt.w	800820a <MagicPatch.part.0+0x7fa>
 8007eac:	eeb6 7a00 	vmov.f32	s14, #96	; 0x3f000000  0.5
 8007eb0:	ee67 7a87 	vmul.f32	s15, s15, s14
 8007eb4:	ed9f 7adb 	vldr	s14, [pc, #876]	; 8008224 <MagicPatch.part.0+0x814>
 8007eb8:	ee27 7a87 	vmul.f32	s14, s15, s14
 8007ebc:	eefa 5a0e 	vmov.f32	s11, #174	; 0xc1700000 -15.0
 8007ec0:	ee77 6a07 	vadd.f32	s13, s14, s14
 8007ec4:	ee27 6a07 	vmul.f32	s12, s14, s14
 8007ec8:	ee66 6a87 	vmul.f32	s13, s13, s14
 8007ecc:	eeb1 5a04 	vmov.f32	s10, #20	; 0x40a00000  5.0
 8007ed0:	ee26 6a07 	vmul.f32	s12, s12, s14
 8007ed4:	ee76 6ac5 	vsub.f32	s13, s13, s10
 8007ed8:	ee27 7a25 	vmul.f32	s14, s14, s11
 8007edc:	eef0 5a08 	vmov.f32	s11, #8	; 0x40400000  3.0
 8007ee0:	ee66 6aa5 	vmul.f32	s13, s13, s11
 8007ee4:	ee36 7a07 	vadd.f32	s14, s12, s14
 8007ee8:	ee87 6a26 	vdiv.f32	s12, s14, s13
 8007eec:	ed84 6a5a 	vstr	s12, [r4, #360]	; 0x168
 8007ef0:	edc4 7a59 	vstr	s15, [r4, #356]	; 0x164
 8007ef4:	f006 fe32 	bl	800eb5c <rand>
 8007ef8:	ee07 0a90 	vmov	s15, r0
 8007efc:	ed9f 9aca 	vldr	s18, [pc, #808]	; 8008228 <MagicPatch.part.0+0x818>
 8007f00:	ed9f 8aca 	vldr	s16, [pc, #808]	; 800822c <MagicPatch.part.0+0x81c>
 8007f04:	eddf 8aca 	vldr	s17, [pc, #808]	; 8008230 <MagicPatch.part.0+0x820>
 8007f08:	eddf 9aca 	vldr	s19, [pc, #808]	; 8008234 <MagicPatch.part.0+0x824>
 8007f0c:	eddf aaca 	vldr	s21, [pc, #808]	; 8008238 <MagicPatch.part.0+0x828>
 8007f10:	ed9f aac2 	vldr	s20, [pc, #776]	; 800821c <MagicPatch.part.0+0x80c>
 8007f14:	eeb8 0ae7 	vcvt.f32.s32	s0, s15
 8007f18:	eeb7 ba00 	vmov.f32	s22, #112	; 0x3f800000  1.0
 8007f1c:	ee20 0a09 	vmul.f32	s0, s0, s18
 8007f20:	ee20 0a08 	vmul.f32	s0, s0, s16
 8007f24:	ee30 0a28 	vadd.f32	s0, s0, s17
 8007f28:	f005 fb26 	bl	800d578 <lrintf>
 8007f2c:	b2c0      	uxtb	r0, r0
 8007f2e:	ee07 0a90 	vmov	s15, r0
 8007f32:	eef8 7ae7 	vcvt.f32.s32	s15, s15
 8007f36:	ed9f 7ac1 	vldr	s14, [pc, #772]	; 800823c <MagicPatch.part.0+0x82c>
 8007f3a:	eec7 6a88 	vdiv.f32	s13, s15, s16
 8007f3e:	ee7b 7a66 	vsub.f32	s15, s22, s13
 8007f42:	eef4 7ac7 	vcmpe.f32	s15, s14
 8007f46:	eef1 fa10 	vmrs	APSR_nzcv, fpscr
 8007f4a:	bf58      	it	pl
 8007f4c:	eeb0 7a67 	vmovpl.f32	s14, s15
 8007f50:	ed84 7a5b 	vstr	s14, [r4, #364]	; 0x16c
 8007f54:	f006 fe02 	bl	800eb5c <rand>
 8007f58:	ee07 0a90 	vmov	s15, r0
 8007f5c:	eeb8 0ae7 	vcvt.f32.s32	s0, s15
 8007f60:	ee20 0a09 	vmul.f32	s0, s0, s18
 8007f64:	ee20 0a08 	vmul.f32	s0, s0, s16
 8007f68:	ee30 0a28 	vadd.f32	s0, s0, s17
 8007f6c:	f005 fb04 	bl	800d578 <lrintf>
 8007f70:	b2c0      	uxtb	r0, r0
 8007f72:	ee07 0a90 	vmov	s15, r0
 8007f76:	eeb8 7ae7 	vcvt.f32.s32	s14, s15
 8007f7a:	eef1 6a08 	vmov.f32	s13, #24	; 0x40c00000  6.0
 8007f7e:	eec7 7a08 	vdiv.f32	s15, s14, s16
 8007f82:	ee67 7aa7 	vmul.f32	s15, s15, s15
 8007f86:	ee67 7aa6 	vmul.f32	s15, s15, s13
 8007f8a:	edc4 7a5e 	vstr	s15, [r4, #376]	; 0x178
 8007f8e:	f006 fde5 	bl	800eb5c <rand>
 8007f92:	ee07 0a90 	vmov	s15, r0
 8007f96:	eeb8 0ae7 	vcvt.f32.s32	s0, s15
 8007f9a:	ee20 0a09 	vmul.f32	s0, s0, s18
 8007f9e:	ee20 0a08 	vmul.f32	s0, s0, s16
 8007fa2:	ee30 0a28 	vadd.f32	s0, s0, s17
 8007fa6:	f005 fae7 	bl	800d578 <lrintf>
 8007faa:	b2c0      	uxtb	r0, r0
 8007fac:	eb00 0080 	add.w	r0, r0, r0, lsl #2
 8007fb0:	ee07 0a90 	vmov	s15, r0
 8007fb4:	eeb8 0ae7 	vcvt.f32.s32	s0, s15
 8007fb8:	ee80 0a08 	vdiv.f32	s0, s0, s16
 8007fbc:	f005 fadc 	bl	800d578 <lrintf>
 8007fc0:	f884 0160 	strb.w	r0, [r4, #352]	; 0x160
 8007fc4:	f006 fdca 	bl	800eb5c <rand>
 8007fc8:	ee07 0a90 	vmov	s15, r0
 8007fcc:	eeb8 0ae7 	vcvt.f32.s32	s0, s15
 8007fd0:	ee20 0a09 	vmul.f32	s0, s0, s18
 8007fd4:	ee20 0a08 	vmul.f32	s0, s0, s16
 8007fd8:	ee30 0a28 	vadd.f32	s0, s0, s17
 8007fdc:	f005 facc 	bl	800d578 <lrintf>
 8007fe0:	b2c3      	uxtb	r3, r0
 8007fe2:	ee07 3a90 	vmov	s15, r3
 8007fe6:	ed9f 7a96 	vldr	s14, [pc, #600]	; 8008240 <MagicPatch.part.0+0x830>
 8007fea:	eef8 7ae7 	vcvt.f32.s32	s15, s15
 8007fee:	ee67 7a87 	vmul.f32	s15, s15, s14
 8007ff2:	edc4 7a90 	vstr	s15, [r4, #576]	; 0x240
 8007ff6:	f006 fdb1 	bl	800eb5c <rand>
 8007ffa:	ee07 0a90 	vmov	s15, r0
 8007ffe:	eeb8 0ae7 	vcvt.f32.s32	s0, s15
 8008002:	ee20 0a09 	vmul.f32	s0, s0, s18
 8008006:	ee20 0a08 	vmul.f32	s0, s0, s16
 800800a:	ee30 0a28 	vadd.f32	s0, s0, s17
 800800e:	f005 fab3 	bl	800d578 <lrintf>
 8008012:	b2c3      	uxtb	r3, r0
 8008014:	ee07 3a90 	vmov	s15, r3
 8008018:	eef8 7ae7 	vcvt.f32.s32	s15, s15
 800801c:	ee67 7aa9 	vmul.f32	s15, s15, s19
 8008020:	edc4 7a92 	vstr	s15, [r4, #584]	; 0x248
 8008024:	f006 fd9a 	bl	800eb5c <rand>
 8008028:	ee07 0a90 	vmov	s15, r0
 800802c:	eeb8 0ae7 	vcvt.f32.s32	s0, s15
 8008030:	ee20 0a09 	vmul.f32	s0, s0, s18
 8008034:	ee20 0a08 	vmul.f32	s0, s0, s16
 8008038:	ee30 0a28 	vadd.f32	s0, s0, s17
 800803c:	f005 fa9c 	bl	800d578 <lrintf>
 8008040:	b2c0      	uxtb	r0, r0
 8008042:	283f      	cmp	r0, #63	; 0x3f
 8008044:	bf94      	ite	ls
 8008046:	2000      	movls	r0, #0
 8008048:	2001      	movhi	r0, #1
 800804a:	f884 0095 	strb.w	r0, [r4, #149]	; 0x95
 800804e:	f006 fd85 	bl	800eb5c <rand>
 8008052:	ee07 0a90 	vmov	s15, r0
 8008056:	eeb8 0ae7 	vcvt.f32.s32	s0, s15
 800805a:	eddf 7a7a 	vldr	s15, [pc, #488]	; 8008244 <MagicPatch.part.0+0x834>
 800805e:	ee20 0a09 	vmul.f32	s0, s0, s18
 8008062:	ee20 0a27 	vmul.f32	s0, s0, s15
 8008066:	ee30 0a28 	vadd.f32	s0, s0, s17
 800806a:	f005 fa85 	bl	800d578 <lrintf>
 800806e:	b2c0      	uxtb	r0, r0
 8008070:	ee07 0a90 	vmov	s15, r0
 8008074:	eeb8 7ae7 	vcvt.f32.s32	s14, s15
 8008078:	eec7 7a08 	vdiv.f32	s15, s14, s16
 800807c:	ee77 7aaa 	vadd.f32	s15, s15, s21
 8008080:	ee67 7a8a 	vmul.f32	s15, s15, s20
 8008084:	ee8b 7a27 	vdiv.f32	s14, s22, s15
 8008088:	ed84 7a1a 	vstr	s14, [r4, #104]	; 0x68
 800808c:	f006 fd66 	bl	800eb5c <rand>
 8008090:	ee07 0a90 	vmov	s15, r0
 8008094:	eeb8 0ae7 	vcvt.f32.s32	s0, s15
 8008098:	ee20 0a09 	vmul.f32	s0, s0, s18
 800809c:	ee20 0a08 	vmul.f32	s0, s0, s16
 80080a0:	ee30 0a28 	vadd.f32	s0, s0, s17
 80080a4:	f005 fa68 	bl	800d578 <lrintf>
 80080a8:	b2c3      	uxtb	r3, r0
 80080aa:	ee07 3a90 	vmov	s15, r3
 80080ae:	ed9f 7a66 	vldr	s14, [pc, #408]	; 8008248 <MagicPatch.part.0+0x838>
 80080b2:	eef8 7ae7 	vcvt.f32.s32	s15, s15
 80080b6:	ee67 7a87 	vmul.f32	s15, s15, s14
 80080ba:	ee87 7a88 	vdiv.f32	s14, s15, s16
 80080be:	ee77 7a2a 	vadd.f32	s15, s14, s21
 80080c2:	ee67 7a8a 	vmul.f32	s15, s15, s20
 80080c6:	ee8b 7a27 	vdiv.f32	s14, s22, s15
 80080ca:	ed84 7a1b 	vstr	s14, [r4, #108]	; 0x6c
 80080ce:	f006 fd45 	bl	800eb5c <rand>
 80080d2:	ee07 0a90 	vmov	s15, r0
 80080d6:	eeb8 0ae7 	vcvt.f32.s32	s0, s15
 80080da:	ee20 0a09 	vmul.f32	s0, s0, s18
 80080de:	ee20 0a08 	vmul.f32	s0, s0, s16
 80080e2:	ee30 0a28 	vadd.f32	s0, s0, s17
 80080e6:	f005 fa47 	bl	800d578 <lrintf>
 80080ea:	b2c0      	uxtb	r0, r0
 80080ec:	ee07 0a90 	vmov	s15, r0
 80080f0:	eef8 7ae7 	vcvt.f32.s32	s15, s15
 80080f4:	ee87 7a88 	vdiv.f32	s14, s15, s16
 80080f8:	ed84 7a1c 	vstr	s14, [r4, #112]	; 0x70
 80080fc:	f006 fd2e 	bl	800eb5c <rand>
 8008100:	ee07 0a90 	vmov	s15, r0
 8008104:	eeb8 0ae7 	vcvt.f32.s32	s0, s15
 8008108:	ee20 0a09 	vmul.f32	s0, s0, s18
 800810c:	ee20 0a08 	vmul.f32	s0, s0, s16
 8008110:	ee30 0a28 	vadd.f32	s0, s0, s17
 8008114:	f005 fa30 	bl	800d578 <lrintf>
 8008118:	b2c3      	uxtb	r3, r0
 800811a:	ee07 3a10 	vmov	s14, r3
 800811e:	eeba 7aef 	vcvt.f32.s32	s14, s14, #1
 8008122:	edd4 6a1c 	vldr	s13, [r4, #112]	; 0x70
 8008126:	eec7 7a08 	vdiv.f32	s15, s14, s16
 800812a:	ee77 aaaa 	vadd.f32	s21, s15, s21
 800812e:	ee2a aa8a 	vmul.f32	s20, s21, s20
 8008132:	eec6 7a8a 	vdiv.f32	s15, s13, s20
 8008136:	edc4 7a1d 	vstr	s15, [r4, #116]	; 0x74
 800813a:	f006 fd0f 	bl	800eb5c <rand>
 800813e:	ee07 0a90 	vmov	s15, r0
 8008142:	eeb8 0ae7 	vcvt.f32.s32	s0, s15
 8008146:	ee20 0a09 	vmul.f32	s0, s0, s18
 800814a:	ee20 0a08 	vmul.f32	s0, s0, s16
 800814e:	ee30 0a28 	vadd.f32	s0, s0, s17
 8008152:	f005 fa11 	bl	800d578 <lrintf>
 8008156:	b2c3      	uxtb	r3, r0
 8008158:	ee07 3a90 	vmov	s15, r3
 800815c:	ed9f 7a3b 	vldr	s14, [pc, #236]	; 800824c <MagicPatch.part.0+0x83c>
 8008160:	eef8 7ae7 	vcvt.f32.s32	s15, s15
 8008164:	ee67 7a87 	vmul.f32	s15, s15, s14
 8008168:	edc4 7a80 	vstr	s15, [r4, #512]	; 0x200
 800816c:	f006 fcf6 	bl	800eb5c <rand>
 8008170:	ee07 0a90 	vmov	s15, r0
 8008174:	eeb8 0ae7 	vcvt.f32.s32	s0, s15
 8008178:	ee20 0a09 	vmul.f32	s0, s0, s18
 800817c:	ee20 0a08 	vmul.f32	s0, s0, s16
 8008180:	ee30 0a28 	vadd.f32	s0, s0, s17
 8008184:	f005 f9f8 	bl	800d578 <lrintf>
 8008188:	b2c3      	uxtb	r3, r0
 800818a:	ee07 3a90 	vmov	s15, r3
 800818e:	eef8 7ae7 	vcvt.f32.s32	s15, s15
 8008192:	ee67 7aa9 	vmul.f32	s15, s15, s19
 8008196:	edc4 7a82 	vstr	s15, [r4, #520]	; 0x208
 800819a:	f006 fcdf 	bl	800eb5c <rand>
 800819e:	ee07 0a90 	vmov	s15, r0
 80081a2:	eeb8 0ae7 	vcvt.f32.s32	s0, s15
 80081a6:	ee20 0a09 	vmul.f32	s0, s0, s18
 80081aa:	ee20 0a08 	vmul.f32	s0, s0, s16
 80081ae:	ee30 0a28 	vadd.f32	s0, s0, s17
 80081b2:	f005 f9e1 	bl	800d578 <lrintf>
 80081b6:	b2c0      	uxtb	r0, r0
 80081b8:	ee07 0a90 	vmov	s15, r0
 80081bc:	eef8 7ae7 	vcvt.f32.s32	s15, s15
 80081c0:	ee87 7a88 	vdiv.f32	s14, s15, s16
 80081c4:	ed84 7a98 	vstr	s14, [r4, #608]	; 0x260
 80081c8:	f006 fcc8 	bl	800eb5c <rand>
 80081cc:	ee07 0a90 	vmov	s15, r0
 80081d0:	eeb8 0ae7 	vcvt.f32.s32	s0, s15
 80081d4:	ee20 0a09 	vmul.f32	s0, s0, s18
 80081d8:	ee20 0a08 	vmul.f32	s0, s0, s16
 80081dc:	ee30 0a28 	vadd.f32	s0, s0, s17
 80081e0:	f005 f9ca 	bl	800d578 <lrintf>
 80081e4:	b2c3      	uxtb	r3, r0
 80081e6:	ee07 3a90 	vmov	s15, r3
 80081ea:	eef8 7ae7 	vcvt.f32.s32	s15, s15
 80081ee:	ee67 7aa9 	vmul.f32	s15, s15, s19
 80081f2:	edc4 7a9a 	vstr	s15, [r4, #616]	; 0x268
 80081f6:	b003      	add	sp, #12
 80081f8:	ecbd 8b08 	vpop	{d8-d11}
 80081fc:	e8bd 8170 	ldmia.w	sp!, {r4, r5, r6, r8, pc}
 8008200:	ed9f 6a13 	vldr	s12, [pc, #76]	; 8008250 <MagicPatch.part.0+0x840>
 8008204:	eddf 7a13 	vldr	s15, [pc, #76]	; 8008254 <MagicPatch.part.0+0x844>
 8008208:	e55d      	b.n	8007cc6 <MagicPatch.part.0+0x2b6>
 800820a:	ed9f 6a11 	vldr	s12, [pc, #68]	; 8008250 <MagicPatch.part.0+0x840>
 800820e:	eddf 7a11 	vldr	s15, [pc, #68]	; 8008254 <MagicPatch.part.0+0x844>
 8008212:	e66b      	b.n	8007eec <MagicPatch.part.0+0x4dc>
 8008214:	2001ede4 	.word	0x2001ede4
 8008218:	42a00000 	.word	0x42a00000
 800821c:	472c4400 	.word	0x472c4400
 8008220:	3f733333 	.word	0x3f733333
 8008224:	40490fdb 	.word	0x40490fdb
 8008228:	30000000 	.word	0x30000000
 800822c:	42fe0000 	.word	0x42fe0000
 8008230:	00000000 	.word	0x00000000
 8008234:	3dc18306 	.word	0x3dc18306
 8008238:	38d1b717 	.word	0x38d1b717
 800823c:	3c23d70a 	.word	0x3c23d70a
 8008240:	3e810204 	.word	0x3e810204
 8008244:	414b3333 	.word	0x414b3333
 8008248:	3e4ccccd 	.word	0x3e4ccccd
 800824c:	3b810204 	.word	0x3b810204
 8008250:	413a1203 	.word	0x413a1203
 8008254:	3ef33333 	.word	0x3ef33333
 8008258:	4dde      	ldr	r5, [pc, #888]	; (80085d4 <MagicPatch.part.0+0xbc4>)
 800825a:	ed9f aadf 	vldr	s20, [pc, #892]	; 80085d8 <MagicPatch.part.0+0xbc8>
 800825e:	eddf 9adf 	vldr	s19, [pc, #892]	; 80085dc <MagicPatch.part.0+0xbcc>
 8008262:	edc4 8aac 	vstr	s17, [r4, #688]	; 0x2b0
 8008266:	f04f 537e 	mov.w	r3, #1065353216	; 0x3f800000
 800826a:	eeb0 9a68 	vmov.f32	s18, s17
 800826e:	edc4 8aab 	vstr	s17, [r4, #684]	; 0x2ac
 8008272:	f105 062c 	add.w	r6, r5, #44	; 0x2c
 8008276:	f105 0824 	add.w	r8, r5, #36	; 0x24
 800827a:	f8c4 3284 	str.w	r3, [r4, #644]	; 0x284
 800827e:	f8c4 3280 	str.w	r3, [r4, #640]	; 0x280
 8008282:	f006 fc6b 	bl	800eb5c <rand>
 8008286:	ee07 0a90 	vmov	s15, r0
 800828a:	eef8 7ae7 	vcvt.f32.s32	s15, s15
 800828e:	eca6 9a01 	vstmia	r6!, {s18}
 8008292:	ee67 7a88 	vmul.f32	s15, s15, s16
 8008296:	ee67 7a8a 	vmul.f32	s15, s15, s20
 800829a:	ee77 7aa9 	vadd.f32	s15, s15, s19
 800829e:	ece5 7a01 	vstmia	r5!, {s15}
 80082a2:	ed94 7aa0 	vldr	s14, [r4, #640]	; 0x280
 80082a6:	ee77 7a87 	vadd.f32	s15, s15, s14
 80082aa:	45a8      	cmp	r8, r5
 80082ac:	edc4 7aa0 	vstr	s15, [r4, #640]	; 0x280
 80082b0:	d1e7      	bne.n	8008282 <MagicPatch.part.0+0x872>
 80082b2:	eef7 9a00 	vmov.f32	s19, #112	; 0x3f800000  1.0
 80082b6:	ee89 7aa7 	vdiv.f32	s14, s19, s15
 80082ba:	f894 3094 	ldrb.w	r3, [r4, #148]	; 0x94
 80082be:	2b0e      	cmp	r3, #14
 80082c0:	ed84 7aa0 	vstr	s14, [r4, #640]	; 0x280
 80082c4:	f000 8094 	beq.w	80083f0 <MagicPatch.part.0+0x9e0>
 80082c8:	2b0d      	cmp	r3, #13
 80082ca:	f47f acae 	bne.w	8007c2a <MagicPatch.part.0+0x21a>
 80082ce:	f006 fc45 	bl	800eb5c <rand>
 80082d2:	ee07 0a90 	vmov	s15, r0
 80082d6:	eeb8 0ae7 	vcvt.f32.s32	s0, s15
 80082da:	eddf 8ac1 	vldr	s17, [pc, #772]	; 80085e0 <MagicPatch.part.0+0xbd0>
 80082de:	ee20 0a08 	vmul.f32	s0, s0, s16
 80082e2:	ee20 0a28 	vmul.f32	s0, s0, s17
 80082e6:	ee30 0a09 	vadd.f32	s0, s0, s18
 80082ea:	f005 f945 	bl	800d578 <lrintf>
 80082ee:	b2c0      	uxtb	r0, r0
 80082f0:	ee07 0a90 	vmov	s15, r0
 80082f4:	eeb8 7ae7 	vcvt.f32.s32	s14, s15
 80082f8:	eec7 7a28 	vdiv.f32	s15, s14, s17
 80082fc:	ee67 7aa7 	vmul.f32	s15, s15, s15
 8008300:	edc4 7a3f 	vstr	s15, [r4, #252]	; 0xfc
 8008304:	edc4 7a34 	vstr	s15, [r4, #208]	; 0xd0
 8008308:	edc4 7a29 	vstr	s15, [r4, #164]	; 0xa4
 800830c:	f006 fc26 	bl	800eb5c <rand>
 8008310:	ee07 0a90 	vmov	s15, r0
 8008314:	eeb8 0ae7 	vcvt.f32.s32	s0, s15
 8008318:	ee20 0a08 	vmul.f32	s0, s0, s16
 800831c:	ee20 0a28 	vmul.f32	s0, s0, s17
 8008320:	ee30 0a09 	vadd.f32	s0, s0, s18
 8008324:	f005 f928 	bl	800d578 <lrintf>
 8008328:	2332      	movs	r3, #50	; 0x32
 800832a:	b2c0      	uxtb	r0, r0
 800832c:	fb03 f300 	mul.w	r3, r3, r0
 8008330:	ee07 3a90 	vmov	s15, r3
 8008334:	eeb8 7ae7 	vcvt.f32.s32	s14, s15
 8008338:	eddf 6aaa 	vldr	s13, [pc, #680]	; 80085e4 <MagicPatch.part.0+0xbd4>
 800833c:	eec7 7a28 	vdiv.f32	s15, s14, s17
 8008340:	ee77 7aa6 	vadd.f32	s15, s15, s13
 8008344:	edc4 7a3e 	vstr	s15, [r4, #248]	; 0xf8
 8008348:	edc4 7a33 	vstr	s15, [r4, #204]	; 0xcc
 800834c:	edc4 7a28 	vstr	s15, [r4, #160]	; 0xa0
 8008350:	f006 fc04 	bl	800eb5c <rand>
 8008354:	ee07 0a90 	vmov	s15, r0
 8008358:	eeb8 0ae7 	vcvt.f32.s32	s0, s15
 800835c:	ee20 8a08 	vmul.f32	s16, s0, s16
 8008360:	ee28 0a28 	vmul.f32	s0, s16, s17
 8008364:	ee30 0a09 	vadd.f32	s0, s0, s18
 8008368:	f005 f906 	bl	800d578 <lrintf>
 800836c:	b2c0      	uxtb	r0, r0
 800836e:	eb00 03c0 	add.w	r3, r0, r0, lsl #3
 8008372:	eb00 0043 	add.w	r0, r0, r3, lsl #1
 8008376:	ee07 0a90 	vmov	s15, r0
 800837a:	eef8 7ae7 	vcvt.f32.s32	s15, s15
 800837e:	ed94 6a28 	vldr	s12, [r4, #160]	; 0xa0
 8008382:	eddf 6a99 	vldr	s13, [pc, #612]	; 80085e8 <MagicPatch.part.0+0xbd8>
 8008386:	ee87 7aa8 	vdiv.f32	s14, s15, s17
 800838a:	ee77 7a29 	vadd.f32	s15, s14, s19
 800838e:	ee67 7a86 	vmul.f32	s15, s15, s12
 8008392:	eef4 7ae6 	vcmpe.f32	s15, s13
 8008396:	eef1 fa10 	vmrs	APSR_nzcv, fpscr
 800839a:	f340 8113 	ble.w	80085c4 <MagicPatch.part.0+0xbb4>
 800839e:	edc4 6a3d 	vstr	s13, [r4, #244]	; 0xf4
 80083a2:	edc4 6a32 	vstr	s13, [r4, #200]	; 0xc8
 80083a6:	edc4 6a27 	vstr	s13, [r4, #156]	; 0x9c
 80083aa:	f006 fbd7 	bl	800eb5c <rand>
 80083ae:	ee07 0a90 	vmov	s15, r0
 80083b2:	ed9f 8a8b 	vldr	s16, [pc, #556]	; 80085e0 <MagicPatch.part.0+0xbd0>
 80083b6:	ed9f 0a8d 	vldr	s0, [pc, #564]	; 80085ec <MagicPatch.part.0+0xbdc>
 80083ba:	eefa 7ae0 	vcvt.f32.s32	s15, s15, #31
 80083be:	ee67 7a88 	vmul.f32	s15, s15, s16
 80083c2:	ee37 0a80 	vadd.f32	s0, s15, s0
 80083c6:	f005 f8d7 	bl	800d578 <lrintf>
 80083ca:	b2c0      	uxtb	r0, r0
 80083cc:	ee07 0a90 	vmov	s15, r0
 80083d0:	eef8 0ae7 	vcvt.f32.s32	s1, s15
 80083d4:	ed9f 0a86 	vldr	s0, [pc, #536]	; 80085f0 <MagicPatch.part.0+0xbe0>
 80083d8:	eec0 0a88 	vdiv.f32	s1, s1, s16
 80083dc:	f005 f9c0 	bl	800d760 <powf>
 80083e0:	4b84      	ldr	r3, [pc, #528]	; (80085f4 <MagicPatch.part.0+0xbe4>)
 80083e2:	ed83 0a00 	vstr	s0, [r3]
 80083e6:	e420      	b.n	8007c2a <MagicPatch.part.0+0x21a>
 80083e8:	f884 0065 	strb.w	r0, [r4, #101]	; 0x65
 80083ec:	f7ff bbc0 	b.w	8007b70 <MagicPatch.part.0+0x160>
 80083f0:	f006 fbb4 	bl	800eb5c <rand>
 80083f4:	ee07 0a90 	vmov	s15, r0
 80083f8:	eeb8 0ae7 	vcvt.f32.s32	s0, s15
 80083fc:	eddf 8a78 	vldr	s17, [pc, #480]	; 80085e0 <MagicPatch.part.0+0xbd0>
 8008400:	eddf 9a7d 	vldr	s19, [pc, #500]	; 80085f8 <MagicPatch.part.0+0xbe8>
 8008404:	ed9f aa7d 	vldr	s20, [pc, #500]	; 80085fc <MagicPatch.part.0+0xbec>
 8008408:	ee20 0a08 	vmul.f32	s0, s0, s16
 800840c:	ee20 0a28 	vmul.f32	s0, s0, s17
 8008410:	ee30 0a09 	vadd.f32	s0, s0, s18
 8008414:	f005 f8b0 	bl	800d578 <lrintf>
 8008418:	b2c0      	uxtb	r0, r0
 800841a:	ee07 0a90 	vmov	s15, r0
 800841e:	eef8 0ae7 	vcvt.f32.s32	s1, s15
 8008422:	ed9f 0a77 	vldr	s0, [pc, #476]	; 8008600 <MagicPatch.part.0+0xbf0>
 8008426:	eec0 0aa8 	vdiv.f32	s1, s1, s17
 800842a:	f005 f999 	bl	800d760 <powf>
 800842e:	eef6 7a00 	vmov.f32	s15, #96	; 0x3f000000  0.5
 8008432:	ee20 0a27 	vmul.f32	s0, s0, s15
 8008436:	ed84 0a62 	vstr	s0, [r4, #392]	; 0x188
 800843a:	f006 fb8f 	bl	800eb5c <rand>
 800843e:	ee07 0a90 	vmov	s15, r0
 8008442:	eeb8 0ae7 	vcvt.f32.s32	s0, s15
 8008446:	ee20 0a08 	vmul.f32	s0, s0, s16
 800844a:	ee20 0a28 	vmul.f32	s0, s0, s17
 800844e:	ee30 0a09 	vadd.f32	s0, s0, s18
 8008452:	f005 f891 	bl	800d578 <lrintf>
 8008456:	b2c3      	uxtb	r3, r0
 8008458:	ee07 3a90 	vmov	s15, r3
 800845c:	eef8 7ae7 	vcvt.f32.s32	s15, s15
 8008460:	ee67 7aa9 	vmul.f32	s15, s15, s19
 8008464:	ee87 7aa8 	vdiv.f32	s14, s15, s17
 8008468:	ee27 7a07 	vmul.f32	s14, s14, s14
 800846c:	ed84 7a65 	vstr	s14, [r4, #404]	; 0x194
 8008470:	f006 fb74 	bl	800eb5c <rand>
 8008474:	ee07 0a90 	vmov	s15, r0
 8008478:	eeb8 0ae7 	vcvt.f32.s32	s0, s15
 800847c:	ee20 0a08 	vmul.f32	s0, s0, s16
 8008480:	ee20 0a28 	vmul.f32	s0, s0, s17
 8008484:	ee30 0a09 	vadd.f32	s0, s0, s18
 8008488:	f005 f876 	bl	800d578 <lrintf>
 800848c:	b2c0      	uxtb	r0, r0
 800848e:	ee07 0a90 	vmov	s15, r0
 8008492:	eef8 0ae7 	vcvt.f32.s32	s1, s15
 8008496:	ed9f 0a5b 	vldr	s0, [pc, #364]	; 8008604 <MagicPatch.part.0+0xbf4>
 800849a:	eec0 0aa8 	vdiv.f32	s1, s1, s17
 800849e:	f005 f95f 	bl	800d760 <powf>
 80084a2:	ee20 0a0a 	vmul.f32	s0, s0, s20
 80084a6:	ed84 0a6e 	vstr	s0, [r4, #440]	; 0x1b8
 80084aa:	f006 fb57 	bl	800eb5c <rand>
 80084ae:	ee07 0a90 	vmov	s15, r0
 80084b2:	eeb8 0ae7 	vcvt.f32.s32	s0, s15
 80084b6:	ee20 0a08 	vmul.f32	s0, s0, s16
 80084ba:	ee20 0a28 	vmul.f32	s0, s0, s17
 80084be:	ee30 0a09 	vadd.f32	s0, s0, s18
 80084c2:	f005 f859 	bl	800d578 <lrintf>
 80084c6:	b2c3      	uxtb	r3, r0
 80084c8:	ee07 3a90 	vmov	s15, r3
 80084cc:	eef8 7ae7 	vcvt.f32.s32	s15, s15
 80084d0:	ee67 7aa9 	vmul.f32	s15, s15, s19
 80084d4:	ee87 7aa8 	vdiv.f32	s14, s15, s17
 80084d8:	ee27 7a07 	vmul.f32	s14, s14, s14
 80084dc:	ed84 7a6d 	vstr	s14, [r4, #436]	; 0x1b4
 80084e0:	f006 fb3c 	bl	800eb5c <rand>
 80084e4:	ee07 0a90 	vmov	s15, r0
 80084e8:	eeb8 0ae7 	vcvt.f32.s32	s0, s15
 80084ec:	ee20 0a08 	vmul.f32	s0, s0, s16
 80084f0:	ee20 0a28 	vmul.f32	s0, s0, s17
 80084f4:	ee30 0a09 	vadd.f32	s0, s0, s18
 80084f8:	f005 f83e 	bl	800d578 <lrintf>
 80084fc:	b2c0      	uxtb	r0, r0
 80084fe:	ee07 0a90 	vmov	s15, r0
 8008502:	eef8 0ae7 	vcvt.f32.s32	s1, s15
 8008506:	ed9f 0a3f 	vldr	s0, [pc, #252]	; 8008604 <MagicPatch.part.0+0xbf4>
 800850a:	eec0 0aa8 	vdiv.f32	s1, s1, s17
 800850e:	f005 f927 	bl	800d760 <powf>
 8008512:	ee20 0a0a 	vmul.f32	s0, s0, s20
 8008516:	ed84 0a76 	vstr	s0, [r4, #472]	; 0x1d8
 800851a:	f006 fb1f 	bl	800eb5c <rand>
 800851e:	ee07 0a90 	vmov	s15, r0
 8008522:	eeb8 0ae7 	vcvt.f32.s32	s0, s15
 8008526:	ee20 0a08 	vmul.f32	s0, s0, s16
 800852a:	ee20 0a28 	vmul.f32	s0, s0, s17
 800852e:	ee30 0a09 	vadd.f32	s0, s0, s18
 8008532:	f005 f821 	bl	800d578 <lrintf>
 8008536:	b2c3      	uxtb	r3, r0
 8008538:	ee07 3a90 	vmov	s15, r3
 800853c:	eef8 7ae7 	vcvt.f32.s32	s15, s15
 8008540:	ee67 7aa9 	vmul.f32	s15, s15, s19
 8008544:	ee87 7aa8 	vdiv.f32	s14, s15, s17
 8008548:	ee27 7a07 	vmul.f32	s14, s14, s14
 800854c:	ed84 7a75 	vstr	s14, [r4, #468]	; 0x1d4
 8008550:	f006 fb04 	bl	800eb5c <rand>
 8008554:	ee07 0a90 	vmov	s15, r0
 8008558:	eeb8 0ae7 	vcvt.f32.s32	s0, s15
 800855c:	ee20 0a08 	vmul.f32	s0, s0, s16
 8008560:	ee20 0a28 	vmul.f32	s0, s0, s17
 8008564:	ee30 0a09 	vadd.f32	s0, s0, s18
 8008568:	f005 f806 	bl	800d578 <lrintf>
 800856c:	b2c0      	uxtb	r0, r0
 800856e:	ee07 0a90 	vmov	s15, r0
 8008572:	eef8 0ae7 	vcvt.f32.s32	s1, s15
 8008576:	ed9f 0a23 	vldr	s0, [pc, #140]	; 8008604 <MagicPatch.part.0+0xbf4>
 800857a:	eec0 0aa8 	vdiv.f32	s1, s1, s17
 800857e:	f005 f8ef 	bl	800d760 <powf>
 8008582:	ee20 0a0a 	vmul.f32	s0, s0, s20
 8008586:	ed84 0a7e 	vstr	s0, [r4, #504]	; 0x1f8
 800858a:	f006 fae7 	bl	800eb5c <rand>
 800858e:	ee07 0a90 	vmov	s15, r0
 8008592:	eeb8 0ae7 	vcvt.f32.s32	s0, s15
 8008596:	ee20 8a08 	vmul.f32	s16, s0, s16
 800859a:	ee28 0a28 	vmul.f32	s0, s16, s17
 800859e:	ee30 0a09 	vadd.f32	s0, s0, s18
 80085a2:	f004 ffe9 	bl	800d578 <lrintf>
 80085a6:	b2c3      	uxtb	r3, r0
 80085a8:	ee07 3a90 	vmov	s15, r3
 80085ac:	eef8 7ae7 	vcvt.f32.s32	s15, s15
 80085b0:	ee67 7aa9 	vmul.f32	s15, s15, s19
 80085b4:	ee87 7aa8 	vdiv.f32	s14, s15, s17
 80085b8:	ee27 7a07 	vmul.f32	s14, s14, s14
 80085bc:	ed84 7a7d 	vstr	s14, [r4, #500]	; 0x1f4
 80085c0:	f7ff bb33 	b.w	8007c2a <MagicPatch.part.0+0x21a>
 80085c4:	edc4 7a3d 	vstr	s15, [r4, #244]	; 0xf4
 80085c8:	edc4 7a32 	vstr	s15, [r4, #200]	; 0xc8
 80085cc:	edc4 7a27 	vstr	s15, [r4, #156]	; 0x9c
 80085d0:	e6eb      	b.n	80083aa <MagicPatch.part.0+0x99a>
 80085d2:	bf00      	nop
 80085d4:	10000288 	.word	0x10000288
 80085d8:	3f7a9fbf 	.word	0x3f7a9fbf
 80085dc:	3a83126f 	.word	0x3a83126f
 80085e0:	42fe0000 	.word	0x42fe0000
 80085e4:	3dcccccd 	.word	0x3dcccccd
 80085e8:	461c4000 	.word	0x461c4000
 80085ec:	00000000 	.word	0x00000000
 80085f0:	45bb8000 	.word	0x45bb8000
 80085f4:	20000024 	.word	0x20000024
 80085f8:	3fb33333 	.word	0x3fb33333
 80085fc:	3e4ccccd 	.word	0x3e4ccccd
 8008600:	467a0000 	.word	0x467a0000
 8008604:	43200000 	.word	0x43200000

08008608 <MagicFX.part.0>:
MagicFX.part.0():
 8008608:	e92d 4370 	stmdb	sp!, {r4, r5, r6, r8, r9, lr}
 800860c:	4ce3      	ldr	r4, [pc, #908]	; (800899c <MagicFX.part.0+0x394>)
 800860e:	f8df 9404 	ldr.w	r9, [pc, #1028]	; 8008a14 <MagicFX.part.0+0x40c>
 8008612:	4de3      	ldr	r5, [pc, #908]	; (80089a0 <MagicFX.part.0+0x398>)
 8008614:	4ee3      	ldr	r6, [pc, #908]	; (80089a4 <MagicFX.part.0+0x39c>)
 8008616:	ed2d 8b04 	vpush	{d8-d9}
 800861a:	2301      	movs	r3, #1
 800861c:	f884 3098 	strb.w	r3, [r4, #152]	; 0x98
 8008620:	f006 fa9c 	bl	800eb5c <rand>
 8008624:	ee07 0a90 	vmov	s15, r0
 8008628:	ed9f 7adf 	vldr	s14, [pc, #892]	; 80089a8 <MagicFX.part.0+0x3a0>
 800862c:	ed9f 0adf 	vldr	s0, [pc, #892]	; 80089ac <MagicFX.part.0+0x3a4>
 8008630:	ed9f 9adf 	vldr	s18, [pc, #892]	; 80089b0 <MagicFX.part.0+0x3a8>
 8008634:	ed9f 8adc 	vldr	s16, [pc, #880]	; 80089a8 <MagicFX.part.0+0x3a0>
 8008638:	eddf 8adc 	vldr	s17, [pc, #880]	; 80089ac <MagicFX.part.0+0x3a4>
 800863c:	eefa 7ae0 	vcvt.f32.s32	s15, s15, #31
 8008640:	f04f 0801 	mov.w	r8, #1
 8008644:	ee67 7a87 	vmul.f32	s15, s15, s14
 8008648:	ee37 0a80 	vadd.f32	s0, s15, s0
 800864c:	f004 ff94 	bl	800d578 <lrintf>
 8008650:	b2c3      	uxtb	r3, r0
 8008652:	ee07 3a90 	vmov	s15, r3
 8008656:	ed9f 7ad7 	vldr	s14, [pc, #860]	; 80089b4 <MagicFX.part.0+0x3ac>
 800865a:	ed9f 0ad7 	vldr	s0, [pc, #860]	; 80089b8 <MagicFX.part.0+0x3b0>
 800865e:	eef8 7ae7 	vcvt.f32.s32	s15, s15
 8008662:	ee67 7a87 	vmul.f32	s15, s15, s14
 8008666:	ee37 0a80 	vadd.f32	s0, s15, s0
 800866a:	f004 ff85 	bl	800d578 <lrintf>
 800866e:	4bd3      	ldr	r3, [pc, #844]	; (80089bc <MagicFX.part.0+0x3b4>)
 8008670:	4ad3      	ldr	r2, [pc, #844]	; (80089c0 <MagicFX.part.0+0x3b8>)
 8008672:	681b      	ldr	r3, [r3, #0]
 8008674:	49d3      	ldr	r1, [pc, #844]	; (80089c4 <MagicFX.part.0+0x3bc>)
 8008676:	eba3 0380 	sub.w	r3, r3, r0, lsl #2
 800867a:	4293      	cmp	r3, r2
 800867c:	bf38      	it	cc
 800867e:	f503 33ea 	addcc.w	r3, r3, #119808	; 0x1d400
 8008682:	4ad1      	ldr	r2, [pc, #836]	; (80089c8 <MagicFX.part.0+0x3c0>)
 8008684:	6008      	str	r0, [r1, #0]
 8008686:	bf38      	it	cc
 8008688:	33bc      	addcc	r3, #188	; 0xbc
 800868a:	6013      	str	r3, [r2, #0]
 800868c:	f006 fa66 	bl	800eb5c <rand>
 8008690:	ee07 0a90 	vmov	s15, r0
 8008694:	eeb8 0ae7 	vcvt.f32.s32	s0, s15
 8008698:	ee20 0a09 	vmul.f32	s0, s0, s18
 800869c:	ee20 0a08 	vmul.f32	s0, s0, s16
 80086a0:	ee30 0a28 	vadd.f32	s0, s0, s17
 80086a4:	f004 ff68 	bl	800d578 <lrintf>
 80086a8:	b2c0      	uxtb	r0, r0
 80086aa:	ee07 0a90 	vmov	s15, r0
 80086ae:	eef8 7ae7 	vcvt.f32.s32	s15, s15
 80086b2:	4bc6      	ldr	r3, [pc, #792]	; (80089cc <MagicFX.part.0+0x3c4>)
 80086b4:	ee87 7a88 	vdiv.f32	s14, s15, s16
 80086b8:	ed83 7a00 	vstr	s14, [r3]
 80086bc:	f006 fa4e 	bl	800eb5c <rand>
 80086c0:	ee07 0a90 	vmov	s15, r0
 80086c4:	eeb8 0ae7 	vcvt.f32.s32	s0, s15
 80086c8:	ee20 0a09 	vmul.f32	s0, s0, s18
 80086cc:	ee20 0a08 	vmul.f32	s0, s0, s16
 80086d0:	ee30 0a28 	vadd.f32	s0, s0, s17
 80086d4:	f004 ff50 	bl	800d578 <lrintf>
 80086d8:	b2c0      	uxtb	r0, r0
 80086da:	ee07 0a90 	vmov	s15, r0
 80086de:	eef8 7ae7 	vcvt.f32.s32	s15, s15
 80086e2:	4bbb      	ldr	r3, [pc, #748]	; (80089d0 <MagicFX.part.0+0x3c8>)
 80086e4:	f884 8097 	strb.w	r8, [r4, #151]	; 0x97
 80086e8:	ee87 7a88 	vdiv.f32	s14, s15, s16
 80086ec:	ed83 7a00 	vstr	s14, [r3]
 80086f0:	f006 fa34 	bl	800eb5c <rand>
 80086f4:	ee07 0a90 	vmov	s15, r0
 80086f8:	eeb8 0ae7 	vcvt.f32.s32	s0, s15
 80086fc:	ee20 0a09 	vmul.f32	s0, s0, s18
 8008700:	ee20 0a08 	vmul.f32	s0, s0, s16
 8008704:	ee30 0a28 	vadd.f32	s0, s0, s17
 8008708:	f004 ff36 	bl	800d578 <lrintf>
 800870c:	b2c3      	uxtb	r3, r0
 800870e:	ee07 3a90 	vmov	s15, r3
 8008712:	ed9f 6ab0 	vldr	s12, [pc, #704]	; 80089d4 <MagicFX.part.0+0x3cc>
 8008716:	eddf 6ab0 	vldr	s13, [pc, #704]	; 80089d8 <MagicFX.part.0+0x3d0>
 800871a:	ed99 7a00 	vldr	s14, [r9]
 800871e:	eef8 7ae7 	vcvt.f32.s32	s15, s15
 8008722:	ee67 7a86 	vmul.f32	s15, s15, s12
 8008726:	ee77 7aa6 	vadd.f32	s15, s15, s13
 800872a:	ee27 7a27 	vmul.f32	s14, s14, s15
 800872e:	edc4 7a49 	vstr	s15, [r4, #292]	; 0x124
 8008732:	ed84 7a4d 	vstr	s14, [r4, #308]	; 0x134
 8008736:	f006 fa11 	bl	800eb5c <rand>
 800873a:	ee07 0a90 	vmov	s15, r0
 800873e:	eeb8 0ae7 	vcvt.f32.s32	s0, s15
 8008742:	ee20 0a09 	vmul.f32	s0, s0, s18
 8008746:	ee20 0a08 	vmul.f32	s0, s0, s16
 800874a:	ee30 0a28 	vadd.f32	s0, s0, s17
 800874e:	f004 ff13 	bl	800d578 <lrintf>
 8008752:	b2c3      	uxtb	r3, r0
 8008754:	ee07 3a90 	vmov	s15, r3
 8008758:	ed9f 6aa0 	vldr	s12, [pc, #640]	; 80089dc <MagicFX.part.0+0x3d4>
 800875c:	eddf 6aa0 	vldr	s13, [pc, #640]	; 80089e0 <MagicFX.part.0+0x3d8>
 8008760:	ed94 7a49 	vldr	s14, [r4, #292]	; 0x124
 8008764:	eef8 7ae7 	vcvt.f32.s32	s15, s15
 8008768:	ee67 7a86 	vmul.f32	s15, s15, s12
 800876c:	ee77 7aa6 	vadd.f32	s15, s15, s13
 8008770:	ee27 7a27 	vmul.f32	s14, s14, s15
 8008774:	edc9 7a00 	vstr	s15, [r9]
 8008778:	ed84 7a4d 	vstr	s14, [r4, #308]	; 0x134
 800877c:	f006 f9ee 	bl	800eb5c <rand>
 8008780:	ee07 0a90 	vmov	s15, r0
 8008784:	eeb8 0ae7 	vcvt.f32.s32	s0, s15
 8008788:	ee20 0a09 	vmul.f32	s0, s0, s18
 800878c:	ee20 0a08 	vmul.f32	s0, s0, s16
 8008790:	ee30 0a28 	vadd.f32	s0, s0, s17
 8008794:	f004 fef0 	bl	800d578 <lrintf>
 8008798:	b2c3      	uxtb	r3, r0
 800879a:	ee07 3a90 	vmov	s15, r3
 800879e:	ed9f 7a91 	vldr	s14, [pc, #580]	; 80089e4 <MagicFX.part.0+0x3dc>
 80087a2:	4a91      	ldr	r2, [pc, #580]	; (80089e8 <MagicFX.part.0+0x3e0>)
 80087a4:	4b91      	ldr	r3, [pc, #580]	; (80089ec <MagicFX.part.0+0x3e4>)
 80087a6:	eef8 7ae7 	vcvt.f32.s32	s15, s15
 80087aa:	ee67 7a87 	vmul.f32	s15, s15, s14
 80087ae:	edc2 7a00 	vstr	s15, [r2]
 80087b2:	edc3 7a00 	vstr	s15, [r3]
 80087b6:	f006 f9d1 	bl	800eb5c <rand>
 80087ba:	ee07 0a90 	vmov	s15, r0
 80087be:	eeb8 0ae7 	vcvt.f32.s32	s0, s15
 80087c2:	ee20 0a09 	vmul.f32	s0, s0, s18
 80087c6:	ee20 0a08 	vmul.f32	s0, s0, s16
 80087ca:	ee30 0a28 	vadd.f32	s0, s0, s17
 80087ce:	f004 fed3 	bl	800d578 <lrintf>
 80087d2:	b2c3      	uxtb	r3, r0
 80087d4:	ee07 3a90 	vmov	s15, r3
 80087d8:	ed9f 7a85 	vldr	s14, [pc, #532]	; 80089f0 <MagicFX.part.0+0x3e8>
 80087dc:	eef8 7ae7 	vcvt.f32.s32	s15, s15
 80087e0:	ee67 7a87 	vmul.f32	s15, s15, s14
 80087e4:	edc4 7a48 	vstr	s15, [r4, #288]	; 0x120
 80087e8:	edc4 7a4c 	vstr	s15, [r4, #304]	; 0x130
 80087ec:	f006 f9b6 	bl	800eb5c <rand>
 80087f0:	ee07 0a90 	vmov	s15, r0
 80087f4:	eeb8 0ae7 	vcvt.f32.s32	s0, s15
 80087f8:	ee20 0a09 	vmul.f32	s0, s0, s18
 80087fc:	ee20 0a08 	vmul.f32	s0, s0, s16
 8008800:	ee30 0a28 	vadd.f32	s0, s0, s17
 8008804:	f004 feb8 	bl	800d578 <lrintf>
 8008808:	b2c3      	uxtb	r3, r0
 800880a:	ee07 3a90 	vmov	s15, r3
 800880e:	ed9f 7a79 	vldr	s14, [pc, #484]	; 80089f4 <MagicFX.part.0+0x3ec>
 8008812:	eef8 7ae7 	vcvt.f32.s32	s15, s15
 8008816:	ee67 7a87 	vmul.f32	s15, s15, s14
 800881a:	ee87 7a88 	vdiv.f32	s14, s15, s16
 800881e:	ed85 7a01 	vstr	s14, [r5, #4]
 8008822:	ed86 7a01 	vstr	s14, [r6, #4]
 8008826:	f006 f999 	bl	800eb5c <rand>
 800882a:	ee07 0a90 	vmov	s15, r0
 800882e:	eeb8 0ae7 	vcvt.f32.s32	s0, s15
 8008832:	ee20 0a09 	vmul.f32	s0, s0, s18
 8008836:	ee20 0a08 	vmul.f32	s0, s0, s16
 800883a:	ee30 0a28 	vadd.f32	s0, s0, s17
 800883e:	f004 fe9b 	bl	800d578 <lrintf>
 8008842:	f010 00ff 	ands.w	r0, r0, #255	; 0xff
 8008846:	f000 80a1 	beq.w	800898c <MagicFX.part.0+0x384>
 800884a:	287f      	cmp	r0, #127	; 0x7f
 800884c:	d104      	bne.n	8008858 <MagicFX.part.0+0x250>
 800884e:	f241 53f4 	movw	r3, #5620	; 0x15f4
 8008852:	22ff      	movs	r2, #255	; 0xff
 8008854:	54ea      	strb	r2, [r5, r3]
 8008856:	54f2      	strb	r2, [r6, r3]
 8008858:	f006 f980 	bl	800eb5c <rand>
 800885c:	ee07 0a90 	vmov	s15, r0
 8008860:	ed9f 7a51 	vldr	s14, [pc, #324]	; 80089a8 <MagicFX.part.0+0x3a0>
 8008864:	ed9f 0a51 	vldr	s0, [pc, #324]	; 80089ac <MagicFX.part.0+0x3a4>
 8008868:	eefa 7ae0 	vcvt.f32.s32	s15, s15, #31
 800886c:	ee67 7a87 	vmul.f32	s15, s15, s14
 8008870:	ee37 0a80 	vadd.f32	s0, s15, s0
 8008874:	f004 fe80 	bl	800d578 <lrintf>
 8008878:	f010 00ff 	ands.w	r0, r0, #255	; 0xff
 800887c:	d075      	beq.n	800896a <MagicFX.part.0+0x362>
 800887e:	287f      	cmp	r0, #127	; 0x7f
 8008880:	d066      	beq.n	8008950 <MagicFX.part.0+0x348>
 8008882:	2301      	movs	r3, #1
 8008884:	f884 3099 	strb.w	r3, [r4, #153]	; 0x99
 8008888:	f006 f968 	bl	800eb5c <rand>
 800888c:	ee07 0a90 	vmov	s15, r0
 8008890:	ed9f 9a47 	vldr	s18, [pc, #284]	; 80089b0 <MagicFX.part.0+0x3a8>
 8008894:	ed9f 8a44 	vldr	s16, [pc, #272]	; 80089a8 <MagicFX.part.0+0x3a0>
 8008898:	eddf 8a44 	vldr	s17, [pc, #272]	; 80089ac <MagicFX.part.0+0x3a4>
 800889c:	eeb8 0ae7 	vcvt.f32.s32	s0, s15
 80088a0:	ee20 0a09 	vmul.f32	s0, s0, s18
 80088a4:	ee20 0a08 	vmul.f32	s0, s0, s16
 80088a8:	ee30 0a28 	vadd.f32	s0, s0, s17
 80088ac:	f004 fe64 	bl	800d578 <lrintf>
 80088b0:	b2c3      	uxtb	r3, r0
 80088b2:	ee07 3a90 	vmov	s15, r3
 80088b6:	eddf 5a50 	vldr	s11, [pc, #320]	; 80089f8 <MagicFX.part.0+0x3f0>
 80088ba:	ed9f 6a47 	vldr	s12, [pc, #284]	; 80089d8 <MagicFX.part.0+0x3d0>
 80088be:	ed9f 7a4f 	vldr	s14, [pc, #316]	; 80089fc <MagicFX.part.0+0x3f4>
 80088c2:	eddf 6a4f 	vldr	s13, [pc, #316]	; 8008a00 <MagicFX.part.0+0x3f8>
 80088c6:	4b4f      	ldr	r3, [pc, #316]	; (8008a04 <MagicFX.part.0+0x3fc>)
 80088c8:	eef8 7ae7 	vcvt.f32.s32	s15, s15
 80088cc:	ee67 7aa5 	vmul.f32	s15, s15, s11
 80088d0:	ee77 7a86 	vadd.f32	s15, s15, s12
 80088d4:	ee67 7a87 	vmul.f32	s15, s15, s14
 80088d8:	ee87 7aa6 	vdiv.f32	s14, s15, s13
 80088dc:	ed83 7a00 	vstr	s14, [r3]
 80088e0:	f006 f93c 	bl	800eb5c <rand>
 80088e4:	ee07 0a90 	vmov	s15, r0
 80088e8:	eeb8 0ae7 	vcvt.f32.s32	s0, s15
 80088ec:	ee20 0a09 	vmul.f32	s0, s0, s18
 80088f0:	ee20 0a08 	vmul.f32	s0, s0, s16
 80088f4:	ee30 0a28 	vadd.f32	s0, s0, s17
 80088f8:	f004 fe3e 	bl	800d578 <lrintf>
 80088fc:	b2c3      	uxtb	r3, r0
 80088fe:	ee07 3a90 	vmov	s15, r3
 8008902:	ed9f 7a41 	vldr	s14, [pc, #260]	; 8008a08 <MagicFX.part.0+0x400>
 8008906:	4b41      	ldr	r3, [pc, #260]	; (8008a0c <MagicFX.part.0+0x404>)
 8008908:	eef8 7ae7 	vcvt.f32.s32	s15, s15
 800890c:	ee67 7a87 	vmul.f32	s15, s15, s14
 8008910:	ee87 7a88 	vdiv.f32	s14, s15, s16
 8008914:	ed83 7a00 	vstr	s14, [r3]
 8008918:	f006 f920 	bl	800eb5c <rand>
 800891c:	ee07 0a90 	vmov	s15, r0
 8008920:	eeb8 0ae7 	vcvt.f32.s32	s0, s15
 8008924:	ee20 0a09 	vmul.f32	s0, s0, s18
 8008928:	ee20 0a08 	vmul.f32	s0, s0, s16
 800892c:	ee30 0a28 	vadd.f32	s0, s0, s17
 8008930:	f004 fe22 	bl	800d578 <lrintf>
 8008934:	b2c0      	uxtb	r0, r0
 8008936:	ee07 0a90 	vmov	s15, r0
 800893a:	eef8 7ae7 	vcvt.f32.s32	s15, s15
 800893e:	4b34      	ldr	r3, [pc, #208]	; (8008a10 <MagicFX.part.0+0x408>)
 8008940:	ee87 7a88 	vdiv.f32	s14, s15, s16
 8008944:	ecbd 8b04 	vpop	{d8-d9}
 8008948:	ed83 7a00 	vstr	s14, [r3]
 800894c:	e8bd 8370 	ldmia.w	sp!, {r4, r5, r6, r8, r9, pc}
 8008950:	ed96 7a01 	vldr	s14, [r6, #4]
 8008954:	edd5 7a01 	vldr	s15, [r5, #4]
 8008958:	eeb0 7ac7 	vabs.f32	s14, s14
 800895c:	eef0 7ae7 	vabs.f32	s15, s15
 8008960:	ed86 7a01 	vstr	s14, [r6, #4]
 8008964:	edc5 7a01 	vstr	s15, [r5, #4]
 8008968:	e78b      	b.n	8008882 <MagicFX.part.0+0x27a>
 800896a:	ed96 7a01 	vldr	s14, [r6, #4]
 800896e:	edd5 7a01 	vldr	s15, [r5, #4]
 8008972:	eeb0 7ac7 	vabs.f32	s14, s14
 8008976:	eef0 7ae7 	vabs.f32	s15, s15
 800897a:	eeb1 7a47 	vneg.f32	s14, s14
 800897e:	eef1 7a67 	vneg.f32	s15, s15
 8008982:	ed86 7a01 	vstr	s14, [r6, #4]
 8008986:	edc5 7a01 	vstr	s15, [r5, #4]
 800898a:	e77a      	b.n	8008882 <MagicFX.part.0+0x27a>
 800898c:	f241 53f4 	movw	r3, #5620	; 0x15f4
 8008990:	f805 8003 	strb.w	r8, [r5, r3]
 8008994:	f806 8003 	strb.w	r8, [r6, r3]
 8008998:	e75e      	b.n	8008858 <MagicFX.part.0+0x250>
 800899a:	bf00      	nop
 800899c:	10000000 	.word	0x10000000
 80089a0:	100028d4 	.word	0x100028d4
 80089a4:	100012dc 	.word	0x100012dc
 80089a8:	42fe0000 	.word	0x42fe0000
 80089ac:	00000000 	.word	0x00000000
 80089b0:	30000000 	.word	0x30000000
 80089b4:	436a3e7d 	.word	0x436a3e7d
 80089b8:	437a0000 	.word	0x437a0000
 80089bc:	2001f7e8 	.word	0x2001f7e8
 80089c0:	2000190c 	.word	0x2000190c
 80089c4:	2001f7d8 	.word	0x2001f7d8
 80089c8:	2001f7d4 	.word	0x2001f7d4
 80089cc:	20000060 	.word	0x20000060
 80089d0:	20000058 	.word	0x20000058
 80089d4:	3d61c387 	.word	0x3d61c387
 80089d8:	3ca3d70a 	.word	0x3ca3d70a
 80089dc:	3be836d4 	.word	0x3be836d4
 80089e0:	3dcccccd 	.word	0x3dcccccd
 80089e4:	40b060c2 	.word	0x40b060c2
 80089e8:	10003ec4 	.word	0x10003ec4
 80089ec:	100028cc 	.word	0x100028cc
 80089f0:	3f8c7f66 	.word	0x3f8c7f66
 80089f4:	3f733333 	.word	0x3f733333
 80089f8:	3d611e66 	.word	0x3d611e66
 80089fc:	40c90fdb 	.word	0x40c90fdb
 8008a00:	472c4400 	.word	0x472c4400
 8008a04:	2001f724 	.word	0x2001f724
 8008a08:	3f7fbe77 	.word	0x3f7fbe77
 8008a0c:	2001eddc 	.word	0x2001eddc
 8008a10:	2001f7e4 	.word	0x2001f7e4
 8008a14:	2001f7d0 	.word	0x2001f7d0

08008a18 <make_sound.constprop.0>:
make_sound.constprop.0():
 8008a18:	e92d 4f70 	stmdb	sp!, {r4, r5, r6, r8, r9, sl, fp, lr}
 8008a1c:	ed2d 8b10 	vpush	{d8-d15}
 8008a20:	4b9d      	ldr	r3, [pc, #628]	; (8008c98 <make_sound.constprop.0+0x280>)
 8008a22:	f8df b2b8 	ldr.w	fp, [pc, #696]	; 8008cdc <make_sound.constprop.0+0x2c4>
 8008a26:	781c      	ldrb	r4, [r3, #0]
 8008a28:	ed9f aa9c 	vldr	s20, [pc, #624]	; 8008c9c <make_sound.constprop.0+0x284>
 8008a2c:	eddf 9a9c 	vldr	s19, [pc, #624]	; 8008ca0 <make_sound.constprop.0+0x288>
 8008a30:	ed9f 8a9c 	vldr	s16, [pc, #624]	; 8008ca4 <make_sound.constprop.0+0x28c>
 8008a34:	eddf aa9c 	vldr	s21, [pc, #624]	; 8008ca8 <make_sound.constprop.0+0x290>
 8008a38:	b086      	sub	sp, #24
 8008a3a:	f200 73d4 	addw	r3, r0, #2004	; 0x7d4
 8008a3e:	1d05      	adds	r5, r0, #4
 8008a40:	9301      	str	r3, [sp, #4]
 8008a42:	2c00      	cmp	r4, #0
 8008a44:	d16f      	bne.n	8008b26 <make_sound.constprop.0+0x10e>
 8008a46:	4a99      	ldr	r2, [pc, #612]	; (8008cac <make_sound.constprop.0+0x294>)
 8008a48:	4b99      	ldr	r3, [pc, #612]	; (8008cb0 <make_sound.constprop.0+0x298>)
 8008a4a:	f992 2000 	ldrsb.w	r2, [r2]
 8008a4e:	ee07 2a90 	vmov	s15, r2
 8008a52:	eef8 7ae7 	vcvt.f32.s32	s15, s15
 8008a56:	f993 2000 	ldrsb.w	r2, [r3]
 8008a5a:	4b96      	ldr	r3, [pc, #600]	; (8008cb4 <make_sound.constprop.0+0x29c>)
 8008a5c:	ee87 7a8a 	vdiv.f32	s14, s15, s20
 8008a60:	eb03 0382 	add.w	r3, r3, r2, lsl #2
 8008a64:	edd3 ba00 	vldr	s23, [r3]
 8008a68:	4b93      	ldr	r3, [pc, #588]	; (8008cb8 <make_sound.constprop.0+0x2a0>)
 8008a6a:	ed8b 7a24 	vstr	s14, [fp, #144]	; 0x90
 8008a6e:	edc3 ba78 	vstr	s23, [r3, #480]	; 0x1e0
 8008a72:	eddb 7a83 	vldr	s15, [fp, #524]	; 0x20c
 8008a76:	eef5 7ac0 	vcmpe.f32	s15, #0.0
 8008a7a:	eef1 fa10 	vmrs	APSR_nzcv, fpscr
 8008a7e:	d508      	bpl.n	8008a92 <make_sound.constprop.0+0x7a>
 8008a80:	ee77 7a88 	vadd.f32	s15, s15, s16
 8008a84:	eef5 7ac0 	vcmpe.f32	s15, #0.0
 8008a88:	eef1 fa10 	vmrs	APSR_nzcv, fpscr
 8008a8c:	d4f8      	bmi.n	8008a80 <make_sound.constprop.0+0x68>
 8008a8e:	edcb 7a83 	vstr	s15, [fp, #524]	; 0x20c
 8008a92:	eef4 7ac8 	vcmpe.f32	s15, s16
 8008a96:	eef1 fa10 	vmrs	APSR_nzcv, fpscr
 8008a9a:	db08      	blt.n	8008aae <make_sound.constprop.0+0x96>
 8008a9c:	ee77 7ac8 	vsub.f32	s15, s15, s16
 8008aa0:	eef4 7ac8 	vcmpe.f32	s15, s16
 8008aa4:	eef1 fa10 	vmrs	APSR_nzcv, fpscr
 8008aa8:	daf8      	bge.n	8008a9c <make_sound.constprop.0+0x84>
 8008aaa:	edcb 7a83 	vstr	s15, [fp, #524]	; 0x20c
 8008aae:	ed9f 0a83 	vldr	s0, [pc, #524]	; 8008cbc <make_sound.constprop.0+0x2a4>
 8008ab2:	eddb 8a80 	vldr	s17, [fp, #512]	; 0x200
 8008ab6:	ee27 0a80 	vmul.f32	s0, s15, s0
 8008aba:	f004 fd5d 	bl	800d578 <lrintf>
 8008abe:	4b80      	ldr	r3, [pc, #512]	; (8008cc0 <make_sound.constprop.0+0x2a8>)
 8008ac0:	eddb 7a82 	vldr	s15, [fp, #520]	; 0x208
 8008ac4:	eddf 5a7f 	vldr	s11, [pc, #508]	; 8008cc4 <make_sound.constprop.0+0x2ac>
 8008ac8:	ed9b 6a83 	vldr	s12, [fp, #524]	; 0x20c
 8008acc:	eb03 0080 	add.w	r0, r3, r0, lsl #2
 8008ad0:	ed90 7a00 	vldr	s14, [r0]
 8008ad4:	f89b 3094 	ldrb.w	r3, [fp, #148]	; 0x94
 8008ad8:	ee28 7a87 	vmul.f32	s14, s17, s14
 8008adc:	eef7 6a00 	vmov.f32	s13, #112	; 0x3f800000  1.0
 8008ae0:	ee77 6a26 	vadd.f32	s13, s14, s13
 8008ae4:	ee67 7aa5 	vmul.f32	s15, s15, s11
 8008ae8:	ee66 baab 	vmul.f32	s23, s13, s23
 8008aec:	ee77 7a86 	vadd.f32	s15, s15, s12
 8008af0:	ed8b 7a87 	vstr	s14, [fp, #540]	; 0x21c
 8008af4:	edcb ba62 	vstr	s23, [fp, #392]	; 0x188
 8008af8:	edcb 7a83 	vstr	s15, [fp, #524]	; 0x20c
 8008afc:	2b0f      	cmp	r3, #15
 8008afe:	f202 845e 	bhi.w	800b3be <make_sound.constprop.0+0x29a6>
 8008b02:	e8df f013 	tbh	[pc, r3, lsl #1]
 8008b06:	0645      	.short	0x0645
 8008b08:	06da06ff 	.word	0x06da06ff
 8008b0c:	064d069a 	.word	0x064d069a
 8008b10:	050105fb 	.word	0x050105fb
 8008b14:	04190453 	.word	0x04190453
 8008b18:	04010404 	.word	0x04010404
 8008b1c:	03dd03f3 	.word	0x03dd03f3
 8008b20:	01bb02e3 	.word	0x01bb02e3
 8008b24:	00f1      	.short	0x00f1
 8008b26:	f8db 3048 	ldr.w	r3, [fp, #72]	; 0x48
 8008b2a:	1e5a      	subs	r2, r3, #1
 8008b2c:	2b00      	cmp	r3, #0
 8008b2e:	f8cb 2048 	str.w	r2, [fp, #72]	; 0x48
 8008b32:	dd03      	ble.n	8008b3c <make_sound.constprop.0+0x124>
 8008b34:	4b60      	ldr	r3, [pc, #384]	; (8008cb8 <make_sound.constprop.0+0x2a0>)
 8008b36:	edd3 ba78 	vldr	s23, [r3, #480]	; 0x1e0
 8008b3a:	e79a      	b.n	8008a72 <make_sound.constprop.0+0x5a>
 8008b3c:	f9bb 304c 	ldrsh.w	r3, [fp, #76]	; 0x4c
 8008b40:	2b00      	cmp	r3, #0
 8008b42:	f001 8202 	beq.w	8009f4a <make_sound.constprop.0+0x1532>
 8008b46:	f89b 3062 	ldrb.w	r3, [fp, #98]	; 0x62
 8008b4a:	b913      	cbnz	r3, 8008b52 <make_sound.constprop.0+0x13a>
 8008b4c:	f89b 3064 	ldrb.w	r3, [fp, #100]	; 0x64
 8008b50:	b3bb      	cbz	r3, 8008bc2 <make_sound.constprop.0+0x1aa>
 8008b52:	4c5d      	ldr	r4, [pc, #372]	; (8008cc8 <make_sound.constprop.0+0x2b0>)
 8008b54:	ed9f 9a5d 	vldr	s18, [pc, #372]	; 8008ccc <make_sound.constprop.0+0x2b4>
 8008b58:	eddf 8a5d 	vldr	s17, [pc, #372]	; 8008cd0 <make_sound.constprop.0+0x2b8>
 8008b5c:	f7fc f8e8 	bl	8004d30 <seq_sequence_new>
 8008b60:	2300      	movs	r3, #0
 8008b62:	f04f 527e 	mov.w	r2, #1065353216	; 0x3f800000
 8008b66:	2100      	movs	r1, #0
 8008b68:	f8cb 32b0 	str.w	r3, [fp, #688]	; 0x2b0
 8008b6c:	4699      	mov	r9, r3
 8008b6e:	f8cb 32ac 	str.w	r3, [fp, #684]	; 0x2ac
 8008b72:	f104 062c 	add.w	r6, r4, #44	; 0x2c
 8008b76:	f104 0824 	add.w	r8, r4, #36	; 0x24
 8008b7a:	f88b 1064 	strb.w	r1, [fp, #100]	; 0x64
 8008b7e:	f8cb 2284 	str.w	r2, [fp, #644]	; 0x284
 8008b82:	f8cb 2280 	str.w	r2, [fp, #640]	; 0x280
 8008b86:	f005 ffe9 	bl	800eb5c <rand>
 8008b8a:	ee07 0a90 	vmov	s15, r0
 8008b8e:	eef8 7ae7 	vcvt.f32.s32	s15, s15
 8008b92:	f846 9b04 	str.w	r9, [r6], #4
 8008b96:	ee67 7aa9 	vmul.f32	s15, s15, s19
 8008b9a:	ee67 7a89 	vmul.f32	s15, s15, s18
 8008b9e:	ee77 7aa8 	vadd.f32	s15, s15, s17
 8008ba2:	ece4 7a01 	vstmia	r4!, {s15}
 8008ba6:	ed9b 7aa0 	vldr	s14, [fp, #640]	; 0x280
 8008baa:	ee77 7a87 	vadd.f32	s15, s15, s14
 8008bae:	45a0      	cmp	r8, r4
 8008bb0:	edcb 7aa0 	vstr	s15, [fp, #640]	; 0x280
 8008bb4:	d1e7      	bne.n	8008b86 <make_sound.constprop.0+0x16e>
 8008bb6:	eef7 6a00 	vmov.f32	s13, #112	; 0x3f800000  1.0
 8008bba:	ee86 7aa7 	vdiv.f32	s14, s13, s15
 8008bbe:	ed8b 7aa0 	vstr	s14, [fp, #640]	; 0x280
 8008bc2:	f89b 3065 	ldrb.w	r3, [fp, #101]	; 0x65
 8008bc6:	b1cb      	cbz	r3, 8008bfc <make_sound.constprop.0+0x1e4>
 8008bc8:	f005 ffc8 	bl	800eb5c <rand>
 8008bcc:	ee07 0a90 	vmov	s15, r0
 8008bd0:	eef8 7ae7 	vcvt.f32.s32	s15, s15
 8008bd4:	ed9f 7a3f 	vldr	s14, [pc, #252]	; 8008cd4 <make_sound.constprop.0+0x2bc>
 8008bd8:	ed9f 0a3f 	vldr	s0, [pc, #252]	; 8008cd8 <make_sound.constprop.0+0x2c0>
 8008bdc:	ee67 7aa9 	vmul.f32	s15, s15, s19
 8008be0:	ee67 7a87 	vmul.f32	s15, s15, s14
 8008be4:	ee37 0a80 	vadd.f32	s0, s15, s0
 8008be8:	f004 fd12 	bl	800d610 <rintf>
 8008bec:	eeb5 0a40 	vcmp.f32	s0, #0.0
 8008bf0:	eef1 fa10 	vmrs	APSR_nzcv, fpscr
 8008bf4:	f04f 0300 	mov.w	r3, #0
 8008bf8:	f001 83fd 	beq.w	800a3f6 <make_sound.constprop.0+0x19de>
 8008bfc:	2300      	movs	r3, #0
 8008bfe:	f8db 2068 	ldr.w	r2, [fp, #104]	; 0x68
 8008c02:	f8cb 2084 	str.w	r2, [fp, #132]	; 0x84
 8008c06:	e9cb 3322 	strd	r3, r3, [fp, #136]	; 0x88
 8008c0a:	f04f 527e 	mov.w	r2, #1065353216	; 0x3f800000
 8008c0e:	f8cb 2080 	str.w	r2, [fp, #128]	; 0x80
 8008c12:	f89b 3095 	ldrb.w	r3, [fp, #149]	; 0x95
 8008c16:	2b00      	cmp	r3, #0
 8008c18:	f041 826e 	bne.w	800a0f8 <make_sound.constprop.0+0x16e0>
 8008c1c:	f9bb 3060 	ldrsh.w	r3, [fp, #96]	; 0x60
 8008c20:	2b00      	cmp	r3, #0
 8008c22:	f041 81a2 	bne.w	8009f6a <make_sound.constprop.0+0x1552>
 8008c26:	f99b 3096 	ldrsb.w	r3, [fp, #150]	; 0x96
 8008c2a:	2b01      	cmp	r3, #1
 8008c2c:	f001 8204 	beq.w	800a038 <make_sound.constprop.0+0x1620>
 8008c30:	2b02      	cmp	r3, #2
 8008c32:	f001 8392 	beq.w	800a35a <make_sound.constprop.0+0x1942>
 8008c36:	f9bb 204c 	ldrsh.w	r2, [fp, #76]	; 0x4c
 8008c3a:	4b1e      	ldr	r3, [pc, #120]	; (8008cb4 <make_sound.constprop.0+0x29c>)
 8008c3c:	f93b 2012 	ldrsh.w	r2, [fp, r2, lsl #1]
 8008c40:	4c1d      	ldr	r4, [pc, #116]	; (8008cb8 <make_sound.constprop.0+0x2a0>)
 8008c42:	eb03 0382 	add.w	r3, r3, r2, lsl #2
 8008c46:	681b      	ldr	r3, [r3, #0]
 8008c48:	f8c4 31e0 	str.w	r3, [r4, #480]	; 0x1e0
 8008c4c:	f005 ff86 	bl	800eb5c <rand>
 8008c50:	ee07 0a90 	vmov	s15, r0
 8008c54:	eef8 7ae7 	vcvt.f32.s32	s15, s15
 8008c58:	ed9f 7a1f 	vldr	s14, [pc, #124]	; 8008cd8 <make_sound.constprop.0+0x2c0>
 8008c5c:	f8bb 304c 	ldrh.w	r3, [fp, #76]	; 0x4c
 8008c60:	f8db 2044 	ldr.w	r2, [fp, #68]	; 0x44
 8008c64:	f8cb 2048 	str.w	r2, [fp, #72]	; 0x48
 8008c68:	ee67 7aa9 	vmul.f32	s15, s15, s19
 8008c6c:	3301      	adds	r3, #1
 8008c6e:	ee67 7a87 	vmul.f32	s15, s15, s14
 8008c72:	b21b      	sxth	r3, r3
 8008c74:	ee77 7a87 	vadd.f32	s15, s15, s14
 8008c78:	2b0f      	cmp	r3, #15
 8008c7a:	f8ab 304c 	strh.w	r3, [fp, #76]	; 0x4c
 8008c7e:	edcb 7a24 	vstr	s15, [fp, #144]	; 0x90
 8008c82:	dc02      	bgt.n	8008c8a <make_sound.constprop.0+0x272>
 8008c84:	edd4 ba78 	vldr	s23, [r4, #480]	; 0x1e0
 8008c88:	e6f3      	b.n	8008a72 <make_sound.constprop.0+0x5a>
 8008c8a:	4a0b      	ldr	r2, [pc, #44]	; (8008cb8 <make_sound.constprop.0+0x2a0>)
 8008c8c:	2300      	movs	r3, #0
 8008c8e:	edd2 ba78 	vldr	s23, [r2, #480]	; 0x1e0
 8008c92:	f8ab 304c 	strh.w	r3, [fp, #76]	; 0x4c
 8008c96:	e6ec      	b.n	8008a72 <make_sound.constprop.0+0x5a>
 8008c98:	2000005c 	.word	0x2000005c
 8008c9c:	42fe0000 	.word	0x42fe0000
 8008ca0:	30000000 	.word	0x30000000
 8008ca4:	40c90fdb 	.word	0x40c90fdb
 8008ca8:	3727c5ac 	.word	0x3727c5ac
 8008cac:	2001f7e0 	.word	0x2001f7e0
 8008cb0:	20001908 	.word	0x20001908
 8008cb4:	0800f5f4 	.word	0x0800f5f4
 8008cb8:	100010f8 	.word	0x100010f8
 8008cbc:	4322f983 	.word	0x4322f983
 8008cc0:	0800f7a0 	.word	0x0800f7a0
 8008cc4:	39156592 	.word	0x39156592
 8008cc8:	10000288 	.word	0x10000288
 8008ccc:	3f7a9fbf 	.word	0x3f7a9fbf
 8008cd0:	3a83126f 	.word	0x3a83126f
 8008cd4:	3f19999a 	.word	0x3f19999a
 8008cd8:	3ecccccd 	.word	0x3ecccccd
 8008cdc:	10000000 	.word	0x10000000
 8008ce0:	472c4400 	.word	0x472c4400
 8008ce4:	1e3ce508 	.word	0x1e3ce508
 8008ce8:	f89b 3820 	ldrb.w	r3, [fp, #2080]	; 0x820
 8008cec:	eddb caba 	vldr	s25, [fp, #744]	; 0x2e8
 8008cf0:	ed9b cabe 	vldr	s24, [fp, #760]	; 0x2f8
 8008cf4:	f8db 981c 	ldr.w	r9, [fp, #2076]	; 0x81c
 8008cf8:	ed1f 7a07 	vldr	s14, [pc, #-28]	; 8008ce0 <make_sound.constprop.0+0x2c8>
 8008cfc:	edcb bab9 	vstr	s23, [fp, #740]	; 0x2e4
 8008d00:	2b00      	cmp	r3, #0
 8008d02:	f041 8295 	bne.w	800a230 <make_sound.constprop.0+0x1818>
 8008d06:	eecb 7a87 	vdiv.f32	s15, s23, s14
 8008d0a:	eddb 8abc 	vldr	s17, [fp, #752]	; 0x2f0
 8008d0e:	ed9b babd 	vldr	s22, [fp, #756]	; 0x2f4
 8008d12:	eef4 7aea 	vcmpe.f32	s15, s21
 8008d16:	eef1 fa10 	vmrs	APSR_nzcv, fpscr
 8008d1a:	f101 8263 	bmi.w	800a1e4 <make_sound.constprop.0+0x17cc>
 8008d1e:	eeb6 7a00 	vmov.f32	s14, #96	; 0x3f000000  0.5
 8008d22:	eef4 7a47 	vcmp.f32	s15, s14
 8008d26:	eef1 fa10 	vmrs	APSR_nzcv, fpscr
 8008d2a:	bfc8      	it	gt
 8008d2c:	eef0 7a47 	vmovgt.f32	s15, s14
 8008d30:	ed1f 7a14 	vldr	s14, [pc, #-80]	; 8008ce4 <make_sound.constprop.0+0x2cc>
 8008d34:	ee77 7acb 	vsub.f32	s15, s15, s22
 8008d38:	eef4 cac7 	vcmpe.f32	s25, s14
 8008d3c:	ee3b ba27 	vadd.f32	s22, s22, s15
 8008d40:	eef1 fa10 	vmrs	APSR_nzcv, fpscr
 8008d44:	ee7b 8a28 	vadd.f32	s17, s22, s17
 8008d48:	f2c1 828a 	blt.w	800a260 <make_sound.constprop.0+0x1848>
 8008d4c:	ee7c bac7 	vsub.f32	s23, s25, s14
 8008d50:	eef7 7a00 	vmov.f32	s15, #112	; 0x3f800000  1.0
 8008d54:	ee6b ba8b 	vmul.f32	s23, s23, s22
 8008d58:	ee78 8aeb 	vsub.f32	s17, s17, s23
 8008d5c:	eef4 8ae7 	vcmpe.f32	s17, s15
 8008d60:	eef1 fa10 	vmrs	APSR_nzcv, fpscr
 8008d64:	f281 848b 	bge.w	800a67e <make_sound.constprop.0+0x1c66>
 8008d68:	f8df a35c 	ldr.w	sl, [pc, #860]	; 80090c8 <make_sound.constprop.0+0x6b0>
 8008d6c:	4bd0      	ldr	r3, [pc, #832]	; (80090b0 <make_sound.constprop.0+0x698>)
 8008d6e:	f10a 0828 	add.w	r8, sl, #40	; 0x28
 8008d72:	f109 0409 	add.w	r4, r9, #9
 8008d76:	f109 0647 	add.w	r6, r9, #71	; 0x47
 8008d7a:	eddf 7ace 	vldr	s15, [pc, #824]	; 80090b4 <make_sound.constprop.0+0x69c>
 8008d7e:	9302      	str	r3, [sp, #8]
 8008d80:	ee6b 7aa7 	vmul.f32	s15, s23, s15
 8008d84:	eeb6 0a00 	vmov.f32	s0, #96	; 0x3f000000  0.5
 8008d88:	ee87 9a8b 	vdiv.f32	s18, s15, s22
 8008d8c:	eb0a 0484 	add.w	r4, sl, r4, lsl #2
 8008d90:	eb08 0686 	add.w	r6, r8, r6, lsl #2
 8008d94:	ee39 0a40 	vsub.f32	s0, s18, s0
 8008d98:	f004 fbee 	bl	800d578 <lrintf>
 8008d9c:	ee07 0a90 	vmov	s15, r0
 8008da0:	eeb8 6ae7 	vcvt.f32.s32	s12, s15
 8008da4:	9b02      	ldr	r3, [sp, #8]
 8008da6:	f000 003f 	and.w	r0, r0, #63	; 0x3f
 8008daa:	ee39 6a46 	vsub.f32	s12, s18, s12
 8008dae:	eb03 03c0 	add.w	r3, r3, r0, lsl #3
 8008db2:	edd3 7a01 	vldr	s15, [r3, #4]
 8008db6:	edd3 6a00 	vldr	s13, [r3]
 8008dba:	ed94 7a00 	vldr	s14, [r4]
 8008dbe:	ee66 7a27 	vmul.f32	s15, s12, s15
 8008dc2:	f503 7300 	add.w	r3, r3, #512	; 0x200
 8008dc6:	ee77 7aa6 	vadd.f32	s15, s15, s13
 8008dca:	ee67 7aa8 	vmul.f32	s15, s15, s17
 8008dce:	ee77 7a87 	vadd.f32	s15, s15, s14
 8008dd2:	ece4 7a01 	vstmia	r4!, {s15}
 8008dd6:	42a6      	cmp	r6, r4
 8008dd8:	d1eb      	bne.n	8008db2 <make_sound.constprop.0+0x39a>
 8008dda:	edcb cabb 	vstr	s25, [fp, #748]	; 0x2ec
 8008dde:	f109 030c 	add.w	r3, r9, #12
 8008de2:	eb0b 0383 	add.w	r3, fp, r3, lsl #2
 8008de6:	eef6 6a00 	vmov.f32	s13, #96	; 0x3f000000  0.5
 8008dea:	ed93 7ab7 	vldr	s14, [r3, #732]	; 0x2dc
 8008dee:	ed9b 9ab7 	vldr	s18, [fp, #732]	; 0x2dc
 8008df2:	ee76 7aeb 	vsub.f32	s15, s13, s23
 8008df6:	eb0b 0289 	add.w	r2, fp, r9, lsl #2
 8008dfa:	ee37 7a27 	vadd.f32	s14, s14, s15
 8008dfe:	f1b9 0fff 	cmp.w	r9, #255	; 0xff
 8008e02:	ed83 7ab7 	vstr	s14, [r3, #732]	; 0x2dc
 8008e06:	edd2 7abf 	vldr	s15, [r2, #764]	; 0x2fc
 8008e0a:	ee77 7acc 	vsub.f32	s15, s15, s24
 8008e0e:	f109 0301 	add.w	r3, r9, #1
 8008e12:	ee67 7aa6 	vmul.f32	s15, s15, s13
 8008e16:	ee3c ca27 	vadd.f32	s24, s24, s15
 8008e1a:	ee6c 8a09 	vmul.f32	s17, s24, s18
 8008e1e:	edcb 8ab6 	vstr	s17, [fp, #728]	; 0x2d8
 8008e22:	f001 84d4 	beq.w	800a7ce <make_sound.constprop.0+0x1db6>
 8008e26:	f8cb 381c 	str.w	r3, [fp, #2076]	; 0x81c
 8008e2a:	e9db 3222 	ldrd	r3, r2, [fp, #136]	; 0x88
 8008e2e:	3201      	adds	r2, #1
 8008e30:	2b01      	cmp	r3, #1
 8008e32:	edcb babc 	vstr	s23, [fp, #752]	; 0x2f0
 8008e36:	ed8b babd 	vstr	s22, [fp, #756]	; 0x2f4
 8008e3a:	ed8b cabe 	vstr	s24, [fp, #760]	; 0x2f8
 8008e3e:	f8cb 208c 	str.w	r2, [fp, #140]	; 0x8c
 8008e42:	f040 818a 	bne.w	800915a <make_sound.constprop.0+0x742>
 8008e46:	ed9b 9a1e 	vldr	s18, [fp, #120]	; 0x78
 8008e4a:	ed9b ba1b 	vldr	s22, [fp, #108]	; 0x6c
 8008e4e:	eddb 7a1c 	vldr	s15, [fp, #112]	; 0x70
 8008e52:	ee39 ba4b 	vsub.f32	s22, s18, s22
 8008e56:	eeb4 bae7 	vcmpe.f32	s22, s15
 8008e5a:	eef1 fa10 	vmrs	APSR_nzcv, fpscr
 8008e5e:	ed8b ba1e 	vstr	s22, [fp, #120]	; 0x78
 8008e62:	f200 8182 	bhi.w	800916a <make_sound.constprop.0+0x752>
 8008e66:	2200      	movs	r2, #0
 8008e68:	2302      	movs	r3, #2
 8008e6a:	edcb 7a1e 	vstr	s15, [fp, #120]	; 0x78
 8008e6e:	eeb0 ba67 	vmov.f32	s22, s15
 8008e72:	f8cb 2084 	str.w	r2, [fp, #132]	; 0x84
 8008e76:	f8cb 3088 	str.w	r3, [fp, #136]	; 0x88
 8008e7a:	e176      	b.n	800916a <make_sound.constprop.0+0x752>
 8008e7c:	ed9b 7a6e 	vldr	s14, [fp, #440]	; 0x1b8
 8008e80:	ed9f 5a8d 	vldr	s10, [pc, #564]	; 80090b8 <make_sound.constprop.0+0x6a0>
 8008e84:	ed9f 0a8d 	vldr	s0, [pc, #564]	; 80090bc <make_sound.constprop.0+0x6a4>
 8008e88:	eddb 7a6d 	vldr	s15, [fp, #436]	; 0x1b4
 8008e8c:	eddb 5a6b 	vldr	s11, [fp, #428]	; 0x1ac
 8008e90:	ed9b 6a76 	vldr	s12, [fp, #472]	; 0x1d8
 8008e94:	eddb 6a7e 	vldr	s13, [fp, #504]	; 0x1f8
 8008e98:	ee2b 7a87 	vmul.f32	s14, s23, s14
 8008e9c:	ee67 7a85 	vmul.f32	s15, s15, s10
 8008ea0:	ee27 0a00 	vmul.f32	s0, s14, s0
 8008ea4:	ee26 6a2b 	vmul.f32	s12, s12, s23
 8008ea8:	ee77 7a80 	vadd.f32	s15, s15, s0
 8008eac:	ee66 6aab 	vmul.f32	s13, s13, s23
 8008eb0:	ee77 7aa5 	vadd.f32	s15, s15, s11
 8008eb4:	ed8b 7a6a 	vstr	s14, [fp, #424]	; 0x1a8
 8008eb8:	eef4 7ac5 	vcmpe.f32	s15, s10
 8008ebc:	eef1 fa10 	vmrs	APSR_nzcv, fpscr
 8008ec0:	edcb 7a6b 	vstr	s15, [fp, #428]	; 0x1ac
 8008ec4:	ed8b 6a72 	vstr	s12, [fp, #456]	; 0x1c8
 8008ec8:	edcb 6a7a 	vstr	s13, [fp, #488]	; 0x1e8
 8008ecc:	d508      	bpl.n	8008ee0 <make_sound.constprop.0+0x4c8>
 8008ece:	ee77 7a88 	vadd.f32	s15, s15, s16
 8008ed2:	eef5 7ac0 	vcmpe.f32	s15, #0.0
 8008ed6:	eef1 fa10 	vmrs	APSR_nzcv, fpscr
 8008eda:	d4f8      	bmi.n	8008ece <make_sound.constprop.0+0x4b6>
 8008edc:	edcb 7a6b 	vstr	s15, [fp, #428]	; 0x1ac
 8008ee0:	eef4 7ac8 	vcmpe.f32	s15, s16
 8008ee4:	eef1 fa10 	vmrs	APSR_nzcv, fpscr
 8008ee8:	db08      	blt.n	8008efc <make_sound.constprop.0+0x4e4>
 8008eea:	ee77 7ac8 	vsub.f32	s15, s15, s16
 8008eee:	eef4 7ac8 	vcmpe.f32	s15, s16
 8008ef2:	eef1 fa10 	vmrs	APSR_nzcv, fpscr
 8008ef6:	daf8      	bge.n	8008eea <make_sound.constprop.0+0x4d2>
 8008ef8:	edcb 7a6b 	vstr	s15, [fp, #428]	; 0x1ac
 8008efc:	ed9f 0a70 	vldr	s0, [pc, #448]	; 80090c0 <make_sound.constprop.0+0x6a8>
 8008f00:	eddb 8a68 	vldr	s17, [fp, #416]	; 0x1a0
 8008f04:	ee27 0a80 	vmul.f32	s0, s15, s0
 8008f08:	f004 fb36 	bl	800d578 <lrintf>
 8008f0c:	4b6d      	ldr	r3, [pc, #436]	; (80090c4 <make_sound.constprop.0+0x6ac>)
 8008f0e:	ed9b 0a65 	vldr	s0, [fp, #404]	; 0x194
 8008f12:	eddb 7a62 	vldr	s15, [fp, #392]	; 0x188
 8008f16:	ed9f 6a69 	vldr	s12, [pc, #420]	; 80090bc <make_sound.constprop.0+0x6a4>
 8008f1a:	eddb 6a63 	vldr	s13, [fp, #396]	; 0x18c
 8008f1e:	eb03 0080 	add.w	r0, r3, r0, lsl #2
 8008f22:	ed90 7a00 	vldr	s14, [r0]
 8008f26:	ee28 7a87 	vmul.f32	s14, s17, s14
 8008f2a:	ee67 7a86 	vmul.f32	s15, s15, s12
 8008f2e:	ee27 0a00 	vmul.f32	s0, s14, s0
 8008f32:	ed8b 7a6f 	vstr	s14, [fp, #444]	; 0x1bc
 8008f36:	ee77 7a80 	vadd.f32	s15, s15, s0
 8008f3a:	ee77 7aa6 	vadd.f32	s15, s15, s13
 8008f3e:	eef5 7ac0 	vcmpe.f32	s15, #0.0
 8008f42:	eef1 fa10 	vmrs	APSR_nzcv, fpscr
 8008f46:	edcb 7a63 	vstr	s15, [fp, #396]	; 0x18c
 8008f4a:	d508      	bpl.n	8008f5e <make_sound.constprop.0+0x546>
 8008f4c:	ee77 7a88 	vadd.f32	s15, s15, s16
 8008f50:	eef5 7ac0 	vcmpe.f32	s15, #0.0
 8008f54:	eef1 fa10 	vmrs	APSR_nzcv, fpscr
 8008f58:	d4f8      	bmi.n	8008f4c <make_sound.constprop.0+0x534>
 8008f5a:	edcb 7a63 	vstr	s15, [fp, #396]	; 0x18c
 8008f5e:	eef4 7ac8 	vcmpe.f32	s15, s16
 8008f62:	eef1 fa10 	vmrs	APSR_nzcv, fpscr
 8008f66:	db08      	blt.n	8008f7a <make_sound.constprop.0+0x562>
 8008f68:	ee77 7ac8 	vsub.f32	s15, s15, s16
 8008f6c:	eef4 7ac8 	vcmpe.f32	s15, s16
 8008f70:	eef1 fa10 	vmrs	APSR_nzcv, fpscr
 8008f74:	daf8      	bge.n	8008f68 <make_sound.constprop.0+0x550>
 8008f76:	edcb 7a63 	vstr	s15, [fp, #396]	; 0x18c
 8008f7a:	ed9f 0a51 	vldr	s0, [pc, #324]	; 80090c0 <make_sound.constprop.0+0x6a8>
 8008f7e:	eddb 8a60 	vldr	s17, [fp, #384]	; 0x180
 8008f82:	ee27 0a80 	vmul.f32	s0, s15, s0
 8008f86:	f004 faf7 	bl	800d578 <lrintf>
 8008f8a:	ed9f 7a4b 	vldr	s14, [pc, #300]	; 80090b8 <make_sound.constprop.0+0x6a0>
 8008f8e:	eddb 7a7a 	vldr	s15, [fp, #488]	; 0x1e8
 8008f92:	ed9f 6a4a 	vldr	s12, [pc, #296]	; 80090bc <make_sound.constprop.0+0x6a4>
 8008f96:	ed9b 0a7d 	vldr	s0, [fp, #500]	; 0x1f4
 8008f9a:	4b4a      	ldr	r3, [pc, #296]	; (80090c4 <make_sound.constprop.0+0x6ac>)
 8008f9c:	eddb 6a7b 	vldr	s13, [fp, #492]	; 0x1ec
 8008fa0:	ee20 0a07 	vmul.f32	s0, s0, s14
 8008fa4:	ee67 7a86 	vmul.f32	s15, s15, s12
 8008fa8:	eb03 0080 	add.w	r0, r3, r0, lsl #2
 8008fac:	ee77 7a80 	vadd.f32	s15, s15, s0
 8008fb0:	ed90 7a00 	vldr	s14, [r0]
 8008fb4:	ee77 7aa6 	vadd.f32	s15, s15, s13
 8008fb8:	ee27 7a28 	vmul.f32	s14, s14, s17
 8008fbc:	eef5 7ac0 	vcmpe.f32	s15, #0.0
 8008fc0:	eef1 fa10 	vmrs	APSR_nzcv, fpscr
 8008fc4:	ed8b 7a67 	vstr	s14, [fp, #412]	; 0x19c
 8008fc8:	edcb 7a7b 	vstr	s15, [fp, #492]	; 0x1ec
 8008fcc:	d508      	bpl.n	8008fe0 <make_sound.constprop.0+0x5c8>
 8008fce:	ee77 7a88 	vadd.f32	s15, s15, s16
 8008fd2:	eef5 7ac0 	vcmpe.f32	s15, #0.0
 8008fd6:	eef1 fa10 	vmrs	APSR_nzcv, fpscr
 8008fda:	d4f8      	bmi.n	8008fce <make_sound.constprop.0+0x5b6>
 8008fdc:	edcb 7a7b 	vstr	s15, [fp, #492]	; 0x1ec
 8008fe0:	eef4 7ac8 	vcmpe.f32	s15, s16
 8008fe4:	eef1 fa10 	vmrs	APSR_nzcv, fpscr
 8008fe8:	db08      	blt.n	8008ffc <make_sound.constprop.0+0x5e4>
 8008fea:	ee77 7ac8 	vsub.f32	s15, s15, s16
 8008fee:	eef4 7ac8 	vcmpe.f32	s15, s16
 8008ff2:	eef1 fa10 	vmrs	APSR_nzcv, fpscr
 8008ff6:	daf8      	bge.n	8008fea <make_sound.constprop.0+0x5d2>
 8008ff8:	edcb 7a7b 	vstr	s15, [fp, #492]	; 0x1ec
 8008ffc:	ed9f 0a30 	vldr	s0, [pc, #192]	; 80090c0 <make_sound.constprop.0+0x6a8>
 8009000:	eddb 8a78 	vldr	s17, [fp, #480]	; 0x1e0
 8009004:	ee27 0a80 	vmul.f32	s0, s15, s0
 8009008:	f004 fab6 	bl	800d578 <lrintf>
 800900c:	4b2d      	ldr	r3, [pc, #180]	; (80090c4 <make_sound.constprop.0+0x6ac>)
 800900e:	ed9b 0a75 	vldr	s0, [fp, #468]	; 0x1d4
 8009012:	eddb 7a72 	vldr	s15, [fp, #456]	; 0x1c8
 8009016:	ed9f 6a29 	vldr	s12, [pc, #164]	; 80090bc <make_sound.constprop.0+0x6a4>
 800901a:	eddb 6a73 	vldr	s13, [fp, #460]	; 0x1cc
 800901e:	eb03 0080 	add.w	r0, r3, r0, lsl #2
 8009022:	ed90 7a00 	vldr	s14, [r0]
 8009026:	ee28 7a87 	vmul.f32	s14, s17, s14
 800902a:	ee67 7a86 	vmul.f32	s15, s15, s12
 800902e:	ee27 0a00 	vmul.f32	s0, s14, s0
 8009032:	ed8b 7a7f 	vstr	s14, [fp, #508]	; 0x1fc
 8009036:	ee77 7a80 	vadd.f32	s15, s15, s0
 800903a:	ee77 7aa6 	vadd.f32	s15, s15, s13
 800903e:	eef5 7ac0 	vcmpe.f32	s15, #0.0
 8009042:	eef1 fa10 	vmrs	APSR_nzcv, fpscr
 8009046:	edcb 7a73 	vstr	s15, [fp, #460]	; 0x1cc
 800904a:	d508      	bpl.n	800905e <make_sound.constprop.0+0x646>
 800904c:	ee77 7a88 	vadd.f32	s15, s15, s16
 8009050:	eef5 7ac0 	vcmpe.f32	s15, #0.0
 8009054:	eef1 fa10 	vmrs	APSR_nzcv, fpscr
 8009058:	d4f8      	bmi.n	800904c <make_sound.constprop.0+0x634>
 800905a:	edcb 7a73 	vstr	s15, [fp, #460]	; 0x1cc
 800905e:	eef4 7ac8 	vcmpe.f32	s15, s16
 8009062:	eef1 fa10 	vmrs	APSR_nzcv, fpscr
 8009066:	db08      	blt.n	800907a <make_sound.constprop.0+0x662>
 8009068:	ee77 7ac8 	vsub.f32	s15, s15, s16
 800906c:	eef4 7ac8 	vcmpe.f32	s15, s16
 8009070:	eef1 fa10 	vmrs	APSR_nzcv, fpscr
 8009074:	daf8      	bge.n	8009068 <make_sound.constprop.0+0x650>
 8009076:	edcb 7a73 	vstr	s15, [fp, #460]	; 0x1cc
 800907a:	ed9f 0a11 	vldr	s0, [pc, #68]	; 80090c0 <make_sound.constprop.0+0x6a8>
 800907e:	ed9b ba70 	vldr	s22, [fp, #448]	; 0x1c0
 8009082:	ee27 0a80 	vmul.f32	s0, s15, s0
 8009086:	f004 fa77 	bl	800d578 <lrintf>
 800908a:	4b0e      	ldr	r3, [pc, #56]	; (80090c4 <make_sound.constprop.0+0x6ac>)
 800908c:	ed9b 9a67 	vldr	s18, [fp, #412]	; 0x19c
 8009090:	eb03 0080 	add.w	r0, r3, r0, lsl #2
 8009094:	edd0 7a00 	vldr	s15, [r0]
 8009098:	ee6b 7a27 	vmul.f32	s15, s22, s15
 800909c:	eef6 8a00 	vmov.f32	s17, #96	; 0x3f000000  0.5
 80090a0:	ee37 9a89 	vadd.f32	s18, s15, s18
 80090a4:	edcb 7a77 	vstr	s15, [fp, #476]	; 0x1dc
 80090a8:	ee69 8a28 	vmul.f32	s17, s18, s17
 80090ac:	e04d      	b.n	800914a <make_sound.constprop.0+0x732>
 80090ae:	bf00      	nop
 80090b0:	08014ea8 	.word	0x08014ea8
 80090b4:	42800000 	.word	0x42800000
 80090b8:	00000000 	.word	0x00000000
 80090bc:	39156592 	.word	0x39156592
 80090c0:	4322f983 	.word	0x4322f983
 80090c4:	0800f7a0 	.word	0x0800f7a0
 80090c8:	100002d8 	.word	0x100002d8
 80090cc:	48a5      	ldr	r0, [pc, #660]	; (8009364 <make_sound.constprop.0+0x94c>)
 80090ce:	4ca6      	ldr	r4, [pc, #664]	; (8009368 <make_sound.constprop.0+0x950>)
 80090d0:	f7fb fdc4 	bl	8004c5c <drifter_nextSample>
 80090d4:	eeb7 9a00 	vmov.f32	s18, #112	; 0x3f800000  1.0
 80090d8:	ee30 0a09 	vadd.f32	s0, s0, s18
 80090dc:	ed94 7a00 	vldr	s14, [r4]
 80090e0:	48a2      	ldr	r0, [pc, #648]	; (800936c <make_sound.constprop.0+0x954>)
 80090e2:	ee20 7a07 	vmul.f32	s14, s0, s14
 80090e6:	eef3 8a09 	vmov.f32	s17, #57	; 0x41c80000  25.0
 80090ea:	ee37 7a28 	vadd.f32	s14, s14, s17
 80090ee:	ed8b 7a62 	vstr	s14, [fp, #392]	; 0x188
 80090f2:	f7fb fdb3 	bl	8004c5c <drifter_nextSample>
 80090f6:	ed94 7a00 	vldr	s14, [r4]
 80090fa:	489d      	ldr	r0, [pc, #628]	; (8009370 <make_sound.constprop.0+0x958>)
 80090fc:	ee30 0a09 	vadd.f32	s0, s0, s18
 8009100:	ee20 7a07 	vmul.f32	s14, s0, s14
 8009104:	ee37 7a28 	vadd.f32	s14, s14, s17
 8009108:	ed8b 7a6a 	vstr	s14, [fp, #424]	; 0x1a8
 800910c:	f7fb fda6 	bl	8004c5c <drifter_nextSample>
 8009110:	edd4 7a00 	vldr	s15, [r4]
 8009114:	4897      	ldr	r0, [pc, #604]	; (8009374 <make_sound.constprop.0+0x95c>)
 8009116:	ee30 0a09 	vadd.f32	s0, s0, s18
 800911a:	ee60 7a27 	vmul.f32	s15, s0, s15
 800911e:	ee77 7aa8 	vadd.f32	s15, s15, s17
 8009122:	edcb 7a72 	vstr	s15, [fp, #456]	; 0x1c8
 8009126:	f7f7 ff9b 	bl	8001060 <MorphingSaw_SampleCompute>
 800912a:	4893      	ldr	r0, [pc, #588]	; (8009378 <make_sound.constprop.0+0x960>)
 800912c:	ed9f 9a93 	vldr	s18, [pc, #588]	; 800937c <make_sound.constprop.0+0x964>
 8009130:	eef0 4a40 	vmov.f32	s9, s0
 8009134:	f7f7 ff94 	bl	8001060 <MorphingSaw_SampleCompute>
 8009138:	4891      	ldr	r0, [pc, #580]	; (8009380 <make_sound.constprop.0+0x968>)
 800913a:	ee74 4a80 	vadd.f32	s9, s9, s0
 800913e:	f7f7 ff8f 	bl	8001060 <MorphingSaw_SampleCompute>
 8009142:	ee34 0a80 	vadd.f32	s0, s9, s0
 8009146:	ee60 8a09 	vmul.f32	s17, s0, s18
 800914a:	e9db 3222 	ldrd	r3, r2, [fp, #136]	; 0x88
 800914e:	3201      	adds	r2, #1
 8009150:	2b01      	cmp	r3, #1
 8009152:	f8cb 208c 	str.w	r2, [fp, #140]	; 0x8c
 8009156:	f43f ae76 	beq.w	8008e46 <make_sound.constprop.0+0x42e>
 800915a:	2b03      	cmp	r3, #3
 800915c:	f000 8612 	beq.w	8009d84 <make_sound.constprop.0+0x136c>
 8009160:	2b00      	cmp	r3, #0
 8009162:	f000 85ee 	beq.w	8009d42 <make_sound.constprop.0+0x132a>
 8009166:	ed9b ba1e 	vldr	s22, [fp, #120]	; 0x78
 800916a:	eddb 7a9b 	vldr	s15, [fp, #620]	; 0x26c
 800916e:	ed8b ba1f 	vstr	s22, [fp, #124]	; 0x7c
 8009172:	eef5 7ac0 	vcmpe.f32	s15, #0.0
 8009176:	eef1 fa10 	vmrs	APSR_nzcv, fpscr
 800917a:	d508      	bpl.n	800918e <make_sound.constprop.0+0x776>
 800917c:	ee77 7a88 	vadd.f32	s15, s15, s16
 8009180:	eef5 7ac0 	vcmpe.f32	s15, #0.0
 8009184:	eef1 fa10 	vmrs	APSR_nzcv, fpscr
 8009188:	d4f8      	bmi.n	800917c <make_sound.constprop.0+0x764>
 800918a:	edcb 7a9b 	vstr	s15, [fp, #620]	; 0x26c
 800918e:	eef4 7ac8 	vcmpe.f32	s15, s16
 8009192:	eef1 fa10 	vmrs	APSR_nzcv, fpscr
 8009196:	db08      	blt.n	80091aa <make_sound.constprop.0+0x792>
 8009198:	ee77 7ac8 	vsub.f32	s15, s15, s16
 800919c:	eef4 7ac8 	vcmpe.f32	s15, s16
 80091a0:	eef1 fa10 	vmrs	APSR_nzcv, fpscr
 80091a4:	daf8      	bge.n	8009198 <make_sound.constprop.0+0x780>
 80091a6:	edcb 7a9b 	vstr	s15, [fp, #620]	; 0x26c
 80091aa:	ed9f 0a76 	vldr	s0, [pc, #472]	; 8009384 <make_sound.constprop.0+0x96c>
 80091ae:	eddb ba98 	vldr	s23, [fp, #608]	; 0x260
 80091b2:	ee27 0a80 	vmul.f32	s0, s15, s0
 80091b6:	f004 f9df 	bl	800d578 <lrintf>
 80091ba:	4b73      	ldr	r3, [pc, #460]	; (8009388 <make_sound.constprop.0+0x970>)
 80091bc:	eddb 7a9a 	vldr	s15, [fp, #616]	; 0x268
 80091c0:	ed9f 6a72 	vldr	s12, [pc, #456]	; 800938c <make_sound.constprop.0+0x974>
 80091c4:	eddb 6a9b 	vldr	s13, [fp, #620]	; 0x26c
 80091c8:	ed9b 0a24 	vldr	s0, [fp, #144]	; 0x90
 80091cc:	eb03 0080 	add.w	r0, r3, r0, lsl #2
 80091d0:	ed90 7a00 	vldr	s14, [r0]
 80091d4:	4b6e      	ldr	r3, [pc, #440]	; (8009390 <make_sound.constprop.0+0x978>)
 80091d6:	ee2b 7a87 	vmul.f32	s14, s23, s14
 80091da:	eeb7 9a00 	vmov.f32	s18, #112	; 0x3f800000  1.0
 80091de:	ee37 9a09 	vadd.f32	s18, s14, s18
 80091e2:	ee67 7a86 	vmul.f32	s15, s15, s12
 80091e6:	ee29 9a0b 	vmul.f32	s18, s18, s22
 80091ea:	ee77 7aa6 	vadd.f32	s15, s15, s13
 80091ee:	ee29 9a00 	vmul.f32	s18, s18, s0
 80091f2:	781c      	ldrb	r4, [r3, #0]
 80091f4:	ed8b 7a9f 	vstr	s14, [fp, #636]	; 0x27c
 80091f8:	ee29 9a28 	vmul.f32	s18, s18, s17
 80091fc:	edcb 7a9b 	vstr	s15, [fp, #620]	; 0x26c
 8009200:	b134      	cbz	r4, 8009210 <make_sound.constprop.0+0x7f8>
 8009202:	f8db 208c 	ldr.w	r2, [fp, #140]	; 0x8c
 8009206:	f8db 3050 	ldr.w	r3, [fp, #80]	; 0x50
 800920a:	429a      	cmp	r2, r3
 800920c:	f080 85d1 	bcs.w	8009db2 <make_sound.constprop.0+0x139a>
 8009210:	f89b 3095 	ldrb.w	r3, [fp, #149]	; 0x95
 8009214:	b93b      	cbnz	r3, 8009226 <make_sound.constprop.0+0x80e>
 8009216:	eddb 8a88 	vldr	s17, [fp, #544]	; 0x220
 800921a:	eef5 8a40 	vcmp.f32	s17, #0.0
 800921e:	eef1 fa10 	vmrs	APSR_nzcv, fpscr
 8009222:	f040 8607 	bne.w	8009e34 <make_sound.constprop.0+0x141c>
 8009226:	eddb 8a90 	vldr	s17, [fp, #576]	; 0x240
 800922a:	eef5 8a40 	vcmp.f32	s17, #0.0
 800922e:	eef1 fa10 	vmrs	APSR_nzcv, fpscr
 8009232:	f040 8513 	bne.w	8009c5c <make_sound.constprop.0+0x1244>
 8009236:	4857      	ldr	r0, [pc, #348]	; (8009394 <make_sound.constprop.0+0x97c>)
 8009238:	eeb0 0a49 	vmov.f32	s0, s18
 800923c:	f7f7 fdd8 	bl	8000df0 <SVF_calcSample>
 8009240:	4855      	ldr	r0, [pc, #340]	; (8009398 <make_sound.constprop.0+0x980>)
 8009242:	eef0 8a40 	vmov.f32	s17, s0
 8009246:	eeb0 0a49 	vmov.f32	s0, s18
 800924a:	f7f7 fdd1 	bl	8000df0 <SVF_calcSample>
 800924e:	f89b 3098 	ldrb.w	r3, [fp, #152]	; 0x98
 8009252:	ee38 0a80 	vadd.f32	s0, s17, s0
 8009256:	eef6 8a00 	vmov.f32	s17, #96	; 0x3f000000  0.5
 800925a:	ee60 8a28 	vmul.f32	s17, s0, s17
 800925e:	2b00      	cmp	r3, #0
 8009260:	f040 84b4 	bne.w	8009bcc <make_sound.constprop.0+0x11b4>
 8009264:	f89b 3099 	ldrb.w	r3, [fp, #153]	; 0x99
 8009268:	2b00      	cmp	r3, #0
 800926a:	f040 8415 	bne.w	8009a98 <make_sound.constprop.0+0x1080>
 800926e:	f89b 3097 	ldrb.w	r3, [fp, #151]	; 0x97
 8009272:	eeb0 0a68 	vmov.f32	s0, s17
 8009276:	2b00      	cmp	r3, #0
 8009278:	f040 83dd 	bne.w	8009a36 <make_sound.constprop.0+0x101e>
 800927c:	eef7 7a00 	vmov.f32	s15, #112	; 0x3f800000  1.0
 8009280:	eef4 8ae7 	vcmpe.f32	s17, s15
 8009284:	eef1 fa10 	vmrs	APSR_nzcv, fpscr
 8009288:	f340 83c0 	ble.w	8009a0c <make_sound.constprop.0+0xff4>
 800928c:	f647 72ff 	movw	r2, #32767	; 0x7fff
 8009290:	eef7 7a00 	vmov.f32	s15, #112	; 0x3f800000  1.0
 8009294:	eeb4 0ae7 	vcmpe.f32	s0, s15
 8009298:	eef1 fa10 	vmrs	APSR_nzcv, fpscr
 800929c:	f340 83a1 	ble.w	80099e2 <make_sound.constprop.0+0xfca>
 80092a0:	f647 73ff 	movw	r3, #32767	; 0x7fff
 80092a4:	f825 3c02 	strh.w	r3, [r5, #-2]
 80092a8:	9b01      	ldr	r3, [sp, #4]
 80092aa:	f825 2c04 	strh.w	r2, [r5, #-4]
 80092ae:	3504      	adds	r5, #4
 80092b0:	42ab      	cmp	r3, r5
 80092b2:	f47f abc6 	bne.w	8008a42 <make_sound.constprop.0+0x2a>
 80092b6:	b006      	add	sp, #24
 80092b8:	ecbd 8b10 	vpop	{d8-d15}
 80092bc:	e8bd 8f70 	ldmia.w	sp!, {r4, r5, r6, r8, r9, sl, fp, pc}
 80092c0:	4828      	ldr	r0, [pc, #160]	; (8009364 <make_sound.constprop.0+0x94c>)
 80092c2:	f7fb fccb 	bl	8004c5c <drifter_nextSample>
 80092c6:	eef7 8a00 	vmov.f32	s17, #112	; 0x3f800000  1.0
 80092ca:	ee30 0a28 	vadd.f32	s0, s0, s17
 80092ce:	4827      	ldr	r0, [pc, #156]	; (800936c <make_sound.constprop.0+0x954>)
 80092d0:	ee60 7a2b 	vmul.f32	s15, s0, s23
 80092d4:	edcb 7a6a 	vstr	s15, [fp, #424]	; 0x1a8
 80092d8:	f7fb fcc0 	bl	8004c5c <drifter_nextSample>
 80092dc:	ee30 0a28 	vadd.f32	s0, s0, s17
 80092e0:	4824      	ldr	r0, [pc, #144]	; (8009374 <make_sound.constprop.0+0x95c>)
 80092e2:	ee60 6a2b 	vmul.f32	s13, s0, s23
 80092e6:	edcb 6a72 	vstr	s13, [fp, #456]	; 0x1c8
 80092ea:	e71c      	b.n	8009126 <make_sound.constprop.0+0x70e>
 80092ec:	eddf 7a2b 	vldr	s15, [pc, #172]	; 800939c <make_sound.constprop.0+0x984>
 80092f0:	4820      	ldr	r0, [pc, #128]	; (8009374 <make_sound.constprop.0+0x95c>)
 80092f2:	eef7 6a08 	vmov.f32	s13, #120	; 0x3fc00000  1.5
 80092f6:	ee6b 7aa7 	vmul.f32	s15, s23, s15
 80092fa:	ee6b 6aa6 	vmul.f32	s13, s23, s13
 80092fe:	edcb 7a6a 	vstr	s15, [fp, #424]	; 0x1a8
 8009302:	edcb 6a72 	vstr	s13, [fp, #456]	; 0x1c8
 8009306:	e70e      	b.n	8009126 <make_sound.constprop.0+0x70e>
 8009308:	eddf 7a25 	vldr	s15, [pc, #148]	; 80093a0 <make_sound.constprop.0+0x988>
 800930c:	e7f0      	b.n	80092f0 <make_sound.constprop.0+0x8d8>
 800930e:	eef7 6a08 	vmov.f32	s13, #120	; 0x3fc00000  1.5
 8009312:	ee6b 6aa6 	vmul.f32	s13, s23, s13
 8009316:	4817      	ldr	r0, [pc, #92]	; (8009374 <make_sound.constprop.0+0x95c>)
 8009318:	edcb 6a6a 	vstr	s13, [fp, #424]	; 0x1a8
 800931c:	f7f7 fea0 	bl	8001060 <MorphingSaw_SampleCompute>
 8009320:	4815      	ldr	r0, [pc, #84]	; (8009378 <make_sound.constprop.0+0x960>)
 8009322:	eef0 8a40 	vmov.f32	s17, s0
 8009326:	f7f7 fe9b 	bl	8001060 <MorphingSaw_SampleCompute>
 800932a:	ee38 0a80 	vadd.f32	s0, s17, s0
 800932e:	eeb6 9a00 	vmov.f32	s18, #96	; 0x3f000000  0.5
 8009332:	ee60 8a09 	vmul.f32	s17, s0, s18
 8009336:	e708      	b.n	800914a <make_sound.constprop.0+0x732>
 8009338:	eddb 8a60 	vldr	s17, [fp, #384]	; 0x180
 800933c:	f005 fc0e 	bl	800eb5c <rand>
 8009340:	ee07 0a90 	vmov	s15, r0
 8009344:	eeb8 9ae7 	vcvt.f32.s32	s18, s15
 8009348:	ed9f 7a16 	vldr	s14, [pc, #88]	; 80093a4 <make_sound.constprop.0+0x98c>
 800934c:	eddf 7a16 	vldr	s15, [pc, #88]	; 80093a8 <make_sound.constprop.0+0x990>
 8009350:	ee29 9a29 	vmul.f32	s18, s18, s19
 8009354:	ee29 9a07 	vmul.f32	s18, s18, s14
 8009358:	ee39 9a67 	vsub.f32	s18, s18, s15
 800935c:	ee69 8a28 	vmul.f32	s17, s18, s17
 8009360:	e6f3      	b.n	800914a <make_sound.constprop.0+0x732>
 8009362:	bf00      	nop
 8009364:	1000009c 	.word	0x1000009c
 8009368:	20000024 	.word	0x20000024
 800936c:	100000c8 	.word	0x100000c8
 8009370:	100000f4 	.word	0x100000f4
 8009374:	10000180 	.word	0x10000180
 8009378:	100001a0 	.word	0x100001a0
 800937c:	3ea8f5c3 	.word	0x3ea8f5c3
 8009380:	100001c0 	.word	0x100001c0
 8009384:	4322f983 	.word	0x4322f983
 8009388:	0800f7a0 	.word	0x0800f7a0
 800938c:	39156592 	.word	0x39156592
 8009390:	2000005c 	.word	0x2000005c
 8009394:	10000140 	.word	0x10000140
 8009398:	10000160 	.word	0x10000160
 800939c:	3f9837b5 	.word	0x3f9837b5
 80093a0:	3fa147ae 	.word	0x3fa147ae
 80093a4:	3fcccccd 	.word	0x3fcccccd
 80093a8:	3f4ccccd 	.word	0x3f4ccccd
 80093ac:	4cee      	ldr	r4, [pc, #952]	; (8009768 <make_sound.constprop.0+0xd50>)
 80093ae:	f89b 3d7c 	ldrb.w	r3, [fp, #3452]	; 0xd7c
 80093b2:	edd4 8a05 	vldr	s17, [r4, #20]
 80093b6:	edd4 ca0b 	vldr	s25, [r4, #44]	; 0x2c
 80093ba:	f8db 6d74 	ldr.w	r6, [fp, #3444]	; 0xd74
 80093be:	edc4 ba03 	vstr	s23, [r4, #12]
 80093c2:	2b00      	cmp	r3, #0
 80093c4:	f040 86de 	bne.w	800a184 <make_sound.constprop.0+0x176c>
 80093c8:	ed94 7a04 	vldr	s14, [r4, #16]
 80093cc:	ed9f 5ae7 	vldr	s10, [pc, #924]	; 800976c <make_sound.constprop.0+0xd54>
 80093d0:	ed94 6a08 	vldr	s12, [r4, #32]
 80093d4:	ed94 9a07 	vldr	s18, [r4, #28]
 80093d8:	edd4 6a09 	vldr	s13, [r4, #36]	; 0x24
 80093dc:	edd4 da0a 	vldr	s27, [r4, #40]	; 0x28
 80093e0:	f8db 8d78 	ldr.w	r8, [fp, #3448]	; 0xd78
 80093e4:	eef7 5a00 	vmov.f32	s11, #112	; 0x3f800000  1.0
 80093e8:	ee37 7a25 	vadd.f32	s14, s14, s11
 80093ec:	eef6 7a00 	vmov.f32	s15, #96	; 0x3f000000  0.5
 80093f0:	ee67 7a27 	vmul.f32	s15, s14, s15
 80093f4:	ee8b 7a85 	vdiv.f32	s14, s23, s10
 80093f8:	ee75 5ac6 	vsub.f32	s11, s11, s12
 80093fc:	eeb4 7aea 	vcmpe.f32	s14, s21
 8009400:	eef1 fa10 	vmrs	APSR_nzcv, fpscr
 8009404:	f100 86ba 	bmi.w	800a17c <make_sound.constprop.0+0x1764>
 8009408:	eeb6 5a00 	vmov.f32	s10, #96	; 0x3f000000  0.5
 800940c:	eeb4 7a45 	vcmp.f32	s14, s10
 8009410:	eef1 fa10 	vmrs	APSR_nzcv, fpscr
 8009414:	bfc8      	it	gt
 8009416:	eeb0 7a45 	vmovgt.f32	s14, s10
 800941a:	eeb4 6a67 	vcmp.f32	s12, s15
 800941e:	eef1 fa10 	vmrs	APSR_nzcv, fpscr
 8009422:	bfc8      	it	gt
 8009424:	eef0 7a46 	vmovgt.f32	s15, s12
 8009428:	eef4 7a65 	vcmp.f32	s15, s11
 800942c:	eef1 fa10 	vmrs	APSR_nzcv, fpscr
 8009430:	ed9f 5acf 	vldr	s10, [pc, #828]	; 8009770 <make_sound.constprop.0+0xd58>
 8009434:	ee77 ba46 	vsub.f32	s23, s14, s12
 8009438:	bfc8      	it	gt
 800943a:	eef0 7a65 	vmovgt.f32	s15, s11
 800943e:	ee77 7ae6 	vsub.f32	s15, s15, s13
 8009442:	ee76 ba2b 	vadd.f32	s23, s12, s23
 8009446:	eef4 8ac5 	vcmpe.f32	s17, s10
 800944a:	eef1 fa10 	vmrs	APSR_nzcv, fpscr
 800944e:	ee36 baa7 	vadd.f32	s22, s13, s15
 8009452:	ee3b 9a89 	vadd.f32	s18, s23, s18
 8009456:	f2c0 8712 	blt.w	800a27e <make_sound.constprop.0+0x1866>
 800945a:	ee38 dac5 	vsub.f32	s26, s17, s10
 800945e:	ee2d da2b 	vmul.f32	s26, s26, s23
 8009462:	ee39 9a4d 	vsub.f32	s18, s18, s26
 8009466:	f1b8 0f00 	cmp.w	r8, #0
 800946a:	f000 87f0 	beq.w	800a44e <make_sound.constprop.0+0x1a36>
 800946e:	eef7 7a00 	vmov.f32	s15, #112	; 0x3f800000  1.0
 8009472:	eeb4 9ae7 	vcmpe.f32	s18, s15
 8009476:	eef1 fa10 	vmrs	APSR_nzcv, fpscr
 800947a:	f281 8385 	bge.w	800ab88 <make_sound.constprop.0+0x2170>
 800947e:	f106 0247 	add.w	r2, r6, #71	; 0x47
 8009482:	4bbc      	ldr	r3, [pc, #752]	; (8009774 <make_sound.constprop.0+0xd5c>)
 8009484:	f8df 9300 	ldr.w	r9, [pc, #768]	; 8009788 <make_sound.constprop.0+0xd70>
 8009488:	9202      	str	r2, [sp, #8]
 800948a:	f106 0a0c 	add.w	sl, r6, #12
 800948e:	eddf 7aba 	vldr	s15, [pc, #744]	; 8009778 <make_sound.constprop.0+0xd60>
 8009492:	9303      	str	r3, [sp, #12]
 8009494:	ee6d 7a27 	vmul.f32	s15, s26, s15
 8009498:	eeb6 0a00 	vmov.f32	s0, #96	; 0x3f000000  0.5
 800949c:	ee87 9aab 	vdiv.f32	s18, s15, s23
 80094a0:	ee39 0a40 	vsub.f32	s0, s18, s0
 80094a4:	f004 f868 	bl	800d578 <lrintf>
 80094a8:	ee07 0a90 	vmov	s15, r0
 80094ac:	9b02      	ldr	r3, [sp, #8]
 80094ae:	eeb8 6ae7 	vcvt.f32.s32	s12, s15
 80094b2:	eb09 0983 	add.w	r9, r9, r3, lsl #2
 80094b6:	9b03      	ldr	r3, [sp, #12]
 80094b8:	f000 003f 	and.w	r0, r0, #63	; 0x3f
 80094bc:	ee39 6a46 	vsub.f32	s12, s18, s12
 80094c0:	eb03 03c0 	add.w	r3, r3, r0, lsl #3
 80094c4:	eb04 028a 	add.w	r2, r4, sl, lsl #2
 80094c8:	edd3 7a01 	vldr	s15, [r3, #4]
 80094cc:	edd3 6a00 	vldr	s13, [r3]
 80094d0:	ed92 7a00 	vldr	s14, [r2]
 80094d4:	ee66 7a27 	vmul.f32	s15, s12, s15
 80094d8:	f503 7300 	add.w	r3, r3, #512	; 0x200
 80094dc:	ee77 7aa6 	vadd.f32	s15, s15, s13
 80094e0:	ee77 7a87 	vadd.f32	s15, s15, s14
 80094e4:	ece2 7a01 	vstmia	r2!, {s15}
 80094e8:	4591      	cmp	r9, r2
 80094ea:	d1ed      	bne.n	80094c8 <make_sound.constprop.0+0xab0>
 80094ec:	eef6 da00 	vmov.f32	s27, #96	; 0x3f000000  0.5
 80094f0:	eeb4 bacd 	vcmpe.f32	s22, s26
 80094f4:	eef1 fa10 	vmrs	APSR_nzcv, fpscr
 80094f8:	f241 81f1 	bls.w	800a8de <make_sound.constprop.0+0x1ec6>
 80094fc:	f04f 0800 	mov.w	r8, #0
 8009500:	edc4 8a06 	vstr	s17, [r4, #24]
 8009504:	f001 b84b 	b.w	800a59e <make_sound.constprop.0+0x1b86>
 8009508:	4c9c      	ldr	r4, [pc, #624]	; (800977c <make_sound.constprop.0+0xd64>)
 800950a:	f894 3554 	ldrb.w	r3, [r4, #1364]	; 0x554
 800950e:	ed94 9a05 	vldr	s18, [r4, #20]
 8009512:	ed94 ca0a 	vldr	s24, [r4, #40]	; 0x28
 8009516:	f8d4 854c 	ldr.w	r8, [r4, #1356]	; 0x54c
 800951a:	edc4 ba03 	vstr	s23, [r4, #12]
 800951e:	2b00      	cmp	r3, #0
 8009520:	f040 86eb 	bne.w	800a2fa <make_sound.constprop.0+0x18e2>
 8009524:	edd4 7a04 	vldr	s15, [r4, #16]
 8009528:	eddf 5a90 	vldr	s11, [pc, #576]	; 800976c <make_sound.constprop.0+0xd54>
 800952c:	ed94 7a08 	vldr	s14, [r4, #32]
 8009530:	ed94 da07 	vldr	s26, [r4, #28]
 8009534:	ed94 ba09 	vldr	s22, [r4, #36]	; 0x24
 8009538:	f8d4 a550 	ldr.w	sl, [r4, #1360]	; 0x550
 800953c:	eeb7 6a00 	vmov.f32	s12, #112	; 0x3f800000  1.0
 8009540:	ee77 7a86 	vadd.f32	s15, s15, s12
 8009544:	eef6 6a00 	vmov.f32	s13, #96	; 0x3f000000  0.5
 8009548:	ee67 7aa6 	vmul.f32	s15, s15, s13
 800954c:	eecb 6aa5 	vdiv.f32	s13, s23, s11
 8009550:	f504 63aa 	add.w	r3, r4, #1360	; 0x550
 8009554:	9302      	str	r3, [sp, #8]
 8009556:	ee36 6a47 	vsub.f32	s12, s12, s14
 800955a:	eef4 6aea 	vcmpe.f32	s13, s21
 800955e:	eef1 fa10 	vmrs	APSR_nzcv, fpscr
 8009562:	f100 86c6 	bmi.w	800a2f2 <make_sound.constprop.0+0x18da>
 8009566:	eef6 5a00 	vmov.f32	s11, #96	; 0x3f000000  0.5
 800956a:	eef4 6a65 	vcmp.f32	s13, s11
 800956e:	eef1 fa10 	vmrs	APSR_nzcv, fpscr
 8009572:	bfc8      	it	gt
 8009574:	eef0 6a65 	vmovgt.f32	s13, s11
 8009578:	eeb4 7a67 	vcmp.f32	s14, s15
 800957c:	eef1 fa10 	vmrs	APSR_nzcv, fpscr
 8009580:	bfc8      	it	gt
 8009582:	eef0 7a47 	vmovgt.f32	s15, s14
 8009586:	eef4 7a46 	vcmp.f32	s15, s12
 800958a:	eef1 fa10 	vmrs	APSR_nzcv, fpscr
 800958e:	bfc8      	it	gt
 8009590:	eef0 7a46 	vmovgt.f32	s15, s12
 8009594:	eddf 5a76 	vldr	s11, [pc, #472]	; 8009770 <make_sound.constprop.0+0xd58>
 8009598:	ee77 7acb 	vsub.f32	s15, s15, s22
 800959c:	ee76 bac7 	vsub.f32	s23, s13, s14
 80095a0:	ee3b ba27 	vadd.f32	s22, s22, s15
 80095a4:	ee77 ba2b 	vadd.f32	s23, s14, s23
 80095a8:	eeb4 9ae5 	vcmpe.f32	s18, s11
 80095ac:	eef7 fa00 	vmov.f32	s31, #112	; 0x3f800000  1.0
 80095b0:	eef1 fa10 	vmrs	APSR_nzcv, fpscr
 80095b4:	ee3b da8d 	vadd.f32	s26, s23, s26
 80095b8:	ee7f 8acb 	vsub.f32	s17, s31, s22
 80095bc:	f2c0 867a 	blt.w	800a2b4 <make_sound.constprop.0+0x189c>
 80095c0:	ee79 ca65 	vsub.f32	s25, s18, s11
 80095c4:	ee6c caab 	vmul.f32	s25, s25, s23
 80095c8:	ee3d da6c 	vsub.f32	s26, s26, s25
 80095cc:	f1ba 0f00 	cmp.w	sl, #0
 80095d0:	f000 871d 	beq.w	800a40e <make_sound.constprop.0+0x19f6>
 80095d4:	eeb4 daef 	vcmpe.f32	s26, s31
 80095d8:	eef1 fa10 	vmrs	APSR_nzcv, fpscr
 80095dc:	f281 8349 	bge.w	800ac72 <make_sound.constprop.0+0x225a>
 80095e0:	ee3d da4b 	vsub.f32	s26, s26, s22
 80095e4:	ee8f ea8b 	vdiv.f32	s28, s31, s22
 80095e8:	f108 030b 	add.w	r3, r8, #11
 80095ec:	9303      	str	r3, [sp, #12]
 80095ee:	f8df 919c 	ldr.w	r9, [pc, #412]	; 800978c <make_sound.constprop.0+0xd74>
 80095f2:	4e63      	ldr	r6, [pc, #396]	; (8009780 <make_sound.constprop.0+0xd68>)
 80095f4:	f108 0346 	add.w	r3, r8, #70	; 0x46
 80095f8:	9304      	str	r3, [sp, #16]
 80095fa:	ee8f 7aa8 	vdiv.f32	s14, s31, s17
 80095fe:	eecd 7a28 	vdiv.f32	s15, s26, s17
 8009602:	ee3e ea07 	vadd.f32	s28, s28, s14
 8009606:	eeb6 da00 	vmov.f32	s26, #96	; 0x3f000000  0.5
 800960a:	ee7d da67 	vsub.f32	s27, s26, s15
 800960e:	ee2b ea8e 	vmul.f32	s28, s23, s28
 8009612:	eddf 7a59 	vldr	s15, [pc, #356]	; 8009778 <make_sound.constprop.0+0xd60>
 8009616:	ee6c 7aa7 	vmul.f32	s15, s25, s15
 800961a:	eeb6 0a00 	vmov.f32	s0, #96	; 0x3f000000  0.5
 800961e:	eec7 eaab 	vdiv.f32	s29, s15, s23
 8009622:	ee3e 0ac0 	vsub.f32	s0, s29, s0
 8009626:	ed8d 0a05 	vstr	s0, [sp, #20]
 800962a:	f003 ffa5 	bl	800d578 <lrintf>
 800962e:	ee07 0a90 	vmov	s15, r0
 8009632:	9b04      	ldr	r3, [sp, #16]
 8009634:	ed9d 0a05 	vldr	s0, [sp, #20]
 8009638:	eef8 5ae7 	vcvt.f32.s32	s11, s15
 800963c:	eb06 0183 	add.w	r1, r6, r3, lsl #2
 8009640:	9b03      	ldr	r3, [sp, #12]
 8009642:	f000 003f 	and.w	r0, r0, #63	; 0x3f
 8009646:	ee7e 5ae5 	vsub.f32	s11, s29, s11
 800964a:	eb09 0980 	add.w	r9, r9, r0, lsl #2
 800964e:	eb04 0383 	add.w	r3, r4, r3, lsl #2
 8009652:	ed99 7a00 	vldr	s14, [r9]
 8009656:	edd9 7a01 	vldr	s15, [r9, #4]
 800965a:	edd3 6a00 	vldr	s13, [r3]
 800965e:	ee77 7ac7 	vsub.f32	s15, s15, s14
 8009662:	f509 7980 	add.w	r9, r9, #256	; 0x100
 8009666:	ee67 7aa5 	vmul.f32	s15, s15, s11
 800966a:	ee77 7a87 	vadd.f32	s15, s15, s14
 800966e:	ee67 7a8e 	vmul.f32	s15, s15, s28
 8009672:	ee77 7aa6 	vadd.f32	s15, s15, s13
 8009676:	ece3 7a01 	vstmia	r3!, {s15}
 800967a:	4299      	cmp	r1, r3
 800967c:	d1e9      	bne.n	8009652 <make_sound.constprop.0+0xc3a>
 800967e:	f003 ff7b 	bl	800d578 <lrintf>
 8009682:	ee07 0a90 	vmov	s15, r0
 8009686:	9a03      	ldr	r2, [sp, #12]
 8009688:	4b3a      	ldr	r3, [pc, #232]	; (8009774 <make_sound.constprop.0+0xd5c>)
 800968a:	eeb8 6ae7 	vcvt.f32.s32	s12, s15
 800968e:	eebe da00 	vmov.f32	s26, #224	; 0xbf000000 -0.5
 8009692:	f000 003f 	and.w	r0, r0, #63	; 0x3f
 8009696:	eb04 0a82 	add.w	sl, r4, r2, lsl #2
 800969a:	f108 0c47 	add.w	ip, r8, #71	; 0x47
 800969e:	ee3d da6d 	vsub.f32	s26, s26, s27
 80096a2:	ee3e 6ac6 	vsub.f32	s12, s29, s12
 80096a6:	eb03 03c0 	add.w	r3, r3, r0, lsl #3
 80096aa:	4651      	mov	r1, sl
 80096ac:	eb06 008c 	add.w	r0, r6, ip, lsl #2
 80096b0:	edd3 7a01 	vldr	s15, [r3, #4]
 80096b4:	edd3 6a00 	vldr	s13, [r3]
 80096b8:	ed91 7a00 	vldr	s14, [r1]
 80096bc:	ee66 7a27 	vmul.f32	s15, s12, s15
 80096c0:	f503 7300 	add.w	r3, r3, #512	; 0x200
 80096c4:	ee77 7aa6 	vadd.f32	s15, s15, s13
 80096c8:	ee67 7a8d 	vmul.f32	s15, s15, s26
 80096cc:	ee77 7a87 	vadd.f32	s15, s15, s14
 80096d0:	ece1 7a01 	vstmia	r1!, {s15}
 80096d4:	4288      	cmp	r0, r1
 80096d6:	d1eb      	bne.n	80096b0 <make_sound.constprop.0+0xc98>
 80096d8:	eeb4 baec 	vcmpe.f32	s22, s25
 80096dc:	eef1 fa10 	vmrs	APSR_nzcv, fpscr
 80096e0:	f241 80b5 	bls.w	800a84e <make_sound.constprop.0+0x1e36>
 80096e4:	eecc da8b 	vdiv.f32	s27, s25, s22
 80096e8:	f04f 0a00 	mov.w	sl, #0
 80096ec:	eef6 7a00 	vmov.f32	s15, #96	; 0x3f000000  0.5
 80096f0:	ee7d dae7 	vsub.f32	s27, s27, s15
 80096f4:	ed84 9a06 	vstr	s18, [r4, #24]
 80096f8:	f000 bef1 	b.w	800a4de <make_sound.constprop.0+0x1ac6>
 80096fc:	ed9b ba63 	vldr	s22, [fp, #396]	; 0x18c
 8009700:	eeb5 bac0 	vcmpe.f32	s22, #0.0
 8009704:	eef1 fa10 	vmrs	APSR_nzcv, fpscr
 8009708:	d50d      	bpl.n	8009726 <make_sound.constprop.0+0xd0e>
 800970a:	ee3b ba08 	vadd.f32	s22, s22, s16
 800970e:	eeb5 bac0 	vcmpe.f32	s22, #0.0
 8009712:	eef1 fa10 	vmrs	APSR_nzcv, fpscr
 8009716:	d4f8      	bmi.n	800970a <make_sound.constprop.0+0xcf2>
 8009718:	eeb4 bac8 	vcmpe.f32	s22, s16
 800971c:	eef1 fa10 	vmrs	APSR_nzcv, fpscr
 8009720:	db06      	blt.n	8009730 <make_sound.constprop.0+0xd18>
 8009722:	ee3b ba48 	vsub.f32	s22, s22, s16
 8009726:	eeb4 bac8 	vcmpe.f32	s22, s16
 800972a:	eef1 fa10 	vmrs	APSR_nzcv, fpscr
 800972e:	daf8      	bge.n	8009722 <make_sound.constprop.0+0xd0a>
 8009730:	eeb0 0a4b 	vmov.f32	s0, s22
 8009734:	f003 ffca 	bl	800d6cc <sinf>
 8009738:	eddb 7a60 	vldr	s15, [fp, #384]	; 0x180
 800973c:	ed9f 9a11 	vldr	s18, [pc, #68]	; 8009784 <make_sound.constprop.0+0xd6c>
 8009740:	ee60 7a27 	vmul.f32	s15, s0, s15
 8009744:	ee2b 9a89 	vmul.f32	s18, s23, s18
 8009748:	ee67 7a80 	vmul.f32	s15, s15, s0
 800974c:	ee39 ba0b 	vadd.f32	s22, s18, s22
 8009750:	ee67 7a80 	vmul.f32	s15, s15, s0
 8009754:	ed8b ba63 	vstr	s22, [fp, #396]	; 0x18c
 8009758:	ee67 7a80 	vmul.f32	s15, s15, s0
 800975c:	ee67 8a80 	vmul.f32	s17, s15, s0
 8009760:	edcb 8a67 	vstr	s17, [fp, #412]	; 0x19c
 8009764:	e4f1      	b.n	800914a <make_sound.constprop.0+0x732>
 8009766:	bf00      	nop
 8009768:	10000824 	.word	0x10000824
 800976c:	472c4400 	.word	0x472c4400
 8009770:	1e3ce508 	.word	0x1e3ce508
 8009774:	08014ea8 	.word	0x08014ea8
 8009778:	42800000 	.word	0x42800000
 800977c:	10000d80 	.word	0x10000d80
 8009780:	10000db0 	.word	0x10000db0
 8009784:	39156592 	.word	0x39156592
 8009788:	10000858 	.word	0x10000858
 800978c:	080107a4 	.word	0x080107a4
 8009790:	48b0      	ldr	r0, [pc, #704]	; (8009a54 <make_sound.constprop.0+0x103c>)
 8009792:	f7f7 fc65 	bl	8001060 <MorphingSaw_SampleCompute>
 8009796:	eddf 7ab0 	vldr	s15, [pc, #704]	; 8009a58 <make_sound.constprop.0+0x1040>
 800979a:	ee60 8a27 	vmul.f32	s17, s0, s15
 800979e:	e4d4      	b.n	800914a <make_sound.constprop.0+0x732>
 80097a0:	48ae      	ldr	r0, [pc, #696]	; (8009a5c <make_sound.constprop.0+0x1044>)
 80097a2:	eddf 5aaf 	vldr	s11, [pc, #700]	; 8009a60 <make_sound.constprop.0+0x1048>
 80097a6:	ed9f 5aaf 	vldr	s10, [pc, #700]	; 8009a64 <make_sound.constprop.0+0x104c>
 80097aa:	ed9f 4aaf 	vldr	s8, [pc, #700]	; 8009a68 <make_sound.constprop.0+0x1050>
 80097ae:	eddf 4aaf 	vldr	s9, [pc, #700]	; 8009a6c <make_sound.constprop.0+0x1054>
 80097b2:	f100 012c 	add.w	r1, r0, #44	; 0x2c
 80097b6:	2201      	movs	r2, #1
 80097b8:	ee07 2a90 	vmov	s15, r2
 80097bc:	eeb8 7ae7 	vcvt.f32.s32	s14, s15
 80097c0:	ee6b 7a87 	vmul.f32	s15, s23, s14
 80097c4:	eef4 7ac5 	vcmpe.f32	s15, s10
 80097c8:	eef1 fa10 	vmrs	APSR_nzcv, fpscr
 80097cc:	d52a      	bpl.n	8009824 <make_sound.constprop.0+0xe0c>
 80097ce:	edd1 7a00 	vldr	s15, [r1]
 80097d2:	eef4 7ac8 	vcmpe.f32	s15, s16
 80097d6:	eef1 fa10 	vmrs	APSR_nzcv, fpscr
 80097da:	db06      	blt.n	80097ea <make_sound.constprop.0+0xdd2>
 80097dc:	ee77 7ac8 	vsub.f32	s15, s15, s16
 80097e0:	eef4 7ac8 	vcmpe.f32	s15, s16
 80097e4:	eef1 fa10 	vmrs	APSR_nzcv, fpscr
 80097e8:	daf8      	bge.n	80097dc <make_sound.constprop.0+0xdc4>
 80097ea:	ee27 6a84 	vmul.f32	s12, s15, s8
 80097ee:	4ca0      	ldr	r4, [pc, #640]	; (8009a70 <make_sound.constprop.0+0x1058>)
 80097f0:	eebc 6ac6 	vcvt.u32.f32	s12, s12
 80097f4:	ee27 7a24 	vmul.f32	s14, s14, s9
 80097f8:	ee16 3a10 	vmov	r3, s12
 80097fc:	b29b      	uxth	r3, r3
 80097fe:	eb04 0383 	add.w	r3, r4, r3, lsl #2
 8009802:	ee27 7a2b 	vmul.f32	s14, s14, s23
 8009806:	edd3 6a00 	vldr	s13, [r3]
 800980a:	ecb0 6a01 	vldmia	r0!, {s12}
 800980e:	ee77 7a27 	vadd.f32	s15, s14, s15
 8009812:	3201      	adds	r2, #1
 8009814:	ee26 7a26 	vmul.f32	s14, s12, s13
 8009818:	2a0b      	cmp	r2, #11
 800981a:	ee75 5a87 	vadd.f32	s11, s11, s14
 800981e:	ece1 7a01 	vstmia	r1!, {s15}
 8009822:	d1c9      	bne.n	80097b8 <make_sound.constprop.0+0xda0>
 8009824:	eddb 8aa0 	vldr	s17, [fp, #640]	; 0x280
 8009828:	ed9b 9a60 	vldr	s18, [fp, #384]	; 0x180
 800982c:	ee65 5aa8 	vmul.f32	s11, s11, s17
 8009830:	ee65 8a89 	vmul.f32	s17, s11, s18
 8009834:	edcb 8a67 	vstr	s17, [fp, #412]	; 0x19c
 8009838:	e487      	b.n	800914a <make_sound.constprop.0+0x732>
 800983a:	eddb 7a63 	vldr	s15, [fp, #396]	; 0x18c
 800983e:	eef5 7ac0 	vcmpe.f32	s15, #0.0
 8009842:	eef1 fa10 	vmrs	APSR_nzcv, fpscr
 8009846:	d508      	bpl.n	800985a <make_sound.constprop.0+0xe42>
 8009848:	ee77 7a88 	vadd.f32	s15, s15, s16
 800984c:	eef5 7ac0 	vcmpe.f32	s15, #0.0
 8009850:	eef1 fa10 	vmrs	APSR_nzcv, fpscr
 8009854:	d4f8      	bmi.n	8009848 <make_sound.constprop.0+0xe30>
 8009856:	edcb 7a63 	vstr	s15, [fp, #396]	; 0x18c
 800985a:	eef4 7ac8 	vcmpe.f32	s15, s16
 800985e:	eef1 fa10 	vmrs	APSR_nzcv, fpscr
 8009862:	db08      	blt.n	8009876 <make_sound.constprop.0+0xe5e>
 8009864:	ee77 7ac8 	vsub.f32	s15, s15, s16
 8009868:	eef4 7ac8 	vcmpe.f32	s15, s16
 800986c:	eef1 fa10 	vmrs	APSR_nzcv, fpscr
 8009870:	daf8      	bge.n	8009864 <make_sound.constprop.0+0xe4c>
 8009872:	edcb 7a63 	vstr	s15, [fp, #396]	; 0x18c
 8009876:	ed9f 0a7c 	vldr	s0, [pc, #496]	; 8009a68 <make_sound.constprop.0+0x1050>
 800987a:	ed9b 9a60 	vldr	s18, [fp, #384]	; 0x180
 800987e:	eddf 8a76 	vldr	s17, [pc, #472]	; 8009a58 <make_sound.constprop.0+0x1040>
 8009882:	ee27 0a80 	vmul.f32	s0, s15, s0
 8009886:	f003 fe77 	bl	800d578 <lrintf>
 800988a:	4b79      	ldr	r3, [pc, #484]	; (8009a70 <make_sound.constprop.0+0x1058>)
 800988c:	eddb 7a62 	vldr	s15, [fp, #392]	; 0x188
 8009890:	ed9f 6a76 	vldr	s12, [pc, #472]	; 8009a6c <make_sound.constprop.0+0x1054>
 8009894:	ed9b 7a63 	vldr	s14, [fp, #396]	; 0x18c
 8009898:	eb03 0080 	add.w	r0, r3, r0, lsl #2
 800989c:	edd0 6a00 	vldr	s13, [r0]
 80098a0:	ee67 7a86 	vmul.f32	s15, s15, s12
 80098a4:	ee29 9a26 	vmul.f32	s18, s18, s13
 80098a8:	ee77 7a87 	vadd.f32	s15, s15, s14
 80098ac:	ee69 8a28 	vmul.f32	s17, s18, s17
 80098b0:	ed8b 9a67 	vstr	s18, [fp, #412]	; 0x19c
 80098b4:	edcb 7a63 	vstr	s15, [fp, #396]	; 0x18c
 80098b8:	e447      	b.n	800914a <make_sound.constprop.0+0x732>
 80098ba:	ed9b ba63 	vldr	s22, [fp, #396]	; 0x18c
 80098be:	eeb4 bac8 	vcmpe.f32	s22, s16
 80098c2:	eef1 fa10 	vmrs	APSR_nzcv, fpscr
 80098c6:	db06      	blt.n	80098d6 <make_sound.constprop.0+0xebe>
 80098c8:	ee3b ba48 	vsub.f32	s22, s22, s16
 80098cc:	eeb4 bac8 	vcmpe.f32	s22, s16
 80098d0:	eef1 fa10 	vmrs	APSR_nzcv, fpscr
 80098d4:	daf8      	bge.n	80098c8 <make_sound.constprop.0+0xeb0>
 80098d6:	eeb0 0a4b 	vmov.f32	s0, s22
 80098da:	f003 fef7 	bl	800d6cc <sinf>
 80098de:	eddf 6a63 	vldr	s13, [pc, #396]	; 8009a6c <make_sound.constprop.0+0x1054>
 80098e2:	eddb 8a60 	vldr	s17, [fp, #384]	; 0x180
 80098e6:	ed9f 9a5c 	vldr	s18, [pc, #368]	; 8009a58 <make_sound.constprop.0+0x1040>
 80098ea:	ee6b 6aa6 	vmul.f32	s13, s23, s13
 80098ee:	ee20 0a28 	vmul.f32	s0, s0, s17
 80098f2:	ee76 6a8b 	vadd.f32	s13, s13, s22
 80098f6:	ee60 8a09 	vmul.f32	s17, s0, s18
 80098fa:	ed8b 0a67 	vstr	s0, [fp, #412]	; 0x19c
 80098fe:	edcb 6a63 	vstr	s13, [fp, #396]	; 0x18c
 8009902:	e422      	b.n	800914a <make_sound.constprop.0+0x732>
 8009904:	eddf 7a5b 	vldr	s15, [pc, #364]	; 8009a74 <make_sound.constprop.0+0x105c>
 8009908:	eef4 bae7 	vcmpe.f32	s23, s15
 800990c:	eef1 fa10 	vmrs	APSR_nzcv, fpscr
 8009910:	f100 8710 	bmi.w	800a734 <make_sound.constprop.0+0x1d1c>
 8009914:	eddf 7a58 	vldr	s15, [pc, #352]	; 8009a78 <make_sound.constprop.0+0x1060>
 8009918:	eef4 bae7 	vcmpe.f32	s23, s15
 800991c:	eddb 7a63 	vldr	s15, [fp, #396]	; 0x18c
 8009920:	eef1 fa10 	vmrs	APSR_nzcv, fpscr
 8009924:	eef5 7ac0 	vcmpe.f32	s15, #0.0
 8009928:	d52c      	bpl.n	8009984 <make_sound.constprop.0+0xf6c>
 800992a:	eef1 fa10 	vmrs	APSR_nzcv, fpscr
 800992e:	d50d      	bpl.n	800994c <make_sound.constprop.0+0xf34>
 8009930:	ee77 7a88 	vadd.f32	s15, s15, s16
 8009934:	eef5 7ac0 	vcmpe.f32	s15, #0.0
 8009938:	eef1 fa10 	vmrs	APSR_nzcv, fpscr
 800993c:	d4f8      	bmi.n	8009930 <make_sound.constprop.0+0xf18>
 800993e:	eef4 7ac8 	vcmpe.f32	s15, s16
 8009942:	eef1 fa10 	vmrs	APSR_nzcv, fpscr
 8009946:	db06      	blt.n	8009956 <make_sound.constprop.0+0xf3e>
 8009948:	ee77 7ac8 	vsub.f32	s15, s15, s16
 800994c:	eef4 7ac8 	vcmpe.f32	s15, s16
 8009950:	eef1 fa10 	vmrs	APSR_nzcv, fpscr
 8009954:	daf8      	bge.n	8009948 <make_sound.constprop.0+0xf30>
 8009956:	ed9f 7a49 	vldr	s14, [pc, #292]	; 8009a7c <make_sound.constprop.0+0x1064>
 800995a:	eef4 7ac7 	vcmpe.f32	s15, s14
 800995e:	eef1 fa10 	vmrs	APSR_nzcv, fpscr
 8009962:	f140 8744 	bpl.w	800a7ee <make_sound.constprop.0+0x1dd6>
 8009966:	ee87 9a87 	vdiv.f32	s18, s15, s14
 800996a:	eddb 8a60 	vldr	s17, [fp, #384]	; 0x180
 800996e:	eeb6 7a00 	vmov.f32	s14, #96	; 0x3f000000  0.5
 8009972:	ee68 8a87 	vmul.f32	s17, s17, s14
 8009976:	ee68 8a89 	vmul.f32	s17, s17, s18
 800997a:	e026      	b.n	80099ca <make_sound.constprop.0+0xfb2>
 800997c:	ee77 7a88 	vadd.f32	s15, s15, s16
 8009980:	eef5 7ac0 	vcmpe.f32	s15, #0.0
 8009984:	eef1 fa10 	vmrs	APSR_nzcv, fpscr
 8009988:	d4f8      	bmi.n	800997c <make_sound.constprop.0+0xf64>
 800998a:	eef4 7ac8 	vcmpe.f32	s15, s16
 800998e:	eef1 fa10 	vmrs	APSR_nzcv, fpscr
 8009992:	db06      	blt.n	80099a2 <make_sound.constprop.0+0xf8a>
 8009994:	ee77 7ac8 	vsub.f32	s15, s15, s16
 8009998:	eef4 7ac8 	vcmpe.f32	s15, s16
 800999c:	eef1 fa10 	vmrs	APSR_nzcv, fpscr
 80099a0:	daf8      	bge.n	8009994 <make_sound.constprop.0+0xf7c>
 80099a2:	ed9f 7a36 	vldr	s14, [pc, #216]	; 8009a7c <make_sound.constprop.0+0x1064>
 80099a6:	eef4 7ac7 	vcmpe.f32	s15, s14
 80099aa:	eef1 fa10 	vmrs	APSR_nzcv, fpscr
 80099ae:	f140 872e 	bpl.w	800a80e <make_sound.constprop.0+0x1df6>
 80099b2:	eddf 8a33 	vldr	s17, [pc, #204]	; 8009a80 <make_sound.constprop.0+0x1068>
 80099b6:	ed9b 9a60 	vldr	s18, [fp, #384]	; 0x180
 80099ba:	ee67 8aa8 	vmul.f32	s17, s15, s17
 80099be:	eeb7 7a00 	vmov.f32	s14, #112	; 0x3f800000  1.0
 80099c2:	ee78 8a87 	vadd.f32	s17, s17, s14
 80099c6:	ee68 8a89 	vmul.f32	s17, s17, s18
 80099ca:	eddf 6a28 	vldr	s13, [pc, #160]	; 8009a6c <make_sound.constprop.0+0x1054>
 80099ce:	edcb 8a67 	vstr	s17, [fp, #412]	; 0x19c
 80099d2:	ee6b 6aa6 	vmul.f32	s13, s23, s13
 80099d6:	ee76 7aa7 	vadd.f32	s15, s13, s15
 80099da:	edcb 7a63 	vstr	s15, [fp, #396]	; 0x18c
 80099de:	f7ff bbb4 	b.w	800914a <make_sound.constprop.0+0x732>
 80099e2:	eeff 7a00 	vmov.f32	s15, #240	; 0xbf800000 -1.0
 80099e6:	eeb4 0ae7 	vcmpe.f32	s0, s15
 80099ea:	eef1 fa10 	vmrs	APSR_nzcv, fpscr
 80099ee:	bf48      	it	mi
 80099f0:	f248 0301 	movwmi	r3, #32769	; 0x8001
 80099f4:	f53f ac56 	bmi.w	80092a4 <make_sound.constprop.0+0x88c>
 80099f8:	eddf 7a22 	vldr	s15, [pc, #136]	; 8009a84 <make_sound.constprop.0+0x106c>
 80099fc:	ee60 7a27 	vmul.f32	s15, s0, s15
 8009a00:	eefd 7ae7 	vcvt.s32.f32	s15, s15
 8009a04:	ee17 3a90 	vmov	r3, s15
 8009a08:	b29b      	uxth	r3, r3
 8009a0a:	e44b      	b.n	80092a4 <make_sound.constprop.0+0x88c>
 8009a0c:	eeff 7a00 	vmov.f32	s15, #240	; 0xbf800000 -1.0
 8009a10:	eef4 8ae7 	vcmpe.f32	s17, s15
 8009a14:	eef1 fa10 	vmrs	APSR_nzcv, fpscr
 8009a18:	bf48      	it	mi
 8009a1a:	f248 0201 	movwmi	r2, #32769	; 0x8001
 8009a1e:	f53f ac37 	bmi.w	8009290 <make_sound.constprop.0+0x878>
 8009a22:	eddf 7a18 	vldr	s15, [pc, #96]	; 8009a84 <make_sound.constprop.0+0x106c>
 8009a26:	ee68 7aa7 	vmul.f32	s15, s17, s15
 8009a2a:	eefd 7ae7 	vcvt.s32.f32	s15, s15
 8009a2e:	ee17 3a90 	vmov	r3, s15
 8009a32:	b29a      	uxth	r2, r3
 8009a34:	e42c      	b.n	8009290 <make_sound.constprop.0+0x878>
 8009a36:	4914      	ldr	r1, [pc, #80]	; (8009a88 <make_sound.constprop.0+0x1070>)
 8009a38:	4814      	ldr	r0, [pc, #80]	; (8009a8c <make_sound.constprop.0+0x1074>)
 8009a3a:	f7fb fb19 	bl	8005070 <mono_chorus_compute>
 8009a3e:	4914      	ldr	r1, [pc, #80]	; (8009a90 <make_sound.constprop.0+0x1078>)
 8009a40:	4814      	ldr	r0, [pc, #80]	; (8009a94 <make_sound.constprop.0+0x107c>)
 8009a42:	eef0 7a40 	vmov.f32	s15, s0
 8009a46:	eeb0 0a68 	vmov.f32	s0, s17
 8009a4a:	eef0 8a67 	vmov.f32	s17, s15
 8009a4e:	f7fb fb0f 	bl	8005070 <mono_chorus_compute>
 8009a52:	e413      	b.n	800927c <make_sound.constprop.0+0x864>
 8009a54:	10000180 	.word	0x10000180
 8009a58:	3f4ccccd 	.word	0x3f4ccccd
 8009a5c:	10000284 	.word	0x10000284
 8009a60:	00000000 	.word	0x00000000
 8009a64:	46ac4400 	.word	0x46ac4400
 8009a68:	4322f983 	.word	0x4322f983
 8009a6c:	39156592 	.word	0x39156592
 8009a70:	0800f7a0 	.word	0x0800f7a0
 8009a74:	43480000 	.word	0x43480000
 8009a78:	44160000 	.word	0x44160000
 8009a7c:	40490fdb 	.word	0x40490fdb
 8009a80:	bf22f983 	.word	0xbf22f983
 8009a84:	46fffe00 	.word	0x46fffe00
 8009a88:	10000120 	.word	0x10000120
 8009a8c:	100028d4 	.word	0x100028d4
 8009a90:	10000130 	.word	0x10000130
 8009a94:	100012dc 	.word	0x100012dc
 8009a98:	4ecc      	ldr	r6, [pc, #816]	; (8009dcc <make_sound.constprop.0+0x13b4>)
 8009a9a:	4acd      	ldr	r2, [pc, #820]	; (8009dd0 <make_sound.constprop.0+0x13b8>)
 8009a9c:	4bcd      	ldr	r3, [pc, #820]	; (8009dd4 <make_sound.constprop.0+0x13bc>)
 8009a9e:	ed96 9a00 	vldr	s18, [r6]
 8009aa2:	ed9f 0ae3 	vldr	s0, [pc, #908]	; 8009e30 <make_sound.constprop.0+0x1418>
 8009aa6:	edd2 ba00 	vldr	s23, [r2]
 8009aaa:	edd3 7a00 	vldr	s15, [r3]
 8009aae:	ee29 0a00 	vmul.f32	s0, s18, s0
 8009ab2:	ee37 baeb 	vsub.f32	s22, s15, s23
 8009ab6:	f003 fd5f 	bl	800d578 <lrintf>
 8009aba:	4bc7      	ldr	r3, [pc, #796]	; (8009dd8 <make_sound.constprop.0+0x13c0>)
 8009abc:	4ac7      	ldr	r2, [pc, #796]	; (8009ddc <make_sound.constprop.0+0x13c4>)
 8009abe:	49c8      	ldr	r1, [pc, #800]	; (8009de0 <make_sound.constprop.0+0x13c8>)
 8009ac0:	eb03 0080 	add.w	r0, r3, r0, lsl #2
 8009ac4:	edd0 7a00 	vldr	s15, [r0]
 8009ac8:	4bc6      	ldr	r3, [pc, #792]	; (8009de4 <make_sound.constprop.0+0x13cc>)
 8009aca:	ed91 0a00 	vldr	s0, [r1]
 8009ace:	eeb7 7a00 	vmov.f32	s14, #112	; 0x3f800000  1.0
 8009ad2:	ee77 7a87 	vadd.f32	s15, s15, s14
 8009ad6:	eef6 6a00 	vmov.f32	s13, #96	; 0x3f000000  0.5
 8009ada:	ee67 7aa6 	vmul.f32	s15, s15, s13
 8009ade:	ed93 7a00 	vldr	s14, [r3]
 8009ae2:	4bc1      	ldr	r3, [pc, #772]	; (8009de8 <make_sound.constprop.0+0x13d0>)
 8009ae4:	edd2 6a00 	vldr	s13, [r2]
 8009ae8:	ed93 4a00 	vldr	s8, [r3]
 8009aec:	4bbf      	ldr	r3, [pc, #764]	; (8009dec <make_sound.constprop.0+0x13d4>)
 8009aee:	ee67 7a8b 	vmul.f32	s15, s15, s22
 8009af2:	eef7 3a00 	vmov.f32	s7, #112	; 0x3f800000  1.0
 8009af6:	ee77 7aab 	vadd.f32	s15, s15, s23
 8009afa:	ee39 9a07 	vadd.f32	s18, s18, s14
 8009afe:	ee33 2ae7 	vsub.f32	s4, s7, s15
 8009b02:	ee37 7aa3 	vadd.f32	s14, s15, s7
 8009b06:	edd3 4a00 	vldr	s9, [r3]
 8009b0a:	ed93 5a01 	vldr	s10, [r3, #4]
 8009b0e:	edd3 5a02 	vldr	s11, [r3, #8]
 8009b12:	ed93 6a03 	vldr	s12, [r3, #12]
 8009b16:	edd3 2a04 	vldr	s5, [r3, #16]
 8009b1a:	ed93 3a05 	vldr	s6, [r3, #20]
 8009b1e:	eec2 7a07 	vdiv.f32	s15, s4, s14
 8009b22:	ee26 7a84 	vmul.f32	s14, s13, s8
 8009b26:	ee73 3ac0 	vsub.f32	s7, s7, s0
 8009b2a:	ee37 7a28 	vadd.f32	s14, s14, s17
 8009b2e:	ee63 8aa8 	vmul.f32	s17, s7, s17
 8009b32:	ee27 4a67 	vnmul.f32	s8, s14, s15
 8009b36:	eeb4 9ac8 	vcmpe.f32	s18, s16
 8009b3a:	ee34 4a24 	vadd.f32	s8, s8, s9
 8009b3e:	eef1 fa10 	vmrs	APSR_nzcv, fpscr
 8009b42:	ee64 4a67 	vnmul.f32	s9, s8, s15
 8009b46:	ee67 6a84 	vmul.f32	s13, s15, s8
 8009b4a:	ee74 4a85 	vadd.f32	s9, s9, s10
 8009b4e:	ee36 7a87 	vadd.f32	s14, s13, s14
 8009b52:	ee24 5ae7 	vnmul.f32	s10, s9, s15
 8009b56:	ee64 6aa7 	vmul.f32	s13, s9, s15
 8009b5a:	ee35 5a25 	vadd.f32	s10, s10, s11
 8009b5e:	ee36 4a84 	vadd.f32	s8, s13, s8
 8009b62:	ee65 5a67 	vnmul.f32	s11, s10, s15
 8009b66:	ee65 3a27 	vmul.f32	s7, s10, s15
 8009b6a:	ee75 5a86 	vadd.f32	s11, s11, s12
 8009b6e:	ee73 4aa4 	vadd.f32	s9, s7, s9
 8009b72:	ee25 6ae7 	vnmul.f32	s12, s11, s15
 8009b76:	ee65 3aa7 	vmul.f32	s7, s11, s15
 8009b7a:	ee36 6a22 	vadd.f32	s12, s12, s5
 8009b7e:	ee33 5a85 	vadd.f32	s10, s7, s10
 8009b82:	ee66 6a67 	vnmul.f32	s13, s12, s15
 8009b86:	ee66 3a27 	vmul.f32	s7, s12, s15
 8009b8a:	ee76 6a83 	vadd.f32	s13, s13, s6
 8009b8e:	bfa8      	it	ge
 8009b90:	ee39 9a48 	vsubge.f32	s18, s18, s16
 8009b94:	ee67 7aa6 	vmul.f32	s15, s15, s13
 8009b98:	ee73 5aa5 	vadd.f32	s11, s7, s11
 8009b9c:	ee20 0a26 	vmul.f32	s0, s0, s13
 8009ba0:	ee77 7a86 	vadd.f32	s15, s15, s12
 8009ba4:	ee78 8a80 	vadd.f32	s17, s17, s0
 8009ba8:	ed86 9a00 	vstr	s18, [r6]
 8009bac:	edc2 6a00 	vstr	s13, [r2]
 8009bb0:	ed83 7a00 	vstr	s14, [r3]
 8009bb4:	ed83 4a01 	vstr	s8, [r3, #4]
 8009bb8:	edc3 4a02 	vstr	s9, [r3, #8]
 8009bbc:	ed83 5a03 	vstr	s10, [r3, #12]
 8009bc0:	edc3 7a05 	vstr	s15, [r3, #20]
 8009bc4:	edc3 5a04 	vstr	s11, [r3, #16]
 8009bc8:	f7ff bb51 	b.w	800926e <make_sound.constprop.0+0x856>
 8009bcc:	4888      	ldr	r0, [pc, #544]	; (8009df0 <make_sound.constprop.0+0x13d8>)
 8009bce:	4a89      	ldr	r2, [pc, #548]	; (8009df4 <make_sound.constprop.0+0x13dc>)
 8009bd0:	6803      	ldr	r3, [r0, #0]
 8009bd2:	edd2 6a00 	vldr	s13, [r2]
 8009bd6:	eddf 7a88 	vldr	s15, [pc, #544]	; 8009df8 <make_sound.constprop.0+0x13e0>
 8009bda:	ed9f 6a88 	vldr	s12, [pc, #544]	; 8009dfc <make_sound.constprop.0+0x13e4>
 8009bde:	ed93 7a00 	vldr	s14, [r3]
 8009be2:	4987      	ldr	r1, [pc, #540]	; (8009e00 <make_sound.constprop.0+0x13e8>)
 8009be4:	ee66 6aa7 	vmul.f32	s13, s13, s15
 8009be8:	ee27 7a06 	vmul.f32	s14, s14, s12
 8009bec:	edd1 7a00 	vldr	s15, [r1]
 8009bf0:	ee37 7a26 	vadd.f32	s14, s14, s13
 8009bf4:	eef7 6a00 	vmov.f32	s13, #112	; 0x3f800000  1.0
 8009bf8:	ee67 7a27 	vmul.f32	s15, s14, s15
 8009bfc:	ed82 7a00 	vstr	s14, [r2]
 8009c00:	ee77 7aa8 	vadd.f32	s15, s15, s17
 8009c04:	eef4 7ae6 	vcmpe.f32	s15, s13
 8009c08:	eef1 fa10 	vmrs	APSR_nzcv, fpscr
 8009c0c:	f340 8185 	ble.w	8009f1a <make_sound.constprop.0+0x1502>
 8009c10:	eef0 7a66 	vmov.f32	s15, s13
 8009c14:	4e7b      	ldr	r6, [pc, #492]	; (8009e04 <make_sound.constprop.0+0x13ec>)
 8009c16:	f8df c210 	ldr.w	ip, [pc, #528]	; 8009e28 <make_sound.constprop.0+0x1410>
 8009c1a:	6832      	ldr	r2, [r6, #0]
 8009c1c:	497a      	ldr	r1, [pc, #488]	; (8009e08 <make_sound.constprop.0+0x13f0>)
 8009c1e:	ece2 7a01 	vstmia	r2!, {s15}
 8009c22:	ed9c 7a00 	vldr	s14, [ip]
 8009c26:	f8df c204 	ldr.w	ip, [pc, #516]	; 8009e2c <make_sound.constprop.0+0x1414>
 8009c2a:	eeb7 0a00 	vmov.f32	s0, #112	; 0x3f800000  1.0
 8009c2e:	ee30 0a47 	vsub.f32	s0, s0, s14
 8009c32:	3304      	adds	r3, #4
 8009c34:	ee67 7a87 	vmul.f32	s15, s15, s14
 8009c38:	ee60 8a28 	vmul.f32	s17, s0, s17
 8009c3c:	eba2 0801 	sub.w	r8, r2, r1
 8009c40:	eba3 0e01 	sub.w	lr, r3, r1
 8009c44:	45e0      	cmp	r8, ip
 8009c46:	bfc8      	it	gt
 8009c48:	460a      	movgt	r2, r1
 8009c4a:	45e6      	cmp	lr, ip
 8009c4c:	bfc8      	it	gt
 8009c4e:	460b      	movgt	r3, r1
 8009c50:	ee78 8aa7 	vadd.f32	s17, s17, s15
 8009c54:	6032      	str	r2, [r6, #0]
 8009c56:	6003      	str	r3, [r0, #0]
 8009c58:	f7ff bb04 	b.w	8009264 <make_sound.constprop.0+0x84c>
 8009c5c:	eddb 7a93 	vldr	s15, [fp, #588]	; 0x24c
 8009c60:	eef5 7ac0 	vcmpe.f32	s15, #0.0
 8009c64:	eef1 fa10 	vmrs	APSR_nzcv, fpscr
 8009c68:	d508      	bpl.n	8009c7c <make_sound.constprop.0+0x1264>
 8009c6a:	ee77 7a88 	vadd.f32	s15, s15, s16
 8009c6e:	eef5 7ac0 	vcmpe.f32	s15, #0.0
 8009c72:	eef1 fa10 	vmrs	APSR_nzcv, fpscr
 8009c76:	d4f8      	bmi.n	8009c6a <make_sound.constprop.0+0x1252>
 8009c78:	edcb 7a93 	vstr	s15, [fp, #588]	; 0x24c
 8009c7c:	eef4 7ac8 	vcmpe.f32	s15, s16
 8009c80:	eef1 fa10 	vmrs	APSR_nzcv, fpscr
 8009c84:	db08      	blt.n	8009c98 <make_sound.constprop.0+0x1280>
 8009c86:	ee77 7ac8 	vsub.f32	s15, s15, s16
 8009c8a:	eef4 7ac8 	vcmpe.f32	s15, s16
 8009c8e:	eef1 fa10 	vmrs	APSR_nzcv, fpscr
 8009c92:	daf8      	bge.n	8009c86 <make_sound.constprop.0+0x126e>
 8009c94:	edcb 7a93 	vstr	s15, [fp, #588]	; 0x24c
 8009c98:	ed9f 0a65 	vldr	s0, [pc, #404]	; 8009e30 <make_sound.constprop.0+0x1418>
 8009c9c:	ee27 0a80 	vmul.f32	s0, s15, s0
 8009ca0:	f003 fc6a 	bl	800d578 <lrintf>
 8009ca4:	4b4c      	ldr	r3, [pc, #304]	; (8009dd8 <make_sound.constprop.0+0x13c0>)
 8009ca6:	eddb 6a92 	vldr	s13, [fp, #584]	; 0x248
 8009caa:	ed9f 4a58 	vldr	s8, [pc, #352]	; 8009e0c <make_sound.constprop.0+0x13f4>
 8009cae:	eddb 4a93 	vldr	s9, [fp, #588]	; 0x24c
 8009cb2:	eddf 5a57 	vldr	s11, [pc, #348]	; 8009e10 <make_sound.constprop.0+0x13f8>
 8009cb6:	eb03 0080 	add.w	r0, r3, r0, lsl #2
 8009cba:	ed90 7a00 	vldr	s14, [r0]
 8009cbe:	4b55      	ldr	r3, [pc, #340]	; (8009e14 <make_sound.constprop.0+0x13fc>)
 8009cc0:	eef7 7a00 	vmov.f32	s15, #112	; 0x3f800000  1.0
 8009cc4:	eeb6 6a00 	vmov.f32	s12, #96	; 0x3f000000  0.5
 8009cc8:	ee37 7a27 	vadd.f32	s14, s14, s15
 8009ccc:	ee68 8a86 	vmul.f32	s17, s17, s12
 8009cd0:	ed93 5a00 	vldr	s10, [r3]
 8009cd4:	ee67 8a28 	vmul.f32	s17, s14, s17
 8009cd8:	ee66 6a84 	vmul.f32	s13, s13, s8
 8009cdc:	ee78 7aa7 	vadd.f32	s15, s17, s15
 8009ce0:	ee36 7aa4 	vadd.f32	s14, s13, s9
 8009ce4:	ee67 7a85 	vmul.f32	s15, s15, s10
 8009ce8:	edcb 8a97 	vstr	s17, [fp, #604]	; 0x25c
 8009cec:	eef4 7ae5 	vcmpe.f32	s15, s11
 8009cf0:	eef1 fa10 	vmrs	APSR_nzcv, fpscr
 8009cf4:	ed8b 7a93 	vstr	s14, [fp, #588]	; 0x24c
 8009cf8:	dc56      	bgt.n	8009da8 <make_sound.constprop.0+0x1390>
 8009cfa:	ee67 7a86 	vmul.f32	s15, s15, s12
 8009cfe:	ed9f 7a46 	vldr	s14, [pc, #280]	; 8009e18 <make_sound.constprop.0+0x1400>
 8009d02:	ee27 7a87 	vmul.f32	s14, s15, s14
 8009d06:	eefa 5a0e 	vmov.f32	s11, #174	; 0xc1700000 -15.0
 8009d0a:	ee77 6a07 	vadd.f32	s13, s14, s14
 8009d0e:	ee27 6a07 	vmul.f32	s12, s14, s14
 8009d12:	ee66 6a87 	vmul.f32	s13, s13, s14
 8009d16:	eeb1 5a04 	vmov.f32	s10, #20	; 0x40a00000  5.0
 8009d1a:	ee26 6a07 	vmul.f32	s12, s12, s14
 8009d1e:	ee76 6ac5 	vsub.f32	s13, s13, s10
 8009d22:	ee27 7a25 	vmul.f32	s14, s14, s11
 8009d26:	eef0 5a08 	vmov.f32	s11, #8	; 0x40400000  3.0
 8009d2a:	ee66 6aa5 	vmul.f32	s13, s13, s11
 8009d2e:	ee36 7a07 	vadd.f32	s14, s12, s14
 8009d32:	ee87 6a26 	vdiv.f32	s12, s14, s13
 8009d36:	edcb 7a59 	vstr	s15, [fp, #356]	; 0x164
 8009d3a:	ed8b 6a5a 	vstr	s12, [fp, #360]	; 0x168
 8009d3e:	f7ff ba7a 	b.w	8009236 <make_sound.constprop.0+0x81e>
 8009d42:	ed9b 9a1e 	vldr	s18, [fp, #120]	; 0x78
 8009d46:	ed9b ba21 	vldr	s22, [fp, #132]	; 0x84
 8009d4a:	eddb 7a20 	vldr	s15, [fp, #128]	; 0x80
 8009d4e:	ee39 ba0b 	vadd.f32	s22, s18, s22
 8009d52:	eeb4 bae7 	vcmpe.f32	s22, s15
 8009d56:	eef1 fa10 	vmrs	APSR_nzcv, fpscr
 8009d5a:	ed8b ba1e 	vstr	s22, [fp, #120]	; 0x78
 8009d5e:	f6ff aa04 	blt.w	800916a <make_sound.constprop.0+0x752>
 8009d62:	f8db 306c 	ldr.w	r3, [fp, #108]	; 0x6c
 8009d66:	f8db 2070 	ldr.w	r2, [fp, #112]	; 0x70
 8009d6a:	f8cb 3084 	str.w	r3, [fp, #132]	; 0x84
 8009d6e:	2301      	movs	r3, #1
 8009d70:	edcb 7a1e 	vstr	s15, [fp, #120]	; 0x78
 8009d74:	eeb0 ba67 	vmov.f32	s22, s15
 8009d78:	f8cb 2080 	str.w	r2, [fp, #128]	; 0x80
 8009d7c:	f8cb 3088 	str.w	r3, [fp, #136]	; 0x88
 8009d80:	f7ff b9f3 	b.w	800916a <make_sound.constprop.0+0x752>
 8009d84:	ed9b 9a1e 	vldr	s18, [fp, #120]	; 0x78
 8009d88:	ed9b ba1d 	vldr	s22, [fp, #116]	; 0x74
 8009d8c:	eddf 7a23 	vldr	s15, [pc, #140]	; 8009e1c <make_sound.constprop.0+0x1404>
 8009d90:	ee39 ba4b 	vsub.f32	s22, s18, s22
 8009d94:	eeb4 bae7 	vcmpe.f32	s22, s15
 8009d98:	eef1 fa10 	vmrs	APSR_nzcv, fpscr
 8009d9c:	f240 80c7 	bls.w	8009f2e <make_sound.constprop.0+0x1516>
 8009da0:	ed8b ba1e 	vstr	s22, [fp, #120]	; 0x78
 8009da4:	f7ff b9e1 	b.w	800916a <make_sound.constprop.0+0x752>
 8009da8:	ed9f 6a1d 	vldr	s12, [pc, #116]	; 8009e20 <make_sound.constprop.0+0x1408>
 8009dac:	eddf 7a1d 	vldr	s15, [pc, #116]	; 8009e24 <make_sound.constprop.0+0x140c>
 8009db0:	e7c1      	b.n	8009d36 <make_sound.constprop.0+0x131e>
 8009db2:	f8db 3074 	ldr.w	r3, [fp, #116]	; 0x74
 8009db6:	f8cb 3084 	str.w	r3, [fp, #132]	; 0x84
 8009dba:	2200      	movs	r2, #0
 8009dbc:	f8cb 2080 	str.w	r2, [fp, #128]	; 0x80
 8009dc0:	2303      	movs	r3, #3
 8009dc2:	2200      	movs	r2, #0
 8009dc4:	e9cb 3222 	strd	r3, r2, [fp, #136]	; 0x88
 8009dc8:	f7ff ba22 	b.w	8009210 <make_sound.constprop.0+0x7f8>
 8009dcc:	2001f728 	.word	0x2001f728
 8009dd0:	2001edd8 	.word	0x2001edd8
 8009dd4:	2001edd4 	.word	0x2001edd4
 8009dd8:	0800f7a0 	.word	0x0800f7a0
 8009ddc:	2001f7ec 	.word	0x2001f7ec
 8009de0:	2001f7e4 	.word	0x2001f7e4
 8009de4:	2001f724 	.word	0x2001f724
 8009de8:	2001eddc 	.word	0x2001eddc
 8009dec:	2001f7b0 	.word	0x2001f7b0
 8009df0:	2001f7d4 	.word	0x2001f7d4
 8009df4:	2001f7c8 	.word	0x2001f7c8
 8009df8:	3f19999a 	.word	0x3f19999a
 8009dfc:	3ecccccc 	.word	0x3ecccccc
 8009e00:	20000058 	.word	0x20000058
 8009e04:	2001f7e8 	.word	0x2001f7e8
 8009e08:	2000190c 	.word	0x2000190c
 8009e0c:	39156592 	.word	0x39156592
 8009e10:	3f733333 	.word	0x3f733333
 8009e14:	2001ede4 	.word	0x2001ede4
 8009e18:	40490fdb 	.word	0x40490fdb
 8009e1c:	00000000 	.word	0x00000000
 8009e20:	413a1203 	.word	0x413a1203
 8009e24:	3ef33333 	.word	0x3ef33333
 8009e28:	20000060 	.word	0x20000060
 8009e2c:	0001d4bc 	.word	0x0001d4bc
 8009e30:	4322f983 	.word	0x4322f983
 8009e34:	eddb 7a8b 	vldr	s15, [fp, #556]	; 0x22c
 8009e38:	eef5 7ac0 	vcmpe.f32	s15, #0.0
 8009e3c:	eef1 fa10 	vmrs	APSR_nzcv, fpscr
 8009e40:	d508      	bpl.n	8009e54 <make_sound.constprop.0+0x143c>
 8009e42:	ee77 7a88 	vadd.f32	s15, s15, s16
 8009e46:	eef5 7ac0 	vcmpe.f32	s15, #0.0
 8009e4a:	eef1 fa10 	vmrs	APSR_nzcv, fpscr
 8009e4e:	d4f8      	bmi.n	8009e42 <make_sound.constprop.0+0x142a>
 8009e50:	edcb 7a8b 	vstr	s15, [fp, #556]	; 0x22c
 8009e54:	eef4 7ac8 	vcmpe.f32	s15, s16
 8009e58:	eef1 fa10 	vmrs	APSR_nzcv, fpscr
 8009e5c:	db08      	blt.n	8009e70 <make_sound.constprop.0+0x1458>
 8009e5e:	ee77 7ac8 	vsub.f32	s15, s15, s16
 8009e62:	eef4 7ac8 	vcmpe.f32	s15, s16
 8009e66:	eef1 fa10 	vmrs	APSR_nzcv, fpscr
 8009e6a:	daf8      	bge.n	8009e5e <make_sound.constprop.0+0x1446>
 8009e6c:	edcb 7a8b 	vstr	s15, [fp, #556]	; 0x22c
 8009e70:	ed1f 0a11 	vldr	s0, [pc, #-68]	; 8009e30 <make_sound.constprop.0+0x1418>
 8009e74:	ee27 0a80 	vmul.f32	s0, s15, s0
 8009e78:	f003 fb7e 	bl	800d578 <lrintf>
 8009e7c:	4bdb      	ldr	r3, [pc, #876]	; (800a1ec <make_sound.constprop.0+0x17d4>)
 8009e7e:	eddb 6a8a 	vldr	s13, [fp, #552]	; 0x228
 8009e82:	ed9f 4adb 	vldr	s8, [pc, #876]	; 800a1f0 <make_sound.constprop.0+0x17d8>
 8009e86:	eddb 4a8b 	vldr	s9, [fp, #556]	; 0x22c
 8009e8a:	eddf 5ada 	vldr	s11, [pc, #872]	; 800a1f4 <make_sound.constprop.0+0x17dc>
 8009e8e:	eb03 0080 	add.w	r0, r3, r0, lsl #2
 8009e92:	ed90 7a00 	vldr	s14, [r0]
 8009e96:	4bd8      	ldr	r3, [pc, #864]	; (800a1f8 <make_sound.constprop.0+0x17e0>)
 8009e98:	eef7 7a00 	vmov.f32	s15, #112	; 0x3f800000  1.0
 8009e9c:	eeb6 6a00 	vmov.f32	s12, #96	; 0x3f000000  0.5
 8009ea0:	ee37 7a27 	vadd.f32	s14, s14, s15
 8009ea4:	ee68 8a86 	vmul.f32	s17, s17, s12
 8009ea8:	ed93 5a00 	vldr	s10, [r3]
 8009eac:	ee67 8a28 	vmul.f32	s17, s14, s17
 8009eb0:	ee66 6a84 	vmul.f32	s13, s13, s8
 8009eb4:	ee78 7aa7 	vadd.f32	s15, s17, s15
 8009eb8:	ee36 7aa4 	vadd.f32	s14, s13, s9
 8009ebc:	ee67 7a85 	vmul.f32	s15, s15, s10
 8009ec0:	edcb 8a8f 	vstr	s17, [fp, #572]	; 0x23c
 8009ec4:	eef4 7ae5 	vcmpe.f32	s15, s11
 8009ec8:	eef1 fa10 	vmrs	APSR_nzcv, fpscr
 8009ecc:	ed8b 7a8b 	vstr	s14, [fp, #556]	; 0x22c
 8009ed0:	dc36      	bgt.n	8009f40 <make_sound.constprop.0+0x1528>
 8009ed2:	ee67 7a86 	vmul.f32	s15, s15, s12
 8009ed6:	ed9f 7ac9 	vldr	s14, [pc, #804]	; 800a1fc <make_sound.constprop.0+0x17e4>
 8009eda:	ee27 7a87 	vmul.f32	s14, s15, s14
 8009ede:	eefa 5a0e 	vmov.f32	s11, #174	; 0xc1700000 -15.0
 8009ee2:	ee77 6a07 	vadd.f32	s13, s14, s14
 8009ee6:	ee27 6a07 	vmul.f32	s12, s14, s14
 8009eea:	ee66 6a87 	vmul.f32	s13, s13, s14
 8009eee:	eeb1 5a04 	vmov.f32	s10, #20	; 0x40a00000  5.0
 8009ef2:	ee26 6a07 	vmul.f32	s12, s12, s14
 8009ef6:	ee76 6ac5 	vsub.f32	s13, s13, s10
 8009efa:	ee27 7a25 	vmul.f32	s14, s14, s11
 8009efe:	eef0 5a08 	vmov.f32	s11, #8	; 0x40400000  3.0
 8009f02:	ee66 6aa5 	vmul.f32	s13, s13, s11
 8009f06:	ee36 7a07 	vadd.f32	s14, s12, s14
 8009f0a:	ee87 6a26 	vdiv.f32	s12, s14, s13
 8009f0e:	edcb 7a51 	vstr	s15, [fp, #324]	; 0x144
 8009f12:	ed8b 6a52 	vstr	s12, [fp, #328]	; 0x148
 8009f16:	f7ff b986 	b.w	8009226 <make_sound.constprop.0+0x80e>
 8009f1a:	eebf 7a00 	vmov.f32	s14, #240	; 0xbf800000 -1.0
 8009f1e:	eef4 7a47 	vcmp.f32	s15, s14
 8009f22:	eef1 fa10 	vmrs	APSR_nzcv, fpscr
 8009f26:	bf48      	it	mi
 8009f28:	eef0 7a47 	vmovmi.f32	s15, s14
 8009f2c:	e672      	b.n	8009c14 <make_sound.constprop.0+0x11fc>
 8009f2e:	2304      	movs	r3, #4
 8009f30:	eeb0 ba67 	vmov.f32	s22, s15
 8009f34:	edcb 7a1e 	vstr	s15, [fp, #120]	; 0x78
 8009f38:	f8cb 3088 	str.w	r3, [fp, #136]	; 0x88
 8009f3c:	f7ff b915 	b.w	800916a <make_sound.constprop.0+0x752>
 8009f40:	ed9f 6aaf 	vldr	s12, [pc, #700]	; 800a200 <make_sound.constprop.0+0x17e8>
 8009f44:	eddf 7aaf 	vldr	s15, [pc, #700]	; 800a204 <make_sound.constprop.0+0x17ec>
 8009f48:	e7e1      	b.n	8009f0e <make_sound.constprop.0+0x14f6>
 8009f4a:	4baf      	ldr	r3, [pc, #700]	; (800a208 <make_sound.constprop.0+0x17f0>)
 8009f4c:	781b      	ldrb	r3, [r3, #0]
 8009f4e:	2b00      	cmp	r3, #0
 8009f50:	f43e adf9 	beq.w	8008b46 <make_sound.constprop.0+0x12e>
 8009f54:	4bad      	ldr	r3, [pc, #692]	; (800a20c <make_sound.constprop.0+0x17f4>)
 8009f56:	781b      	ldrb	r3, [r3, #0]
 8009f58:	2b00      	cmp	r3, #0
 8009f5a:	f47e adf4 	bne.w	8008b46 <make_sound.constprop.0+0x12e>
 8009f5e:	f7fd fd57 	bl	8007a10 <MagicPatch.part.0>
 8009f62:	f7fe fb51 	bl	8008608 <MagicFX.part.0>
 8009f66:	f7fe bdee 	b.w	8008b46 <make_sound.constprop.0+0x12e>
 8009f6a:	f8bb 205e 	ldrh.w	r2, [fp, #94]	; 0x5e
 8009f6e:	4ea8      	ldr	r6, [pc, #672]	; (800a210 <make_sound.constprop.0+0x17f8>)
 8009f70:	f8df c2b0 	ldr.w	ip, [pc, #688]	; 800a224 <make_sound.constprop.0+0x180c>
 8009f74:	9502      	str	r5, [sp, #8]
 8009f76:	b299      	uxth	r1, r3
 8009f78:	188b      	adds	r3, r1, r2
 8009f7a:	f8ab 305e 	strh.w	r3, [fp, #94]	; 0x5e
 8009f7e:	460d      	mov	r5, r1
 8009f80:	f836 3f02 	ldrh.w	r3, [r6, #2]!
 8009f84:	442b      	add	r3, r5
 8009f86:	b218      	sxth	r0, r3
 8009f88:	286a      	cmp	r0, #106	; 0x6a
 8009f8a:	b29b      	uxth	r3, r3
 8009f8c:	dd66      	ble.n	800a05c <make_sound.constprop.0+0x1644>
 8009f8e:	f1a3 026b 	sub.w	r2, r3, #107	; 0x6b
 8009f92:	b292      	uxth	r2, r2
 8009f94:	fbac 1e02 	umull	r1, lr, ip, r2
 8009f98:	ea4f 0ede 	mov.w	lr, lr, lsr #3
 8009f9c:	2a23      	cmp	r2, #35	; 0x23
 8009f9e:	f10e 0e01 	add.w	lr, lr, #1
 8009fa2:	d92c      	bls.n	8009ffe <make_sound.constprop.0+0x15e6>
 8009fa4:	f1a3 0118 	sub.w	r1, r3, #24
 8009fa8:	2200      	movs	r2, #0
 8009faa:	f361 020f 	bfi	r2, r1, #0, #16
 8009fae:	3b24      	subs	r3, #36	; 0x24
 8009fb0:	f363 421f 	bfi	r2, r3, #16, #16
 8009fb4:	ea4f 0a9e 	mov.w	sl, lr, lsr #2
 8009fb8:	f04f 0800 	mov.w	r8, #0
 8009fbc:	f1a2 090c 	sub.w	r9, r2, #12
 8009fc0:	f3c2 410f 	ubfx	r1, r2, #16, #16
 8009fc4:	f1a2 0430 	sub.w	r4, r2, #48	; 0x30
 8009fc8:	2300      	movs	r3, #0
 8009fca:	f342 420f 	sbfx	r2, r2, #16, #16
 8009fce:	f108 0801 	add.w	r8, r8, #1
 8009fd2:	390c      	subs	r1, #12
 8009fd4:	f369 030f 	bfi	r3, r9, #0, #16
 8009fd8:	b2a4      	uxth	r4, r4
 8009fda:	3a30      	subs	r2, #48	; 0x30
 8009fdc:	45c2      	cmp	sl, r8
 8009fde:	f361 431f 	bfi	r3, r1, #16, #16
 8009fe2:	ea44 4202 	orr.w	r2, r4, r2, lsl #16
 8009fe6:	d1e9      	bne.n	8009fbc <make_sound.constprop.0+0x15a4>
 8009fe8:	f02e 0203 	bic.w	r2, lr, #3
 8009fec:	eba2 0182 	sub.w	r1, r2, r2, lsl #2
 8009ff0:	eb00 0081 	add.w	r0, r0, r1, lsl #2
 8009ff4:	4572      	cmp	r2, lr
 8009ff6:	ea4f 4323 	mov.w	r3, r3, asr #16
 8009ffa:	b200      	sxth	r0, r0
 8009ffc:	d00f      	beq.n	800a01e <make_sound.constprop.0+0x1606>
 8009ffe:	b280      	uxth	r0, r0
 800a000:	f1a0 030c 	sub.w	r3, r0, #12
 800a004:	b29a      	uxth	r2, r3
 800a006:	2a6a      	cmp	r2, #106	; 0x6a
 800a008:	b21b      	sxth	r3, r3
 800a00a:	d908      	bls.n	800a01e <make_sound.constprop.0+0x1606>
 800a00c:	f1a0 0318 	sub.w	r3, r0, #24
 800a010:	b29a      	uxth	r2, r3
 800a012:	2a6a      	cmp	r2, #106	; 0x6a
 800a014:	b21b      	sxth	r3, r3
 800a016:	d902      	bls.n	800a01e <make_sound.constprop.0+0x1606>
 800a018:	f1a0 0324 	sub.w	r3, r0, #36	; 0x24
 800a01c:	b21b      	sxth	r3, r3
 800a01e:	8033      	strh	r3, [r6, #0]
 800a020:	4b7c      	ldr	r3, [pc, #496]	; (800a214 <make_sound.constprop.0+0x17fc>)
 800a022:	42b3      	cmp	r3, r6
 800a024:	d1ac      	bne.n	8009f80 <make_sound.constprop.0+0x1568>
 800a026:	2300      	movs	r3, #0
 800a028:	f8ab 3060 	strh.w	r3, [fp, #96]	; 0x60
 800a02c:	f99b 3096 	ldrsb.w	r3, [fp, #150]	; 0x96
 800a030:	9d02      	ldr	r5, [sp, #8]
 800a032:	2b01      	cmp	r3, #1
 800a034:	f47e adfc 	bne.w	8008c30 <make_sound.constprop.0+0x218>
 800a038:	f004 fd90 	bl	800eb5c <rand>
 800a03c:	4242      	negs	r2, r0
 800a03e:	f002 0203 	and.w	r2, r2, #3
 800a042:	f000 0303 	and.w	r3, r0, #3
 800a046:	bf58      	it	pl
 800a048:	4253      	negpl	r3, r2
 800a04a:	2b03      	cmp	r3, #3
 800a04c:	f200 8493 	bhi.w	800a976 <make_sound.constprop.0+0x1f5e>
 800a050:	e8df f013 	tbh	[pc, r3, lsl #1]
 800a054:	0495048e 	.word	0x0495048e
 800a058:	04d604cf 	.word	0x04d604cf
 800a05c:	2800      	cmp	r0, #0
 800a05e:	f281 81ab 	bge.w	800b3b8 <make_sound.constprop.0+0x29a0>
 800a062:	ea6f 0e03 	mvn.w	lr, r3
 800a066:	fa1f fe8e 	uxth.w	lr, lr
 800a06a:	fbac 2e0e 	umull	r2, lr, ip, lr
 800a06e:	f64f 72db 	movw	r2, #65499	; 0xffdb
 800a072:	ea4f 0ede 	mov.w	lr, lr, lsr #3
 800a076:	4293      	cmp	r3, r2
 800a078:	f10e 0e01 	add.w	lr, lr, #1
 800a07c:	d82d      	bhi.n	800a0da <make_sound.constprop.0+0x16c2>
 800a07e:	f100 0318 	add.w	r3, r0, #24
 800a082:	2200      	movs	r2, #0
 800a084:	f363 020f 	bfi	r2, r3, #0, #16
 800a088:	f100 0324 	add.w	r3, r0, #36	; 0x24
 800a08c:	f363 421f 	bfi	r2, r3, #16, #16
 800a090:	ea4f 0a9e 	mov.w	sl, lr, lsr #2
 800a094:	f04f 0800 	mov.w	r8, #0
 800a098:	f102 090c 	add.w	r9, r2, #12
 800a09c:	f3c2 410f 	ubfx	r1, r2, #16, #16
 800a0a0:	f102 0430 	add.w	r4, r2, #48	; 0x30
 800a0a4:	2300      	movs	r3, #0
 800a0a6:	f342 420f 	sbfx	r2, r2, #16, #16
 800a0aa:	f108 0801 	add.w	r8, r8, #1
 800a0ae:	310c      	adds	r1, #12
 800a0b0:	f369 030f 	bfi	r3, r9, #0, #16
 800a0b4:	b2a4      	uxth	r4, r4
 800a0b6:	3230      	adds	r2, #48	; 0x30
 800a0b8:	45c2      	cmp	sl, r8
 800a0ba:	f361 431f 	bfi	r3, r1, #16, #16
 800a0be:	ea44 4202 	orr.w	r2, r4, r2, lsl #16
 800a0c2:	d1e9      	bne.n	800a098 <make_sound.constprop.0+0x1680>
 800a0c4:	f02e 0203 	bic.w	r2, lr, #3
 800a0c8:	eb02 0142 	add.w	r1, r2, r2, lsl #1
 800a0cc:	eb00 0081 	add.w	r0, r0, r1, lsl #2
 800a0d0:	4572      	cmp	r2, lr
 800a0d2:	ea4f 4323 	mov.w	r3, r3, asr #16
 800a0d6:	b200      	sxth	r0, r0
 800a0d8:	d0a1      	beq.n	800a01e <make_sound.constprop.0+0x1606>
 800a0da:	b280      	uxth	r0, r0
 800a0dc:	f100 030c 	add.w	r3, r0, #12
 800a0e0:	b21b      	sxth	r3, r3
 800a0e2:	2b00      	cmp	r3, #0
 800a0e4:	da9b      	bge.n	800a01e <make_sound.constprop.0+0x1606>
 800a0e6:	f100 0318 	add.w	r3, r0, #24
 800a0ea:	b21b      	sxth	r3, r3
 800a0ec:	2b00      	cmp	r3, #0
 800a0ee:	da96      	bge.n	800a01e <make_sound.constprop.0+0x1606>
 800a0f0:	f100 0324 	add.w	r3, r0, #36	; 0x24
 800a0f4:	b21b      	sxth	r3, r3
 800a0f6:	e792      	b.n	800a01e <make_sound.constprop.0+0x1606>
 800a0f8:	f004 fd30 	bl	800eb5c <rand>
 800a0fc:	ee07 0a90 	vmov	s15, r0
 800a100:	eef8 7ae7 	vcvt.f32.s32	s15, s15
 800a104:	eddf 0a44 	vldr	s1, [pc, #272]	; 800a218 <make_sound.constprop.0+0x1800>
 800a108:	ed9f 0a44 	vldr	s0, [pc, #272]	; 800a21c <make_sound.constprop.0+0x1804>
 800a10c:	ee67 7aa9 	vmul.f32	s15, s15, s19
 800a110:	ee77 0aa0 	vadd.f32	s1, s15, s1
 800a114:	f003 fb24 	bl	800d760 <powf>
 800a118:	ed9f 7a41 	vldr	s14, [pc, #260]	; 800a220 <make_sound.constprop.0+0x1808>
 800a11c:	eddf 7a35 	vldr	s15, [pc, #212]	; 800a1f4 <make_sound.constprop.0+0x17dc>
 800a120:	ee20 0a07 	vmul.f32	s0, s0, s14
 800a124:	eeb4 0ae7 	vcmpe.f32	s0, s15
 800a128:	eef1 fa10 	vmrs	APSR_nzcv, fpscr
 800a12c:	f300 815e 	bgt.w	800a3ec <make_sound.constprop.0+0x19d4>
 800a130:	eef6 7a00 	vmov.f32	s15, #96	; 0x3f000000  0.5
 800a134:	ee20 0a27 	vmul.f32	s0, s0, s15
 800a138:	eddf 7a30 	vldr	s15, [pc, #192]	; 800a1fc <make_sound.constprop.0+0x17e4>
 800a13c:	ee60 7a27 	vmul.f32	s15, s0, s15
 800a140:	eeba 6a0e 	vmov.f32	s12, #174	; 0xc1700000 -15.0
 800a144:	ee37 7aa7 	vadd.f32	s14, s15, s15
 800a148:	ee67 6aa7 	vmul.f32	s13, s15, s15
 800a14c:	ee27 7a27 	vmul.f32	s14, s14, s15
 800a150:	eef1 5a04 	vmov.f32	s11, #20	; 0x40a00000  5.0
 800a154:	ee66 6aa7 	vmul.f32	s13, s13, s15
 800a158:	ee37 7a65 	vsub.f32	s14, s14, s11
 800a15c:	ee67 7a86 	vmul.f32	s15, s15, s12
 800a160:	eeb0 6a08 	vmov.f32	s12, #8	; 0x40400000  3.0
 800a164:	ee27 7a06 	vmul.f32	s14, s14, s12
 800a168:	ee76 7aa7 	vadd.f32	s15, s13, s15
 800a16c:	eec7 6a87 	vdiv.f32	s13, s15, s14
 800a170:	ed8b 0a51 	vstr	s0, [fp, #324]	; 0x144
 800a174:	edcb 6a52 	vstr	s13, [fp, #328]	; 0x148
 800a178:	f7fe bd50 	b.w	8008c1c <make_sound.constprop.0+0x204>
 800a17c:	ed9f 7a2a 	vldr	s14, [pc, #168]	; 800a228 <make_sound.constprop.0+0x1810>
 800a180:	f7ff b94b 	b.w	800941a <make_sound.constprop.0+0xa02>
 800a184:	eddf 7a29 	vldr	s15, [pc, #164]	; 800a22c <make_sound.constprop.0+0x1814>
 800a188:	ee8b 7aa7 	vdiv.f32	s14, s23, s15
 800a18c:	eeb4 7aea 	vcmpe.f32	s14, s21
 800a190:	eef1 fa10 	vmrs	APSR_nzcv, fpscr
 800a194:	f100 81d7 	bmi.w	800a546 <make_sound.constprop.0+0x1b2e>
 800a198:	eef6 5a00 	vmov.f32	s11, #96	; 0x3f000000  0.5
 800a19c:	eeb4 7ae5 	vcmpe.f32	s14, s11
 800a1a0:	eef1 fa10 	vmrs	APSR_nzcv, fpscr
 800a1a4:	f341 80f1 	ble.w	800b38a <make_sound.constprop.0+0x2972>
 800a1a8:	edd4 6a04 	vldr	s13, [r4, #16]
 800a1ac:	eef7 7a00 	vmov.f32	s15, #112	; 0x3f800000  1.0
 800a1b0:	ee76 6aa7 	vadd.f32	s13, s13, s15
 800a1b4:	eeb0 6a65 	vmov.f32	s12, s11
 800a1b8:	ee66 6aa5 	vmul.f32	s13, s13, s11
 800a1bc:	eef4 6ae5 	vcmpe.f32	s13, s11
 800a1c0:	eef1 fa10 	vmrs	APSR_nzcv, fpscr
 800a1c4:	eef0 7a66 	vmov.f32	s15, s13
 800a1c8:	f140 81d3 	bpl.w	800a572 <make_sound.constprop.0+0x1b5a>
 800a1cc:	eef0 6a65 	vmov.f32	s13, s11
 800a1d0:	f04f 0800 	mov.w	r8, #0
 800a1d4:	ed9f 9a10 	vldr	s18, [pc, #64]	; 800a218 <make_sound.constprop.0+0x1800>
 800a1d8:	f88b 8d7c 	strb.w	r8, [fp, #3452]	; 0xd7c
 800a1dc:	eef6 da00 	vmov.f32	s27, #96	; 0x3f000000  0.5
 800a1e0:	f7ff b90c 	b.w	80093fc <make_sound.constprop.0+0x9e4>
 800a1e4:	eddf 7a10 	vldr	s15, [pc, #64]	; 800a228 <make_sound.constprop.0+0x1810>
 800a1e8:	f7fe bda2 	b.w	8008d30 <make_sound.constprop.0+0x318>
 800a1ec:	0800f7a0 	.word	0x0800f7a0
 800a1f0:	39156592 	.word	0x39156592
 800a1f4:	3f733333 	.word	0x3f733333
 800a1f8:	2001ede0 	.word	0x2001ede0
 800a1fc:	40490fdb 	.word	0x40490fdb
 800a200:	413a1203 	.word	0x413a1203
 800a204:	3ef33333 	.word	0x3ef33333
 800a208:	20000054 	.word	0x20000054
 800a20c:	2001ede8 	.word	0x2001ede8
 800a210:	0ffffffe 	.word	0x0ffffffe
 800a214:	1000001e 	.word	0x1000001e
 800a218:	00000000 	.word	0x00000000
 800a21c:	41055555 	.word	0x41055555
 800a220:	3c5ee95c 	.word	0x3c5ee95c
 800a224:	aaaaaaab 	.word	0xaaaaaaab
 800a228:	3727c5ac 	.word	0x3727c5ac
 800a22c:	472c4400 	.word	0x472c4400
 800a230:	eecb 7a87 	vdiv.f32	s15, s23, s14
 800a234:	eef4 7aea 	vcmpe.f32	s15, s21
 800a238:	eef1 fa10 	vmrs	APSR_nzcv, fpscr
 800a23c:	f100 8180 	bmi.w	800a540 <make_sound.constprop.0+0x1b28>
 800a240:	eeb6 ba00 	vmov.f32	s22, #96	; 0x3f000000  0.5
 800a244:	eef4 7acb 	vcmpe.f32	s15, s22
 800a248:	eef1 fa10 	vmrs	APSR_nzcv, fpscr
 800a24c:	bfd8      	it	le
 800a24e:	eeb0 ba67 	vmovle.f32	s22, s15
 800a252:	2300      	movs	r3, #0
 800a254:	f88b 3820 	strb.w	r3, [fp, #2080]	; 0x820
 800a258:	eef6 8a00 	vmov.f32	s17, #96	; 0x3f000000  0.5
 800a25c:	f7fe bd59 	b.w	8008d12 <make_sound.constprop.0+0x2fa>
 800a260:	eef7 ba00 	vmov.f32	s23, #112	; 0x3f800000  1.0
 800a264:	eef4 8aeb 	vcmpe.f32	s17, s23
 800a268:	eef1 fa10 	vmrs	APSR_nzcv, fpscr
 800a26c:	f280 81c8 	bge.w	800a600 <make_sound.constprop.0+0x1be8>
 800a270:	2300      	movs	r3, #0
 800a272:	eef0 ba68 	vmov.f32	s23, s17
 800a276:	f8cb 32ec 	str.w	r3, [fp, #748]	; 0x2ec
 800a27a:	f7fe bdb0 	b.w	8008dde <make_sound.constprop.0+0x3c6>
 800a27e:	f1b8 0f00 	cmp.w	r8, #0
 800a282:	f040 817e 	bne.w	800a582 <make_sound.constprop.0+0x1b6a>
 800a286:	eeb4 bac9 	vcmpe.f32	s22, s18
 800a28a:	eef1 fa10 	vmrs	APSR_nzcv, fpscr
 800a28e:	f240 87ab 	bls.w	800b1e8 <make_sound.constprop.0+0x27d0>
 800a292:	4643      	mov	r3, r8
 800a294:	f106 0a0c 	add.w	sl, r6, #12
 800a298:	eeb7 da00 	vmov.f32	s26, #112	; 0x3f800000  1.0
 800a29c:	eeb4 9acd 	vcmpe.f32	s18, s26
 800a2a0:	eef1 fa10 	vmrs	APSR_nzcv, fpscr
 800a2a4:	f280 8577 	bge.w	800ad96 <make_sound.constprop.0+0x237e>
 800a2a8:	2200      	movs	r2, #0
 800a2aa:	eeb0 da49 	vmov.f32	s26, s18
 800a2ae:	4698      	mov	r8, r3
 800a2b0:	61a2      	str	r2, [r4, #24]
 800a2b2:	e174      	b.n	800a59e <make_sound.constprop.0+0x1b86>
 800a2b4:	f1ba 0f00 	cmp.w	sl, #0
 800a2b8:	f040 80ff 	bne.w	800a4ba <make_sound.constprop.0+0x1aa2>
 800a2bc:	eeb4 bacd 	vcmpe.f32	s22, s26
 800a2c0:	eef1 fa10 	vmrs	APSR_nzcv, fpscr
 800a2c4:	f240 86a3 	bls.w	800b00e <make_sound.constprop.0+0x25f6>
 800a2c8:	eecd da0b 	vdiv.f32	s27, s26, s22
 800a2cc:	4653      	mov	r3, sl
 800a2ce:	eef6 7a00 	vmov.f32	s15, #96	; 0x3f000000  0.5
 800a2d2:	ee7d dae7 	vsub.f32	s27, s27, s15
 800a2d6:	eeb7 ea00 	vmov.f32	s28, #112	; 0x3f800000  1.0
 800a2da:	eeb4 dace 	vcmpe.f32	s26, s28
 800a2de:	eef1 fa10 	vmrs	APSR_nzcv, fpscr
 800a2e2:	f280 8645 	bge.w	800af70 <make_sound.constprop.0+0x2558>
 800a2e6:	2100      	movs	r1, #0
 800a2e8:	eef0 ca4d 	vmov.f32	s25, s26
 800a2ec:	469a      	mov	sl, r3
 800a2ee:	61a1      	str	r1, [r4, #24]
 800a2f0:	e0f5      	b.n	800a4de <make_sound.constprop.0+0x1ac6>
 800a2f2:	ed5f 6a33 	vldr	s13, [pc, #-204]	; 800a228 <make_sound.constprop.0+0x1810>
 800a2f6:	f7ff b93f 	b.w	8009578 <make_sound.constprop.0+0xb60>
 800a2fa:	ed5f 7a34 	vldr	s15, [pc, #-208]	; 800a22c <make_sound.constprop.0+0x1814>
 800a2fe:	eecb 6aa7 	vdiv.f32	s13, s23, s15
 800a302:	eef4 6aea 	vcmpe.f32	s13, s21
 800a306:	eef1 fa10 	vmrs	APSR_nzcv, fpscr
 800a30a:	f100 80b2 	bmi.w	800a472 <make_sound.constprop.0+0x1a5a>
 800a30e:	eeb6 6a00 	vmov.f32	s12, #96	; 0x3f000000  0.5
 800a312:	eef4 6ac6 	vcmpe.f32	s13, s12
 800a316:	eef1 fa10 	vmrs	APSR_nzcv, fpscr
 800a31a:	f341 801f 	ble.w	800b35c <make_sound.constprop.0+0x2944>
 800a31e:	ed94 ba04 	vldr	s22, [r4, #16]
 800a322:	eef7 7a00 	vmov.f32	s15, #112	; 0x3f800000  1.0
 800a326:	ee3b ba27 	vadd.f32	s22, s22, s15
 800a32a:	eeb0 7a46 	vmov.f32	s14, s12
 800a32e:	ee2b ba06 	vmul.f32	s22, s22, s12
 800a332:	eeb4 bac6 	vcmpe.f32	s22, s12
 800a336:	eef1 fa10 	vmrs	APSR_nzcv, fpscr
 800a33a:	eef0 7a4b 	vmov.f32	s15, s22
 800a33e:	f140 80ae 	bpl.w	800a49e <make_sound.constprop.0+0x1a86>
 800a342:	eeb0 ba46 	vmov.f32	s22, s12
 800a346:	eeb5 da00 	vmov.f32	s26, #80	; 0x3e800000  0.250
 800a34a:	4bee      	ldr	r3, [pc, #952]	; (800a704 <make_sound.constprop.0+0x1cec>)
 800a34c:	9302      	str	r3, [sp, #8]
 800a34e:	f04f 0a00 	mov.w	sl, #0
 800a352:	f884 a554 	strb.w	sl, [r4, #1364]	; 0x554
 800a356:	f7ff b900 	b.w	800955a <make_sound.constprop.0+0xb42>
 800a35a:	f004 fbff 	bl	800eb5c <rand>
 800a35e:	4242      	negs	r2, r0
 800a360:	f002 020f 	and.w	r2, r2, #15
 800a364:	f000 030f 	and.w	r3, r0, #15
 800a368:	bf58      	it	pl
 800a36a:	4253      	negpl	r3, r2
 800a36c:	b2db      	uxtb	r3, r3
 800a36e:	f1a3 020a 	sub.w	r2, r3, #10
 800a372:	2a01      	cmp	r2, #1
 800a374:	f88b 3094 	strb.w	r3, [fp, #148]	; 0x94
 800a378:	f240 81be 	bls.w	800a6f8 <make_sound.constprop.0+0x1ce0>
 800a37c:	2b04      	cmp	r3, #4
 800a37e:	f47e ac5a 	bne.w	8008c36 <make_sound.constprop.0+0x21e>
 800a382:	4ce1      	ldr	r4, [pc, #900]	; (800a708 <make_sound.constprop.0+0x1cf0>)
 800a384:	ed9f 9ae1 	vldr	s18, [pc, #900]	; 800a70c <make_sound.constprop.0+0x1cf4>
 800a388:	eddf 8ae1 	vldr	s17, [pc, #900]	; 800a710 <make_sound.constprop.0+0x1cf8>
 800a38c:	2300      	movs	r3, #0
 800a38e:	f04f 527e 	mov.w	r2, #1065353216	; 0x3f800000
 800a392:	f8cb 32b0 	str.w	r3, [fp, #688]	; 0x2b0
 800a396:	4699      	mov	r9, r3
 800a398:	f8cb 32ac 	str.w	r3, [fp, #684]	; 0x2ac
 800a39c:	f104 062c 	add.w	r6, r4, #44	; 0x2c
 800a3a0:	f104 0824 	add.w	r8, r4, #36	; 0x24
 800a3a4:	f8cb 2284 	str.w	r2, [fp, #644]	; 0x284
 800a3a8:	f8cb 2280 	str.w	r2, [fp, #640]	; 0x280
 800a3ac:	f004 fbd6 	bl	800eb5c <rand>
 800a3b0:	ee07 0a90 	vmov	s15, r0
 800a3b4:	eef8 7ae7 	vcvt.f32.s32	s15, s15
 800a3b8:	f846 9b04 	str.w	r9, [r6], #4
 800a3bc:	ee67 7aa9 	vmul.f32	s15, s15, s19
 800a3c0:	ee67 7a89 	vmul.f32	s15, s15, s18
 800a3c4:	ee77 7aa8 	vadd.f32	s15, s15, s17
 800a3c8:	ece4 7a01 	vstmia	r4!, {s15}
 800a3cc:	ed9b 7aa0 	vldr	s14, [fp, #640]	; 0x280
 800a3d0:	ee77 7a87 	vadd.f32	s15, s15, s14
 800a3d4:	45a0      	cmp	r8, r4
 800a3d6:	edcb 7aa0 	vstr	s15, [fp, #640]	; 0x280
 800a3da:	d1e7      	bne.n	800a3ac <make_sound.constprop.0+0x1994>
 800a3dc:	eef7 6a00 	vmov.f32	s13, #112	; 0x3f800000  1.0
 800a3e0:	ee86 7aa7 	vdiv.f32	s14, s13, s15
 800a3e4:	ed8b 7aa0 	vstr	s14, [fp, #640]	; 0x280
 800a3e8:	f7fe bc25 	b.w	8008c36 <make_sound.constprop.0+0x21e>
 800a3ec:	eddf 6ac9 	vldr	s13, [pc, #804]	; 800a714 <make_sound.constprop.0+0x1cfc>
 800a3f0:	ed9f 0ac9 	vldr	s0, [pc, #804]	; 800a718 <make_sound.constprop.0+0x1d00>
 800a3f4:	e6bc      	b.n	800a170 <make_sound.constprop.0+0x1758>
 800a3f6:	f8db 1074 	ldr.w	r1, [fp, #116]	; 0x74
 800a3fa:	f8cb 3080 	str.w	r3, [fp, #128]	; 0x80
 800a3fe:	2200      	movs	r2, #0
 800a400:	2303      	movs	r3, #3
 800a402:	e9cb 3222 	strd	r3, r2, [fp, #136]	; 0x88
 800a406:	f8cb 1084 	str.w	r1, [fp, #132]	; 0x84
 800a40a:	f7fe bc02 	b.w	8008c12 <make_sound.constprop.0+0x1fa>
 800a40e:	eeb4 bacd 	vcmpe.f32	s22, s26
 800a412:	eef1 fa10 	vmrs	APSR_nzcv, fpscr
 800a416:	f240 8644 	bls.w	800b0a2 <make_sound.constprop.0+0x268a>
 800a41a:	eeb4 daef 	vcmpe.f32	s26, s31
 800a41e:	eef1 fa10 	vmrs	APSR_nzcv, fpscr
 800a422:	f280 82f4 	bge.w	800aa0e <make_sound.constprop.0+0x1ff6>
 800a426:	eddf 7abd 	vldr	s15, [pc, #756]	; 800a71c <make_sound.constprop.0+0x1d04>
 800a42a:	4ebd      	ldr	r6, [pc, #756]	; (800a720 <make_sound.constprop.0+0x1d08>)
 800a42c:	ee6c 7aa7 	vmul.f32	s15, s25, s15
 800a430:	eecd da0b 	vdiv.f32	s27, s26, s22
 800a434:	f108 030b 	add.w	r3, r8, #11
 800a438:	9303      	str	r3, [sp, #12]
 800a43a:	eec7 eaab 	vdiv.f32	s29, s15, s23
 800a43e:	eeb6 0a00 	vmov.f32	s0, #96	; 0x3f000000  0.5
 800a442:	ee7d dac0 	vsub.f32	s27, s27, s0
 800a446:	ee3e 0ac0 	vsub.f32	s0, s29, s0
 800a44a:	f7ff b918 	b.w	800967e <make_sound.constprop.0+0xc66>
 800a44e:	eeb4 bac9 	vcmpe.f32	s22, s18
 800a452:	eef1 fa10 	vmrs	APSR_nzcv, fpscr
 800a456:	f240 8683 	bls.w	800b160 <make_sound.constprop.0+0x2748>
 800a45a:	eef7 7a00 	vmov.f32	s15, #112	; 0x3f800000  1.0
 800a45e:	eeb4 9ae7 	vcmpe.f32	s18, s15
 800a462:	eef1 fa10 	vmrs	APSR_nzcv, fpscr
 800a466:	f280 832b 	bge.w	800aac0 <make_sound.constprop.0+0x20a8>
 800a46a:	f106 0a0c 	add.w	sl, r6, #12
 800a46e:	f7ff b83f 	b.w	80094f0 <make_sound.constprop.0+0xad8>
 800a472:	ed94 ba04 	vldr	s22, [r4, #16]
 800a476:	ed9f 6aab 	vldr	s12, [pc, #684]	; 800a724 <make_sound.constprop.0+0x1d0c>
 800a47a:	eef7 7a00 	vmov.f32	s15, #112	; 0x3f800000  1.0
 800a47e:	ee3b ba27 	vadd.f32	s22, s22, s15
 800a482:	eef6 7a00 	vmov.f32	s15, #96	; 0x3f000000  0.5
 800a486:	ee2b ba27 	vmul.f32	s22, s22, s15
 800a48a:	eeb4 baea 	vcmpe.f32	s22, s21
 800a48e:	eef1 fa10 	vmrs	APSR_nzcv, fpscr
 800a492:	eef0 7a4b 	vmov.f32	s15, s22
 800a496:	f100 8264 	bmi.w	800a962 <make_sound.constprop.0+0x1f4a>
 800a49a:	eeb0 7a6a 	vmov.f32	s14, s21
 800a49e:	eeb4 bac6 	vcmpe.f32	s22, s12
 800a4a2:	eef1 fa10 	vmrs	APSR_nzcv, fpscr
 800a4a6:	eeb6 da00 	vmov.f32	s26, #96	; 0x3f000000  0.5
 800a4aa:	bfd2      	itee	le
 800a4ac:	ee2b da0d 	vmulle.f32	s26, s22, s26
 800a4b0:	ee26 da0d 	vmulgt.f32	s26, s12, s26
 800a4b4:	eeb0 ba46 	vmovgt.f32	s22, s12
 800a4b8:	e747      	b.n	800a34a <make_sound.constprop.0+0x1932>
 800a4ba:	eeb4 daef 	vcmpe.f32	s26, s31
 800a4be:	eef1 fa10 	vmrs	APSR_nzcv, fpscr
 800a4c2:	f280 84a9 	bge.w	800ae18 <make_sound.constprop.0+0x2400>
 800a4c6:	ee3d 7a4b 	vsub.f32	s14, s26, s22
 800a4ca:	eef6 da00 	vmov.f32	s27, #96	; 0x3f000000  0.5
 800a4ce:	eec7 7a28 	vdiv.f32	s15, s14, s17
 800a4d2:	2300      	movs	r3, #0
 800a4d4:	61a3      	str	r3, [r4, #24]
 800a4d6:	eef0 ca4d 	vmov.f32	s25, s26
 800a4da:	ee7d dae7 	vsub.f32	s27, s27, s15
 800a4de:	f108 030e 	add.w	r3, r8, #14
 800a4e2:	eb04 0383 	add.w	r3, r4, r3, lsl #2
 800a4e6:	edd3 7a01 	vldr	s15, [r3, #4]
 800a4ea:	ed94 9a01 	vldr	s18, [r4, #4]
 800a4ee:	ee77 daad 	vadd.f32	s27, s15, s27
 800a4f2:	eb04 0188 	add.w	r1, r4, r8, lsl #2
 800a4f6:	edc3 da01 	vstr	s27, [r3, #4]
 800a4fa:	edd1 7a0b 	vldr	s15, [r1, #44]	; 0x2c
 800a4fe:	ee77 7acc 	vsub.f32	s15, s15, s24
 800a502:	eeb6 7a00 	vmov.f32	s14, #96	; 0x3f000000  0.5
 800a506:	ee67 7a87 	vmul.f32	s15, s15, s14
 800a50a:	f1b8 0fff 	cmp.w	r8, #255	; 0xff
 800a50e:	ee3c ca27 	vadd.f32	s24, s24, s15
 800a512:	f108 0301 	add.w	r3, r8, #1
 800a516:	ee6c 8a09 	vmul.f32	s17, s24, s18
 800a51a:	edc4 8a00 	vstr	s17, [r4]
 800a51e:	f000 8138 	beq.w	800a792 <make_sound.constprop.0+0x1d7a>
 800a522:	f8c4 354c 	str.w	r3, [r4, #1356]	; 0x54c
 800a526:	9b02      	ldr	r3, [sp, #8]
 800a528:	edc4 ca07 	vstr	s25, [r4, #28]
 800a52c:	edc4 ba08 	vstr	s23, [r4, #32]
 800a530:	ed84 ba09 	vstr	s22, [r4, #36]	; 0x24
 800a534:	ed84 ca0a 	vstr	s24, [r4, #40]	; 0x28
 800a538:	f8c3 a000 	str.w	sl, [r3]
 800a53c:	f7fe be05 	b.w	800914a <make_sound.constprop.0+0x732>
 800a540:	eeb0 ba6a 	vmov.f32	s22, s21
 800a544:	e685      	b.n	800a252 <make_sound.constprop.0+0x183a>
 800a546:	edd4 6a04 	vldr	s13, [r4, #16]
 800a54a:	eef7 7a00 	vmov.f32	s15, #112	; 0x3f800000  1.0
 800a54e:	ee76 6aa7 	vadd.f32	s13, s13, s15
 800a552:	eef6 7a00 	vmov.f32	s15, #96	; 0x3f000000  0.5
 800a556:	ee66 6aa7 	vmul.f32	s13, s13, s15
 800a55a:	eef4 6aea 	vcmpe.f32	s13, s21
 800a55e:	eef1 fa10 	vmrs	APSR_nzcv, fpscr
 800a562:	eef0 7a66 	vmov.f32	s15, s13
 800a566:	f100 81f5 	bmi.w	800a954 <make_sound.constprop.0+0x1f3c>
 800a56a:	eddf 5a6e 	vldr	s11, [pc, #440]	; 800a724 <make_sound.constprop.0+0x1d0c>
 800a56e:	eeb0 6a6a 	vmov.f32	s12, s21
 800a572:	eef4 6a65 	vcmp.f32	s13, s11
 800a576:	eef1 fa10 	vmrs	APSR_nzcv, fpscr
 800a57a:	bfc8      	it	gt
 800a57c:	eef0 6a65 	vmovgt.f32	s13, s11
 800a580:	e626      	b.n	800a1d0 <make_sound.constprop.0+0x17b8>
 800a582:	eeb7 da00 	vmov.f32	s26, #112	; 0x3f800000  1.0
 800a586:	eeb4 9acd 	vcmpe.f32	s18, s26
 800a58a:	eef1 fa10 	vmrs	APSR_nzcv, fpscr
 800a58e:	f280 84a5 	bge.w	800aedc <make_sound.constprop.0+0x24c4>
 800a592:	2300      	movs	r3, #0
 800a594:	eeb0 da49 	vmov.f32	s26, s18
 800a598:	61a3      	str	r3, [r4, #24]
 800a59a:	f106 0a0c 	add.w	sl, r6, #12
 800a59e:	f106 0310 	add.w	r3, r6, #16
 800a5a2:	eb04 0383 	add.w	r3, r4, r3, lsl #2
 800a5a6:	edd3 7a00 	vldr	s15, [r3]
 800a5aa:	ed94 9a01 	vldr	s18, [r4, #4]
 800a5ae:	ee77 7aad 	vadd.f32	s15, s15, s27
 800a5b2:	eb04 0a8a 	add.w	sl, r4, sl, lsl #2
 800a5b6:	edc3 7a00 	vstr	s15, [r3]
 800a5ba:	ed9a ca00 	vldr	s24, [sl]
 800a5be:	ee3c ca6c 	vsub.f32	s24, s24, s25
 800a5c2:	eef6 7a00 	vmov.f32	s15, #96	; 0x3f000000  0.5
 800a5c6:	ee2c ca27 	vmul.f32	s24, s24, s15
 800a5ca:	2eff      	cmp	r6, #255	; 0xff
 800a5cc:	ee3c ca8c 	vadd.f32	s24, s25, s24
 800a5d0:	f106 0301 	add.w	r3, r6, #1
 800a5d4:	ee6c 8a09 	vmul.f32	s17, s24, s18
 800a5d8:	edc4 8a00 	vstr	s17, [r4]
 800a5dc:	f000 80e8 	beq.w	800a7b0 <make_sound.constprop.0+0x1d98>
 800a5e0:	ed84 da07 	vstr	s26, [r4, #28]
 800a5e4:	edc4 ba08 	vstr	s23, [r4, #32]
 800a5e8:	ed84 ba09 	vstr	s22, [r4, #36]	; 0x24
 800a5ec:	edc4 da0a 	vstr	s27, [r4, #40]	; 0x28
 800a5f0:	ed84 ca0b 	vstr	s24, [r4, #44]	; 0x2c
 800a5f4:	f8cb 3d74 	str.w	r3, [fp, #3444]	; 0xd74
 800a5f8:	f8cb 8d78 	str.w	r8, [fp, #3448]	; 0xd78
 800a5fc:	f7fe bda5 	b.w	800914a <make_sound.constprop.0+0x732>
 800a600:	ee78 baeb 	vsub.f32	s23, s17, s23
 800a604:	eddf 6a45 	vldr	s13, [pc, #276]	; 800a71c <make_sound.constprop.0+0x1d04>
 800a608:	4b47      	ldr	r3, [pc, #284]	; (800a728 <make_sound.constprop.0+0x1d10>)
 800a60a:	9302      	str	r3, [sp, #8]
 800a60c:	ee6b 6aa6 	vmul.f32	s13, s23, s13
 800a610:	eecb 7a8b 	vdiv.f32	s15, s23, s22
 800a614:	f8df a114 	ldr.w	sl, [pc, #276]	; 800a72c <make_sound.constprop.0+0x1d14>
 800a618:	eb0a 0889 	add.w	r8, sl, r9, lsl #2
 800a61c:	f508 78a2 	add.w	r8, r8, #324	; 0x144
 800a620:	eec6 8a8b 	vdiv.f32	s17, s13, s22
 800a624:	ee37 7a87 	vadd.f32	s14, s15, s14
 800a628:	eeb6 0a00 	vmov.f32	s0, #96	; 0x3f000000  0.5
 800a62c:	ee38 0ac0 	vsub.f32	s0, s17, s0
 800a630:	ed8b 7abb 	vstr	s14, [fp, #748]	; 0x2ec
 800a634:	f002 ffa0 	bl	800d578 <lrintf>
 800a638:	ee07 0a90 	vmov	s15, r0
 800a63c:	eeb8 6ae7 	vcvt.f32.s32	s12, s15
 800a640:	9b02      	ldr	r3, [sp, #8]
 800a642:	f000 003f 	and.w	r0, r0, #63	; 0x3f
 800a646:	f109 0209 	add.w	r2, r9, #9
 800a64a:	ee38 6ac6 	vsub.f32	s12, s17, s12
 800a64e:	eb03 03c0 	add.w	r3, r3, r0, lsl #3
 800a652:	eb0a 0a82 	add.w	sl, sl, r2, lsl #2
 800a656:	edd3 7a01 	vldr	s15, [r3, #4]
 800a65a:	edd3 6a00 	vldr	s13, [r3]
 800a65e:	ed9a 7a00 	vldr	s14, [sl]
 800a662:	ee66 7a27 	vmul.f32	s15, s12, s15
 800a666:	f503 7300 	add.w	r3, r3, #512	; 0x200
 800a66a:	ee77 7aa6 	vadd.f32	s15, s15, s13
 800a66e:	ee77 7a87 	vadd.f32	s15, s15, s14
 800a672:	ecea 7a01 	vstmia	sl!, {s15}
 800a676:	45d0      	cmp	r8, sl
 800a678:	d1ed      	bne.n	800a656 <make_sound.constprop.0+0x1c3e>
 800a67a:	f7fe bbb0 	b.w	8008dde <make_sound.constprop.0+0x3c6>
 800a67e:	ee78 8ae7 	vsub.f32	s17, s17, s15
 800a682:	ed9f 7a26 	vldr	s14, [pc, #152]	; 800a71c <make_sound.constprop.0+0x1d04>
 800a686:	4b28      	ldr	r3, [pc, #160]	; (800a728 <make_sound.constprop.0+0x1d10>)
 800a688:	9302      	str	r3, [sp, #8]
 800a68a:	ee7b 7aa8 	vadd.f32	s15, s23, s17
 800a68e:	eeb6 0a00 	vmov.f32	s0, #96	; 0x3f000000  0.5
 800a692:	ee67 7a87 	vmul.f32	s15, s15, s14
 800a696:	f8df a094 	ldr.w	sl, [pc, #148]	; 800a72c <make_sound.constprop.0+0x1d14>
 800a69a:	ee87 9a8b 	vdiv.f32	s18, s15, s22
 800a69e:	f10a 0828 	add.w	r8, sl, #40	; 0x28
 800a6a2:	f109 0647 	add.w	r6, r9, #71	; 0x47
 800a6a6:	f109 0409 	add.w	r4, r9, #9
 800a6aa:	ee39 0a40 	vsub.f32	s0, s18, s0
 800a6ae:	f002 ff63 	bl	800d578 <lrintf>
 800a6b2:	ee07 0a90 	vmov	s15, r0
 800a6b6:	eeb8 6ae7 	vcvt.f32.s32	s12, s15
 800a6ba:	9b02      	ldr	r3, [sp, #8]
 800a6bc:	f000 023f 	and.w	r2, r0, #63	; 0x3f
 800a6c0:	ee39 6a46 	vsub.f32	s12, s18, s12
 800a6c4:	eb03 02c2 	add.w	r2, r3, r2, lsl #3
 800a6c8:	eb08 0086 	add.w	r0, r8, r6, lsl #2
 800a6cc:	eb0a 0184 	add.w	r1, sl, r4, lsl #2
 800a6d0:	edd2 7a01 	vldr	s15, [r2, #4]
 800a6d4:	edd2 6a00 	vldr	s13, [r2]
 800a6d8:	ed91 7a00 	vldr	s14, [r1]
 800a6dc:	ee66 7a27 	vmul.f32	s15, s12, s15
 800a6e0:	f502 7200 	add.w	r2, r2, #512	; 0x200
 800a6e4:	ee77 7aa6 	vadd.f32	s15, s15, s13
 800a6e8:	ee77 7a87 	vadd.f32	s15, s15, s14
 800a6ec:	ece1 7a01 	vstmia	r1!, {s15}
 800a6f0:	4288      	cmp	r0, r1
 800a6f2:	d1ed      	bne.n	800a6d0 <make_sound.constprop.0+0x1cb8>
 800a6f4:	f7fe bb41 	b.w	8008d7a <make_sound.constprop.0+0x362>
 800a6f8:	230c      	movs	r3, #12
 800a6fa:	f88b 3094 	strb.w	r3, [fp, #148]	; 0x94
 800a6fe:	f7fe ba9a 	b.w	8008c36 <make_sound.constprop.0+0x21e>
 800a702:	bf00      	nop
 800a704:	100012d0 	.word	0x100012d0
 800a708:	10000288 	.word	0x10000288
 800a70c:	3f7a9fbf 	.word	0x3f7a9fbf
 800a710:	3a83126f 	.word	0x3a83126f
 800a714:	413a1203 	.word	0x413a1203
 800a718:	3ef33333 	.word	0x3ef33333
 800a71c:	42800000 	.word	0x42800000
 800a720:	10000db0 	.word	0x10000db0
 800a724:	3f7fff58 	.word	0x3f7fff58
 800a728:	08014ea8 	.word	0x08014ea8
 800a72c:	100002d8 	.word	0x100002d8
 800a730:	40490fdb 	.word	0x40490fdb
 800a734:	eddb 7a63 	vldr	s15, [fp, #396]	; 0x18c
 800a738:	eef5 7ac0 	vcmpe.f32	s15, #0.0
 800a73c:	eef1 fa10 	vmrs	APSR_nzcv, fpscr
 800a740:	d50d      	bpl.n	800a75e <make_sound.constprop.0+0x1d46>
 800a742:	ee77 7a88 	vadd.f32	s15, s15, s16
 800a746:	eef5 7ac0 	vcmpe.f32	s15, #0.0
 800a74a:	eef1 fa10 	vmrs	APSR_nzcv, fpscr
 800a74e:	d4f8      	bmi.n	800a742 <make_sound.constprop.0+0x1d2a>
 800a750:	eef4 7ac8 	vcmpe.f32	s15, s16
 800a754:	eef1 fa10 	vmrs	APSR_nzcv, fpscr
 800a758:	db06      	blt.n	800a768 <make_sound.constprop.0+0x1d50>
 800a75a:	ee77 7ac8 	vsub.f32	s15, s15, s16
 800a75e:	eef4 7ac8 	vcmpe.f32	s15, s16
 800a762:	eef1 fa10 	vmrs	APSR_nzcv, fpscr
 800a766:	daf8      	bge.n	800a75a <make_sound.constprop.0+0x1d42>
 800a768:	ed1f 7a0f 	vldr	s14, [pc, #-60]	; 800a730 <make_sound.constprop.0+0x1d18>
 800a76c:	eef4 7ac7 	vcmpe.f32	s15, s14
 800a770:	eef1 fa10 	vmrs	APSR_nzcv, fpscr
 800a774:	d559      	bpl.n	800a82a <make_sound.constprop.0+0x1e12>
 800a776:	ee87 9a87 	vdiv.f32	s18, s15, s14
 800a77a:	eddb 8a60 	vldr	s17, [fp, #384]	; 0x180
 800a77e:	eeb6 7a00 	vmov.f32	s14, #96	; 0x3f000000  0.5
 800a782:	ee68 8a87 	vmul.f32	s17, s17, s14
 800a786:	ee68 8a89 	vmul.f32	s17, s17, s18
 800a78a:	ee68 8a89 	vmul.f32	s17, s17, s18
 800a78e:	f7ff b91c 	b.w	80099ca <make_sound.constprop.0+0xfb2>
 800a792:	f44f 7290 	mov.w	r2, #288	; 0x120
 800a796:	f204 412c 	addw	r1, r4, #1068	; 0x42c
 800a79a:	48e9      	ldr	r0, [pc, #932]	; (800ab40 <make_sound.constprop.0+0x2128>)
 800a79c:	f7f5 fd14 	bl	80001c8 <memcpy>
 800a7a0:	48e8      	ldr	r0, [pc, #928]	; (800ab44 <make_sound.constprop.0+0x212c>)
 800a7a2:	f44f 6280 	mov.w	r2, #1024	; 0x400
 800a7a6:	2100      	movs	r1, #0
 800a7a8:	f004 f980 	bl	800eaac <memset>
 800a7ac:	2300      	movs	r3, #0
 800a7ae:	e6b8      	b.n	800a522 <make_sound.constprop.0+0x1b0a>
 800a7b0:	49e5      	ldr	r1, [pc, #916]	; (800ab48 <make_sound.constprop.0+0x2130>)
 800a7b2:	f44f 7290 	mov.w	r2, #288	; 0x120
 800a7b6:	f5a1 6080 	sub.w	r0, r1, #1024	; 0x400
 800a7ba:	f7f5 fd05 	bl	80001c8 <memcpy>
 800a7be:	48e3      	ldr	r0, [pc, #908]	; (800ab4c <make_sound.constprop.0+0x2134>)
 800a7c0:	f44f 6280 	mov.w	r2, #1024	; 0x400
 800a7c4:	2100      	movs	r1, #0
 800a7c6:	f004 f971 	bl	800eaac <memset>
 800a7ca:	2300      	movs	r3, #0
 800a7cc:	e708      	b.n	800a5e0 <make_sound.constprop.0+0x1bc8>
 800a7ce:	49e0      	ldr	r1, [pc, #896]	; (800ab50 <make_sound.constprop.0+0x2138>)
 800a7d0:	f44f 7290 	mov.w	r2, #288	; 0x120
 800a7d4:	f5a1 6080 	sub.w	r0, r1, #1024	; 0x400
 800a7d8:	f7f5 fcf6 	bl	80001c8 <memcpy>
 800a7dc:	48dd      	ldr	r0, [pc, #884]	; (800ab54 <make_sound.constprop.0+0x213c>)
 800a7de:	f44f 6280 	mov.w	r2, #1024	; 0x400
 800a7e2:	2100      	movs	r1, #0
 800a7e4:	f004 f962 	bl	800eaac <memset>
 800a7e8:	2300      	movs	r3, #0
 800a7ea:	f7fe bb1c 	b.w	8008e26 <make_sound.constprop.0+0x40e>
 800a7ee:	eec7 8a87 	vdiv.f32	s17, s15, s14
 800a7f2:	eddb 6a60 	vldr	s13, [fp, #384]	; 0x180
 800a7f6:	eeb0 7a00 	vmov.f32	s14, #0	; 0x40000000  2.0
 800a7fa:	eeb6 6a00 	vmov.f32	s12, #96	; 0x3f000000  0.5
 800a7fe:	ee38 7ac7 	vsub.f32	s14, s17, s14
 800a802:	ee66 8a86 	vmul.f32	s17, s13, s12
 800a806:	ee68 8a87 	vmul.f32	s17, s17, s14
 800a80a:	f7ff b8de 	b.w	80099ca <make_sound.constprop.0+0xfb2>
 800a80e:	eddf 8ad2 	vldr	s17, [pc, #840]	; 800ab58 <make_sound.constprop.0+0x2140>
 800a812:	ed9b 9a60 	vldr	s18, [fp, #384]	; 0x180
 800a816:	ee67 8aa8 	vmul.f32	s17, s15, s17
 800a81a:	eeb0 7a08 	vmov.f32	s14, #8	; 0x40400000  3.0
 800a81e:	ee78 8ac7 	vsub.f32	s17, s17, s14
 800a822:	ee68 8a89 	vmul.f32	s17, s17, s18
 800a826:	f7ff b8d0 	b.w	80099ca <make_sound.constprop.0+0xfb2>
 800a82a:	eec7 8a87 	vdiv.f32	s17, s15, s14
 800a82e:	eeb0 7a00 	vmov.f32	s14, #0	; 0x40000000  2.0
 800a832:	ee38 7ac7 	vsub.f32	s14, s17, s14
 800a836:	eddb 8a60 	vldr	s17, [fp, #384]	; 0x180
 800a83a:	ee67 8a28 	vmul.f32	s17, s14, s17
 800a83e:	eebe 9a00 	vmov.f32	s18, #224	; 0xbf000000 -0.5
 800a842:	ee68 8a87 	vmul.f32	s17, s17, s14
 800a846:	ee68 8a89 	vmul.f32	s17, s17, s18
 800a84a:	f7ff b8be 	b.w	80099ca <make_sound.constprop.0+0xfb2>
 800a84e:	ee3c 7acb 	vsub.f32	s14, s25, s22
 800a852:	eddf 7acc 	vldr	s15, [pc, #816]	; 800ab84 <make_sound.constprop.0+0x216c>
 800a856:	f8df 9324 	ldr.w	r9, [pc, #804]	; 800ab7c <make_sound.constprop.0+0x2164>
 800a85a:	ee67 7a27 	vmul.f32	s15, s14, s15
 800a85e:	eec7 6a28 	vdiv.f32	s13, s14, s17
 800a862:	ee87 daab 	vdiv.f32	s26, s15, s23
 800a866:	eef6 da00 	vmov.f32	s27, #96	; 0x3f000000  0.5
 800a86a:	ee3d 0a6d 	vsub.f32	s0, s26, s27
 800a86e:	ee7d dae6 	vsub.f32	s27, s27, s13
 800a872:	f002 fe81 	bl	800d578 <lrintf>
 800a876:	eeff 7a00 	vmov.f32	s15, #240	; 0xbf800000 -1.0
 800a87a:	eeb7 7a00 	vmov.f32	s14, #112	; 0x3f800000  1.0
 800a87e:	ee87 6aa8 	vdiv.f32	s12, s15, s17
 800a882:	f000 033f 	and.w	r3, r0, #63	; 0x3f
 800a886:	eb09 0983 	add.w	r9, r9, r3, lsl #2
 800a88a:	f108 0346 	add.w	r3, r8, #70	; 0x46
 800a88e:	eb06 0683 	add.w	r6, r6, r3, lsl #2
 800a892:	eec7 7a0b 	vdiv.f32	s15, s14, s22
 800a896:	ee07 0a10 	vmov	s14, r0
 800a89a:	ee36 6a67 	vsub.f32	s12, s12, s15
 800a89e:	eef8 5ac7 	vcvt.f32.s32	s11, s14
 800a8a2:	ee26 6a2b 	vmul.f32	s12, s12, s23
 800a8a6:	ee7d 5a65 	vsub.f32	s11, s26, s11
 800a8aa:	ed99 7a00 	vldr	s14, [r9]
 800a8ae:	edd9 7a01 	vldr	s15, [r9, #4]
 800a8b2:	edda 6a00 	vldr	s13, [sl]
 800a8b6:	ee77 7ac7 	vsub.f32	s15, s15, s14
 800a8ba:	f509 7980 	add.w	r9, r9, #256	; 0x100
 800a8be:	ee67 7aa5 	vmul.f32	s15, s15, s11
 800a8c2:	ee77 7a87 	vadd.f32	s15, s15, s14
 800a8c6:	ee67 7a86 	vmul.f32	s15, s15, s12
 800a8ca:	ee77 7aa6 	vadd.f32	s15, s15, s13
 800a8ce:	ecea 7a01 	vstmia	sl!, {s15}
 800a8d2:	4556      	cmp	r6, sl
 800a8d4:	d1e9      	bne.n	800a8aa <make_sound.constprop.0+0x1e92>
 800a8d6:	f04f 0a01 	mov.w	sl, #1
 800a8da:	f7fe bf0b 	b.w	80096f4 <make_sound.constprop.0+0xcdc>
 800a8de:	ed9f 7aa9 	vldr	s14, [pc, #676]	; 800ab84 <make_sound.constprop.0+0x216c>
 800a8e2:	4b9e      	ldr	r3, [pc, #632]	; (800ab5c <make_sound.constprop.0+0x2144>)
 800a8e4:	9302      	str	r3, [sp, #8]
 800a8e6:	ee7d 7a4b 	vsub.f32	s15, s26, s22
 800a8ea:	eeb6 0a00 	vmov.f32	s0, #96	; 0x3f000000  0.5
 800a8ee:	ee67 7a87 	vmul.f32	s15, s15, s14
 800a8f2:	f8df 928c 	ldr.w	r9, [pc, #652]	; 800ab80 <make_sound.constprop.0+0x2168>
 800a8f6:	ee87 9aab 	vdiv.f32	s18, s15, s23
 800a8fa:	ee39 0a40 	vsub.f32	s0, s18, s0
 800a8fe:	f002 fe3b 	bl	800d578 <lrintf>
 800a902:	ee07 0a90 	vmov	s15, r0
 800a906:	eeb8 6ae7 	vcvt.f32.s32	s12, s15
 800a90a:	9b02      	ldr	r3, [sp, #8]
 800a90c:	f106 0247 	add.w	r2, r6, #71	; 0x47
 800a910:	f000 003f 	and.w	r0, r0, #63	; 0x3f
 800a914:	ee39 6a46 	vsub.f32	s12, s18, s12
 800a918:	eb09 0982 	add.w	r9, r9, r2, lsl #2
 800a91c:	eb03 03c0 	add.w	r3, r3, r0, lsl #3
 800a920:	eb04 028a 	add.w	r2, r4, sl, lsl #2
 800a924:	edd3 7a01 	vldr	s15, [r3, #4]
 800a928:	edd3 6a00 	vldr	s13, [r3]
 800a92c:	ed92 7a00 	vldr	s14, [r2]
 800a930:	ee66 7a27 	vmul.f32	s15, s12, s15
 800a934:	f503 7300 	add.w	r3, r3, #512	; 0x200
 800a938:	ee77 7aa6 	vadd.f32	s15, s15, s13
 800a93c:	ee77 7a67 	vsub.f32	s15, s14, s15
 800a940:	ece2 7a01 	vstmia	r2!, {s15}
 800a944:	4591      	cmp	r9, r2
 800a946:	d1ed      	bne.n	800a924 <make_sound.constprop.0+0x1f0c>
 800a948:	eefe da00 	vmov.f32	s27, #224	; 0xbf000000 -0.5
 800a94c:	f04f 0801 	mov.w	r8, #1
 800a950:	f7fe bdd6 	b.w	8009500 <make_sound.constprop.0+0xae8>
 800a954:	eddf 6a82 	vldr	s13, [pc, #520]	; 800ab60 <make_sound.constprop.0+0x2148>
 800a958:	eddf 5a82 	vldr	s11, [pc, #520]	; 800ab64 <make_sound.constprop.0+0x214c>
 800a95c:	eeb0 6a66 	vmov.f32	s12, s13
 800a960:	e436      	b.n	800a1d0 <make_sound.constprop.0+0x17b8>
 800a962:	ed9f da81 	vldr	s26, [pc, #516]	; 800ab68 <make_sound.constprop.0+0x2150>
 800a966:	eeb0 ba6a 	vmov.f32	s22, s21
 800a96a:	eeb0 7a6a 	vmov.f32	s14, s21
 800a96e:	e4ec      	b.n	800a34a <make_sound.constprop.0+0x1932>
 800a970:	2309      	movs	r3, #9
 800a972:	f88b 3094 	strb.w	r3, [fp, #148]	; 0x94
 800a976:	f99b 3096 	ldrsb.w	r3, [fp, #150]	; 0x96
 800a97a:	f7fe b959 	b.w	8008c30 <make_sound.constprop.0+0x218>
 800a97e:	4c7b      	ldr	r4, [pc, #492]	; (800ab6c <make_sound.constprop.0+0x2154>)
 800a980:	ed9f 9a7b 	vldr	s18, [pc, #492]	; 800ab70 <make_sound.constprop.0+0x2158>
 800a984:	eddf 8a7b 	vldr	s17, [pc, #492]	; 800ab74 <make_sound.constprop.0+0x215c>
 800a988:	2300      	movs	r3, #0
 800a98a:	f04f 527e 	mov.w	r2, #1065353216	; 0x3f800000
 800a98e:	f8cb 32b0 	str.w	r3, [fp, #688]	; 0x2b0
 800a992:	4699      	mov	r9, r3
 800a994:	f8cb 32ac 	str.w	r3, [fp, #684]	; 0x2ac
 800a998:	f104 062c 	add.w	r6, r4, #44	; 0x2c
 800a99c:	f104 0824 	add.w	r8, r4, #36	; 0x24
 800a9a0:	f8cb 2284 	str.w	r2, [fp, #644]	; 0x284
 800a9a4:	f8cb 2280 	str.w	r2, [fp, #640]	; 0x280
 800a9a8:	f004 f8d8 	bl	800eb5c <rand>
 800a9ac:	ee07 0a90 	vmov	s15, r0
 800a9b0:	eef8 7ae7 	vcvt.f32.s32	s15, s15
 800a9b4:	f846 9b04 	str.w	r9, [r6], #4
 800a9b8:	ee67 7aa9 	vmul.f32	s15, s15, s19
 800a9bc:	ee67 7a89 	vmul.f32	s15, s15, s18
 800a9c0:	ee77 7aa8 	vadd.f32	s15, s15, s17
 800a9c4:	ece4 7a01 	vstmia	r4!, {s15}
 800a9c8:	ed9b 7aa0 	vldr	s14, [fp, #640]	; 0x280
 800a9cc:	ee77 7a87 	vadd.f32	s15, s15, s14
 800a9d0:	45a0      	cmp	r8, r4
 800a9d2:	edcb 7aa0 	vstr	s15, [fp, #640]	; 0x280
 800a9d6:	d1e7      	bne.n	800a9a8 <make_sound.constprop.0+0x1f90>
 800a9d8:	eef7 6a00 	vmov.f32	s13, #112	; 0x3f800000  1.0
 800a9dc:	ee86 7aa7 	vdiv.f32	s14, s13, s15
 800a9e0:	2304      	movs	r3, #4
 800a9e2:	f88b 3094 	strb.w	r3, [fp, #148]	; 0x94
 800a9e6:	f99b 3096 	ldrsb.w	r3, [fp, #150]	; 0x96
 800a9ea:	ed8b 7aa0 	vstr	s14, [fp, #640]	; 0x280
 800a9ee:	f7fe b91f 	b.w	8008c30 <make_sound.constprop.0+0x218>
 800a9f2:	230b      	movs	r3, #11
 800a9f4:	f88b 3094 	strb.w	r3, [fp, #148]	; 0x94
 800a9f8:	f99b 3096 	ldrsb.w	r3, [fp, #150]	; 0x96
 800a9fc:	f7fe b918 	b.w	8008c30 <make_sound.constprop.0+0x218>
 800aa00:	220c      	movs	r2, #12
 800aa02:	f99b 3096 	ldrsb.w	r3, [fp, #150]	; 0x96
 800aa06:	f88b 2094 	strb.w	r2, [fp, #148]	; 0x94
 800aa0a:	f7fe b911 	b.w	8008c30 <make_sound.constprop.0+0x218>
 800aa0e:	eecf ea8b 	vdiv.f32	s29, s31, s22
 800aa12:	f108 030b 	add.w	r3, r8, #11
 800aa16:	9303      	str	r3, [sp, #12]
 800aa18:	f8df 9160 	ldr.w	r9, [pc, #352]	; 800ab7c <make_sound.constprop.0+0x2164>
 800aa1c:	4e56      	ldr	r6, [pc, #344]	; (800ab78 <make_sound.constprop.0+0x2160>)
 800aa1e:	f108 0346 	add.w	r3, r8, #70	; 0x46
 800aa22:	9304      	str	r3, [sp, #16]
 800aa24:	eeb7 fa00 	vmov.f32	s30, #112	; 0x3f800000  1.0
 800aa28:	ee3d da4f 	vsub.f32	s26, s26, s30
 800aa2c:	ed9f 7a55 	vldr	s14, [pc, #340]	; 800ab84 <make_sound.constprop.0+0x216c>
 800aa30:	ee7c 7a8d 	vadd.f32	s15, s25, s26
 800aa34:	eecd da0b 	vdiv.f32	s27, s26, s22
 800aa38:	ee67 7a87 	vmul.f32	s15, s15, s14
 800aa3c:	eeb6 0a00 	vmov.f32	s0, #96	; 0x3f000000  0.5
 800aa40:	ee87 eaab 	vdiv.f32	s28, s15, s23
 800aa44:	ee7d dac0 	vsub.f32	s27, s27, s0
 800aa48:	ee3e 0a40 	vsub.f32	s0, s28, s0
 800aa4c:	f002 fd94 	bl	800d578 <lrintf>
 800aa50:	ee8f 6a28 	vdiv.f32	s12, s30, s17
 800aa54:	9b04      	ldr	r3, [sp, #16]
 800aa56:	eb06 0183 	add.w	r1, r6, r3, lsl #2
 800aa5a:	f000 033f 	and.w	r3, r0, #63	; 0x3f
 800aa5e:	eb09 0983 	add.w	r9, r9, r3, lsl #2
 800aa62:	9b03      	ldr	r3, [sp, #12]
 800aa64:	eb04 0383 	add.w	r3, r4, r3, lsl #2
 800aa68:	ee07 0a90 	vmov	s15, r0
 800aa6c:	ee36 6a2e 	vadd.f32	s12, s12, s29
 800aa70:	eef8 5ae7 	vcvt.f32.s32	s11, s15
 800aa74:	ee26 6a2b 	vmul.f32	s12, s12, s23
 800aa78:	ee7e 5a65 	vsub.f32	s11, s28, s11
 800aa7c:	ed99 7a00 	vldr	s14, [r9]
 800aa80:	edd9 7a01 	vldr	s15, [r9, #4]
 800aa84:	edd3 6a00 	vldr	s13, [r3]
 800aa88:	ee77 7ac7 	vsub.f32	s15, s15, s14
 800aa8c:	f509 7980 	add.w	r9, r9, #256	; 0x100
 800aa90:	ee67 7aa5 	vmul.f32	s15, s15, s11
 800aa94:	ee77 7a87 	vadd.f32	s15, s15, s14
 800aa98:	ee67 7a86 	vmul.f32	s15, s15, s12
 800aa9c:	ee77 7aa6 	vadd.f32	s15, s15, s13
 800aaa0:	ece3 7a01 	vstmia	r3!, {s15}
 800aaa4:	4299      	cmp	r1, r3
 800aaa6:	d1e9      	bne.n	800aa7c <make_sound.constprop.0+0x2064>
 800aaa8:	eddf 7a36 	vldr	s15, [pc, #216]	; 800ab84 <make_sound.constprop.0+0x216c>
 800aaac:	ee6c 7aa7 	vmul.f32	s15, s25, s15
 800aab0:	eeb6 0a00 	vmov.f32	s0, #96	; 0x3f000000  0.5
 800aab4:	eec7 eaab 	vdiv.f32	s29, s15, s23
 800aab8:	ee3e 0ac0 	vsub.f32	s0, s29, s0
 800aabc:	f7fe bddf 	b.w	800967e <make_sound.constprop.0+0xc66>
 800aac0:	f106 0247 	add.w	r2, r6, #71	; 0x47
 800aac4:	4b25      	ldr	r3, [pc, #148]	; (800ab5c <make_sound.constprop.0+0x2144>)
 800aac6:	f8df 90b8 	ldr.w	r9, [pc, #184]	; 800ab80 <make_sound.constprop.0+0x2168>
 800aaca:	9202      	str	r2, [sp, #8]
 800aacc:	f106 0a0c 	add.w	sl, r6, #12
 800aad0:	eef7 7a00 	vmov.f32	s15, #112	; 0x3f800000  1.0
 800aad4:	ee79 7a67 	vsub.f32	s15, s18, s15
 800aad8:	ed9f 7a2a 	vldr	s14, [pc, #168]	; 800ab84 <make_sound.constprop.0+0x216c>
 800aadc:	9303      	str	r3, [sp, #12]
 800aade:	ee77 7a8d 	vadd.f32	s15, s15, s26
 800aae2:	eeb6 0a00 	vmov.f32	s0, #96	; 0x3f000000  0.5
 800aae6:	ee67 7a87 	vmul.f32	s15, s15, s14
 800aaea:	ee87 9aab 	vdiv.f32	s18, s15, s23
 800aaee:	ee39 0a40 	vsub.f32	s0, s18, s0
 800aaf2:	f002 fd41 	bl	800d578 <lrintf>
 800aaf6:	ee07 0a90 	vmov	s15, r0
 800aafa:	9b02      	ldr	r3, [sp, #8]
 800aafc:	eeb8 6ae7 	vcvt.f32.s32	s12, s15
 800ab00:	eb09 0983 	add.w	r9, r9, r3, lsl #2
 800ab04:	9b03      	ldr	r3, [sp, #12]
 800ab06:	f000 003f 	and.w	r0, r0, #63	; 0x3f
 800ab0a:	ee39 6a46 	vsub.f32	s12, s18, s12
 800ab0e:	eb03 03c0 	add.w	r3, r3, r0, lsl #3
 800ab12:	eb04 028a 	add.w	r2, r4, sl, lsl #2
 800ab16:	edd3 7a01 	vldr	s15, [r3, #4]
 800ab1a:	edd3 6a00 	vldr	s13, [r3]
 800ab1e:	ed92 7a00 	vldr	s14, [r2]
 800ab22:	ee66 7a27 	vmul.f32	s15, s12, s15
 800ab26:	f503 7300 	add.w	r3, r3, #512	; 0x200
 800ab2a:	ee77 7aa6 	vadd.f32	s15, s15, s13
 800ab2e:	ee77 7a87 	vadd.f32	s15, s15, s14
 800ab32:	ece2 7a01 	vstmia	r2!, {s15}
 800ab36:	4591      	cmp	r9, r2
 800ab38:	d1ed      	bne.n	800ab16 <make_sound.constprop.0+0x20fe>
 800ab3a:	f7fe bcd7 	b.w	80094ec <make_sound.constprop.0+0xad4>
 800ab3e:	bf00      	nop
 800ab40:	10000dac 	.word	0x10000dac
 800ab44:	10000ecc 	.word	0x10000ecc
 800ab48:	10000c54 	.word	0x10000c54
 800ab4c:	10000974 	.word	0x10000974
 800ab50:	100006fc 	.word	0x100006fc
 800ab54:	1000041c 	.word	0x1000041c
 800ab58:	3f22f983 	.word	0x3f22f983
 800ab5c:	08014ea8 	.word	0x08014ea8
 800ab60:	3727c5ac 	.word	0x3727c5ac
 800ab64:	3f7fff58 	.word	0x3f7fff58
 800ab68:	36a7c5ac 	.word	0x36a7c5ac
 800ab6c:	10000288 	.word	0x10000288
 800ab70:	3f7a9fbf 	.word	0x3f7a9fbf
 800ab74:	3a83126f 	.word	0x3a83126f
 800ab78:	10000db0 	.word	0x10000db0
 800ab7c:	080107a4 	.word	0x080107a4
 800ab80:	10000858 	.word	0x10000858
 800ab84:	42800000 	.word	0x42800000
 800ab88:	ee39 9a67 	vsub.f32	s18, s18, s15
 800ab8c:	ed1f 7a03 	vldr	s14, [pc, #-12]	; 800ab84 <make_sound.constprop.0+0x216c>
 800ab90:	4bcc      	ldr	r3, [pc, #816]	; (800aec4 <make_sound.constprop.0+0x24ac>)
 800ab92:	f8df 933c 	ldr.w	r9, [pc, #828]	; 800aed0 <make_sound.constprop.0+0x24b8>
 800ab96:	9304      	str	r3, [sp, #16]
 800ab98:	ee7d 7a09 	vadd.f32	s15, s26, s18
 800ab9c:	f106 0347 	add.w	r3, r6, #71	; 0x47
 800aba0:	ee67 7a87 	vmul.f32	s15, s15, s14
 800aba4:	eeb6 0a00 	vmov.f32	s0, #96	; 0x3f000000  0.5
 800aba8:	ee87 caab 	vdiv.f32	s24, s15, s23
 800abac:	eb09 0283 	add.w	r2, r9, r3, lsl #2
 800abb0:	9302      	str	r3, [sp, #8]
 800abb2:	9203      	str	r2, [sp, #12]
 800abb4:	f106 0a0c 	add.w	sl, r6, #12
 800abb8:	eb04 088a 	add.w	r8, r4, sl, lsl #2
 800abbc:	ee3c 0a40 	vsub.f32	s0, s24, s0
 800abc0:	f002 fcda 	bl	800d578 <lrintf>
 800abc4:	ee07 0a90 	vmov	s15, r0
 800abc8:	eeb8 6ae7 	vcvt.f32.s32	s12, s15
 800abcc:	9b04      	ldr	r3, [sp, #16]
 800abce:	9a03      	ldr	r2, [sp, #12]
 800abd0:	f000 013f 	and.w	r1, r0, #63	; 0x3f
 800abd4:	ee3c 6a46 	vsub.f32	s12, s24, s12
 800abd8:	eb03 01c1 	add.w	r1, r3, r1, lsl #3
 800abdc:	4640      	mov	r0, r8
 800abde:	edd1 7a01 	vldr	s15, [r1, #4]
 800abe2:	edd1 6a00 	vldr	s13, [r1]
 800abe6:	ed90 7a00 	vldr	s14, [r0]
 800abea:	ee66 7a27 	vmul.f32	s15, s12, s15
 800abee:	f501 7100 	add.w	r1, r1, #512	; 0x200
 800abf2:	ee77 7aa6 	vadd.f32	s15, s15, s13
 800abf6:	ee77 7a87 	vadd.f32	s15, s15, s14
 800abfa:	ece0 7a01 	vstmia	r0!, {s15}
 800abfe:	4282      	cmp	r2, r0
 800ac00:	d1ed      	bne.n	800abde <make_sound.constprop.0+0x21c6>
 800ac02:	eeb4 bac9 	vcmpe.f32	s22, s18
 800ac06:	eef1 fa10 	vmrs	APSR_nzcv, fpscr
 800ac0a:	f63e ac6f 	bhi.w	80094ec <make_sound.constprop.0+0xad4>
 800ac0e:	ee79 7a4b 	vsub.f32	s15, s18, s22
 800ac12:	ed9f 7ab1 	vldr	s14, [pc, #708]	; 800aed8 <make_sound.constprop.0+0x24c0>
 800ac16:	ee77 7a8d 	vadd.f32	s15, s15, s26
 800ac1a:	eeb6 0a00 	vmov.f32	s0, #96	; 0x3f000000  0.5
 800ac1e:	ee67 7a87 	vmul.f32	s15, s15, s14
 800ac22:	e9cd 2303 	strd	r2, r3, [sp, #12]
 800ac26:	ee87 9aab 	vdiv.f32	s18, s15, s23
 800ac2a:	ee39 0a40 	vsub.f32	s0, s18, s0
 800ac2e:	f002 fca3 	bl	800d578 <lrintf>
 800ac32:	ee07 0a90 	vmov	s15, r0
 800ac36:	eeb8 6ae7 	vcvt.f32.s32	s12, s15
 800ac3a:	9b04      	ldr	r3, [sp, #16]
 800ac3c:	9a03      	ldr	r2, [sp, #12]
 800ac3e:	f000 013f 	and.w	r1, r0, #63	; 0x3f
 800ac42:	ee39 6a46 	vsub.f32	s12, s18, s12
 800ac46:	eb03 01c1 	add.w	r1, r3, r1, lsl #3
 800ac4a:	edd1 7a01 	vldr	s15, [r1, #4]
 800ac4e:	edd1 6a00 	vldr	s13, [r1]
 800ac52:	ed98 7a00 	vldr	s14, [r8]
 800ac56:	ee66 7a27 	vmul.f32	s15, s12, s15
 800ac5a:	f501 7100 	add.w	r1, r1, #512	; 0x200
 800ac5e:	ee77 7aa6 	vadd.f32	s15, s15, s13
 800ac62:	ee77 7a67 	vsub.f32	s15, s14, s15
 800ac66:	ece8 7a01 	vstmia	r8!, {s15}
 800ac6a:	4542      	cmp	r2, r8
 800ac6c:	d1ed      	bne.n	800ac4a <make_sound.constprop.0+0x2232>
 800ac6e:	f7fe bc0e 	b.w	800948e <make_sound.constprop.0+0xa76>
 800ac72:	ee3d fa6f 	vsub.f32	s30, s26, s31
 800ac76:	ed9f 7a98 	vldr	s14, [pc, #608]	; 800aed8 <make_sound.constprop.0+0x24c0>
 800ac7a:	4e93      	ldr	r6, [pc, #588]	; (800aec8 <make_sound.constprop.0+0x24b0>)
 800ac7c:	f8df 9254 	ldr.w	r9, [pc, #596]	; 800aed4 <make_sound.constprop.0+0x24bc>
 800ac80:	ee7c 7a8f 	vadd.f32	s15, s25, s30
 800ac84:	eecf da0b 	vdiv.f32	s27, s30, s22
 800ac88:	f108 030b 	add.w	r3, r8, #11
 800ac8c:	9303      	str	r3, [sp, #12]
 800ac8e:	eb04 0a83 	add.w	sl, r4, r3, lsl #2
 800ac92:	f108 0346 	add.w	r3, r8, #70	; 0x46
 800ac96:	9304      	str	r3, [sp, #16]
 800ac98:	eb06 0383 	add.w	r3, r6, r3, lsl #2
 800ac9c:	9305      	str	r3, [sp, #20]
 800ac9e:	ee67 7a87 	vmul.f32	s15, s15, s14
 800aca2:	ee8f da8b 	vdiv.f32	s26, s31, s22
 800aca6:	eec7 eaab 	vdiv.f32	s29, s15, s23
 800acaa:	ee8f eaa8 	vdiv.f32	s28, s31, s17
 800acae:	eeb6 7a00 	vmov.f32	s14, #96	; 0x3f000000  0.5
 800acb2:	ee3e 0ac7 	vsub.f32	s0, s29, s14
 800acb6:	ee7d dac7 	vsub.f32	s27, s27, s14
 800acba:	f002 fc5d 	bl	800d578 <lrintf>
 800acbe:	ee07 0a90 	vmov	s15, r0
 800acc2:	ee3e ea0d 	vadd.f32	s28, s28, s26
 800acc6:	eeb8 6ae7 	vcvt.f32.s32	s12, s15
 800acca:	f000 013f 	and.w	r1, r0, #63	; 0x3f
 800acce:	ee2b ea8e 	vmul.f32	s28, s23, s28
 800acd2:	ee3e 6ac6 	vsub.f32	s12, s29, s12
 800acd6:	9b05      	ldr	r3, [sp, #20]
 800acd8:	eb09 0181 	add.w	r1, r9, r1, lsl #2
 800acdc:	4650      	mov	r0, sl
 800acde:	ed91 7a00 	vldr	s14, [r1]
 800ace2:	edd1 7a01 	vldr	s15, [r1, #4]
 800ace6:	edd0 6a00 	vldr	s13, [r0]
 800acea:	ee77 7ac7 	vsub.f32	s15, s15, s14
 800acee:	f501 7180 	add.w	r1, r1, #256	; 0x100
 800acf2:	ee67 7a86 	vmul.f32	s15, s15, s12
 800acf6:	ee77 7a87 	vadd.f32	s15, s15, s14
 800acfa:	ee67 7a8e 	vmul.f32	s15, s15, s28
 800acfe:	ee77 7aa6 	vadd.f32	s15, s15, s13
 800ad02:	ece0 7a01 	vstmia	r0!, {s15}
 800ad06:	4283      	cmp	r3, r0
 800ad08:	d1e9      	bne.n	800acde <make_sound.constprop.0+0x22c6>
 800ad0a:	eeb4 bacf 	vcmpe.f32	s22, s30
 800ad0e:	eef1 fa10 	vmrs	APSR_nzcv, fpscr
 800ad12:	f63f aec9 	bhi.w	800aaa8 <make_sound.constprop.0+0x2090>
 800ad16:	ee3f fa4b 	vsub.f32	s30, s30, s22
 800ad1a:	ed9f 7a6f 	vldr	s14, [pc, #444]	; 800aed8 <make_sound.constprop.0+0x24c0>
 800ad1e:	9305      	str	r3, [sp, #20]
 800ad20:	ee7c 7a8f 	vadd.f32	s15, s25, s30
 800ad24:	eecf da28 	vdiv.f32	s27, s30, s17
 800ad28:	ee67 7a87 	vmul.f32	s15, s15, s14
 800ad2c:	eeb6 0a00 	vmov.f32	s0, #96	; 0x3f000000  0.5
 800ad30:	eec7 eaab 	vdiv.f32	s29, s15, s23
 800ad34:	ee70 da6d 	vsub.f32	s27, s0, s27
 800ad38:	ee3e 0ac0 	vsub.f32	s0, s29, s0
 800ad3c:	f002 fc1c 	bl	800d578 <lrintf>
 800ad40:	eeff 7a00 	vmov.f32	s15, #240	; 0xbf800000 -1.0
 800ad44:	ee87 6aa8 	vdiv.f32	s12, s15, s17
 800ad48:	f000 013f 	and.w	r1, r0, #63	; 0x3f
 800ad4c:	9b05      	ldr	r3, [sp, #20]
 800ad4e:	eb09 0181 	add.w	r1, r9, r1, lsl #2
 800ad52:	ee07 0a90 	vmov	s15, r0
 800ad56:	ee36 6a4d 	vsub.f32	s12, s12, s26
 800ad5a:	eef8 5ae7 	vcvt.f32.s32	s11, s15
 800ad5e:	ee26 6a2b 	vmul.f32	s12, s12, s23
 800ad62:	ee7e 5ae5 	vsub.f32	s11, s29, s11
 800ad66:	ed91 7a00 	vldr	s14, [r1]
 800ad6a:	edd1 7a01 	vldr	s15, [r1, #4]
 800ad6e:	edda 6a00 	vldr	s13, [sl]
 800ad72:	ee77 7ac7 	vsub.f32	s15, s15, s14
 800ad76:	f501 7180 	add.w	r1, r1, #256	; 0x100
 800ad7a:	ee67 7aa5 	vmul.f32	s15, s15, s11
 800ad7e:	ee77 7a87 	vadd.f32	s15, s15, s14
 800ad82:	ee67 7a86 	vmul.f32	s15, s15, s12
 800ad86:	ee77 7aa6 	vadd.f32	s15, s15, s13
 800ad8a:	ecea 7a01 	vstmia	sl!, {s15}
 800ad8e:	4553      	cmp	r3, sl
 800ad90:	d1e9      	bne.n	800ad66 <make_sound.constprop.0+0x234e>
 800ad92:	f7fe bc3e 	b.w	8009612 <make_sound.constprop.0+0xbfa>
 800ad96:	ee39 da4d 	vsub.f32	s26, s18, s26
 800ad9a:	ed9f 7a4f 	vldr	s14, [pc, #316]	; 800aed8 <make_sound.constprop.0+0x24c0>
 800ad9e:	eddf 6a4b 	vldr	s13, [pc, #300]	; 800aecc <make_sound.constprop.0+0x24b4>
 800ada2:	4b48      	ldr	r3, [pc, #288]	; (800aec4 <make_sound.constprop.0+0x24ac>)
 800ada4:	9302      	str	r3, [sp, #8]
 800ada6:	ee2d 7a07 	vmul.f32	s14, s26, s14
 800adaa:	eecd 7a2b 	vdiv.f32	s15, s26, s23
 800adae:	f8df 9120 	ldr.w	r9, [pc, #288]	; 800aed0 <make_sound.constprop.0+0x24b8>
 800adb2:	eec7 8a2b 	vdiv.f32	s17, s14, s23
 800adb6:	ee77 7aa6 	vadd.f32	s15, s15, s13
 800adba:	eeb6 0a00 	vmov.f32	s0, #96	; 0x3f000000  0.5
 800adbe:	ee38 0ac0 	vsub.f32	s0, s17, s0
 800adc2:	edc4 7a06 	vstr	s15, [r4, #24]
 800adc6:	f002 fbd7 	bl	800d578 <lrintf>
 800adca:	ee07 0a90 	vmov	s15, r0
 800adce:	eeb8 6ae7 	vcvt.f32.s32	s12, s15
 800add2:	9b02      	ldr	r3, [sp, #8]
 800add4:	f106 0247 	add.w	r2, r6, #71	; 0x47
 800add8:	f000 003f 	and.w	r0, r0, #63	; 0x3f
 800addc:	ee38 6ac6 	vsub.f32	s12, s17, s12
 800ade0:	eb09 0982 	add.w	r9, r9, r2, lsl #2
 800ade4:	eb03 03c0 	add.w	r3, r3, r0, lsl #3
 800ade8:	eb04 028a 	add.w	r2, r4, sl, lsl #2
 800adec:	edd3 7a01 	vldr	s15, [r3, #4]
 800adf0:	edd3 6a00 	vldr	s13, [r3]
 800adf4:	ed92 7a00 	vldr	s14, [r2]
 800adf8:	ee66 7a27 	vmul.f32	s15, s12, s15
 800adfc:	f503 7300 	add.w	r3, r3, #512	; 0x200
 800ae00:	ee77 7aa6 	vadd.f32	s15, s15, s13
 800ae04:	ee77 7a87 	vadd.f32	s15, s15, s14
 800ae08:	ece2 7a01 	vstmia	r2!, {s15}
 800ae0c:	4591      	cmp	r9, r2
 800ae0e:	d1ed      	bne.n	800adec <make_sound.constprop.0+0x23d4>
 800ae10:	eef6 da00 	vmov.f32	s27, #96	; 0x3f000000  0.5
 800ae14:	f7ff bbc3 	b.w	800a59e <make_sound.constprop.0+0x1b86>
 800ae18:	ee7d ca6f 	vsub.f32	s25, s26, s31
 800ae1c:	ed9f 7a2e 	vldr	s14, [pc, #184]	; 800aed8 <make_sound.constprop.0+0x24c0>
 800ae20:	f8df 90b0 	ldr.w	r9, [pc, #176]	; 800aed4 <make_sound.constprop.0+0x24bc>
 800ae24:	4e28      	ldr	r6, [pc, #160]	; (800aec8 <make_sound.constprop.0+0x24b0>)
 800ae26:	ee2c 7a87 	vmul.f32	s14, s25, s14
 800ae2a:	eecc 7aab 	vdiv.f32	s15, s25, s23
 800ae2e:	f108 0a0b 	add.w	sl, r8, #11
 800ae32:	eb04 0a8a 	add.w	sl, r4, sl, lsl #2
 800ae36:	ee87 da2b 	vdiv.f32	s26, s14, s23
 800ae3a:	eecc da8b 	vdiv.f32	s27, s25, s22
 800ae3e:	ee77 5aa5 	vadd.f32	s11, s15, s11
 800ae42:	eeb6 7a00 	vmov.f32	s14, #96	; 0x3f000000  0.5
 800ae46:	ee3d 0a47 	vsub.f32	s0, s26, s14
 800ae4a:	edc4 5a06 	vstr	s11, [r4, #24]
 800ae4e:	ee8f 9a8b 	vdiv.f32	s18, s31, s22
 800ae52:	ee7d dac7 	vsub.f32	s27, s27, s14
 800ae56:	f002 fb8f 	bl	800d578 <lrintf>
 800ae5a:	ee8f 6aa8 	vdiv.f32	s12, s31, s17
 800ae5e:	f108 0146 	add.w	r1, r8, #70	; 0x46
 800ae62:	f000 033f 	and.w	r3, r0, #63	; 0x3f
 800ae66:	eb06 0681 	add.w	r6, r6, r1, lsl #2
 800ae6a:	eb09 0383 	add.w	r3, r9, r3, lsl #2
 800ae6e:	4651      	mov	r1, sl
 800ae70:	ee07 0a90 	vmov	s15, r0
 800ae74:	ee36 6a09 	vadd.f32	s12, s12, s18
 800ae78:	eef8 5ae7 	vcvt.f32.s32	s11, s15
 800ae7c:	ee26 6a2b 	vmul.f32	s12, s12, s23
 800ae80:	ee7d 5a65 	vsub.f32	s11, s26, s11
 800ae84:	ed93 7a00 	vldr	s14, [r3]
 800ae88:	edd3 7a01 	vldr	s15, [r3, #4]
 800ae8c:	edd1 6a00 	vldr	s13, [r1]
 800ae90:	ee77 7ac7 	vsub.f32	s15, s15, s14
 800ae94:	f503 7380 	add.w	r3, r3, #256	; 0x100
 800ae98:	ee67 7aa5 	vmul.f32	s15, s15, s11
 800ae9c:	ee77 7a87 	vadd.f32	s15, s15, s14
 800aea0:	ee67 7a86 	vmul.f32	s15, s15, s12
 800aea4:	ee77 7aa6 	vadd.f32	s15, s15, s13
 800aea8:	ece1 7a01 	vstmia	r1!, {s15}
 800aeac:	428e      	cmp	r6, r1
 800aeae:	d1e9      	bne.n	800ae84 <make_sound.constprop.0+0x246c>
 800aeb0:	eeb4 baec 	vcmpe.f32	s22, s25
 800aeb4:	eef1 fa10 	vmrs	APSR_nzcv, fpscr
 800aeb8:	f240 81e0 	bls.w	800b27c <make_sound.constprop.0+0x2864>
 800aebc:	f04f 0a00 	mov.w	sl, #0
 800aec0:	f7ff bb0d 	b.w	800a4de <make_sound.constprop.0+0x1ac6>
 800aec4:	08014ea8 	.word	0x08014ea8
 800aec8:	10000db0 	.word	0x10000db0
 800aecc:	1e3ce508 	.word	0x1e3ce508
 800aed0:	10000858 	.word	0x10000858
 800aed4:	080107a4 	.word	0x080107a4
 800aed8:	42800000 	.word	0x42800000
 800aedc:	ee39 da4d 	vsub.f32	s26, s18, s26
 800aee0:	ed1f 7a03 	vldr	s14, [pc, #-12]	; 800aed8 <make_sound.constprop.0+0x24c0>
 800aee4:	4bde      	ldr	r3, [pc, #888]	; (800b260 <make_sound.constprop.0+0x2848>)
 800aee6:	9302      	str	r3, [sp, #8]
 800aee8:	ee2d 7a07 	vmul.f32	s14, s26, s14
 800aeec:	eecd 7a2b 	vdiv.f32	s15, s26, s23
 800aef0:	f8df 9378 	ldr.w	r9, [pc, #888]	; 800b26c <make_sound.constprop.0+0x2854>
 800aef4:	f106 0a0c 	add.w	sl, r6, #12
 800aef8:	eb04 088a 	add.w	r8, r4, sl, lsl #2
 800aefc:	eec7 8a2b 	vdiv.f32	s17, s14, s23
 800af00:	ee37 5a85 	vadd.f32	s10, s15, s10
 800af04:	eeb6 0a00 	vmov.f32	s0, #96	; 0x3f000000  0.5
 800af08:	ee38 0ac0 	vsub.f32	s0, s17, s0
 800af0c:	ed84 5a06 	vstr	s10, [r4, #24]
 800af10:	f002 fb32 	bl	800d578 <lrintf>
 800af14:	ee07 0a90 	vmov	s15, r0
 800af18:	eeb8 6ae7 	vcvt.f32.s32	s12, s15
 800af1c:	9b02      	ldr	r3, [sp, #8]
 800af1e:	f000 023f 	and.w	r2, r0, #63	; 0x3f
 800af22:	ee38 6ac6 	vsub.f32	s12, s17, s12
 800af26:	f106 0047 	add.w	r0, r6, #71	; 0x47
 800af2a:	eb03 02c2 	add.w	r2, r3, r2, lsl #3
 800af2e:	4641      	mov	r1, r8
 800af30:	eb09 0980 	add.w	r9, r9, r0, lsl #2
 800af34:	edd2 7a01 	vldr	s15, [r2, #4]
 800af38:	edd2 6a00 	vldr	s13, [r2]
 800af3c:	ed91 7a00 	vldr	s14, [r1]
 800af40:	ee66 7a27 	vmul.f32	s15, s12, s15
 800af44:	f502 7200 	add.w	r2, r2, #512	; 0x200
 800af48:	ee77 7aa6 	vadd.f32	s15, s15, s13
 800af4c:	ee77 7a87 	vadd.f32	s15, s15, s14
 800af50:	ece1 7a01 	vstmia	r1!, {s15}
 800af54:	4589      	cmp	r9, r1
 800af56:	d1ed      	bne.n	800af34 <make_sound.constprop.0+0x251c>
 800af58:	eeb4 bacd 	vcmpe.f32	s22, s26
 800af5c:	eef1 fa10 	vmrs	APSR_nzcv, fpscr
 800af60:	f240 81ca 	bls.w	800b2f8 <make_sound.constprop.0+0x28e0>
 800af64:	eef6 da00 	vmov.f32	s27, #96	; 0x3f000000  0.5
 800af68:	f04f 0800 	mov.w	r8, #0
 800af6c:	f7ff bb17 	b.w	800a59e <make_sound.constprop.0+0x1b86>
 800af70:	ee7d ca4e 	vsub.f32	s25, s26, s28
 800af74:	ed9f 7abf 	vldr	s14, [pc, #764]	; 800b274 <make_sound.constprop.0+0x285c>
 800af78:	eddf 6aba 	vldr	s13, [pc, #744]	; 800b264 <make_sound.constprop.0+0x284c>
 800af7c:	f8df 92f0 	ldr.w	r9, [pc, #752]	; 800b270 <make_sound.constprop.0+0x2858>
 800af80:	4eb9      	ldr	r6, [pc, #740]	; (800b268 <make_sound.constprop.0+0x2850>)
 800af82:	ee2c 7a87 	vmul.f32	s14, s25, s14
 800af86:	eecc 7aab 	vdiv.f32	s15, s25, s23
 800af8a:	ee87 9a2b 	vdiv.f32	s18, s14, s23
 800af8e:	eecc da8b 	vdiv.f32	s27, s25, s22
 800af92:	eeb6 7a00 	vmov.f32	s14, #96	; 0x3f000000  0.5
 800af96:	ee77 7aa6 	vadd.f32	s15, s15, s13
 800af9a:	ee39 0a47 	vsub.f32	s0, s18, s14
 800af9e:	ee7d dac7 	vsub.f32	s27, s27, s14
 800afa2:	edc4 7a06 	vstr	s15, [r4, #24]
 800afa6:	f002 fae7 	bl	800d578 <lrintf>
 800afaa:	eece 7a28 	vdiv.f32	s15, s28, s17
 800afae:	f000 033f 	and.w	r3, r0, #63	; 0x3f
 800afb2:	eb09 0983 	add.w	r9, r9, r3, lsl #2
 800afb6:	f108 0346 	add.w	r3, r8, #70	; 0x46
 800afba:	eb06 0683 	add.w	r6, r6, r3, lsl #2
 800afbe:	f108 030b 	add.w	r3, r8, #11
 800afc2:	eb04 0383 	add.w	r3, r4, r3, lsl #2
 800afc6:	ee8e 6a0b 	vdiv.f32	s12, s28, s22
 800afca:	ee07 0a10 	vmov	s14, r0
 800afce:	ee36 6a27 	vadd.f32	s12, s12, s15
 800afd2:	eef8 5ac7 	vcvt.f32.s32	s11, s14
 800afd6:	ee26 6a2b 	vmul.f32	s12, s12, s23
 800afda:	ee79 5a65 	vsub.f32	s11, s18, s11
 800afde:	ed99 7a00 	vldr	s14, [r9]
 800afe2:	edd9 7a01 	vldr	s15, [r9, #4]
 800afe6:	edd3 6a00 	vldr	s13, [r3]
 800afea:	ee77 7ac7 	vsub.f32	s15, s15, s14
 800afee:	f509 7980 	add.w	r9, r9, #256	; 0x100
 800aff2:	ee67 7aa5 	vmul.f32	s15, s15, s11
 800aff6:	ee77 7a87 	vadd.f32	s15, s15, s14
 800affa:	ee67 7a86 	vmul.f32	s15, s15, s12
 800affe:	ee77 7aa6 	vadd.f32	s15, s15, s13
 800b002:	ece3 7a01 	vstmia	r3!, {s15}
 800b006:	429e      	cmp	r6, r3
 800b008:	d1e9      	bne.n	800afde <make_sound.constprop.0+0x25c6>
 800b00a:	f7ff ba68 	b.w	800a4de <make_sound.constprop.0+0x1ac6>
 800b00e:	ee3d 7a4b 	vsub.f32	s14, s26, s22
 800b012:	eddf 7a98 	vldr	s15, [pc, #608]	; 800b274 <make_sound.constprop.0+0x285c>
 800b016:	f8df 9258 	ldr.w	r9, [pc, #600]	; 800b270 <make_sound.constprop.0+0x2858>
 800b01a:	4e93      	ldr	r6, [pc, #588]	; (800b268 <make_sound.constprop.0+0x2850>)
 800b01c:	ee67 7a27 	vmul.f32	s15, s14, s15
 800b020:	eec7 6a28 	vdiv.f32	s13, s14, s17
 800b024:	ee87 9aab 	vdiv.f32	s18, s15, s23
 800b028:	eef6 da00 	vmov.f32	s27, #96	; 0x3f000000  0.5
 800b02c:	ee39 0a6d 	vsub.f32	s0, s18, s27
 800b030:	ee7d dae6 	vsub.f32	s27, s27, s13
 800b034:	f002 faa0 	bl	800d578 <lrintf>
 800b038:	eebf 7a00 	vmov.f32	s14, #240	; 0xbf800000 -1.0
 800b03c:	ee87 6a28 	vdiv.f32	s12, s14, s17
 800b040:	f000 033f 	and.w	r3, r0, #63	; 0x3f
 800b044:	eb09 0983 	add.w	r9, r9, r3, lsl #2
 800b048:	f108 0346 	add.w	r3, r8, #70	; 0x46
 800b04c:	eb06 0683 	add.w	r6, r6, r3, lsl #2
 800b050:	f108 030b 	add.w	r3, r8, #11
 800b054:	eb04 0383 	add.w	r3, r4, r3, lsl #2
 800b058:	eecf 7a8b 	vdiv.f32	s15, s31, s22
 800b05c:	ee07 0a10 	vmov	s14, r0
 800b060:	ee36 6a67 	vsub.f32	s12, s12, s15
 800b064:	eef8 5ac7 	vcvt.f32.s32	s11, s14
 800b068:	ee26 6a2b 	vmul.f32	s12, s12, s23
 800b06c:	ee79 5a65 	vsub.f32	s11, s18, s11
 800b070:	ed99 7a00 	vldr	s14, [r9]
 800b074:	edd9 7a01 	vldr	s15, [r9, #4]
 800b078:	edd3 6a00 	vldr	s13, [r3]
 800b07c:	ee77 7ac7 	vsub.f32	s15, s15, s14
 800b080:	f509 7980 	add.w	r9, r9, #256	; 0x100
 800b084:	ee67 7aa5 	vmul.f32	s15, s15, s11
 800b088:	ee77 7a87 	vadd.f32	s15, s15, s14
 800b08c:	ee67 7a86 	vmul.f32	s15, s15, s12
 800b090:	ee77 7aa6 	vadd.f32	s15, s15, s13
 800b094:	ece3 7a01 	vstmia	r3!, {s15}
 800b098:	429e      	cmp	r6, r3
 800b09a:	d1e9      	bne.n	800b070 <make_sound.constprop.0+0x2658>
 800b09c:	2301      	movs	r3, #1
 800b09e:	f7ff b91a 	b.w	800a2d6 <make_sound.constprop.0+0x18be>
 800b0a2:	ee3d fa4b 	vsub.f32	s30, s26, s22
 800b0a6:	ed9f 7a73 	vldr	s14, [pc, #460]	; 800b274 <make_sound.constprop.0+0x285c>
 800b0aa:	f8df 91c4 	ldr.w	r9, [pc, #452]	; 800b270 <make_sound.constprop.0+0x2858>
 800b0ae:	4e6e      	ldr	r6, [pc, #440]	; (800b268 <make_sound.constprop.0+0x2850>)
 800b0b0:	ee7c 7a8f 	vadd.f32	s15, s25, s30
 800b0b4:	eeb6 0a00 	vmov.f32	s0, #96	; 0x3f000000  0.5
 800b0b8:	ee67 7a87 	vmul.f32	s15, s15, s14
 800b0bc:	f108 0346 	add.w	r3, r8, #70	; 0x46
 800b0c0:	eec7 daab 	vdiv.f32	s27, s15, s23
 800b0c4:	f108 010b 	add.w	r1, r8, #11
 800b0c8:	9304      	str	r3, [sp, #16]
 800b0ca:	9103      	str	r1, [sp, #12]
 800b0cc:	eecf ea8b 	vdiv.f32	s29, s31, s22
 800b0d0:	ee3d 0ac0 	vsub.f32	s0, s27, s0
 800b0d4:	f002 fa50 	bl	800d578 <lrintf>
 800b0d8:	eeff 7a00 	vmov.f32	s15, #240	; 0xbf800000 -1.0
 800b0dc:	ee87 6aa8 	vdiv.f32	s12, s15, s17
 800b0e0:	9a04      	ldr	r2, [sp, #16]
 800b0e2:	9903      	ldr	r1, [sp, #12]
 800b0e4:	f000 033f 	and.w	r3, r0, #63	; 0x3f
 800b0e8:	eb09 0383 	add.w	r3, r9, r3, lsl #2
 800b0ec:	eb06 0c82 	add.w	ip, r6, r2, lsl #2
 800b0f0:	eb04 0181 	add.w	r1, r4, r1, lsl #2
 800b0f4:	ee07 0a90 	vmov	s15, r0
 800b0f8:	ee36 6a6e 	vsub.f32	s12, s12, s29
 800b0fc:	eef8 5ae7 	vcvt.f32.s32	s11, s15
 800b100:	ee26 6a2b 	vmul.f32	s12, s12, s23
 800b104:	ee7d 5ae5 	vsub.f32	s11, s27, s11
 800b108:	ed93 7a00 	vldr	s14, [r3]
 800b10c:	edd3 7a01 	vldr	s15, [r3, #4]
 800b110:	edd1 6a00 	vldr	s13, [r1]
 800b114:	ee77 7ac7 	vsub.f32	s15, s15, s14
 800b118:	f503 7380 	add.w	r3, r3, #256	; 0x100
 800b11c:	ee67 7aa5 	vmul.f32	s15, s15, s11
 800b120:	ee77 7a87 	vadd.f32	s15, s15, s14
 800b124:	ee67 7a86 	vmul.f32	s15, s15, s12
 800b128:	ee77 7aa6 	vadd.f32	s15, s15, s13
 800b12c:	ece1 7a01 	vstmia	r1!, {s15}
 800b130:	458c      	cmp	ip, r1
 800b132:	d1e9      	bne.n	800b108 <make_sound.constprop.0+0x26f0>
 800b134:	eef7 7a00 	vmov.f32	s15, #112	; 0x3f800000  1.0
 800b138:	eeb4 dae7 	vcmpe.f32	s26, s15
 800b13c:	eef1 fa10 	vmrs	APSR_nzcv, fpscr
 800b140:	f6bf ac70 	bge.w	800aa24 <make_sound.constprop.0+0x200c>
 800b144:	ee87 eaa8 	vdiv.f32	s28, s15, s17
 800b148:	eecf 7a28 	vdiv.f32	s15, s30, s17
 800b14c:	ee3e ea2e 	vadd.f32	s28, s28, s29
 800b150:	eeb6 da00 	vmov.f32	s26, #96	; 0x3f000000  0.5
 800b154:	ee2b ea8e 	vmul.f32	s28, s23, s28
 800b158:	ee7d da67 	vsub.f32	s27, s26, s15
 800b15c:	f7fe ba59 	b.w	8009612 <make_sound.constprop.0+0xbfa>
 800b160:	ee79 7a4b 	vsub.f32	s15, s18, s22
 800b164:	ed9f 7a43 	vldr	s14, [pc, #268]	; 800b274 <make_sound.constprop.0+0x285c>
 800b168:	4b3d      	ldr	r3, [pc, #244]	; (800b260 <make_sound.constprop.0+0x2848>)
 800b16a:	9303      	str	r3, [sp, #12]
 800b16c:	ee77 7a8d 	vadd.f32	s15, s15, s26
 800b170:	eeb6 0a00 	vmov.f32	s0, #96	; 0x3f000000  0.5
 800b174:	ee67 7a87 	vmul.f32	s15, s15, s14
 800b178:	f106 0347 	add.w	r3, r6, #71	; 0x47
 800b17c:	ee87 caab 	vdiv.f32	s24, s15, s23
 800b180:	9302      	str	r3, [sp, #8]
 800b182:	f8df 90e8 	ldr.w	r9, [pc, #232]	; 800b26c <make_sound.constprop.0+0x2854>
 800b186:	f106 0a0c 	add.w	sl, r6, #12
 800b18a:	ee3c 0a40 	vsub.f32	s0, s24, s0
 800b18e:	f002 f9f3 	bl	800d578 <lrintf>
 800b192:	ee07 0a90 	vmov	s15, r0
 800b196:	eeb8 6ae7 	vcvt.f32.s32	s12, s15
 800b19a:	9902      	ldr	r1, [sp, #8]
 800b19c:	9b03      	ldr	r3, [sp, #12]
 800b19e:	f000 023f 	and.w	r2, r0, #63	; 0x3f
 800b1a2:	ee3c 6a46 	vsub.f32	s12, s24, s12
 800b1a6:	eb09 0081 	add.w	r0, r9, r1, lsl #2
 800b1aa:	eb03 02c2 	add.w	r2, r3, r2, lsl #3
 800b1ae:	eb04 018a 	add.w	r1, r4, sl, lsl #2
 800b1b2:	edd2 7a01 	vldr	s15, [r2, #4]
 800b1b6:	edd2 6a00 	vldr	s13, [r2]
 800b1ba:	ed91 7a00 	vldr	s14, [r1]
 800b1be:	ee66 7a27 	vmul.f32	s15, s12, s15
 800b1c2:	f502 7200 	add.w	r2, r2, #512	; 0x200
 800b1c6:	ee77 7aa6 	vadd.f32	s15, s15, s13
 800b1ca:	ee77 7a67 	vsub.f32	s15, s14, s15
 800b1ce:	ece1 7a01 	vstmia	r1!, {s15}
 800b1d2:	4288      	cmp	r0, r1
 800b1d4:	d1ed      	bne.n	800b1b2 <make_sound.constprop.0+0x279a>
 800b1d6:	eef7 7a00 	vmov.f32	s15, #112	; 0x3f800000  1.0
 800b1da:	eeb4 9ae7 	vcmpe.f32	s18, s15
 800b1de:	eef1 fa10 	vmrs	APSR_nzcv, fpscr
 800b1e2:	f6fe a954 	blt.w	800948e <make_sound.constprop.0+0xa76>
 800b1e6:	e473      	b.n	800aad0 <make_sound.constprop.0+0x20b8>
 800b1e8:	ed9f 7a22 	vldr	s14, [pc, #136]	; 800b274 <make_sound.constprop.0+0x285c>
 800b1ec:	4b1c      	ldr	r3, [pc, #112]	; (800b260 <make_sound.constprop.0+0x2848>)
 800b1ee:	9302      	str	r3, [sp, #8]
 800b1f0:	ee79 7a4b 	vsub.f32	s15, s18, s22
 800b1f4:	eeb6 0a00 	vmov.f32	s0, #96	; 0x3f000000  0.5
 800b1f8:	ee67 7a87 	vmul.f32	s15, s15, s14
 800b1fc:	f8df 906c 	ldr.w	r9, [pc, #108]	; 800b26c <make_sound.constprop.0+0x2854>
 800b200:	eec7 8aab 	vdiv.f32	s17, s15, s23
 800b204:	f106 0a0c 	add.w	sl, r6, #12
 800b208:	ee38 0ac0 	vsub.f32	s0, s17, s0
 800b20c:	f002 f9b4 	bl	800d578 <lrintf>
 800b210:	ee07 0a90 	vmov	s15, r0
 800b214:	eeb8 6ae7 	vcvt.f32.s32	s12, s15
 800b218:	9b02      	ldr	r3, [sp, #8]
 800b21a:	f106 0247 	add.w	r2, r6, #71	; 0x47
 800b21e:	f000 003f 	and.w	r0, r0, #63	; 0x3f
 800b222:	ee38 6ac6 	vsub.f32	s12, s17, s12
 800b226:	eb09 0982 	add.w	r9, r9, r2, lsl #2
 800b22a:	eb03 03c0 	add.w	r3, r3, r0, lsl #3
 800b22e:	eb04 028a 	add.w	r2, r4, sl, lsl #2
 800b232:	edd3 7a01 	vldr	s15, [r3, #4]
 800b236:	edd3 6a00 	vldr	s13, [r3]
 800b23a:	ed92 7a00 	vldr	s14, [r2]
 800b23e:	ee66 7a27 	vmul.f32	s15, s12, s15
 800b242:	f503 7300 	add.w	r3, r3, #512	; 0x200
 800b246:	ee77 7aa6 	vadd.f32	s15, s15, s13
 800b24a:	ee77 7a67 	vsub.f32	s15, s14, s15
 800b24e:	ece2 7a01 	vstmia	r2!, {s15}
 800b252:	4591      	cmp	r9, r2
 800b254:	d1ed      	bne.n	800b232 <make_sound.constprop.0+0x281a>
 800b256:	eefe da00 	vmov.f32	s27, #224	; 0xbf000000 -0.5
 800b25a:	2301      	movs	r3, #1
 800b25c:	f7ff b81c 	b.w	800a298 <make_sound.constprop.0+0x1880>
 800b260:	08014ea8 	.word	0x08014ea8
 800b264:	1e3ce508 	.word	0x1e3ce508
 800b268:	10000db0 	.word	0x10000db0
 800b26c:	10000858 	.word	0x10000858
 800b270:	080107a4 	.word	0x080107a4
 800b274:	42800000 	.word	0x42800000
 800b278:	00000000 	.word	0x00000000
 800b27c:	ee3c 7acb 	vsub.f32	s14, s25, s22
 800b280:	ed5f 7a04 	vldr	s15, [pc, #-16]	; 800b274 <make_sound.constprop.0+0x285c>
 800b284:	ee67 7a27 	vmul.f32	s15, s14, s15
 800b288:	eec7 6a28 	vdiv.f32	s13, s14, s17
 800b28c:	ee87 daab 	vdiv.f32	s26, s15, s23
 800b290:	eef6 da00 	vmov.f32	s27, #96	; 0x3f000000  0.5
 800b294:	ee3d 0a6d 	vsub.f32	s0, s26, s27
 800b298:	ee7d dae6 	vsub.f32	s27, s27, s13
 800b29c:	f002 f96c 	bl	800d578 <lrintf>
 800b2a0:	eeff 7a00 	vmov.f32	s15, #240	; 0xbf800000 -1.0
 800b2a4:	ee87 6aa8 	vdiv.f32	s12, s15, s17
 800b2a8:	f000 033f 	and.w	r3, r0, #63	; 0x3f
 800b2ac:	eb09 0983 	add.w	r9, r9, r3, lsl #2
 800b2b0:	ee07 0a90 	vmov	s15, r0
 800b2b4:	ee36 6a49 	vsub.f32	s12, s12, s18
 800b2b8:	eef8 5ae7 	vcvt.f32.s32	s11, s15
 800b2bc:	ee26 6a2b 	vmul.f32	s12, s12, s23
 800b2c0:	ee7d 5a65 	vsub.f32	s11, s26, s11
 800b2c4:	ed99 7a00 	vldr	s14, [r9]
 800b2c8:	edd9 7a01 	vldr	s15, [r9, #4]
 800b2cc:	edda 6a00 	vldr	s13, [sl]
 800b2d0:	ee77 7ac7 	vsub.f32	s15, s15, s14
 800b2d4:	f509 7980 	add.w	r9, r9, #256	; 0x100
 800b2d8:	ee67 7aa5 	vmul.f32	s15, s15, s11
 800b2dc:	ee77 7a87 	vadd.f32	s15, s15, s14
 800b2e0:	ee67 7a86 	vmul.f32	s15, s15, s12
 800b2e4:	ee77 7aa6 	vadd.f32	s15, s15, s13
 800b2e8:	ecea 7a01 	vstmia	sl!, {s15}
 800b2ec:	4556      	cmp	r6, sl
 800b2ee:	d1e9      	bne.n	800b2c4 <make_sound.constprop.0+0x28ac>
 800b2f0:	f04f 0a01 	mov.w	sl, #1
 800b2f4:	f7ff b8f3 	b.w	800a4de <make_sound.constprop.0+0x1ac6>
 800b2f8:	ed1f 7a22 	vldr	s14, [pc, #-136]	; 800b274 <make_sound.constprop.0+0x285c>
 800b2fc:	9302      	str	r3, [sp, #8]
 800b2fe:	ee7d 7a4b 	vsub.f32	s15, s26, s22
 800b302:	eeb6 0a00 	vmov.f32	s0, #96	; 0x3f000000  0.5
 800b306:	ee67 7a87 	vmul.f32	s15, s15, s14
 800b30a:	eec7 8aab 	vdiv.f32	s17, s15, s23
 800b30e:	ee38 0ac0 	vsub.f32	s0, s17, s0
 800b312:	f002 f931 	bl	800d578 <lrintf>
 800b316:	ee07 0a90 	vmov	s15, r0
 800b31a:	eeb8 6ae7 	vcvt.f32.s32	s12, s15
 800b31e:	9b02      	ldr	r3, [sp, #8]
 800b320:	f000 003f 	and.w	r0, r0, #63	; 0x3f
 800b324:	ee38 6ac6 	vsub.f32	s12, s17, s12
 800b328:	eb03 03c0 	add.w	r3, r3, r0, lsl #3
 800b32c:	edd3 7a01 	vldr	s15, [r3, #4]
 800b330:	edd3 6a00 	vldr	s13, [r3]
 800b334:	ed98 7a00 	vldr	s14, [r8]
 800b338:	ee66 7a27 	vmul.f32	s15, s12, s15
 800b33c:	f503 7300 	add.w	r3, r3, #512	; 0x200
 800b340:	ee77 7aa6 	vadd.f32	s15, s15, s13
 800b344:	ee77 7a67 	vsub.f32	s15, s14, s15
 800b348:	ece8 7a01 	vstmia	r8!, {s15}
 800b34c:	45c1      	cmp	r9, r8
 800b34e:	d1ed      	bne.n	800b32c <make_sound.constprop.0+0x2914>
 800b350:	eefe da00 	vmov.f32	s27, #224	; 0xbf000000 -0.5
 800b354:	f04f 0801 	mov.w	r8, #1
 800b358:	f7ff b921 	b.w	800a59e <make_sound.constprop.0+0x1b86>
 800b35c:	edd4 7a04 	vldr	s15, [r4, #16]
 800b360:	eeb7 7a00 	vmov.f32	s14, #112	; 0x3f800000  1.0
 800b364:	ee77 7a87 	vadd.f32	s15, s15, s14
 800b368:	ee67 7a86 	vmul.f32	s15, s15, s12
 800b36c:	ee37 6a66 	vsub.f32	s12, s14, s13
 800b370:	eef4 6ae7 	vcmpe.f32	s13, s15
 800b374:	eef1 fa10 	vmrs	APSR_nzcv, fpscr
 800b378:	eeb0 7a66 	vmov.f32	s14, s13
 800b37c:	bfd4      	ite	le
 800b37e:	eeb0 ba67 	vmovle.f32	s22, s15
 800b382:	eeb0 ba66 	vmovgt.f32	s22, s13
 800b386:	f7ff b88a 	b.w	800a49e <make_sound.constprop.0+0x1a86>
 800b38a:	edd4 7a04 	vldr	s15, [r4, #16]
 800b38e:	eef7 6a00 	vmov.f32	s13, #112	; 0x3f800000  1.0
 800b392:	ee77 7aa6 	vadd.f32	s15, s15, s13
 800b396:	eeb0 6a47 	vmov.f32	s12, s14
 800b39a:	ee67 7aa5 	vmul.f32	s15, s15, s11
 800b39e:	ee76 5ac7 	vsub.f32	s11, s13, s14
 800b3a2:	eeb4 7ae7 	vcmpe.f32	s14, s15
 800b3a6:	eef1 fa10 	vmrs	APSR_nzcv, fpscr
 800b3aa:	bfd4      	ite	le
 800b3ac:	eef0 6a67 	vmovle.f32	s13, s15
 800b3b0:	eef0 6a47 	vmovgt.f32	s13, s14
 800b3b4:	f7ff b8dd 	b.w	800a572 <make_sound.constprop.0+0x1b5a>
 800b3b8:	4603      	mov	r3, r0
 800b3ba:	f7fe be30 	b.w	800a01e <make_sound.constprop.0+0x1606>
 800b3be:	ed5f 8a52 	vldr	s17, [pc, #-328]	; 800b278 <make_sound.constprop.0+0x2860>
 800b3c2:	f7fd bec2 	b.w	800914a <make_sound.constprop.0+0x732>
 800b3c6:	bf00      	nop

0800b3c8 <I2S_DMATxHalfCplt>:
I2S_DMATxHalfCplt():
 800b3c8:	6b82      	ldr	r2, [r0, #56]	; 0x38
 800b3ca:	b538      	push	{r3, r4, r5, lr}
 800b3cc:	6812      	ldr	r2, [r2, #0]
 800b3ce:	4b06      	ldr	r3, [pc, #24]	; (800b3e8 <I2S_DMATxHalfCplt+0x20>)
 800b3d0:	429a      	cmp	r2, r3
 800b3d2:	d000      	beq.n	800b3d6 <I2S_DMATxHalfCplt+0xe>
 800b3d4:	bd38      	pop	{r3, r4, r5, pc}
 800b3d6:	4c05      	ldr	r4, [pc, #20]	; (800b3ec <I2S_DMATxHalfCplt+0x24>)
 800b3d8:	4805      	ldr	r0, [pc, #20]	; (800b3f0 <I2S_DMATxHalfCplt+0x28>)
 800b3da:	f44f 5500 	mov.w	r5, #8192	; 0x2000
 800b3de:	8365      	strh	r5, [r4, #26]
 800b3e0:	f7fd fb1a 	bl	8008a18 <make_sound.constprop.0>
 800b3e4:	8325      	strh	r5, [r4, #24]
 800b3e6:	bd38      	pop	{r3, r4, r5, pc}
 800b3e8:	40003c00 	.word	0x40003c00
 800b3ec:	40020c00 	.word	0x40020c00
 800b3f0:	20000968 	.word	0x20000968

0800b3f4 <I2S_DMATxCplt>:
I2S_DMATxCplt():
 800b3f4:	b538      	push	{r3, r4, r5, lr}
 800b3f6:	6803      	ldr	r3, [r0, #0]
 800b3f8:	6b82      	ldr	r2, [r0, #56]	; 0x38
 800b3fa:	681b      	ldr	r3, [r3, #0]
 800b3fc:	6811      	ldr	r1, [r2, #0]
 800b3fe:	f413 7380 	ands.w	r3, r3, #256	; 0x100
 800b402:	d10e      	bne.n	800b422 <I2S_DMATxCplt+0x2e>
 800b404:	8553      	strh	r3, [r2, #42]	; 0x2a
 800b406:	684b      	ldr	r3, [r1, #4]
 800b408:	6a10      	ldr	r0, [r2, #32]
 800b40a:	f023 0302 	bic.w	r3, r3, #2
 800b40e:	2801      	cmp	r0, #1
 800b410:	604b      	str	r3, [r1, #4]
 800b412:	d013      	beq.n	800b43c <I2S_DMATxCplt+0x48>
 800b414:	f892 303d 	ldrb.w	r3, [r2, #61]	; 0x3d
 800b418:	2b32      	cmp	r3, #50	; 0x32
 800b41a:	d01d      	beq.n	800b458 <I2S_DMATxCplt+0x64>
 800b41c:	2301      	movs	r3, #1
 800b41e:	f882 303d 	strb.w	r3, [r2, #61]	; 0x3d
 800b422:	4b10      	ldr	r3, [pc, #64]	; (800b464 <I2S_DMATxCplt+0x70>)
 800b424:	4299      	cmp	r1, r3
 800b426:	d000      	beq.n	800b42a <I2S_DMATxCplt+0x36>
 800b428:	bd38      	pop	{r3, r4, r5, pc}
 800b42a:	4c0f      	ldr	r4, [pc, #60]	; (800b468 <I2S_DMATxCplt+0x74>)
 800b42c:	480f      	ldr	r0, [pc, #60]	; (800b46c <I2S_DMATxCplt+0x78>)
 800b42e:	f44f 5500 	mov.w	r5, #8192	; 0x2000
 800b432:	8365      	strh	r5, [r4, #26]
 800b434:	f7fd faf0 	bl	8008a18 <make_sound.constprop.0>
 800b438:	8325      	strh	r5, [r4, #24]
 800b43a:	bd38      	pop	{r3, r4, r5, pc}
 800b43c:	480c      	ldr	r0, [pc, #48]	; (800b470 <I2S_DMATxCplt+0x7c>)
 800b43e:	4b0d      	ldr	r3, [pc, #52]	; (800b474 <I2S_DMATxCplt+0x80>)
 800b440:	4281      	cmp	r1, r0
 800b442:	bf18      	it	ne
 800b444:	f04f 2340 	movne.w	r3, #1073758208	; 0x40004000
 800b448:	6858      	ldr	r0, [r3, #4]
 800b44a:	f020 0001 	bic.w	r0, r0, #1
 800b44e:	6058      	str	r0, [r3, #4]
 800b450:	f892 303d 	ldrb.w	r3, [r2, #61]	; 0x3d
 800b454:	2b32      	cmp	r3, #50	; 0x32
 800b456:	d1e1      	bne.n	800b41c <I2S_DMATxCplt+0x28>
 800b458:	8e53      	ldrh	r3, [r2, #50]	; 0x32
 800b45a:	b29b      	uxth	r3, r3
 800b45c:	2b00      	cmp	r3, #0
 800b45e:	d1e0      	bne.n	800b422 <I2S_DMATxCplt+0x2e>
 800b460:	e7dc      	b.n	800b41c <I2S_DMATxCplt+0x28>
 800b462:	bf00      	nop
 800b464:	40003c00 	.word	0x40003c00
 800b468:	40020c00 	.word	0x40020c00
 800b46c:	20001138 	.word	0x20001138
 800b470:	40003800 	.word	0x40003800
 800b474:	40003400 	.word	0x40003400

0800b478 <USBH_MIDI_SOFProcess.lto_priv.0>:
USBH_MIDI_SOFProcess.lto_priv.0():
 800b478:	2000      	movs	r0, #0
 800b47a:	4770      	bx	lr

0800b47c <USBH_MIDI_ClassRequest.lto_priv.0>:
USBH_MIDI_ClassRequest.lto_priv.0():
 800b47c:	b508      	push	{r3, lr}
 800b47e:	2102      	movs	r1, #2
 800b480:	f8d0 3614 	ldr.w	r3, [r0, #1556]	; 0x614
 800b484:	4798      	blx	r3
 800b486:	2000      	movs	r0, #0
 800b488:	bd08      	pop	{r3, pc}
 800b48a:	bf00      	nop

0800b48c <USBH_MIDI_InterfaceInit.lto_priv.0>:
USBH_MIDI_InterfaceInit.lto_priv.0():
 800b48c:	e92d 4ff0 	stmdb	sp!, {r4, r5, r6, r7, r8, r9, sl, fp, lr}
 800b490:	f890 3241 	ldrb.w	r3, [r0, #577]	; 0x241
 800b494:	2b01      	cmp	r3, #1
 800b496:	b087      	sub	sp, #28
 800b498:	4607      	mov	r7, r0
 800b49a:	f000 81d0 	beq.w	800b83e <USBH_MIDI_InterfaceInit.lto_priv.0+0x3b2>
 800b49e:	f897 329b 	ldrb.w	r3, [r7, #667]	; 0x29b
 800b4a2:	2b01      	cmp	r3, #1
 800b4a4:	f000 81da 	beq.w	800b85c <USBH_MIDI_InterfaceInit.lto_priv.0+0x3d0>
 800b4a8:	f897 32f5 	ldrb.w	r3, [r7, #757]	; 0x2f5
 800b4ac:	2b01      	cmp	r3, #1
 800b4ae:	f000 81df 	beq.w	800b870 <USBH_MIDI_InterfaceInit.lto_priv.0+0x3e4>
 800b4b2:	f897 334f 	ldrb.w	r3, [r7, #847]	; 0x34f
 800b4b6:	2b01      	cmp	r3, #1
 800b4b8:	d021      	beq.n	800b4fe <USBH_MIDI_InterfaceInit.lto_priv.0+0x72>
 800b4ba:	f897 33a9 	ldrb.w	r3, [r7, #937]	; 0x3a9
 800b4be:	2b01      	cmp	r3, #1
 800b4c0:	f000 81b6 	beq.w	800b830 <USBH_MIDI_InterfaceInit.lto_priv.0+0x3a4>
 800b4c4:	f897 3403 	ldrb.w	r3, [r7, #1027]	; 0x403
 800b4c8:	2b01      	cmp	r3, #1
 800b4ca:	f000 81ee 	beq.w	800b8aa <USBH_MIDI_InterfaceInit.lto_priv.0+0x41e>
 800b4ce:	f897 345d 	ldrb.w	r3, [r7, #1117]	; 0x45d
 800b4d2:	2b01      	cmp	r3, #1
 800b4d4:	f000 81f0 	beq.w	800b8b8 <USBH_MIDI_InterfaceInit.lto_priv.0+0x42c>
 800b4d8:	f897 34b7 	ldrb.w	r3, [r7, #1207]	; 0x4b7
 800b4dc:	2b01      	cmp	r3, #1
 800b4de:	f000 81f2 	beq.w	800b8c6 <USBH_MIDI_InterfaceInit.lto_priv.0+0x43a>
 800b4e2:	f897 3511 	ldrb.w	r3, [r7, #1297]	; 0x511
 800b4e6:	2b01      	cmp	r3, #1
 800b4e8:	f000 81f9 	beq.w	800b8de <USBH_MIDI_InterfaceInit.lto_priv.0+0x452>
 800b4ec:	f897 356b 	ldrb.w	r3, [r7, #1387]	; 0x56b
 800b4f0:	2b01      	cmp	r3, #1
 800b4f2:	f000 81fb 	beq.w	800b8ec <USBH_MIDI_InterfaceInit.lto_priv.0+0x460>
 800b4f6:	2002      	movs	r0, #2
 800b4f8:	b007      	add	sp, #28
 800b4fa:	e8bd 8ff0 	ldmia.w	sp!, {r4, r5, r6, r7, r8, r9, sl, fp, pc}
 800b4fe:	f897 3350 	ldrb.w	r3, [r7, #848]	; 0x350
 800b502:	2b03      	cmp	r3, #3
 800b504:	d1d9      	bne.n	800b4ba <USBH_MIDI_InterfaceInit.lto_priv.0+0x2e>
 800b506:	f897 2236 	ldrb.w	r2, [r7, #566]	; 0x236
 800b50a:	429a      	cmp	r2, r3
 800b50c:	b2d9      	uxtb	r1, r3
 800b50e:	d901      	bls.n	800b514 <USBH_MIDI_InterfaceInit.lto_priv.0+0x88>
 800b510:	f887 121f 	strb.w	r1, [r7, #543]	; 0x21f
 800b514:	201c      	movs	r0, #28
 800b516:	f8d7 45c4 	ldr.w	r4, [r7, #1476]	; 0x5c4
 800b51a:	f003 fbad 	bl	800ec78 <malloc>
 800b51e:	4603      	mov	r3, r0
 800b520:	61e0      	str	r0, [r4, #28]
 800b522:	2800      	cmp	r0, #0
 800b524:	d0e7      	beq.n	800b4f6 <USBH_MIDI_InterfaceInit.lto_priv.0+0x6a>
 800b526:	f897 121f 	ldrb.w	r1, [r7, #543]	; 0x21f
 800b52a:	205a      	movs	r0, #90	; 0x5a
 800b52c:	fb00 7001 	mla	r0, r0, r1, r7
 800b530:	2200      	movs	r2, #0
 800b532:	f990 5248 	ldrsb.w	r5, [r0, #584]	; 0x248
 800b536:	619a      	str	r2, [r3, #24]
 800b538:	4295      	cmp	r5, r2
 800b53a:	e9c3 2200 	strd	r2, r2, [r3]
 800b53e:	e9c3 2202 	strd	r2, r2, [r3, #8]
 800b542:	e9c3 2204 	strd	r2, r2, [r3, #16]
 800b546:	f8b0 224a 	ldrh.w	r2, [r0, #586]	; 0x24a
 800b54a:	bfb4      	ite	lt
 800b54c:	811a      	strhlt	r2, [r3, #8]
 800b54e:	80da      	strhge	r2, [r3, #6]
 800b550:	f04f 025a 	mov.w	r2, #90	; 0x5a
 800b554:	fb02 7201 	mla	r2, r2, r1, r7
 800b558:	f890 4248 	ldrb.w	r4, [r0, #584]	; 0x248
 800b55c:	f992 1250 	ldrsb.w	r1, [r2, #592]	; 0x250
 800b560:	bfb4      	ite	lt
 800b562:	711c      	strblt	r4, [r3, #4]
 800b564:	70dc      	strbge	r4, [r3, #3]
 800b566:	2900      	cmp	r1, #0
 800b568:	f892 8250 	ldrb.w	r8, [r2, #592]	; 0x250
 800b56c:	f2c0 8187 	blt.w	800b87e <USBH_MIDI_InterfaceInit.lto_priv.0+0x3f2>
 800b570:	f8b2 4252 	ldrh.w	r4, [r2, #594]	; 0x252
 800b574:	f893 b004 	ldrb.w	fp, [r3, #4]
 800b578:	80dc      	strh	r4, [r3, #6]
 800b57a:	f883 8003 	strb.w	r8, [r3, #3]
 800b57e:	f8d7 25cc 	ldr.w	r2, [r7, #1484]	; 0x5cc
 800b582:	f412 4e00 	ands.w	lr, r2, #32768	; 0x8000
 800b586:	f000 81ba 	beq.w	800b8fe <USBH_MIDI_InterfaceInit.lto_priv.0+0x472>
 800b58a:	f8d7 15d0 	ldr.w	r1, [r7, #1488]	; 0x5d0
 800b58e:	0408      	lsls	r0, r1, #16
 800b590:	f140 81cc 	bpl.w	800b92c <USBH_MIDI_InterfaceInit.lto_priv.0+0x4a0>
 800b594:	f8d7 15d4 	ldr.w	r1, [r7, #1492]	; 0x5d4
 800b598:	0409      	lsls	r1, r1, #16
 800b59a:	f140 81cc 	bpl.w	800b936 <USBH_MIDI_InterfaceInit.lto_priv.0+0x4aa>
 800b59e:	f8d7 15d8 	ldr.w	r1, [r7, #1496]	; 0x5d8
 800b5a2:	040e      	lsls	r6, r1, #16
 800b5a4:	f140 81d2 	bpl.w	800b94c <USBH_MIDI_InterfaceInit.lto_priv.0+0x4c0>
 800b5a8:	f8d7 15dc 	ldr.w	r1, [r7, #1500]	; 0x5dc
 800b5ac:	040d      	lsls	r5, r1, #16
 800b5ae:	f140 81d5 	bpl.w	800b95c <USBH_MIDI_InterfaceInit.lto_priv.0+0x4d0>
 800b5b2:	f8d7 15e0 	ldr.w	r1, [r7, #1504]	; 0x5e0
 800b5b6:	0408      	lsls	r0, r1, #16
 800b5b8:	f140 81d8 	bpl.w	800b96c <USBH_MIDI_InterfaceInit.lto_priv.0+0x4e0>
 800b5bc:	f8d7 15e4 	ldr.w	r1, [r7, #1508]	; 0x5e4
 800b5c0:	0409      	lsls	r1, r1, #16
 800b5c2:	f140 81d8 	bpl.w	800b976 <USBH_MIDI_InterfaceInit.lto_priv.0+0x4ea>
 800b5c6:	f8d7 15e8 	ldr.w	r1, [r7, #1512]	; 0x5e8
 800b5ca:	040e      	lsls	r6, r1, #16
 800b5cc:	f140 81de 	bpl.w	800b98c <USBH_MIDI_InterfaceInit.lto_priv.0+0x500>
 800b5d0:	f8d7 15ec 	ldr.w	r1, [r7, #1516]	; 0x5ec
 800b5d4:	040d      	lsls	r5, r1, #16
 800b5d6:	f140 81e1 	bpl.w	800b99c <USBH_MIDI_InterfaceInit.lto_priv.0+0x510>
 800b5da:	f8d7 15f0 	ldr.w	r1, [r7, #1520]	; 0x5f0
 800b5de:	0408      	lsls	r0, r1, #16
 800b5e0:	f140 818b 	bpl.w	800b8fa <USBH_MIDI_InterfaceInit.lto_priv.0+0x46e>
 800b5e4:	f8d7 15f4 	ldr.w	r1, [r7, #1524]	; 0x5f4
 800b5e8:	0409      	lsls	r1, r1, #16
 800b5ea:	f140 81df 	bpl.w	800b9ac <USBH_MIDI_InterfaceInit.lto_priv.0+0x520>
 800b5ee:	21ff      	movs	r1, #255	; 0xff
 800b5f0:	9100      	str	r1, [sp, #0]
 800b5f2:	468e      	mov	lr, r1
 800b5f4:	f412 4200 	ands.w	r2, r2, #32768	; 0x8000
 800b5f8:	f883 e002 	strb.w	lr, [r3, #2]
 800b5fc:	f000 818b 	beq.w	800b916 <USBH_MIDI_InterfaceInit.lto_priv.0+0x48a>
 800b600:	f8d7 25d0 	ldr.w	r2, [r7, #1488]	; 0x5d0
 800b604:	0416      	lsls	r6, r2, #16
 800b606:	f140 818e 	bpl.w	800b926 <USBH_MIDI_InterfaceInit.lto_priv.0+0x49a>
 800b60a:	f8d7 25d4 	ldr.w	r2, [r7, #1492]	; 0x5d4
 800b60e:	0415      	lsls	r5, r2, #16
 800b610:	f140 8196 	bpl.w	800b940 <USBH_MIDI_InterfaceInit.lto_priv.0+0x4b4>
 800b614:	f8d7 25d8 	ldr.w	r2, [r7, #1496]	; 0x5d8
 800b618:	0410      	lsls	r0, r2, #16
 800b61a:	f140 8194 	bpl.w	800b946 <USBH_MIDI_InterfaceInit.lto_priv.0+0x4ba>
 800b61e:	f8d7 25dc 	ldr.w	r2, [r7, #1500]	; 0x5dc
 800b622:	0411      	lsls	r1, r2, #16
 800b624:	f140 8197 	bpl.w	800b956 <USBH_MIDI_InterfaceInit.lto_priv.0+0x4ca>
 800b628:	f8d7 25e0 	ldr.w	r2, [r7, #1504]	; 0x5e0
 800b62c:	0412      	lsls	r2, r2, #16
 800b62e:	f140 819a 	bpl.w	800b966 <USBH_MIDI_InterfaceInit.lto_priv.0+0x4da>
 800b632:	f8d7 25e4 	ldr.w	r2, [r7, #1508]	; 0x5e4
 800b636:	0416      	lsls	r6, r2, #16
 800b638:	f140 81a2 	bpl.w	800b980 <USBH_MIDI_InterfaceInit.lto_priv.0+0x4f4>
 800b63c:	f8d7 25e8 	ldr.w	r2, [r7, #1512]	; 0x5e8
 800b640:	0415      	lsls	r5, r2, #16
 800b642:	f140 81a0 	bpl.w	800b986 <USBH_MIDI_InterfaceInit.lto_priv.0+0x4fa>
 800b646:	f8d7 25ec 	ldr.w	r2, [r7, #1516]	; 0x5ec
 800b64a:	0410      	lsls	r0, r2, #16
 800b64c:	f140 81a3 	bpl.w	800b996 <USBH_MIDI_InterfaceInit.lto_priv.0+0x50a>
 800b650:	f8d7 25f0 	ldr.w	r2, [r7, #1520]	; 0x5f0
 800b654:	0411      	lsls	r1, r2, #16
 800b656:	f140 815d 	bpl.w	800b914 <USBH_MIDI_InterfaceInit.lto_priv.0+0x488>
 800b65a:	f8d7 25f4 	ldr.w	r2, [r7, #1524]	; 0x5f4
 800b65e:	0412      	lsls	r2, r2, #16
 800b660:	f140 81a1 	bpl.w	800b9a6 <USBH_MIDI_InterfaceInit.lto_priv.0+0x51a>
 800b664:	26ff      	movs	r6, #255	; 0xff
 800b666:	4632      	mov	r2, r6
 800b668:	f8d7 a610 	ldr.w	sl, [r7, #1552]	; 0x610
 800b66c:	705a      	strb	r2, [r3, #1]
 800b66e:	f89a 1288 	ldrb.w	r1, [sl, #648]	; 0x288
 800b672:	2901      	cmp	r1, #1
 800b674:	f000 812e 	beq.w	800b8d4 <USBH_MIDI_InterfaceInit.lto_priv.0+0x448>
 800b678:	9900      	ldr	r1, [sp, #0]
 800b67a:	eb01 0081 	add.w	r0, r1, r1, lsl #2
 800b67e:	eb0a 00c0 	add.w	r0, sl, r0, lsl #3
 800b682:	f897 121c 	ldrb.w	r1, [r7, #540]	; 0x21c
 800b686:	f897 721d 	ldrb.w	r7, [r7, #541]	; 0x21d
 800b68a:	f880 7034 	strb.w	r7, [r0, #52]	; 0x34
 800b68e:	460d      	mov	r5, r1
 800b690:	f04f 0c02 	mov.w	ip, #2
 800b694:	9103      	str	r1, [sp, #12]
 800b696:	9701      	str	r7, [sp, #4]
 800b698:	ea4f 11d8 	mov.w	r1, r8, lsr #7
 800b69c:	f008 077f 	and.w	r7, r8, #127	; 0x7f
 800b6a0:	f880 5030 	strb.w	r5, [r0, #48]	; 0x30
 800b6a4:	f880 e031 	strb.w	lr, [r0, #49]	; 0x31
 800b6a8:	f880 c037 	strb.w	ip, [r0, #55]	; 0x37
 800b6ac:	f880 7032 	strb.w	r7, [r0, #50]	; 0x32
 800b6b0:	f880 1033 	strb.w	r1, [r0, #51]	; 0x33
 800b6b4:	f8da 7000 	ldr.w	r7, [sl]
 800b6b8:	9d00      	ldr	r5, [sp, #0]
 800b6ba:	8704      	strh	r4, [r0, #56]	; 0x38
 800b6bc:	f507 60a0 	add.w	r0, r7, #1280	; 0x500
 800b6c0:	eb00 1e4e 	add.w	lr, r0, lr, lsl #5
 800b6c4:	9005      	str	r0, [sp, #20]
 800b6c6:	f04f 3cff 	mov.w	ip, #4294967295	; 0xffffffff
 800b6ca:	f240 409d 	movw	r0, #1181	; 0x49d
 800b6ce:	00ad      	lsls	r5, r5, #2
 800b6d0:	f8ce c008 	str.w	ip, [lr, #8]
 800b6d4:	9504      	str	r5, [sp, #16]
 800b6d6:	f8ce 000c 	str.w	r0, [lr, #12]
 800b6da:	fa4f f088 	sxtb.w	r0, r8
 800b6de:	2900      	cmp	r1, #0
 800b6e0:	f040 80dc 	bne.w	800b89c <USBH_MIDI_InterfaceInit.lto_priv.0+0x410>
 800b6e4:	f1b7 4fa0 	cmp.w	r7, #1342177280	; 0x50000000
 800b6e8:	d005      	beq.n	800b6f6 <USBH_MIDI_InterfaceInit.lto_priv.0+0x26a>
 800b6ea:	f8de 100c 	ldr.w	r1, [lr, #12]
 800b6ee:	f041 0160 	orr.w	r1, r1, #96	; 0x60
 800b6f2:	f8ce 100c 	str.w	r1, [lr, #12]
 800b6f6:	9d00      	ldr	r5, [sp, #0]
 800b6f8:	f8d7 9418 	ldr.w	r9, [r7, #1048]	; 0x418
 800b6fc:	2101      	movs	r1, #1
 800b6fe:	40a9      	lsls	r1, r5
 800b700:	ea41 0109 	orr.w	r1, r1, r9
 800b704:	f8c7 1418 	str.w	r1, [r7, #1048]	; 0x418
 800b708:	69b9      	ldr	r1, [r7, #24]
 800b70a:	f041 7500 	orr.w	r5, r1, #33554432	; 0x2000000
 800b70e:	9903      	ldr	r1, [sp, #12]
 800b710:	61bd      	str	r5, [r7, #24]
 800b712:	0589      	lsls	r1, r1, #22
 800b714:	f001 51fe 	and.w	r1, r1, #532676608	; 0x1fc00000
 800b718:	9102      	str	r1, [sp, #8]
 800b71a:	9901      	ldr	r1, [sp, #4]
 800b71c:	9d03      	ldr	r5, [sp, #12]
 800b71e:	2902      	cmp	r1, #2
 800b720:	9902      	ldr	r1, [sp, #8]
 800b722:	ea4f 28c8 	mov.w	r8, r8, lsl #11
 800b726:	bf08      	it	eq
 800b728:	f441 3100 	orreq.w	r1, r1, #131072	; 0x20000
 800b72c:	f3c4 040a 	ubfx	r4, r4, #0, #11
 800b730:	f408 49f0 	and.w	r9, r8, #30720	; 0x7800
 800b734:	f400 4000 	and.w	r0, r0, #32768	; 0x8000
 800b738:	ea44 0801 	orr.w	r8, r4, r1
 800b73c:	ea48 0800 	orr.w	r8, r8, r0
 800b740:	9905      	ldr	r1, [sp, #20]
 800b742:	eb06 0086 	add.w	r0, r6, r6, lsl #2
 800b746:	eb0a 00c0 	add.w	r0, sl, r0, lsl #3
 800b74a:	ea48 0809 	orr.w	r8, r8, r9
 800b74e:	eb01 1442 	add.w	r4, r1, r2, lsl #5
 800b752:	f448 2800 	orr.w	r8, r8, #524288	; 0x80000
 800b756:	8919      	ldrh	r1, [r3, #8]
 800b758:	f8ce 8000 	str.w	r8, [lr]
 800b75c:	f04f 0902 	mov.w	r9, #2
 800b760:	f880 5030 	strb.w	r5, [r0, #48]	; 0x30
 800b764:	f880 2031 	strb.w	r2, [r0, #49]	; 0x31
 800b768:	ea4f 1edb 	mov.w	lr, fp, lsr #7
 800b76c:	9a01      	ldr	r2, [sp, #4]
 800b76e:	f880 2034 	strb.w	r2, [r0, #52]	; 0x34
 800b772:	f04f 35ff 	mov.w	r5, #4294967295	; 0xffffffff
 800b776:	f00b 087f 	and.w	r8, fp, #127	; 0x7f
 800b77a:	f880 e033 	strb.w	lr, [r0, #51]	; 0x33
 800b77e:	8701      	strh	r1, [r0, #56]	; 0x38
 800b780:	f880 9037 	strb.w	r9, [r0, #55]	; 0x37
 800b784:	f880 8032 	strb.w	r8, [r0, #50]	; 0x32
 800b788:	4672      	mov	r2, lr
 800b78a:	60a5      	str	r5, [r4, #8]
 800b78c:	f240 459d 	movw	r5, #1181	; 0x49d
 800b790:	f507 6c80 	add.w	ip, r7, #1024	; 0x400
 800b794:	fa06 f009 	lsl.w	r0, r6, r9
 800b798:	fa4f fe8b 	sxtb.w	lr, fp
 800b79c:	60e5      	str	r5, [r4, #12]
 800b79e:	2a00      	cmp	r2, #0
 800b7a0:	d177      	bne.n	800b892 <USBH_MIDI_InterfaceInit.lto_priv.0+0x406>
 800b7a2:	f1b7 4fa0 	cmp.w	r7, #1342177280	; 0x50000000
 800b7a6:	d003      	beq.n	800b7b0 <USBH_MIDI_InterfaceInit.lto_priv.0+0x324>
 800b7a8:	68e2      	ldr	r2, [r4, #12]
 800b7aa:	f042 0260 	orr.w	r2, r2, #96	; 0x60
 800b7ae:	60e2      	str	r2, [r4, #12]
 800b7b0:	f8dc 8018 	ldr.w	r8, [ip, #24]
 800b7b4:	2201      	movs	r2, #1
 800b7b6:	40b2      	lsls	r2, r6
 800b7b8:	ea42 0208 	orr.w	r2, r2, r8
 800b7bc:	f8cc 2018 	str.w	r2, [ip, #24]
 800b7c0:	69ba      	ldr	r2, [r7, #24]
 800b7c2:	f042 7200 	orr.w	r2, r2, #33554432	; 0x2000000
 800b7c6:	61ba      	str	r2, [r7, #24]
 800b7c8:	9a01      	ldr	r2, [sp, #4]
 800b7ca:	ea4f 2ccb 	mov.w	ip, fp, lsl #11
 800b7ce:	2a02      	cmp	r2, #2
 800b7d0:	f40c 4cf0 	and.w	ip, ip, #30720	; 0x7800
 800b7d4:	f40e 4e00 	and.w	lr, lr, #32768	; 0x8000
 800b7d8:	d103      	bne.n	800b7e2 <USBH_MIDI_InterfaceInit.lto_priv.0+0x356>
 800b7da:	9a02      	ldr	r2, [sp, #8]
 800b7dc:	f442 3200 	orr.w	r2, r2, #131072	; 0x20000
 800b7e0:	9202      	str	r2, [sp, #8]
 800b7e2:	f3c1 020a 	ubfx	r2, r1, #0, #11
 800b7e6:	9902      	ldr	r1, [sp, #8]
 800b7e8:	430a      	orrs	r2, r1
 800b7ea:	ea42 020e 	orr.w	r2, r2, lr
 800b7ee:	ea42 020c 	orr.w	r2, r2, ip
 800b7f2:	f442 2200 	orr.w	r2, r2, #524288	; 0x80000
 800b7f6:	2100      	movs	r1, #0
 800b7f8:	6022      	str	r2, [r4, #0]
 800b7fa:	f88a 1288 	strb.w	r1, [sl, #648]	; 0x288
 800b7fe:	4a6e      	ldr	r2, [pc, #440]	; (800b9b8 <USBH_MIDI_InterfaceInit.lto_priv.0+0x52c>)
 800b800:	4406      	add	r6, r0
 800b802:	eb02 06c6 	add.w	r6, r2, r6, lsl #3
 800b806:	2000      	movs	r0, #0
 800b808:	f896 1033 	ldrb.w	r1, [r6, #51]	; 0x33
 800b80c:	7018      	strb	r0, [r3, #0]
 800b80e:	b311      	cbz	r1, 800b856 <USBH_MIDI_InterfaceInit.lto_priv.0+0x3ca>
 800b810:	f886 0048 	strb.w	r0, [r6, #72]	; 0x48
 800b814:	9b04      	ldr	r3, [sp, #16]
 800b816:	9900      	ldr	r1, [sp, #0]
 800b818:	440b      	add	r3, r1
 800b81a:	eb02 02c3 	add.w	r2, r2, r3, lsl #3
 800b81e:	f892 0033 	ldrb.w	r0, [r2, #51]	; 0x33
 800b822:	b198      	cbz	r0, 800b84c <USBH_MIDI_InterfaceInit.lto_priv.0+0x3c0>
 800b824:	2000      	movs	r0, #0
 800b826:	f882 0048 	strb.w	r0, [r2, #72]	; 0x48
 800b82a:	b007      	add	sp, #28
 800b82c:	e8bd 8ff0 	ldmia.w	sp!, {r4, r5, r6, r7, r8, r9, sl, fp, pc}
 800b830:	f897 33aa 	ldrb.w	r3, [r7, #938]	; 0x3aa
 800b834:	2b03      	cmp	r3, #3
 800b836:	f47f ae45 	bne.w	800b4c4 <USBH_MIDI_InterfaceInit.lto_priv.0+0x38>
 800b83a:	2304      	movs	r3, #4
 800b83c:	e663      	b.n	800b506 <USBH_MIDI_InterfaceInit.lto_priv.0+0x7a>
 800b83e:	f890 3242 	ldrb.w	r3, [r0, #578]	; 0x242
 800b842:	2b03      	cmp	r3, #3
 800b844:	f47f ae2b 	bne.w	800b49e <USBH_MIDI_InterfaceInit.lto_priv.0+0x12>
 800b848:	2300      	movs	r3, #0
 800b84a:	e65c      	b.n	800b506 <USBH_MIDI_InterfaceInit.lto_priv.0+0x7a>
 800b84c:	f882 0049 	strb.w	r0, [r2, #73]	; 0x49
 800b850:	b007      	add	sp, #28
 800b852:	e8bd 8ff0 	ldmia.w	sp!, {r4, r5, r6, r7, r8, r9, sl, fp, pc}
 800b856:	f886 1049 	strb.w	r1, [r6, #73]	; 0x49
 800b85a:	e7db      	b.n	800b814 <USBH_MIDI_InterfaceInit.lto_priv.0+0x388>
 800b85c:	f897 229c 	ldrb.w	r2, [r7, #668]	; 0x29c
 800b860:	2a03      	cmp	r2, #3
 800b862:	f43f ae50 	beq.w	800b506 <USBH_MIDI_InterfaceInit.lto_priv.0+0x7a>
 800b866:	f897 32f5 	ldrb.w	r3, [r7, #757]	; 0x2f5
 800b86a:	2b01      	cmp	r3, #1
 800b86c:	f47f ae21 	bne.w	800b4b2 <USBH_MIDI_InterfaceInit.lto_priv.0+0x26>
 800b870:	f897 32f6 	ldrb.w	r3, [r7, #758]	; 0x2f6
 800b874:	2b03      	cmp	r3, #3
 800b876:	f47f ae1c 	bne.w	800b4b2 <USBH_MIDI_InterfaceInit.lto_priv.0+0x26>
 800b87a:	2302      	movs	r3, #2
 800b87c:	e643      	b.n	800b506 <USBH_MIDI_InterfaceInit.lto_priv.0+0x7a>
 800b87e:	f8b2 2252 	ldrh.w	r2, [r2, #594]	; 0x252
 800b882:	f883 8004 	strb.w	r8, [r3, #4]
 800b886:	46c3      	mov	fp, r8
 800b888:	88dc      	ldrh	r4, [r3, #6]
 800b88a:	f893 8003 	ldrb.w	r8, [r3, #3]
 800b88e:	811a      	strh	r2, [r3, #8]
 800b890:	e675      	b.n	800b57e <USBH_MIDI_InterfaceInit.lto_priv.0+0xf2>
 800b892:	68e2      	ldr	r2, [r4, #12]
 800b894:	f442 7280 	orr.w	r2, r2, #256	; 0x100
 800b898:	60e2      	str	r2, [r4, #12]
 800b89a:	e789      	b.n	800b7b0 <USBH_MIDI_InterfaceInit.lto_priv.0+0x324>
 800b89c:	f8de 100c 	ldr.w	r1, [lr, #12]
 800b8a0:	f441 7180 	orr.w	r1, r1, #256	; 0x100
 800b8a4:	f8ce 100c 	str.w	r1, [lr, #12]
 800b8a8:	e725      	b.n	800b6f6 <USBH_MIDI_InterfaceInit.lto_priv.0+0x26a>
 800b8aa:	f897 3404 	ldrb.w	r3, [r7, #1028]	; 0x404
 800b8ae:	2b03      	cmp	r3, #3
 800b8b0:	f47f ae0d 	bne.w	800b4ce <USBH_MIDI_InterfaceInit.lto_priv.0+0x42>
 800b8b4:	2305      	movs	r3, #5
 800b8b6:	e626      	b.n	800b506 <USBH_MIDI_InterfaceInit.lto_priv.0+0x7a>
 800b8b8:	f897 345e 	ldrb.w	r3, [r7, #1118]	; 0x45e
 800b8bc:	2b03      	cmp	r3, #3
 800b8be:	f47f ae0b 	bne.w	800b4d8 <USBH_MIDI_InterfaceInit.lto_priv.0+0x4c>
 800b8c2:	2306      	movs	r3, #6
 800b8c4:	e61f      	b.n	800b506 <USBH_MIDI_InterfaceInit.lto_priv.0+0x7a>
 800b8c6:	f897 34b8 	ldrb.w	r3, [r7, #1208]	; 0x4b8
 800b8ca:	2b03      	cmp	r3, #3
 800b8cc:	f47f ae09 	bne.w	800b4e2 <USBH_MIDI_InterfaceInit.lto_priv.0+0x56>
 800b8d0:	2307      	movs	r3, #7
 800b8d2:	e618      	b.n	800b506 <USBH_MIDI_InterfaceInit.lto_priv.0+0x7a>
 800b8d4:	9a00      	ldr	r2, [sp, #0]
 800b8d6:	0092      	lsls	r2, r2, #2
 800b8d8:	9204      	str	r2, [sp, #16]
 800b8da:	00b0      	lsls	r0, r6, #2
 800b8dc:	e78f      	b.n	800b7fe <USBH_MIDI_InterfaceInit.lto_priv.0+0x372>
 800b8de:	f897 3512 	ldrb.w	r3, [r7, #1298]	; 0x512
 800b8e2:	2b03      	cmp	r3, #3
 800b8e4:	f47f ae02 	bne.w	800b4ec <USBH_MIDI_InterfaceInit.lto_priv.0+0x60>
 800b8e8:	2308      	movs	r3, #8
 800b8ea:	e60c      	b.n	800b506 <USBH_MIDI_InterfaceInit.lto_priv.0+0x7a>
 800b8ec:	f897 356c 	ldrb.w	r3, [r7, #1388]	; 0x56c
 800b8f0:	2b03      	cmp	r3, #3
 800b8f2:	f47f ae00 	bne.w	800b4f6 <USBH_MIDI_InterfaceInit.lto_priv.0+0x6a>
 800b8f6:	2309      	movs	r3, #9
 800b8f8:	e605      	b.n	800b506 <USBH_MIDI_InterfaceInit.lto_priv.0+0x7a>
 800b8fa:	f04f 0e09 	mov.w	lr, #9
 800b8fe:	f8cd e000 	str.w	lr, [sp]
 800b902:	eb07 028e 	add.w	r2, r7, lr, lsl #2
 800b906:	f448 4100 	orr.w	r1, r8, #32768	; 0x8000
 800b90a:	f8c2 15cc 	str.w	r1, [r2, #1484]	; 0x5cc
 800b90e:	f8d7 25cc 	ldr.w	r2, [r7, #1484]	; 0x5cc
 800b912:	e66f      	b.n	800b5f4 <USBH_MIDI_InterfaceInit.lto_priv.0+0x168>
 800b914:	2209      	movs	r2, #9
 800b916:	4616      	mov	r6, r2
 800b918:	eb07 0186 	add.w	r1, r7, r6, lsl #2
 800b91c:	f44b 4000 	orr.w	r0, fp, #32768	; 0x8000
 800b920:	f8c1 05cc 	str.w	r0, [r1, #1484]	; 0x5cc
 800b924:	e6a0      	b.n	800b668 <USBH_MIDI_InterfaceInit.lto_priv.0+0x1dc>
 800b926:	2201      	movs	r2, #1
 800b928:	4616      	mov	r6, r2
 800b92a:	e7f5      	b.n	800b918 <USBH_MIDI_InterfaceInit.lto_priv.0+0x48c>
 800b92c:	f04f 0e01 	mov.w	lr, #1
 800b930:	f8cd e000 	str.w	lr, [sp]
 800b934:	e7e5      	b.n	800b902 <USBH_MIDI_InterfaceInit.lto_priv.0+0x476>
 800b936:	f04f 0e02 	mov.w	lr, #2
 800b93a:	f8cd e000 	str.w	lr, [sp]
 800b93e:	e7e0      	b.n	800b902 <USBH_MIDI_InterfaceInit.lto_priv.0+0x476>
 800b940:	2202      	movs	r2, #2
 800b942:	4616      	mov	r6, r2
 800b944:	e7e8      	b.n	800b918 <USBH_MIDI_InterfaceInit.lto_priv.0+0x48c>
 800b946:	2203      	movs	r2, #3
 800b948:	4616      	mov	r6, r2
 800b94a:	e7e5      	b.n	800b918 <USBH_MIDI_InterfaceInit.lto_priv.0+0x48c>
 800b94c:	f04f 0e03 	mov.w	lr, #3
 800b950:	f8cd e000 	str.w	lr, [sp]
 800b954:	e7d5      	b.n	800b902 <USBH_MIDI_InterfaceInit.lto_priv.0+0x476>
 800b956:	2204      	movs	r2, #4
 800b958:	4616      	mov	r6, r2
 800b95a:	e7dd      	b.n	800b918 <USBH_MIDI_InterfaceInit.lto_priv.0+0x48c>
 800b95c:	f04f 0e04 	mov.w	lr, #4
 800b960:	f8cd e000 	str.w	lr, [sp]
 800b964:	e7cd      	b.n	800b902 <USBH_MIDI_InterfaceInit.lto_priv.0+0x476>
 800b966:	2205      	movs	r2, #5
 800b968:	4616      	mov	r6, r2
 800b96a:	e7d5      	b.n	800b918 <USBH_MIDI_InterfaceInit.lto_priv.0+0x48c>
 800b96c:	f04f 0e05 	mov.w	lr, #5
 800b970:	f8cd e000 	str.w	lr, [sp]
 800b974:	e7c5      	b.n	800b902 <USBH_MIDI_InterfaceInit.lto_priv.0+0x476>
 800b976:	f04f 0e06 	mov.w	lr, #6
 800b97a:	f8cd e000 	str.w	lr, [sp]
 800b97e:	e7c0      	b.n	800b902 <USBH_MIDI_InterfaceInit.lto_priv.0+0x476>
 800b980:	2206      	movs	r2, #6
 800b982:	4616      	mov	r6, r2
 800b984:	e7c8      	b.n	800b918 <USBH_MIDI_InterfaceInit.lto_priv.0+0x48c>
 800b986:	2207      	movs	r2, #7
 800b988:	4616      	mov	r6, r2
 800b98a:	e7c5      	b.n	800b918 <USBH_MIDI_InterfaceInit.lto_priv.0+0x48c>
 800b98c:	f04f 0e07 	mov.w	lr, #7
 800b990:	f8cd e000 	str.w	lr, [sp]
 800b994:	e7b5      	b.n	800b902 <USBH_MIDI_InterfaceInit.lto_priv.0+0x476>
 800b996:	2208      	movs	r2, #8
 800b998:	4616      	mov	r6, r2
 800b99a:	e7bd      	b.n	800b918 <USBH_MIDI_InterfaceInit.lto_priv.0+0x48c>
 800b99c:	f04f 0e08 	mov.w	lr, #8
 800b9a0:	f8cd e000 	str.w	lr, [sp]
 800b9a4:	e7ad      	b.n	800b902 <USBH_MIDI_InterfaceInit.lto_priv.0+0x476>
 800b9a6:	220a      	movs	r2, #10
 800b9a8:	4616      	mov	r6, r2
 800b9aa:	e7b5      	b.n	800b918 <USBH_MIDI_InterfaceInit.lto_priv.0+0x48c>
 800b9ac:	f04f 0e0a 	mov.w	lr, #10
 800b9b0:	f8cd e000 	str.w	lr, [sp]
 800b9b4:	e7a5      	b.n	800b902 <USBH_MIDI_InterfaceInit.lto_priv.0+0x476>
 800b9b6:	bf00      	nop
 800b9b8:	2001ee2c 	.word	0x2001ee2c

0800b9bc <HAL_Delay>:
HAL_Delay():
 800b9bc:	b082      	sub	sp, #8
 800b9be:	4905      	ldr	r1, [pc, #20]	; (800b9d4 <HAL_Delay+0x18>)
 800b9c0:	9001      	str	r0, [sp, #4]
 800b9c2:	6808      	ldr	r0, [r1, #0]
 800b9c4:	680b      	ldr	r3, [r1, #0]
 800b9c6:	9a01      	ldr	r2, [sp, #4]
 800b9c8:	1a1b      	subs	r3, r3, r0
 800b9ca:	4293      	cmp	r3, r2
 800b9cc:	d3fa      	bcc.n	800b9c4 <HAL_Delay+0x8>
 800b9ce:	b002      	add	sp, #8
 800b9d0:	4770      	bx	lr
 800b9d2:	bf00      	nop
 800b9d4:	2001f7dc 	.word	0x2001f7dc

0800b9d8 <USBH_CtlReq.part.0>:
USBH_CtlReq.part.0():
 800b9d8:	b5f8      	push	{r3, r4, r5, r6, r7, lr}
 800b9da:	7e05      	ldrb	r5, [r0, #24]
 800b9dc:	1e6b      	subs	r3, r5, #1
 800b9de:	4604      	mov	r4, r0
 800b9e0:	2b0a      	cmp	r3, #10
 800b9e2:	d854      	bhi.n	800ba8e <USBH_CtlReq.part.0+0xb6>
 800b9e4:	e8df f013 	tbh	[pc, r3, lsl #1]
 800b9e8:	0044001d 	.word	0x0044001d
 800b9ec:	01620055 	.word	0x01620055
 800b9f0:	014d0106 	.word	0x014d0106
 800b9f4:	00a5007e 	.word	0x00a5007e
 800b9f8:	00f500b9 	.word	0x00f500b9
 800b9fc:	000b      	.short	0x000b
 800b9fe:	7e43      	ldrb	r3, [r0, #25]
 800ba00:	3301      	adds	r3, #1
 800ba02:	b2db      	uxtb	r3, r3
 800ba04:	2b02      	cmp	r3, #2
 800ba06:	7643      	strb	r3, [r0, #25]
 800ba08:	f240 816f 	bls.w	800bcea <USBH_CtlReq.part.0+0x312>
 800ba0c:	f8d0 3614 	ldr.w	r3, [r0, #1556]	; 0x614
 800ba10:	2106      	movs	r1, #6
 800ba12:	4798      	blx	r3
 800ba14:	2300      	movs	r3, #0
 800ba16:	7663      	strb	r3, [r4, #25]
 800ba18:	2301      	movs	r3, #1
 800ba1a:	2502      	movs	r5, #2
 800ba1c:	70a3      	strb	r3, [r4, #2]
 800ba1e:	4628      	mov	r0, r5
 800ba20:	bdf8      	pop	{r3, r4, r5, r6, r7, pc}
 800ba22:	7941      	ldrb	r1, [r0, #5]
 800ba24:	f8d0 0610 	ldr.w	r0, [r0, #1552]	; 0x610
 800ba28:	eb01 0381 	add.w	r3, r1, r1, lsl #2
 800ba2c:	eb00 03c3 	add.w	r3, r0, r3, lsl #3
 800ba30:	2603      	movs	r6, #3
 800ba32:	2228      	movs	r2, #40	; 0x28
 800ba34:	f883 1031 	strb.w	r1, [r3, #49]	; 0x31
 800ba38:	f883 603a 	strb.w	r6, [r3, #58]	; 0x3a
 800ba3c:	fb02 0101 	mla	r1, r2, r1, r0
 800ba40:	f104 0610 	add.w	r6, r4, #16
 800ba44:	2200      	movs	r2, #0
 800ba46:	f883 2033 	strb.w	r2, [r3, #51]	; 0x33
 800ba4a:	f883 2037 	strb.w	r2, [r3, #55]	; 0x37
 800ba4e:	f883 2054 	strb.w	r2, [r3, #84]	; 0x54
 800ba52:	f883 2055 	strb.w	r2, [r3, #85]	; 0x55
 800ba56:	63de      	str	r6, [r3, #60]	; 0x3c
 800ba58:	2608      	movs	r6, #8
 800ba5a:	645a      	str	r2, [r3, #68]	; 0x44
 800ba5c:	641e      	str	r6, [r3, #64]	; 0x40
 800ba5e:	7c02      	ldrb	r2, [r0, #16]
 800ba60:	6800      	ldr	r0, [r0, #0]
 800ba62:	3130      	adds	r1, #48	; 0x30
 800ba64:	f7f4 fc4a 	bl	80002fc <USB_HC_StartXfer>
 800ba68:	2302      	movs	r3, #2
 800ba6a:	7623      	strb	r3, [r4, #24]
 800ba6c:	4628      	mov	r0, r5
 800ba6e:	bdf8      	pop	{r3, r4, r5, r6, r7, pc}
 800ba70:	7943      	ldrb	r3, [r0, #5]
 800ba72:	f8d0 2610 	ldr.w	r2, [r0, #1552]	; 0x610
 800ba76:	eb03 0383 	add.w	r3, r3, r3, lsl #2
 800ba7a:	eb02 03c3 	add.w	r3, r2, r3, lsl #3
 800ba7e:	f893 5054 	ldrb.w	r5, [r3, #84]	; 0x54
 800ba82:	2d01      	cmp	r5, #1
 800ba84:	f000 814f 	beq.w	800bd26 <USBH_CtlReq.part.0+0x34e>
 800ba88:	2d04      	cmp	r5, #4
 800ba8a:	f000 811f 	beq.w	800bccc <USBH_CtlReq.part.0+0x2f4>
 800ba8e:	2501      	movs	r5, #1
 800ba90:	e7ec      	b.n	800ba6c <USBH_CtlReq.part.0+0x94>
 800ba92:	7901      	ldrb	r1, [r0, #4]
 800ba94:	f8d4 3608 	ldr.w	r3, [r4, #1544]	; 0x608
 800ba98:	f8d0 0610 	ldr.w	r0, [r0, #1552]	; 0x610
 800ba9c:	81e3      	strh	r3, [r4, #14]
 800ba9e:	eb01 0381 	add.w	r3, r1, r1, lsl #2
 800baa2:	eb00 03c3 	add.w	r3, r0, r3, lsl #3
 800baa6:	2502      	movs	r5, #2
 800baa8:	2228      	movs	r2, #40	; 0x28
 800baaa:	68a7      	ldr	r7, [r4, #8]
 800baac:	89a6      	ldrh	r6, [r4, #12]
 800baae:	f883 503a 	strb.w	r5, [r3, #58]	; 0x3a
 800bab2:	f883 1031 	strb.w	r1, [r3, #49]	; 0x31
 800bab6:	2501      	movs	r5, #1
 800bab8:	fb02 0101 	mla	r1, r2, r1, r0
 800babc:	2200      	movs	r2, #0
 800babe:	f883 5033 	strb.w	r5, [r3, #51]	; 0x33
 800bac2:	f883 2037 	strb.w	r2, [r3, #55]	; 0x37
 800bac6:	f883 2054 	strb.w	r2, [r3, #84]	; 0x54
 800baca:	f883 2055 	strb.w	r2, [r3, #85]	; 0x55
 800bace:	645a      	str	r2, [r3, #68]	; 0x44
 800bad0:	e9c3 760f 	strd	r7, r6, [r3, #60]	; 0x3c
 800bad4:	7c02      	ldrb	r2, [r0, #16]
 800bad6:	6800      	ldr	r0, [r0, #0]
 800bad8:	3130      	adds	r1, #48	; 0x30
 800bada:	f7f4 fc0f 	bl	80002fc <USB_HC_StartXfer>
 800bade:	2304      	movs	r3, #4
 800bae0:	7623      	strb	r3, [r4, #24]
 800bae2:	e7c3      	b.n	800ba6c <USBH_CtlReq.part.0+0x94>
 800bae4:	7901      	ldrb	r1, [r0, #4]
 800bae6:	f8d0 0610 	ldr.w	r0, [r0, #1552]	; 0x610
 800baea:	eb01 0381 	add.w	r3, r1, r1, lsl #2
 800baee:	eb00 03c3 	add.w	r3, r0, r3, lsl #3
 800baf2:	2202      	movs	r2, #2
 800baf4:	f883 203a 	strb.w	r2, [r3, #58]	; 0x3a
 800baf8:	2628      	movs	r6, #40	; 0x28
 800bafa:	2200      	movs	r2, #0
 800bafc:	2501      	movs	r5, #1
 800bafe:	f883 1031 	strb.w	r1, [r3, #49]	; 0x31
 800bb02:	f883 5033 	strb.w	r5, [r3, #51]	; 0x33
 800bb06:	f883 2037 	strb.w	r2, [r3, #55]	; 0x37
 800bb0a:	f883 2054 	strb.w	r2, [r3, #84]	; 0x54
 800bb0e:	f883 2055 	strb.w	r2, [r3, #85]	; 0x55
 800bb12:	fb06 0101 	mla	r1, r6, r1, r0
 800bb16:	e9c3 220f 	strd	r2, r2, [r3, #60]	; 0x3c
 800bb1a:	645a      	str	r2, [r3, #68]	; 0x44
 800bb1c:	3130      	adds	r1, #48	; 0x30
 800bb1e:	7c02      	ldrb	r2, [r0, #16]
 800bb20:	6800      	ldr	r0, [r0, #0]
 800bb22:	f7f4 fbeb 	bl	80002fc <USB_HC_StartXfer>
 800bb26:	f8d4 3608 	ldr.w	r3, [r4, #1544]	; 0x608
 800bb2a:	81e3      	strh	r3, [r4, #14]
 800bb2c:	2308      	movs	r3, #8
 800bb2e:	7623      	strb	r3, [r4, #24]
 800bb30:	e79c      	b.n	800ba6c <USBH_CtlReq.part.0+0x94>
 800bb32:	7903      	ldrb	r3, [r0, #4]
 800bb34:	f8d0 2610 	ldr.w	r2, [r0, #1552]	; 0x610
 800bb38:	eb03 0383 	add.w	r3, r3, r3, lsl #2
 800bb3c:	eb02 03c3 	add.w	r3, r2, r3, lsl #3
 800bb40:	f893 3054 	ldrb.w	r3, [r3, #84]	; 0x54
 800bb44:	2b01      	cmp	r3, #1
 800bb46:	f000 80c5 	beq.w	800bcd4 <USBH_CtlReq.part.0+0x2fc>
 800bb4a:	2b04      	cmp	r3, #4
 800bb4c:	f000 80be 	beq.w	800bccc <USBH_CtlReq.part.0+0x2f4>
 800bb50:	2b05      	cmp	r3, #5
 800bb52:	bf14      	ite	ne
 800bb54:	2501      	movne	r5, #1
 800bb56:	2503      	moveq	r5, #3
 800bb58:	e788      	b.n	800ba6c <USBH_CtlReq.part.0+0x94>
 800bb5a:	7941      	ldrb	r1, [r0, #5]
 800bb5c:	f8d0 5610 	ldr.w	r5, [r0, #1552]	; 0x610
 800bb60:	f890 021d 	ldrb.w	r0, [r0, #541]	; 0x21d
 800bb64:	eb01 0281 	add.w	r2, r1, r1, lsl #2
 800bb68:	eb05 02c2 	add.w	r2, r5, r2, lsl #3
 800bb6c:	2702      	movs	r7, #2
 800bb6e:	f892 6054 	ldrb.w	r6, [r2, #84]	; 0x54
 800bb72:	f882 703a 	strb.w	r7, [r2, #58]	; 0x3a
 800bb76:	2301      	movs	r3, #1
 800bb78:	f882 3049 	strb.w	r3, [r2, #73]	; 0x49
 800bb7c:	42be      	cmp	r6, r7
 800bb7e:	f04f 0300 	mov.w	r3, #0
 800bb82:	f882 3033 	strb.w	r3, [r2, #51]	; 0x33
 800bb86:	f882 3037 	strb.w	r3, [r2, #55]	; 0x37
 800bb8a:	fa01 f307 	lsl.w	r3, r1, r7
 800bb8e:	d004      	beq.n	800bb9a <USBH_CtlReq.part.0+0x1c2>
 800bb90:	fab0 f080 	clz	r0, r0
 800bb94:	0940      	lsrs	r0, r0, #5
 800bb96:	f882 0035 	strb.w	r0, [r2, #53]	; 0x35
 800bb9a:	440b      	add	r3, r1
 800bb9c:	eb05 03c3 	add.w	r3, r5, r3, lsl #3
 800bba0:	2200      	movs	r2, #0
 800bba2:	2028      	movs	r0, #40	; 0x28
 800bba4:	f883 1031 	strb.w	r1, [r3, #49]	; 0x31
 800bba8:	f883 2054 	strb.w	r2, [r3, #84]	; 0x54
 800bbac:	f883 2055 	strb.w	r2, [r3, #85]	; 0x55
 800bbb0:	fb00 5101 	mla	r1, r0, r1, r5
 800bbb4:	e9c3 220f 	strd	r2, r2, [r3, #60]	; 0x3c
 800bbb8:	645a      	str	r2, [r3, #68]	; 0x44
 800bbba:	6828      	ldr	r0, [r5, #0]
 800bbbc:	7c2a      	ldrb	r2, [r5, #16]
 800bbbe:	3130      	adds	r1, #48	; 0x30
 800bbc0:	f7f4 fb9c 	bl	80002fc <USB_HC_StartXfer>
 800bbc4:	f8d4 3608 	ldr.w	r3, [r4, #1544]	; 0x608
 800bbc8:	81e3      	strh	r3, [r4, #14]
 800bbca:	230a      	movs	r3, #10
 800bbcc:	7623      	strb	r3, [r4, #24]
 800bbce:	2501      	movs	r5, #1
 800bbd0:	e74c      	b.n	800ba6c <USBH_CtlReq.part.0+0x94>
 800bbd2:	7943      	ldrb	r3, [r0, #5]
 800bbd4:	f8d0 2610 	ldr.w	r2, [r0, #1552]	; 0x610
 800bbd8:	eb03 0383 	add.w	r3, r3, r3, lsl #2
 800bbdc:	eb02 03c3 	add.w	r3, r2, r3, lsl #3
 800bbe0:	f893 3054 	ldrb.w	r3, [r3, #84]	; 0x54
 800bbe4:	2b01      	cmp	r3, #1
 800bbe6:	d075      	beq.n	800bcd4 <USBH_CtlReq.part.0+0x2fc>
 800bbe8:	2b02      	cmp	r3, #2
 800bbea:	d16c      	bne.n	800bcc6 <USBH_CtlReq.part.0+0x2ee>
 800bbec:	2309      	movs	r3, #9
 800bbee:	7623      	strb	r3, [r4, #24]
 800bbf0:	2501      	movs	r5, #1
 800bbf2:	e73b      	b.n	800ba6c <USBH_CtlReq.part.0+0x94>
 800bbf4:	7941      	ldrb	r1, [r0, #5]
 800bbf6:	f8d0 0610 	ldr.w	r0, [r0, #1552]	; 0x610
 800bbfa:	89a6      	ldrh	r6, [r4, #12]
 800bbfc:	68a7      	ldr	r7, [r4, #8]
 800bbfe:	f894 c21d 	ldrb.w	ip, [r4, #541]	; 0x21d
 800bc02:	eb01 0281 	add.w	r2, r1, r1, lsl #2
 800bc06:	eb00 02c2 	add.w	r2, r0, r2, lsl #3
 800bc0a:	2300      	movs	r3, #0
 800bc0c:	2502      	movs	r5, #2
 800bc0e:	f882 3033 	strb.w	r3, [r2, #51]	; 0x33
 800bc12:	f882 3037 	strb.w	r3, [r2, #55]	; 0x37
 800bc16:	f882 503a 	strb.w	r5, [r2, #58]	; 0x3a
 800bc1a:	fa01 f305 	lsl.w	r3, r1, r5
 800bc1e:	2e00      	cmp	r6, #0
 800bc20:	d05e      	beq.n	800bce0 <USBH_CtlReq.part.0+0x308>
 800bc22:	f892 5049 	ldrb.w	r5, [r2, #73]	; 0x49
 800bc26:	2d00      	cmp	r5, #0
 800bc28:	bf18      	it	ne
 800bc2a:	2502      	movne	r5, #2
 800bc2c:	185a      	adds	r2, r3, r1
 800bc2e:	eb00 02c2 	add.w	r2, r0, r2, lsl #3
 800bc32:	f892 e054 	ldrb.w	lr, [r2, #84]	; 0x54
 800bc36:	f882 503a 	strb.w	r5, [r2, #58]	; 0x3a
 800bc3a:	f1be 0f02 	cmp.w	lr, #2
 800bc3e:	d004      	beq.n	800bc4a <USBH_CtlReq.part.0+0x272>
 800bc40:	fabc f58c 	clz	r5, ip
 800bc44:	096d      	lsrs	r5, r5, #5
 800bc46:	f882 5035 	strb.w	r5, [r2, #53]	; 0x35
 800bc4a:	440b      	add	r3, r1
 800bc4c:	eb00 03c3 	add.w	r3, r0, r3, lsl #3
 800bc50:	2200      	movs	r2, #0
 800bc52:	2528      	movs	r5, #40	; 0x28
 800bc54:	f883 1031 	strb.w	r1, [r3, #49]	; 0x31
 800bc58:	f883 2054 	strb.w	r2, [r3, #84]	; 0x54
 800bc5c:	f883 2055 	strb.w	r2, [r3, #85]	; 0x55
 800bc60:	fb05 0101 	mla	r1, r5, r1, r0
 800bc64:	e9c3 6210 	strd	r6, r2, [r3, #64]	; 0x40
 800bc68:	63df      	str	r7, [r3, #60]	; 0x3c
 800bc6a:	7c02      	ldrb	r2, [r0, #16]
 800bc6c:	6800      	ldr	r0, [r0, #0]
 800bc6e:	3130      	adds	r1, #48	; 0x30
 800bc70:	f7f4 fb44 	bl	80002fc <USB_HC_StartXfer>
 800bc74:	f8d4 3608 	ldr.w	r3, [r4, #1544]	; 0x608
 800bc78:	81e3      	strh	r3, [r4, #14]
 800bc7a:	2306      	movs	r3, #6
 800bc7c:	7623      	strb	r3, [r4, #24]
 800bc7e:	2501      	movs	r5, #1
 800bc80:	e6f4      	b.n	800ba6c <USBH_CtlReq.part.0+0x94>
 800bc82:	7943      	ldrb	r3, [r0, #5]
 800bc84:	f8d0 2610 	ldr.w	r2, [r0, #1552]	; 0x610
 800bc88:	eb03 0383 	add.w	r3, r3, r3, lsl #2
 800bc8c:	eb02 03c3 	add.w	r3, r2, r3, lsl #3
 800bc90:	f893 3054 	ldrb.w	r3, [r3, #84]	; 0x54
 800bc94:	2b01      	cmp	r3, #1
 800bc96:	d042      	beq.n	800bd1e <USBH_CtlReq.part.0+0x346>
 800bc98:	2b05      	cmp	r3, #5
 800bc9a:	d039      	beq.n	800bd10 <USBH_CtlReq.part.0+0x338>
 800bc9c:	2b02      	cmp	r3, #2
 800bc9e:	d048      	beq.n	800bd32 <USBH_CtlReq.part.0+0x35a>
 800bca0:	2b04      	cmp	r3, #4
 800bca2:	f47f aef4 	bne.w	800ba8e <USBH_CtlReq.part.0+0xb6>
 800bca6:	230b      	movs	r3, #11
 800bca8:	7603      	strb	r3, [r0, #24]
 800bcaa:	e6b5      	b.n	800ba18 <USBH_CtlReq.part.0+0x40>
 800bcac:	7903      	ldrb	r3, [r0, #4]
 800bcae:	f8d0 2610 	ldr.w	r2, [r0, #1552]	; 0x610
 800bcb2:	eb03 0383 	add.w	r3, r3, r3, lsl #2
 800bcb6:	eb02 03c3 	add.w	r3, r2, r3, lsl #3
 800bcba:	f893 3054 	ldrb.w	r3, [r3, #84]	; 0x54
 800bcbe:	2b01      	cmp	r3, #1
 800bcc0:	d094      	beq.n	800bbec <USBH_CtlReq.part.0+0x214>
 800bcc2:	2b05      	cmp	r3, #5
 800bcc4:	d03c      	beq.n	800bd40 <USBH_CtlReq.part.0+0x368>
 800bcc6:	2b04      	cmp	r3, #4
 800bcc8:	f47f aee1 	bne.w	800ba8e <USBH_CtlReq.part.0+0xb6>
 800bccc:	230b      	movs	r3, #11
 800bcce:	7623      	strb	r3, [r4, #24]
 800bcd0:	2501      	movs	r5, #1
 800bcd2:	e6cb      	b.n	800ba6c <USBH_CtlReq.part.0+0x94>
 800bcd4:	2500      	movs	r5, #0
 800bcd6:	2301      	movs	r3, #1
 800bcd8:	70a3      	strb	r3, [r4, #2]
 800bcda:	7625      	strb	r5, [r4, #24]
 800bcdc:	4628      	mov	r0, r5
 800bcde:	bdf8      	pop	{r3, r4, r5, r6, r7, pc}
 800bce0:	f04f 0e01 	mov.w	lr, #1
 800bce4:	f882 e049 	strb.w	lr, [r2, #73]	; 0x49
 800bce8:	e7a0      	b.n	800bc2c <USBH_CtlReq.part.0+0x254>
 800bcea:	f8d0 5610 	ldr.w	r5, [r0, #1552]	; 0x610
 800bcee:	f895 3288 	ldrb.w	r3, [r5, #648]	; 0x288
 800bcf2:	2b01      	cmp	r3, #1
 800bcf4:	d008      	beq.n	800bd08 <USBH_CtlReq.part.0+0x330>
 800bcf6:	2301      	movs	r3, #1
 800bcf8:	f885 3288 	strb.w	r3, [r5, #648]	; 0x288
 800bcfc:	6828      	ldr	r0, [r5, #0]
 800bcfe:	f7f4 fd85 	bl	800080c <USB_StopHost>
 800bd02:	2300      	movs	r3, #0
 800bd04:	f885 3288 	strb.w	r3, [r5, #648]	; 0x288
 800bd08:	2501      	movs	r5, #1
 800bd0a:	7625      	strb	r5, [r4, #24]
 800bd0c:	70a5      	strb	r5, [r4, #2]
 800bd0e:	e6ad      	b.n	800ba6c <USBH_CtlReq.part.0+0x94>
 800bd10:	230c      	movs	r3, #12
 800bd12:	7603      	strb	r3, [r0, #24]
 800bd14:	2503      	movs	r5, #3
 800bd16:	e6a9      	b.n	800ba6c <USBH_CtlReq.part.0+0x94>
 800bd18:	061b      	lsls	r3, r3, #24
 800bd1a:	f53f af67 	bmi.w	800bbec <USBH_CtlReq.part.0+0x214>
 800bd1e:	2307      	movs	r3, #7
 800bd20:	7623      	strb	r3, [r4, #24]
 800bd22:	2501      	movs	r5, #1
 800bd24:	e6a2      	b.n	800ba6c <USBH_CtlReq.part.0+0x94>
 800bd26:	8ac2      	ldrh	r2, [r0, #22]
 800bd28:	7c03      	ldrb	r3, [r0, #16]
 800bd2a:	2a00      	cmp	r2, #0
 800bd2c:	d0f4      	beq.n	800bd18 <USBH_CtlReq.part.0+0x340>
 800bd2e:	061a      	lsls	r2, r3, #24
 800bd30:	d403      	bmi.n	800bd3a <USBH_CtlReq.part.0+0x362>
 800bd32:	2305      	movs	r3, #5
 800bd34:	7623      	strb	r3, [r4, #24]
 800bd36:	2501      	movs	r5, #1
 800bd38:	e698      	b.n	800ba6c <USBH_CtlReq.part.0+0x94>
 800bd3a:	2303      	movs	r3, #3
 800bd3c:	7603      	strb	r3, [r0, #24]
 800bd3e:	e695      	b.n	800ba6c <USBH_CtlReq.part.0+0x94>
 800bd40:	2503      	movs	r5, #3
 800bd42:	e693      	b.n	800ba6c <USBH_CtlReq.part.0+0x94>

0800bd44 <USBH_MIDI_Process.lto_priv.0>:
USBH_MIDI_Process.lto_priv.0():
 800bd44:	e92d 4ff0 	stmdb	sp!, {r4, r5, r6, r7, r8, r9, sl, fp, lr}
 800bd48:	f8d0 35c4 	ldr.w	r3, [r0, #1476]	; 0x5c4
 800bd4c:	ed2d 8b04 	vpush	{d8-d9}
 800bd50:	69de      	ldr	r6, [r3, #28]
 800bd52:	7834      	ldrb	r4, [r6, #0]
 800bd54:	2c01      	cmp	r4, #1
 800bd56:	b083      	sub	sp, #12
 800bd58:	4605      	mov	r5, r0
 800bd5a:	d009      	beq.n	800bd70 <USBH_MIDI_Process.lto_priv.0+0x2c>
 800bd5c:	2c02      	cmp	r4, #2
 800bd5e:	d03e      	beq.n	800bdde <USBH_MIDI_Process.lto_priv.0+0x9a>
 800bd60:	b104      	cbz	r4, 800bd64 <USBH_MIDI_Process.lto_priv.0+0x20>
 800bd62:	2401      	movs	r4, #1
 800bd64:	4620      	mov	r0, r4
 800bd66:	b003      	add	sp, #12
 800bd68:	ecbd 8b04 	vpop	{d8-d9}
 800bd6c:	e8bd 8ff0 	ldmia.w	sp!, {r4, r5, r6, r7, r8, r9, sl, fp, pc}
 800bd70:	7e33      	ldrb	r3, [r6, #24]
 800bd72:	2b01      	cmp	r3, #1
 800bd74:	d049      	beq.n	800be0a <USBH_MIDI_Process.lto_priv.0+0xc6>
 800bd76:	2b02      	cmp	r3, #2
 800bd78:	d10e      	bne.n	800bd98 <USBH_MIDI_Process.lto_priv.0+0x54>
 800bd7a:	78b3      	ldrb	r3, [r6, #2]
 800bd7c:	f8d0 2610 	ldr.w	r2, [r0, #1552]	; 0x610
 800bd80:	eb03 0383 	add.w	r3, r3, r3, lsl #2
 800bd84:	eb02 03c3 	add.w	r3, r2, r3, lsl #3
 800bd88:	f893 3054 	ldrb.w	r3, [r3, #84]	; 0x54
 800bd8c:	2b01      	cmp	r3, #1
 800bd8e:	f000 80e6 	beq.w	800bf5e <USBH_MIDI_Process.lto_priv.0+0x21a>
 800bd92:	2b02      	cmp	r3, #2
 800bd94:	bf08      	it	eq
 800bd96:	7634      	strbeq	r4, [r6, #24]
 800bd98:	7e73      	ldrb	r3, [r6, #25]
 800bd9a:	2b03      	cmp	r3, #3
 800bd9c:	d07e      	beq.n	800be9c <USBH_MIDI_Process.lto_priv.0+0x158>
 800bd9e:	2b04      	cmp	r3, #4
 800bda0:	d1df      	bne.n	800bd62 <USBH_MIDI_Process.lto_priv.0+0x1e>
 800bda2:	7873      	ldrb	r3, [r6, #1]
 800bda4:	f8d5 2610 	ldr.w	r2, [r5, #1552]	; 0x610
 800bda8:	eb03 0383 	add.w	r3, r3, r3, lsl #2
 800bdac:	eb02 03c3 	add.w	r3, r2, r3, lsl #3
 800bdb0:	f893 4054 	ldrb.w	r4, [r3, #84]	; 0x54
 800bdb4:	2c01      	cmp	r4, #1
 800bdb6:	d1d4      	bne.n	800bd62 <USBH_MIDI_Process.lto_priv.0+0x1e>
 800bdb8:	6c5b      	ldr	r3, [r3, #68]	; 0x44
 800bdba:	8af2      	ldrh	r2, [r6, #22]
 800bdbc:	b299      	uxth	r1, r3
 800bdbe:	1a50      	subs	r0, r2, r1
 800bdc0:	2800      	cmp	r0, #0
 800bdc2:	f340 80db 	ble.w	800bf7c <USBH_MIDI_Process.lto_priv.0+0x238>
 800bdc6:	8930      	ldrh	r0, [r6, #8]
 800bdc8:	4288      	cmp	r0, r1
 800bdca:	f080 80d7 	bcs.w	800bf7c <USBH_MIDI_Process.lto_priv.0+0x238>
 800bdce:	6930      	ldr	r0, [r6, #16]
 800bdd0:	1a53      	subs	r3, r2, r1
 800bdd2:	4401      	add	r1, r0
 800bdd4:	2203      	movs	r2, #3
 800bdd6:	82f3      	strh	r3, [r6, #22]
 800bdd8:	6131      	str	r1, [r6, #16]
 800bdda:	7672      	strb	r2, [r6, #25]
 800bddc:	e7c2      	b.n	800bd64 <USBH_MIDI_Process.lto_priv.0+0x20>
 800bdde:	7884      	ldrb	r4, [r0, #2]
 800bde0:	2c01      	cmp	r4, #1
 800bde2:	d007      	beq.n	800bdf4 <USBH_MIDI_Process.lto_priv.0+0xb0>
 800bde4:	2c02      	cmp	r4, #2
 800bde6:	d1bc      	bne.n	800bd62 <USBH_MIDI_Process.lto_priv.0+0x1e>
 800bde8:	f7ff fdf6 	bl	800b9d8 <USBH_CtlReq.part.0>
 800bdec:	2800      	cmp	r0, #0
 800bdee:	d1b8      	bne.n	800bd62 <USBH_MIDI_Process.lto_priv.0+0x1e>
 800bdf0:	7030      	strb	r0, [r6, #0]
 800bdf2:	e7b6      	b.n	800bd62 <USBH_MIDI_Process.lto_priv.0+0x1e>
 800bdf4:	2300      	movs	r3, #0
 800bdf6:	f44f 7181 	mov.w	r1, #258	; 0x102
 800bdfa:	2202      	movs	r2, #2
 800bdfc:	e9c0 1304 	strd	r1, r3, [r0, #16]
 800be00:	7604      	strb	r4, [r0, #24]
 800be02:	6083      	str	r3, [r0, #8]
 800be04:	8183      	strh	r3, [r0, #12]
 800be06:	7082      	strb	r2, [r0, #2]
 800be08:	e7ac      	b.n	800bd64 <USBH_MIDI_Process.lto_priv.0+0x20>
 800be0a:	8ab7      	ldrh	r7, [r6, #20]
 800be0c:	f8b6 c006 	ldrh.w	ip, [r6, #6]
 800be10:	78b1      	ldrb	r1, [r6, #2]
 800be12:	f8d0 0610 	ldr.w	r0, [r0, #1552]	; 0x610
 800be16:	f8d6 e00c 	ldr.w	lr, [r6, #12]
 800be1a:	4567      	cmp	r7, ip
 800be1c:	d86c      	bhi.n	800bef8 <USBH_MIDI_Process.lto_priv.0+0x1b4>
 800be1e:	eb01 0281 	add.w	r2, r1, r1, lsl #2
 800be22:	eb00 02c2 	add.w	r2, r0, r2, lsl #3
 800be26:	2302      	movs	r3, #2
 800be28:	f892 8049 	ldrb.w	r8, [r2, #73]	; 0x49
 800be2c:	f895 c21d 	ldrb.w	ip, [r5, #541]	; 0x21d
 800be30:	f882 3037 	strb.w	r3, [r2, #55]	; 0x37
 800be34:	f1b8 0f00 	cmp.w	r8, #0
 800be38:	bf08      	it	eq
 800be3a:	4643      	moveq	r3, r8
 800be3c:	f892 8054 	ldrb.w	r8, [r2, #84]	; 0x54
 800be40:	f882 303a 	strb.w	r3, [r2, #58]	; 0x3a
 800be44:	f04f 0900 	mov.w	r9, #0
 800be48:	f1b8 0f02 	cmp.w	r8, #2
 800be4c:	f882 9033 	strb.w	r9, [r2, #51]	; 0x33
 800be50:	ea4f 0381 	mov.w	r3, r1, lsl #2
 800be54:	d005      	beq.n	800be62 <USBH_MIDI_Process.lto_priv.0+0x11e>
 800be56:	fabc fc8c 	clz	ip, ip
 800be5a:	ea4f 1c5c 	mov.w	ip, ip, lsr #5
 800be5e:	f882 c035 	strb.w	ip, [r2, #53]	; 0x35
 800be62:	440b      	add	r3, r1
 800be64:	eb00 03c3 	add.w	r3, r0, r3, lsl #3
 800be68:	2200      	movs	r2, #0
 800be6a:	f04f 0c28 	mov.w	ip, #40	; 0x28
 800be6e:	f883 1031 	strb.w	r1, [r3, #49]	; 0x31
 800be72:	f883 2054 	strb.w	r2, [r3, #84]	; 0x54
 800be76:	f883 2055 	strb.w	r2, [r3, #85]	; 0x55
 800be7a:	f8c3 e03c 	str.w	lr, [r3, #60]	; 0x3c
 800be7e:	fb0c 0101 	mla	r1, ip, r1, r0
 800be82:	641f      	str	r7, [r3, #64]	; 0x40
 800be84:	645a      	str	r2, [r3, #68]	; 0x44
 800be86:	7c02      	ldrb	r2, [r0, #16]
 800be88:	6800      	ldr	r0, [r0, #0]
 800be8a:	3130      	adds	r1, #48	; 0x30
 800be8c:	f7f4 fa36 	bl	80002fc <USB_HC_StartXfer>
 800be90:	2302      	movs	r3, #2
 800be92:	7633      	strb	r3, [r6, #24]
 800be94:	f8d5 35c4 	ldr.w	r3, [r5, #1476]	; 0x5c4
 800be98:	69de      	ldr	r6, [r3, #28]
 800be9a:	e77d      	b.n	800bd98 <USBH_MIDI_Process.lto_priv.0+0x54>
 800be9c:	7871      	ldrb	r1, [r6, #1]
 800be9e:	f8d5 0610 	ldr.w	r0, [r5, #1552]	; 0x610
 800bea2:	f8d6 c010 	ldr.w	ip, [r6, #16]
 800bea6:	8937      	ldrh	r7, [r6, #8]
 800bea8:	eb01 0381 	add.w	r3, r1, r1, lsl #2
 800beac:	eb00 03c3 	add.w	r3, r0, r3, lsl #3
 800beb0:	2502      	movs	r5, #2
 800beb2:	f893 2048 	ldrb.w	r2, [r3, #72]	; 0x48
 800beb6:	f883 1031 	strb.w	r1, [r3, #49]	; 0x31
 800beba:	2a00      	cmp	r2, #0
 800bebc:	bf18      	it	ne
 800bebe:	462a      	movne	r2, r5
 800bec0:	f04f 0e01 	mov.w	lr, #1
 800bec4:	f883 e033 	strb.w	lr, [r3, #51]	; 0x33
 800bec8:	f883 203a 	strb.w	r2, [r3, #58]	; 0x3a
 800becc:	f04f 0e28 	mov.w	lr, #40	; 0x28
 800bed0:	2200      	movs	r2, #0
 800bed2:	f883 5037 	strb.w	r5, [r3, #55]	; 0x37
 800bed6:	f883 2054 	strb.w	r2, [r3, #84]	; 0x54
 800beda:	f883 2055 	strb.w	r2, [r3, #85]	; 0x55
 800bede:	fb0e 0101 	mla	r1, lr, r1, r0
 800bee2:	645a      	str	r2, [r3, #68]	; 0x44
 800bee4:	e9c3 c70f 	strd	ip, r7, [r3, #60]	; 0x3c
 800bee8:	7c02      	ldrb	r2, [r0, #16]
 800beea:	6800      	ldr	r0, [r0, #0]
 800beec:	3130      	adds	r1, #48	; 0x30
 800beee:	f7f4 fa05 	bl	80002fc <USB_HC_StartXfer>
 800bef2:	2304      	movs	r3, #4
 800bef4:	7673      	strb	r3, [r6, #25]
 800bef6:	e735      	b.n	800bd64 <USBH_MIDI_Process.lto_priv.0+0x20>
 800bef8:	eb01 0281 	add.w	r2, r1, r1, lsl #2
 800befc:	eb00 02c2 	add.w	r2, r0, r2, lsl #3
 800bf00:	2302      	movs	r3, #2
 800bf02:	f892 8049 	ldrb.w	r8, [r2, #73]	; 0x49
 800bf06:	f895 721d 	ldrb.w	r7, [r5, #541]	; 0x21d
 800bf0a:	f882 3037 	strb.w	r3, [r2, #55]	; 0x37
 800bf0e:	f1b8 0f00 	cmp.w	r8, #0
 800bf12:	bf08      	it	eq
 800bf14:	4643      	moveq	r3, r8
 800bf16:	f892 8054 	ldrb.w	r8, [r2, #84]	; 0x54
 800bf1a:	f882 303a 	strb.w	r3, [r2, #58]	; 0x3a
 800bf1e:	f04f 0900 	mov.w	r9, #0
 800bf22:	f1b8 0f02 	cmp.w	r8, #2
 800bf26:	f882 9033 	strb.w	r9, [r2, #51]	; 0x33
 800bf2a:	ea4f 0381 	mov.w	r3, r1, lsl #2
 800bf2e:	d004      	beq.n	800bf3a <USBH_MIDI_Process.lto_priv.0+0x1f6>
 800bf30:	fab7 f787 	clz	r7, r7
 800bf34:	097f      	lsrs	r7, r7, #5
 800bf36:	f882 7035 	strb.w	r7, [r2, #53]	; 0x35
 800bf3a:	440b      	add	r3, r1
 800bf3c:	eb00 03c3 	add.w	r3, r0, r3, lsl #3
 800bf40:	2200      	movs	r2, #0
 800bf42:	2728      	movs	r7, #40	; 0x28
 800bf44:	f883 1031 	strb.w	r1, [r3, #49]	; 0x31
 800bf48:	f883 2054 	strb.w	r2, [r3, #84]	; 0x54
 800bf4c:	f883 2055 	strb.w	r2, [r3, #85]	; 0x55
 800bf50:	f8c3 e03c 	str.w	lr, [r3, #60]	; 0x3c
 800bf54:	fb07 0101 	mla	r1, r7, r1, r0
 800bf58:	f8c3 c040 	str.w	ip, [r3, #64]	; 0x40
 800bf5c:	e792      	b.n	800be84 <USBH_MIDI_Process.lto_priv.0+0x140>
 800bf5e:	8ab3      	ldrh	r3, [r6, #20]
 800bf60:	88f2      	ldrh	r2, [r6, #6]
 800bf62:	4293      	cmp	r3, r2
 800bf64:	d803      	bhi.n	800bf6e <USBH_MIDI_Process.lto_priv.0+0x22a>
 800bf66:	2300      	movs	r3, #0
 800bf68:	82b3      	strh	r3, [r6, #20]
 800bf6a:	7633      	strb	r3, [r6, #24]
 800bf6c:	e714      	b.n	800bd98 <USBH_MIDI_Process.lto_priv.0+0x54>
 800bf6e:	68f1      	ldr	r1, [r6, #12]
 800bf70:	7634      	strb	r4, [r6, #24]
 800bf72:	1a9b      	subs	r3, r3, r2
 800bf74:	440a      	add	r2, r1
 800bf76:	82b3      	strh	r3, [r6, #20]
 800bf78:	60f2      	str	r2, [r6, #12]
 800bf7a:	e70d      	b.n	800bd98 <USBH_MIDI_Process.lto_priv.0+0x54>
 800bf7c:	f8df 83a8 	ldr.w	r8, [pc, #936]	; 800c328 <USBH_MIDI_Process.lto_priv.0+0x5e4>
 800bf80:	2300      	movs	r3, #0
 800bf82:	7673      	strb	r3, [r6, #25]
 800bf84:	f898 2000 	ldrb.w	r2, [r8]
 800bf88:	f8d8 35c4 	ldr.w	r3, [r8, #1476]	; 0x5c4
 800bf8c:	2a0a      	cmp	r2, #10
 800bf8e:	69db      	ldr	r3, [r3, #28]
 800bf90:	d00c      	beq.n	800bfac <USBH_MIDI_Process.lto_priv.0+0x268>
 800bf92:	781a      	ldrb	r2, [r3, #0]
 800bf94:	2a01      	cmp	r2, #1
 800bf96:	f63f aee4 	bhi.w	800bd62 <USBH_MIDI_Process.lto_priv.0+0x1e>
 800bf9a:	4ad6      	ldr	r2, [pc, #856]	; (800c2f4 <USBH_MIDI_Process.lto_priv.0+0x5b0>)
 800bf9c:	611a      	str	r2, [r3, #16]
 800bf9e:	2040      	movs	r0, #64	; 0x40
 800bfa0:	2101      	movs	r1, #1
 800bfa2:	2203      	movs	r2, #3
 800bfa4:	82d8      	strh	r0, [r3, #22]
 800bfa6:	7019      	strb	r1, [r3, #0]
 800bfa8:	765a      	strb	r2, [r3, #25]
 800bfaa:	e6db      	b.n	800bd64 <USBH_MIDI_Process.lto_priv.0+0x20>
 800bfac:	785a      	ldrb	r2, [r3, #1]
 800bfae:	f8d8 1610 	ldr.w	r1, [r8, #1552]	; 0x610
 800bfb2:	eb02 0282 	add.w	r2, r2, r2, lsl #2
 800bfb6:	eb01 02c2 	add.w	r2, r1, r2, lsl #3
 800bfba:	f8b2 2044 	ldrh.w	r2, [r2, #68]	; 0x44
 800bfbe:	0892      	lsrs	r2, r2, #2
 800bfc0:	1e51      	subs	r1, r2, #1
 800bfc2:	b289      	uxth	r1, r1
 800bfc4:	2a00      	cmp	r2, #0
 800bfc6:	d0e4      	beq.n	800bf92 <USBH_MIDI_Process.lto_priv.0+0x24e>
 800bfc8:	4dcb      	ldr	r5, [pc, #812]	; (800c2f8 <USBH_MIDI_Process.lto_priv.0+0x5b4>)
 800bfca:	f8df b360 	ldr.w	fp, [pc, #864]	; 800c32c <USBH_MIDI_Process.lto_priv.0+0x5e8>
 800bfce:	4fcb      	ldr	r7, [pc, #812]	; (800c2fc <USBH_MIDI_Process.lto_priv.0+0x5b8>)
 800bfd0:	f8df 935c 	ldr.w	r9, [pc, #860]	; 800c330 <USBH_MIDI_Process.lto_priv.0+0x5ec>
 800bfd4:	f8df a35c 	ldr.w	sl, [pc, #860]	; 800c334 <USBH_MIDI_Process.lto_priv.0+0x5f0>
 800bfd8:	1d2e      	adds	r6, r5, #4
 800bfda:	eb06 0681 	add.w	r6, r6, r1, lsl #2
 800bfde:	e003      	b.n	800bfe8 <USBH_MIDI_Process.lto_priv.0+0x2a4>
 800bfe0:	3504      	adds	r5, #4
 800bfe2:	42ae      	cmp	r6, r5
 800bfe4:	f001 8101 	beq.w	800d1ea <USBH_MIDI_Process.lto_priv.0+0x14a6>
 800bfe8:	f815 1c04 	ldrb.w	r1, [r5, #-4]
 800bfec:	f815 2c03 	ldrb.w	r2, [r5, #-3]
 800bff0:	f815 3c02 	ldrb.w	r3, [r5, #-2]
 800bff4:	f815 0c01 	ldrb.w	r0, [r5, #-1]
 800bff8:	2900      	cmp	r1, #0
 800bffa:	f041 80a5 	bne.w	800d148 <USBH_MIDI_Process.lto_priv.0+0x1404>
 800bffe:	7839      	ldrb	r1, [r7, #0]
 800c000:	f002 02f0 	and.w	r2, r2, #240	; 0xf0
 800c004:	b929      	cbnz	r1, 800c012 <USBH_MIDI_Process.lto_priv.0+0x2ce>
 800c006:	2a80      	cmp	r2, #128	; 0x80
 800c008:	f001 80a7 	beq.w	800d15a <USBH_MIDI_Process.lto_priv.0+0x1416>
 800c00c:	2a90      	cmp	r2, #144	; 0x90
 800c00e:	f001 80c8 	beq.w	800d1a2 <USBH_MIDI_Process.lto_priv.0+0x145e>
 800c012:	2ab0      	cmp	r2, #176	; 0xb0
 800c014:	d1e4      	bne.n	800bfe0 <USBH_MIDI_Process.lto_priv.0+0x29c>
 800c016:	3b01      	subs	r3, #1
 800c018:	2b76      	cmp	r3, #118	; 0x76
 800c01a:	d8e1      	bhi.n	800bfe0 <USBH_MIDI_Process.lto_priv.0+0x29c>
 800c01c:	a201      	add	r2, pc, #4	; (adr r2, 800c024 <USBH_MIDI_Process.lto_priv.0+0x2e0>)
 800c01e:	f852 f023 	ldr.w	pc, [r2, r3, lsl #2]
 800c022:	bf00      	nop
 800c024:	0800d00f 	.word	0x0800d00f
 800c028:	0800cff5 	.word	0x0800cff5
 800c02c:	0800cfbb 	.word	0x0800cfbb
 800c030:	0800cf93 	.word	0x0800cf93
 800c034:	0800cf59 	.word	0x0800cf59
 800c038:	0800c33d 	.word	0x0800c33d
 800c03c:	0800bfe1 	.word	0x0800bfe1
 800c040:	0800c271 	.word	0x0800c271
 800c044:	0800c219 	.word	0x0800c219
 800c048:	0800bfe1 	.word	0x0800bfe1
 800c04c:	0800bfe1 	.word	0x0800bfe1
 800c050:	0800c24d 	.word	0x0800c24d
 800c054:	0800d0ed 	.word	0x0800d0ed
 800c058:	0800d0b1 	.word	0x0800d0b1
 800c05c:	0800d097 	.word	0x0800d097
 800c060:	0800d07d 	.word	0x0800d07d
 800c064:	0800c4c5 	.word	0x0800c4c5
 800c068:	0800c499 	.word	0x0800c499
 800c06c:	0800c47b 	.word	0x0800c47b
 800c070:	0800c45d 	.word	0x0800c45d
 800c074:	0800c439 	.word	0x0800c439
 800c078:	0800c40d 	.word	0x0800c40d
 800c07c:	0800c3ff 	.word	0x0800c3ff
 800c080:	0800c3f1 	.word	0x0800c3f1
 800c084:	0800c507 	.word	0x0800c507
 800c088:	0800c4f9 	.word	0x0800c4f9
 800c08c:	0800c4eb 	.word	0x0800c4eb
 800c090:	0800c4dd 	.word	0x0800c4dd
 800c094:	0800c581 	.word	0x0800c581
 800c098:	0800c51b 	.word	0x0800c51b
 800c09c:	0800c543 	.word	0x0800c543
 800c0a0:	0800bfe1 	.word	0x0800bfe1
 800c0a4:	0800c3e1 	.word	0x0800c3e1
 800c0a8:	0800d129 	.word	0x0800d129
 800c0ac:	0800d117 	.word	0x0800d117
 800c0b0:	0800d139 	.word	0x0800d139
 800c0b4:	0800c599 	.word	0x0800c599
 800c0b8:	0800c20d 	.word	0x0800c20d
 800c0bc:	0800c201 	.word	0x0800c201
 800c0c0:	0800cbfb 	.word	0x0800cbfb
 800c0c4:	0800cbc5 	.word	0x0800cbc5
 800c0c8:	0800cb8b 	.word	0x0800cb8b
 800c0cc:	0800cb59 	.word	0x0800cb59
 800c0d0:	0800bfe1 	.word	0x0800bfe1
 800c0d4:	0800bfe1 	.word	0x0800bfe1
 800c0d8:	0800bfe1 	.word	0x0800bfe1
 800c0dc:	0800bfe1 	.word	0x0800bfe1
 800c0e0:	0800bfe1 	.word	0x0800bfe1
 800c0e4:	0800bfe1 	.word	0x0800bfe1
 800c0e8:	0800cc49 	.word	0x0800cc49
 800c0ec:	0800cc2f 	.word	0x0800cc2f
 800c0f0:	0800cc83 	.word	0x0800cc83
 800c0f4:	0800c949 	.word	0x0800c949
 800c0f8:	0800c219 	.word	0x0800c219
 800c0fc:	0800ca09 	.word	0x0800ca09
 800c100:	0800c9e9 	.word	0x0800c9e9
 800c104:	0800c9cf 	.word	0x0800c9cf
 800c108:	0800ca75 	.word	0x0800ca75
 800c10c:	0800ca4b 	.word	0x0800ca4b
 800c110:	0800ca8f 	.word	0x0800ca8f
 800c114:	0800c8fb 	.word	0x0800c8fb
 800c118:	0800c87d 	.word	0x0800c87d
 800c11c:	0800c835 	.word	0x0800c835
 800c120:	0800bfe1 	.word	0x0800bfe1
 800c124:	0800c81b 	.word	0x0800c81b
 800c128:	0800c801 	.word	0x0800c801
 800c12c:	0800c8b7 	.word	0x0800c8b7
 800c130:	0800c89f 	.word	0x0800c89f
 800c134:	0800c8cb 	.word	0x0800c8cb
 800c138:	0800bfe1 	.word	0x0800bfe1
 800c13c:	0800bfe1 	.word	0x0800bfe1
 800c140:	0800bfe1 	.word	0x0800bfe1
 800c144:	0800bfe1 	.word	0x0800bfe1
 800c148:	0800bfe1 	.word	0x0800bfe1
 800c14c:	0800bfe1 	.word	0x0800bfe1
 800c150:	0800c7e7 	.word	0x0800c7e7
 800c154:	0800c7cd 	.word	0x0800c7cd
 800c158:	0800bfe1 	.word	0x0800bfe1
 800c15c:	0800bfe1 	.word	0x0800bfe1
 800c160:	0800bfe1 	.word	0x0800bfe1
 800c164:	0800c20d 	.word	0x0800c20d
 800c168:	0800c201 	.word	0x0800c201
 800c16c:	0800bfe1 	.word	0x0800bfe1
 800c170:	0800bfe1 	.word	0x0800bfe1
 800c174:	0800c771 	.word	0x0800c771
 800c178:	0800c749 	.word	0x0800c749
 800c17c:	0800c721 	.word	0x0800c721
 800c180:	0800c63f 	.word	0x0800c63f
 800c184:	0800c627 	.word	0x0800c627
 800c188:	0800ce4b 	.word	0x0800ce4b
 800c18c:	0800ce17 	.word	0x0800ce17
 800c190:	0800cdf1 	.word	0x0800cdf1
 800c194:	0800cdd1 	.word	0x0800cdd1
 800c198:	0800cdab 	.word	0x0800cdab
 800c19c:	0800cd85 	.word	0x0800cd85
 800c1a0:	0800cd5f 	.word	0x0800cd5f
 800c1a4:	0800cd39 	.word	0x0800cd39
 800c1a8:	0800bfe1 	.word	0x0800bfe1
 800c1ac:	0800bfe1 	.word	0x0800bfe1
 800c1b0:	0800bfe1 	.word	0x0800bfe1
 800c1b4:	0800bfe1 	.word	0x0800bfe1
 800c1b8:	0800cd0b 	.word	0x0800cd0b
 800c1bc:	0800cce9 	.word	0x0800cce9
 800c1c0:	0800bfe1 	.word	0x0800bfe1
 800c1c4:	0800cccf 	.word	0x0800cccf
 800c1c8:	0800ccb5 	.word	0x0800ccb5
 800c1cc:	0800bfe1 	.word	0x0800bfe1
 800c1d0:	0800d061 	.word	0x0800d061
 800c1d4:	0800d045 	.word	0x0800d045
 800c1d8:	0800d029 	.word	0x0800d029
 800c1dc:	0800bfe1 	.word	0x0800bfe1
 800c1e0:	0800bfe1 	.word	0x0800bfe1
 800c1e4:	0800bfe1 	.word	0x0800bfe1
 800c1e8:	0800bfe1 	.word	0x0800bfe1
 800c1ec:	0800bfe1 	.word	0x0800bfe1
 800c1f0:	0800bfe1 	.word	0x0800bfe1
 800c1f4:	0800c799 	.word	0x0800c799
 800c1f8:	0800c7b3 	.word	0x0800c7b3
 800c1fc:	0800ca2f 	.word	0x0800ca2f
 800c200:	287f      	cmp	r0, #127	; 0x7f
 800c202:	f47f aeed 	bne.w	800bfe0 <USBH_MIDI_Process.lto_priv.0+0x29c>
 800c206:	f7fb fc03 	bl	8007a10 <MagicPatch.part.0>
 800c20a:	e6e9      	b.n	800bfe0 <USBH_MIDI_Process.lto_priv.0+0x29c>
 800c20c:	287f      	cmp	r0, #127	; 0x7f
 800c20e:	f47f aee7 	bne.w	800bfe0 <USBH_MIDI_Process.lto_priv.0+0x29c>
 800c212:	f7fc f9f9 	bl	8008608 <MagicFX.part.0>
 800c216:	e6e3      	b.n	800bfe0 <USBH_MIDI_Process.lto_priv.0+0x29c>
 800c218:	ee07 0a90 	vmov	s15, r0
 800c21c:	eeb8 6ae7 	vcvt.f32.s32	s12, s15
 800c220:	eddf 7a37 	vldr	s15, [pc, #220]	; 800c300 <USBH_MIDI_Process.lto_priv.0+0x5bc>
 800c224:	ed9f 7a37 	vldr	s14, [pc, #220]	; 800c304 <USBH_MIDI_Process.lto_priv.0+0x5c0>
 800c228:	4b37      	ldr	r3, [pc, #220]	; (800c308 <USBH_MIDI_Process.lto_priv.0+0x5c4>)
 800c22a:	eec6 6a27 	vdiv.f32	s13, s12, s15
 800c22e:	eef7 7a00 	vmov.f32	s15, #112	; 0x3f800000  1.0
 800c232:	ee77 7ae6 	vsub.f32	s15, s15, s13
 800c236:	eef4 7ac7 	vcmpe.f32	s15, s14
 800c23a:	eef1 fa10 	vmrs	APSR_nzcv, fpscr
 800c23e:	edc3 7a03 	vstr	s15, [r3, #12]
 800c242:	f57f aecd 	bpl.w	800bfe0 <USBH_MIDI_Process.lto_priv.0+0x29c>
 800c246:	4a31      	ldr	r2, [pc, #196]	; (800c30c <USBH_MIDI_Process.lto_priv.0+0x5c8>)
 800c248:	60da      	str	r2, [r3, #12]
 800c24a:	e6c9      	b.n	800bfe0 <USBH_MIDI_Process.lto_priv.0+0x29c>
 800c24c:	ee07 0a90 	vmov	s15, r0
 800c250:	ed9f 7a2b 	vldr	s14, [pc, #172]	; 800c300 <USBH_MIDI_Process.lto_priv.0+0x5bc>
 800c254:	4b2c      	ldr	r3, [pc, #176]	; (800c308 <USBH_MIDI_Process.lto_priv.0+0x5c4>)
 800c256:	eef8 6ae7 	vcvt.f32.s32	s13, s15
 800c25a:	eec6 7a87 	vdiv.f32	s15, s13, s14
 800c25e:	eeb1 7a08 	vmov.f32	s14, #24	; 0x40c00000  6.0
 800c262:	ee67 7aa7 	vmul.f32	s15, s15, s15
 800c266:	ee67 7a87 	vmul.f32	s15, s15, s14
 800c26a:	edc3 7a06 	vstr	s15, [r3, #24]
 800c26e:	e6b7      	b.n	800bfe0 <USBH_MIDI_Process.lto_priv.0+0x29c>
 800c270:	ee07 0a90 	vmov	s15, r0
 800c274:	eef8 0ae7 	vcvt.f32.s32	s1, s15
 800c278:	eddf 7a21 	vldr	s15, [pc, #132]	; 800c300 <USBH_MIDI_Process.lto_priv.0+0x5bc>
 800c27c:	ed9f 0a24 	vldr	s0, [pc, #144]	; 800c310 <USBH_MIDI_Process.lto_priv.0+0x5cc>
 800c280:	eec0 0aa7 	vdiv.f32	s1, s1, s15
 800c284:	f001 fa6c 	bl	800d760 <powf>
 800c288:	4a22      	ldr	r2, [pc, #136]	; (800c314 <USBH_MIDI_Process.lto_priv.0+0x5d0>)
 800c28a:	4b1f      	ldr	r3, [pc, #124]	; (800c308 <USBH_MIDI_Process.lto_priv.0+0x5c4>)
 800c28c:	ed9f 7a22 	vldr	s14, [pc, #136]	; 800c318 <USBH_MIDI_Process.lto_priv.0+0x5d4>
 800c290:	eddf 6a22 	vldr	s13, [pc, #136]	; 800c31c <USBH_MIDI_Process.lto_priv.0+0x5d8>
 800c294:	ed9f 6a22 	vldr	s12, [pc, #136]	; 800c320 <USBH_MIDI_Process.lto_priv.0+0x5dc>
 800c298:	eddf 7a22 	vldr	s15, [pc, #136]	; 800c324 <USBH_MIDI_Process.lto_priv.0+0x5e0>
 800c29c:	ee20 0a07 	vmul.f32	s0, s0, s14
 800c2a0:	eef6 5a00 	vmov.f32	s11, #96	; 0x3f000000  0.5
 800c2a4:	ee80 7a26 	vdiv.f32	s14, s0, s13
 800c2a8:	eef1 6a04 	vmov.f32	s13, #20	; 0x40a00000  5.0
 800c2ac:	eeb4 7a46 	vcmp.f32	s14, s12
 800c2b0:	eef1 fa10 	vmrs	APSR_nzcv, fpscr
 800c2b4:	ed82 7a00 	vstr	s14, [r2]
 800c2b8:	bfc8      	it	gt
 800c2ba:	eeb0 7a46 	vmovgt.f32	s14, s12
 800c2be:	ee27 7a25 	vmul.f32	s14, s14, s11
 800c2c2:	eeba 6a0e 	vmov.f32	s12, #174	; 0xc1700000 -15.0
 800c2c6:	ee67 7a27 	vmul.f32	s15, s14, s15
 800c2ca:	eef0 5a08 	vmov.f32	s11, #8	; 0x40400000  3.0
 800c2ce:	ee77 4aa7 	vadd.f32	s9, s15, s15
 800c2d2:	ee27 5aa7 	vmul.f32	s10, s15, s15
 800c2d6:	ee54 6aa7 	vnmls.f32	s13, s9, s15
 800c2da:	ee27 6a86 	vmul.f32	s12, s15, s12
 800c2de:	ee05 6a27 	vmla.f32	s12, s10, s15
 800c2e2:	ee66 7aa5 	vmul.f32	s15, s13, s11
 800c2e6:	ed83 7a01 	vstr	s14, [r3, #4]
 800c2ea:	ee86 7a27 	vdiv.f32	s14, s12, s15
 800c2ee:	ed83 7a02 	vstr	s14, [r3, #8]
 800c2f2:	e675      	b.n	800bfe0 <USBH_MIDI_Process.lto_priv.0+0x29c>
 800c2f4:	20000914 	.word	0x20000914
 800c2f8:	20000918 	.word	0x20000918
 800c2fc:	2000005c 	.word	0x2000005c
 800c300:	42fe0000 	.word	0x42fe0000
 800c304:	3c23d70a 	.word	0x3c23d70a
 800c308:	10000140 	.word	0x10000140
 800c30c:	3c23d70a 	.word	0x3c23d70a
 800c310:	42c80000 	.word	0x42c80000
 800c314:	2001ede0 	.word	0x2001ede0
 800c318:	42a00000 	.word	0x42a00000
 800c31c:	472c4400 	.word	0x472c4400
 800c320:	3f733333 	.word	0x3f733333
 800c324:	40490fdb 	.word	0x40490fdb
 800c328:	2001f0bc 	.word	0x2001f0bc
 800c32c:	100028d4 	.word	0x100028d4
 800c330:	40020c00 	.word	0x40020c00
 800c334:	20000904 	.word	0x20000904
 800c338:	3df1e3c8 	.word	0x3df1e3c8
 800c33c:	ee07 0a90 	vmov	s15, r0
 800c340:	eeb8 0ae7 	vcvt.f32.s32	s0, s15
 800c344:	ed5f 7a04 	vldr	s15, [pc, #-16]	; 800c338 <USBH_MIDI_Process.lto_priv.0+0x5f4>
 800c348:	ee20 0a27 	vmul.f32	s0, s0, s15
 800c34c:	f001 f960 	bl	800d610 <rintf>
 800c350:	eefc 7ac0 	vcvt.u32.f32	s15, s0
 800c354:	4ac4      	ldr	r2, [pc, #784]	; (800c668 <USBH_MIDI_Process.lto_priv.0+0x924>)
 800c356:	edcd 7a00 	vstr	s15, [sp]
 800c35a:	f89d 3000 	ldrb.w	r3, [sp]
 800c35e:	7013      	strb	r3, [r2, #0]
 800c360:	2b04      	cmp	r3, #4
 800c362:	f43f ae3d 	beq.w	800bfe0 <USBH_MIDI_Process.lto_priv.0+0x29c>
 800c366:	4ac1      	ldr	r2, [pc, #772]	; (800c66c <USBH_MIDI_Process.lto_priv.0+0x928>)
 800c368:	4bc1      	ldr	r3, [pc, #772]	; (800c670 <USBH_MIDI_Process.lto_priv.0+0x92c>)
 800c36a:	eddf 9ac2 	vldr	s19, [pc, #776]	; 800c674 <USBH_MIDI_Process.lto_priv.0+0x930>
 800c36e:	ed9f 9ac2 	vldr	s18, [pc, #776]	; 800c678 <USBH_MIDI_Process.lto_priv.0+0x934>
 800c372:	eddf 8ac2 	vldr	s17, [pc, #776]	; 800c67c <USBH_MIDI_Process.lto_priv.0+0x938>
 800c376:	9401      	str	r4, [sp, #4]
 800c378:	4610      	mov	r0, r2
 800c37a:	2100      	movs	r1, #0
 800c37c:	f04f 5c7e 	mov.w	ip, #1065353216	; 0x3f800000
 800c380:	f840 cb08 	str.w	ip, [r0], #8
 800c384:	6059      	str	r1, [r3, #4]
 800c386:	f843 1b08 	str.w	r1, [r3], #8
 800c38a:	ee08 1a10 	vmov	s16, r1
 800c38e:	9000      	str	r0, [sp, #0]
 800c390:	f8c2 c004 	str.w	ip, [r2, #4]
 800c394:	461c      	mov	r4, r3
 800c396:	f002 fbe1 	bl	800eb5c <rand>
 800c39a:	ee07 0a90 	vmov	s15, r0
 800c39e:	eef8 7ae7 	vcvt.f32.s32	s15, s15
 800c3a2:	9b00      	ldr	r3, [sp, #0]
 800c3a4:	4ab1      	ldr	r2, [pc, #708]	; (800c66c <USBH_MIDI_Process.lto_priv.0+0x928>)
 800c3a6:	eca4 8a01 	vstmia	r4!, {s16}
 800c3aa:	ee67 7aa9 	vmul.f32	s15, s15, s19
 800c3ae:	f102 012c 	add.w	r1, r2, #44	; 0x2c
 800c3b2:	ee67 7a89 	vmul.f32	s15, s15, s18
 800c3b6:	ee77 7aa8 	vadd.f32	s15, s15, s17
 800c3ba:	ece3 7a01 	vstmia	r3!, {s15}
 800c3be:	ed92 7a00 	vldr	s14, [r2]
 800c3c2:	9300      	str	r3, [sp, #0]
 800c3c4:	ee77 7a87 	vadd.f32	s15, s15, s14
 800c3c8:	4299      	cmp	r1, r3
 800c3ca:	edc2 7a00 	vstr	s15, [r2]
 800c3ce:	d1e2      	bne.n	800c396 <USBH_MIDI_Process.lto_priv.0+0x652>
 800c3d0:	eef7 6a00 	vmov.f32	s13, #112	; 0x3f800000  1.0
 800c3d4:	ee86 7aa7 	vdiv.f32	s14, s13, s15
 800c3d8:	9c01      	ldr	r4, [sp, #4]
 800c3da:	ed82 7a00 	vstr	s14, [r2]
 800c3de:	e5ff      	b.n	800bfe0 <USBH_MIDI_Process.lto_priv.0+0x29c>
 800c3e0:	287f      	cmp	r0, #127	; 0x7f
 800c3e2:	f47f adfd 	bne.w	800bfe0 <USBH_MIDI_Process.lto_priv.0+0x29c>
 800c3e6:	4ba6      	ldr	r3, [pc, #664]	; (800c680 <USBH_MIDI_Process.lto_priv.0+0x93c>)
 800c3e8:	f64f 72fe 	movw	r2, #65534	; 0xfffe
 800c3ec:	819a      	strh	r2, [r3, #12]
 800c3ee:	e5f7      	b.n	800bfe0 <USBH_MIDI_Process.lto_priv.0+0x29c>
 800c3f0:	283f      	cmp	r0, #63	; 0x3f
 800c3f2:	4ba4      	ldr	r3, [pc, #656]	; (800c684 <USBH_MIDI_Process.lto_priv.0+0x940>)
 800c3f4:	bf8c      	ite	hi
 800c3f6:	2201      	movhi	r2, #1
 800c3f8:	2200      	movls	r2, #0
 800c3fa:	701a      	strb	r2, [r3, #0]
 800c3fc:	e5f0      	b.n	800bfe0 <USBH_MIDI_Process.lto_priv.0+0x29c>
 800c3fe:	283f      	cmp	r0, #63	; 0x3f
 800c400:	4ba1      	ldr	r3, [pc, #644]	; (800c688 <USBH_MIDI_Process.lto_priv.0+0x944>)
 800c402:	f240 8740 	bls.w	800d286 <USBH_MIDI_Process.lto_priv.0+0x1542>
 800c406:	2201      	movs	r2, #1
 800c408:	701a      	strb	r2, [r3, #0]
 800c40a:	e5e9      	b.n	800bfe0 <USBH_MIDI_Process.lto_priv.0+0x29c>
 800c40c:	ee07 0a90 	vmov	s15, r0
 800c410:	eddf 6a9e 	vldr	s13, [pc, #632]	; 800c68c <USBH_MIDI_Process.lto_priv.0+0x948>
 800c414:	4b9e      	ldr	r3, [pc, #632]	; (800c690 <USBH_MIDI_Process.lto_priv.0+0x94c>)
 800c416:	4a9f      	ldr	r2, [pc, #636]	; (800c694 <USBH_MIDI_Process.lto_priv.0+0x950>)
 800c418:	ed93 7a01 	vldr	s14, [r3, #4]
 800c41c:	4b9e      	ldr	r3, [pc, #632]	; (800c698 <USBH_MIDI_Process.lto_priv.0+0x954>)
 800c41e:	eeb8 6ae7 	vcvt.f32.s32	s12, s15
 800c422:	eddf 7a9e 	vldr	s15, [pc, #632]	; 800c69c <USBH_MIDI_Process.lto_priv.0+0x958>
 800c426:	ee46 7a26 	vmla.f32	s15, s12, s13
 800c42a:	ee27 7a27 	vmul.f32	s14, s14, s15
 800c42e:	edc2 7a00 	vstr	s15, [r2]
 800c432:	ed83 7a01 	vstr	s14, [r3, #4]
 800c436:	e5d3      	b.n	800bfe0 <USBH_MIDI_Process.lto_priv.0+0x29c>
 800c438:	ee07 0a90 	vmov	s15, r0
 800c43c:	ed9f 7a98 	vldr	s14, [pc, #608]	; 800c6a0 <USBH_MIDI_Process.lto_priv.0+0x95c>
 800c440:	eddf 6ab5 	vldr	s13, [pc, #724]	; 800c718 <USBH_MIDI_Process.lto_priv.0+0x9d4>
 800c444:	4b97      	ldr	r3, [pc, #604]	; (800c6a4 <USBH_MIDI_Process.lto_priv.0+0x960>)
 800c446:	eef8 7ae7 	vcvt.f32.s32	s15, s15
 800c44a:	ee67 7a87 	vmul.f32	s15, s15, s14
 800c44e:	ee87 7aa6 	vdiv.f32	s14, s15, s13
 800c452:	ed8b 7a01 	vstr	s14, [fp, #4]
 800c456:	ed83 7a01 	vstr	s14, [r3, #4]
 800c45a:	e5c1      	b.n	800bfe0 <USBH_MIDI_Process.lto_priv.0+0x29c>
 800c45c:	ee07 0a90 	vmov	s15, r0
 800c460:	ed9f 7a91 	vldr	s14, [pc, #580]	; 800c6a8 <USBH_MIDI_Process.lto_priv.0+0x964>
 800c464:	4a8a      	ldr	r2, [pc, #552]	; (800c690 <USBH_MIDI_Process.lto_priv.0+0x94c>)
 800c466:	4b8c      	ldr	r3, [pc, #560]	; (800c698 <USBH_MIDI_Process.lto_priv.0+0x954>)
 800c468:	eef8 7ae7 	vcvt.f32.s32	s15, s15
 800c46c:	ee67 7a87 	vmul.f32	s15, s15, s14
 800c470:	edc2 7a00 	vstr	s15, [r2]
 800c474:	edc3 7a00 	vstr	s15, [r3]
 800c478:	e5b2      	b.n	800bfe0 <USBH_MIDI_Process.lto_priv.0+0x29c>
 800c47a:	ee07 0a90 	vmov	s15, r0
 800c47e:	ed9f 7a8b 	vldr	s14, [pc, #556]	; 800c6ac <USBH_MIDI_Process.lto_priv.0+0x968>
 800c482:	4a8b      	ldr	r2, [pc, #556]	; (800c6b0 <USBH_MIDI_Process.lto_priv.0+0x96c>)
 800c484:	4b8b      	ldr	r3, [pc, #556]	; (800c6b4 <USBH_MIDI_Process.lto_priv.0+0x970>)
 800c486:	eef8 7ae7 	vcvt.f32.s32	s15, s15
 800c48a:	ee67 7a87 	vmul.f32	s15, s15, s14
 800c48e:	edc2 7a00 	vstr	s15, [r2]
 800c492:	edc3 7a00 	vstr	s15, [r3]
 800c496:	e5a3      	b.n	800bfe0 <USBH_MIDI_Process.lto_priv.0+0x29c>
 800c498:	ee07 0a90 	vmov	s15, r0
 800c49c:	eddf 6a86 	vldr	s13, [pc, #536]	; 800c6b8 <USBH_MIDI_Process.lto_priv.0+0x974>
 800c4a0:	4b7c      	ldr	r3, [pc, #496]	; (800c694 <USBH_MIDI_Process.lto_priv.0+0x950>)
 800c4a2:	4a7b      	ldr	r2, [pc, #492]	; (800c690 <USBH_MIDI_Process.lto_priv.0+0x94c>)
 800c4a4:	ed93 7a00 	vldr	s14, [r3]
 800c4a8:	4b7b      	ldr	r3, [pc, #492]	; (800c698 <USBH_MIDI_Process.lto_priv.0+0x954>)
 800c4aa:	eeb8 6ae7 	vcvt.f32.s32	s12, s15
 800c4ae:	eddf 7a83 	vldr	s15, [pc, #524]	; 800c6bc <USBH_MIDI_Process.lto_priv.0+0x978>
 800c4b2:	ee46 7a26 	vmla.f32	s15, s12, s13
 800c4b6:	ee27 7a27 	vmul.f32	s14, s14, s15
 800c4ba:	edc2 7a01 	vstr	s15, [r2, #4]
 800c4be:	ed83 7a01 	vstr	s14, [r3, #4]
 800c4c2:	e58d      	b.n	800bfe0 <USBH_MIDI_Process.lto_priv.0+0x29c>
 800c4c4:	ee07 0a90 	vmov	s15, r0
 800c4c8:	ed9f 7a7d 	vldr	s14, [pc, #500]	; 800c6c0 <USBH_MIDI_Process.lto_priv.0+0x97c>
 800c4cc:	4b7d      	ldr	r3, [pc, #500]	; (800c6c4 <USBH_MIDI_Process.lto_priv.0+0x980>)
 800c4ce:	eef8 7ae7 	vcvt.f32.s32	s15, s15
 800c4d2:	ee67 7a87 	vmul.f32	s15, s15, s14
 800c4d6:	edc3 7a02 	vstr	s15, [r3, #8]
 800c4da:	e581      	b.n	800bfe0 <USBH_MIDI_Process.lto_priv.0+0x29c>
 800c4dc:	283f      	cmp	r0, #63	; 0x3f
 800c4de:	4b7a      	ldr	r3, [pc, #488]	; (800c6c8 <USBH_MIDI_Process.lto_priv.0+0x984>)
 800c4e0:	bf8c      	ite	hi
 800c4e2:	2201      	movhi	r2, #1
 800c4e4:	2200      	movls	r2, #0
 800c4e6:	701a      	strb	r2, [r3, #0]
 800c4e8:	e57a      	b.n	800bfe0 <USBH_MIDI_Process.lto_priv.0+0x29c>
 800c4ea:	283f      	cmp	r0, #63	; 0x3f
 800c4ec:	4b77      	ldr	r3, [pc, #476]	; (800c6cc <USBH_MIDI_Process.lto_priv.0+0x988>)
 800c4ee:	bf8c      	ite	hi
 800c4f0:	2201      	movhi	r2, #1
 800c4f2:	2200      	movls	r2, #0
 800c4f4:	701a      	strb	r2, [r3, #0]
 800c4f6:	e573      	b.n	800bfe0 <USBH_MIDI_Process.lto_priv.0+0x29c>
 800c4f8:	283f      	cmp	r0, #63	; 0x3f
 800c4fa:	4b61      	ldr	r3, [pc, #388]	; (800c680 <USBH_MIDI_Process.lto_priv.0+0x93c>)
 800c4fc:	bf8c      	ite	hi
 800c4fe:	2201      	movhi	r2, #1
 800c500:	2200      	movls	r2, #0
 800c502:	739a      	strb	r2, [r3, #14]
 800c504:	e56c      	b.n	800bfe0 <USBH_MIDI_Process.lto_priv.0+0x29c>
 800c506:	2800      	cmp	r0, #0
 800c508:	f000 8725 	beq.w	800d356 <USBH_MIDI_Process.lto_priv.0+0x1612>
 800c50c:	287f      	cmp	r0, #127	; 0x7f
 800c50e:	f47f ad67 	bne.w	800bfe0 <USBH_MIDI_Process.lto_priv.0+0x29c>
 800c512:	4b5b      	ldr	r3, [pc, #364]	; (800c680 <USBH_MIDI_Process.lto_priv.0+0x93c>)
 800c514:	2201      	movs	r2, #1
 800c516:	745a      	strb	r2, [r3, #17]
 800c518:	e562      	b.n	800bfe0 <USBH_MIDI_Process.lto_priv.0+0x29c>
 800c51a:	2800      	cmp	r0, #0
 800c51c:	f000 8708 	beq.w	800d330 <USBH_MIDI_Process.lto_priv.0+0x15ec>
 800c520:	287f      	cmp	r0, #127	; 0x7f
 800c522:	f47f ad5d 	bne.w	800bfe0 <USBH_MIDI_Process.lto_priv.0+0x29c>
 800c526:	4b5f      	ldr	r3, [pc, #380]	; (800c6a4 <USBH_MIDI_Process.lto_priv.0+0x960>)
 800c528:	eddb 7a01 	vldr	s15, [fp, #4]
 800c52c:	ed93 7a01 	vldr	s14, [r3, #4]
 800c530:	eef0 7ae7 	vabs.f32	s15, s15
 800c534:	eeb0 7ac7 	vabs.f32	s14, s14
 800c538:	ed83 7a01 	vstr	s14, [r3, #4]
 800c53c:	edcb 7a01 	vstr	s15, [fp, #4]
 800c540:	e54e      	b.n	800bfe0 <USBH_MIDI_Process.lto_priv.0+0x29c>
 800c542:	2800      	cmp	r0, #0
 800c544:	f000 870b 	beq.w	800d35e <USBH_MIDI_Process.lto_priv.0+0x161a>
 800c548:	287f      	cmp	r0, #127	; 0x7f
 800c54a:	f47f ad49 	bne.w	800bfe0 <USBH_MIDI_Process.lto_priv.0+0x29c>
 800c54e:	4a60      	ldr	r2, [pc, #384]	; (800c6d0 <USBH_MIDI_Process.lto_priv.0+0x98c>)
 800c550:	4b60      	ldr	r3, [pc, #384]	; (800c6d4 <USBH_MIDI_Process.lto_priv.0+0x990>)
 800c552:	f8d2 c004 	ldr.w	ip, [r2, #4]
 800c556:	4860      	ldr	r0, [pc, #384]	; (800c6d8 <USBH_MIDI_Process.lto_priv.0+0x994>)
 800c558:	4960      	ldr	r1, [pc, #384]	; (800c6dc <USBH_MIDI_Process.lto_priv.0+0x998>)
 800c55a:	f8c2 c000 	str.w	ip, [r2]
 800c55e:	f8d3 c004 	ldr.w	ip, [r3, #4]
 800c562:	4a5f      	ldr	r2, [pc, #380]	; (800c6e0 <USBH_MIDI_Process.lto_priv.0+0x99c>)
 800c564:	f8c3 c000 	str.w	ip, [r3]
 800c568:	f8d0 c004 	ldr.w	ip, [r0, #4]
 800c56c:	4b5d      	ldr	r3, [pc, #372]	; (800c6e4 <USBH_MIDI_Process.lto_priv.0+0x9a0>)
 800c56e:	f8c0 c000 	str.w	ip, [r0]
 800c572:	6888      	ldr	r0, [r1, #8]
 800c574:	6048      	str	r0, [r1, #4]
 800c576:	6890      	ldr	r0, [r2, #8]
 800c578:	6899      	ldr	r1, [r3, #8]
 800c57a:	6050      	str	r0, [r2, #4]
 800c57c:	6059      	str	r1, [r3, #4]
 800c57e:	e52f      	b.n	800bfe0 <USBH_MIDI_Process.lto_priv.0+0x29c>
 800c580:	2800      	cmp	r0, #0
 800c582:	f000 868c 	beq.w	800d29e <USBH_MIDI_Process.lto_priv.0+0x155a>
 800c586:	287f      	cmp	r0, #127	; 0x7f
 800c588:	f47f ad2a 	bne.w	800bfe0 <USBH_MIDI_Process.lto_priv.0+0x29c>
 800c58c:	4956      	ldr	r1, [pc, #344]	; (800c6e8 <USBH_MIDI_Process.lto_priv.0+0x9a4>)
 800c58e:	4a57      	ldr	r2, [pc, #348]	; (800c6ec <USBH_MIDI_Process.lto_priv.0+0x9a8>)
 800c590:	23ff      	movs	r3, #255	; 0xff
 800c592:	700b      	strb	r3, [r1, #0]
 800c594:	7013      	strb	r3, [r2, #0]
 800c596:	e523      	b.n	800bfe0 <USBH_MIDI_Process.lto_priv.0+0x29c>
 800c598:	287f      	cmp	r0, #127	; 0x7f
 800c59a:	f47f ad21 	bne.w	800bfe0 <USBH_MIDI_Process.lto_priv.0+0x29c>
 800c59e:	f8df e114 	ldr.w	lr, [pc, #276]	; 800c6b4 <USBH_MIDI_Process.lto_priv.0+0x970>
 800c5a2:	f8df c10c 	ldr.w	ip, [pc, #268]	; 800c6b0 <USBH_MIDI_Process.lto_priv.0+0x96c>
 800c5a6:	4b3f      	ldr	r3, [pc, #252]	; (800c6a4 <USBH_MIDI_Process.lto_priv.0+0x960>)
 800c5a8:	4a39      	ldr	r2, [pc, #228]	; (800c690 <USBH_MIDI_Process.lto_priv.0+0x94c>)
 800c5aa:	4951      	ldr	r1, [pc, #324]	; (800c6f0 <USBH_MIDI_Process.lto_priv.0+0x9ac>)
 800c5ac:	4851      	ldr	r0, [pc, #324]	; (800c6f4 <USBH_MIDI_Process.lto_priv.0+0x9b0>)
 800c5ae:	6059      	str	r1, [r3, #4]
 800c5b0:	f8cb 1004 	str.w	r1, [fp, #4]
 800c5b4:	4b38      	ldr	r3, [pc, #224]	; (800c698 <USBH_MIDI_Process.lto_priv.0+0x954>)
 800c5b6:	f8cc 0000 	str.w	r0, [ip]
 800c5ba:	2101      	movs	r1, #1
 800c5bc:	f8ce 0000 	str.w	r0, [lr]
 800c5c0:	484d      	ldr	r0, [pc, #308]	; (800c6f8 <USBH_MIDI_Process.lto_priv.0+0x9b4>)
 800c5c2:	f88c 1004 	strb.w	r1, [ip, #4]
 800c5c6:	6090      	str	r0, [r2, #8]
 800c5c8:	f8df c144 	ldr.w	ip, [pc, #324]	; 800c710 <USBH_MIDI_Process.lto_priv.0+0x9cc>
 800c5cc:	f88e 1004 	strb.w	r1, [lr, #4]
 800c5d0:	2000      	movs	r0, #0
 800c5d2:	494a      	ldr	r1, [pc, #296]	; (800c6fc <USBH_MIDI_Process.lto_priv.0+0x9b8>)
 800c5d4:	f8c2 c004 	str.w	ip, [r2, #4]
 800c5d8:	6098      	str	r0, [r3, #8]
 800c5da:	f8df c138 	ldr.w	ip, [pc, #312]	; 800c714 <USBH_MIDI_Process.lto_priv.0+0x9d0>
 800c5de:	4831      	ldr	r0, [pc, #196]	; (800c6a4 <USBH_MIDI_Process.lto_priv.0+0x960>)
 800c5e0:	6011      	str	r1, [r2, #0]
 800c5e2:	6019      	str	r1, [r3, #0]
 800c5e4:	f8c3 c004 	str.w	ip, [r3, #4]
 800c5e8:	4a2a      	ldr	r2, [pc, #168]	; (800c694 <USBH_MIDI_Process.lto_priv.0+0x950>)
 800c5ea:	f04f 537c 	mov.w	r3, #1056964608	; 0x3f000000
 800c5ee:	6083      	str	r3, [r0, #8]
 800c5f0:	6003      	str	r3, [r0, #0]
 800c5f2:	f04f 517e 	mov.w	r1, #1065353216	; 0x3f800000
 800c5f6:	3010      	adds	r0, #16
 800c5f8:	f240 5c77 	movw	ip, #1399	; 0x577
 800c5fc:	6011      	str	r1, [r2, #0]
 800c5fe:	f44f 52af 	mov.w	r2, #5600	; 0x15e0
 800c602:	2100      	movs	r1, #0
 800c604:	f8cb 3008 	str.w	r3, [fp, #8]
 800c608:	f8cb 3000 	str.w	r3, [fp]
 800c60c:	f8cb c00c 	str.w	ip, [fp, #12]
 800c610:	f840 cc04 	str.w	ip, [r0, #-4]
 800c614:	f002 fa4a 	bl	800eaac <memset>
 800c618:	f44f 52af 	mov.w	r2, #5600	; 0x15e0
 800c61c:	2100      	movs	r1, #0
 800c61e:	4838      	ldr	r0, [pc, #224]	; (800c700 <USBH_MIDI_Process.lto_priv.0+0x9bc>)
 800c620:	f002 fa44 	bl	800eaac <memset>
 800c624:	e4dc      	b.n	800bfe0 <USBH_MIDI_Process.lto_priv.0+0x29c>
 800c626:	ee07 0a90 	vmov	s15, r0
 800c62a:	ed9f 7a3b 	vldr	s14, [pc, #236]	; 800c718 <USBH_MIDI_Process.lto_priv.0+0x9d4>
 800c62e:	4b35      	ldr	r3, [pc, #212]	; (800c704 <USBH_MIDI_Process.lto_priv.0+0x9c0>)
 800c630:	eef8 6ae7 	vcvt.f32.s32	s13, s15
 800c634:	eec6 7a87 	vdiv.f32	s15, s13, s14
 800c638:	edc3 7a00 	vstr	s15, [r3]
 800c63c:	e4d0      	b.n	800bfe0 <USBH_MIDI_Process.lto_priv.0+0x29c>
 800c63e:	ee07 0a90 	vmov	s15, r0
 800c642:	eef8 0ae7 	vcvt.f32.s32	s1, s15
 800c646:	eddf 7a34 	vldr	s15, [pc, #208]	; 800c718 <USBH_MIDI_Process.lto_priv.0+0x9d4>
 800c64a:	ed9f 0a34 	vldr	s0, [pc, #208]	; 800c71c <USBH_MIDI_Process.lto_priv.0+0x9d8>
 800c64e:	eec0 0aa7 	vdiv.f32	s1, s1, s15
 800c652:	f001 f885 	bl	800d760 <powf>
 800c656:	4b2c      	ldr	r3, [pc, #176]	; (800c708 <USBH_MIDI_Process.lto_priv.0+0x9c4>)
 800c658:	eddf 7a2c 	vldr	s15, [pc, #176]	; 800c70c <USBH_MIDI_Process.lto_priv.0+0x9c8>
 800c65c:	ee20 0a27 	vmul.f32	s0, s0, s15
 800c660:	ed83 0a06 	vstr	s0, [r3, #24]
 800c664:	e4bc      	b.n	800bfe0 <USBH_MIDI_Process.lto_priv.0+0x29c>
 800c666:	bf00      	nop
 800c668:	10000094 	.word	0x10000094
 800c66c:	10000280 	.word	0x10000280
 800c670:	100002ac 	.word	0x100002ac
 800c674:	30000000 	.word	0x30000000
 800c678:	3f7a9fbf 	.word	0x3f7a9fbf
 800c67c:	3a83126f 	.word	0x3a83126f
 800c680:	10000054 	.word	0x10000054
 800c684:	10000099 	.word	0x10000099
 800c688:	10000098 	.word	0x10000098
 800c68c:	3be836d4 	.word	0x3be836d4
 800c690:	10000120 	.word	0x10000120
 800c694:	2001f7d0 	.word	0x2001f7d0
 800c698:	10000130 	.word	0x10000130
 800c69c:	3dcccccd 	.word	0x3dcccccd
 800c6a0:	3f733333 	.word	0x3f733333
 800c6a4:	100012dc 	.word	0x100012dc
 800c6a8:	3f8c7f66 	.word	0x3f8c7f66
 800c6ac:	40b060c2 	.word	0x40b060c2
 800c6b0:	10003ec4 	.word	0x10003ec4
 800c6b4:	100028cc 	.word	0x100028cc
 800c6b8:	3d61c387 	.word	0x3d61c387
 800c6bc:	3ca3d70a 	.word	0x3ca3d70a
 800c6c0:	3dc18306 	.word	0x3dc18306
 800c6c4:	10000200 	.word	0x10000200
 800c6c8:	10000097 	.word	0x10000097
 800c6cc:	10000095 	.word	0x10000095
 800c6d0:	10000180 	.word	0x10000180
 800c6d4:	100001a0 	.word	0x100001a0
 800c6d8:	100001c0 	.word	0x100001c0
 800c6dc:	100002d8 	.word	0x100002d8
 800c6e0:	10000824 	.word	0x10000824
 800c6e4:	10000d80 	.word	0x10000d80
 800c6e8:	10003ec8 	.word	0x10003ec8
 800c6ec:	100028d0 	.word	0x100028d0
 800c6f0:	be4ccccd 	.word	0xbe4ccccd
 800c6f4:	43700000 	.word	0x43700000
 800c6f8:	3fc90fdb 	.word	0x3fc90fdb
 800c6fc:	42480000 	.word	0x42480000
 800c700:	100028e4 	.word	0x100028e4
 800c704:	2001f7e4 	.word	0x2001f7e4
 800c708:	100001e0 	.word	0x100001e0
 800c70c:	3e4ccccd 	.word	0x3e4ccccd
 800c710:	3de147ae 	.word	0x3de147ae
 800c714:	3df5c28f 	.word	0x3df5c28f
 800c718:	42fe0000 	.word	0x42fe0000
 800c71c:	43200000 	.word	0x43200000
 800c720:	ee07 0a90 	vmov	s15, r0
 800c724:	eef8 0ae7 	vcvt.f32.s32	s1, s15
 800c728:	ed5f 7a05 	vldr	s15, [pc, #-20]	; 800c718 <USBH_MIDI_Process.lto_priv.0+0x9d4>
 800c72c:	ed1f 0a05 	vldr	s0, [pc, #-20]	; 800c71c <USBH_MIDI_Process.lto_priv.0+0x9d8>
 800c730:	eec0 0aa7 	vdiv.f32	s1, s1, s15
 800c734:	f001 f814 	bl	800d760 <powf>
 800c738:	4be2      	ldr	r3, [pc, #904]	; (800cac4 <USBH_MIDI_Process.lto_priv.0+0xd80>)
 800c73a:	eddf 7ae3 	vldr	s15, [pc, #908]	; 800cac8 <USBH_MIDI_Process.lto_priv.0+0xd84>
 800c73e:	ee20 0a27 	vmul.f32	s0, s0, s15
 800c742:	ed83 0a06 	vstr	s0, [r3, #24]
 800c746:	e44b      	b.n	800bfe0 <USBH_MIDI_Process.lto_priv.0+0x29c>
 800c748:	ee07 0a90 	vmov	s15, r0
 800c74c:	eef8 0ae7 	vcvt.f32.s32	s1, s15
 800c750:	eddf 7ade 	vldr	s15, [pc, #888]	; 800cacc <USBH_MIDI_Process.lto_priv.0+0xd88>
 800c754:	ed9f 0ade 	vldr	s0, [pc, #888]	; 800cad0 <USBH_MIDI_Process.lto_priv.0+0xd8c>
 800c758:	eec0 0aa7 	vdiv.f32	s1, s1, s15
 800c75c:	f001 f800 	bl	800d760 <powf>
 800c760:	4bdc      	ldr	r3, [pc, #880]	; (800cad4 <USBH_MIDI_Process.lto_priv.0+0xd90>)
 800c762:	eddf 7ad9 	vldr	s15, [pc, #868]	; 800cac8 <USBH_MIDI_Process.lto_priv.0+0xd84>
 800c766:	ee20 0a27 	vmul.f32	s0, s0, s15
 800c76a:	ed83 0a06 	vstr	s0, [r3, #24]
 800c76e:	e437      	b.n	800bfe0 <USBH_MIDI_Process.lto_priv.0+0x29c>
 800c770:	ee07 0a90 	vmov	s15, r0
 800c774:	eef8 0ae7 	vcvt.f32.s32	s1, s15
 800c778:	eddf 7ad4 	vldr	s15, [pc, #848]	; 800cacc <USBH_MIDI_Process.lto_priv.0+0xd88>
 800c77c:	ed9f 0ad6 	vldr	s0, [pc, #856]	; 800cad8 <USBH_MIDI_Process.lto_priv.0+0xd94>
 800c780:	eec0 0aa7 	vdiv.f32	s1, s1, s15
 800c784:	f000 ffec 	bl	800d760 <powf>
 800c788:	4bd4      	ldr	r3, [pc, #848]	; (800cadc <USBH_MIDI_Process.lto_priv.0+0xd98>)
 800c78a:	eef6 7a00 	vmov.f32	s15, #96	; 0x3f000000  0.5
 800c78e:	ee20 0a27 	vmul.f32	s0, s0, s15
 800c792:	ed83 0a02 	vstr	s0, [r3, #8]
 800c796:	e423      	b.n	800bfe0 <USBH_MIDI_Process.lto_priv.0+0x29c>
 800c798:	287f      	cmp	r0, #127	; 0x7f
 800c79a:	f47f ac21 	bne.w	800bfe0 <USBH_MIDI_Process.lto_priv.0+0x29c>
 800c79e:	4bcd      	ldr	r3, [pc, #820]	; (800cad4 <USBH_MIDI_Process.lto_priv.0+0xd90>)
 800c7a0:	ed9f 7acf 	vldr	s14, [pc, #828]	; 800cae0 <USBH_MIDI_Process.lto_priv.0+0xd9c>
 800c7a4:	edd3 7a06 	vldr	s15, [r3, #24]
 800c7a8:	ee67 7a87 	vmul.f32	s15, s15, s14
 800c7ac:	edc3 7a06 	vstr	s15, [r3, #24]
 800c7b0:	e416      	b.n	800bfe0 <USBH_MIDI_Process.lto_priv.0+0x29c>
 800c7b2:	287f      	cmp	r0, #127	; 0x7f
 800c7b4:	f47f ac14 	bne.w	800bfe0 <USBH_MIDI_Process.lto_priv.0+0x29c>
 800c7b8:	4bc2      	ldr	r3, [pc, #776]	; (800cac4 <USBH_MIDI_Process.lto_priv.0+0xd80>)
 800c7ba:	ed9f 7ac9 	vldr	s14, [pc, #804]	; 800cae0 <USBH_MIDI_Process.lto_priv.0+0xd9c>
 800c7be:	edd3 7a06 	vldr	s15, [r3, #24]
 800c7c2:	ee67 7a87 	vmul.f32	s15, s15, s14
 800c7c6:	edc3 7a06 	vstr	s15, [r3, #24]
 800c7ca:	e409      	b.n	800bfe0 <USBH_MIDI_Process.lto_priv.0+0x29c>
 800c7cc:	287f      	cmp	r0, #127	; 0x7f
 800c7ce:	f47f ac07 	bne.w	800bfe0 <USBH_MIDI_Process.lto_priv.0+0x29c>
 800c7d2:	4bc4      	ldr	r3, [pc, #784]	; (800cae4 <USBH_MIDI_Process.lto_priv.0+0xda0>)
 800c7d4:	f993 2000 	ldrsb.w	r2, [r3]
 800c7d8:	2a00      	cmp	r2, #0
 800c7da:	f040 855c 	bne.w	800d296 <USBH_MIDI_Process.lto_priv.0+0x1552>
 800c7de:	2202      	movs	r2, #2
 800c7e0:	701a      	strb	r2, [r3, #0]
 800c7e2:	f7ff bbfd 	b.w	800bfe0 <USBH_MIDI_Process.lto_priv.0+0x29c>
 800c7e6:	287f      	cmp	r0, #127	; 0x7f
 800c7e8:	f47f abfa 	bne.w	800bfe0 <USBH_MIDI_Process.lto_priv.0+0x29c>
 800c7ec:	4bbd      	ldr	r3, [pc, #756]	; (800cae4 <USBH_MIDI_Process.lto_priv.0+0xda0>)
 800c7ee:	f993 2000 	ldrsb.w	r2, [r3]
 800c7f2:	2a00      	cmp	r2, #0
 800c7f4:	f040 854f 	bne.w	800d296 <USBH_MIDI_Process.lto_priv.0+0x1552>
 800c7f8:	2201      	movs	r2, #1
 800c7fa:	701a      	strb	r2, [r3, #0]
 800c7fc:	f7ff bbf0 	b.w	800bfe0 <USBH_MIDI_Process.lto_priv.0+0x29c>
 800c800:	ee07 0a90 	vmov	s15, r0
 800c804:	ed9f 7ab8 	vldr	s14, [pc, #736]	; 800cae8 <USBH_MIDI_Process.lto_priv.0+0xda4>
 800c808:	4bb8      	ldr	r3, [pc, #736]	; (800caec <USBH_MIDI_Process.lto_priv.0+0xda8>)
 800c80a:	eef8 7ae7 	vcvt.f32.s32	s15, s15
 800c80e:	ee67 7a87 	vmul.f32	s15, s15, s14
 800c812:	edc3 7a02 	vstr	s15, [r3, #8]
 800c816:	f7ff bbe3 	b.w	800bfe0 <USBH_MIDI_Process.lto_priv.0+0x29c>
 800c81a:	ee07 0a90 	vmov	s15, r0
 800c81e:	ed9f 7ab4 	vldr	s14, [pc, #720]	; 800caf0 <USBH_MIDI_Process.lto_priv.0+0xdac>
 800c822:	4bb2      	ldr	r3, [pc, #712]	; (800caec <USBH_MIDI_Process.lto_priv.0+0xda8>)
 800c824:	eef8 7ae7 	vcvt.f32.s32	s15, s15
 800c828:	ee67 7a87 	vmul.f32	s15, s15, s14
 800c82c:	edc3 7a00 	vstr	s15, [r3]
 800c830:	f7ff bbd6 	b.w	800bfe0 <USBH_MIDI_Process.lto_priv.0+0x29c>
 800c834:	ee07 0a90 	vmov	s15, r0
 800c838:	eeb8 7ae7 	vcvt.f32.s32	s14, s15
 800c83c:	eef1 7a04 	vmov.f32	s15, #20	; 0x40a00000  5.0
 800c840:	ee27 7a27 	vmul.f32	s14, s14, s15
 800c844:	eddf 6aa1 	vldr	s13, [pc, #644]	; 800cacc <USBH_MIDI_Process.lto_priv.0+0xd88>
 800c848:	f8df e290 	ldr.w	lr, [pc, #656]	; 800cadc <USBH_MIDI_Process.lto_priv.0+0xd98>
 800c84c:	f8df c284 	ldr.w	ip, [pc, #644]	; 800cad4 <USBH_MIDI_Process.lto_priv.0+0xd90>
 800c850:	489c      	ldr	r0, [pc, #624]	; (800cac4 <USBH_MIDI_Process.lto_priv.0+0xd80>)
 800c852:	49a8      	ldr	r1, [pc, #672]	; (800caf4 <USBH_MIDI_Process.lto_priv.0+0xdb0>)
 800c854:	4aa8      	ldr	r2, [pc, #672]	; (800caf8 <USBH_MIDI_Process.lto_priv.0+0xdb4>)
 800c856:	4ba9      	ldr	r3, [pc, #676]	; (800cafc <USBH_MIDI_Process.lto_priv.0+0xdb8>)
 800c858:	eec7 7a26 	vdiv.f32	s15, s14, s13
 800c85c:	ee67 7aa7 	vmul.f32	s15, s15, s15
 800c860:	edce 7a00 	vstr	s15, [lr]
 800c864:	edcc 7a00 	vstr	s15, [ip]
 800c868:	edc0 7a00 	vstr	s15, [r0]
 800c86c:	edc1 7a01 	vstr	s15, [r1, #4]
 800c870:	edc2 7a01 	vstr	s15, [r2, #4]
 800c874:	edc3 7a01 	vstr	s15, [r3, #4]
 800c878:	f7ff bbb2 	b.w	800bfe0 <USBH_MIDI_Process.lto_priv.0+0x29c>
 800c87c:	ee07 0a90 	vmov	s15, r0
 800c880:	eddf 0a92 	vldr	s1, [pc, #584]	; 800cacc <USBH_MIDI_Process.lto_priv.0+0xd88>
 800c884:	ed9f 0a9e 	vldr	s0, [pc, #632]	; 800cb00 <USBH_MIDI_Process.lto_priv.0+0xdbc>
 800c888:	eef8 7ae7 	vcvt.f32.s32	s15, s15
 800c88c:	eec7 0aa0 	vdiv.f32	s1, s15, s1
 800c890:	f000 ff66 	bl	800d760 <powf>
 800c894:	4b9b      	ldr	r3, [pc, #620]	; (800cb04 <USBH_MIDI_Process.lto_priv.0+0xdc0>)
 800c896:	ed83 0a00 	vstr	s0, [r3]
 800c89a:	f7ff bba1 	b.w	800bfe0 <USBH_MIDI_Process.lto_priv.0+0x29c>
 800c89e:	287f      	cmp	r0, #127	; 0x7f
 800c8a0:	f47f ab9e 	bne.w	800bfe0 <USBH_MIDI_Process.lto_priv.0+0x29c>
 800c8a4:	4998      	ldr	r1, [pc, #608]	; (800cb08 <USBH_MIDI_Process.lto_priv.0+0xdc4>)
 800c8a6:	4a99      	ldr	r2, [pc, #612]	; (800cb0c <USBH_MIDI_Process.lto_priv.0+0xdc8>)
 800c8a8:	2300      	movs	r3, #0
 800c8aa:	700b      	strb	r3, [r1, #0]
 800c8ac:	7013      	strb	r3, [r2, #0]
 800c8ae:	f7f9 fbe5 	bl	800607c <Synth_Init>
 800c8b2:	f7ff bb95 	b.w	800bfe0 <USBH_MIDI_Process.lto_priv.0+0x29c>
 800c8b6:	287f      	cmp	r0, #127	; 0x7f
 800c8b8:	f47f ab92 	bne.w	800bfe0 <USBH_MIDI_Process.lto_priv.0+0x29c>
 800c8bc:	4a92      	ldr	r2, [pc, #584]	; (800cb08 <USBH_MIDI_Process.lto_priv.0+0xdc4>)
 800c8be:	7813      	ldrb	r3, [r2, #0]
 800c8c0:	f083 0301 	eor.w	r3, r3, #1
 800c8c4:	7013      	strb	r3, [r2, #0]
 800c8c6:	f7ff bb8b 	b.w	800bfe0 <USBH_MIDI_Process.lto_priv.0+0x29c>
 800c8ca:	287f      	cmp	r0, #127	; 0x7f
 800c8cc:	f47f ab88 	bne.w	800bfe0 <USBH_MIDI_Process.lto_priv.0+0x29c>
 800c8d0:	f081 0101 	eor.w	r1, r1, #1
 800c8d4:	7039      	strb	r1, [r7, #0]
 800c8d6:	2900      	cmp	r1, #0
 800c8d8:	f000 856b 	beq.w	800d3b2 <USBH_MIDI_Process.lto_priv.0+0x166e>
 800c8dc:	4b8c      	ldr	r3, [pc, #560]	; (800cb10 <USBH_MIDI_Process.lto_priv.0+0xdcc>)
 800c8de:	488d      	ldr	r0, [pc, #564]	; (800cb14 <USBH_MIDI_Process.lto_priv.0+0xdd0>)
 800c8e0:	2100      	movs	r1, #0
 800c8e2:	2280      	movs	r2, #128	; 0x80
 800c8e4:	7019      	strb	r1, [r3, #0]
 800c8e6:	f002 f8e1 	bl	800eaac <memset>
 800c8ea:	f8d9 3014 	ldr.w	r3, [r9, #20]
 800c8ee:	f483 4380 	eor.w	r3, r3, #16384	; 0x4000
 800c8f2:	f8c9 3014 	str.w	r3, [r9, #20]
 800c8f6:	f7ff bb73 	b.w	800bfe0 <USBH_MIDI_Process.lto_priv.0+0x29c>
 800c8fa:	eb00 03c0 	add.w	r3, r0, r0, lsl #3
 800c8fe:	eb00 0343 	add.w	r3, r0, r3, lsl #1
 800c902:	ee07 3a90 	vmov	s15, r3
 800c906:	eddf 5a71 	vldr	s11, [pc, #452]	; 800cacc <USBH_MIDI_Process.lto_priv.0+0xd88>
 800c90a:	4b83      	ldr	r3, [pc, #524]	; (800cb18 <USBH_MIDI_Process.lto_priv.0+0xdd4>)
 800c90c:	eddf 6a83 	vldr	s13, [pc, #524]	; 800cb1c <USBH_MIDI_Process.lto_priv.0+0xdd8>
 800c910:	ed93 6a01 	vldr	s12, [r3, #4]
 800c914:	4a82      	ldr	r2, [pc, #520]	; (800cb20 <USBH_MIDI_Process.lto_priv.0+0xddc>)
 800c916:	eeb8 7ae7 	vcvt.f32.s32	s14, s15
 800c91a:	eec7 7a25 	vdiv.f32	s15, s14, s11
 800c91e:	eeb7 7a00 	vmov.f32	s14, #112	; 0x3f800000  1.0
 800c922:	ee77 7a87 	vadd.f32	s15, s15, s14
 800c926:	ee67 7a86 	vmul.f32	s15, s15, s12
 800c92a:	eef4 7ae6 	vcmpe.f32	s15, s13
 800c92e:	eef1 fa10 	vmrs	APSR_nzcv, fpscr
 800c932:	f340 849d 	ble.w	800d270 <USBH_MIDI_Process.lto_priv.0+0x152c>
 800c936:	edc3 6a00 	vstr	s13, [r3]
 800c93a:	4b7a      	ldr	r3, [pc, #488]	; (800cb24 <USBH_MIDI_Process.lto_priv.0+0xde0>)
 800c93c:	edc2 6a00 	vstr	s13, [r2]
 800c940:	edc3 6a00 	vstr	s13, [r3]
 800c944:	f7ff bb4c 	b.w	800bfe0 <USBH_MIDI_Process.lto_priv.0+0x29c>
 800c948:	ee07 0a90 	vmov	s15, r0
 800c94c:	eef8 0ae7 	vcvt.f32.s32	s1, s15
 800c950:	eddf 7a5e 	vldr	s15, [pc, #376]	; 800cacc <USBH_MIDI_Process.lto_priv.0+0xd88>
 800c954:	ed9f 0a74 	vldr	s0, [pc, #464]	; 800cb28 <USBH_MIDI_Process.lto_priv.0+0xde4>
 800c958:	eec0 0aa7 	vdiv.f32	s1, s1, s15
 800c95c:	f000 ff00 	bl	800d760 <powf>
 800c960:	4a72      	ldr	r2, [pc, #456]	; (800cb2c <USBH_MIDI_Process.lto_priv.0+0xde8>)
 800c962:	4b73      	ldr	r3, [pc, #460]	; (800cb30 <USBH_MIDI_Process.lto_priv.0+0xdec>)
 800c964:	ed9f 7a73 	vldr	s14, [pc, #460]	; 800cb34 <USBH_MIDI_Process.lto_priv.0+0xdf0>
 800c968:	eddf 6a7a 	vldr	s13, [pc, #488]	; 800cb54 <USBH_MIDI_Process.lto_priv.0+0xe10>
 800c96c:	ed9f 6a72 	vldr	s12, [pc, #456]	; 800cb38 <USBH_MIDI_Process.lto_priv.0+0xdf4>
 800c970:	eddf 7a72 	vldr	s15, [pc, #456]	; 800cb3c <USBH_MIDI_Process.lto_priv.0+0xdf8>
 800c974:	ee20 0a07 	vmul.f32	s0, s0, s14
 800c978:	eef6 5a00 	vmov.f32	s11, #96	; 0x3f000000  0.5
 800c97c:	ee80 7a26 	vdiv.f32	s14, s0, s13
 800c980:	eef1 6a04 	vmov.f32	s13, #20	; 0x40a00000  5.0
 800c984:	eeb4 7a46 	vcmp.f32	s14, s12
 800c988:	eef1 fa10 	vmrs	APSR_nzcv, fpscr
 800c98c:	ed82 7a00 	vstr	s14, [r2]
 800c990:	bfc8      	it	gt
 800c992:	eeb0 7a46 	vmovgt.f32	s14, s12
 800c996:	ee27 7a25 	vmul.f32	s14, s14, s11
 800c99a:	eeba 6a0e 	vmov.f32	s12, #174	; 0xc1700000 -15.0
 800c99e:	ee67 7a27 	vmul.f32	s15, s14, s15
 800c9a2:	eef0 5a08 	vmov.f32	s11, #8	; 0x40400000  3.0
 800c9a6:	ee77 4aa7 	vadd.f32	s9, s15, s15
 800c9aa:	ee27 5aa7 	vmul.f32	s10, s15, s15
 800c9ae:	ee54 6aa7 	vnmls.f32	s13, s9, s15
 800c9b2:	ee27 6a86 	vmul.f32	s12, s15, s12
 800c9b6:	ee05 6a27 	vmla.f32	s12, s10, s15
 800c9ba:	ee66 7aa5 	vmul.f32	s15, s13, s11
 800c9be:	ed83 7a01 	vstr	s14, [r3, #4]
 800c9c2:	ee86 7a27 	vdiv.f32	s14, s12, s15
 800c9c6:	ed83 7a02 	vstr	s14, [r3, #8]
 800c9ca:	f7ff bb09 	b.w	800bfe0 <USBH_MIDI_Process.lto_priv.0+0x29c>
 800c9ce:	ee07 0a90 	vmov	s15, r0
 800c9d2:	ed9f 7a3e 	vldr	s14, [pc, #248]	; 800cacc <USBH_MIDI_Process.lto_priv.0+0xd88>
 800c9d6:	4b5a      	ldr	r3, [pc, #360]	; (800cb40 <USBH_MIDI_Process.lto_priv.0+0xdfc>)
 800c9d8:	eef8 6ae7 	vcvt.f32.s32	s13, s15
 800c9dc:	eec6 7a87 	vdiv.f32	s15, s13, s14
 800c9e0:	edc3 7a00 	vstr	s15, [r3]
 800c9e4:	f7ff bafc 	b.w	800bfe0 <USBH_MIDI_Process.lto_priv.0+0x29c>
 800c9e8:	eb00 0080 	add.w	r0, r0, r0, lsl #2
 800c9ec:	ee07 0a90 	vmov	s15, r0
 800c9f0:	ed9f 0a36 	vldr	s0, [pc, #216]	; 800cacc <USBH_MIDI_Process.lto_priv.0+0xd88>
 800c9f4:	eef8 7ae7 	vcvt.f32.s32	s15, s15
 800c9f8:	ee87 0a80 	vdiv.f32	s0, s15, s0
 800c9fc:	f000 fdbc 	bl	800d578 <lrintf>
 800ca00:	4b4b      	ldr	r3, [pc, #300]	; (800cb30 <USBH_MIDI_Process.lto_priv.0+0xdec>)
 800ca02:	7018      	strb	r0, [r3, #0]
 800ca04:	f7ff baec 	b.w	800bfe0 <USBH_MIDI_Process.lto_priv.0+0x29c>
 800ca08:	ee07 0a90 	vmov	s15, r0
 800ca0c:	ed9f 7a2f 	vldr	s14, [pc, #188]	; 800cacc <USBH_MIDI_Process.lto_priv.0+0xd88>
 800ca10:	4b47      	ldr	r3, [pc, #284]	; (800cb30 <USBH_MIDI_Process.lto_priv.0+0xdec>)
 800ca12:	eef8 6ae7 	vcvt.f32.s32	s13, s15
 800ca16:	eec6 7a87 	vdiv.f32	s15, s13, s14
 800ca1a:	eeb1 7a08 	vmov.f32	s14, #24	; 0x40c00000  6.0
 800ca1e:	ee67 7aa7 	vmul.f32	s15, s15, s15
 800ca22:	ee67 7a87 	vmul.f32	s15, s15, s14
 800ca26:	edc3 7a06 	vstr	s15, [r3, #24]
 800ca2a:	f7ff bad9 	b.w	800bfe0 <USBH_MIDI_Process.lto_priv.0+0x29c>
 800ca2e:	287f      	cmp	r0, #127	; 0x7f
 800ca30:	f47f aad6 	bne.w	800bfe0 <USBH_MIDI_Process.lto_priv.0+0x29c>
 800ca34:	4b43      	ldr	r3, [pc, #268]	; (800cb44 <USBH_MIDI_Process.lto_priv.0+0xe00>)
 800ca36:	ed9f 7a2a 	vldr	s14, [pc, #168]	; 800cae0 <USBH_MIDI_Process.lto_priv.0+0xd9c>
 800ca3a:	edd3 7a06 	vldr	s15, [r3, #24]
 800ca3e:	ee67 7a87 	vmul.f32	s15, s15, s14
 800ca42:	edc3 7a06 	vstr	s15, [r3, #24]
 800ca46:	f7ff bacb 	b.w	800bfe0 <USBH_MIDI_Process.lto_priv.0+0x29c>
 800ca4a:	ee07 0a90 	vmov	s15, r0
 800ca4e:	ed9f 7a1f 	vldr	s14, [pc, #124]	; 800cacc <USBH_MIDI_Process.lto_priv.0+0xd88>
 800ca52:	4933      	ldr	r1, [pc, #204]	; (800cb20 <USBH_MIDI_Process.lto_priv.0+0xddc>)
 800ca54:	4a33      	ldr	r2, [pc, #204]	; (800cb24 <USBH_MIDI_Process.lto_priv.0+0xde0>)
 800ca56:	4b30      	ldr	r3, [pc, #192]	; (800cb18 <USBH_MIDI_Process.lto_priv.0+0xdd4>)
 800ca58:	eef8 6ae7 	vcvt.f32.s32	s13, s15
 800ca5c:	eec6 7a87 	vdiv.f32	s15, s13, s14
 800ca60:	ee67 7aa7 	vmul.f32	s15, s15, s15
 800ca64:	edc1 7a02 	vstr	s15, [r1, #8]
 800ca68:	edc2 7a02 	vstr	s15, [r2, #8]
 800ca6c:	edc3 7a02 	vstr	s15, [r3, #8]
 800ca70:	f7ff bab6 	b.w	800bfe0 <USBH_MIDI_Process.lto_priv.0+0x29c>
 800ca74:	ee07 0a90 	vmov	s15, r0
 800ca78:	ed9f 7a1b 	vldr	s14, [pc, #108]	; 800cae8 <USBH_MIDI_Process.lto_priv.0+0xda4>
 800ca7c:	4b30      	ldr	r3, [pc, #192]	; (800cb40 <USBH_MIDI_Process.lto_priv.0+0xdfc>)
 800ca7e:	eef8 7ae7 	vcvt.f32.s32	s15, s15
 800ca82:	ee67 7a87 	vmul.f32	s15, s15, s14
 800ca86:	edc3 7a02 	vstr	s15, [r3, #8]
 800ca8a:	f7ff baa9 	b.w	800bfe0 <USBH_MIDI_Process.lto_priv.0+0x29c>
 800ca8e:	2332      	movs	r3, #50	; 0x32
 800ca90:	fb10 f303 	smulbb	r3, r0, r3
 800ca94:	ee07 3a90 	vmov	s15, r3
 800ca98:	ed9f 6a0c 	vldr	s12, [pc, #48]	; 800cacc <USBH_MIDI_Process.lto_priv.0+0xd88>
 800ca9c:	eddf 6a2a 	vldr	s13, [pc, #168]	; 800cb48 <USBH_MIDI_Process.lto_priv.0+0xe04>
 800caa0:	491f      	ldr	r1, [pc, #124]	; (800cb20 <USBH_MIDI_Process.lto_priv.0+0xddc>)
 800caa2:	4a20      	ldr	r2, [pc, #128]	; (800cb24 <USBH_MIDI_Process.lto_priv.0+0xde0>)
 800caa4:	4b1c      	ldr	r3, [pc, #112]	; (800cb18 <USBH_MIDI_Process.lto_priv.0+0xdd4>)
 800caa6:	eeb8 7ae7 	vcvt.f32.s32	s14, s15
 800caaa:	eec7 7a06 	vdiv.f32	s15, s14, s12
 800caae:	ee77 7aa6 	vadd.f32	s15, s15, s13
 800cab2:	edc1 7a01 	vstr	s15, [r1, #4]
 800cab6:	edc2 7a01 	vstr	s15, [r2, #4]
 800caba:	edc3 7a01 	vstr	s15, [r3, #4]
 800cabe:	f7ff ba8f 	b.w	800bfe0 <USBH_MIDI_Process.lto_priv.0+0x29c>
 800cac2:	bf00      	nop
 800cac4:	100001c0 	.word	0x100001c0
 800cac8:	3e4ccccd 	.word	0x3e4ccccd
 800cacc:	42fe0000 	.word	0x42fe0000
 800cad0:	43200000 	.word	0x43200000
 800cad4:	100001a0 	.word	0x100001a0
 800cad8:	467a0000 	.word	0x467a0000
 800cadc:	10000180 	.word	0x10000180
 800cae0:	3f7d70a4 	.word	0x3f7d70a4
 800cae4:	10000096 	.word	0x10000096
 800cae8:	3dc18306 	.word	0x3dc18306
 800caec:	10000220 	.word	0x10000220
 800caf0:	3e810204 	.word	0x3e810204
 800caf4:	100002d8 	.word	0x100002d8
 800caf8:	10000824 	.word	0x10000824
 800cafc:	10000d80 	.word	0x10000d80
 800cb00:	45bb8000 	.word	0x45bb8000
 800cb04:	20000024 	.word	0x20000024
 800cb08:	20000054 	.word	0x20000054
 800cb0c:	2001ede8 	.word	0x2001ede8
 800cb10:	2001f72c 	.word	0x2001f72c
 800cb14:	2001f730 	.word	0x2001f730
 800cb18:	1000009c 	.word	0x1000009c
 800cb1c:	461c4000 	.word	0x461c4000
 800cb20:	100000f4 	.word	0x100000f4
 800cb24:	100000c8 	.word	0x100000c8
 800cb28:	42c80000 	.word	0x42c80000
 800cb2c:	2001ede0 	.word	0x2001ede0
 800cb30:	10000140 	.word	0x10000140
 800cb34:	42a00000 	.word	0x42a00000
 800cb38:	3f733333 	.word	0x3f733333
 800cb3c:	40490fdb 	.word	0x40490fdb
 800cb40:	10000260 	.word	0x10000260
 800cb44:	100001e0 	.word	0x100001e0
 800cb48:	3dcccccd 	.word	0x3dcccccd
 800cb4c:	42fe0000 	.word	0x42fe0000
 800cb50:	38d1b717 	.word	0x38d1b717
 800cb54:	472c4400 	.word	0x472c4400
 800cb58:	ee07 0a90 	vmov	s15, r0
 800cb5c:	ed5f 6a05 	vldr	s13, [pc, #-20]	; 800cb4c <USBH_MIDI_Process.lto_priv.0+0xe08>
 800cb60:	ed1f 6a05 	vldr	s12, [pc, #-20]	; 800cb50 <USBH_MIDI_Process.lto_priv.0+0xe0c>
 800cb64:	ed1f 7a05 	vldr	s14, [pc, #-20]	; 800cb54 <USBH_MIDI_Process.lto_priv.0+0xe10>
 800cb68:	4bd9      	ldr	r3, [pc, #868]	; (800ced0 <USBH_MIDI_Process.lto_priv.0+0x118c>)
 800cb6a:	eef8 5ae7 	vcvt.f32.s32	s11, s15
 800cb6e:	eec5 7aa6 	vdiv.f32	s15, s11, s13
 800cb72:	eef7 6a00 	vmov.f32	s13, #112	; 0x3f800000  1.0
 800cb76:	ee77 7a86 	vadd.f32	s15, s15, s12
 800cb7a:	ee67 7a87 	vmul.f32	s15, s15, s14
 800cb7e:	ee86 7aa7 	vdiv.f32	s14, s13, s15
 800cb82:	ed83 7a00 	vstr	s14, [r3]
 800cb86:	f7ff ba2b 	b.w	800bfe0 <USBH_MIDI_Process.lto_priv.0+0x29c>
 800cb8a:	ee07 0a90 	vmov	s15, r0
 800cb8e:	4bd1      	ldr	r3, [pc, #836]	; (800ced4 <USBH_MIDI_Process.lto_priv.0+0x1190>)
 800cb90:	eddf 5ad1 	vldr	s11, [pc, #836]	; 800ced8 <USBH_MIDI_Process.lto_priv.0+0x1194>
 800cb94:	ed9f 6ad1 	vldr	s12, [pc, #836]	; 800cedc <USBH_MIDI_Process.lto_priv.0+0x1198>
 800cb98:	eef8 6ae7 	vcvt.f32.s32	s13, s15
 800cb9c:	eddf 7ad0 	vldr	s15, [pc, #832]	; 800cee0 <USBH_MIDI_Process.lto_priv.0+0x119c>
 800cba0:	ee66 6aa7 	vmul.f32	s13, s13, s15
 800cba4:	edd3 7a11 	vldr	s15, [r3, #68]	; 0x44
 800cba8:	eeb8 7ae7 	vcvt.f32.s32	s14, s15
 800cbac:	eec6 7aa5 	vdiv.f32	s15, s13, s11
 800cbb0:	ee77 7a86 	vadd.f32	s15, s15, s12
 800cbb4:	ee67 7a87 	vmul.f32	s15, s15, s14
 800cbb8:	eefd 7ae7 	vcvt.s32.f32	s15, s15
 800cbbc:	edc3 7a14 	vstr	s15, [r3, #80]	; 0x50
 800cbc0:	f7ff ba0e 	b.w	800bfe0 <USBH_MIDI_Process.lto_priv.0+0x29c>
 800cbc4:	287f      	cmp	r0, #127	; 0x7f
 800cbc6:	f47f aa0b 	bne.w	800bfe0 <USBH_MIDI_Process.lto_priv.0+0x29c>
 800cbca:	4bc6      	ldr	r3, [pc, #792]	; (800cee4 <USBH_MIDI_Process.lto_priv.0+0x11a0>)
 800cbcc:	681a      	ldr	r2, [r3, #0]
 800cbce:	f247 511b 	movw	r1, #29979	; 0x751b
 800cbd2:	428a      	cmp	r2, r1
 800cbd4:	bf9c      	itt	ls
 800cbd6:	3214      	addls	r2, #20
 800cbd8:	601a      	strls	r2, [r3, #0]
 800cbda:	4ac3      	ldr	r2, [pc, #780]	; (800cee8 <USBH_MIDI_Process.lto_priv.0+0x11a4>)
 800cbdc:	6819      	ldr	r1, [r3, #0]
 800cbde:	6813      	ldr	r3, [r2, #0]
 800cbe0:	4ac2      	ldr	r2, [pc, #776]	; (800ceec <USBH_MIDI_Process.lto_priv.0+0x11a8>)
 800cbe2:	eba3 0381 	sub.w	r3, r3, r1, lsl #2
 800cbe6:	4293      	cmp	r3, r2
 800cbe8:	bf37      	itett	cc
 800cbea:	f503 33ea 	addcc.w	r3, r3, #119808	; 0x1d400
 800cbee:	4ac0      	ldrcs	r2, [pc, #768]	; (800cef0 <USBH_MIDI_Process.lto_priv.0+0x11ac>)
 800cbf0:	4abf      	ldrcc	r2, [pc, #764]	; (800cef0 <USBH_MIDI_Process.lto_priv.0+0x11ac>)
 800cbf2:	33bc      	addcc	r3, #188	; 0xbc
 800cbf4:	6013      	str	r3, [r2, #0]
 800cbf6:	f7ff b9f3 	b.w	800bfe0 <USBH_MIDI_Process.lto_priv.0+0x29c>
 800cbfa:	287f      	cmp	r0, #127	; 0x7f
 800cbfc:	f47f a9f0 	bne.w	800bfe0 <USBH_MIDI_Process.lto_priv.0+0x29c>
 800cc00:	4bb8      	ldr	r3, [pc, #736]	; (800cee4 <USBH_MIDI_Process.lto_priv.0+0x11a0>)
 800cc02:	681a      	ldr	r2, [r3, #0]
 800cc04:	f5b2 7f87 	cmp.w	r2, #270	; 0x10e
 800cc08:	bf84      	itt	hi
 800cc0a:	3a14      	subhi	r2, #20
 800cc0c:	601a      	strhi	r2, [r3, #0]
 800cc0e:	4ab6      	ldr	r2, [pc, #728]	; (800cee8 <USBH_MIDI_Process.lto_priv.0+0x11a4>)
 800cc10:	6819      	ldr	r1, [r3, #0]
 800cc12:	6813      	ldr	r3, [r2, #0]
 800cc14:	4ab5      	ldr	r2, [pc, #724]	; (800ceec <USBH_MIDI_Process.lto_priv.0+0x11a8>)
 800cc16:	eba3 0381 	sub.w	r3, r3, r1, lsl #2
 800cc1a:	4293      	cmp	r3, r2
 800cc1c:	bf37      	itett	cc
 800cc1e:	f503 33ea 	addcc.w	r3, r3, #119808	; 0x1d400
 800cc22:	4ab3      	ldrcs	r2, [pc, #716]	; (800cef0 <USBH_MIDI_Process.lto_priv.0+0x11ac>)
 800cc24:	4ab2      	ldrcc	r2, [pc, #712]	; (800cef0 <USBH_MIDI_Process.lto_priv.0+0x11ac>)
 800cc26:	33bc      	addcc	r3, #188	; 0xbc
 800cc28:	6013      	str	r3, [r2, #0]
 800cc2a:	f7ff b9d9 	b.w	800bfe0 <USBH_MIDI_Process.lto_priv.0+0x29c>
 800cc2e:	ee07 0a90 	vmov	s15, r0
 800cc32:	ed9f 7aa9 	vldr	s14, [pc, #676]	; 800ced8 <USBH_MIDI_Process.lto_priv.0+0x1194>
 800cc36:	4ba6      	ldr	r3, [pc, #664]	; (800ced0 <USBH_MIDI_Process.lto_priv.0+0x118c>)
 800cc38:	eef8 6ae7 	vcvt.f32.s32	s13, s15
 800cc3c:	eec6 7a87 	vdiv.f32	s15, s13, s14
 800cc40:	edc3 7a02 	vstr	s15, [r3, #8]
 800cc44:	f7ff b9cc 	b.w	800bfe0 <USBH_MIDI_Process.lto_priv.0+0x29c>
 800cc48:	ee07 0a90 	vmov	s15, r0
 800cc4c:	eeb8 7ae7 	vcvt.f32.s32	s14, s15
 800cc50:	eddf 7aa8 	vldr	s15, [pc, #672]	; 800cef4 <USBH_MIDI_Process.lto_priv.0+0x11b0>
 800cc54:	ed9f 5aa0 	vldr	s10, [pc, #640]	; 800ced8 <USBH_MIDI_Process.lto_priv.0+0x1194>
 800cc58:	eddf 5aa7 	vldr	s11, [pc, #668]	; 800cef8 <USBH_MIDI_Process.lto_priv.0+0x11b4>
 800cc5c:	ed9f 6aa7 	vldr	s12, [pc, #668]	; 800cefc <USBH_MIDI_Process.lto_priv.0+0x11b8>
 800cc60:	4b9b      	ldr	r3, [pc, #620]	; (800ced0 <USBH_MIDI_Process.lto_priv.0+0x118c>)
 800cc62:	ee27 7a27 	vmul.f32	s14, s14, s15
 800cc66:	eef7 6a00 	vmov.f32	s13, #112	; 0x3f800000  1.0
 800cc6a:	eec7 7a05 	vdiv.f32	s15, s14, s10
 800cc6e:	ee77 7aa5 	vadd.f32	s15, s15, s11
 800cc72:	ee67 7a86 	vmul.f32	s15, s15, s12
 800cc76:	ee86 7aa7 	vdiv.f32	s14, s13, s15
 800cc7a:	ed83 7a01 	vstr	s14, [r3, #4]
 800cc7e:	f7ff b9af 	b.w	800bfe0 <USBH_MIDI_Process.lto_priv.0+0x29c>
 800cc82:	ee05 0a90 	vmov	s11, r0
 800cc86:	eddf 6a94 	vldr	s13, [pc, #592]	; 800ced8 <USBH_MIDI_Process.lto_priv.0+0x1194>
 800cc8a:	ed9f 6a9b 	vldr	s12, [pc, #620]	; 800cef8 <USBH_MIDI_Process.lto_priv.0+0x11b4>
 800cc8e:	ed9f 7a9b 	vldr	s14, [pc, #620]	; 800cefc <USBH_MIDI_Process.lto_priv.0+0x11b8>
 800cc92:	4b8f      	ldr	r3, [pc, #572]	; (800ced0 <USBH_MIDI_Process.lto_priv.0+0x118c>)
 800cc94:	eefa 5aef 	vcvt.f32.s32	s11, s11, #1
 800cc98:	eec5 7aa6 	vdiv.f32	s15, s11, s13
 800cc9c:	edd3 6a02 	vldr	s13, [r3, #8]
 800cca0:	ee77 7a86 	vadd.f32	s15, s15, s12
 800cca4:	ee67 7a87 	vmul.f32	s15, s15, s14
 800cca8:	ee86 7aa7 	vdiv.f32	s14, s13, s15
 800ccac:	ed83 7a03 	vstr	s14, [r3, #12]
 800ccb0:	f7ff b996 	b.w	800bfe0 <USBH_MIDI_Process.lto_priv.0+0x29c>
 800ccb4:	ee07 0a90 	vmov	s15, r0
 800ccb8:	ed9f 7a91 	vldr	s14, [pc, #580]	; 800cf00 <USBH_MIDI_Process.lto_priv.0+0x11bc>
 800ccbc:	4b91      	ldr	r3, [pc, #580]	; (800cf04 <USBH_MIDI_Process.lto_priv.0+0x11c0>)
 800ccbe:	eef8 7ae7 	vcvt.f32.s32	s15, s15
 800ccc2:	ee67 7a87 	vmul.f32	s15, s15, s14
 800ccc6:	edc3 7a02 	vstr	s15, [r3, #8]
 800ccca:	f7ff b989 	b.w	800bfe0 <USBH_MIDI_Process.lto_priv.0+0x29c>
 800ccce:	ee07 0a90 	vmov	s15, r0
 800ccd2:	ed9f 7a8d 	vldr	s14, [pc, #564]	; 800cf08 <USBH_MIDI_Process.lto_priv.0+0x11c4>
 800ccd6:	4b8b      	ldr	r3, [pc, #556]	; (800cf04 <USBH_MIDI_Process.lto_priv.0+0x11c0>)
 800ccd8:	eef8 7ae7 	vcvt.f32.s32	s15, s15
 800ccdc:	ee67 7a87 	vmul.f32	s15, s15, s14
 800cce0:	edc3 7a00 	vstr	s15, [r3]
 800cce4:	f7ff b97c 	b.w	800bfe0 <USBH_MIDI_Process.lto_priv.0+0x29c>
 800cce8:	ee07 0a90 	vmov	s15, r0
 800ccec:	ed9f 7a87 	vldr	s14, [pc, #540]	; 800cf0c <USBH_MIDI_Process.lto_priv.0+0x11c8>
 800ccf0:	eddf 6a79 	vldr	s13, [pc, #484]	; 800ced8 <USBH_MIDI_Process.lto_priv.0+0x1194>
 800ccf4:	4b86      	ldr	r3, [pc, #536]	; (800cf10 <USBH_MIDI_Process.lto_priv.0+0x11cc>)
 800ccf6:	eef8 7ae7 	vcvt.f32.s32	s15, s15
 800ccfa:	ee67 7a87 	vmul.f32	s15, s15, s14
 800ccfe:	ee87 7aa6 	vdiv.f32	s14, s15, s13
 800cd02:	ed83 7a00 	vstr	s14, [r3]
 800cd06:	f7ff b96b 	b.w	800bfe0 <USBH_MIDI_Process.lto_priv.0+0x29c>
 800cd0a:	ee07 0a90 	vmov	s15, r0
 800cd0e:	ed9f 6a81 	vldr	s12, [pc, #516]	; 800cf14 <USBH_MIDI_Process.lto_priv.0+0x11d0>
 800cd12:	ed9f 7a81 	vldr	s14, [pc, #516]	; 800cf18 <USBH_MIDI_Process.lto_priv.0+0x11d4>
 800cd16:	eddf 6a79 	vldr	s13, [pc, #484]	; 800cefc <USBH_MIDI_Process.lto_priv.0+0x11b8>
 800cd1a:	4b80      	ldr	r3, [pc, #512]	; (800cf1c <USBH_MIDI_Process.lto_priv.0+0x11d8>)
 800cd1c:	eef8 5ae7 	vcvt.f32.s32	s11, s15
 800cd20:	eddf 7a7f 	vldr	s15, [pc, #508]	; 800cf20 <USBH_MIDI_Process.lto_priv.0+0x11dc>
 800cd24:	ee45 7a86 	vmla.f32	s15, s11, s12
 800cd28:	ee67 7a87 	vmul.f32	s15, s15, s14
 800cd2c:	ee87 7aa6 	vdiv.f32	s14, s15, s13
 800cd30:	ed83 7a00 	vstr	s14, [r3]
 800cd34:	f7ff b954 	b.w	800bfe0 <USBH_MIDI_Process.lto_priv.0+0x29c>
 800cd38:	ee07 0a90 	vmov	s15, r0
 800cd3c:	eeb8 7ae7 	vcvt.f32.s32	s14, s15
 800cd40:	eddf 7a78 	vldr	s15, [pc, #480]	; 800cf24 <USBH_MIDI_Process.lto_priv.0+0x11e0>
 800cd44:	eddf 6a64 	vldr	s13, [pc, #400]	; 800ced8 <USBH_MIDI_Process.lto_priv.0+0x1194>
 800cd48:	4b77      	ldr	r3, [pc, #476]	; (800cf28 <USBH_MIDI_Process.lto_priv.0+0x11e4>)
 800cd4a:	ee27 7a27 	vmul.f32	s14, s14, s15
 800cd4e:	eec7 7a26 	vdiv.f32	s15, s14, s13
 800cd52:	ee67 7aa7 	vmul.f32	s15, s15, s15
 800cd56:	edc3 7a05 	vstr	s15, [r3, #20]
 800cd5a:	f7ff b941 	b.w	800bfe0 <USBH_MIDI_Process.lto_priv.0+0x29c>
 800cd5e:	ee07 0a90 	vmov	s15, r0
 800cd62:	eeb8 7ae7 	vcvt.f32.s32	s14, s15
 800cd66:	eddf 7a6f 	vldr	s15, [pc, #444]	; 800cf24 <USBH_MIDI_Process.lto_priv.0+0x11e0>
 800cd6a:	eddf 6a5b 	vldr	s13, [pc, #364]	; 800ced8 <USBH_MIDI_Process.lto_priv.0+0x1194>
 800cd6e:	4b6f      	ldr	r3, [pc, #444]	; (800cf2c <USBH_MIDI_Process.lto_priv.0+0x11e8>)
 800cd70:	ee27 7a27 	vmul.f32	s14, s14, s15
 800cd74:	eec7 7a26 	vdiv.f32	s15, s14, s13
 800cd78:	ee67 7aa7 	vmul.f32	s15, s15, s15
 800cd7c:	edc3 7a05 	vstr	s15, [r3, #20]
 800cd80:	f7ff b92e 	b.w	800bfe0 <USBH_MIDI_Process.lto_priv.0+0x29c>
 800cd84:	ee07 0a90 	vmov	s15, r0
 800cd88:	eeb8 7ae7 	vcvt.f32.s32	s14, s15
 800cd8c:	eddf 7a65 	vldr	s15, [pc, #404]	; 800cf24 <USBH_MIDI_Process.lto_priv.0+0x11e0>
 800cd90:	eddf 6a51 	vldr	s13, [pc, #324]	; 800ced8 <USBH_MIDI_Process.lto_priv.0+0x1194>
 800cd94:	4b66      	ldr	r3, [pc, #408]	; (800cf30 <USBH_MIDI_Process.lto_priv.0+0x11ec>)
 800cd96:	ee27 7a27 	vmul.f32	s14, s14, s15
 800cd9a:	eec7 7a26 	vdiv.f32	s15, s14, s13
 800cd9e:	ee67 7aa7 	vmul.f32	s15, s15, s15
 800cda2:	edc3 7a05 	vstr	s15, [r3, #20]
 800cda6:	f7ff b91b 	b.w	800bfe0 <USBH_MIDI_Process.lto_priv.0+0x29c>
 800cdaa:	ee07 0a90 	vmov	s15, r0
 800cdae:	eeb8 7ae7 	vcvt.f32.s32	s14, s15
 800cdb2:	eddf 7a5c 	vldr	s15, [pc, #368]	; 800cf24 <USBH_MIDI_Process.lto_priv.0+0x11e0>
 800cdb6:	eddf 6a48 	vldr	s13, [pc, #288]	; 800ced8 <USBH_MIDI_Process.lto_priv.0+0x1194>
 800cdba:	4b5e      	ldr	r3, [pc, #376]	; (800cf34 <USBH_MIDI_Process.lto_priv.0+0x11f0>)
 800cdbc:	ee27 7a27 	vmul.f32	s14, s14, s15
 800cdc0:	eec7 7a26 	vdiv.f32	s15, s14, s13
 800cdc4:	ee67 7aa7 	vmul.f32	s15, s15, s15
 800cdc8:	edc3 7a05 	vstr	s15, [r3, #20]
 800cdcc:	f7ff b908 	b.w	800bfe0 <USBH_MIDI_Process.lto_priv.0+0x29c>
 800cdd0:	eb00 0080 	add.w	r0, r0, r0, lsl #2
 800cdd4:	ee07 0a90 	vmov	s15, r0
 800cdd8:	ed9f 0a3f 	vldr	s0, [pc, #252]	; 800ced8 <USBH_MIDI_Process.lto_priv.0+0x1194>
 800cddc:	eef8 7ae7 	vcvt.f32.s32	s15, s15
 800cde0:	ee87 0a80 	vdiv.f32	s0, s15, s0
 800cde4:	f000 fbc8 	bl	800d578 <lrintf>
 800cde8:	4b53      	ldr	r3, [pc, #332]	; (800cf38 <USBH_MIDI_Process.lto_priv.0+0x11f4>)
 800cdea:	7018      	strb	r0, [r3, #0]
 800cdec:	f7ff b8f8 	b.w	800bfe0 <USBH_MIDI_Process.lto_priv.0+0x29c>
 800cdf0:	ee07 0a90 	vmov	s15, r0
 800cdf4:	ed9f 7a38 	vldr	s14, [pc, #224]	; 800ced8 <USBH_MIDI_Process.lto_priv.0+0x1194>
 800cdf8:	4b4f      	ldr	r3, [pc, #316]	; (800cf38 <USBH_MIDI_Process.lto_priv.0+0x11f4>)
 800cdfa:	eef8 6ae7 	vcvt.f32.s32	s13, s15
 800cdfe:	eec6 7a87 	vdiv.f32	s15, s13, s14
 800ce02:	eeb1 7a08 	vmov.f32	s14, #24	; 0x40c00000  6.0
 800ce06:	ee67 7aa7 	vmul.f32	s15, s15, s15
 800ce0a:	ee67 7a87 	vmul.f32	s15, s15, s14
 800ce0e:	edc3 7a06 	vstr	s15, [r3, #24]
 800ce12:	f7ff b8e5 	b.w	800bfe0 <USBH_MIDI_Process.lto_priv.0+0x29c>
 800ce16:	ee07 0a90 	vmov	s15, r0
 800ce1a:	eeb8 6ae7 	vcvt.f32.s32	s12, s15
 800ce1e:	eddf 7a2e 	vldr	s15, [pc, #184]	; 800ced8 <USBH_MIDI_Process.lto_priv.0+0x1194>
 800ce22:	ed9f 7a46 	vldr	s14, [pc, #280]	; 800cf3c <USBH_MIDI_Process.lto_priv.0+0x11f8>
 800ce26:	4b44      	ldr	r3, [pc, #272]	; (800cf38 <USBH_MIDI_Process.lto_priv.0+0x11f4>)
 800ce28:	eec6 6a27 	vdiv.f32	s13, s12, s15
 800ce2c:	eef7 7a00 	vmov.f32	s15, #112	; 0x3f800000  1.0
 800ce30:	ee77 7ae6 	vsub.f32	s15, s15, s13
 800ce34:	eef4 7ac7 	vcmpe.f32	s15, s14
 800ce38:	eef1 fa10 	vmrs	APSR_nzcv, fpscr
 800ce3c:	bf54      	ite	pl
 800ce3e:	edc3 7a03 	vstrpl	s15, [r3, #12]
 800ce42:	ed83 7a03 	vstrmi	s14, [r3, #12]
 800ce46:	f7ff b8cb 	b.w	800bfe0 <USBH_MIDI_Process.lto_priv.0+0x29c>
 800ce4a:	ee07 0a90 	vmov	s15, r0
 800ce4e:	eef8 0ae7 	vcvt.f32.s32	s1, s15
 800ce52:	eddf 7a21 	vldr	s15, [pc, #132]	; 800ced8 <USBH_MIDI_Process.lto_priv.0+0x1194>
 800ce56:	ed9f 0a3a 	vldr	s0, [pc, #232]	; 800cf40 <USBH_MIDI_Process.lto_priv.0+0x11fc>
 800ce5a:	eec0 0aa7 	vdiv.f32	s1, s1, s15
 800ce5e:	f000 fc7f 	bl	800d760 <powf>
 800ce62:	4a38      	ldr	r2, [pc, #224]	; (800cf44 <USBH_MIDI_Process.lto_priv.0+0x1200>)
 800ce64:	4b34      	ldr	r3, [pc, #208]	; (800cf38 <USBH_MIDI_Process.lto_priv.0+0x11f4>)
 800ce66:	ed9f 7a38 	vldr	s14, [pc, #224]	; 800cf48 <USBH_MIDI_Process.lto_priv.0+0x1204>
 800ce6a:	eddf 6a24 	vldr	s13, [pc, #144]	; 800cefc <USBH_MIDI_Process.lto_priv.0+0x11b8>
 800ce6e:	ed9f 6a37 	vldr	s12, [pc, #220]	; 800cf4c <USBH_MIDI_Process.lto_priv.0+0x1208>
 800ce72:	eddf 7a37 	vldr	s15, [pc, #220]	; 800cf50 <USBH_MIDI_Process.lto_priv.0+0x120c>
 800ce76:	ee20 0a07 	vmul.f32	s0, s0, s14
 800ce7a:	eef6 5a00 	vmov.f32	s11, #96	; 0x3f000000  0.5
 800ce7e:	ee80 7a26 	vdiv.f32	s14, s0, s13
 800ce82:	eef1 6a04 	vmov.f32	s13, #20	; 0x40a00000  5.0
 800ce86:	eeb4 7a46 	vcmp.f32	s14, s12
 800ce8a:	eef1 fa10 	vmrs	APSR_nzcv, fpscr
 800ce8e:	ed82 7a00 	vstr	s14, [r2]
 800ce92:	bfc8      	it	gt
 800ce94:	eeb0 7a46 	vmovgt.f32	s14, s12
 800ce98:	ee27 7a25 	vmul.f32	s14, s14, s11
 800ce9c:	eeba 6a0e 	vmov.f32	s12, #174	; 0xc1700000 -15.0
 800cea0:	ee67 7a27 	vmul.f32	s15, s14, s15
 800cea4:	eef0 5a08 	vmov.f32	s11, #8	; 0x40400000  3.0
 800cea8:	ee77 4aa7 	vadd.f32	s9, s15, s15
 800ceac:	ee27 5aa7 	vmul.f32	s10, s15, s15
 800ceb0:	ee54 6aa7 	vnmls.f32	s13, s9, s15
 800ceb4:	ee27 6a86 	vmul.f32	s12, s15, s12
 800ceb8:	ee05 6a27 	vmla.f32	s12, s10, s15
 800cebc:	ee66 7aa5 	vmul.f32	s15, s13, s11
 800cec0:	ed83 7a01 	vstr	s14, [r3, #4]
 800cec4:	ee86 7a27 	vdiv.f32	s14, s12, s15
 800cec8:	ed83 7a02 	vstr	s14, [r3, #8]
 800cecc:	f7ff b888 	b.w	800bfe0 <USBH_MIDI_Process.lto_priv.0+0x29c>
 800ced0:	10000068 	.word	0x10000068
 800ced4:	10000000 	.word	0x10000000
 800ced8:	42fe0000 	.word	0x42fe0000
 800cedc:	3dcccccd 	.word	0x3dcccccd
 800cee0:	3f4ccccc 	.word	0x3f4ccccc
 800cee4:	2001f7d8 	.word	0x2001f7d8
 800cee8:	2001f7e8 	.word	0x2001f7e8
 800ceec:	2000190c 	.word	0x2000190c
 800cef0:	2001f7d4 	.word	0x2001f7d4
 800cef4:	3e4ccccd 	.word	0x3e4ccccd
 800cef8:	38d1b717 	.word	0x38d1b717
 800cefc:	472c4400 	.word	0x472c4400
 800cf00:	3dc18306 	.word	0x3dc18306
 800cf04:	10000240 	.word	0x10000240
 800cf08:	3e810204 	.word	0x3e810204
 800cf0c:	3f7fbe77 	.word	0x3f7fbe77
 800cf10:	2001eddc 	.word	0x2001eddc
 800cf14:	3d611e66 	.word	0x3d611e66
 800cf18:	40c90fdb 	.word	0x40c90fdb
 800cf1c:	2001f724 	.word	0x2001f724
 800cf20:	3ca3d70a 	.word	0x3ca3d70a
 800cf24:	3fb33333 	.word	0x3fb33333
 800cf28:	100001e0 	.word	0x100001e0
 800cf2c:	100001c0 	.word	0x100001c0
 800cf30:	100001a0 	.word	0x100001a0
 800cf34:	10000180 	.word	0x10000180
 800cf38:	10000160 	.word	0x10000160
 800cf3c:	3c23d70a 	.word	0x3c23d70a
 800cf40:	42c80000 	.word	0x42c80000
 800cf44:	2001ede4 	.word	0x2001ede4
 800cf48:	42a00000 	.word	0x42a00000
 800cf4c:	3f733333 	.word	0x3f733333
 800cf50:	40490fdb 	.word	0x40490fdb
 800cf54:	3de1c387 	.word	0x3de1c387
 800cf58:	ee07 0a90 	vmov	s15, r0
 800cf5c:	eeb8 0ae7 	vcvt.f32.s32	s0, s15
 800cf60:	ed5f 7a04 	vldr	s15, [pc, #-16]	; 800cf54 <USBH_MIDI_Process.lto_priv.0+0x1210>
 800cf64:	ee20 0a27 	vmul.f32	s0, s0, s15
 800cf68:	f000 fb52 	bl	800d610 <rintf>
 800cf6c:	eefc 7ac0 	vcvt.u32.f32	s15, s0
 800cf70:	4ace      	ldr	r2, [pc, #824]	; (800d2ac <USBH_MIDI_Process.lto_priv.0+0x1568>)
 800cf72:	edcd 7a00 	vstr	s15, [sp]
 800cf76:	f89d 3000 	ldrb.w	r3, [sp]
 800cf7a:	8013      	strh	r3, [r2, #0]
 800cf7c:	2b0e      	cmp	r3, #14
 800cf7e:	bf96      	itet	ls
 800cf80:	49cb      	ldrls	r1, [pc, #812]	; (800d2b0 <USBH_MIDI_Process.lto_priv.0+0x156c>)
 800cf82:	4bcc      	ldrhi	r3, [pc, #816]	; (800d2b4 <USBH_MIDI_Process.lto_priv.0+0x1570>)
 800cf84:	f851 3023 	ldrls.w	r3, [r1, r3, lsl #2]
 800cf88:	6053      	str	r3, [r2, #4]
 800cf8a:	2301      	movs	r3, #1
 800cf8c:	7413      	strb	r3, [r2, #16]
 800cf8e:	f7ff b827 	b.w	800bfe0 <USBH_MIDI_Process.lto_priv.0+0x29c>
 800cf92:	ee07 0a90 	vmov	s15, r0
 800cf96:	ed9f 7ac8 	vldr	s14, [pc, #800]	; 800d2b8 <USBH_MIDI_Process.lto_priv.0+0x1574>
 800cf9a:	4ac4      	ldr	r2, [pc, #784]	; (800d2ac <USBH_MIDI_Process.lto_priv.0+0x1568>)
 800cf9c:	eef8 7ae7 	vcvt.f32.s32	s15, s15
 800cfa0:	2301      	movs	r3, #1
 800cfa2:	ee67 7a87 	vmul.f32	s15, s15, s14
 800cfa6:	7413      	strb	r3, [r2, #16]
 800cfa8:	eefc 7ae7 	vcvt.u32.f32	s15, s15
 800cfac:	edcd 7a00 	vstr	s15, [sp]
 800cfb0:	f89d 3000 	ldrb.w	r3, [sp]
 800cfb4:	8113      	strh	r3, [r2, #8]
 800cfb6:	f7ff b813 	b.w	800bfe0 <USBH_MIDI_Process.lto_priv.0+0x29c>
 800cfba:	ee07 0a90 	vmov	s15, r0
 800cfbe:	eeb8 7ae7 	vcvt.f32.s32	s14, s15
 800cfc2:	eddf 7abe 	vldr	s15, [pc, #760]	; 800d2bc <USBH_MIDI_Process.lto_priv.0+0x1578>
 800cfc6:	ed9f 6abe 	vldr	s12, [pc, #760]	; 800d2c0 <USBH_MIDI_Process.lto_priv.0+0x157c>
 800cfca:	ed9f 0abe 	vldr	s0, [pc, #760]	; 800d2c4 <USBH_MIDI_Process.lto_priv.0+0x1580>
 800cfce:	4bbe      	ldr	r3, [pc, #760]	; (800d2c8 <USBH_MIDI_Process.lto_priv.0+0x1584>)
 800cfd0:	ee27 7a27 	vmul.f32	s14, s14, s15
 800cfd4:	eef3 6a04 	vmov.f32	s13, #52	; 0x41a00000  20.0
 800cfd8:	eec7 7a06 	vdiv.f32	s15, s14, s12
 800cfdc:	ee77 7aa6 	vadd.f32	s15, s15, s13
 800cfe0:	ee80 0a27 	vdiv.f32	s0, s0, s15
 800cfe4:	edc3 7a10 	vstr	s15, [r3, #64]	; 0x40
 800cfe8:	f000 fac6 	bl	800d578 <lrintf>
 800cfec:	4bb6      	ldr	r3, [pc, #728]	; (800d2c8 <USBH_MIDI_Process.lto_priv.0+0x1584>)
 800cfee:	6458      	str	r0, [r3, #68]	; 0x44
 800cff0:	f7fe bff6 	b.w	800bfe0 <USBH_MIDI_Process.lto_priv.0+0x29c>
 800cff4:	ee07 0a90 	vmov	s15, r0
 800cff8:	ed9f 7ab1 	vldr	s14, [pc, #708]	; 800d2c0 <USBH_MIDI_Process.lto_priv.0+0x157c>
 800cffc:	4bb3      	ldr	r3, [pc, #716]	; (800d2cc <USBH_MIDI_Process.lto_priv.0+0x1588>)
 800cffe:	eef8 6ae7 	vcvt.f32.s32	s13, s15
 800d002:	eec6 7a87 	vdiv.f32	s15, s13, s14
 800d006:	edc3 7a00 	vstr	s15, [r3]
 800d00a:	f7fe bfe9 	b.w	800bfe0 <USBH_MIDI_Process.lto_priv.0+0x29c>
 800d00e:	ee07 0a90 	vmov	s15, r0
 800d012:	ed9f 7aaf 	vldr	s14, [pc, #700]	; 800d2d0 <USBH_MIDI_Process.lto_priv.0+0x158c>
 800d016:	4baf      	ldr	r3, [pc, #700]	; (800d2d4 <USBH_MIDI_Process.lto_priv.0+0x1590>)
 800d018:	eef8 7ae7 	vcvt.f32.s32	s15, s15
 800d01c:	ee67 7a87 	vmul.f32	s15, s15, s14
 800d020:	edc3 7a00 	vstr	s15, [r3]
 800d024:	f7fe bfdc 	b.w	800bfe0 <USBH_MIDI_Process.lto_priv.0+0x29c>
 800d028:	287f      	cmp	r0, #127	; 0x7f
 800d02a:	f47e afd9 	bne.w	800bfe0 <USBH_MIDI_Process.lto_priv.0+0x29c>
 800d02e:	4baa      	ldr	r3, [pc, #680]	; (800d2d8 <USBH_MIDI_Process.lto_priv.0+0x1594>)
 800d030:	ed9f 7aaa 	vldr	s14, [pc, #680]	; 800d2dc <USBH_MIDI_Process.lto_priv.0+0x1598>
 800d034:	edd3 7a06 	vldr	s15, [r3, #24]
 800d038:	ee67 7a87 	vmul.f32	s15, s15, s14
 800d03c:	edc3 7a06 	vstr	s15, [r3, #24]
 800d040:	f7fe bfce 	b.w	800bfe0 <USBH_MIDI_Process.lto_priv.0+0x29c>
 800d044:	287f      	cmp	r0, #127	; 0x7f
 800d046:	f47e afcb 	bne.w	800bfe0 <USBH_MIDI_Process.lto_priv.0+0x29c>
 800d04a:	4ba5      	ldr	r3, [pc, #660]	; (800d2e0 <USBH_MIDI_Process.lto_priv.0+0x159c>)
 800d04c:	ed9f 7aa3 	vldr	s14, [pc, #652]	; 800d2dc <USBH_MIDI_Process.lto_priv.0+0x1598>
 800d050:	edd3 7a06 	vldr	s15, [r3, #24]
 800d054:	ee67 7a87 	vmul.f32	s15, s15, s14
 800d058:	edc3 7a06 	vstr	s15, [r3, #24]
 800d05c:	f7fe bfc0 	b.w	800bfe0 <USBH_MIDI_Process.lto_priv.0+0x29c>
 800d060:	287f      	cmp	r0, #127	; 0x7f
 800d062:	f47e afbd 	bne.w	800bfe0 <USBH_MIDI_Process.lto_priv.0+0x29c>
 800d066:	4b9f      	ldr	r3, [pc, #636]	; (800d2e4 <USBH_MIDI_Process.lto_priv.0+0x15a0>)
 800d068:	ed9f 7a9c 	vldr	s14, [pc, #624]	; 800d2dc <USBH_MIDI_Process.lto_priv.0+0x1598>
 800d06c:	edd3 7a06 	vldr	s15, [r3, #24]
 800d070:	ee67 7a87 	vmul.f32	s15, s15, s14
 800d074:	edc3 7a06 	vstr	s15, [r3, #24]
 800d078:	f7fe bfb2 	b.w	800bfe0 <USBH_MIDI_Process.lto_priv.0+0x29c>
 800d07c:	ee07 0a90 	vmov	s15, r0
 800d080:	ed9f 7a93 	vldr	s14, [pc, #588]	; 800d2d0 <USBH_MIDI_Process.lto_priv.0+0x158c>
 800d084:	4b93      	ldr	r3, [pc, #588]	; (800d2d4 <USBH_MIDI_Process.lto_priv.0+0x1590>)
 800d086:	eef8 7ae7 	vcvt.f32.s32	s15, s15
 800d08a:	ee67 7a87 	vmul.f32	s15, s15, s14
 800d08e:	edc3 7a00 	vstr	s15, [r3]
 800d092:	f7fe bfa5 	b.w	800bfe0 <USBH_MIDI_Process.lto_priv.0+0x29c>
 800d096:	ee07 0a90 	vmov	s15, r0
 800d09a:	ed9f 7a89 	vldr	s14, [pc, #548]	; 800d2c0 <USBH_MIDI_Process.lto_priv.0+0x157c>
 800d09e:	4b92      	ldr	r3, [pc, #584]	; (800d2e8 <USBH_MIDI_Process.lto_priv.0+0x15a4>)
 800d0a0:	eef8 6ae7 	vcvt.f32.s32	s13, s15
 800d0a4:	eec6 7a87 	vdiv.f32	s15, s13, s14
 800d0a8:	edc3 7a00 	vstr	s15, [r3]
 800d0ac:	f7fe bf98 	b.w	800bfe0 <USBH_MIDI_Process.lto_priv.0+0x29c>
 800d0b0:	ee07 0a90 	vmov	s15, r0
 800d0b4:	ed9f 0a8d 	vldr	s0, [pc, #564]	; 800d2ec <USBH_MIDI_Process.lto_priv.0+0x15a8>
 800d0b8:	eeb8 7ae7 	vcvt.f32.s32	s14, s15
 800d0bc:	eddf 7a8c 	vldr	s15, [pc, #560]	; 800d2f0 <USBH_MIDI_Process.lto_priv.0+0x15ac>
 800d0c0:	ee07 0a27 	vmla.f32	s0, s14, s15
 800d0c4:	f000 fa58 	bl	800d578 <lrintf>
 800d0c8:	4b8a      	ldr	r3, [pc, #552]	; (800d2f4 <USBH_MIDI_Process.lto_priv.0+0x15b0>)
 800d0ca:	4a8b      	ldr	r2, [pc, #556]	; (800d2f8 <USBH_MIDI_Process.lto_priv.0+0x15b4>)
 800d0cc:	681b      	ldr	r3, [r3, #0]
 800d0ce:	498b      	ldr	r1, [pc, #556]	; (800d2fc <USBH_MIDI_Process.lto_priv.0+0x15b8>)
 800d0d0:	eba3 0380 	sub.w	r3, r3, r0, lsl #2
 800d0d4:	4293      	cmp	r3, r2
 800d0d6:	bf36      	itet	cc
 800d0d8:	f503 33ea 	addcc.w	r3, r3, #119808	; 0x1d400
 800d0dc:	4a88      	ldrcs	r2, [pc, #544]	; (800d300 <USBH_MIDI_Process.lto_priv.0+0x15bc>)
 800d0de:	4a88      	ldrcc	r2, [pc, #544]	; (800d300 <USBH_MIDI_Process.lto_priv.0+0x15bc>)
 800d0e0:	6008      	str	r0, [r1, #0]
 800d0e2:	bf38      	it	cc
 800d0e4:	33bc      	addcc	r3, #188	; 0xbc
 800d0e6:	6013      	str	r3, [r2, #0]
 800d0e8:	f7fe bf7a 	b.w	800bfe0 <USBH_MIDI_Process.lto_priv.0+0x29c>
 800d0ec:	ee07 0a90 	vmov	s15, r0
 800d0f0:	ed9f 7a84 	vldr	s14, [pc, #528]	; 800d304 <USBH_MIDI_Process.lto_priv.0+0x15c0>
 800d0f4:	4b84      	ldr	r3, [pc, #528]	; (800d308 <USBH_MIDI_Process.lto_priv.0+0x15c4>)
 800d0f6:	eef8 7ae7 	vcvt.f32.s32	s15, s15
 800d0fa:	681b      	ldr	r3, [r3, #0]
 800d0fc:	ee67 7a87 	vmul.f32	s15, s15, s14
 800d100:	69db      	ldr	r3, [r3, #28]
 800d102:	eefc 7ae7 	vcvt.u32.f32	s15, s15
 800d106:	2094      	movs	r0, #148	; 0x94
 800d108:	edcd 7a00 	vstr	s15, [sp]
 800d10c:	f89d 1000 	ldrb.w	r1, [sp]
 800d110:	4798      	blx	r3
 800d112:	f7fe bf65 	b.w	800bfe0 <USBH_MIDI_Process.lto_priv.0+0x29c>
 800d116:	287f      	cmp	r0, #127	; 0x7f
 800d118:	f47e af62 	bne.w	800bfe0 <USBH_MIDI_Process.lto_priv.0+0x29c>
 800d11c:	4b63      	ldr	r3, [pc, #396]	; (800d2ac <USBH_MIDI_Process.lto_priv.0+0x1568>)
 800d11e:	f64f 72f9 	movw	r2, #65529	; 0xfff9
 800d122:	819a      	strh	r2, [r3, #12]
 800d124:	f7fe bf5c 	b.w	800bfe0 <USBH_MIDI_Process.lto_priv.0+0x29c>
 800d128:	287f      	cmp	r0, #127	; 0x7f
 800d12a:	f47e af59 	bne.w	800bfe0 <USBH_MIDI_Process.lto_priv.0+0x29c>
 800d12e:	4b5f      	ldr	r3, [pc, #380]	; (800d2ac <USBH_MIDI_Process.lto_priv.0+0x1568>)
 800d130:	2202      	movs	r2, #2
 800d132:	819a      	strh	r2, [r3, #12]
 800d134:	f7fe bf54 	b.w	800bfe0 <USBH_MIDI_Process.lto_priv.0+0x29c>
 800d138:	287f      	cmp	r0, #127	; 0x7f
 800d13a:	f47e af51 	bne.w	800bfe0 <USBH_MIDI_Process.lto_priv.0+0x29c>
 800d13e:	4b5b      	ldr	r3, [pc, #364]	; (800d2ac <USBH_MIDI_Process.lto_priv.0+0x1568>)
 800d140:	2207      	movs	r2, #7
 800d142:	819a      	strh	r2, [r3, #12]
 800d144:	f7fe bf4c 	b.w	800bfe0 <USBH_MIDI_Process.lto_priv.0+0x29c>
 800d148:	f44f 4c00 	mov.w	ip, #32768	; 0x8000
 800d14c:	2108      	movs	r1, #8
 800d14e:	f8a9 c018 	strh.w	ip, [r9, #24]
 800d152:	f8ca 100c 	str.w	r1, [sl, #12]
 800d156:	f7fe bf52 	b.w	800bffe <USBH_MIDI_Process.lto_priv.0+0x2ba>
 800d15a:	f8df c1bc 	ldr.w	ip, [pc, #444]	; 800d318 <USBH_MIDI_Process.lto_priv.0+0x15d4>
 800d15e:	4a6b      	ldr	r2, [pc, #428]	; (800d30c <USBH_MIDI_Process.lto_priv.0+0x15c8>)
 800d160:	f89c 0000 	ldrb.w	r0, [ip]
 800d164:	54d1      	strb	r1, [r2, r3]
 800d166:	3801      	subs	r0, #1
 800d168:	b240      	sxtb	r0, r0
 800d16a:	2800      	cmp	r0, #0
 800d16c:	f88c 0000 	strb.w	r0, [ip]
 800d170:	dd64      	ble.n	800d23c <USBH_MIDI_Process.lto_priv.0+0x14f8>
 800d172:	4867      	ldr	r0, [pc, #412]	; (800d310 <USBH_MIDI_Process.lto_priv.0+0x15cc>)
 800d174:	f990 c000 	ldrsb.w	ip, [r0]
 800d178:	3b15      	subs	r3, #21
 800d17a:	4563      	cmp	r3, ip
 800d17c:	f47e af30 	bne.w	800bfe0 <USBH_MIDI_Process.lto_priv.0+0x29c>
 800d180:	e001      	b.n	800d186 <USBH_MIDI_Process.lto_priv.0+0x1442>
 800d182:	2980      	cmp	r1, #128	; 0x80
 800d184:	d072      	beq.n	800d26c <USBH_MIDI_Process.lto_priv.0+0x1528>
 800d186:	f812 3b01 	ldrb.w	r3, [r2], #1
 800d18a:	2b01      	cmp	r3, #1
 800d18c:	fa5f fc81 	uxtb.w	ip, r1
 800d190:	f101 0101 	add.w	r1, r1, #1
 800d194:	d1f5      	bne.n	800d182 <USBH_MIDI_Process.lto_priv.0+0x143e>
 800d196:	f1ac 0c15 	sub.w	ip, ip, #21
 800d19a:	f880 c000 	strb.w	ip, [r0]
 800d19e:	f7fe bf1f 	b.w	800bfe0 <USBH_MIDI_Process.lto_priv.0+0x29c>
 800d1a2:	b240      	sxtb	r0, r0
 800d1a4:	4a5b      	ldr	r2, [pc, #364]	; (800d314 <USBH_MIDI_Process.lto_priv.0+0x15d0>)
 800d1a6:	2800      	cmp	r0, #0
 800d1a8:	7010      	strb	r0, [r2, #0]
 800d1aa:	dd23      	ble.n	800d1f4 <USBH_MIDI_Process.lto_priv.0+0x14b0>
 800d1ac:	2b14      	cmp	r3, #20
 800d1ae:	bf86      	itte	hi
 800d1b0:	f1a3 0115 	subhi.w	r1, r3, #21
 800d1b4:	fa4f fc81 	sxtbhi.w	ip, r1
 800d1b8:	468c      	movls	ip, r1
 800d1ba:	4957      	ldr	r1, [pc, #348]	; (800d318 <USBH_MIDI_Process.lto_priv.0+0x15d4>)
 800d1bc:	4a57      	ldr	r2, [pc, #348]	; (800d31c <USBH_MIDI_Process.lto_priv.0+0x15d8>)
 800d1be:	7808      	ldrb	r0, [r1, #0]
 800d1c0:	edd2 7a00 	vldr	s15, [r2]
 800d1c4:	f8df e148 	ldr.w	lr, [pc, #328]	; 800d310 <USBH_MIDI_Process.lto_priv.0+0x15cc>
 800d1c8:	edc2 7a07 	vstr	s15, [r2, #28]
 800d1cc:	3001      	adds	r0, #1
 800d1ce:	7008      	strb	r0, [r1, #0]
 800d1d0:	f04f 517e 	mov.w	r1, #1065353216	; 0x3f800000
 800d1d4:	6191      	str	r1, [r2, #24]
 800d1d6:	2100      	movs	r1, #0
 800d1d8:	e9c2 1108 	strd	r1, r1, [r2, #32]
 800d1dc:	4a4b      	ldr	r2, [pc, #300]	; (800d30c <USBH_MIDI_Process.lto_priv.0+0x15c8>)
 800d1de:	f88e c000 	strb.w	ip, [lr]
 800d1e2:	2101      	movs	r1, #1
 800d1e4:	54d1      	strb	r1, [r2, r3]
 800d1e6:	f7fe befb 	b.w	800bfe0 <USBH_MIDI_Process.lto_priv.0+0x29c>
 800d1ea:	f8d8 35c4 	ldr.w	r3, [r8, #1476]	; 0x5c4
 800d1ee:	69db      	ldr	r3, [r3, #28]
 800d1f0:	f7fe becf 	b.w	800bf92 <USBH_MIDI_Process.lto_priv.0+0x24e>
 800d1f4:	f8df c120 	ldr.w	ip, [pc, #288]	; 800d318 <USBH_MIDI_Process.lto_priv.0+0x15d4>
 800d1f8:	4a44      	ldr	r2, [pc, #272]	; (800d30c <USBH_MIDI_Process.lto_priv.0+0x15c8>)
 800d1fa:	f89c 0000 	ldrb.w	r0, [ip]
 800d1fe:	54d1      	strb	r1, [r2, r3]
 800d200:	3801      	subs	r0, #1
 800d202:	b240      	sxtb	r0, r0
 800d204:	2800      	cmp	r0, #0
 800d206:	f88c 0000 	strb.w	r0, [ip]
 800d20a:	dd23      	ble.n	800d254 <USBH_MIDI_Process.lto_priv.0+0x1510>
 800d20c:	4840      	ldr	r0, [pc, #256]	; (800d310 <USBH_MIDI_Process.lto_priv.0+0x15cc>)
 800d20e:	f990 c000 	ldrsb.w	ip, [r0]
 800d212:	3b15      	subs	r3, #21
 800d214:	4563      	cmp	r3, ip
 800d216:	f47e aee3 	bne.w	800bfe0 <USBH_MIDI_Process.lto_priv.0+0x29c>
 800d21a:	e001      	b.n	800d220 <USBH_MIDI_Process.lto_priv.0+0x14dc>
 800d21c:	2980      	cmp	r1, #128	; 0x80
 800d21e:	d030      	beq.n	800d282 <USBH_MIDI_Process.lto_priv.0+0x153e>
 800d220:	f812 3b01 	ldrb.w	r3, [r2], #1
 800d224:	2b01      	cmp	r3, #1
 800d226:	fa5f fc81 	uxtb.w	ip, r1
 800d22a:	f101 0101 	add.w	r1, r1, #1
 800d22e:	d1f5      	bne.n	800d21c <USBH_MIDI_Process.lto_priv.0+0x14d8>
 800d230:	f1ac 0c15 	sub.w	ip, ip, #21
 800d234:	f880 c000 	strb.w	ip, [r0]
 800d238:	f7fe bed2 	b.w	800bfe0 <USBH_MIDI_Process.lto_priv.0+0x29c>
 800d23c:	4b37      	ldr	r3, [pc, #220]	; (800d31c <USBH_MIDI_Process.lto_priv.0+0x15d8>)
 800d23e:	f88c 1000 	strb.w	r1, [ip]
 800d242:	2200      	movs	r2, #0
 800d244:	6259      	str	r1, [r3, #36]	; 0x24
 800d246:	619a      	str	r2, [r3, #24]
 800d248:	68d9      	ldr	r1, [r3, #12]
 800d24a:	61d9      	str	r1, [r3, #28]
 800d24c:	2203      	movs	r2, #3
 800d24e:	621a      	str	r2, [r3, #32]
 800d250:	f7fe bec6 	b.w	800bfe0 <USBH_MIDI_Process.lto_priv.0+0x29c>
 800d254:	4b31      	ldr	r3, [pc, #196]	; (800d31c <USBH_MIDI_Process.lto_priv.0+0x15d8>)
 800d256:	f88c 1000 	strb.w	r1, [ip]
 800d25a:	2200      	movs	r2, #0
 800d25c:	6259      	str	r1, [r3, #36]	; 0x24
 800d25e:	619a      	str	r2, [r3, #24]
 800d260:	68d9      	ldr	r1, [r3, #12]
 800d262:	61d9      	str	r1, [r3, #28]
 800d264:	2203      	movs	r2, #3
 800d266:	621a      	str	r2, [r3, #32]
 800d268:	f7fe beba 	b.w	800bfe0 <USBH_MIDI_Process.lto_priv.0+0x29c>
 800d26c:	468c      	mov	ip, r1
 800d26e:	e792      	b.n	800d196 <USBH_MIDI_Process.lto_priv.0+0x1452>
 800d270:	edc3 7a00 	vstr	s15, [r3]
 800d274:	4b2a      	ldr	r3, [pc, #168]	; (800d320 <USBH_MIDI_Process.lto_priv.0+0x15dc>)
 800d276:	edc2 7a00 	vstr	s15, [r2]
 800d27a:	edc3 7a00 	vstr	s15, [r3]
 800d27e:	f7fe beaf 	b.w	800bfe0 <USBH_MIDI_Process.lto_priv.0+0x29c>
 800d282:	468c      	mov	ip, r1
 800d284:	e7d4      	b.n	800d230 <USBH_MIDI_Process.lto_priv.0+0x14ec>
 800d286:	2100      	movs	r1, #0
 800d288:	4a26      	ldr	r2, [pc, #152]	; (800d324 <USBH_MIDI_Process.lto_priv.0+0x15e0>)
 800d28a:	481b      	ldr	r0, [pc, #108]	; (800d2f8 <USBH_MIDI_Process.lto_priv.0+0x15b4>)
 800d28c:	7019      	strb	r1, [r3, #0]
 800d28e:	f001 fc0d 	bl	800eaac <memset>
 800d292:	f7fe bea5 	b.w	800bfe0 <USBH_MIDI_Process.lto_priv.0+0x29c>
 800d296:	2200      	movs	r2, #0
 800d298:	701a      	strb	r2, [r3, #0]
 800d29a:	f7fe bea1 	b.w	800bfe0 <USBH_MIDI_Process.lto_priv.0+0x29c>
 800d29e:	4922      	ldr	r1, [pc, #136]	; (800d328 <USBH_MIDI_Process.lto_priv.0+0x15e4>)
 800d2a0:	4a22      	ldr	r2, [pc, #136]	; (800d32c <USBH_MIDI_Process.lto_priv.0+0x15e8>)
 800d2a2:	2301      	movs	r3, #1
 800d2a4:	700b      	strb	r3, [r1, #0]
 800d2a6:	7013      	strb	r3, [r2, #0]
 800d2a8:	f7fe be9a 	b.w	800bfe0 <USBH_MIDI_Process.lto_priv.0+0x29c>
 800d2ac:	10000054 	.word	0x10000054
 800d2b0:	0800f53c 	.word	0x0800f53c
 800d2b4:	0800f5d4 	.word	0x0800f5d4
 800d2b8:	3d810204 	.word	0x3d810204
 800d2bc:	44480000 	.word	0x44480000
 800d2c0:	42fe0000 	.word	0x42fe0000
 800d2c4:	4a217fc0 	.word	0x4a217fc0
 800d2c8:	10000000 	.word	0x10000000
 800d2cc:	20000060 	.word	0x20000060
 800d2d0:	3b810204 	.word	0x3b810204
 800d2d4:	10000200 	.word	0x10000200
 800d2d8:	100001e0 	.word	0x100001e0
 800d2dc:	3f8147ae 	.word	0x3f8147ae
 800d2e0:	100001c0 	.word	0x100001c0
 800d2e4:	100001a0 	.word	0x100001a0
 800d2e8:	20000058 	.word	0x20000058
 800d2ec:	437a0000 	.word	0x437a0000
 800d2f0:	436a3e7d 	.word	0x436a3e7d
 800d2f4:	2001f7e8 	.word	0x2001f7e8
 800d2f8:	2000190c 	.word	0x2000190c
 800d2fc:	2001f7d8 	.word	0x2001f7d8
 800d300:	2001f7d4 	.word	0x2001f7d4
 800d304:	3f499326 	.word	0x3f499326
 800d308:	2001f7cc 	.word	0x2001f7cc
 800d30c:	2001f730 	.word	0x2001f730
 800d310:	20001908 	.word	0x20001908
 800d314:	2001f7e0 	.word	0x2001f7e0
 800d318:	2001f72c 	.word	0x2001f72c
 800d31c:	10000068 	.word	0x10000068
 800d320:	100000c8 	.word	0x100000c8
 800d324:	0001d4c8 	.word	0x0001d4c8
 800d328:	10003ec8 	.word	0x10003ec8
 800d32c:	100028d0 	.word	0x100028d0
 800d330:	4b25      	ldr	r3, [pc, #148]	; (800d3c8 <USBH_MIDI_Process.lto_priv.0+0x1684>)
 800d332:	eddb 7a01 	vldr	s15, [fp, #4]
 800d336:	ed93 7a01 	vldr	s14, [r3, #4]
 800d33a:	eef0 7ae7 	vabs.f32	s15, s15
 800d33e:	eeb0 7ac7 	vabs.f32	s14, s14
 800d342:	eeb1 7a47 	vneg.f32	s14, s14
 800d346:	eef1 7a67 	vneg.f32	s15, s15
 800d34a:	ed83 7a01 	vstr	s14, [r3, #4]
 800d34e:	edcb 7a01 	vstr	s15, [fp, #4]
 800d352:	f7fe be45 	b.w	800bfe0 <USBH_MIDI_Process.lto_priv.0+0x29c>
 800d356:	4b1d      	ldr	r3, [pc, #116]	; (800d3cc <USBH_MIDI_Process.lto_priv.0+0x1688>)
 800d358:	7458      	strb	r0, [r3, #17]
 800d35a:	f7fe be41 	b.w	800bfe0 <USBH_MIDI_Process.lto_priv.0+0x29c>
 800d35e:	f8df e088 	ldr.w	lr, [pc, #136]	; 800d3e8 <USBH_MIDI_Process.lto_priv.0+0x16a4>
 800d362:	eddf 7a1b 	vldr	s15, [pc, #108]	; 800d3d0 <USBH_MIDI_Process.lto_priv.0+0x168c>
 800d366:	f8df c084 	ldr.w	ip, [pc, #132]	; 800d3ec <USBH_MIDI_Process.lto_priv.0+0x16a8>
 800d36a:	481a      	ldr	r0, [pc, #104]	; (800d3d4 <USBH_MIDI_Process.lto_priv.0+0x1690>)
 800d36c:	f8de 3000 	ldr.w	r3, [lr]
 800d370:	4919      	ldr	r1, [pc, #100]	; (800d3d8 <USBH_MIDI_Process.lto_priv.0+0x1694>)
 800d372:	f8ce 3004 	str.w	r3, [lr, #4]
 800d376:	edce 7a00 	vstr	s15, [lr]
 800d37a:	f8dc e000 	ldr.w	lr, [ip]
 800d37e:	4a17      	ldr	r2, [pc, #92]	; (800d3dc <USBH_MIDI_Process.lto_priv.0+0x1698>)
 800d380:	4b17      	ldr	r3, [pc, #92]	; (800d3e0 <USBH_MIDI_Process.lto_priv.0+0x169c>)
 800d382:	edcc 7a00 	vstr	s15, [ip]
 800d386:	f8cc e004 	str.w	lr, [ip, #4]
 800d38a:	f8d0 c000 	ldr.w	ip, [r0]
 800d38e:	f8c0 c004 	str.w	ip, [r0, #4]
 800d392:	edc0 7a00 	vstr	s15, [r0]
 800d396:	6848      	ldr	r0, [r1, #4]
 800d398:	6088      	str	r0, [r1, #8]
 800d39a:	edc1 7a01 	vstr	s15, [r1, #4]
 800d39e:	6850      	ldr	r0, [r2, #4]
 800d3a0:	6859      	ldr	r1, [r3, #4]
 800d3a2:	6090      	str	r0, [r2, #8]
 800d3a4:	edc2 7a01 	vstr	s15, [r2, #4]
 800d3a8:	edc3 7a01 	vstr	s15, [r3, #4]
 800d3ac:	6099      	str	r1, [r3, #8]
 800d3ae:	f7fe be17 	b.w	800bfe0 <USBH_MIDI_Process.lto_priv.0+0x29c>
 800d3b2:	4b0c      	ldr	r3, [pc, #48]	; (800d3e4 <USBH_MIDI_Process.lto_priv.0+0x16a0>)
 800d3b4:	2200      	movs	r2, #0
 800d3b6:	6259      	str	r1, [r3, #36]	; 0x24
 800d3b8:	619a      	str	r2, [r3, #24]
 800d3ba:	68d9      	ldr	r1, [r3, #12]
 800d3bc:	61d9      	str	r1, [r3, #28]
 800d3be:	2203      	movs	r2, #3
 800d3c0:	621a      	str	r2, [r3, #32]
 800d3c2:	f7ff ba8b 	b.w	800c8dc <USBH_MIDI_Process.lto_priv.0+0xb98>
 800d3c6:	bf00      	nop
 800d3c8:	100012dc 	.word	0x100012dc
 800d3cc:	10000054 	.word	0x10000054
 800d3d0:	00000000 	.word	0x00000000
 800d3d4:	100001c0 	.word	0x100001c0
 800d3d8:	100002d8 	.word	0x100002d8
 800d3dc:	10000824 	.word	0x10000824
 800d3e0:	10000d80 	.word	0x10000d80
 800d3e4:	10000068 	.word	0x10000068
 800d3e8:	10000180 	.word	0x10000180
 800d3ec:	100001a0 	.word	0x100001a0

0800d3f0 <USBH_MIDI_InterfaceDeInit.lto_priv.0>:
USBH_MIDI_InterfaceDeInit.lto_priv.0():
 800d3f0:	b570      	push	{r4, r5, r6, lr}
 800d3f2:	f8d0 35c4 	ldr.w	r3, [r0, #1476]	; 0x5c4
 800d3f6:	69dd      	ldr	r5, [r3, #28]
 800d3f8:	78a9      	ldrb	r1, [r5, #2]
 800d3fa:	4604      	mov	r4, r0
 800d3fc:	b951      	cbnz	r1, 800d414 <USBH_MIDI_InterfaceDeInit.lto_priv.0+0x24>
 800d3fe:	7869      	ldrb	r1, [r5, #1]
 800d400:	bb31      	cbnz	r1, 800d450 <USBH_MIDI_InterfaceDeInit.lto_priv.0+0x60>
 800d402:	4628      	mov	r0, r5
 800d404:	f001 fc40 	bl	800ec88 <free>
 800d408:	f8d4 35c4 	ldr.w	r3, [r4, #1476]	; 0x5c4
 800d40c:	2200      	movs	r2, #0
 800d40e:	61da      	str	r2, [r3, #28]
 800d410:	2000      	movs	r0, #0
 800d412:	bd70      	pop	{r4, r5, r6, pc}
 800d414:	f8d0 6610 	ldr.w	r6, [r0, #1552]	; 0x610
 800d418:	f896 3288 	ldrb.w	r3, [r6, #648]	; 0x288
 800d41c:	2b01      	cmp	r3, #1
 800d41e:	d009      	beq.n	800d434 <USBH_MIDI_InterfaceDeInit.lto_priv.0+0x44>
 800d420:	2301      	movs	r3, #1
 800d422:	f886 3288 	strb.w	r3, [r6, #648]	; 0x288
 800d426:	6830      	ldr	r0, [r6, #0]
 800d428:	f7f3 f8b6 	bl	8000598 <USB_HC_Halt>
 800d42c:	2300      	movs	r3, #0
 800d42e:	f886 3288 	strb.w	r3, [r6, #648]	; 0x288
 800d432:	78a9      	ldrb	r1, [r5, #2]
 800d434:	290a      	cmp	r1, #10
 800d436:	d807      	bhi.n	800d448 <USBH_MIDI_InterfaceDeInit.lto_priv.0+0x58>
 800d438:	eb04 0181 	add.w	r1, r4, r1, lsl #2
 800d43c:	f8d1 35cc 	ldr.w	r3, [r1, #1484]	; 0x5cc
 800d440:	f3c3 030e 	ubfx	r3, r3, #0, #15
 800d444:	f8c1 35cc 	str.w	r3, [r1, #1484]	; 0x5cc
 800d448:	7869      	ldrb	r1, [r5, #1]
 800d44a:	2300      	movs	r3, #0
 800d44c:	70ab      	strb	r3, [r5, #2]
 800d44e:	b199      	cbz	r1, 800d478 <USBH_MIDI_InterfaceDeInit.lto_priv.0+0x88>
 800d450:	f8d4 6610 	ldr.w	r6, [r4, #1552]	; 0x610
 800d454:	f896 3288 	ldrb.w	r3, [r6, #648]	; 0x288
 800d458:	2b01      	cmp	r3, #1
 800d45a:	d009      	beq.n	800d470 <USBH_MIDI_InterfaceDeInit.lto_priv.0+0x80>
 800d45c:	2301      	movs	r3, #1
 800d45e:	f886 3288 	strb.w	r3, [r6, #648]	; 0x288
 800d462:	6830      	ldr	r0, [r6, #0]
 800d464:	f7f3 f898 	bl	8000598 <USB_HC_Halt>
 800d468:	2300      	movs	r3, #0
 800d46a:	f886 3288 	strb.w	r3, [r6, #648]	; 0x288
 800d46e:	7869      	ldrb	r1, [r5, #1]
 800d470:	290a      	cmp	r1, #10
 800d472:	d908      	bls.n	800d486 <USBH_MIDI_InterfaceDeInit.lto_priv.0+0x96>
 800d474:	2300      	movs	r3, #0
 800d476:	706b      	strb	r3, [r5, #1]
 800d478:	f8d4 35c4 	ldr.w	r3, [r4, #1476]	; 0x5c4
 800d47c:	69dd      	ldr	r5, [r3, #28]
 800d47e:	2d00      	cmp	r5, #0
 800d480:	d1bf      	bne.n	800d402 <USBH_MIDI_InterfaceDeInit.lto_priv.0+0x12>
 800d482:	2000      	movs	r0, #0
 800d484:	bd70      	pop	{r4, r5, r6, pc}
 800d486:	eb04 0181 	add.w	r1, r4, r1, lsl #2
 800d48a:	f8d1 35cc 	ldr.w	r3, [r1, #1484]	; 0x5cc
 800d48e:	f3c3 030e 	ubfx	r3, r3, #0, #15
 800d492:	f8c1 35cc 	str.w	r3, [r1, #1484]	; 0x5cc
 800d496:	e7ed      	b.n	800d474 <USBH_MIDI_InterfaceDeInit.lto_priv.0+0x84>

0800d498 <Reset_Handler>:
Reset_Handler():
 800d498:	f8df d034 	ldr.w	sp, [pc, #52]	; 800d4d0 <LoopFillZerobss+0x14>
 800d49c:	2100      	movs	r1, #0
 800d49e:	e003      	b.n	800d4a8 <LoopCopyDataInit>

0800d4a0 <CopyDataInit>:
 800d4a0:	4b0c      	ldr	r3, [pc, #48]	; (800d4d4 <LoopFillZerobss+0x18>)
 800d4a2:	585b      	ldr	r3, [r3, r1]
 800d4a4:	5043      	str	r3, [r0, r1]
 800d4a6:	3104      	adds	r1, #4

0800d4a8 <LoopCopyDataInit>:
 800d4a8:	480b      	ldr	r0, [pc, #44]	; (800d4d8 <LoopFillZerobss+0x1c>)
 800d4aa:	4b0c      	ldr	r3, [pc, #48]	; (800d4dc <LoopFillZerobss+0x20>)
 800d4ac:	1842      	adds	r2, r0, r1
 800d4ae:	429a      	cmp	r2, r3
 800d4b0:	d3f6      	bcc.n	800d4a0 <CopyDataInit>
 800d4b2:	4a0b      	ldr	r2, [pc, #44]	; (800d4e0 <LoopFillZerobss+0x24>)
 800d4b4:	e002      	b.n	800d4bc <LoopFillZerobss>

0800d4b6 <FillZerobss>:
 800d4b6:	2300      	movs	r3, #0
 800d4b8:	f842 3b04 	str.w	r3, [r2], #4

0800d4bc <LoopFillZerobss>:
 800d4bc:	4b09      	ldr	r3, [pc, #36]	; (800d4e4 <LoopFillZerobss+0x28>)
 800d4be:	429a      	cmp	r2, r3
 800d4c0:	d3f9      	bcc.n	800d4b6 <FillZerobss>
 800d4c2:	f7f8 f87d 	bl	80055c0 <SystemInit>
 800d4c6:	f001 facd 	bl	800ea64 <__libc_init_array>
 800d4ca:	f7f9 f8b1 	bl	8006630 <main>
 800d4ce:	4770      	bx	lr
LoopFillZerobss():
 800d4d0:	2001ffff 	.word	0x2001ffff
 800d4d4:	0801e2a0 	.word	0x0801e2a0
 800d4d8:	20000000 	.word	0x20000000
 800d4dc:	200008ac 	.word	0x200008ac
 800d4e0:	200008ac 	.word	0x200008ac
 800d4e4:	2001f850 	.word	0x2001f850

0800d4e8 <ADC_IRQHandler>:
RTC_Alarm_IRQHandler():
 800d4e8:	e7fe      	b.n	800d4e8 <ADC_IRQHandler>
	...

0800d4ec <floorf>:
floorf():
 800d4ec:	ee10 2a10 	vmov	r2, s0
 800d4f0:	f3c2 53c7 	ubfx	r3, r2, #23, #8
 800d4f4:	3b7f      	subs	r3, #127	; 0x7f
 800d4f6:	2b16      	cmp	r3, #22
 800d4f8:	f022 4100 	bic.w	r1, r2, #2147483648	; 0x80000000
 800d4fc:	dc1a      	bgt.n	800d534 <floorf+0x48>
 800d4fe:	2b00      	cmp	r3, #0
 800d500:	db1e      	blt.n	800d540 <floorf+0x54>
 800d502:	491a      	ldr	r1, [pc, #104]	; (800d56c <floorf+0x80>)
 800d504:	4119      	asrs	r1, r3
 800d506:	420a      	tst	r2, r1
 800d508:	d027      	beq.n	800d55a <floorf+0x6e>
 800d50a:	eddf 7a19 	vldr	s15, [pc, #100]	; 800d570 <floorf+0x84>
 800d50e:	ee70 7a27 	vadd.f32	s15, s0, s15
 800d512:	eef5 7ac0 	vcmpe.f32	s15, #0.0
 800d516:	eef1 fa10 	vmrs	APSR_nzcv, fpscr
 800d51a:	dd1e      	ble.n	800d55a <floorf+0x6e>
 800d51c:	2a00      	cmp	r2, #0
 800d51e:	da04      	bge.n	800d52a <floorf+0x3e>
 800d520:	f44f 0000 	mov.w	r0, #8388608	; 0x800000
 800d524:	fa40 f303 	asr.w	r3, r0, r3
 800d528:	441a      	add	r2, r3
 800d52a:	ea22 0301 	bic.w	r3, r2, r1
 800d52e:	ee00 3a10 	vmov	s0, r3
 800d532:	4770      	bx	lr
 800d534:	f1b1 4fff 	cmp.w	r1, #2139095040	; 0x7f800000
 800d538:	d30f      	bcc.n	800d55a <floorf+0x6e>
 800d53a:	ee30 0a00 	vadd.f32	s0, s0, s0
 800d53e:	4770      	bx	lr
 800d540:	eddf 7a0b 	vldr	s15, [pc, #44]	; 800d570 <floorf+0x84>
 800d544:	ee70 7a27 	vadd.f32	s15, s0, s15
 800d548:	eef5 7ac0 	vcmpe.f32	s15, #0.0
 800d54c:	eef1 fa10 	vmrs	APSR_nzcv, fpscr
 800d550:	dd03      	ble.n	800d55a <floorf+0x6e>
 800d552:	2a00      	cmp	r2, #0
 800d554:	db02      	blt.n	800d55c <floorf+0x70>
 800d556:	ed9f 0a07 	vldr	s0, [pc, #28]	; 800d574 <floorf+0x88>
 800d55a:	4770      	bx	lr
 800d55c:	2900      	cmp	r1, #0
 800d55e:	eeff 7a00 	vmov.f32	s15, #240	; 0xbf800000 -1.0
 800d562:	bf18      	it	ne
 800d564:	eeb0 0a67 	vmovne.f32	s0, s15
 800d568:	4770      	bx	lr
 800d56a:	bf00      	nop
 800d56c:	007fffff 	.word	0x007fffff
 800d570:	7149f2ca 	.word	0x7149f2ca
 800d574:	00000000 	.word	0x00000000

0800d578 <lrintf>:
lrintf():
 800d578:	b410      	push	{r4}
 800d57a:	b085      	sub	sp, #20
 800d57c:	ed8d 0a01 	vstr	s0, [sp, #4]
 800d580:	9b01      	ldr	r3, [sp, #4]
 800d582:	f3c3 51c7 	ubfx	r1, r3, #23, #8
 800d586:	f1a1 027f 	sub.w	r2, r1, #127	; 0x7f
 800d58a:	2a1e      	cmp	r2, #30
 800d58c:	dc2a      	bgt.n	800d5e4 <lrintf+0x6c>
 800d58e:	1c50      	adds	r0, r2, #1
 800d590:	db23      	blt.n	800d5da <lrintf+0x62>
 800d592:	2a16      	cmp	r2, #22
 800d594:	ea4f 74d3 	mov.w	r4, r3, lsr #31
 800d598:	dd0b      	ble.n	800d5b2 <lrintf+0x3a>
 800d59a:	f3c3 0016 	ubfx	r0, r3, #0, #23
 800d59e:	f440 0000 	orr.w	r0, r0, #8388608	; 0x800000
 800d5a2:	3996      	subs	r1, #150	; 0x96
 800d5a4:	4088      	lsls	r0, r1
 800d5a6:	b104      	cbz	r4, 800d5aa <lrintf+0x32>
 800d5a8:	4240      	negs	r0, r0
 800d5aa:	b005      	add	sp, #20
 800d5ac:	f85d 4b04 	ldr.w	r4, [sp], #4
 800d5b0:	4770      	bx	lr
 800d5b2:	4b16      	ldr	r3, [pc, #88]	; (800d60c <lrintf+0x94>)
 800d5b4:	eddd 7a01 	vldr	s15, [sp, #4]
 800d5b8:	eb03 0384 	add.w	r3, r3, r4, lsl #2
 800d5bc:	ed93 7a00 	vldr	s14, [r3]
 800d5c0:	ee77 7a27 	vadd.f32	s15, s14, s15
 800d5c4:	edcd 7a03 	vstr	s15, [sp, #12]
 800d5c8:	eddd 7a03 	vldr	s15, [sp, #12]
 800d5cc:	ee77 7ac7 	vsub.f32	s15, s15, s14
 800d5d0:	ee17 3a90 	vmov	r3, s15
 800d5d4:	f033 4200 	bics.w	r2, r3, #2147483648	; 0x80000000
 800d5d8:	d10e      	bne.n	800d5f8 <lrintf+0x80>
 800d5da:	2000      	movs	r0, #0
 800d5dc:	b005      	add	sp, #20
 800d5de:	f85d 4b04 	ldr.w	r4, [sp], #4
 800d5e2:	4770      	bx	lr
 800d5e4:	eddd 7a01 	vldr	s15, [sp, #4]
 800d5e8:	eefd 7ae7 	vcvt.s32.f32	s15, s15
 800d5ec:	ee17 0a90 	vmov	r0, s15
 800d5f0:	b005      	add	sp, #20
 800d5f2:	f85d 4b04 	ldr.w	r4, [sp], #4
 800d5f6:	4770      	bx	lr
 800d5f8:	f3c3 0016 	ubfx	r0, r3, #0, #23
 800d5fc:	f3c3 53c7 	ubfx	r3, r3, #23, #8
 800d600:	f440 0000 	orr.w	r0, r0, #8388608	; 0x800000
 800d604:	f1c3 0396 	rsb	r3, r3, #150	; 0x96
 800d608:	40d8      	lsrs	r0, r3
 800d60a:	e7cc      	b.n	800d5a6 <lrintf+0x2e>
 800d60c:	0801deb0 	.word	0x0801deb0

0800d610 <rintf>:
rintf():
 800d610:	ee10 1a10 	vmov	r1, s0
 800d614:	f3c1 53c7 	ubfx	r3, r1, #23, #8
 800d618:	f1a3 027f 	sub.w	r2, r3, #127	; 0x7f
 800d61c:	2a16      	cmp	r2, #22
 800d61e:	f021 4300 	bic.w	r3, r1, #2147483648	; 0x80000000
 800d622:	dc28      	bgt.n	800d676 <rintf+0x66>
 800d624:	b333      	cbz	r3, 800d674 <rintf+0x64>
 800d626:	b410      	push	{r4}
 800d628:	2a00      	cmp	r2, #0
 800d62a:	b083      	sub	sp, #12
 800d62c:	ea4f 70d1 	mov.w	r0, r1, lsr #31
 800d630:	db27      	blt.n	800d682 <rintf+0x72>
 800d632:	4b24      	ldr	r3, [pc, #144]	; (800d6c4 <rintf+0xb4>)
 800d634:	4113      	asrs	r3, r2
 800d636:	4219      	tst	r1, r3
 800d638:	d018      	beq.n	800d66c <rintf+0x5c>
 800d63a:	085c      	lsrs	r4, r3, #1
 800d63c:	ea11 0353 	ands.w	r3, r1, r3, lsr #1
 800d640:	d007      	beq.n	800d652 <rintf+0x42>
 800d642:	f44f 1300 	mov.w	r3, #2097152	; 0x200000
 800d646:	ea21 0104 	bic.w	r1, r1, r4
 800d64a:	4113      	asrs	r3, r2
 800d64c:	430b      	orrs	r3, r1
 800d64e:	ee00 3a10 	vmov	s0, r3
 800d652:	4b1d      	ldr	r3, [pc, #116]	; (800d6c8 <rintf+0xb8>)
 800d654:	eb03 0080 	add.w	r0, r3, r0, lsl #2
 800d658:	edd0 7a00 	vldr	s15, [r0]
 800d65c:	ee37 0a80 	vadd.f32	s0, s15, s0
 800d660:	ed8d 0a01 	vstr	s0, [sp, #4]
 800d664:	ed9d 0a01 	vldr	s0, [sp, #4]
 800d668:	ee30 0a67 	vsub.f32	s0, s0, s15
 800d66c:	b003      	add	sp, #12
 800d66e:	f85d 4b04 	ldr.w	r4, [sp], #4
 800d672:	4770      	bx	lr
 800d674:	4770      	bx	lr
 800d676:	f1b3 4fff 	cmp.w	r3, #2139095040	; 0x7f800000
 800d67a:	d3fb      	bcc.n	800d674 <rintf+0x64>
 800d67c:	ee30 0a00 	vadd.f32	s0, s0, s0
 800d680:	4770      	bx	lr
 800d682:	f3c1 0316 	ubfx	r3, r1, #0, #23
 800d686:	425b      	negs	r3, r3
 800d688:	4a0f      	ldr	r2, [pc, #60]	; (800d6c8 <rintf+0xb8>)
 800d68a:	0a5b      	lsrs	r3, r3, #9
 800d68c:	0d09      	lsrs	r1, r1, #20
 800d68e:	f403 0380 	and.w	r3, r3, #4194304	; 0x400000
 800d692:	0509      	lsls	r1, r1, #20
 800d694:	4319      	orrs	r1, r3
 800d696:	eb02 0280 	add.w	r2, r2, r0, lsl #2
 800d69a:	edd2 6a00 	vldr	s13, [r2]
 800d69e:	ee07 1a90 	vmov	s15, r1
 800d6a2:	ee36 7aa7 	vadd.f32	s14, s13, s15
 800d6a6:	ed8d 7a01 	vstr	s14, [sp, #4]
 800d6aa:	eddd 7a01 	vldr	s15, [sp, #4]
 800d6ae:	ee77 7ae6 	vsub.f32	s15, s15, s13
 800d6b2:	ee17 3a90 	vmov	r3, s15
 800d6b6:	f023 4300 	bic.w	r3, r3, #2147483648	; 0x80000000
 800d6ba:	ea43 73c0 	orr.w	r3, r3, r0, lsl #31
 800d6be:	ee00 3a10 	vmov	s0, r3
 800d6c2:	e7d3      	b.n	800d66c <rintf+0x5c>
 800d6c4:	007fffff 	.word	0x007fffff
 800d6c8:	0801deb8 	.word	0x0801deb8

0800d6cc <sinf>:
sinf():
 800d6cc:	b500      	push	{lr}
 800d6ce:	ee10 3a10 	vmov	r3, s0
 800d6d2:	4a21      	ldr	r2, [pc, #132]	; (800d758 <sinf+0x8c>)
 800d6d4:	f023 4300 	bic.w	r3, r3, #2147483648	; 0x80000000
 800d6d8:	4293      	cmp	r3, r2
 800d6da:	b083      	sub	sp, #12
 800d6dc:	dd1a      	ble.n	800d714 <sinf+0x48>
 800d6de:	f1b3 4fff 	cmp.w	r3, #2139095040	; 0x7f800000
 800d6e2:	db04      	blt.n	800d6ee <sinf+0x22>
 800d6e4:	ee30 0a40 	vsub.f32	s0, s0, s0
 800d6e8:	b003      	add	sp, #12
 800d6ea:	f85d fb04 	ldr.w	pc, [sp], #4
 800d6ee:	4668      	mov	r0, sp
 800d6f0:	f000 fbd6 	bl	800dea0 <__ieee754_rem_pio2f>
 800d6f4:	f000 0003 	and.w	r0, r0, #3
 800d6f8:	2801      	cmp	r0, #1
 800d6fa:	d013      	beq.n	800d724 <sinf+0x58>
 800d6fc:	2802      	cmp	r0, #2
 800d6fe:	d020      	beq.n	800d742 <sinf+0x76>
 800d700:	b1b8      	cbz	r0, 800d732 <sinf+0x66>
 800d702:	eddd 0a01 	vldr	s1, [sp, #4]
 800d706:	ed9d 0a00 	vldr	s0, [sp]
 800d70a:	f000 fd17 	bl	800e13c <__kernel_cosf>
 800d70e:	eeb1 0a40 	vneg.f32	s0, s0
 800d712:	e7e9      	b.n	800d6e8 <sinf+0x1c>
 800d714:	eddf 0a11 	vldr	s1, [pc, #68]	; 800d75c <sinf+0x90>
 800d718:	2000      	movs	r0, #0
 800d71a:	f001 f8c7 	bl	800e8ac <__kernel_sinf>
 800d71e:	b003      	add	sp, #12
 800d720:	f85d fb04 	ldr.w	pc, [sp], #4
 800d724:	eddd 0a01 	vldr	s1, [sp, #4]
 800d728:	ed9d 0a00 	vldr	s0, [sp]
 800d72c:	f000 fd06 	bl	800e13c <__kernel_cosf>
 800d730:	e7da      	b.n	800d6e8 <sinf+0x1c>
 800d732:	eddd 0a01 	vldr	s1, [sp, #4]
 800d736:	ed9d 0a00 	vldr	s0, [sp]
 800d73a:	2001      	movs	r0, #1
 800d73c:	f001 f8b6 	bl	800e8ac <__kernel_sinf>
 800d740:	e7d2      	b.n	800d6e8 <sinf+0x1c>
 800d742:	eddd 0a01 	vldr	s1, [sp, #4]
 800d746:	ed9d 0a00 	vldr	s0, [sp]
 800d74a:	2001      	movs	r0, #1
 800d74c:	f001 f8ae 	bl	800e8ac <__kernel_sinf>
 800d750:	eeb1 0a40 	vneg.f32	s0, s0
 800d754:	e7c8      	b.n	800d6e8 <sinf+0x1c>
 800d756:	bf00      	nop
 800d758:	3f490fd8 	.word	0x3f490fd8
 800d75c:	00000000 	.word	0x00000000

0800d760 <powf>:
powf():
 800d760:	b508      	push	{r3, lr}
 800d762:	ed2d 8b04 	vpush	{d8-d9}
 800d766:	eef0 8a40 	vmov.f32	s17, s0
 800d76a:	eeb0 8a60 	vmov.f32	s16, s1
 800d76e:	f000 f897 	bl	800d8a0 <__ieee754_powf>
 800d772:	4b47      	ldr	r3, [pc, #284]	; (800d890 <powf+0x130>)
 800d774:	f993 3000 	ldrsb.w	r3, [r3]
 800d778:	3301      	adds	r3, #1
 800d77a:	eeb0 9a40 	vmov.f32	s18, s0
 800d77e:	d01f      	beq.n	800d7c0 <powf+0x60>
 800d780:	eeb4 8a48 	vcmp.f32	s16, s16
 800d784:	eef1 fa10 	vmrs	APSR_nzcv, fpscr
 800d788:	d61a      	bvs.n	800d7c0 <powf+0x60>
 800d78a:	eef4 8a68 	vcmp.f32	s17, s17
 800d78e:	eef1 fa10 	vmrs	APSR_nzcv, fpscr
 800d792:	d659      	bvs.n	800d848 <powf+0xe8>
 800d794:	eddf 9a3f 	vldr	s19, [pc, #252]	; 800d894 <powf+0x134>
 800d798:	eef4 8a69 	vcmp.f32	s17, s19
 800d79c:	eef1 fa10 	vmrs	APSR_nzcv, fpscr
 800d7a0:	d113      	bne.n	800d7ca <powf+0x6a>
 800d7a2:	eeb4 8a69 	vcmp.f32	s16, s19
 800d7a6:	eef1 fa10 	vmrs	APSR_nzcv, fpscr
 800d7aa:	d029      	beq.n	800d800 <powf+0xa0>
 800d7ac:	eeb0 0a48 	vmov.f32	s0, s16
 800d7b0:	f001 f8cc 	bl	800e94c <finitef>
 800d7b4:	b120      	cbz	r0, 800d7c0 <powf+0x60>
 800d7b6:	eeb4 8ae9 	vcmpe.f32	s16, s19
 800d7ba:	eef1 fa10 	vmrs	APSR_nzcv, fpscr
 800d7be:	d44d      	bmi.n	800d85c <powf+0xfc>
 800d7c0:	eeb0 0a49 	vmov.f32	s0, s18
 800d7c4:	ecbd 8b04 	vpop	{d8-d9}
 800d7c8:	bd08      	pop	{r3, pc}
 800d7ca:	f001 f8bf 	bl	800e94c <finitef>
 800d7ce:	b1f0      	cbz	r0, 800d80e <powf+0xae>
 800d7d0:	eeb5 9a40 	vcmp.f32	s18, #0.0
 800d7d4:	eef1 fa10 	vmrs	APSR_nzcv, fpscr
 800d7d8:	d1f2      	bne.n	800d7c0 <powf+0x60>
 800d7da:	eeb0 0a68 	vmov.f32	s0, s17
 800d7de:	f001 f8b5 	bl	800e94c <finitef>
 800d7e2:	2800      	cmp	r0, #0
 800d7e4:	d0ec      	beq.n	800d7c0 <powf+0x60>
 800d7e6:	eeb0 0a48 	vmov.f32	s0, s16
 800d7ea:	f001 f8af 	bl	800e94c <finitef>
 800d7ee:	2800      	cmp	r0, #0
 800d7f0:	d0e6      	beq.n	800d7c0 <powf+0x60>
 800d7f2:	f001 f931 	bl	800ea58 <__errno>
 800d7f6:	2322      	movs	r3, #34	; 0x22
 800d7f8:	ed9f 9a26 	vldr	s18, [pc, #152]	; 800d894 <powf+0x134>
 800d7fc:	6003      	str	r3, [r0, #0]
 800d7fe:	e7df      	b.n	800d7c0 <powf+0x60>
 800d800:	eeb7 9a00 	vmov.f32	s18, #112	; 0x3f800000  1.0
 800d804:	eeb0 0a49 	vmov.f32	s0, s18
 800d808:	ecbd 8b04 	vpop	{d8-d9}
 800d80c:	bd08      	pop	{r3, pc}
 800d80e:	eeb0 0a68 	vmov.f32	s0, s17
 800d812:	f001 f89b 	bl	800e94c <finitef>
 800d816:	2800      	cmp	r0, #0
 800d818:	d0da      	beq.n	800d7d0 <powf+0x70>
 800d81a:	eeb0 0a48 	vmov.f32	s0, s16
 800d81e:	f001 f895 	bl	800e94c <finitef>
 800d822:	2800      	cmp	r0, #0
 800d824:	d0d4      	beq.n	800d7d0 <powf+0x70>
 800d826:	eeb4 9a49 	vcmp.f32	s18, s18
 800d82a:	eef1 fa10 	vmrs	APSR_nzcv, fpscr
 800d82e:	d628      	bvs.n	800d882 <powf+0x122>
 800d830:	f001 f912 	bl	800ea58 <__errno>
 800d834:	eef5 8ac0 	vcmpe.f32	s17, #0.0
 800d838:	2322      	movs	r3, #34	; 0x22
 800d83a:	eef1 fa10 	vmrs	APSR_nzcv, fpscr
 800d83e:	6003      	str	r3, [r0, #0]
 800d840:	d413      	bmi.n	800d86a <powf+0x10a>
 800d842:	ed9f 9a15 	vldr	s18, [pc, #84]	; 800d898 <powf+0x138>
 800d846:	e7bb      	b.n	800d7c0 <powf+0x60>
 800d848:	eeb5 8a40 	vcmp.f32	s16, #0.0
 800d84c:	eef1 fa10 	vmrs	APSR_nzcv, fpscr
 800d850:	eef7 7a00 	vmov.f32	s15, #112	; 0x3f800000  1.0
 800d854:	bf08      	it	eq
 800d856:	eeb0 9a67 	vmoveq.f32	s18, s15
 800d85a:	e7b1      	b.n	800d7c0 <powf+0x60>
 800d85c:	f001 f8fc 	bl	800ea58 <__errno>
 800d860:	2321      	movs	r3, #33	; 0x21
 800d862:	ed9f 9a0e 	vldr	s18, [pc, #56]	; 800d89c <powf+0x13c>
 800d866:	6003      	str	r3, [r0, #0]
 800d868:	e7aa      	b.n	800d7c0 <powf+0x60>
 800d86a:	eeb0 0a48 	vmov.f32	s0, s16
 800d86e:	f7ff fecf 	bl	800d610 <rintf>
 800d872:	eeb4 0a48 	vcmp.f32	s0, s16
 800d876:	eef1 fa10 	vmrs	APSR_nzcv, fpscr
 800d87a:	d0e2      	beq.n	800d842 <powf+0xe2>
 800d87c:	ed9f 9a07 	vldr	s18, [pc, #28]	; 800d89c <powf+0x13c>
 800d880:	e79e      	b.n	800d7c0 <powf+0x60>
 800d882:	f001 f8e9 	bl	800ea58 <__errno>
 800d886:	2321      	movs	r3, #33	; 0x21
 800d888:	ee89 9aa9 	vdiv.f32	s18, s19, s19
 800d88c:	6003      	str	r3, [r0, #0]
 800d88e:	e797      	b.n	800d7c0 <powf+0x60>
 800d890:	20000064 	.word	0x20000064
 800d894:	00000000 	.word	0x00000000
 800d898:	7f800000 	.word	0x7f800000
 800d89c:	ff800000 	.word	0xff800000

0800d8a0 <__ieee754_powf>:
__ieee754_powf():
 800d8a0:	e92d 47f0 	stmdb	sp!, {r4, r5, r6, r7, r8, r9, sl, lr}
 800d8a4:	ee10 4a90 	vmov	r4, s1
 800d8a8:	f034 4800 	bics.w	r8, r4, #2147483648	; 0x80000000
 800d8ac:	ed2d 8b02 	vpush	{d8}
 800d8b0:	d015      	beq.n	800d8de <__ieee754_powf+0x3e>
 800d8b2:	ee10 5a10 	vmov	r5, s0
 800d8b6:	f025 4700 	bic.w	r7, r5, #2147483648	; 0x80000000
 800d8ba:	f1b7 4fff 	cmp.w	r7, #2139095040	; 0x7f800000
 800d8be:	ee10 9a10 	vmov	r9, s0
 800d8c2:	dd06      	ble.n	800d8d2 <__ieee754_powf+0x32>
 800d8c4:	ecbd 8b02 	vpop	{d8}
 800d8c8:	48ba      	ldr	r0, [pc, #744]	; (800dbb4 <__ieee754_powf+0x314>)
 800d8ca:	e8bd 47f0 	ldmia.w	sp!, {r4, r5, r6, r7, r8, r9, sl, lr}
 800d8ce:	f001 b84b 	b.w	800e968 <nanf>
 800d8d2:	f1b8 4fff 	cmp.w	r8, #2139095040	; 0x7f800000
 800d8d6:	dd08      	ble.n	800d8ea <__ieee754_powf+0x4a>
 800d8d8:	f1b7 5f7e 	cmp.w	r7, #1065353216	; 0x3f800000
 800d8dc:	d1f2      	bne.n	800d8c4 <__ieee754_powf+0x24>
 800d8de:	eeb7 0a00 	vmov.f32	s0, #112	; 0x3f800000  1.0
 800d8e2:	ecbd 8b02 	vpop	{d8}
 800d8e6:	e8bd 87f0 	ldmia.w	sp!, {r4, r5, r6, r7, r8, r9, sl, pc}
 800d8ea:	2d00      	cmp	r5, #0
 800d8ec:	ee10 6a90 	vmov	r6, s1
 800d8f0:	f2c0 80f6 	blt.w	800dae0 <__ieee754_powf+0x240>
 800d8f4:	f04f 0a00 	mov.w	sl, #0
 800d8f8:	f1b8 4fff 	cmp.w	r8, #2139095040	; 0x7f800000
 800d8fc:	f000 8104 	beq.w	800db08 <__ieee754_powf+0x268>
 800d900:	f1b8 5f7e 	cmp.w	r8, #1065353216	; 0x3f800000
 800d904:	f000 812a 	beq.w	800db5c <__ieee754_powf+0x2bc>
 800d908:	f1b6 4f80 	cmp.w	r6, #1073741824	; 0x40000000
 800d90c:	f000 813f 	beq.w	800db8e <__ieee754_powf+0x2ee>
 800d910:	f1b6 5f7c 	cmp.w	r6, #1056964608	; 0x3f000000
 800d914:	ee00 5a10 	vmov	s0, r5
 800d918:	f040 8103 	bne.w	800db22 <__ieee754_powf+0x282>
 800d91c:	f1b9 0f00 	cmp.w	r9, #0
 800d920:	f280 813a 	bge.w	800db98 <__ieee754_powf+0x2f8>
 800d924:	f001 f80a 	bl	800e93c <fabsf>
 800d928:	f1b7 4fff 	cmp.w	r7, #2139095040	; 0x7f800000
 800d92c:	f000 810b 	beq.w	800db46 <__ieee754_powf+0x2a6>
 800d930:	2f00      	cmp	r7, #0
 800d932:	f000 8104 	beq.w	800db3e <__ieee754_powf+0x29e>
 800d936:	f1b7 5f7e 	cmp.w	r7, #1065353216	; 0x3f800000
 800d93a:	f000 80fa 	beq.w	800db32 <__ieee754_powf+0x292>
 800d93e:	ea4f 72d9 	mov.w	r2, r9, lsr #31
 800d942:	3a01      	subs	r2, #1
 800d944:	ea5a 0302 	orrs.w	r3, sl, r2
 800d948:	f000 812c 	beq.w	800dba4 <__ieee754_powf+0x304>
 800d94c:	f1b8 4f9a 	cmp.w	r8, #1291845632	; 0x4d000000
 800d950:	f340 8152 	ble.w	800dbf8 <__ieee754_powf+0x358>
 800d954:	4b98      	ldr	r3, [pc, #608]	; (800dbb8 <__ieee754_powf+0x318>)
 800d956:	429f      	cmp	r7, r3
 800d958:	f340 825f 	ble.w	800de1a <__ieee754_powf+0x57a>
 800d95c:	4b97      	ldr	r3, [pc, #604]	; (800dbbc <__ieee754_powf+0x31c>)
 800d95e:	429f      	cmp	r7, r3
 800d960:	f300 8101 	bgt.w	800db66 <__ieee754_powf+0x2c6>
 800d964:	eef7 7a00 	vmov.f32	s15, #112	; 0x3f800000  1.0
 800d968:	ee30 0a67 	vsub.f32	s0, s0, s15
 800d96c:	eddf 6a94 	vldr	s13, [pc, #592]	; 800dbc0 <__ieee754_powf+0x320>
 800d970:	eddf 7a94 	vldr	s15, [pc, #592]	; 800dbc4 <__ieee754_powf+0x324>
 800d974:	eddf 5a94 	vldr	s11, [pc, #592]	; 800dbc8 <__ieee754_powf+0x328>
 800d978:	ed9f 6a94 	vldr	s12, [pc, #592]	; 800dbcc <__ieee754_powf+0x32c>
 800d97c:	eeb5 7a00 	vmov.f32	s14, #80	; 0x3e800000  0.250
 800d980:	eee0 6a47 	vfms.f32	s13, s0, s14
 800d984:	eeb6 7a00 	vmov.f32	s14, #96	; 0x3f000000  0.5
 800d988:	eea6 7ac0 	vfms.f32	s14, s13, s0
 800d98c:	eef0 6a47 	vmov.f32	s13, s14
 800d990:	ee20 7a00 	vmul.f32	s14, s0, s0
 800d994:	ee27 7a26 	vmul.f32	s14, s14, s13
 800d998:	ee67 7ac7 	vnmul.f32	s15, s15, s14
 800d99c:	eee0 7a25 	vfma.f32	s15, s0, s11
 800d9a0:	eef0 6a67 	vmov.f32	s13, s15
 800d9a4:	eee0 6a06 	vfma.f32	s13, s0, s12
 800d9a8:	ee16 3a90 	vmov	r3, s13
 800d9ac:	f423 637f 	bic.w	r3, r3, #4080	; 0xff0
 800d9b0:	f023 030f 	bic.w	r3, r3, #15
 800d9b4:	ee07 3a10 	vmov	s14, r3
 800d9b8:	eea0 7a46 	vfms.f32	s14, s0, s12
 800d9bc:	ee06 3a90 	vmov	s13, r3
 800d9c0:	ee77 7ac7 	vsub.f32	s15, s15, s14
 800d9c4:	f426 667f 	bic.w	r6, r6, #4080	; 0xff0
 800d9c8:	f026 060f 	bic.w	r6, r6, #15
 800d9cc:	ee07 4a10 	vmov	s14, r4
 800d9d0:	ee06 6a10 	vmov	s12, r6
 800d9d4:	ee67 7a87 	vmul.f32	s15, s15, s14
 800d9d8:	ee37 6a46 	vsub.f32	s12, s14, s12
 800d9dc:	ee07 6a10 	vmov	s14, r6
 800d9e0:	eee6 7a26 	vfma.f32	s15, s12, s13
 800d9e4:	f10a 3aff 	add.w	sl, sl, #4294967295	; 0xffffffff
 800d9e8:	ea5a 0302 	orrs.w	r3, sl, r2
 800d9ec:	ee26 7a87 	vmul.f32	s14, s13, s14
 800d9f0:	eeb7 0a00 	vmov.f32	s0, #112	; 0x3f800000  1.0
 800d9f4:	ee77 6a87 	vadd.f32	s13, s15, s14
 800d9f8:	eebf 6a00 	vmov.f32	s12, #240	; 0xbf800000 -1.0
 800d9fc:	ee16 3a90 	vmov	r3, s13
 800da00:	bf0c      	ite	eq
 800da02:	eeb0 8a46 	vmoveq.f32	s16, s12
 800da06:	eeb0 8a40 	vmovne.f32	s16, s0
 800da0a:	2b00      	cmp	r3, #0
 800da0c:	f023 4200 	bic.w	r2, r3, #2147483648	; 0x80000000
 800da10:	f340 81b9 	ble.w	800dd86 <__ieee754_powf+0x4e6>
 800da14:	f1b2 4f86 	cmp.w	r2, #1124073472	; 0x43000000
 800da18:	f300 81f8 	bgt.w	800de0c <__ieee754_powf+0x56c>
 800da1c:	f000 81eb 	beq.w	800ddf6 <__ieee754_powf+0x556>
 800da20:	f1b2 5f7c 	cmp.w	r2, #1056964608	; 0x3f000000
 800da24:	f300 81bb 	bgt.w	800dd9e <__ieee754_powf+0x4fe>
 800da28:	2200      	movs	r2, #0
 800da2a:	4610      	mov	r0, r2
 800da2c:	f423 637f 	bic.w	r3, r3, #4080	; 0xff0
 800da30:	f023 030f 	bic.w	r3, r3, #15
 800da34:	ee06 3a10 	vmov	s12, r3
 800da38:	eddf 6a65 	vldr	s13, [pc, #404]	; 800dbd0 <__ieee754_powf+0x330>
 800da3c:	eddf 5a65 	vldr	s11, [pc, #404]	; 800dbd4 <__ieee754_powf+0x334>
 800da40:	ed9f 3a65 	vldr	s6, [pc, #404]	; 800dbd8 <__ieee754_powf+0x338>
 800da44:	eddf 3a65 	vldr	s7, [pc, #404]	; 800dbdc <__ieee754_powf+0x33c>
 800da48:	ed9f 2a65 	vldr	s4, [pc, #404]	; 800dbe0 <__ieee754_powf+0x340>
 800da4c:	ed9f 4a65 	vldr	s8, [pc, #404]	; 800dbe4 <__ieee754_powf+0x344>
 800da50:	eddf 4a65 	vldr	s9, [pc, #404]	; 800dbe8 <__ieee754_powf+0x348>
 800da54:	ed9f 5a65 	vldr	s10, [pc, #404]	; 800dbec <__ieee754_powf+0x34c>
 800da58:	ee36 7a47 	vsub.f32	s14, s12, s14
 800da5c:	eef0 2a00 	vmov.f32	s5, #0	; 0x40000000  2.0
 800da60:	ee77 7ac7 	vsub.f32	s15, s15, s14
 800da64:	ee26 7a26 	vmul.f32	s14, s12, s13
 800da68:	eea7 7aa5 	vfma.f32	s14, s15, s11
 800da6c:	eef7 5a00 	vmov.f32	s11, #112	; 0x3f800000  1.0
 800da70:	eef0 7a47 	vmov.f32	s15, s14
 800da74:	eea6 7a03 	vfma.f32	s14, s12, s6
 800da78:	ee67 6a07 	vmul.f32	s13, s14, s14
 800da7c:	eef0 1a47 	vmov.f32	s3, s14
 800da80:	eee6 1a43 	vfms.f32	s3, s12, s6
 800da84:	eeb0 6a63 	vmov.f32	s12, s7
 800da88:	eea6 6a82 	vfma.f32	s12, s13, s4
 800da8c:	ee77 7ae1 	vsub.f32	s15, s15, s3
 800da90:	eea6 4a26 	vfma.f32	s8, s12, s13
 800da94:	eee7 7a27 	vfma.f32	s15, s14, s15
 800da98:	eee4 4a26 	vfma.f32	s9, s8, s13
 800da9c:	eea4 5aa6 	vfma.f32	s10, s9, s13
 800daa0:	eeb0 6a45 	vmov.f32	s12, s10
 800daa4:	eeb0 5a47 	vmov.f32	s10, s14
 800daa8:	eea6 5a66 	vfms.f32	s10, s12, s13
 800daac:	eef0 6a45 	vmov.f32	s13, s10
 800dab0:	ee36 6ae2 	vsub.f32	s12, s13, s5
 800dab4:	ee27 5a05 	vmul.f32	s10, s14, s10
 800dab8:	eec5 6a06 	vdiv.f32	s13, s10, s12
 800dabc:	ee76 7ae7 	vsub.f32	s15, s13, s15
 800dac0:	ee37 7ac7 	vsub.f32	s14, s15, s14
 800dac4:	ee35 0ac7 	vsub.f32	s0, s11, s14
 800dac8:	ee10 3a10 	vmov	r3, s0
 800dacc:	4413      	add	r3, r2
 800dace:	f5b3 0f00 	cmp.w	r3, #8388608	; 0x800000
 800dad2:	f2c0 81ba 	blt.w	800de4a <__ieee754_powf+0x5aa>
 800dad6:	ee00 3a10 	vmov	s0, r3
 800dada:	ee20 0a08 	vmul.f32	s0, s0, s16
 800dade:	e700      	b.n	800d8e2 <__ieee754_powf+0x42>
 800dae0:	f1b8 4f97 	cmp.w	r8, #1266679808	; 0x4b800000
 800dae4:	da1a      	bge.n	800db1c <__ieee754_powf+0x27c>
 800dae6:	f1b8 5f7e 	cmp.w	r8, #1065353216	; 0x3f800000
 800daea:	db0a      	blt.n	800db02 <__ieee754_powf+0x262>
 800daec:	ea4f 53e8 	mov.w	r3, r8, asr #23
 800daf0:	f1c3 0396 	rsb	r3, r3, #150	; 0x96
 800daf4:	fa48 f203 	asr.w	r2, r8, r3
 800daf8:	fa02 f303 	lsl.w	r3, r2, r3
 800dafc:	4543      	cmp	r3, r8
 800dafe:	f000 813d 	beq.w	800dd7c <__ieee754_powf+0x4dc>
 800db02:	f04f 0a00 	mov.w	sl, #0
 800db06:	e6fb      	b.n	800d900 <__ieee754_powf+0x60>
 800db08:	f1b7 5f7e 	cmp.w	r7, #1065353216	; 0x3f800000
 800db0c:	f43f aee7 	beq.w	800d8de <__ieee754_powf+0x3e>
 800db10:	dd2f      	ble.n	800db72 <__ieee754_powf+0x2d2>
 800db12:	2e00      	cmp	r6, #0
 800db14:	db2a      	blt.n	800db6c <__ieee754_powf+0x2cc>
 800db16:	ee00 4a10 	vmov	s0, r4
 800db1a:	e6e2      	b.n	800d8e2 <__ieee754_powf+0x42>
 800db1c:	f04f 0a02 	mov.w	sl, #2
 800db20:	e6ea      	b.n	800d8f8 <__ieee754_powf+0x58>
 800db22:	f000 ff0b 	bl	800e93c <fabsf>
 800db26:	f1b7 4fff 	cmp.w	r7, #2139095040	; 0x7f800000
 800db2a:	d002      	beq.n	800db32 <__ieee754_powf+0x292>
 800db2c:	2f00      	cmp	r7, #0
 800db2e:	f47f af02 	bne.w	800d936 <__ieee754_powf+0x96>
 800db32:	2e00      	cmp	r6, #0
 800db34:	bfbc      	itt	lt
 800db36:	eef7 7a00 	vmovlt.f32	s15, #112	; 0x3f800000  1.0
 800db3a:	ee87 0a80 	vdivlt.f32	s0, s15, s0
 800db3e:	f1b9 0f00 	cmp.w	r9, #0
 800db42:	f6bf aece 	bge.w	800d8e2 <__ieee754_powf+0x42>
 800db46:	f1a7 577e 	sub.w	r7, r7, #1065353216	; 0x3f800000
 800db4a:	ea57 030a 	orrs.w	r3, r7, sl
 800db4e:	f040 810e 	bne.w	800dd6e <__ieee754_powf+0x4ce>
 800db52:	ee70 7a40 	vsub.f32	s15, s0, s0
 800db56:	ee87 0aa7 	vdiv.f32	s0, s15, s15
 800db5a:	e6c2      	b.n	800d8e2 <__ieee754_powf+0x42>
 800db5c:	2e00      	cmp	r6, #0
 800db5e:	db0f      	blt.n	800db80 <__ieee754_powf+0x2e0>
 800db60:	ee00 5a10 	vmov	s0, r5
 800db64:	e6bd      	b.n	800d8e2 <__ieee754_powf+0x42>
 800db66:	2e00      	cmp	r6, #0
 800db68:	f300 815a 	bgt.w	800de20 <__ieee754_powf+0x580>
 800db6c:	ed9f 0a20 	vldr	s0, [pc, #128]	; 800dbf0 <__ieee754_powf+0x350>
 800db70:	e6b7      	b.n	800d8e2 <__ieee754_powf+0x42>
 800db72:	2e00      	cmp	r6, #0
 800db74:	dafa      	bge.n	800db6c <__ieee754_powf+0x2cc>
 800db76:	ee07 4a90 	vmov	s15, r4
 800db7a:	eeb1 0a67 	vneg.f32	s0, s15
 800db7e:	e6b0      	b.n	800d8e2 <__ieee754_powf+0x42>
 800db80:	ee07 5a10 	vmov	s14, r5
 800db84:	eef7 7a00 	vmov.f32	s15, #112	; 0x3f800000  1.0
 800db88:	ee87 0a87 	vdiv.f32	s0, s15, s14
 800db8c:	e6a9      	b.n	800d8e2 <__ieee754_powf+0x42>
 800db8e:	ee07 5a90 	vmov	s15, r5
 800db92:	ee27 0aa7 	vmul.f32	s0, s15, s15
 800db96:	e6a4      	b.n	800d8e2 <__ieee754_powf+0x42>
 800db98:	ecbd 8b02 	vpop	{d8}
 800db9c:	e8bd 47f0 	ldmia.w	sp!, {r4, r5, r6, r7, r8, r9, sl, lr}
 800dba0:	f000 bac8 	b.w	800e134 <__ieee754_sqrtf>
 800dba4:	ee07 5a90 	vmov	s15, r5
 800dba8:	ee77 7ae7 	vsub.f32	s15, s15, s15
 800dbac:	ee87 0aa7 	vdiv.f32	s0, s15, s15
 800dbb0:	e697      	b.n	800d8e2 <__ieee754_powf+0x42>
 800dbb2:	bf00      	nop
 800dbb4:	0800f528 	.word	0x0800f528
 800dbb8:	3f7ffff7 	.word	0x3f7ffff7
 800dbbc:	3f800007 	.word	0x3f800007
 800dbc0:	3eaaaaab 	.word	0x3eaaaaab
 800dbc4:	3fb8aa3b 	.word	0x3fb8aa3b
 800dbc8:	36eca570 	.word	0x36eca570
 800dbcc:	3fb8aa00 	.word	0x3fb8aa00
 800dbd0:	35bfbe8c 	.word	0x35bfbe8c
 800dbd4:	3f317218 	.word	0x3f317218
 800dbd8:	3f317200 	.word	0x3f317200
 800dbdc:	b5ddea0e 	.word	0xb5ddea0e
 800dbe0:	3331bb4c 	.word	0x3331bb4c
 800dbe4:	388ab355 	.word	0x388ab355
 800dbe8:	bb360b61 	.word	0xbb360b61
 800dbec:	3e2aaaab 	.word	0x3e2aaaab
 800dbf0:	00000000 	.word	0x00000000
 800dbf4:	4b800000 	.word	0x4b800000
 800dbf8:	f019 4fff 	tst.w	r9, #2139095040	; 0x7f800000
 800dbfc:	f040 80f9 	bne.w	800ddf2 <__ieee754_powf+0x552>
 800dc00:	ed5f 7a04 	vldr	s15, [pc, #-16]	; 800dbf4 <__ieee754_powf+0x354>
 800dc04:	ee60 7a27 	vmul.f32	s15, s0, s15
 800dc08:	f06f 0117 	mvn.w	r1, #23
 800dc0c:	ee17 7a90 	vmov	r7, s15
 800dc10:	488f      	ldr	r0, [pc, #572]	; (800de50 <__ieee754_powf+0x5b0>)
 800dc12:	15fb      	asrs	r3, r7, #23
 800dc14:	f3c7 0716 	ubfx	r7, r7, #0, #23
 800dc18:	3b7f      	subs	r3, #127	; 0x7f
 800dc1a:	4287      	cmp	r7, r0
 800dc1c:	440b      	add	r3, r1
 800dc1e:	f047 517e 	orr.w	r1, r7, #1065353216	; 0x3f800000
 800dc22:	f340 80de 	ble.w	800dde2 <__ieee754_powf+0x542>
 800dc26:	488b      	ldr	r0, [pc, #556]	; (800de54 <__ieee754_powf+0x5b4>)
 800dc28:	4287      	cmp	r7, r0
 800dc2a:	f340 80fe 	ble.w	800de2a <__ieee754_powf+0x58a>
 800dc2e:	eddf 4a8a 	vldr	s9, [pc, #552]	; 800de58 <__ieee754_powf+0x5b8>
 800dc32:	3301      	adds	r3, #1
 800dc34:	f5a1 0100 	sub.w	r1, r1, #8388608	; 0x800000
 800dc38:	eef0 3a64 	vmov.f32	s7, s9
 800dc3c:	2000      	movs	r0, #0
 800dc3e:	eeb7 6a00 	vmov.f32	s12, #112	; 0x3f800000  1.0
 800dc42:	ee06 1a90 	vmov	s13, r1
 800dc46:	ee76 7a86 	vadd.f32	s15, s13, s12
 800dc4a:	eeb7 7a00 	vmov.f32	s14, #112	; 0x3f800000  1.0
 800dc4e:	ee87 8a27 	vdiv.f32	s16, s14, s15
 800dc52:	1049      	asrs	r1, r1, #1
 800dc54:	f041 5100 	orr.w	r1, r1, #536870912	; 0x20000000
 800dc58:	f501 2180 	add.w	r1, r1, #262144	; 0x40000
 800dc5c:	4401      	add	r1, r0
 800dc5e:	ee36 7ac6 	vsub.f32	s14, s13, s12
 800dc62:	ee07 1a90 	vmov	s15, r1
 800dc66:	ee27 2a08 	vmul.f32	s4, s14, s16
 800dc6a:	ee77 5ac6 	vsub.f32	s11, s15, s12
 800dc6e:	ed9f 4a7b 	vldr	s8, [pc, #492]	; 800de5c <__ieee754_powf+0x5bc>
 800dc72:	497b      	ldr	r1, [pc, #492]	; (800de60 <__ieee754_powf+0x5c0>)
 800dc74:	eddf 8a7b 	vldr	s17, [pc, #492]	; 800de64 <__ieee754_powf+0x5c4>
 800dc78:	ed9f 0a7b 	vldr	s0, [pc, #492]	; 800de68 <__ieee754_powf+0x5c8>
 800dc7c:	eddf 0a7b 	vldr	s1, [pc, #492]	; 800de6c <__ieee754_powf+0x5cc>
 800dc80:	ed9f 1a7b 	vldr	s2, [pc, #492]	; 800de70 <__ieee754_powf+0x5d0>
 800dc84:	eddf 1a7b 	vldr	s3, [pc, #492]	; 800de74 <__ieee754_powf+0x5d4>
 800dc88:	eddf 2a7b 	vldr	s5, [pc, #492]	; 800de78 <__ieee754_powf+0x5d8>
 800dc8c:	ed9f 3a7b 	vldr	s6, [pc, #492]	; 800de7c <__ieee754_powf+0x5dc>
 800dc90:	ed9f 5a7b 	vldr	s10, [pc, #492]	; 800de80 <__ieee754_powf+0x5e0>
 800dc94:	ee22 6a02 	vmul.f32	s12, s4, s4
 800dc98:	ee12 0a10 	vmov	r0, s4
 800dc9c:	ee76 6ae5 	vsub.f32	s13, s13, s11
 800dca0:	eef0 5a44 	vmov.f32	s11, s8
 800dca4:	eee6 5a28 	vfma.f32	s11, s12, s17
 800dca8:	4008      	ands	r0, r1
 800dcaa:	ee04 0a10 	vmov	s8, r0
 800dcae:	eea4 7a67 	vfms.f32	s14, s8, s15
 800dcb2:	eef0 7a40 	vmov.f32	s15, s0
 800dcb6:	eee5 7a86 	vfma.f32	s15, s11, s12
 800dcba:	eea4 7a66 	vfms.f32	s14, s8, s13
 800dcbe:	eee7 0a86 	vfma.f32	s1, s15, s12
 800dcc2:	ee67 6a08 	vmul.f32	s13, s14, s16
 800dcc6:	eeb0 7a41 	vmov.f32	s14, s2
 800dcca:	eea0 7a86 	vfma.f32	s14, s1, s12
 800dcce:	ee72 7a04 	vadd.f32	s15, s4, s8
 800dcd2:	eee7 1a06 	vfma.f32	s3, s14, s12
 800dcd6:	ee67 7aa6 	vmul.f32	s15, s15, s13
 800dcda:	ee26 6a06 	vmul.f32	s12, s12, s12
 800dcde:	eef0 5a08 	vmov.f32	s11, #8	; 0x40400000  3.0
 800dce2:	eee6 7a21 	vfma.f32	s15, s12, s3
 800dce6:	eeb0 6a65 	vmov.f32	s12, s11
 800dcea:	eea4 6a04 	vfma.f32	s12, s8, s8
 800dcee:	ee07 3a10 	vmov	s14, r3
 800dcf2:	ee36 6a27 	vadd.f32	s12, s12, s15
 800dcf6:	eeb8 7ac7 	vcvt.f32.s32	s14, s14
 800dcfa:	ee16 3a10 	vmov	r3, s12
 800dcfe:	400b      	ands	r3, r1
 800dd00:	ee06 3a10 	vmov	s12, r3
 800dd04:	ee76 5a65 	vsub.f32	s11, s12, s11
 800dd08:	eee4 5a44 	vfms.f32	s11, s8, s8
 800dd0c:	ee77 7ae5 	vsub.f32	s15, s15, s11
 800dd10:	ee67 7a82 	vmul.f32	s15, s15, s4
 800dd14:	eee6 7a86 	vfma.f32	s15, s13, s12
 800dd18:	eef0 5a67 	vmov.f32	s11, s15
 800dd1c:	eee4 5a06 	vfma.f32	s11, s8, s12
 800dd20:	ee15 3a90 	vmov	r3, s11
 800dd24:	400b      	ands	r3, r1
 800dd26:	ee06 3a90 	vmov	s13, r3
 800dd2a:	eee4 6a46 	vfms.f32	s13, s8, s12
 800dd2e:	ee05 3a90 	vmov	s11, r3
 800dd32:	ee77 7ae6 	vsub.f32	s15, s15, s13
 800dd36:	ee67 7aa2 	vmul.f32	s15, s15, s5
 800dd3a:	eee5 7a83 	vfma.f32	s15, s11, s6
 800dd3e:	ee77 7aa3 	vadd.f32	s15, s15, s7
 800dd42:	eef0 6a67 	vmov.f32	s13, s15
 800dd46:	eee5 6a85 	vfma.f32	s13, s11, s10
 800dd4a:	ee76 6aa4 	vadd.f32	s13, s13, s9
 800dd4e:	ee76 6a87 	vadd.f32	s13, s13, s14
 800dd52:	ee16 3a90 	vmov	r3, s13
 800dd56:	400b      	ands	r3, r1
 800dd58:	ee06 3a90 	vmov	s13, r3
 800dd5c:	ee36 7ac7 	vsub.f32	s14, s13, s14
 800dd60:	ee37 7a64 	vsub.f32	s14, s14, s9
 800dd64:	eea5 7ac5 	vfms.f32	s14, s11, s10
 800dd68:	ee77 7ac7 	vsub.f32	s15, s15, s14
 800dd6c:	e62a      	b.n	800d9c4 <__ieee754_powf+0x124>
 800dd6e:	f1ba 0f01 	cmp.w	sl, #1
 800dd72:	f47f adb6 	bne.w	800d8e2 <__ieee754_powf+0x42>
 800dd76:	eeb1 0a40 	vneg.f32	s0, s0
 800dd7a:	e5b2      	b.n	800d8e2 <__ieee754_powf+0x42>
 800dd7c:	f002 0201 	and.w	r2, r2, #1
 800dd80:	f1c2 0a02 	rsb	sl, r2, #2
 800dd84:	e5bc      	b.n	800d900 <__ieee754_powf+0x60>
 800dd86:	493f      	ldr	r1, [pc, #252]	; (800de84 <__ieee754_powf+0x5e4>)
 800dd88:	428a      	cmp	r2, r1
 800dd8a:	dc57      	bgt.n	800de3c <__ieee754_powf+0x59c>
 800dd8c:	f47f ae48 	bne.w	800da20 <__ieee754_powf+0x180>
 800dd90:	ee76 6ac7 	vsub.f32	s13, s13, s14
 800dd94:	eef4 6ae7 	vcmpe.f32	s13, s15
 800dd98:	eef1 fa10 	vmrs	APSR_nzcv, fpscr
 800dd9c:	da4e      	bge.n	800de3c <__ieee754_powf+0x59c>
 800dd9e:	15d2      	asrs	r2, r2, #23
 800dda0:	f44f 0100 	mov.w	r1, #8388608	; 0x800000
 800dda4:	3a7e      	subs	r2, #126	; 0x7e
 800dda6:	fa41 f202 	asr.w	r2, r1, r2
 800ddaa:	441a      	add	r2, r3
 800ddac:	f3c2 51c7 	ubfx	r1, r2, #23, #8
 800ddb0:	4c35      	ldr	r4, [pc, #212]	; (800de88 <__ieee754_powf+0x5e8>)
 800ddb2:	397f      	subs	r1, #127	; 0x7f
 800ddb4:	410c      	asrs	r4, r1
 800ddb6:	f3c2 0016 	ubfx	r0, r2, #0, #23
 800ddba:	ea22 0204 	bic.w	r2, r2, r4
 800ddbe:	ee06 2a90 	vmov	s13, r2
 800ddc2:	ee37 7a66 	vsub.f32	s14, s14, s13
 800ddc6:	f1c1 0117 	rsb	r1, r1, #23
 800ddca:	f440 0000 	orr.w	r0, r0, #8388608	; 0x800000
 800ddce:	4108      	asrs	r0, r1
 800ddd0:	2b00      	cmp	r3, #0
 800ddd2:	ee77 6a87 	vadd.f32	s13, s15, s14
 800ddd6:	bfb8      	it	lt
 800ddd8:	4240      	neglt	r0, r0
 800ddda:	ee16 3a90 	vmov	r3, s13
 800ddde:	05c2      	lsls	r2, r0, #23
 800dde0:	e624      	b.n	800da2c <__ieee754_powf+0x18c>
 800dde2:	eddf 4a1d 	vldr	s9, [pc, #116]	; 800de58 <__ieee754_powf+0x5b8>
 800dde6:	2000      	movs	r0, #0
 800dde8:	eef0 3a64 	vmov.f32	s7, s9
 800ddec:	eeb7 6a00 	vmov.f32	s12, #112	; 0x3f800000  1.0
 800ddf0:	e727      	b.n	800dc42 <__ieee754_powf+0x3a2>
 800ddf2:	2100      	movs	r1, #0
 800ddf4:	e70c      	b.n	800dc10 <__ieee754_powf+0x370>
 800ddf6:	ed9f 6a25 	vldr	s12, [pc, #148]	; 800de8c <__ieee754_powf+0x5ec>
 800ddfa:	ee76 6ac7 	vsub.f32	s13, s13, s14
 800ddfe:	ee37 6a86 	vadd.f32	s12, s15, s12
 800de02:	eeb4 6ae6 	vcmpe.f32	s12, s13
 800de06:	eef1 fa10 	vmrs	APSR_nzcv, fpscr
 800de0a:	ddc8      	ble.n	800dd9e <__ieee754_powf+0x4fe>
 800de0c:	eddf 7a20 	vldr	s15, [pc, #128]	; 800de90 <__ieee754_powf+0x5f0>
 800de10:	ee28 0a27 	vmul.f32	s0, s16, s15
 800de14:	ee20 0a27 	vmul.f32	s0, s0, s15
 800de18:	e563      	b.n	800d8e2 <__ieee754_powf+0x42>
 800de1a:	2e00      	cmp	r6, #0
 800de1c:	f6bf aea6 	bge.w	800db6c <__ieee754_powf+0x2cc>
 800de20:	ed9f 0a1b 	vldr	s0, [pc, #108]	; 800de90 <__ieee754_powf+0x5f0>
 800de24:	ee20 0a00 	vmul.f32	s0, s0, s0
 800de28:	e55b      	b.n	800d8e2 <__ieee754_powf+0x42>
 800de2a:	eddf 4a1a 	vldr	s9, [pc, #104]	; 800de94 <__ieee754_powf+0x5f4>
 800de2e:	eddf 3a1a 	vldr	s7, [pc, #104]	; 800de98 <__ieee754_powf+0x5f8>
 800de32:	f44f 1000 	mov.w	r0, #2097152	; 0x200000
 800de36:	eeb7 6a08 	vmov.f32	s12, #120	; 0x3fc00000  1.5
 800de3a:	e702      	b.n	800dc42 <__ieee754_powf+0x3a2>
 800de3c:	eddf 7a17 	vldr	s15, [pc, #92]	; 800de9c <__ieee754_powf+0x5fc>
 800de40:	ee28 0a27 	vmul.f32	s0, s16, s15
 800de44:	ee20 0a27 	vmul.f32	s0, s0, s15
 800de48:	e54b      	b.n	800d8e2 <__ieee754_powf+0x42>
 800de4a:	f000 fd93 	bl	800e974 <scalbnf>
 800de4e:	e644      	b.n	800dada <__ieee754_powf+0x23a>
 800de50:	001cc471 	.word	0x001cc471
 800de54:	005db3d6 	.word	0x005db3d6
 800de58:	00000000 	.word	0x00000000
 800de5c:	3e6c3255 	.word	0x3e6c3255
 800de60:	fffff000 	.word	0xfffff000
 800de64:	3e53f142 	.word	0x3e53f142
 800de68:	3e8ba305 	.word	0x3e8ba305
 800de6c:	3eaaaaab 	.word	0x3eaaaaab
 800de70:	3edb6db7 	.word	0x3edb6db7
 800de74:	3f19999a 	.word	0x3f19999a
 800de78:	3f76384f 	.word	0x3f76384f
 800de7c:	369dc3a0 	.word	0x369dc3a0
 800de80:	3f763800 	.word	0x3f763800
 800de84:	43160000 	.word	0x43160000
 800de88:	007fffff 	.word	0x007fffff
 800de8c:	3338aa3c 	.word	0x3338aa3c
 800de90:	7149f2ca 	.word	0x7149f2ca
 800de94:	3f15c000 	.word	0x3f15c000
 800de98:	35d1cfdc 	.word	0x35d1cfdc
 800de9c:	0da24260 	.word	0x0da24260

0800dea0 <__ieee754_rem_pio2f>:
__ieee754_rem_pio2f():
 800dea0:	b570      	push	{r4, r5, r6, lr}
 800dea2:	ee10 3a10 	vmov	r3, s0
 800dea6:	4a95      	ldr	r2, [pc, #596]	; (800e0fc <__ieee754_rem_pio2f+0x25c>)
 800dea8:	f023 4400 	bic.w	r4, r3, #2147483648	; 0x80000000
 800deac:	4294      	cmp	r4, r2
 800deae:	b086      	sub	sp, #24
 800deb0:	4605      	mov	r5, r0
 800deb2:	dd68      	ble.n	800df86 <__ieee754_rem_pio2f+0xe6>
 800deb4:	4a92      	ldr	r2, [pc, #584]	; (800e100 <__ieee754_rem_pio2f+0x260>)
 800deb6:	4294      	cmp	r4, r2
 800deb8:	ee10 6a10 	vmov	r6, s0
 800debc:	dc1a      	bgt.n	800def4 <__ieee754_rem_pio2f+0x54>
 800debe:	2b00      	cmp	r3, #0
 800dec0:	eddf 7a90 	vldr	s15, [pc, #576]	; 800e104 <__ieee754_rem_pio2f+0x264>
 800dec4:	4a90      	ldr	r2, [pc, #576]	; (800e108 <__ieee754_rem_pio2f+0x268>)
 800dec6:	f024 040f 	bic.w	r4, r4, #15
 800deca:	f340 80f1 	ble.w	800e0b0 <__ieee754_rem_pio2f+0x210>
 800dece:	4294      	cmp	r4, r2
 800ded0:	ee70 7a67 	vsub.f32	s15, s0, s15
 800ded4:	d066      	beq.n	800dfa4 <__ieee754_rem_pio2f+0x104>
 800ded6:	ed9f 7a8d 	vldr	s14, [pc, #564]	; 800e10c <__ieee754_rem_pio2f+0x26c>
 800deda:	ee77 6ac7 	vsub.f32	s13, s15, s14
 800dede:	2001      	movs	r0, #1
 800dee0:	ee77 7ae6 	vsub.f32	s15, s15, s13
 800dee4:	edc5 6a00 	vstr	s13, [r5]
 800dee8:	ee77 7ac7 	vsub.f32	s15, s15, s14
 800deec:	edc5 7a01 	vstr	s15, [r5, #4]
 800def0:	b006      	add	sp, #24
 800def2:	bd70      	pop	{r4, r5, r6, pc}
 800def4:	4a86      	ldr	r2, [pc, #536]	; (800e110 <__ieee754_rem_pio2f+0x270>)
 800def6:	4294      	cmp	r4, r2
 800def8:	dd67      	ble.n	800dfca <__ieee754_rem_pio2f+0x12a>
 800defa:	f1b4 4fff 	cmp.w	r4, #2139095040	; 0x7f800000
 800defe:	da49      	bge.n	800df94 <__ieee754_rem_pio2f+0xf4>
 800df00:	15e2      	asrs	r2, r4, #23
 800df02:	3a86      	subs	r2, #134	; 0x86
 800df04:	eba4 53c2 	sub.w	r3, r4, r2, lsl #23
 800df08:	ee07 3a90 	vmov	s15, r3
 800df0c:	eebd 7ae7 	vcvt.s32.f32	s14, s15
 800df10:	eddf 6a80 	vldr	s13, [pc, #512]	; 800e114 <__ieee754_rem_pio2f+0x274>
 800df14:	eeb8 7ac7 	vcvt.f32.s32	s14, s14
 800df18:	ee77 7ac7 	vsub.f32	s15, s15, s14
 800df1c:	ed8d 7a03 	vstr	s14, [sp, #12]
 800df20:	ee67 7aa6 	vmul.f32	s15, s15, s13
 800df24:	eebd 7ae7 	vcvt.s32.f32	s14, s15
 800df28:	eeb8 7ac7 	vcvt.f32.s32	s14, s14
 800df2c:	ee77 7ac7 	vsub.f32	s15, s15, s14
 800df30:	ed8d 7a04 	vstr	s14, [sp, #16]
 800df34:	ee67 7aa6 	vmul.f32	s15, s15, s13
 800df38:	eef5 7a40 	vcmp.f32	s15, #0.0
 800df3c:	eef1 fa10 	vmrs	APSR_nzcv, fpscr
 800df40:	edcd 7a05 	vstr	s15, [sp, #20]
 800df44:	f040 80a3 	bne.w	800e08e <__ieee754_rem_pio2f+0x1ee>
 800df48:	eeb5 7a40 	vcmp.f32	s14, #0.0
 800df4c:	eef1 fa10 	vmrs	APSR_nzcv, fpscr
 800df50:	bf14      	ite	ne
 800df52:	2302      	movne	r3, #2
 800df54:	2301      	moveq	r3, #1
 800df56:	4970      	ldr	r1, [pc, #448]	; (800e118 <__ieee754_rem_pio2f+0x278>)
 800df58:	9101      	str	r1, [sp, #4]
 800df5a:	2102      	movs	r1, #2
 800df5c:	9100      	str	r1, [sp, #0]
 800df5e:	a803      	add	r0, sp, #12
 800df60:	4629      	mov	r1, r5
 800df62:	f000 f96d 	bl	800e240 <__kernel_rem_pio2f>
 800df66:	2e00      	cmp	r6, #0
 800df68:	dac2      	bge.n	800def0 <__ieee754_rem_pio2f+0x50>
 800df6a:	ed95 7a00 	vldr	s14, [r5]
 800df6e:	edd5 7a01 	vldr	s15, [r5, #4]
 800df72:	eeb1 7a47 	vneg.f32	s14, s14
 800df76:	eef1 7a67 	vneg.f32	s15, s15
 800df7a:	4240      	negs	r0, r0
 800df7c:	ed85 7a00 	vstr	s14, [r5]
 800df80:	edc5 7a01 	vstr	s15, [r5, #4]
 800df84:	e7b4      	b.n	800def0 <__ieee754_rem_pio2f+0x50>
 800df86:	2200      	movs	r2, #0
 800df88:	ed85 0a00 	vstr	s0, [r5]
 800df8c:	6042      	str	r2, [r0, #4]
 800df8e:	2000      	movs	r0, #0
 800df90:	b006      	add	sp, #24
 800df92:	bd70      	pop	{r4, r5, r6, pc}
 800df94:	ee70 7a40 	vsub.f32	s15, s0, s0
 800df98:	2000      	movs	r0, #0
 800df9a:	edc5 7a01 	vstr	s15, [r5, #4]
 800df9e:	edc5 7a00 	vstr	s15, [r5]
 800dfa2:	e7a5      	b.n	800def0 <__ieee754_rem_pio2f+0x50>
 800dfa4:	eddf 6a5d 	vldr	s13, [pc, #372]	; 800e11c <__ieee754_rem_pio2f+0x27c>
 800dfa8:	ed9f 7a5d 	vldr	s14, [pc, #372]	; 800e120 <__ieee754_rem_pio2f+0x280>
 800dfac:	ee77 7ae6 	vsub.f32	s15, s15, s13
 800dfb0:	2001      	movs	r0, #1
 800dfb2:	ee77 6ac7 	vsub.f32	s13, s15, s14
 800dfb6:	ee77 7ae6 	vsub.f32	s15, s15, s13
 800dfba:	edc5 6a00 	vstr	s13, [r5]
 800dfbe:	ee77 7ac7 	vsub.f32	s15, s15, s14
 800dfc2:	edc5 7a01 	vstr	s15, [r5, #4]
 800dfc6:	b006      	add	sp, #24
 800dfc8:	bd70      	pop	{r4, r5, r6, pc}
 800dfca:	f000 fcb7 	bl	800e93c <fabsf>
 800dfce:	eddf 6a55 	vldr	s13, [pc, #340]	; 800e124 <__ieee754_rem_pio2f+0x284>
 800dfd2:	ed9f 6a4c 	vldr	s12, [pc, #304]	; 800e104 <__ieee754_rem_pio2f+0x264>
 800dfd6:	ed9f 7a4d 	vldr	s14, [pc, #308]	; 800e10c <__ieee754_rem_pio2f+0x26c>
 800dfda:	eef6 7a00 	vmov.f32	s15, #96	; 0x3f000000  0.5
 800dfde:	eee0 7a26 	vfma.f32	s15, s0, s13
 800dfe2:	eefd 7ae7 	vcvt.s32.f32	s15, s15
 800dfe6:	ee17 0a90 	vmov	r0, s15
 800dfea:	eef8 6ae7 	vcvt.f32.s32	s13, s15
 800dfee:	281f      	cmp	r0, #31
 800dff0:	eea6 0ac6 	vfms.f32	s0, s13, s12
 800dff4:	ee66 7a87 	vmul.f32	s15, s13, s14
 800dff8:	eeb1 6a66 	vneg.f32	s12, s13
 800dffc:	dc1e      	bgt.n	800e03c <__ieee754_rem_pio2f+0x19c>
 800dffe:	4a4a      	ldr	r2, [pc, #296]	; (800e128 <__ieee754_rem_pio2f+0x288>)
 800e000:	1e41      	subs	r1, r0, #1
 800e002:	f024 03ff 	bic.w	r3, r4, #255	; 0xff
 800e006:	f852 2021 	ldr.w	r2, [r2, r1, lsl #2]
 800e00a:	4293      	cmp	r3, r2
 800e00c:	d016      	beq.n	800e03c <__ieee754_rem_pio2f+0x19c>
 800e00e:	ee30 7a67 	vsub.f32	s14, s0, s15
 800e012:	ed85 7a00 	vstr	s14, [r5]
 800e016:	ee30 0a47 	vsub.f32	s0, s0, s14
 800e01a:	2e00      	cmp	r6, #0
 800e01c:	ee30 0a67 	vsub.f32	s0, s0, s15
 800e020:	ed85 0a01 	vstr	s0, [r5, #4]
 800e024:	f6bf af64 	bge.w	800def0 <__ieee754_rem_pio2f+0x50>
 800e028:	eeb1 7a47 	vneg.f32	s14, s14
 800e02c:	eeb1 0a40 	vneg.f32	s0, s0
 800e030:	ed85 7a00 	vstr	s14, [r5]
 800e034:	ed85 0a01 	vstr	s0, [r5, #4]
 800e038:	4240      	negs	r0, r0
 800e03a:	e759      	b.n	800def0 <__ieee754_rem_pio2f+0x50>
 800e03c:	ee30 7a67 	vsub.f32	s14, s0, s15
 800e040:	15e2      	asrs	r2, r4, #23
 800e042:	ee17 3a10 	vmov	r3, s14
 800e046:	f3c3 53c7 	ubfx	r3, r3, #23, #8
 800e04a:	ebc3 54d4 	rsb	r4, r3, r4, lsr #23
 800e04e:	2c08      	cmp	r4, #8
 800e050:	dddf      	ble.n	800e012 <__ieee754_rem_pio2f+0x172>
 800e052:	eddf 7a32 	vldr	s15, [pc, #200]	; 800e11c <__ieee754_rem_pio2f+0x27c>
 800e056:	ed9f 7a32 	vldr	s14, [pc, #200]	; 800e120 <__ieee754_rem_pio2f+0x280>
 800e05a:	eef0 5a40 	vmov.f32	s11, s0
 800e05e:	eee6 5a27 	vfma.f32	s11, s12, s15
 800e062:	ee30 0a65 	vsub.f32	s0, s0, s11
 800e066:	eea6 0a27 	vfma.f32	s0, s12, s15
 800e06a:	eef0 7a40 	vmov.f32	s15, s0
 800e06e:	eed6 7a87 	vfnms.f32	s15, s13, s14
 800e072:	ee35 7ae7 	vsub.f32	s14, s11, s15
 800e076:	ee17 3a10 	vmov	r3, s14
 800e07a:	f3c3 53c7 	ubfx	r3, r3, #23, #8
 800e07e:	1ad2      	subs	r2, r2, r3
 800e080:	2a19      	cmp	r2, #25
 800e082:	dc06      	bgt.n	800e092 <__ieee754_rem_pio2f+0x1f2>
 800e084:	ed85 7a00 	vstr	s14, [r5]
 800e088:	eeb0 0a65 	vmov.f32	s0, s11
 800e08c:	e7c3      	b.n	800e016 <__ieee754_rem_pio2f+0x176>
 800e08e:	2303      	movs	r3, #3
 800e090:	e761      	b.n	800df56 <__ieee754_rem_pio2f+0xb6>
 800e092:	ed9f 7a26 	vldr	s14, [pc, #152]	; 800e12c <__ieee754_rem_pio2f+0x28c>
 800e096:	ed9f 5a26 	vldr	s10, [pc, #152]	; 800e130 <__ieee754_rem_pio2f+0x290>
 800e09a:	eeb0 0a65 	vmov.f32	s0, s11
 800e09e:	eea6 0a07 	vfma.f32	s0, s12, s14
 800e0a2:	ee75 7ac0 	vsub.f32	s15, s11, s0
 800e0a6:	eee6 7a07 	vfma.f32	s15, s12, s14
 800e0aa:	eed6 7a85 	vfnms.f32	s15, s13, s10
 800e0ae:	e7ae      	b.n	800e00e <__ieee754_rem_pio2f+0x16e>
 800e0b0:	4294      	cmp	r4, r2
 800e0b2:	ee70 7a27 	vadd.f32	s15, s0, s15
 800e0b6:	d00e      	beq.n	800e0d6 <__ieee754_rem_pio2f+0x236>
 800e0b8:	ed9f 7a14 	vldr	s14, [pc, #80]	; 800e10c <__ieee754_rem_pio2f+0x26c>
 800e0bc:	ee77 6a87 	vadd.f32	s13, s15, s14
 800e0c0:	f04f 30ff 	mov.w	r0, #4294967295	; 0xffffffff
 800e0c4:	ee77 7ae6 	vsub.f32	s15, s15, s13
 800e0c8:	edc5 6a00 	vstr	s13, [r5]
 800e0cc:	ee77 7a87 	vadd.f32	s15, s15, s14
 800e0d0:	edc5 7a01 	vstr	s15, [r5, #4]
 800e0d4:	e70c      	b.n	800def0 <__ieee754_rem_pio2f+0x50>
 800e0d6:	eddf 6a11 	vldr	s13, [pc, #68]	; 800e11c <__ieee754_rem_pio2f+0x27c>
 800e0da:	ed9f 7a11 	vldr	s14, [pc, #68]	; 800e120 <__ieee754_rem_pio2f+0x280>
 800e0de:	ee77 7aa6 	vadd.f32	s15, s15, s13
 800e0e2:	f04f 30ff 	mov.w	r0, #4294967295	; 0xffffffff
 800e0e6:	ee77 6a87 	vadd.f32	s13, s15, s14
 800e0ea:	ee77 7ae6 	vsub.f32	s15, s15, s13
 800e0ee:	edc5 6a00 	vstr	s13, [r5]
 800e0f2:	ee77 7a87 	vadd.f32	s15, s15, s14
 800e0f6:	edc5 7a01 	vstr	s15, [r5, #4]
 800e0fa:	e6f9      	b.n	800def0 <__ieee754_rem_pio2f+0x50>
 800e0fc:	3f490fd8 	.word	0x3f490fd8
 800e100:	4016cbe3 	.word	0x4016cbe3
 800e104:	3fc90f80 	.word	0x3fc90f80
 800e108:	3fc90fd0 	.word	0x3fc90fd0
 800e10c:	37354443 	.word	0x37354443
 800e110:	43490f80 	.word	0x43490f80
 800e114:	43800000 	.word	0x43800000
 800e118:	0801df40 	.word	0x0801df40
 800e11c:	37354400 	.word	0x37354400
 800e120:	2e85a308 	.word	0x2e85a308
 800e124:	3f22f984 	.word	0x3f22f984
 800e128:	0801dec0 	.word	0x0801dec0
 800e12c:	2e85a300 	.word	0x2e85a300
 800e130:	248d3132 	.word	0x248d3132

0800e134 <__ieee754_sqrtf>:
__ieee754_sqrtf():
 800e134:	eeb1 0ac0 	vsqrt.f32	s0, s0
 800e138:	4770      	bx	lr
 800e13a:	bf00      	nop

0800e13c <__kernel_cosf>:
__kernel_cosf():
 800e13c:	ee10 3a10 	vmov	r3, s0
 800e140:	f023 4300 	bic.w	r3, r3, #2147483648	; 0x80000000
 800e144:	f1b3 5f48 	cmp.w	r3, #838860800	; 0x32000000
 800e148:	da2c      	bge.n	800e1a4 <__kernel_cosf+0x68>
 800e14a:	eefd 7ac0 	vcvt.s32.f32	s15, s0
 800e14e:	ee17 3a90 	vmov	r3, s15
 800e152:	2b00      	cmp	r3, #0
 800e154:	d060      	beq.n	800e218 <__kernel_cosf+0xdc>
 800e156:	ee20 7a00 	vmul.f32	s14, s0, s0
 800e15a:	eddf 4a31 	vldr	s9, [pc, #196]	; 800e220 <__kernel_cosf+0xe4>
 800e15e:	ed9f 5a31 	vldr	s10, [pc, #196]	; 800e224 <__kernel_cosf+0xe8>
 800e162:	eddf 5a31 	vldr	s11, [pc, #196]	; 800e228 <__kernel_cosf+0xec>
 800e166:	ed9f 6a31 	vldr	s12, [pc, #196]	; 800e22c <__kernel_cosf+0xf0>
 800e16a:	eddf 7a31 	vldr	s15, [pc, #196]	; 800e230 <__kernel_cosf+0xf4>
 800e16e:	eddf 6a31 	vldr	s13, [pc, #196]	; 800e234 <__kernel_cosf+0xf8>
 800e172:	eea7 5a24 	vfma.f32	s10, s14, s9
 800e176:	eee7 5a05 	vfma.f32	s11, s14, s10
 800e17a:	eea7 6a25 	vfma.f32	s12, s14, s11
 800e17e:	eee7 7a06 	vfma.f32	s15, s14, s12
 800e182:	eee7 6a27 	vfma.f32	s13, s14, s15
 800e186:	ee67 6a26 	vmul.f32	s13, s14, s13
 800e18a:	ee60 0ac0 	vnmul.f32	s1, s1, s0
 800e18e:	eef6 7a00 	vmov.f32	s15, #96	; 0x3f000000  0.5
 800e192:	eee7 0a26 	vfma.f32	s1, s14, s13
 800e196:	eeb7 0a00 	vmov.f32	s0, #112	; 0x3f800000  1.0
 800e19a:	eed7 0a27 	vfnms.f32	s1, s14, s15
 800e19e:	ee30 0a60 	vsub.f32	s0, s0, s1
 800e1a2:	4770      	bx	lr
 800e1a4:	ee20 7a00 	vmul.f32	s14, s0, s0
 800e1a8:	eddf 4a1d 	vldr	s9, [pc, #116]	; 800e220 <__kernel_cosf+0xe4>
 800e1ac:	ed9f 5a1d 	vldr	s10, [pc, #116]	; 800e224 <__kernel_cosf+0xe8>
 800e1b0:	eddf 5a1d 	vldr	s11, [pc, #116]	; 800e228 <__kernel_cosf+0xec>
 800e1b4:	ed9f 6a1d 	vldr	s12, [pc, #116]	; 800e22c <__kernel_cosf+0xf0>
 800e1b8:	eddf 7a1d 	vldr	s15, [pc, #116]	; 800e230 <__kernel_cosf+0xf4>
 800e1bc:	eddf 6a1d 	vldr	s13, [pc, #116]	; 800e234 <__kernel_cosf+0xf8>
 800e1c0:	4a1d      	ldr	r2, [pc, #116]	; (800e238 <__kernel_cosf+0xfc>)
 800e1c2:	eea7 5a24 	vfma.f32	s10, s14, s9
 800e1c6:	4293      	cmp	r3, r2
 800e1c8:	eee5 5a07 	vfma.f32	s11, s10, s14
 800e1cc:	eea5 6a87 	vfma.f32	s12, s11, s14
 800e1d0:	eee6 7a07 	vfma.f32	s15, s12, s14
 800e1d4:	eee7 6a87 	vfma.f32	s13, s15, s14
 800e1d8:	ee66 6a87 	vmul.f32	s13, s13, s14
 800e1dc:	ddd5      	ble.n	800e18a <__kernel_cosf+0x4e>
 800e1de:	4a17      	ldr	r2, [pc, #92]	; (800e23c <__kernel_cosf+0x100>)
 800e1e0:	4293      	cmp	r3, r2
 800e1e2:	dc14      	bgt.n	800e20e <__kernel_cosf+0xd2>
 800e1e4:	f103 437f 	add.w	r3, r3, #4278190080	; 0xff000000
 800e1e8:	ee07 3a90 	vmov	s15, r3
 800e1ec:	eeb7 6a00 	vmov.f32	s12, #112	; 0x3f800000  1.0
 800e1f0:	ee36 6a67 	vsub.f32	s12, s12, s15
 800e1f4:	ee60 0ac0 	vnmul.f32	s1, s1, s0
 800e1f8:	eef6 5a00 	vmov.f32	s11, #96	; 0x3f000000  0.5
 800e1fc:	eee7 0a26 	vfma.f32	s1, s14, s13
 800e200:	eed7 7a25 	vfnms.f32	s15, s14, s11
 800e204:	ee77 0ae0 	vsub.f32	s1, s15, s1
 800e208:	ee36 0a60 	vsub.f32	s0, s12, s1
 800e20c:	4770      	bx	lr
 800e20e:	eeb6 6a07 	vmov.f32	s12, #103	; 0x3f380000  0.7187500
 800e212:	eef5 7a02 	vmov.f32	s15, #82	; 0x3e900000  0.2812500
 800e216:	e7ed      	b.n	800e1f4 <__kernel_cosf+0xb8>
 800e218:	eeb7 0a00 	vmov.f32	s0, #112	; 0x3f800000  1.0
 800e21c:	4770      	bx	lr
 800e21e:	bf00      	nop
 800e220:	ad47d74e 	.word	0xad47d74e
 800e224:	310f74f6 	.word	0x310f74f6
 800e228:	b493f27c 	.word	0xb493f27c
 800e22c:	37d00d01 	.word	0x37d00d01
 800e230:	bab60b61 	.word	0xbab60b61
 800e234:	3d2aaaab 	.word	0x3d2aaaab
 800e238:	3e999999 	.word	0x3e999999
 800e23c:	3f480000 	.word	0x3f480000

0800e240 <__kernel_rem_pio2f>:
__kernel_rem_pio2f():
 800e240:	e92d 4ff0 	stmdb	sp!, {r4, r5, r6, r7, r8, r9, sl, fp, lr}
 800e244:	ed2d 8b04 	vpush	{d8-d9}
 800e248:	b0db      	sub	sp, #364	; 0x16c
 800e24a:	4cd7      	ldr	r4, [pc, #860]	; (800e5a8 <__kernel_rem_pio2f+0x368>)
 800e24c:	9d68      	ldr	r5, [sp, #416]	; 0x1a0
 800e24e:	9107      	str	r1, [sp, #28]
 800e250:	1d11      	adds	r1, r2, #4
 800e252:	f854 6025 	ldr.w	r6, [r4, r5, lsl #2]
 800e256:	9304      	str	r3, [sp, #16]
 800e258:	9209      	str	r2, [sp, #36]	; 0x24
 800e25a:	4683      	mov	fp, r0
 800e25c:	f103 39ff 	add.w	r9, r3, #4294967295	; 0xffffffff
 800e260:	f2c0 829d 	blt.w	800e79e <__kernel_rem_pio2f+0x55e>
 800e264:	1ed3      	subs	r3, r2, #3
 800e266:	bf44      	itt	mi
 800e268:	4613      	movmi	r3, r2
 800e26a:	3304      	addmi	r3, #4
 800e26c:	10db      	asrs	r3, r3, #3
 800e26e:	9303      	str	r3, [sp, #12]
 800e270:	3301      	adds	r3, #1
 800e272:	00db      	lsls	r3, r3, #3
 800e274:	9308      	str	r3, [sp, #32]
 800e276:	e9dd 2308 	ldrd	r2, r3, [sp, #32]
 800e27a:	1a9b      	subs	r3, r3, r2
 800e27c:	9306      	str	r3, [sp, #24]
 800e27e:	9b03      	ldr	r3, [sp, #12]
 800e280:	eb16 0109 	adds.w	r1, r6, r9
 800e284:	eba3 0309 	sub.w	r3, r3, r9
 800e288:	d416      	bmi.n	800e2b8 <__kernel_rem_pio2f+0x78>
 800e28a:	3101      	adds	r1, #1
 800e28c:	ed9f 7ac7 	vldr	s14, [pc, #796]	; 800e5ac <__kernel_rem_pio2f+0x36c>
 800e290:	9869      	ldr	r0, [sp, #420]	; 0x1a4
 800e292:	4419      	add	r1, r3
 800e294:	aa1e      	add	r2, sp, #120	; 0x78
 800e296:	2b00      	cmp	r3, #0
 800e298:	bfa4      	itt	ge
 800e29a:	f850 4023 	ldrge.w	r4, [r0, r3, lsl #2]
 800e29e:	ee07 4a90 	vmovge	s15, r4
 800e2a2:	f103 0301 	add.w	r3, r3, #1
 800e2a6:	bfac      	ite	ge
 800e2a8:	eef8 7ae7 	vcvtge.f32.s32	s15, s15
 800e2ac:	eef0 7a47 	vmovlt.f32	s15, s14
 800e2b0:	428b      	cmp	r3, r1
 800e2b2:	ece2 7a01 	vstmia	r2!, {s15}
 800e2b6:	d1ee      	bne.n	800e296 <__kernel_rem_pio2f+0x56>
 800e2b8:	2e00      	cmp	r6, #0
 800e2ba:	f2c0 82e0 	blt.w	800e87e <__kernel_rem_pio2f+0x63e>
 800e2be:	9b04      	ldr	r3, [sp, #16]
 800e2c0:	a91e      	add	r1, sp, #120	; 0x78
 800e2c2:	eb01 0483 	add.w	r4, r1, r3, lsl #2
 800e2c6:	ad46      	add	r5, sp, #280	; 0x118
 800e2c8:	ea4f 0c83 	mov.w	ip, r3, lsl #2
 800e2cc:	4648      	mov	r0, r9
 800e2ce:	18f7      	adds	r7, r6, r3
 800e2d0:	eb0b 0183 	add.w	r1, fp, r3, lsl #2
 800e2d4:	f1b9 0f00 	cmp.w	r9, #0
 800e2d8:	eddf 7ab4 	vldr	s15, [pc, #720]	; 800e5ac <__kernel_rem_pio2f+0x36c>
 800e2dc:	db09      	blt.n	800e2f2 <__kernel_rem_pio2f+0xb2>
 800e2de:	4622      	mov	r2, r4
 800e2e0:	465b      	mov	r3, fp
 800e2e2:	ecf3 6a01 	vldmia	r3!, {s13}
 800e2e6:	ed32 7a01 	vldmdb	r2!, {s14}
 800e2ea:	428b      	cmp	r3, r1
 800e2ec:	eee6 7a87 	vfma.f32	s15, s13, s14
 800e2f0:	d1f7      	bne.n	800e2e2 <__kernel_rem_pio2f+0xa2>
 800e2f2:	3001      	adds	r0, #1
 800e2f4:	42b8      	cmp	r0, r7
 800e2f6:	ece5 7a01 	vstmia	r5!, {s15}
 800e2fa:	f104 0404 	add.w	r4, r4, #4
 800e2fe:	d1e9      	bne.n	800e2d4 <__kernel_rem_pio2f+0x94>
 800e300:	f10d 0828 	add.w	r8, sp, #40	; 0x28
 800e304:	eb08 0386 	add.w	r3, r8, r6, lsl #2
 800e308:	3b08      	subs	r3, #8
 800e30a:	9305      	str	r3, [sp, #20]
 800e30c:	ed9f 9aa9 	vldr	s18, [pc, #676]	; 800e5b4 <__kernel_rem_pio2f+0x374>
 800e310:	eddf 8aa7 	vldr	s17, [pc, #668]	; 800e5b0 <__kernel_rem_pio2f+0x370>
 800e314:	9806      	ldr	r0, [sp, #24]
 800e316:	9600      	str	r6, [sp, #0]
 800e318:	ab09      	add	r3, sp, #36	; 0x24
 800e31a:	eb03 0a86 	add.w	sl, r3, r6, lsl #2
 800e31e:	eb0b 040c 	add.w	r4, fp, ip
 800e322:	af46      	add	r7, sp, #280	; 0x118
 800e324:	465b      	mov	r3, fp
 800e326:	aa5a      	add	r2, sp, #360	; 0x168
 800e328:	eb02 0286 	add.w	r2, r2, r6, lsl #2
 800e32c:	2e00      	cmp	r6, #0
 800e32e:	ed12 0a14 	vldr	s0, [r2, #-80]	; 0xffffffb0
 800e332:	ea4f 0b86 	mov.w	fp, r6, lsl #2
 800e336:	dd16      	ble.n	800e366 <__kernel_rem_pio2f+0x126>
 800e338:	eb07 0286 	add.w	r2, r7, r6, lsl #2
 800e33c:	4641      	mov	r1, r8
 800e33e:	ee60 7a09 	vmul.f32	s15, s0, s18
 800e342:	eeb0 7a40 	vmov.f32	s14, s0
 800e346:	eefd 7ae7 	vcvt.s32.f32	s15, s15
 800e34a:	ed72 6a01 	vldmdb	r2!, {s13}
 800e34e:	eef8 7ae7 	vcvt.f32.s32	s15, s15
 800e352:	42ba      	cmp	r2, r7
 800e354:	eea7 7ae8 	vfms.f32	s14, s15, s17
 800e358:	ee37 0aa6 	vadd.f32	s0, s15, s13
 800e35c:	eebd 7ac7 	vcvt.s32.f32	s14, s14
 800e360:	eca1 7a01 	vstmia	r1!, {s14}
 800e364:	d1eb      	bne.n	800e33e <__kernel_rem_pio2f+0xfe>
 800e366:	e9cd 0301 	strd	r0, r3, [sp, #4]
 800e36a:	f000 fb03 	bl	800e974 <scalbnf>
 800e36e:	eeb0 8a40 	vmov.f32	s16, s0
 800e372:	eeb4 0a00 	vmov.f32	s0, #64	; 0x3e000000  0.125
 800e376:	ee28 0a00 	vmul.f32	s0, s16, s0
 800e37a:	f7ff f8b7 	bl	800d4ec <floorf>
 800e37e:	eef2 7a00 	vmov.f32	s15, #32	; 0x41000000  8.0
 800e382:	eea0 8a67 	vfms.f32	s16, s0, s15
 800e386:	9801      	ldr	r0, [sp, #4]
 800e388:	9b02      	ldr	r3, [sp, #8]
 800e38a:	eefd 9ac8 	vcvt.s32.f32	s19, s16
 800e38e:	2800      	cmp	r0, #0
 800e390:	eef8 7ae9 	vcvt.f32.s32	s15, s19
 800e394:	ee38 8a67 	vsub.f32	s16, s16, s15
 800e398:	dd78      	ble.n	800e48c <__kernel_rem_pio2f+0x24c>
 800e39a:	f106 3cff 	add.w	ip, r6, #4294967295	; 0xffffffff
 800e39e:	f1c0 0208 	rsb	r2, r0, #8
 800e3a2:	f858 502c 	ldr.w	r5, [r8, ip, lsl #2]
 800e3a6:	fa45 f102 	asr.w	r1, r5, r2
 800e3aa:	fa01 f202 	lsl.w	r2, r1, r2
 800e3ae:	1aaa      	subs	r2, r5, r2
 800e3b0:	f848 202c 	str.w	r2, [r8, ip, lsl #2]
 800e3b4:	f1c0 0507 	rsb	r5, r0, #7
 800e3b8:	ee19 ca90 	vmov	ip, s19
 800e3bc:	fa42 f505 	asr.w	r5, r2, r5
 800e3c0:	448c      	add	ip, r1
 800e3c2:	2d00      	cmp	r5, #0
 800e3c4:	ee09 ca90 	vmov	s19, ip
 800e3c8:	dc68      	bgt.n	800e49c <__kernel_rem_pio2f+0x25c>
 800e3ca:	eeb5 8a40 	vcmp.f32	s16, #0.0
 800e3ce:	eef1 fa10 	vmrs	APSR_nzcv, fpscr
 800e3d2:	f040 80b6 	bne.w	800e542 <__kernel_rem_pio2f+0x302>
 800e3d6:	9a00      	ldr	r2, [sp, #0]
 800e3d8:	f106 3eff 	add.w	lr, r6, #4294967295	; 0xffffffff
 800e3dc:	4572      	cmp	r2, lr
 800e3de:	dc10      	bgt.n	800e402 <__kernel_rem_pio2f+0x1c2>
 800e3e0:	f106 4280 	add.w	r2, r6, #1073741824	; 0x40000000
 800e3e4:	3a01      	subs	r2, #1
 800e3e6:	eb08 0282 	add.w	r2, r8, r2, lsl #2
 800e3ea:	2100      	movs	r1, #0
 800e3ec:	469c      	mov	ip, r3
 800e3ee:	f852 3904 	ldr.w	r3, [r2], #-4
 800e3f2:	4552      	cmp	r2, sl
 800e3f4:	ea41 0103 	orr.w	r1, r1, r3
 800e3f8:	d1f9      	bne.n	800e3ee <__kernel_rem_pio2f+0x1ae>
 800e3fa:	4663      	mov	r3, ip
 800e3fc:	2900      	cmp	r1, #0
 800e3fe:	f040 80f2 	bne.w	800e5e6 <__kernel_rem_pio2f+0x3a6>
 800e402:	9a00      	ldr	r2, [sp, #0]
 800e404:	3a01      	subs	r2, #1
 800e406:	f858 2022 	ldr.w	r2, [r8, r2, lsl #2]
 800e40a:	2a00      	cmp	r2, #0
 800e40c:	f040 80e6 	bne.w	800e5dc <__kernel_rem_pio2f+0x39c>
 800e410:	9a05      	ldr	r2, [sp, #20]
 800e412:	f04f 0c01 	mov.w	ip, #1
 800e416:	f852 1904 	ldr.w	r1, [r2], #-4
 800e41a:	f10c 0c01 	add.w	ip, ip, #1
 800e41e:	2900      	cmp	r1, #0
 800e420:	d0f9      	beq.n	800e416 <__kernel_rem_pio2f+0x1d6>
 800e422:	f106 0b01 	add.w	fp, r6, #1
 800e426:	44b4      	add	ip, r6
 800e428:	46de      	mov	lr, fp
 800e42a:	9904      	ldr	r1, [sp, #16]
 800e42c:	9a03      	ldr	r2, [sp, #12]
 800e42e:	198d      	adds	r5, r1, r6
 800e430:	445a      	add	r2, fp
 800e432:	a91e      	add	r1, sp, #120	; 0x78
 800e434:	f102 4280 	add.w	r2, r2, #1073741824	; 0x40000000
 800e438:	eb01 0585 	add.w	r5, r1, r5, lsl #2
 800e43c:	9969      	ldr	r1, [sp, #420]	; 0x1a4
 800e43e:	3a01      	subs	r2, #1
 800e440:	eb01 0682 	add.w	r6, r1, r2, lsl #2
 800e444:	eb07 0b8b 	add.w	fp, r7, fp, lsl #2
 800e448:	edd6 7a01 	vldr	s15, [r6, #4]
 800e44c:	ed9f 7a57 	vldr	s14, [pc, #348]	; 800e5ac <__kernel_rem_pio2f+0x36c>
 800e450:	eef8 7ae7 	vcvt.f32.s32	s15, s15
 800e454:	f1b9 0f00 	cmp.w	r9, #0
 800e458:	f106 0604 	add.w	r6, r6, #4
 800e45c:	4629      	mov	r1, r5
 800e45e:	edc5 7a00 	vstr	s15, [r5]
 800e462:	f105 0504 	add.w	r5, r5, #4
 800e466:	db09      	blt.n	800e47c <__kernel_rem_pio2f+0x23c>
 800e468:	461a      	mov	r2, r3
 800e46a:	e001      	b.n	800e470 <__kernel_rem_pio2f+0x230>
 800e46c:	ed71 7a01 	vldmdb	r1!, {s15}
 800e470:	ecf2 6a01 	vldmia	r2!, {s13}
 800e474:	42a2      	cmp	r2, r4
 800e476:	eea6 7aa7 	vfma.f32	s14, s13, s15
 800e47a:	d1f7      	bne.n	800e46c <__kernel_rem_pio2f+0x22c>
 800e47c:	f10e 0e01 	add.w	lr, lr, #1
 800e480:	45e6      	cmp	lr, ip
 800e482:	ecab 7a01 	vstmia	fp!, {s14}
 800e486:	dddf      	ble.n	800e448 <__kernel_rem_pio2f+0x208>
 800e488:	4666      	mov	r6, ip
 800e48a:	e74c      	b.n	800e326 <__kernel_rem_pio2f+0xe6>
 800e48c:	f040 809c 	bne.w	800e5c8 <__kernel_rem_pio2f+0x388>
 800e490:	1e72      	subs	r2, r6, #1
 800e492:	f858 5022 	ldr.w	r5, [r8, r2, lsl #2]
 800e496:	122d      	asrs	r5, r5, #8
 800e498:	2d00      	cmp	r5, #0
 800e49a:	dd96      	ble.n	800e3ca <__kernel_rem_pio2f+0x18a>
 800e49c:	ee19 2a90 	vmov	r2, s19
 800e4a0:	2e00      	cmp	r6, #0
 800e4a2:	f102 0201 	add.w	r2, r2, #1
 800e4a6:	ee09 2a90 	vmov	s19, r2
 800e4aa:	f340 818e 	ble.w	800e7ca <__kernel_rem_pio2f+0x58a>
 800e4ae:	f8d8 1000 	ldr.w	r1, [r8]
 800e4b2:	2900      	cmp	r1, #0
 800e4b4:	d174      	bne.n	800e5a0 <__kernel_rem_pio2f+0x360>
 800e4b6:	2e01      	cmp	r6, #1
 800e4b8:	d01c      	beq.n	800e4f4 <__kernel_rem_pio2f+0x2b4>
 800e4ba:	4642      	mov	r2, r8
 800e4bc:	f04f 0c01 	mov.w	ip, #1
 800e4c0:	f852 1f04 	ldr.w	r1, [r2, #4]!
 800e4c4:	2900      	cmp	r1, #0
 800e4c6:	d079      	beq.n	800e5bc <__kernel_rem_pio2f+0x37c>
 800e4c8:	f10c 0201 	add.w	r2, ip, #1
 800e4cc:	f5c1 7180 	rsb	r1, r1, #256	; 0x100
 800e4d0:	4296      	cmp	r6, r2
 800e4d2:	f848 102c 	str.w	r1, [r8, ip, lsl #2]
 800e4d6:	dd0c      	ble.n	800e4f2 <__kernel_rem_pio2f+0x2b2>
 800e4d8:	f858 1022 	ldr.w	r1, [r8, r2, lsl #2]
 800e4dc:	44c3      	add	fp, r8
 800e4de:	eb08 0282 	add.w	r2, r8, r2, lsl #2
 800e4e2:	e000      	b.n	800e4e6 <__kernel_rem_pio2f+0x2a6>
 800e4e4:	6811      	ldr	r1, [r2, #0]
 800e4e6:	f1c1 01ff 	rsb	r1, r1, #255	; 0xff
 800e4ea:	f842 1b04 	str.w	r1, [r2], #4
 800e4ee:	455a      	cmp	r2, fp
 800e4f0:	d1f8      	bne.n	800e4e4 <__kernel_rem_pio2f+0x2a4>
 800e4f2:	2101      	movs	r1, #1
 800e4f4:	2800      	cmp	r0, #0
 800e4f6:	dd0c      	ble.n	800e512 <__kernel_rem_pio2f+0x2d2>
 800e4f8:	2801      	cmp	r0, #1
 800e4fa:	f000 8147 	beq.w	800e78c <__kernel_rem_pio2f+0x54c>
 800e4fe:	2802      	cmp	r0, #2
 800e500:	d107      	bne.n	800e512 <__kernel_rem_pio2f+0x2d2>
 800e502:	f106 3cff 	add.w	ip, r6, #4294967295	; 0xffffffff
 800e506:	f858 202c 	ldr.w	r2, [r8, ip, lsl #2]
 800e50a:	f002 023f 	and.w	r2, r2, #63	; 0x3f
 800e50e:	f848 202c 	str.w	r2, [r8, ip, lsl #2]
 800e512:	2d02      	cmp	r5, #2
 800e514:	f47f af59 	bne.w	800e3ca <__kernel_rem_pio2f+0x18a>
 800e518:	eeb7 0a00 	vmov.f32	s0, #112	; 0x3f800000  1.0
 800e51c:	ee30 8a48 	vsub.f32	s16, s0, s16
 800e520:	2900      	cmp	r1, #0
 800e522:	f43f af52 	beq.w	800e3ca <__kernel_rem_pio2f+0x18a>
 800e526:	e9cd 0301 	strd	r0, r3, [sp, #4]
 800e52a:	f000 fa23 	bl	800e974 <scalbnf>
 800e52e:	ee38 8a40 	vsub.f32	s16, s16, s0
 800e532:	e9dd 0301 	ldrd	r0, r3, [sp, #4]
 800e536:	eeb5 8a40 	vcmp.f32	s16, #0.0
 800e53a:	eef1 fa10 	vmrs	APSR_nzcv, fpscr
 800e53e:	f43f af4a 	beq.w	800e3d6 <__kernel_rem_pio2f+0x196>
 800e542:	e9dd 3208 	ldrd	r3, r2, [sp, #32]
 800e546:	eeb0 0a48 	vmov.f32	s0, s16
 800e54a:	1a98      	subs	r0, r3, r2
 800e54c:	9602      	str	r6, [sp, #8]
 800e54e:	9501      	str	r5, [sp, #4]
 800e550:	9e00      	ldr	r6, [sp, #0]
 800e552:	f000 fa0f 	bl	800e974 <scalbnf>
 800e556:	ed9f 7a16 	vldr	s14, [pc, #88]	; 800e5b0 <__kernel_rem_pio2f+0x370>
 800e55a:	eeb4 0ac7 	vcmpe.f32	s0, s14
 800e55e:	eef1 fa10 	vmrs	APSR_nzcv, fpscr
 800e562:	e9dd 2301 	ldrd	r2, r3, [sp, #4]
 800e566:	f2c0 8157 	blt.w	800e818 <__kernel_rem_pio2f+0x5d8>
 800e56a:	eddf 7a12 	vldr	s15, [pc, #72]	; 800e5b4 <__kernel_rem_pio2f+0x374>
 800e56e:	9906      	ldr	r1, [sp, #24]
 800e570:	ee60 7a27 	vmul.f32	s15, s0, s15
 800e574:	3108      	adds	r1, #8
 800e576:	eefd 7ae7 	vcvt.s32.f32	s15, s15
 800e57a:	9106      	str	r1, [sp, #24]
 800e57c:	eef8 7ae7 	vcvt.f32.s32	s15, s15
 800e580:	1c5d      	adds	r5, r3, #1
 800e582:	eea7 0ac7 	vfms.f32	s0, s15, s14
 800e586:	eefd 7ae7 	vcvt.s32.f32	s15, s15
 800e58a:	eebd 0ac0 	vcvt.s32.f32	s0, s0
 800e58e:	ee10 1a10 	vmov	r1, s0
 800e592:	f848 1023 	str.w	r1, [r8, r3, lsl #2]
 800e596:	ee17 3a90 	vmov	r3, s15
 800e59a:	f848 3025 	str.w	r3, [r8, r5, lsl #2]
 800e59e:	e039      	b.n	800e614 <__kernel_rem_pio2f+0x3d4>
 800e5a0:	2201      	movs	r2, #1
 800e5a2:	f04f 0c00 	mov.w	ip, #0
 800e5a6:	e791      	b.n	800e4cc <__kernel_rem_pio2f+0x28c>
 800e5a8:	0801e284 	.word	0x0801e284
 800e5ac:	00000000 	.word	0x00000000
 800e5b0:	43800000 	.word	0x43800000
 800e5b4:	3b800000 	.word	0x3b800000
 800e5b8:	3fc90000 	.word	0x3fc90000
 800e5bc:	f10c 0c01 	add.w	ip, ip, #1
 800e5c0:	45b4      	cmp	ip, r6
 800e5c2:	f47f af7d 	bne.w	800e4c0 <__kernel_rem_pio2f+0x280>
 800e5c6:	e795      	b.n	800e4f4 <__kernel_rem_pio2f+0x2b4>
 800e5c8:	eef6 7a00 	vmov.f32	s15, #96	; 0x3f000000  0.5
 800e5cc:	eeb4 8ae7 	vcmpe.f32	s16, s15
 800e5d0:	eef1 fa10 	vmrs	APSR_nzcv, fpscr
 800e5d4:	f280 80e8 	bge.w	800e7a8 <__kernel_rem_pio2f+0x568>
 800e5d8:	2500      	movs	r5, #0
 800e5da:	e6f6      	b.n	800e3ca <__kernel_rem_pio2f+0x18a>
 800e5dc:	f106 0b01 	add.w	fp, r6, #1
 800e5e0:	46de      	mov	lr, fp
 800e5e2:	46dc      	mov	ip, fp
 800e5e4:	e721      	b.n	800e42a <__kernel_rem_pio2f+0x1ea>
 800e5e6:	9806      	ldr	r0, [sp, #24]
 800e5e8:	f858 102e 	ldr.w	r1, [r8, lr, lsl #2]
 800e5ec:	3808      	subs	r0, #8
 800e5ee:	4633      	mov	r3, r6
 800e5f0:	462a      	mov	r2, r5
 800e5f2:	9e00      	ldr	r6, [sp, #0]
 800e5f4:	9006      	str	r0, [sp, #24]
 800e5f6:	4675      	mov	r5, lr
 800e5f8:	b961      	cbnz	r1, 800e614 <__kernel_rem_pio2f+0x3d4>
 800e5fa:	f103 4380 	add.w	r3, r3, #1073741824	; 0x40000000
 800e5fe:	3b02      	subs	r3, #2
 800e600:	eb08 0383 	add.w	r3, r8, r3, lsl #2
 800e604:	4601      	mov	r1, r0
 800e606:	f853 0904 	ldr.w	r0, [r3], #-4
 800e60a:	3d01      	subs	r5, #1
 800e60c:	3908      	subs	r1, #8
 800e60e:	2800      	cmp	r0, #0
 800e610:	d0f9      	beq.n	800e606 <__kernel_rem_pio2f+0x3c6>
 800e612:	9106      	str	r1, [sp, #24]
 800e614:	9806      	ldr	r0, [sp, #24]
 800e616:	9200      	str	r2, [sp, #0]
 800e618:	eeb7 0a00 	vmov.f32	s0, #112	; 0x3f800000  1.0
 800e61c:	f000 f9aa 	bl	800e974 <scalbnf>
 800e620:	2d00      	cmp	r5, #0
 800e622:	9a00      	ldr	r2, [sp, #0]
 800e624:	f2c0 811e 	blt.w	800e864 <__kernel_rem_pio2f+0x624>
 800e628:	ea4f 0e85 	mov.w	lr, r5, lsl #2
 800e62c:	ab46      	add	r3, sp, #280	; 0x118
 800e62e:	eb03 070e 	add.w	r7, r3, lr
 800e632:	f10e 0c04 	add.w	ip, lr, #4
 800e636:	ed1f 7a21 	vldr	s14, [pc, #-132]	; 800e5b4 <__kernel_rem_pio2f+0x374>
 800e63a:	eb08 030c 	add.w	r3, r8, ip
 800e63e:	1d39      	adds	r1, r7, #4
 800e640:	ed73 7a01 	vldmdb	r3!, {s15}
 800e644:	eef8 7ae7 	vcvt.f32.s32	s15, s15
 800e648:	4543      	cmp	r3, r8
 800e64a:	ee67 7a80 	vmul.f32	s15, s15, s0
 800e64e:	ee20 0a07 	vmul.f32	s0, s0, s14
 800e652:	ed61 7a01 	vstmdb	r1!, {s15}
 800e656:	d1f3      	bne.n	800e640 <__kernel_rem_pio2f+0x400>
 800e658:	2e00      	cmp	r6, #0
 800e65a:	ed1f 6a29 	vldr	s12, [pc, #-164]	; 800e5b8 <__kernel_rem_pio2f+0x378>
 800e65e:	f04f 0400 	mov.w	r4, #0
 800e662:	db20      	blt.n	800e6a6 <__kernel_rem_pio2f+0x466>
 800e664:	488f      	ldr	r0, [pc, #572]	; (800e8a4 <__kernel_rem_pio2f+0x664>)
 800e666:	eddf 7a90 	vldr	s15, [pc, #576]	; 800e8a8 <__kernel_rem_pio2f+0x668>
 800e66a:	4639      	mov	r1, r7
 800e66c:	eeb0 7a46 	vmov.f32	s14, s12
 800e670:	2300      	movs	r3, #0
 800e672:	e003      	b.n	800e67c <__kernel_rem_pio2f+0x43c>
 800e674:	429c      	cmp	r4, r3
 800e676:	db08      	blt.n	800e68a <__kernel_rem_pio2f+0x44a>
 800e678:	ecb0 7a01 	vldmia	r0!, {s14}
 800e67c:	ecf1 6a01 	vldmia	r1!, {s13}
 800e680:	3301      	adds	r3, #1
 800e682:	429e      	cmp	r6, r3
 800e684:	eee6 7a87 	vfma.f32	s15, s13, s14
 800e688:	daf4      	bge.n	800e674 <__kernel_rem_pio2f+0x434>
 800e68a:	ab5a      	add	r3, sp, #360	; 0x168
 800e68c:	eb03 0384 	add.w	r3, r3, r4, lsl #2
 800e690:	42a5      	cmp	r5, r4
 800e692:	ed43 7a28 	vstr	s15, [r3, #-160]	; 0xffffff60
 800e696:	f1a7 0704 	sub.w	r7, r7, #4
 800e69a:	f104 0301 	add.w	r3, r4, #1
 800e69e:	d005      	beq.n	800e6ac <__kernel_rem_pio2f+0x46c>
 800e6a0:	2e00      	cmp	r6, #0
 800e6a2:	461c      	mov	r4, r3
 800e6a4:	dade      	bge.n	800e664 <__kernel_rem_pio2f+0x424>
 800e6a6:	eddf 7a80 	vldr	s15, [pc, #512]	; 800e8a8 <__kernel_rem_pio2f+0x668>
 800e6aa:	e7ee      	b.n	800e68a <__kernel_rem_pio2f+0x44a>
 800e6ac:	9968      	ldr	r1, [sp, #416]	; 0x1a0
 800e6ae:	2902      	cmp	r1, #2
 800e6b0:	dc1c      	bgt.n	800e6ec <__kernel_rem_pio2f+0x4ac>
 800e6b2:	2900      	cmp	r1, #0
 800e6b4:	f300 808b 	bgt.w	800e7ce <__kernel_rem_pio2f+0x58e>
 800e6b8:	d10f      	bne.n	800e6da <__kernel_rem_pio2f+0x49a>
 800e6ba:	ab32      	add	r3, sp, #200	; 0xc8
 800e6bc:	eddf 7a7a 	vldr	s15, [pc, #488]	; 800e8a8 <__kernel_rem_pio2f+0x668>
 800e6c0:	449c      	add	ip, r3
 800e6c2:	ed3c 7a01 	vldmdb	ip!, {s14}
 800e6c6:	4563      	cmp	r3, ip
 800e6c8:	ee77 7a87 	vadd.f32	s15, s15, s14
 800e6cc:	d1f9      	bne.n	800e6c2 <__kernel_rem_pio2f+0x482>
 800e6ce:	b10a      	cbz	r2, 800e6d4 <__kernel_rem_pio2f+0x494>
 800e6d0:	eef1 7a67 	vneg.f32	s15, s15
 800e6d4:	9b07      	ldr	r3, [sp, #28]
 800e6d6:	edc3 7a00 	vstr	s15, [r3]
 800e6da:	ee19 3a90 	vmov	r3, s19
 800e6de:	f003 0007 	and.w	r0, r3, #7
 800e6e2:	b05b      	add	sp, #364	; 0x16c
 800e6e4:	ecbd 8b04 	vpop	{d8-d9}
 800e6e8:	e8bd 8ff0 	ldmia.w	sp!, {r4, r5, r6, r7, r8, r9, sl, fp, pc}
 800e6ec:	9b68      	ldr	r3, [sp, #416]	; 0x1a0
 800e6ee:	2b03      	cmp	r3, #3
 800e6f0:	d1f3      	bne.n	800e6da <__kernel_rem_pio2f+0x49a>
 800e6f2:	2d00      	cmp	r5, #0
 800e6f4:	f000 80cb 	beq.w	800e88e <__kernel_rem_pio2f+0x64e>
 800e6f8:	ab5a      	add	r3, sp, #360	; 0x168
 800e6fa:	4473      	add	r3, lr
 800e6fc:	a932      	add	r1, sp, #200	; 0xc8
 800e6fe:	ed13 7a28 	vldr	s14, [r3, #-160]	; 0xffffff60
 800e702:	eb01 0385 	add.w	r3, r1, r5, lsl #2
 800e706:	ed73 7a01 	vldmdb	r3!, {s15}
 800e70a:	eef0 6a47 	vmov.f32	s13, s14
 800e70e:	ee37 7a27 	vadd.f32	s14, s14, s15
 800e712:	4299      	cmp	r1, r3
 800e714:	ee77 7ac7 	vsub.f32	s15, s15, s14
 800e718:	ed83 7a00 	vstr	s14, [r3]
 800e71c:	ee77 7aa6 	vadd.f32	s15, s15, s13
 800e720:	edc3 7a01 	vstr	s15, [r3, #4]
 800e724:	d1ef      	bne.n	800e706 <__kernel_rem_pio2f+0x4c6>
 800e726:	2d01      	cmp	r5, #1
 800e728:	f340 80b1 	ble.w	800e88e <__kernel_rem_pio2f+0x64e>
 800e72c:	f105 4580 	add.w	r5, r5, #1073741824	; 0x40000000
 800e730:	ab5a      	add	r3, sp, #360	; 0x168
 800e732:	3d01      	subs	r5, #1
 800e734:	449e      	add	lr, r3
 800e736:	00ad      	lsls	r5, r5, #2
 800e738:	1d2b      	adds	r3, r5, #4
 800e73a:	ed1e 7a28 	vldr	s14, [lr, #-160]	; 0xffffff60
 800e73e:	440b      	add	r3, r1
 800e740:	a833      	add	r0, sp, #204	; 0xcc
 800e742:	ed73 7a01 	vldmdb	r3!, {s15}
 800e746:	eef0 6a47 	vmov.f32	s13, s14
 800e74a:	ee37 7a27 	vadd.f32	s14, s14, s15
 800e74e:	4298      	cmp	r0, r3
 800e750:	ee77 7ac7 	vsub.f32	s15, s15, s14
 800e754:	ed83 7a00 	vstr	s14, [r3]
 800e758:	ee77 7aa6 	vadd.f32	s15, s15, s13
 800e75c:	edc3 7a01 	vstr	s15, [r3, #4]
 800e760:	d1ef      	bne.n	800e742 <__kernel_rem_pio2f+0x502>
 800e762:	3508      	adds	r5, #8
 800e764:	eddf 7a50 	vldr	s15, [pc, #320]	; 800e8a8 <__kernel_rem_pio2f+0x668>
 800e768:	194b      	adds	r3, r1, r5
 800e76a:	3108      	adds	r1, #8
 800e76c:	ed33 7a01 	vldmdb	r3!, {s14}
 800e770:	4299      	cmp	r1, r3
 800e772:	ee77 7a87 	vadd.f32	s15, s15, s14
 800e776:	d1f9      	bne.n	800e76c <__kernel_rem_pio2f+0x52c>
 800e778:	2a00      	cmp	r2, #0
 800e77a:	d155      	bne.n	800e828 <__kernel_rem_pio2f+0x5e8>
 800e77c:	9907      	ldr	r1, [sp, #28]
 800e77e:	9a32      	ldr	r2, [sp, #200]	; 0xc8
 800e780:	9b33      	ldr	r3, [sp, #204]	; 0xcc
 800e782:	edc1 7a02 	vstr	s15, [r1, #8]
 800e786:	600a      	str	r2, [r1, #0]
 800e788:	604b      	str	r3, [r1, #4]
 800e78a:	e7a6      	b.n	800e6da <__kernel_rem_pio2f+0x49a>
 800e78c:	f106 3cff 	add.w	ip, r6, #4294967295	; 0xffffffff
 800e790:	f858 202c 	ldr.w	r2, [r8, ip, lsl #2]
 800e794:	f002 027f 	and.w	r2, r2, #127	; 0x7f
 800e798:	f848 202c 	str.w	r2, [r8, ip, lsl #2]
 800e79c:	e6b9      	b.n	800e512 <__kernel_rem_pio2f+0x2d2>
 800e79e:	2308      	movs	r3, #8
 800e7a0:	9308      	str	r3, [sp, #32]
 800e7a2:	2300      	movs	r3, #0
 800e7a4:	9303      	str	r3, [sp, #12]
 800e7a6:	e566      	b.n	800e276 <__kernel_rem_pio2f+0x36>
 800e7a8:	ee19 2a90 	vmov	r2, s19
 800e7ac:	2e00      	cmp	r6, #0
 800e7ae:	f102 0201 	add.w	r2, r2, #1
 800e7b2:	ee09 2a90 	vmov	s19, r2
 800e7b6:	bfc8      	it	gt
 800e7b8:	2502      	movgt	r5, #2
 800e7ba:	f73f ae78 	bgt.w	800e4ae <__kernel_rem_pio2f+0x26e>
 800e7be:	eef7 7a00 	vmov.f32	s15, #112	; 0x3f800000  1.0
 800e7c2:	ee37 8ac8 	vsub.f32	s16, s15, s16
 800e7c6:	2502      	movs	r5, #2
 800e7c8:	e5ff      	b.n	800e3ca <__kernel_rem_pio2f+0x18a>
 800e7ca:	2100      	movs	r1, #0
 800e7cc:	e692      	b.n	800e4f4 <__kernel_rem_pio2f+0x2b4>
 800e7ce:	a932      	add	r1, sp, #200	; 0xc8
 800e7d0:	eddf 7a35 	vldr	s15, [pc, #212]	; 800e8a8 <__kernel_rem_pio2f+0x668>
 800e7d4:	eb01 0383 	add.w	r3, r1, r3, lsl #2
 800e7d8:	ed33 7a01 	vldmdb	r3!, {s14}
 800e7dc:	4299      	cmp	r1, r3
 800e7de:	ee77 7a87 	vadd.f32	s15, s15, s14
 800e7e2:	d1f9      	bne.n	800e7d8 <__kernel_rem_pio2f+0x598>
 800e7e4:	bb92      	cbnz	r2, 800e84c <__kernel_rem_pio2f+0x60c>
 800e7e6:	ed9d 7a32 	vldr	s14, [sp, #200]	; 0xc8
 800e7ea:	9b07      	ldr	r3, [sp, #28]
 800e7ec:	2d00      	cmp	r5, #0
 800e7ee:	edc3 7a00 	vstr	s15, [r3]
 800e7f2:	ee77 7a67 	vsub.f32	s15, s14, s15
 800e7f6:	dd0b      	ble.n	800e810 <__kernel_rem_pio2f+0x5d0>
 800e7f8:	a933      	add	r1, sp, #204	; 0xcc
 800e7fa:	2301      	movs	r3, #1
 800e7fc:	ecb1 7a01 	vldmia	r1!, {s14}
 800e800:	3301      	adds	r3, #1
 800e802:	429d      	cmp	r5, r3
 800e804:	ee77 7a87 	vadd.f32	s15, s15, s14
 800e808:	daf8      	bge.n	800e7fc <__kernel_rem_pio2f+0x5bc>
 800e80a:	b10a      	cbz	r2, 800e810 <__kernel_rem_pio2f+0x5d0>
 800e80c:	eef1 7a67 	vneg.f32	s15, s15
 800e810:	9b07      	ldr	r3, [sp, #28]
 800e812:	edc3 7a01 	vstr	s15, [r3, #4]
 800e816:	e760      	b.n	800e6da <__kernel_rem_pio2f+0x49a>
 800e818:	eebd 0ac0 	vcvt.s32.f32	s0, s0
 800e81c:	461d      	mov	r5, r3
 800e81e:	ee10 1a10 	vmov	r1, s0
 800e822:	f848 1023 	str.w	r1, [r8, r3, lsl #2]
 800e826:	e6f5      	b.n	800e614 <__kernel_rem_pio2f+0x3d4>
 800e828:	eddd 6a32 	vldr	s13, [sp, #200]	; 0xc8
 800e82c:	ed9d 7a33 	vldr	s14, [sp, #204]	; 0xcc
 800e830:	9b07      	ldr	r3, [sp, #28]
 800e832:	eef1 7a67 	vneg.f32	s15, s15
 800e836:	eef1 6a66 	vneg.f32	s13, s13
 800e83a:	eeb1 7a47 	vneg.f32	s14, s14
 800e83e:	edc3 7a02 	vstr	s15, [r3, #8]
 800e842:	edc3 6a00 	vstr	s13, [r3]
 800e846:	ed83 7a01 	vstr	s14, [r3, #4]
 800e84a:	e746      	b.n	800e6da <__kernel_rem_pio2f+0x49a>
 800e84c:	eddd 6a32 	vldr	s13, [sp, #200]	; 0xc8
 800e850:	9b07      	ldr	r3, [sp, #28]
 800e852:	eeb1 7a67 	vneg.f32	s14, s15
 800e856:	2d00      	cmp	r5, #0
 800e858:	ee76 7ae7 	vsub.f32	s15, s13, s15
 800e85c:	ed83 7a00 	vstr	s14, [r3]
 800e860:	dcca      	bgt.n	800e7f8 <__kernel_rem_pio2f+0x5b8>
 800e862:	e7d3      	b.n	800e80c <__kernel_rem_pio2f+0x5cc>
 800e864:	9b68      	ldr	r3, [sp, #416]	; 0x1a0
 800e866:	2b02      	cmp	r3, #2
 800e868:	dc0d      	bgt.n	800e886 <__kernel_rem_pio2f+0x646>
 800e86a:	2b00      	cmp	r3, #0
 800e86c:	dc14      	bgt.n	800e898 <__kernel_rem_pio2f+0x658>
 800e86e:	f47f af34 	bne.w	800e6da <__kernel_rem_pio2f+0x49a>
 800e872:	eddf 7a0d 	vldr	s15, [pc, #52]	; 800e8a8 <__kernel_rem_pio2f+0x668>
 800e876:	2a00      	cmp	r2, #0
 800e878:	f43f af2c 	beq.w	800e6d4 <__kernel_rem_pio2f+0x494>
 800e87c:	e728      	b.n	800e6d0 <__kernel_rem_pio2f+0x490>
 800e87e:	9b04      	ldr	r3, [sp, #16]
 800e880:	ea4f 0c83 	mov.w	ip, r3, lsl #2
 800e884:	e53c      	b.n	800e300 <__kernel_rem_pio2f+0xc0>
 800e886:	9b68      	ldr	r3, [sp, #416]	; 0x1a0
 800e888:	2b03      	cmp	r3, #3
 800e88a:	f47f af26 	bne.w	800e6da <__kernel_rem_pio2f+0x49a>
 800e88e:	eddf 7a06 	vldr	s15, [pc, #24]	; 800e8a8 <__kernel_rem_pio2f+0x668>
 800e892:	2a00      	cmp	r2, #0
 800e894:	d1c8      	bne.n	800e828 <__kernel_rem_pio2f+0x5e8>
 800e896:	e771      	b.n	800e77c <__kernel_rem_pio2f+0x53c>
 800e898:	eddf 7a03 	vldr	s15, [pc, #12]	; 800e8a8 <__kernel_rem_pio2f+0x668>
 800e89c:	2a00      	cmp	r2, #0
 800e89e:	d0a2      	beq.n	800e7e6 <__kernel_rem_pio2f+0x5a6>
 800e8a0:	e7d4      	b.n	800e84c <__kernel_rem_pio2f+0x60c>
 800e8a2:	bf00      	nop
 800e8a4:	0801e25c 	.word	0x0801e25c
 800e8a8:	00000000 	.word	0x00000000

0800e8ac <__kernel_sinf>:
__kernel_sinf():
 800e8ac:	ee10 3a10 	vmov	r3, s0
 800e8b0:	f023 4300 	bic.w	r3, r3, #2147483648	; 0x80000000
 800e8b4:	f1b3 5f48 	cmp.w	r3, #838860800	; 0x32000000
 800e8b8:	da04      	bge.n	800e8c4 <__kernel_sinf+0x18>
 800e8ba:	eefd 7ac0 	vcvt.s32.f32	s15, s0
 800e8be:	ee17 3a90 	vmov	r3, s15
 800e8c2:	b35b      	cbz	r3, 800e91c <__kernel_sinf+0x70>
 800e8c4:	ee60 7a00 	vmul.f32	s15, s0, s0
 800e8c8:	ed9f 5a15 	vldr	s10, [pc, #84]	; 800e920 <__kernel_sinf+0x74>
 800e8cc:	eddf 5a15 	vldr	s11, [pc, #84]	; 800e924 <__kernel_sinf+0x78>
 800e8d0:	ed9f 6a15 	vldr	s12, [pc, #84]	; 800e928 <__kernel_sinf+0x7c>
 800e8d4:	eddf 6a15 	vldr	s13, [pc, #84]	; 800e92c <__kernel_sinf+0x80>
 800e8d8:	ed9f 7a15 	vldr	s14, [pc, #84]	; 800e930 <__kernel_sinf+0x84>
 800e8dc:	eee7 5a85 	vfma.f32	s11, s15, s10
 800e8e0:	ee20 5a27 	vmul.f32	s10, s0, s15
 800e8e4:	eea5 6aa7 	vfma.f32	s12, s11, s15
 800e8e8:	eee6 6a27 	vfma.f32	s13, s12, s15
 800e8ec:	eea6 7aa7 	vfma.f32	s14, s13, s15
 800e8f0:	b930      	cbnz	r0, 800e900 <__kernel_sinf+0x54>
 800e8f2:	eddf 6a10 	vldr	s13, [pc, #64]	; 800e934 <__kernel_sinf+0x88>
 800e8f6:	eee7 6a87 	vfma.f32	s13, s15, s14
 800e8fa:	eea6 0a85 	vfma.f32	s0, s13, s10
 800e8fe:	4770      	bx	lr
 800e900:	ee27 7a45 	vnmul.f32	s14, s14, s10
 800e904:	eef6 6a00 	vmov.f32	s13, #96	; 0x3f000000  0.5
 800e908:	eea0 7aa6 	vfma.f32	s14, s1, s13
 800e90c:	eddf 6a0a 	vldr	s13, [pc, #40]	; 800e938 <__kernel_sinf+0x8c>
 800e910:	eed7 0a27 	vfnms.f32	s1, s14, s15
 800e914:	eee5 0a26 	vfma.f32	s1, s10, s13
 800e918:	ee30 0a60 	vsub.f32	s0, s0, s1
 800e91c:	4770      	bx	lr
 800e91e:	bf00      	nop
 800e920:	2f2ec9d3 	.word	0x2f2ec9d3
 800e924:	b2d72f34 	.word	0xb2d72f34
 800e928:	3638ef1b 	.word	0x3638ef1b
 800e92c:	b9500d01 	.word	0xb9500d01
 800e930:	3c088889 	.word	0x3c088889
 800e934:	be2aaaab 	.word	0xbe2aaaab
 800e938:	3e2aaaab 	.word	0x3e2aaaab

0800e93c <fabsf>:
fabsf():
 800e93c:	ee10 3a10 	vmov	r3, s0
 800e940:	f023 4300 	bic.w	r3, r3, #2147483648	; 0x80000000
 800e944:	ee00 3a10 	vmov	s0, r3
 800e948:	4770      	bx	lr
 800e94a:	bf00      	nop

0800e94c <finitef>:
finitef():
 800e94c:	b082      	sub	sp, #8
 800e94e:	ed8d 0a01 	vstr	s0, [sp, #4]
 800e952:	9801      	ldr	r0, [sp, #4]
 800e954:	f020 4000 	bic.w	r0, r0, #2147483648	; 0x80000000
 800e958:	f1b0 4fff 	cmp.w	r0, #2139095040	; 0x7f800000
 800e95c:	bfac      	ite	ge
 800e95e:	2000      	movge	r0, #0
 800e960:	2001      	movlt	r0, #1
 800e962:	b002      	add	sp, #8
 800e964:	4770      	bx	lr
 800e966:	bf00      	nop

0800e968 <nanf>:
nanf():
 800e968:	ed9f 0a01 	vldr	s0, [pc, #4]	; 800e970 <nanf+0x8>
 800e96c:	4770      	bx	lr
 800e96e:	bf00      	nop
 800e970:	7fc00000 	.word	0x7fc00000

0800e974 <scalbnf>:
scalbnf():
 800e974:	b082      	sub	sp, #8
 800e976:	ed8d 0a01 	vstr	s0, [sp, #4]
 800e97a:	9b01      	ldr	r3, [sp, #4]
 800e97c:	f033 4200 	bics.w	r2, r3, #2147483648	; 0x80000000
 800e980:	d02a      	beq.n	800e9d8 <scalbnf+0x64>
 800e982:	f1b2 4fff 	cmp.w	r2, #2139095040	; 0x7f800000
 800e986:	d223      	bcs.n	800e9d0 <scalbnf+0x5c>
 800e988:	f013 4fff 	tst.w	r3, #2139095040	; 0x7f800000
 800e98c:	d128      	bne.n	800e9e0 <scalbnf+0x6c>
 800e98e:	ed9d 7a01 	vldr	s14, [sp, #4]
 800e992:	eddf 7a2a 	vldr	s15, [pc, #168]	; 800ea3c <scalbnf+0xc8>
 800e996:	4b2a      	ldr	r3, [pc, #168]	; (800ea40 <scalbnf+0xcc>)
 800e998:	ee67 7a27 	vmul.f32	s15, s14, s15
 800e99c:	4298      	cmp	r0, r3
 800e99e:	edcd 7a01 	vstr	s15, [sp, #4]
 800e9a2:	db37      	blt.n	800ea14 <scalbnf+0xa0>
 800e9a4:	9b01      	ldr	r3, [sp, #4]
 800e9a6:	f3c3 52c7 	ubfx	r2, r3, #23, #8
 800e9aa:	3a19      	subs	r2, #25
 800e9ac:	4402      	add	r2, r0
 800e9ae:	2afe      	cmp	r2, #254	; 0xfe
 800e9b0:	dd1a      	ble.n	800e9e8 <scalbnf+0x74>
 800e9b2:	ed9f 0a24 	vldr	s0, [pc, #144]	; 800ea44 <scalbnf+0xd0>
 800e9b6:	ed9f 7a24 	vldr	s14, [pc, #144]	; 800ea48 <scalbnf+0xd4>
 800e9ba:	9b01      	ldr	r3, [sp, #4]
 800e9bc:	2b00      	cmp	r3, #0
 800e9be:	eef0 7a40 	vmov.f32	s15, s0
 800e9c2:	bfb8      	it	lt
 800e9c4:	eeb0 0a47 	vmovlt.f32	s0, s14
 800e9c8:	ee20 0a27 	vmul.f32	s0, s0, s15
 800e9cc:	b002      	add	sp, #8
 800e9ce:	4770      	bx	lr
 800e9d0:	ee30 0a00 	vadd.f32	s0, s0, s0
 800e9d4:	b002      	add	sp, #8
 800e9d6:	4770      	bx	lr
 800e9d8:	ed9d 0a01 	vldr	s0, [sp, #4]
 800e9dc:	b002      	add	sp, #8
 800e9de:	4770      	bx	lr
 800e9e0:	0dd2      	lsrs	r2, r2, #23
 800e9e2:	4402      	add	r2, r0
 800e9e4:	2afe      	cmp	r2, #254	; 0xfe
 800e9e6:	dce4      	bgt.n	800e9b2 <scalbnf+0x3e>
 800e9e8:	2a00      	cmp	r2, #0
 800e9ea:	dc0b      	bgt.n	800ea04 <scalbnf+0x90>
 800e9ec:	f112 0f16 	cmn.w	r2, #22
 800e9f0:	da17      	bge.n	800ea22 <scalbnf+0xae>
 800e9f2:	f24c 3350 	movw	r3, #50000	; 0xc350
 800e9f6:	4298      	cmp	r0, r3
 800e9f8:	dcdb      	bgt.n	800e9b2 <scalbnf+0x3e>
 800e9fa:	ed9f 0a14 	vldr	s0, [pc, #80]	; 800ea4c <scalbnf+0xd8>
 800e9fe:	ed9f 7a14 	vldr	s14, [pc, #80]	; 800ea50 <scalbnf+0xdc>
 800ea02:	e7da      	b.n	800e9ba <scalbnf+0x46>
 800ea04:	f023 43ff 	bic.w	r3, r3, #2139095040	; 0x7f800000
 800ea08:	ea43 53c2 	orr.w	r3, r3, r2, lsl #23
 800ea0c:	ee00 3a10 	vmov	s0, r3
 800ea10:	b002      	add	sp, #8
 800ea12:	4770      	bx	lr
 800ea14:	ed9f 0a0d 	vldr	s0, [pc, #52]	; 800ea4c <scalbnf+0xd8>
 800ea18:	eddd 7a01 	vldr	s15, [sp, #4]
 800ea1c:	ee27 0a80 	vmul.f32	s0, s15, s0
 800ea20:	e7d8      	b.n	800e9d4 <scalbnf+0x60>
 800ea22:	3219      	adds	r2, #25
 800ea24:	f023 43ff 	bic.w	r3, r3, #2139095040	; 0x7f800000
 800ea28:	ea43 53c2 	orr.w	r3, r3, r2, lsl #23
 800ea2c:	eddf 7a09 	vldr	s15, [pc, #36]	; 800ea54 <scalbnf+0xe0>
 800ea30:	ee07 3a10 	vmov	s14, r3
 800ea34:	ee27 0a27 	vmul.f32	s0, s14, s15
 800ea38:	e7cc      	b.n	800e9d4 <scalbnf+0x60>
 800ea3a:	bf00      	nop
 800ea3c:	4c000000 	.word	0x4c000000
 800ea40:	ffff3cb0 	.word	0xffff3cb0
 800ea44:	7149f2ca 	.word	0x7149f2ca
 800ea48:	f149f2ca 	.word	0xf149f2ca
 800ea4c:	0da24260 	.word	0x0da24260
 800ea50:	8da24260 	.word	0x8da24260
 800ea54:	33000000 	.word	0x33000000

0800ea58 <__errno>:
__errno():
 800ea58:	4b01      	ldr	r3, [pc, #4]	; (800ea60 <__errno+0x8>)
 800ea5a:	6818      	ldr	r0, [r3, #0]
 800ea5c:	4770      	bx	lr
 800ea5e:	bf00      	nop
 800ea60:	20000068 	.word	0x20000068

0800ea64 <__libc_init_array>:
__libc_init_array():
 800ea64:	b570      	push	{r4, r5, r6, lr}
 800ea66:	4e0d      	ldr	r6, [pc, #52]	; (800ea9c <__libc_init_array+0x38>)
 800ea68:	4d0d      	ldr	r5, [pc, #52]	; (800eaa0 <__libc_init_array+0x3c>)
 800ea6a:	1b76      	subs	r6, r6, r5
 800ea6c:	10b6      	asrs	r6, r6, #2
 800ea6e:	d006      	beq.n	800ea7e <__libc_init_array+0x1a>
 800ea70:	2400      	movs	r4, #0
 800ea72:	f855 3b04 	ldr.w	r3, [r5], #4
 800ea76:	3401      	adds	r4, #1
 800ea78:	4798      	blx	r3
 800ea7a:	42a6      	cmp	r6, r4
 800ea7c:	d1f9      	bne.n	800ea72 <__libc_init_array+0xe>
 800ea7e:	4e09      	ldr	r6, [pc, #36]	; (800eaa4 <__libc_init_array+0x40>)
 800ea80:	4d09      	ldr	r5, [pc, #36]	; (800eaa8 <__libc_init_array+0x44>)
 800ea82:	1b76      	subs	r6, r6, r5
 800ea84:	f000 fd42 	bl	800f50c <_init>
 800ea88:	10b6      	asrs	r6, r6, #2
 800ea8a:	d006      	beq.n	800ea9a <__libc_init_array+0x36>
 800ea8c:	2400      	movs	r4, #0
 800ea8e:	f855 3b04 	ldr.w	r3, [r5], #4
 800ea92:	3401      	adds	r4, #1
 800ea94:	4798      	blx	r3
 800ea96:	42a6      	cmp	r6, r4
 800ea98:	d1f9      	bne.n	800ea8e <__libc_init_array+0x2a>
 800ea9a:	bd70      	pop	{r4, r5, r6, pc}
 800ea9c:	0801e294 	.word	0x0801e294
 800eaa0:	0801e294 	.word	0x0801e294
 800eaa4:	0801e29c 	.word	0x0801e29c
 800eaa8:	0801e294 	.word	0x0801e294

0800eaac <memset>:
memset():
 800eaac:	b4f0      	push	{r4, r5, r6, r7}
 800eaae:	0786      	lsls	r6, r0, #30
 800eab0:	d046      	beq.n	800eb40 <memset+0x94>
 800eab2:	1e54      	subs	r4, r2, #1
 800eab4:	2a00      	cmp	r2, #0
 800eab6:	d03c      	beq.n	800eb32 <memset+0x86>
 800eab8:	b2ca      	uxtb	r2, r1
 800eaba:	4603      	mov	r3, r0
 800eabc:	e001      	b.n	800eac2 <memset+0x16>
 800eabe:	3c01      	subs	r4, #1
 800eac0:	d337      	bcc.n	800eb32 <memset+0x86>
 800eac2:	f803 2b01 	strb.w	r2, [r3], #1
 800eac6:	079d      	lsls	r5, r3, #30
 800eac8:	d1f9      	bne.n	800eabe <memset+0x12>
 800eaca:	2c03      	cmp	r4, #3
 800eacc:	d92a      	bls.n	800eb24 <memset+0x78>
 800eace:	b2cd      	uxtb	r5, r1
 800ead0:	ea45 2505 	orr.w	r5, r5, r5, lsl #8
 800ead4:	2c0f      	cmp	r4, #15
 800ead6:	ea45 4505 	orr.w	r5, r5, r5, lsl #16
 800eada:	d934      	bls.n	800eb46 <memset+0x9a>
 800eadc:	f1a4 0210 	sub.w	r2, r4, #16
 800eae0:	f022 0c0f 	bic.w	ip, r2, #15
 800eae4:	f103 0720 	add.w	r7, r3, #32
 800eae8:	0916      	lsrs	r6, r2, #4
 800eaea:	4467      	add	r7, ip
 800eaec:	f103 0210 	add.w	r2, r3, #16
 800eaf0:	e942 5504 	strd	r5, r5, [r2, #-16]
 800eaf4:	e942 5502 	strd	r5, r5, [r2, #-8]
 800eaf8:	3210      	adds	r2, #16
 800eafa:	42ba      	cmp	r2, r7
 800eafc:	d1f8      	bne.n	800eaf0 <memset+0x44>
 800eafe:	1c72      	adds	r2, r6, #1
 800eb00:	f014 0f0c 	tst.w	r4, #12
 800eb04:	eb03 1202 	add.w	r2, r3, r2, lsl #4
 800eb08:	f004 060f 	and.w	r6, r4, #15
 800eb0c:	d013      	beq.n	800eb36 <memset+0x8a>
 800eb0e:	1f33      	subs	r3, r6, #4
 800eb10:	f023 0303 	bic.w	r3, r3, #3
 800eb14:	3304      	adds	r3, #4
 800eb16:	4413      	add	r3, r2
 800eb18:	f842 5b04 	str.w	r5, [r2], #4
 800eb1c:	4293      	cmp	r3, r2
 800eb1e:	d1fb      	bne.n	800eb18 <memset+0x6c>
 800eb20:	f006 0403 	and.w	r4, r6, #3
 800eb24:	b12c      	cbz	r4, 800eb32 <memset+0x86>
 800eb26:	b2ca      	uxtb	r2, r1
 800eb28:	441c      	add	r4, r3
 800eb2a:	f803 2b01 	strb.w	r2, [r3], #1
 800eb2e:	429c      	cmp	r4, r3
 800eb30:	d1fb      	bne.n	800eb2a <memset+0x7e>
 800eb32:	bcf0      	pop	{r4, r5, r6, r7}
 800eb34:	4770      	bx	lr
 800eb36:	4634      	mov	r4, r6
 800eb38:	4613      	mov	r3, r2
 800eb3a:	2c00      	cmp	r4, #0
 800eb3c:	d1f3      	bne.n	800eb26 <memset+0x7a>
 800eb3e:	e7f8      	b.n	800eb32 <memset+0x86>
 800eb40:	4614      	mov	r4, r2
 800eb42:	4603      	mov	r3, r0
 800eb44:	e7c1      	b.n	800eaca <memset+0x1e>
 800eb46:	461a      	mov	r2, r3
 800eb48:	4626      	mov	r6, r4
 800eb4a:	e7e0      	b.n	800eb0e <memset+0x62>

0800eb4c <srand>:
srand():
 800eb4c:	4b02      	ldr	r3, [pc, #8]	; (800eb58 <srand+0xc>)
 800eb4e:	681b      	ldr	r3, [r3, #0]
 800eb50:	2200      	movs	r2, #0
 800eb52:	e9c3 022a 	strd	r0, r2, [r3, #168]	; 0xa8
 800eb56:	4770      	bx	lr
 800eb58:	20000068 	.word	0x20000068

0800eb5c <rand>:
rand():
 800eb5c:	4b0b      	ldr	r3, [pc, #44]	; (800eb8c <rand+0x30>)
 800eb5e:	480c      	ldr	r0, [pc, #48]	; (800eb90 <rand+0x34>)
 800eb60:	6819      	ldr	r1, [r3, #0]
 800eb62:	e9d1 232a 	ldrd	r2, r3, [r1, #168]	; 0xa8
 800eb66:	b410      	push	{r4}
 800eb68:	4c0a      	ldr	r4, [pc, #40]	; (800eb94 <rand+0x38>)
 800eb6a:	fb00 f002 	mul.w	r0, r0, r2
 800eb6e:	fb04 0003 	mla	r0, r4, r3, r0
 800eb72:	fba2 3404 	umull	r3, r4, r2, r4
 800eb76:	4404      	add	r4, r0
 800eb78:	1c5a      	adds	r2, r3, #1
 800eb7a:	f144 0000 	adc.w	r0, r4, #0
 800eb7e:	e9c1 202a 	strd	r2, r0, [r1, #168]	; 0xa8
 800eb82:	f85d 4b04 	ldr.w	r4, [sp], #4
 800eb86:	f020 4000 	bic.w	r0, r0, #2147483648	; 0x80000000
 800eb8a:	4770      	bx	lr
 800eb8c:	20000068 	.word	0x20000068
 800eb90:	5851f42d 	.word	0x5851f42d
 800eb94:	4c957f2d 	.word	0x4c957f2d

0800eb98 <register_fini>:
register_fini():
 800eb98:	4b02      	ldr	r3, [pc, #8]	; (800eba4 <register_fini+0xc>)
 800eb9a:	b113      	cbz	r3, 800eba2 <register_fini+0xa>
 800eb9c:	4802      	ldr	r0, [pc, #8]	; (800eba8 <register_fini+0x10>)
 800eb9e:	f000 b805 	b.w	800ebac <atexit>
 800eba2:	4770      	bx	lr
 800eba4:	00000000 	.word	0x00000000
 800eba8:	0800ebb9 	.word	0x0800ebb9

0800ebac <atexit>:
atexit():
 800ebac:	2300      	movs	r3, #0
 800ebae:	4601      	mov	r1, r0
 800ebb0:	461a      	mov	r2, r3
 800ebb2:	4618      	mov	r0, r3
 800ebb4:	f000 b81a 	b.w	800ebec <__register_exitproc>

0800ebb8 <__libc_fini_array>:
__libc_fini_array():
 800ebb8:	b538      	push	{r3, r4, r5, lr}
 800ebba:	4b08      	ldr	r3, [pc, #32]	; (800ebdc <__libc_fini_array+0x24>)
 800ebbc:	4d08      	ldr	r5, [pc, #32]	; (800ebe0 <__libc_fini_array+0x28>)
 800ebbe:	1b5b      	subs	r3, r3, r5
 800ebc0:	109c      	asrs	r4, r3, #2
 800ebc2:	d007      	beq.n	800ebd4 <__libc_fini_array+0x1c>
 800ebc4:	3b04      	subs	r3, #4
 800ebc6:	441d      	add	r5, r3
 800ebc8:	3c01      	subs	r4, #1
 800ebca:	f855 3904 	ldr.w	r3, [r5], #-4
 800ebce:	4798      	blx	r3
 800ebd0:	2c00      	cmp	r4, #0
 800ebd2:	d1f9      	bne.n	800ebc8 <__libc_fini_array+0x10>
 800ebd4:	e8bd 4038 	ldmia.w	sp!, {r3, r4, r5, lr}
 800ebd8:	f000 bc9e 	b.w	800f518 <_fini>
 800ebdc:	0801e2a0 	.word	0x0801e2a0
 800ebe0:	0801e29c 	.word	0x0801e29c

0800ebe4 <__retarget_lock_acquire_recursive>:
__retarget_lock_acquire_recursive():
 800ebe4:	4770      	bx	lr
 800ebe6:	bf00      	nop

0800ebe8 <__retarget_lock_release_recursive>:
__retarget_lock_release_recursive():
 800ebe8:	4770      	bx	lr
 800ebea:	bf00      	nop

0800ebec <__register_exitproc>:
__register_exitproc():
 800ebec:	e92d 47f0 	stmdb	sp!, {r4, r5, r6, r7, r8, r9, sl, lr}
 800ebf0:	f8df a080 	ldr.w	sl, [pc, #128]	; 800ec74 <__register_exitproc+0x88>
 800ebf4:	4606      	mov	r6, r0
 800ebf6:	f8da 0000 	ldr.w	r0, [sl]
 800ebfa:	4698      	mov	r8, r3
 800ebfc:	460f      	mov	r7, r1
 800ebfe:	4691      	mov	r9, r2
 800ec00:	f7ff fff0 	bl	800ebe4 <__retarget_lock_acquire_recursive>
 800ec04:	4b1a      	ldr	r3, [pc, #104]	; (800ec70 <__register_exitproc+0x84>)
 800ec06:	681b      	ldr	r3, [r3, #0]
 800ec08:	f8d3 4148 	ldr.w	r4, [r3, #328]	; 0x148
 800ec0c:	b324      	cbz	r4, 800ec58 <__register_exitproc+0x6c>
 800ec0e:	6865      	ldr	r5, [r4, #4]
 800ec10:	2d1f      	cmp	r5, #31
 800ec12:	dc26      	bgt.n	800ec62 <__register_exitproc+0x76>
 800ec14:	b95e      	cbnz	r6, 800ec2e <__register_exitproc+0x42>
 800ec16:	1cab      	adds	r3, r5, #2
 800ec18:	3501      	adds	r5, #1
 800ec1a:	f8da 0000 	ldr.w	r0, [sl]
 800ec1e:	6065      	str	r5, [r4, #4]
 800ec20:	f844 7023 	str.w	r7, [r4, r3, lsl #2]
 800ec24:	f7ff ffe0 	bl	800ebe8 <__retarget_lock_release_recursive>
 800ec28:	2000      	movs	r0, #0
 800ec2a:	e8bd 87f0 	ldmia.w	sp!, {r4, r5, r6, r7, r8, r9, sl, pc}
 800ec2e:	eb04 0385 	add.w	r3, r4, r5, lsl #2
 800ec32:	2101      	movs	r1, #1
 800ec34:	f8c3 9088 	str.w	r9, [r3, #136]	; 0x88
 800ec38:	f8d4 2188 	ldr.w	r2, [r4, #392]	; 0x188
 800ec3c:	40a9      	lsls	r1, r5
 800ec3e:	430a      	orrs	r2, r1
 800ec40:	2e02      	cmp	r6, #2
 800ec42:	f8c4 2188 	str.w	r2, [r4, #392]	; 0x188
 800ec46:	f8c3 8108 	str.w	r8, [r3, #264]	; 0x108
 800ec4a:	d1e4      	bne.n	800ec16 <__register_exitproc+0x2a>
 800ec4c:	f8d4 318c 	ldr.w	r3, [r4, #396]	; 0x18c
 800ec50:	4319      	orrs	r1, r3
 800ec52:	f8c4 118c 	str.w	r1, [r4, #396]	; 0x18c
 800ec56:	e7de      	b.n	800ec16 <__register_exitproc+0x2a>
 800ec58:	f503 74a6 	add.w	r4, r3, #332	; 0x14c
 800ec5c:	f8c3 4148 	str.w	r4, [r3, #328]	; 0x148
 800ec60:	e7d5      	b.n	800ec0e <__register_exitproc+0x22>
 800ec62:	f8da 0000 	ldr.w	r0, [sl]
 800ec66:	f7ff ffbf 	bl	800ebe8 <__retarget_lock_release_recursive>
 800ec6a:	f04f 30ff 	mov.w	r0, #4294967295	; 0xffffffff
 800ec6e:	e7dc      	b.n	800ec2a <__register_exitproc+0x3e>
 800ec70:	0801e290 	.word	0x0801e290
 800ec74:	20000498 	.word	0x20000498

0800ec78 <malloc>:
malloc():
 800ec78:	4b02      	ldr	r3, [pc, #8]	; (800ec84 <malloc+0xc>)
 800ec7a:	4601      	mov	r1, r0
 800ec7c:	6818      	ldr	r0, [r3, #0]
 800ec7e:	f000 b80b 	b.w	800ec98 <_malloc_r>
 800ec82:	bf00      	nop
 800ec84:	20000068 	.word	0x20000068

0800ec88 <free>:
free():
 800ec88:	4b02      	ldr	r3, [pc, #8]	; (800ec94 <free+0xc>)
 800ec8a:	4601      	mov	r1, r0
 800ec8c:	6818      	ldr	r0, [r3, #0]
 800ec8e:	f000 bb2b 	b.w	800f2e8 <_free_r>
 800ec92:	bf00      	nop
 800ec94:	20000068 	.word	0x20000068

0800ec98 <_malloc_r>:
_malloc_r():
 800ec98:	e92d 4ff0 	stmdb	sp!, {r4, r5, r6, r7, r8, r9, sl, fp, lr}
 800ec9c:	f101 050b 	add.w	r5, r1, #11
 800eca0:	2d16      	cmp	r5, #22
 800eca2:	b083      	sub	sp, #12
 800eca4:	4606      	mov	r6, r0
 800eca6:	d824      	bhi.n	800ecf2 <_malloc_r+0x5a>
 800eca8:	2910      	cmp	r1, #16
 800ecaa:	f200 80b7 	bhi.w	800ee1c <_malloc_r+0x184>
 800ecae:	f000 faad 	bl	800f20c <__malloc_lock>
 800ecb2:	2510      	movs	r5, #16
 800ecb4:	2102      	movs	r1, #2
 800ecb6:	2318      	movs	r3, #24
 800ecb8:	f8df 84f0 	ldr.w	r8, [pc, #1264]	; 800f1ac <_malloc_r+0x514>
 800ecbc:	4443      	add	r3, r8
 800ecbe:	f1a3 0208 	sub.w	r2, r3, #8
 800ecc2:	685c      	ldr	r4, [r3, #4]
 800ecc4:	4294      	cmp	r4, r2
 800ecc6:	f000 80b5 	beq.w	800ee34 <_malloc_r+0x19c>
 800ecca:	6863      	ldr	r3, [r4, #4]
 800eccc:	f023 0303 	bic.w	r3, r3, #3
 800ecd0:	4423      	add	r3, r4
 800ecd2:	e9d4 5102 	ldrd	r5, r1, [r4, #8]
 800ecd6:	685a      	ldr	r2, [r3, #4]
 800ecd8:	60e9      	str	r1, [r5, #12]
 800ecda:	f042 0201 	orr.w	r2, r2, #1
 800ecde:	4630      	mov	r0, r6
 800ece0:	608d      	str	r5, [r1, #8]
 800ece2:	605a      	str	r2, [r3, #4]
 800ece4:	f000 fa98 	bl	800f218 <__malloc_unlock>
 800ece8:	3408      	adds	r4, #8
 800ecea:	4620      	mov	r0, r4
 800ecec:	b003      	add	sp, #12
 800ecee:	e8bd 8ff0 	ldmia.w	sp!, {r4, r5, r6, r7, r8, r9, sl, fp, pc}
 800ecf2:	f035 0507 	bics.w	r5, r5, #7
 800ecf6:	f100 8091 	bmi.w	800ee1c <_malloc_r+0x184>
 800ecfa:	42a9      	cmp	r1, r5
 800ecfc:	f200 808e 	bhi.w	800ee1c <_malloc_r+0x184>
 800ed00:	f000 fa84 	bl	800f20c <__malloc_lock>
 800ed04:	f5b5 7ffc 	cmp.w	r5, #504	; 0x1f8
 800ed08:	f0c0 8190 	bcc.w	800f02c <_malloc_r+0x394>
 800ed0c:	0a6b      	lsrs	r3, r5, #9
 800ed0e:	f000 808c 	beq.w	800ee2a <_malloc_r+0x192>
 800ed12:	2b04      	cmp	r3, #4
 800ed14:	f200 8166 	bhi.w	800efe4 <_malloc_r+0x34c>
 800ed18:	09ab      	lsrs	r3, r5, #6
 800ed1a:	f103 0139 	add.w	r1, r3, #57	; 0x39
 800ed1e:	f103 0738 	add.w	r7, r3, #56	; 0x38
 800ed22:	00cb      	lsls	r3, r1, #3
 800ed24:	f8df 8484 	ldr.w	r8, [pc, #1156]	; 800f1ac <_malloc_r+0x514>
 800ed28:	4443      	add	r3, r8
 800ed2a:	f1a3 0008 	sub.w	r0, r3, #8
 800ed2e:	685c      	ldr	r4, [r3, #4]
 800ed30:	42a0      	cmp	r0, r4
 800ed32:	d106      	bne.n	800ed42 <_malloc_r+0xaa>
 800ed34:	e00c      	b.n	800ed50 <_malloc_r+0xb8>
 800ed36:	2a00      	cmp	r2, #0
 800ed38:	f280 8122 	bge.w	800ef80 <_malloc_r+0x2e8>
 800ed3c:	68e4      	ldr	r4, [r4, #12]
 800ed3e:	42a0      	cmp	r0, r4
 800ed40:	d006      	beq.n	800ed50 <_malloc_r+0xb8>
 800ed42:	6863      	ldr	r3, [r4, #4]
 800ed44:	f023 0303 	bic.w	r3, r3, #3
 800ed48:	1b5a      	subs	r2, r3, r5
 800ed4a:	2a0f      	cmp	r2, #15
 800ed4c:	ddf3      	ble.n	800ed36 <_malloc_r+0x9e>
 800ed4e:	4639      	mov	r1, r7
 800ed50:	f8d8 4010 	ldr.w	r4, [r8, #16]
 800ed54:	f8df c458 	ldr.w	ip, [pc, #1112]	; 800f1b0 <_malloc_r+0x518>
 800ed58:	4564      	cmp	r4, ip
 800ed5a:	d077      	beq.n	800ee4c <_malloc_r+0x1b4>
 800ed5c:	6862      	ldr	r2, [r4, #4]
 800ed5e:	f022 0203 	bic.w	r2, r2, #3
 800ed62:	1b53      	subs	r3, r2, r5
 800ed64:	2b0f      	cmp	r3, #15
 800ed66:	f300 816f 	bgt.w	800f048 <_malloc_r+0x3b0>
 800ed6a:	2b00      	cmp	r3, #0
 800ed6c:	e9c8 cc04 	strd	ip, ip, [r8, #16]
 800ed70:	f280 8160 	bge.w	800f034 <_malloc_r+0x39c>
 800ed74:	f5b2 7f00 	cmp.w	r2, #512	; 0x200
 800ed78:	f080 8110 	bcs.w	800ef9c <_malloc_r+0x304>
 800ed7c:	08d3      	lsrs	r3, r2, #3
 800ed7e:	3301      	adds	r3, #1
 800ed80:	0950      	lsrs	r0, r2, #5
 800ed82:	2201      	movs	r2, #1
 800ed84:	4082      	lsls	r2, r0
 800ed86:	f8d8 0004 	ldr.w	r0, [r8, #4]
 800ed8a:	f858 7033 	ldr.w	r7, [r8, r3, lsl #3]
 800ed8e:	60a7      	str	r7, [r4, #8]
 800ed90:	eb08 0ec3 	add.w	lr, r8, r3, lsl #3
 800ed94:	4302      	orrs	r2, r0
 800ed96:	f1ae 0008 	sub.w	r0, lr, #8
 800ed9a:	60e0      	str	r0, [r4, #12]
 800ed9c:	f8c8 2004 	str.w	r2, [r8, #4]
 800eda0:	f848 4033 	str.w	r4, [r8, r3, lsl #3]
 800eda4:	60fc      	str	r4, [r7, #12]
 800eda6:	108b      	asrs	r3, r1, #2
 800eda8:	2001      	movs	r0, #1
 800edaa:	4098      	lsls	r0, r3
 800edac:	4290      	cmp	r0, r2
 800edae:	d854      	bhi.n	800ee5a <_malloc_r+0x1c2>
 800edb0:	4210      	tst	r0, r2
 800edb2:	d106      	bne.n	800edc2 <_malloc_r+0x12a>
 800edb4:	f021 0103 	bic.w	r1, r1, #3
 800edb8:	0040      	lsls	r0, r0, #1
 800edba:	4210      	tst	r0, r2
 800edbc:	f101 0104 	add.w	r1, r1, #4
 800edc0:	d0fa      	beq.n	800edb8 <_malloc_r+0x120>
 800edc2:	eb08 09c1 	add.w	r9, r8, r1, lsl #3
 800edc6:	464c      	mov	r4, r9
 800edc8:	468e      	mov	lr, r1
 800edca:	68e7      	ldr	r7, [r4, #12]
 800edcc:	42bc      	cmp	r4, r7
 800edce:	d107      	bne.n	800ede0 <_malloc_r+0x148>
 800edd0:	e114      	b.n	800effc <_malloc_r+0x364>
 800edd2:	2b00      	cmp	r3, #0
 800edd4:	f280 811b 	bge.w	800f00e <_malloc_r+0x376>
 800edd8:	68ff      	ldr	r7, [r7, #12]
 800edda:	42bc      	cmp	r4, r7
 800eddc:	f000 810e 	beq.w	800effc <_malloc_r+0x364>
 800ede0:	687a      	ldr	r2, [r7, #4]
 800ede2:	f022 0203 	bic.w	r2, r2, #3
 800ede6:	1b53      	subs	r3, r2, r5
 800ede8:	2b0f      	cmp	r3, #15
 800edea:	ddf2      	ble.n	800edd2 <_malloc_r+0x13a>
 800edec:	e9d7 e402 	ldrd	lr, r4, [r7, #8]
 800edf0:	1979      	adds	r1, r7, r5
 800edf2:	f045 0501 	orr.w	r5, r5, #1
 800edf6:	607d      	str	r5, [r7, #4]
 800edf8:	f043 0501 	orr.w	r5, r3, #1
 800edfc:	f8ce 400c 	str.w	r4, [lr, #12]
 800ee00:	4630      	mov	r0, r6
 800ee02:	f8c4 e008 	str.w	lr, [r4, #8]
 800ee06:	e9c8 1104 	strd	r1, r1, [r8, #16]
 800ee0a:	e9c1 cc02 	strd	ip, ip, [r1, #8]
 800ee0e:	604d      	str	r5, [r1, #4]
 800ee10:	50bb      	str	r3, [r7, r2]
 800ee12:	f000 fa01 	bl	800f218 <__malloc_unlock>
 800ee16:	f107 0408 	add.w	r4, r7, #8
 800ee1a:	e002      	b.n	800ee22 <_malloc_r+0x18a>
 800ee1c:	230c      	movs	r3, #12
 800ee1e:	6033      	str	r3, [r6, #0]
 800ee20:	2400      	movs	r4, #0
 800ee22:	4620      	mov	r0, r4
 800ee24:	b003      	add	sp, #12
 800ee26:	e8bd 8ff0 	ldmia.w	sp!, {r4, r5, r6, r7, r8, r9, sl, fp, pc}
 800ee2a:	f44f 7300 	mov.w	r3, #512	; 0x200
 800ee2e:	2140      	movs	r1, #64	; 0x40
 800ee30:	273f      	movs	r7, #63	; 0x3f
 800ee32:	e777      	b.n	800ed24 <_malloc_r+0x8c>
 800ee34:	68dc      	ldr	r4, [r3, #12]
 800ee36:	42a3      	cmp	r3, r4
 800ee38:	bf08      	it	eq
 800ee3a:	3102      	addeq	r1, #2
 800ee3c:	f47f af45 	bne.w	800ecca <_malloc_r+0x32>
 800ee40:	f8d8 4010 	ldr.w	r4, [r8, #16]
 800ee44:	f8df c368 	ldr.w	ip, [pc, #872]	; 800f1b0 <_malloc_r+0x518>
 800ee48:	4564      	cmp	r4, ip
 800ee4a:	d187      	bne.n	800ed5c <_malloc_r+0xc4>
 800ee4c:	f8d8 2004 	ldr.w	r2, [r8, #4]
 800ee50:	108b      	asrs	r3, r1, #2
 800ee52:	2001      	movs	r0, #1
 800ee54:	4098      	lsls	r0, r3
 800ee56:	4290      	cmp	r0, r2
 800ee58:	d9aa      	bls.n	800edb0 <_malloc_r+0x118>
 800ee5a:	f8d8 4008 	ldr.w	r4, [r8, #8]
 800ee5e:	6867      	ldr	r7, [r4, #4]
 800ee60:	f027 0703 	bic.w	r7, r7, #3
 800ee64:	42bd      	cmp	r5, r7
 800ee66:	d802      	bhi.n	800ee6e <_malloc_r+0x1d6>
 800ee68:	1b7b      	subs	r3, r7, r5
 800ee6a:	2b0f      	cmp	r3, #15
 800ee6c:	dc77      	bgt.n	800ef5e <_malloc_r+0x2c6>
 800ee6e:	f8df 9344 	ldr.w	r9, [pc, #836]	; 800f1b4 <_malloc_r+0x51c>
 800ee72:	4bca      	ldr	r3, [pc, #808]	; (800f19c <_malloc_r+0x504>)
 800ee74:	f8d9 2000 	ldr.w	r2, [r9]
 800ee78:	681b      	ldr	r3, [r3, #0]
 800ee7a:	3201      	adds	r2, #1
 800ee7c:	442b      	add	r3, r5
 800ee7e:	eb04 0a07 	add.w	sl, r4, r7
 800ee82:	f000 812e 	beq.w	800f0e2 <_malloc_r+0x44a>
 800ee86:	f503 5380 	add.w	r3, r3, #4096	; 0x1000
 800ee8a:	330f      	adds	r3, #15
 800ee8c:	f423 6b7f 	bic.w	fp, r3, #4080	; 0xff0
 800ee90:	f02b 0b0f 	bic.w	fp, fp, #15
 800ee94:	4659      	mov	r1, fp
 800ee96:	4630      	mov	r0, r6
 800ee98:	f000 f9c4 	bl	800f224 <_sbrk_r>
 800ee9c:	1c41      	adds	r1, r0, #1
 800ee9e:	4602      	mov	r2, r0
 800eea0:	f000 80eb 	beq.w	800f07a <_malloc_r+0x3e2>
 800eea4:	4582      	cmp	sl, r0
 800eea6:	f200 80e6 	bhi.w	800f076 <_malloc_r+0x3de>
 800eeaa:	4bbd      	ldr	r3, [pc, #756]	; (800f1a0 <_malloc_r+0x508>)
 800eeac:	6819      	ldr	r1, [r3, #0]
 800eeae:	4459      	add	r1, fp
 800eeb0:	6019      	str	r1, [r3, #0]
 800eeb2:	4608      	mov	r0, r1
 800eeb4:	f000 814b 	beq.w	800f14e <_malloc_r+0x4b6>
 800eeb8:	f8d9 1000 	ldr.w	r1, [r9]
 800eebc:	9301      	str	r3, [sp, #4]
 800eebe:	3101      	adds	r1, #1
 800eec0:	bf1b      	ittet	ne
 800eec2:	eba2 0a0a 	subne.w	sl, r2, sl
 800eec6:	4450      	addne	r0, sl
 800eec8:	f8c9 2000 	streq.w	r2, [r9]
 800eecc:	6018      	strne	r0, [r3, #0]
 800eece:	f012 0a07 	ands.w	sl, r2, #7
 800eed2:	f000 8114 	beq.w	800f0fe <_malloc_r+0x466>
 800eed6:	f1ca 0108 	rsb	r1, sl, #8
 800eeda:	440a      	add	r2, r1
 800eedc:	f5ca 5180 	rsb	r1, sl, #4096	; 0x1000
 800eee0:	4493      	add	fp, r2
 800eee2:	3108      	adds	r1, #8
 800eee4:	eba1 010b 	sub.w	r1, r1, fp
 800eee8:	f3c1 090b 	ubfx	r9, r1, #0, #12
 800eeec:	4649      	mov	r1, r9
 800eeee:	4630      	mov	r0, r6
 800eef0:	9200      	str	r2, [sp, #0]
 800eef2:	f000 f997 	bl	800f224 <_sbrk_r>
 800eef6:	1c42      	adds	r2, r0, #1
 800eef8:	e9dd 2300 	ldrd	r2, r3, [sp]
 800eefc:	f000 815c 	beq.w	800f1b8 <_malloc_r+0x520>
 800ef00:	1a80      	subs	r0, r0, r2
 800ef02:	eb00 0b09 	add.w	fp, r0, r9
 800ef06:	6819      	ldr	r1, [r3, #0]
 800ef08:	f8c8 2008 	str.w	r2, [r8, #8]
 800ef0c:	f04b 0001 	orr.w	r0, fp, #1
 800ef10:	4449      	add	r1, r9
 800ef12:	4544      	cmp	r4, r8
 800ef14:	6050      	str	r0, [r2, #4]
 800ef16:	6019      	str	r1, [r3, #0]
 800ef18:	f000 8126 	beq.w	800f168 <_malloc_r+0x4d0>
 800ef1c:	2f0f      	cmp	r7, #15
 800ef1e:	f240 8125 	bls.w	800f16c <_malloc_r+0x4d4>
 800ef22:	6860      	ldr	r0, [r4, #4]
 800ef24:	3f0c      	subs	r7, #12
 800ef26:	f027 0707 	bic.w	r7, r7, #7
 800ef2a:	f000 0001 	and.w	r0, r0, #1
 800ef2e:	eb04 0c07 	add.w	ip, r4, r7
 800ef32:	4338      	orrs	r0, r7
 800ef34:	f04f 0e05 	mov.w	lr, #5
 800ef38:	2f0f      	cmp	r7, #15
 800ef3a:	6060      	str	r0, [r4, #4]
 800ef3c:	e9cc ee01 	strd	lr, lr, [ip, #4]
 800ef40:	f200 8142 	bhi.w	800f1c8 <_malloc_r+0x530>
 800ef44:	6850      	ldr	r0, [r2, #4]
 800ef46:	4614      	mov	r4, r2
 800ef48:	4b96      	ldr	r3, [pc, #600]	; (800f1a4 <_malloc_r+0x50c>)
 800ef4a:	681a      	ldr	r2, [r3, #0]
 800ef4c:	428a      	cmp	r2, r1
 800ef4e:	bf38      	it	cc
 800ef50:	6019      	strcc	r1, [r3, #0]
 800ef52:	4b95      	ldr	r3, [pc, #596]	; (800f1a8 <_malloc_r+0x510>)
 800ef54:	681a      	ldr	r2, [r3, #0]
 800ef56:	428a      	cmp	r2, r1
 800ef58:	bf38      	it	cc
 800ef5a:	6019      	strcc	r1, [r3, #0]
 800ef5c:	e090      	b.n	800f080 <_malloc_r+0x3e8>
 800ef5e:	1962      	adds	r2, r4, r5
 800ef60:	f043 0301 	orr.w	r3, r3, #1
 800ef64:	f045 0501 	orr.w	r5, r5, #1
 800ef68:	6065      	str	r5, [r4, #4]
 800ef6a:	4630      	mov	r0, r6
 800ef6c:	f8c8 2008 	str.w	r2, [r8, #8]
 800ef70:	6053      	str	r3, [r2, #4]
 800ef72:	f000 f951 	bl	800f218 <__malloc_unlock>
 800ef76:	3408      	adds	r4, #8
 800ef78:	4620      	mov	r0, r4
 800ef7a:	b003      	add	sp, #12
 800ef7c:	e8bd 8ff0 	ldmia.w	sp!, {r4, r5, r6, r7, r8, r9, sl, fp, pc}
 800ef80:	4423      	add	r3, r4
 800ef82:	68e1      	ldr	r1, [r4, #12]
 800ef84:	685a      	ldr	r2, [r3, #4]
 800ef86:	68a5      	ldr	r5, [r4, #8]
 800ef88:	f042 0201 	orr.w	r2, r2, #1
 800ef8c:	60e9      	str	r1, [r5, #12]
 800ef8e:	4630      	mov	r0, r6
 800ef90:	608d      	str	r5, [r1, #8]
 800ef92:	605a      	str	r2, [r3, #4]
 800ef94:	f000 f940 	bl	800f218 <__malloc_unlock>
 800ef98:	3408      	adds	r4, #8
 800ef9a:	e742      	b.n	800ee22 <_malloc_r+0x18a>
 800ef9c:	f5b2 6f20 	cmp.w	r2, #2560	; 0xa00
 800efa0:	ea4f 2352 	mov.w	r3, r2, lsr #9
 800efa4:	d361      	bcc.n	800f06a <_malloc_r+0x3d2>
 800efa6:	2b14      	cmp	r3, #20
 800efa8:	f200 80ba 	bhi.w	800f120 <_malloc_r+0x488>
 800efac:	f103 005c 	add.w	r0, r3, #92	; 0x5c
 800efb0:	00c0      	lsls	r0, r0, #3
 800efb2:	335b      	adds	r3, #91	; 0x5b
 800efb4:	eb08 0700 	add.w	r7, r8, r0
 800efb8:	f858 0000 	ldr.w	r0, [r8, r0]
 800efbc:	3f08      	subs	r7, #8
 800efbe:	4287      	cmp	r7, r0
 800efc0:	f000 8092 	beq.w	800f0e8 <_malloc_r+0x450>
 800efc4:	6843      	ldr	r3, [r0, #4]
 800efc6:	f023 0303 	bic.w	r3, r3, #3
 800efca:	4293      	cmp	r3, r2
 800efcc:	d902      	bls.n	800efd4 <_malloc_r+0x33c>
 800efce:	6880      	ldr	r0, [r0, #8]
 800efd0:	4287      	cmp	r7, r0
 800efd2:	d1f7      	bne.n	800efc4 <_malloc_r+0x32c>
 800efd4:	68c7      	ldr	r7, [r0, #12]
 800efd6:	f8d8 2004 	ldr.w	r2, [r8, #4]
 800efda:	e9c4 0702 	strd	r0, r7, [r4, #8]
 800efde:	60bc      	str	r4, [r7, #8]
 800efe0:	60c4      	str	r4, [r0, #12]
 800efe2:	e6e0      	b.n	800eda6 <_malloc_r+0x10e>
 800efe4:	2b14      	cmp	r3, #20
 800efe6:	d959      	bls.n	800f09c <_malloc_r+0x404>
 800efe8:	2b54      	cmp	r3, #84	; 0x54
 800efea:	f200 80a1 	bhi.w	800f130 <_malloc_r+0x498>
 800efee:	0b2b      	lsrs	r3, r5, #12
 800eff0:	f103 016f 	add.w	r1, r3, #111	; 0x6f
 800eff4:	f103 076e 	add.w	r7, r3, #110	; 0x6e
 800eff8:	00cb      	lsls	r3, r1, #3
 800effa:	e693      	b.n	800ed24 <_malloc_r+0x8c>
 800effc:	f10e 0e01 	add.w	lr, lr, #1
 800f000:	f01e 0f03 	tst.w	lr, #3
 800f004:	f104 0408 	add.w	r4, r4, #8
 800f008:	f47f aedf 	bne.w	800edca <_malloc_r+0x132>
 800f00c:	e051      	b.n	800f0b2 <_malloc_r+0x41a>
 800f00e:	443a      	add	r2, r7
 800f010:	463c      	mov	r4, r7
 800f012:	6853      	ldr	r3, [r2, #4]
 800f014:	68f9      	ldr	r1, [r7, #12]
 800f016:	f854 5f08 	ldr.w	r5, [r4, #8]!
 800f01a:	f043 0301 	orr.w	r3, r3, #1
 800f01e:	6053      	str	r3, [r2, #4]
 800f020:	4630      	mov	r0, r6
 800f022:	60e9      	str	r1, [r5, #12]
 800f024:	608d      	str	r5, [r1, #8]
 800f026:	f000 f8f7 	bl	800f218 <__malloc_unlock>
 800f02a:	e6fa      	b.n	800ee22 <_malloc_r+0x18a>
 800f02c:	08e9      	lsrs	r1, r5, #3
 800f02e:	f105 0308 	add.w	r3, r5, #8
 800f032:	e641      	b.n	800ecb8 <_malloc_r+0x20>
 800f034:	4422      	add	r2, r4
 800f036:	4630      	mov	r0, r6
 800f038:	6853      	ldr	r3, [r2, #4]
 800f03a:	f043 0301 	orr.w	r3, r3, #1
 800f03e:	6053      	str	r3, [r2, #4]
 800f040:	3408      	adds	r4, #8
 800f042:	f000 f8e9 	bl	800f218 <__malloc_unlock>
 800f046:	e6ec      	b.n	800ee22 <_malloc_r+0x18a>
 800f048:	1961      	adds	r1, r4, r5
 800f04a:	f043 0701 	orr.w	r7, r3, #1
 800f04e:	f045 0501 	orr.w	r5, r5, #1
 800f052:	6065      	str	r5, [r4, #4]
 800f054:	4630      	mov	r0, r6
 800f056:	e9c8 1104 	strd	r1, r1, [r8, #16]
 800f05a:	e9c1 cc02 	strd	ip, ip, [r1, #8]
 800f05e:	604f      	str	r7, [r1, #4]
 800f060:	50a3      	str	r3, [r4, r2]
 800f062:	f000 f8d9 	bl	800f218 <__malloc_unlock>
 800f066:	3408      	adds	r4, #8
 800f068:	e6db      	b.n	800ee22 <_malloc_r+0x18a>
 800f06a:	0993      	lsrs	r3, r2, #6
 800f06c:	f103 0039 	add.w	r0, r3, #57	; 0x39
 800f070:	00c0      	lsls	r0, r0, #3
 800f072:	3338      	adds	r3, #56	; 0x38
 800f074:	e79e      	b.n	800efb4 <_malloc_r+0x31c>
 800f076:	4544      	cmp	r4, r8
 800f078:	d064      	beq.n	800f144 <_malloc_r+0x4ac>
 800f07a:	f8d8 4008 	ldr.w	r4, [r8, #8]
 800f07e:	6860      	ldr	r0, [r4, #4]
 800f080:	f020 0b03 	bic.w	fp, r0, #3
 800f084:	455d      	cmp	r5, fp
 800f086:	ebab 0305 	sub.w	r3, fp, r5
 800f08a:	d802      	bhi.n	800f092 <_malloc_r+0x3fa>
 800f08c:	2b0f      	cmp	r3, #15
 800f08e:	f73f af66 	bgt.w	800ef5e <_malloc_r+0x2c6>
 800f092:	4630      	mov	r0, r6
 800f094:	f000 f8c0 	bl	800f218 <__malloc_unlock>
 800f098:	2400      	movs	r4, #0
 800f09a:	e6c2      	b.n	800ee22 <_malloc_r+0x18a>
 800f09c:	f103 015c 	add.w	r1, r3, #92	; 0x5c
 800f0a0:	f103 075b 	add.w	r7, r3, #91	; 0x5b
 800f0a4:	00cb      	lsls	r3, r1, #3
 800f0a6:	e63d      	b.n	800ed24 <_malloc_r+0x8c>
 800f0a8:	f859 3908 	ldr.w	r3, [r9], #-8
 800f0ac:	454b      	cmp	r3, r9
 800f0ae:	f040 80aa 	bne.w	800f206 <_malloc_r+0x56e>
 800f0b2:	f011 0f03 	tst.w	r1, #3
 800f0b6:	f101 31ff 	add.w	r1, r1, #4294967295	; 0xffffffff
 800f0ba:	d1f5      	bne.n	800f0a8 <_malloc_r+0x410>
 800f0bc:	f8d8 3004 	ldr.w	r3, [r8, #4]
 800f0c0:	ea23 0300 	bic.w	r3, r3, r0
 800f0c4:	f8c8 3004 	str.w	r3, [r8, #4]
 800f0c8:	0040      	lsls	r0, r0, #1
 800f0ca:	4298      	cmp	r0, r3
 800f0cc:	f63f aec5 	bhi.w	800ee5a <_malloc_r+0x1c2>
 800f0d0:	b918      	cbnz	r0, 800f0da <_malloc_r+0x442>
 800f0d2:	e6c2      	b.n	800ee5a <_malloc_r+0x1c2>
 800f0d4:	0040      	lsls	r0, r0, #1
 800f0d6:	f10e 0e04 	add.w	lr, lr, #4
 800f0da:	4218      	tst	r0, r3
 800f0dc:	d0fa      	beq.n	800f0d4 <_malloc_r+0x43c>
 800f0de:	4671      	mov	r1, lr
 800f0e0:	e66f      	b.n	800edc2 <_malloc_r+0x12a>
 800f0e2:	f103 0b10 	add.w	fp, r3, #16
 800f0e6:	e6d5      	b.n	800ee94 <_malloc_r+0x1fc>
 800f0e8:	109a      	asrs	r2, r3, #2
 800f0ea:	f04f 0e01 	mov.w	lr, #1
 800f0ee:	f8d8 3004 	ldr.w	r3, [r8, #4]
 800f0f2:	fa0e f202 	lsl.w	r2, lr, r2
 800f0f6:	431a      	orrs	r2, r3
 800f0f8:	f8c8 2004 	str.w	r2, [r8, #4]
 800f0fc:	e76d      	b.n	800efda <_malloc_r+0x342>
 800f0fe:	eb02 010b 	add.w	r1, r2, fp
 800f102:	4249      	negs	r1, r1
 800f104:	f3c1 090b 	ubfx	r9, r1, #0, #12
 800f108:	4649      	mov	r1, r9
 800f10a:	4630      	mov	r0, r6
 800f10c:	9200      	str	r2, [sp, #0]
 800f10e:	f000 f889 	bl	800f224 <_sbrk_r>
 800f112:	1c43      	adds	r3, r0, #1
 800f114:	e9dd 2300 	ldrd	r2, r3, [sp]
 800f118:	f47f aef2 	bne.w	800ef00 <_malloc_r+0x268>
 800f11c:	46d1      	mov	r9, sl
 800f11e:	e6f2      	b.n	800ef06 <_malloc_r+0x26e>
 800f120:	2b54      	cmp	r3, #84	; 0x54
 800f122:	d826      	bhi.n	800f172 <_malloc_r+0x4da>
 800f124:	0b13      	lsrs	r3, r2, #12
 800f126:	f103 006f 	add.w	r0, r3, #111	; 0x6f
 800f12a:	00c0      	lsls	r0, r0, #3
 800f12c:	336e      	adds	r3, #110	; 0x6e
 800f12e:	e741      	b.n	800efb4 <_malloc_r+0x31c>
 800f130:	f5b3 7faa 	cmp.w	r3, #340	; 0x154
 800f134:	d826      	bhi.n	800f184 <_malloc_r+0x4ec>
 800f136:	0beb      	lsrs	r3, r5, #15
 800f138:	f103 0178 	add.w	r1, r3, #120	; 0x78
 800f13c:	f103 0777 	add.w	r7, r3, #119	; 0x77
 800f140:	00cb      	lsls	r3, r1, #3
 800f142:	e5ef      	b.n	800ed24 <_malloc_r+0x8c>
 800f144:	4b16      	ldr	r3, [pc, #88]	; (800f1a0 <_malloc_r+0x508>)
 800f146:	6818      	ldr	r0, [r3, #0]
 800f148:	4458      	add	r0, fp
 800f14a:	6018      	str	r0, [r3, #0]
 800f14c:	e6b4      	b.n	800eeb8 <_malloc_r+0x220>
 800f14e:	f3ca 0c0b 	ubfx	ip, sl, #0, #12
 800f152:	f1bc 0f00 	cmp.w	ip, #0
 800f156:	f47f aeaf 	bne.w	800eeb8 <_malloc_r+0x220>
 800f15a:	f8d8 4008 	ldr.w	r4, [r8, #8]
 800f15e:	44bb      	add	fp, r7
 800f160:	f04b 0001 	orr.w	r0, fp, #1
 800f164:	6060      	str	r0, [r4, #4]
 800f166:	e6ef      	b.n	800ef48 <_malloc_r+0x2b0>
 800f168:	4614      	mov	r4, r2
 800f16a:	e6ed      	b.n	800ef48 <_malloc_r+0x2b0>
 800f16c:	2301      	movs	r3, #1
 800f16e:	6053      	str	r3, [r2, #4]
 800f170:	e78f      	b.n	800f092 <_malloc_r+0x3fa>
 800f172:	f5b3 7faa 	cmp.w	r3, #340	; 0x154
 800f176:	d833      	bhi.n	800f1e0 <_malloc_r+0x548>
 800f178:	0bd3      	lsrs	r3, r2, #15
 800f17a:	f103 0078 	add.w	r0, r3, #120	; 0x78
 800f17e:	00c0      	lsls	r0, r0, #3
 800f180:	3377      	adds	r3, #119	; 0x77
 800f182:	e717      	b.n	800efb4 <_malloc_r+0x31c>
 800f184:	f240 5254 	movw	r2, #1364	; 0x554
 800f188:	4293      	cmp	r3, r2
 800f18a:	d833      	bhi.n	800f1f4 <_malloc_r+0x55c>
 800f18c:	0cab      	lsrs	r3, r5, #18
 800f18e:	f103 017d 	add.w	r1, r3, #125	; 0x7d
 800f192:	f103 077c 	add.w	r7, r3, #124	; 0x7c
 800f196:	00cb      	lsls	r3, r1, #3
 800f198:	e5c4      	b.n	800ed24 <_malloc_r+0x8c>
 800f19a:	bf00      	nop
 800f19c:	2001f820 	.word	0x2001f820
 800f1a0:	2001f7f0 	.word	0x2001f7f0
 800f1a4:	2001f818 	.word	0x2001f818
 800f1a8:	2001f81c 	.word	0x2001f81c
 800f1ac:	2000049c 	.word	0x2000049c
 800f1b0:	200004a4 	.word	0x200004a4
 800f1b4:	200008a4 	.word	0x200008a4
 800f1b8:	f1aa 0a08 	sub.w	sl, sl, #8
 800f1bc:	44d3      	add	fp, sl
 800f1be:	ebab 0b02 	sub.w	fp, fp, r2
 800f1c2:	f04f 0900 	mov.w	r9, #0
 800f1c6:	e69e      	b.n	800ef06 <_malloc_r+0x26e>
 800f1c8:	f104 0108 	add.w	r1, r4, #8
 800f1cc:	4630      	mov	r0, r6
 800f1ce:	9300      	str	r3, [sp, #0]
 800f1d0:	f000 f88a 	bl	800f2e8 <_free_r>
 800f1d4:	f8d8 4008 	ldr.w	r4, [r8, #8]
 800f1d8:	9b00      	ldr	r3, [sp, #0]
 800f1da:	6860      	ldr	r0, [r4, #4]
 800f1dc:	6819      	ldr	r1, [r3, #0]
 800f1de:	e6b3      	b.n	800ef48 <_malloc_r+0x2b0>
 800f1e0:	f240 5054 	movw	r0, #1364	; 0x554
 800f1e4:	4283      	cmp	r3, r0
 800f1e6:	d80a      	bhi.n	800f1fe <_malloc_r+0x566>
 800f1e8:	0c93      	lsrs	r3, r2, #18
 800f1ea:	f103 007d 	add.w	r0, r3, #125	; 0x7d
 800f1ee:	00c0      	lsls	r0, r0, #3
 800f1f0:	337c      	adds	r3, #124	; 0x7c
 800f1f2:	e6df      	b.n	800efb4 <_malloc_r+0x31c>
 800f1f4:	f44f 737e 	mov.w	r3, #1016	; 0x3f8
 800f1f8:	217f      	movs	r1, #127	; 0x7f
 800f1fa:	277e      	movs	r7, #126	; 0x7e
 800f1fc:	e592      	b.n	800ed24 <_malloc_r+0x8c>
 800f1fe:	f44f 707e 	mov.w	r0, #1016	; 0x3f8
 800f202:	237e      	movs	r3, #126	; 0x7e
 800f204:	e6d6      	b.n	800efb4 <_malloc_r+0x31c>
 800f206:	f8d8 3004 	ldr.w	r3, [r8, #4]
 800f20a:	e75d      	b.n	800f0c8 <_malloc_r+0x430>

0800f20c <__malloc_lock>:
__malloc_lock():
 800f20c:	4801      	ldr	r0, [pc, #4]	; (800f214 <__malloc_lock+0x8>)
 800f20e:	f7ff bce9 	b.w	800ebe4 <__retarget_lock_acquire_recursive>
 800f212:	bf00      	nop
 800f214:	2001f838 	.word	0x2001f838

0800f218 <__malloc_unlock>:
__malloc_unlock():
 800f218:	4801      	ldr	r0, [pc, #4]	; (800f220 <__malloc_unlock+0x8>)
 800f21a:	f7ff bce5 	b.w	800ebe8 <__retarget_lock_release_recursive>
 800f21e:	bf00      	nop
 800f220:	2001f838 	.word	0x2001f838

0800f224 <_sbrk_r>:
_sbrk_r():
 800f224:	b538      	push	{r3, r4, r5, lr}
 800f226:	4d07      	ldr	r5, [pc, #28]	; (800f244 <_sbrk_r+0x20>)
 800f228:	2200      	movs	r2, #0
 800f22a:	4604      	mov	r4, r0
 800f22c:	4608      	mov	r0, r1
 800f22e:	602a      	str	r2, [r5, #0]
 800f230:	f000 f95e 	bl	800f4f0 <_sbrk>
 800f234:	1c43      	adds	r3, r0, #1
 800f236:	d000      	beq.n	800f23a <_sbrk_r+0x16>
 800f238:	bd38      	pop	{r3, r4, r5, pc}
 800f23a:	682b      	ldr	r3, [r5, #0]
 800f23c:	2b00      	cmp	r3, #0
 800f23e:	d0fb      	beq.n	800f238 <_sbrk_r+0x14>
 800f240:	6023      	str	r3, [r4, #0]
 800f242:	bd38      	pop	{r3, r4, r5, pc}
 800f244:	2001f84c 	.word	0x2001f84c

0800f248 <_malloc_trim_r>:
_malloc_trim_r():
 800f248:	b5f8      	push	{r3, r4, r5, r6, r7, lr}
 800f24a:	4f24      	ldr	r7, [pc, #144]	; (800f2dc <_malloc_trim_r+0x94>)
 800f24c:	460c      	mov	r4, r1
 800f24e:	4606      	mov	r6, r0
 800f250:	f7ff ffdc 	bl	800f20c <__malloc_lock>
 800f254:	68bb      	ldr	r3, [r7, #8]
 800f256:	685d      	ldr	r5, [r3, #4]
 800f258:	f5c4 617e 	rsb	r1, r4, #4064	; 0xfe0
 800f25c:	310f      	adds	r1, #15
 800f25e:	f025 0503 	bic.w	r5, r5, #3
 800f262:	194b      	adds	r3, r1, r5
 800f264:	f423 637f 	bic.w	r3, r3, #4080	; 0xff0
 800f268:	f023 030f 	bic.w	r3, r3, #15
 800f26c:	f5a3 5480 	sub.w	r4, r3, #4096	; 0x1000
 800f270:	f5b4 5f80 	cmp.w	r4, #4096	; 0x1000
 800f274:	db07      	blt.n	800f286 <_malloc_trim_r+0x3e>
 800f276:	2100      	movs	r1, #0
 800f278:	4630      	mov	r0, r6
 800f27a:	f7ff ffd3 	bl	800f224 <_sbrk_r>
 800f27e:	68bb      	ldr	r3, [r7, #8]
 800f280:	442b      	add	r3, r5
 800f282:	4298      	cmp	r0, r3
 800f284:	d004      	beq.n	800f290 <_malloc_trim_r+0x48>
 800f286:	4630      	mov	r0, r6
 800f288:	f7ff ffc6 	bl	800f218 <__malloc_unlock>
 800f28c:	2000      	movs	r0, #0
 800f28e:	bdf8      	pop	{r3, r4, r5, r6, r7, pc}
 800f290:	4261      	negs	r1, r4
 800f292:	4630      	mov	r0, r6
 800f294:	f7ff ffc6 	bl	800f224 <_sbrk_r>
 800f298:	3001      	adds	r0, #1
 800f29a:	d00d      	beq.n	800f2b8 <_malloc_trim_r+0x70>
 800f29c:	4a10      	ldr	r2, [pc, #64]	; (800f2e0 <_malloc_trim_r+0x98>)
 800f29e:	68b9      	ldr	r1, [r7, #8]
 800f2a0:	6813      	ldr	r3, [r2, #0]
 800f2a2:	1b2d      	subs	r5, r5, r4
 800f2a4:	f045 0501 	orr.w	r5, r5, #1
 800f2a8:	4630      	mov	r0, r6
 800f2aa:	1b1b      	subs	r3, r3, r4
 800f2ac:	604d      	str	r5, [r1, #4]
 800f2ae:	6013      	str	r3, [r2, #0]
 800f2b0:	f7ff ffb2 	bl	800f218 <__malloc_unlock>
 800f2b4:	2001      	movs	r0, #1
 800f2b6:	bdf8      	pop	{r3, r4, r5, r6, r7, pc}
 800f2b8:	2100      	movs	r1, #0
 800f2ba:	4630      	mov	r0, r6
 800f2bc:	f7ff ffb2 	bl	800f224 <_sbrk_r>
 800f2c0:	68ba      	ldr	r2, [r7, #8]
 800f2c2:	1a83      	subs	r3, r0, r2
 800f2c4:	2b0f      	cmp	r3, #15
 800f2c6:	ddde      	ble.n	800f286 <_malloc_trim_r+0x3e>
 800f2c8:	4c06      	ldr	r4, [pc, #24]	; (800f2e4 <_malloc_trim_r+0x9c>)
 800f2ca:	4905      	ldr	r1, [pc, #20]	; (800f2e0 <_malloc_trim_r+0x98>)
 800f2cc:	6824      	ldr	r4, [r4, #0]
 800f2ce:	f043 0301 	orr.w	r3, r3, #1
 800f2d2:	1b00      	subs	r0, r0, r4
 800f2d4:	6053      	str	r3, [r2, #4]
 800f2d6:	6008      	str	r0, [r1, #0]
 800f2d8:	e7d5      	b.n	800f286 <_malloc_trim_r+0x3e>
 800f2da:	bf00      	nop
 800f2dc:	2000049c 	.word	0x2000049c
 800f2e0:	2001f7f0 	.word	0x2001f7f0
 800f2e4:	200008a4 	.word	0x200008a4

0800f2e8 <_free_r>:
_free_r():
 800f2e8:	2900      	cmp	r1, #0
 800f2ea:	d05e      	beq.n	800f3aa <_free_r+0xc2>
 800f2ec:	b5f8      	push	{r3, r4, r5, r6, r7, lr}
 800f2ee:	460c      	mov	r4, r1
 800f2f0:	4606      	mov	r6, r0
 800f2f2:	f7ff ff8b 	bl	800f20c <__malloc_lock>
 800f2f6:	f854 3c04 	ldr.w	r3, [r4, #-4]
 800f2fa:	f8df c1f0 	ldr.w	ip, [pc, #496]	; 800f4ec <_free_r+0x204>
 800f2fe:	f023 0101 	bic.w	r1, r3, #1
 800f302:	f1a4 0008 	sub.w	r0, r4, #8
 800f306:	1842      	adds	r2, r0, r1
 800f308:	f8dc 7008 	ldr.w	r7, [ip, #8]
 800f30c:	6855      	ldr	r5, [r2, #4]
 800f30e:	4297      	cmp	r7, r2
 800f310:	f025 0503 	bic.w	r5, r5, #3
 800f314:	f000 8088 	beq.w	800f428 <_free_r+0x140>
 800f318:	07df      	lsls	r7, r3, #31
 800f31a:	6055      	str	r5, [r2, #4]
 800f31c:	d433      	bmi.n	800f386 <_free_r+0x9e>
 800f31e:	f854 7c08 	ldr.w	r7, [r4, #-8]
 800f322:	1bc0      	subs	r0, r0, r7
 800f324:	f10c 0408 	add.w	r4, ip, #8
 800f328:	6883      	ldr	r3, [r0, #8]
 800f32a:	42a3      	cmp	r3, r4
 800f32c:	4439      	add	r1, r7
 800f32e:	d069      	beq.n	800f404 <_free_r+0x11c>
 800f330:	1957      	adds	r7, r2, r5
 800f332:	f8d0 e00c 	ldr.w	lr, [r0, #12]
 800f336:	687f      	ldr	r7, [r7, #4]
 800f338:	f8c3 e00c 	str.w	lr, [r3, #12]
 800f33c:	f8ce 3008 	str.w	r3, [lr, #8]
 800f340:	07fb      	lsls	r3, r7, #31
 800f342:	f140 8096 	bpl.w	800f472 <_free_r+0x18a>
 800f346:	f041 0301 	orr.w	r3, r1, #1
 800f34a:	6043      	str	r3, [r0, #4]
 800f34c:	6011      	str	r1, [r2, #0]
 800f34e:	f5b1 7f00 	cmp.w	r1, #512	; 0x200
 800f352:	d233      	bcs.n	800f3bc <_free_r+0xd4>
 800f354:	08cb      	lsrs	r3, r1, #3
 800f356:	f8dc 4004 	ldr.w	r4, [ip, #4]
 800f35a:	3301      	adds	r3, #1
 800f35c:	094a      	lsrs	r2, r1, #5
 800f35e:	2101      	movs	r1, #1
 800f360:	4091      	lsls	r1, r2
 800f362:	4321      	orrs	r1, r4
 800f364:	eb0c 02c3 	add.w	r2, ip, r3, lsl #3
 800f368:	f85c 4033 	ldr.w	r4, [ip, r3, lsl #3]
 800f36c:	f8cc 1004 	str.w	r1, [ip, #4]
 800f370:	3a08      	subs	r2, #8
 800f372:	e9c0 4202 	strd	r4, r2, [r0, #8]
 800f376:	f84c 0033 	str.w	r0, [ip, r3, lsl #3]
 800f37a:	60e0      	str	r0, [r4, #12]
 800f37c:	4630      	mov	r0, r6
 800f37e:	e8bd 40f8 	ldmia.w	sp!, {r3, r4, r5, r6, r7, lr}
 800f382:	f7ff bf49 	b.w	800f218 <__malloc_unlock>
 800f386:	1953      	adds	r3, r2, r5
 800f388:	685b      	ldr	r3, [r3, #4]
 800f38a:	07df      	lsls	r7, r3, #31
 800f38c:	d40e      	bmi.n	800f3ac <_free_r+0xc4>
 800f38e:	4429      	add	r1, r5
 800f390:	f10c 0408 	add.w	r4, ip, #8
 800f394:	6893      	ldr	r3, [r2, #8]
 800f396:	42a3      	cmp	r3, r4
 800f398:	d073      	beq.n	800f482 <_free_r+0x19a>
 800f39a:	68d4      	ldr	r4, [r2, #12]
 800f39c:	60dc      	str	r4, [r3, #12]
 800f39e:	f041 0201 	orr.w	r2, r1, #1
 800f3a2:	60a3      	str	r3, [r4, #8]
 800f3a4:	6042      	str	r2, [r0, #4]
 800f3a6:	5041      	str	r1, [r0, r1]
 800f3a8:	e7d1      	b.n	800f34e <_free_r+0x66>
 800f3aa:	4770      	bx	lr
 800f3ac:	f041 0301 	orr.w	r3, r1, #1
 800f3b0:	f5b1 7f00 	cmp.w	r1, #512	; 0x200
 800f3b4:	f844 3c04 	str.w	r3, [r4, #-4]
 800f3b8:	6011      	str	r1, [r2, #0]
 800f3ba:	d3cb      	bcc.n	800f354 <_free_r+0x6c>
 800f3bc:	f5b1 6f20 	cmp.w	r1, #2560	; 0xa00
 800f3c0:	ea4f 2351 	mov.w	r3, r1, lsr #9
 800f3c4:	d24a      	bcs.n	800f45c <_free_r+0x174>
 800f3c6:	098b      	lsrs	r3, r1, #6
 800f3c8:	f103 0539 	add.w	r5, r3, #57	; 0x39
 800f3cc:	00ed      	lsls	r5, r5, #3
 800f3ce:	f103 0238 	add.w	r2, r3, #56	; 0x38
 800f3d2:	f85c 3005 	ldr.w	r3, [ip, r5]
 800f3d6:	eb0c 0405 	add.w	r4, ip, r5
 800f3da:	3c08      	subs	r4, #8
 800f3dc:	429c      	cmp	r4, r3
 800f3de:	d059      	beq.n	800f494 <_free_r+0x1ac>
 800f3e0:	685a      	ldr	r2, [r3, #4]
 800f3e2:	f022 0203 	bic.w	r2, r2, #3
 800f3e6:	428a      	cmp	r2, r1
 800f3e8:	d902      	bls.n	800f3f0 <_free_r+0x108>
 800f3ea:	689b      	ldr	r3, [r3, #8]
 800f3ec:	429c      	cmp	r4, r3
 800f3ee:	d1f7      	bne.n	800f3e0 <_free_r+0xf8>
 800f3f0:	68dc      	ldr	r4, [r3, #12]
 800f3f2:	e9c0 3402 	strd	r3, r4, [r0, #8]
 800f3f6:	60a0      	str	r0, [r4, #8]
 800f3f8:	60d8      	str	r0, [r3, #12]
 800f3fa:	4630      	mov	r0, r6
 800f3fc:	e8bd 40f8 	ldmia.w	sp!, {r3, r4, r5, r6, r7, lr}
 800f400:	f7ff bf0a 	b.w	800f218 <__malloc_unlock>
 800f404:	1953      	adds	r3, r2, r5
 800f406:	685b      	ldr	r3, [r3, #4]
 800f408:	07db      	lsls	r3, r3, #31
 800f40a:	d466      	bmi.n	800f4da <_free_r+0x1f2>
 800f40c:	e9d2 2302 	ldrd	r2, r3, [r2, #8]
 800f410:	4429      	add	r1, r5
 800f412:	f041 0401 	orr.w	r4, r1, #1
 800f416:	60d3      	str	r3, [r2, #12]
 800f418:	609a      	str	r2, [r3, #8]
 800f41a:	6044      	str	r4, [r0, #4]
 800f41c:	5041      	str	r1, [r0, r1]
 800f41e:	4630      	mov	r0, r6
 800f420:	e8bd 40f8 	ldmia.w	sp!, {r3, r4, r5, r6, r7, lr}
 800f424:	f7ff bef8 	b.w	800f218 <__malloc_unlock>
 800f428:	07db      	lsls	r3, r3, #31
 800f42a:	4429      	add	r1, r5
 800f42c:	d407      	bmi.n	800f43e <_free_r+0x156>
 800f42e:	f854 3c08 	ldr.w	r3, [r4, #-8]
 800f432:	1ac0      	subs	r0, r0, r3
 800f434:	4419      	add	r1, r3
 800f436:	e9d0 2302 	ldrd	r2, r3, [r0, #8]
 800f43a:	60d3      	str	r3, [r2, #12]
 800f43c:	609a      	str	r2, [r3, #8]
 800f43e:	4b29      	ldr	r3, [pc, #164]	; (800f4e4 <_free_r+0x1fc>)
 800f440:	681b      	ldr	r3, [r3, #0]
 800f442:	f041 0201 	orr.w	r2, r1, #1
 800f446:	428b      	cmp	r3, r1
 800f448:	6042      	str	r2, [r0, #4]
 800f44a:	f8cc 0008 	str.w	r0, [ip, #8]
 800f44e:	d895      	bhi.n	800f37c <_free_r+0x94>
 800f450:	4b25      	ldr	r3, [pc, #148]	; (800f4e8 <_free_r+0x200>)
 800f452:	4630      	mov	r0, r6
 800f454:	6819      	ldr	r1, [r3, #0]
 800f456:	f7ff fef7 	bl	800f248 <_malloc_trim_r>
 800f45a:	e78f      	b.n	800f37c <_free_r+0x94>
 800f45c:	2b14      	cmp	r3, #20
 800f45e:	d90a      	bls.n	800f476 <_free_r+0x18e>
 800f460:	2b54      	cmp	r3, #84	; 0x54
 800f462:	d821      	bhi.n	800f4a8 <_free_r+0x1c0>
 800f464:	0b0b      	lsrs	r3, r1, #12
 800f466:	f103 056f 	add.w	r5, r3, #111	; 0x6f
 800f46a:	00ed      	lsls	r5, r5, #3
 800f46c:	f103 026e 	add.w	r2, r3, #110	; 0x6e
 800f470:	e7af      	b.n	800f3d2 <_free_r+0xea>
 800f472:	4429      	add	r1, r5
 800f474:	e78e      	b.n	800f394 <_free_r+0xac>
 800f476:	f103 055c 	add.w	r5, r3, #92	; 0x5c
 800f47a:	00ed      	lsls	r5, r5, #3
 800f47c:	f103 025b 	add.w	r2, r3, #91	; 0x5b
 800f480:	e7a7      	b.n	800f3d2 <_free_r+0xea>
 800f482:	f041 0301 	orr.w	r3, r1, #1
 800f486:	e9cc 0004 	strd	r0, r0, [ip, #16]
 800f48a:	e9c0 4402 	strd	r4, r4, [r0, #8]
 800f48e:	6043      	str	r3, [r0, #4]
 800f490:	5041      	str	r1, [r0, r1]
 800f492:	e773      	b.n	800f37c <_free_r+0x94>
 800f494:	f8dc 1004 	ldr.w	r1, [ip, #4]
 800f498:	1092      	asrs	r2, r2, #2
 800f49a:	2501      	movs	r5, #1
 800f49c:	fa05 f202 	lsl.w	r2, r5, r2
 800f4a0:	430a      	orrs	r2, r1
 800f4a2:	f8cc 2004 	str.w	r2, [ip, #4]
 800f4a6:	e7a4      	b.n	800f3f2 <_free_r+0x10a>
 800f4a8:	f5b3 7faa 	cmp.w	r3, #340	; 0x154
 800f4ac:	d806      	bhi.n	800f4bc <_free_r+0x1d4>
 800f4ae:	0bcb      	lsrs	r3, r1, #15
 800f4b0:	f103 0578 	add.w	r5, r3, #120	; 0x78
 800f4b4:	00ed      	lsls	r5, r5, #3
 800f4b6:	f103 0277 	add.w	r2, r3, #119	; 0x77
 800f4ba:	e78a      	b.n	800f3d2 <_free_r+0xea>
 800f4bc:	f240 5254 	movw	r2, #1364	; 0x554
 800f4c0:	4293      	cmp	r3, r2
 800f4c2:	d806      	bhi.n	800f4d2 <_free_r+0x1ea>
 800f4c4:	0c8b      	lsrs	r3, r1, #18
 800f4c6:	f103 057d 	add.w	r5, r3, #125	; 0x7d
 800f4ca:	00ed      	lsls	r5, r5, #3
 800f4cc:	f103 027c 	add.w	r2, r3, #124	; 0x7c
 800f4d0:	e77f      	b.n	800f3d2 <_free_r+0xea>
 800f4d2:	f44f 757e 	mov.w	r5, #1016	; 0x3f8
 800f4d6:	227e      	movs	r2, #126	; 0x7e
 800f4d8:	e77b      	b.n	800f3d2 <_free_r+0xea>
 800f4da:	f041 0301 	orr.w	r3, r1, #1
 800f4de:	6043      	str	r3, [r0, #4]
 800f4e0:	6011      	str	r1, [r2, #0]
 800f4e2:	e74b      	b.n	800f37c <_free_r+0x94>
 800f4e4:	200008a8 	.word	0x200008a8
 800f4e8:	2001f820 	.word	0x2001f820
 800f4ec:	2000049c 	.word	0x2000049c

0800f4f0 <_sbrk>:
_sbrk():
 800f4f0:	4a04      	ldr	r2, [pc, #16]	; (800f504 <_sbrk+0x14>)
 800f4f2:	4905      	ldr	r1, [pc, #20]	; (800f508 <_sbrk+0x18>)
 800f4f4:	6813      	ldr	r3, [r2, #0]
 800f4f6:	2b00      	cmp	r3, #0
 800f4f8:	bf08      	it	eq
 800f4fa:	460b      	moveq	r3, r1
 800f4fc:	4418      	add	r0, r3
 800f4fe:	6010      	str	r0, [r2, #0]
 800f500:	4618      	mov	r0, r3
 800f502:	4770      	bx	lr
 800f504:	2001f824 	.word	0x2001f824
 800f508:	10003ecc 	.word	0x10003ecc

0800f50c <_init>:
_init():
 800f50c:	b5f8      	push	{r3, r4, r5, r6, r7, lr}
 800f50e:	bf00      	nop
 800f510:	bcf8      	pop	{r3, r4, r5, r6, r7}
 800f512:	bc08      	pop	{r3}
 800f514:	469e      	mov	lr, r3
 800f516:	4770      	bx	lr

0800f518 <_fini>:
_fini():
 800f518:	b5f8      	push	{r3, r4, r5, r6, r7, lr}
 800f51a:	bf00      	nop
 800f51c:	bcf8      	pop	{r3, r4, r5, r6, r7}
 800f51e:	bc08      	pop	{r3}
 800f520:	469e      	mov	lr, r3
 800f522:	4770      	bx	lr
