
Dekrispator_v2.elf:     file format elf32-littlearm
Dekrispator_v2.elf
architecture: arm, flags 0x00000112:
EXEC_P, HAS_SYMS, D_PAGED
start address 0x0800e1bd

Program Header:
    LOAD off    0x00008000 vaddr 0x08000000 paddr 0x08000000 align 2**15
         filesz 0x0001f29c memsz 0x0001f29c flags rwx
    LOAD off    0x00028000 vaddr 0x20000000 paddr 0x0801f29c align 2**15
         filesz 0x000008b4 memsz 0x000008b4 flags rw-
    LOAD off    0x00030000 vaddr 0x10000000 paddr 0x0801fb50 align 2**15
         filesz 0x00003eb0 memsz 0x00003eb0 flags rw-
    LOAD off    0x00033eb0 vaddr 0x10003eb0 paddr 0x10003eb0 align 2**15
         filesz 0x00000000 memsz 0x00002000 flags rw-
    LOAD off    0x000388b4 vaddr 0x200008b4 paddr 0x200008b4 align 2**15
         filesz 0x00000000 memsz 0x0001ef00 flags rw-
private flags = 5000402: [Version5 EABI] [hard-float ABI] [has entry point]

Sections:
Idx Name          Size      VMA       LMA       File off  Algn  Flags
  0 .isr_vector   00000188  08000000  08000000  00008000  2**0  CONTENTS, ALLOC, LOAD, READONLY, DATA
  1 .text         00010370  08000188  08000188  00008188  2**3  CONTENTS, ALLOC, LOAD, READONLY, CODE
  2 .rodata       0000ed98  080104f8  080104f8  000184f8  2**3  CONTENTS, ALLOC, LOAD, READONLY, DATA
  3 .init_array   00000008  0801f290  0801f290  00027290  2**2  CONTENTS, ALLOC, LOAD, DATA
  4 .fini_array   00000004  0801f298  0801f298  00027298  2**2  CONTENTS, ALLOC, LOAD, DATA
  5 .data         000008b4  20000000  0801f29c  00028000  2**3  CONTENTS, ALLOC, LOAD, DATA
  6 .ccmram       00003eb0  10000000  0801fb50  00030000  2**2  CONTENTS, ALLOC, LOAD, DATA
  7 .bss          0001ef00  200008b4  200008b4  000388b4  2**2  ALLOC
  8 ._user_heap_stack 00002000  10003eb0  10003eb0  00033eb0  2**0  ALLOC
  9 .ARM.attributes 00000030  00000000  00000000  00033eb0  2**0  CONTENTS, READONLY
 10 .comment      00000070  00000000  00000000  00033ee0  2**0  CONTENTS, READONLY
 11 .debug_frame  0000074c  00000000  00000000  00033f50  2**2  CONTENTS, READONLY, DEBUGGING
SYMBOL TABLE:
08000000 l    d  .isr_vector	00000000 .isr_vector
08000188 l    d  .text	00000000 .text
080104f8 l    d  .rodata	00000000 .rodata
0801f290 l    d  .init_array	00000000 .init_array
0801f298 l    d  .fini_array	00000000 .fini_array
20000000 l    d  .data	00000000 .data
10000000 l    d  .ccmram	00000000 .ccmram
200008b4 l    d  .bss	00000000 .bss
10003eb0 l    d  ._user_heap_stack	00000000 ._user_heap_stack
00000000 l    d  .ARM.attributes	00000000 .ARM.attributes
00000000 l    d  .comment	00000000 .comment
00000000 l    d  .debug_frame	00000000 .debug_frame
00000000 l    df *ABS*	00000000 ./drivers/BSP/startup_stm32f407xx.o
0800e1cc l       .text	00000000 LoopCopyDataInit
0800e1c4 l       .text	00000000 CopyDataInit
0800e1e0 l       .text	00000000 LoopFillZerobss
0800e1da l       .text	00000000 FillZerobss
0800e20c l       .text	00000000 Infinite_Loop
00000000 l    df *ABS*	00000000 crtstuff.c
080104d0 l     O .text	00000000 __EH_FRAME_BEGIN__
08000188 l     F .text	00000000 __do_global_dtors_aux
200008b4 l       .bss	00000000 completed.8019
0801f298 l     O .fini_array	00000000 __do_global_dtors_aux_fini_array_entry
080001ac l     F .text	00000000 frame_dummy
200008b8 l       .bss	00000000 object.8024
0801f294 l     O .init_array	00000000 __frame_dummy_init_array_entry
00000000 l    df *ABS*	00000000 _arm_addsubdf3.o
00000000 l    df *ABS*	00000000 _arm_muldivdf3.o
00000000 l    df *ABS*	00000000 _arm_cmpdf2.o
00000000 l    df *ABS*	00000000 _arm_truncdfsf2.o
00000000 l    df *ABS*	00000000 lib_a-memcpy.o
00000000 l    df *ABS*	00000000 ccDcKAsI.ltrans0.o
200018b0 l     O .bss	00000050 hdma_i2sTx.6914
080104fc l     O .rodata	00000003 CSWTCH.11
20000000 l     O .data	0000002c cs43l22_drv
2000002c l     O .data	00000020 MIDI_Class
20001948 l     O .bss	00000008 RngHandle
20001be0 l     O .bss	00000004 f_min
20001be4 l     O .bss	00000004 f_max
00000000 l    df *ABS*	00000000 ccDcKAsI.ltrans1.o
20001bf0 l     O .bss	00000004 old_dy
08010508 l     O .rodata	00009008 step_dd_table
08019510 l     O .rodata	00004704 slope_dd_table
2001f0c8 l     O .bss	00000004 a1
0801dc14 l     O .rodata	000001ac notesFreq
2001f0d4 l     O .bss	00000004 lfoPhase
2001f0d8 l     O .bss	00000018 old
100000ec l     O .ccmram	00000004 f0
2001f0f4 l     O .bss	00000004 zm1
00000000 l    df *ABS*	00000000 ccDcKAsI.ltrans2.o
2000005c l     O .data	00000001 volume
00000000 l    df *ABS*	00000000 ccDcKAsI.ltrans3.o
00000000 l    df *ABS*	00000000 ccDcKAsI.ltrans4.o
00000000 l    df *ABS*	00000000 ccDcKAsI.ltrans5.o
00000000 l    df *ABS*	00000000 ccDcKAsI.ltrans6.o
00000000 l    df *ABS*	00000000 ccDcKAsI.ltrans7.o
00000000 l    df *ABS*	00000000 ccDcKAsI.ltrans8.o
2001f108 l     O .bss	00000004 TimingDelay1
2001f10c l     O .bss	00000004 BlueLED_counter
2001f110 l     O .bss	00000001 DebouncedKeyPress
2001f111 l     O .bss	00000001 Key_changed
2001f112 l     O .bss	00000001 Key_pressed
2001f114 l     O .bss	00000004 TimingDelay
2000005e l     O .data	00000001 Count
00000000 l    df *ABS*	00000000 ccDcKAsI.ltrans9.o
00000000 l    df *ABS*	00000000 ccDcKAsI.ltrans10.o
00000000 l    df *ABS*	00000000 ccDcKAsI.ltrans11.o
00000000 l    df *ABS*	00000000 ccDcKAsI.ltrans12.o
0800be20 l     F .text	00000028 USB_WritePacket
0800be48 l     F .text	00000020 USB_FlushRxFifo
0800be68 l     F .text	00000024 USB_FlushTxFifo
0800c0ac l     F .text	00000084 USB_DoPing
2001f730 l     O .bss	00000001 buffer_offset
20000060 l     O .data	00000004 SystemCoreClock
00000000 l    df *ABS*	00000000 ccDcKAsI.ltrans13.o
00000000 l    df *ABS*	00000000 ccDcKAsI.ltrans14.o
00000000 l    df *ABS*	00000000 ccDcKAsI.ltrans15.o
00000000 l    df *ABS*	00000000 ccDcKAsI.ltrans16.o
00000000 l    df *ABS*	00000000 ccDcKAsI.ltrans17.o
00000000 l    df *ABS*	00000000 ccDcKAsI.ltrans18.o
00000000 l    df *ABS*	00000000 ccDcKAsI.ltrans19.o
0800deec l     F .text	000000f8 delay_read
00000000 l    df *ABS*	00000000 sf_fabs.c
00000000 l    df *ABS*	00000000 sf_floor.c
00000000 l    df *ABS*	00000000 sf_lrint.c
0801ee78 l     O .rodata	00000008 TWO23
00000000 l    df *ABS*	00000000 sf_rint.c
0801ee80 l     O .rodata	00000008 TWO23
00000000 l    df *ABS*	00000000 sf_sin.c
00000000 l    df *ABS*	00000000 wf_pow.c
00000000 l    df *ABS*	00000000 ef_pow.c
0801ee90 l     O .rodata	00000008 dp_h
0801ee98 l     O .rodata	00000008 dp_l
0801eea0 l     O .rodata	00000008 bp
00000000 l    df *ABS*	00000000 ef_rem_pio2.c
0801eea8 l     O .rodata	00000080 npio2_hw
0801ef28 l     O .rodata	00000318 two_over_pi
00000000 l    df *ABS*	00000000 ef_sqrt.c
00000000 l    df *ABS*	00000000 kf_cos.c
00000000 l    df *ABS*	00000000 kf_rem_pio2.c
0801f240 l     O .rodata	0000000c init_jk
0801f24c l     O .rodata	0000002c PIo2
00000000 l    df *ABS*	00000000 kf_sin.c
00000000 l    df *ABS*	00000000 s_matherr.c
00000000 l    df *ABS*	00000000 s_rint.c
0801f278 l     O .rodata	00000010 TWO52
00000000 l    df *ABS*	00000000 sf_finite.c
00000000 l    df *ABS*	00000000 sf_fpclassify.c
00000000 l    df *ABS*	00000000 sf_nan.c
00000000 l    df *ABS*	00000000 sf_scalbn.c
00000000 l    df *ABS*	00000000 sf_copysign.c
00000000 l    df *ABS*	00000000 init.c
00000000 l    df *ABS*	00000000 malloc.c
00000000 l    df *ABS*	00000000 mallocr.c
00000000 l    df *ABS*	00000000 memset.c
00000000 l    df *ABS*	00000000 mlock.c
00000000 l    df *ABS*	00000000 rand.c
00000000 l    df *ABS*	00000000 sbrkr.c
00000000 l    df *ABS*	00000000 __call_atexit.c
08010178 l     F .text	00000014 register_fini
00000000 l    df *ABS*	00000000 atexit.c
00000000 l    df *ABS*	00000000 fini.c
00000000 l    df *ABS*	00000000 mallocr.c
00000000 l    df *ABS*	00000000 __atexit.c
00000000 l    df *ABS*	00000000 sbrk.c
2001f7a8 l     O .bss	00000004 heap_end.4079
00000000 l    df *ABS*	00000000 c:/program files/gnu tools arm embedded/4.9 2014q4/bin/../lib/gcc/arm-none-eabi/4.9.3/armv7e-m/fpu/crti.o
00000000 l    df *ABS*	00000000 c:/program files/gnu tools arm embedded/4.9 2014q4/bin/../lib/gcc/arm-none-eabi/4.9.3/armv7e-m/fpu/crtn.o
00000000 l    df *ABS*	00000000 impure.c
20000078 l     O .data	00000428 impure_data
00000000 l    df *ABS*	00000000 s_lib_ver.c
00000000 l    df *ABS*	00000000 reent.c
00000000 l    df *ABS*	00000000 
00001000 l       *ABS*	00000000 _Min_Stack_Size
0801f29c l       .fini_array	00000000 __fini_array_end
200008b4 l       .bss	00000000 __bss_start__
2001f7b4 l       .bss	00000000 __bss_end__
00001000 l       *ABS*	00000000 _Min_Heap_Size
00000000 l       *UND*	00000000 software_init_hook
0801f298 l       .fini_array	00000000 __fini_array_start
0801f298 l       .init_array	00000000 __init_array_end
00000000 l       *UND*	00000000 hardware_init_hook
0801f290 l       .init_array	00000000 __preinit_array_end
00000000 l       *UND*	00000000 __stack
0801f290 l       .init_array	00000000 __init_array_start
0801f290 l       .init_array	00000000 __preinit_array_start
080104e8 l     F .text	00000010 ____errno_veneer
0800e20c  w    F .text	00000002 RTC_Alarm_IRQHandler
0800e20c  w    F .text	00000002 HASH_RNG_IRQHandler
0801ee60 g     O .rodata	00000010 .hidden APBAHBPrescTable
0800e20c  w    F .text	00000002 EXTI2_IRQHandler
0801edf0 g     O .rodata	00000004 .hidden MIDIscale09
0800e20c  w    F .text	00000002 TIM8_CC_IRQHandler
1000127c g     O .ccmram	00000020 .hidden SVFilter2
08000a4c g     F .text	00000012 .hidden __aeabi_dcmple
100000f0 g     O .ccmram	00000004 .hidden vol.lto_priv.146
08000988 g     F .text	0000007a .hidden __cmpdf2
0800d484 g     F .text	00000002 DebugMon_Handler
1000123c g     O .ccmram	00000020 .hidden filt_lfo
08000988 g     F .text	0000007a .hidden __eqdf2
0801eddc g     O .rodata	0000000d .hidden MIDIscale12
080004f8 g     F .text	0000005a .hidden __floatdidf
0800e20c  w    F .text	00000002 TIM1_CC_IRQHandler
10003ea0 g     O .ccmram	00000010 .hidden lfoR.lto_priv.160
0800d2c4 g     F .text	00000044 .hidden HAL_InitTick.constprop.87
0800e20c  w    F .text	00000002 DMA2_Stream5_IRQHandler
100000e9 g     O .ccmram	00000001 .hidden sound.lto_priv.147
0800d498 g     F .text	00000002 HardFault_Handler
0800e20c  w    F .text	00000002 DMA1_Stream5_IRQHandler
2001f0f8 g     O .bss	00000004 .hidden dmin.lto_priv.154
080100fc g     F .text	00000002 __malloc_unlock
080090e8 g     F .text	00000248 .hidden cs43l22_ReadID
0800a688 g     F .text	000000cc SysTick_Handler
0800e20c  w    F .text	00000002 PVD_IRQHandler
0800e20c  w    F .text	00000002 SDIO_IRQHandler
0800e20c  w    F .text	00000002 TAMP_STAMP_IRQHandler
0801f29c g       *ABS*	00000000 _sidata
100000e8 g     O .ccmram	00000001 .hidden autoSound.lto_priv.149
2000005d g     O .data	00000001 .hidden Is_cs43l22_Stop.lto_priv.175
0800c5fc g     F .text	000000c4 .hidden HAL_RCC_GetHCLKFreq
0800d480 g     F .text	00000002 PendSV_Handler
0800e488 g     F .text	00000344 powf
0800d49c g     F .text	00000002 NMI_Handler
0801f290 g       .init_array	00000000 __exidx_end
0800e20c  w    F .text	00000002 CAN2_RX1_IRQHandler
0800e20c  w    F .text	00000002 EXTI3_IRQHandler
08000978 g     F .text	0000008a .hidden __gtdf2
2001f7ac g     O .bss	00000004 __errno
0800edbc g     F .text	00000290 __ieee754_rem_pio2f
0800e20c  w    F .text	00000002 TIM8_TRG_COM_TIM14_IRQHandler
2001f118 g     O .bss	00000618 .hidden hUSBHost
0800e20c  w    F .text	00000002 TIM1_UP_TIM10_IRQHandler
080104f8 g     O .rodata	00000002 .hidden MIDIscale13
2001f7b0 g     O .bss	00000004 errno
080104f8 g       .text	00000000 _etext
200008b4 g       .bss	00000000 _sbss
0800b634 g     F .text	00000418 .hidden USBH_Get_StringDesc.constprop.120
0800bf18 g     F .text	00000094 .hidden I2S_DMATxCplt
08000a14 g     F .text	00000010 .hidden __aeabi_cdcmple
0800e20c  w    F .text	00000002 TIM8_UP_TIM13_IRQHandler
0800e20c  w    F .text	00000002 I2C3_ER_IRQHandler
0800db60 g     F .text	0000006c .hidden USBH_UserProcess_callback.lto_priv.143
10000cac g     O .ccmram	00000020 .hidden op4
0800be9c g     F .text	0000000e .hidden USB_EnableGlobalInt
2001f0f0 g     O .bss	00000004 .hidden lfoInc.lto_priv.156
100012a0 g     O .ccmram	000015f8 .hidden delL.lto_priv.157
10000070 g     O .ccmram	0000002c .hidden ph
0800c6c0 g     F .text	0000022c .hidden HAL_GPIO_Init
10000c28 g     O .ccmram	0000002c .hidden d1
10000be8 g     O .ccmram	00000020 .hidden op2
10000134 g     O .ccmram	00000558 .hidden mbTriOsc
08000b28 g     F .text	00000134 memcpy
08000a04 g     F .text	00000020 .hidden __aeabi_cdrcmple
10001238 g     O .ccmram	00000004 .hidden env.lto_priv.145
08000488 g     F .text	00000022 .hidden __floatsidf
08000980 g     F .text	00000082 .hidden __ltdf2
080099f0 g     F .text	00000c58 .hidden MagicPatch.part.2.lto_priv.141
0800a674 g     F .text	00000014 EXTI0_IRQHandler
0800e20c  w    F .text	00000002 I2C2_EV_IRQHandler
0800e20c  w    F .text	00000002 DMA1_Stream2_IRQHandler
0800e20c  w    F .text	00000002 CAN1_RX0_IRQHandler
0800e20c  w    F .text	00000002 FPU_IRQHandler
0800ba50 g     F .text	0000001c .hidden HAL_Delay
20001be8 g     O .bss	00000004 .hidden pAudioDrv.lto_priv.177
0800ccd8 g     F .text	00000544 .hidden USBH_MIDI_InterfaceInit.lto_priv.164
0800e20c  w    F .text	00000002 OTG_HS_WKUP_IRQHandler
0800fb20 g     F .text	00000010 malloc
20001bf8 g     O .bss	0001d4c8 .hidden delayline.lto_priv.162
0801edec g     O .rodata	00000003 .hidden MIDIscale08
0800d48c g     F .text	00000002 UsageFault_Handler
0800e20c  w    F .text	00000002 CAN2_SCE_IRQHandler
2001f77c g     O .bss	00000004 __malloc_top_pad
0800b0cc g     F .text	00000078 .hidden HAL_GPIO_Init.constprop.108
0800e20c  w    F .text	00000002 DMA2_Stream2_IRQHandler
0801edd4 g     O .rodata	00000008 .hidden MIDIscale11
0800f9a4 g     F .text	00000038 __fpclassifyf
08000468 g     F .text	0000001e .hidden __aeabi_ui2d
0801ee70 g     O .rodata	00000008 .hidden GPIO_PIN
20000000 g       .data	00000000 _sdata
0800e20c  w    F .text	00000002 SPI1_IRQHandler
080001e4 g     F .text	00000000 .hidden __aeabi_drsub
0800f990 g     F .text	00000014 finitef
08010154 g     F .text	00000024 _sbrk_r
0801ee44 g     O .rodata	00000003 .hidden MIDIscale14
0800d21c g     F .text	000000a6 .hidden USBH_MIDI_InterfaceDeInit.lto_priv.165
2001f0fc g     O .bss	00000004 .hidden readpos.lto_priv.161
0800e20c  w    F .text	00000002 TIM6_DAC_IRQHandler
0800e210 g     F .text	0000000e fabsf
0800e20c  w    F .text	00000002 TIM1_BRK_TIM9_IRQHandler
10000034 g     O .ccmram	00000010 .hidden noteG
0800e20c  w    F .text	00000002 DCMI_IRQHandler
08000a38 g     F .text	00000012 .hidden __aeabi_dcmplt
0800e20c  w    F .text	00000002 CAN2_RX0_IRQHandler
2001f778 g     O .bss	00000004 __malloc_max_sbrked_mem
080098dc g     F .text	00000114 .hidden cs43l22_Stop
080004ac g     F .text	0000003a .hidden __extendsfdf2
080007a8 g     F .text	000001d0 .hidden __aeabi_ddiv
080001f0 g     F .text	00000276 .hidden __adddf3
0801f290 g       .init_array	00000000 __exidx_start
08000554 g     F .text	00000254 .hidden __aeabi_dmul
0800e20c  w    F .text	00000002 DMA2_Stream3_IRQHandler
20000074 g     O .data	00000001 __fdlib_version
08009334 g     F .text	000002b4 .hidden cs43l22_SetOutputMode
0801f28c g     O .rodata	00000004 _global_impure_ptr
0800fad0 g     F .text	00000050 __libc_init_array
0800f7d8 g     F .text	00000090 __kernel_sinf
08000468 g     F .text	0000001e .hidden __floatunsidf
080104b4 g     F .text	0000001c _sbrk
080096d0 g     F .text	0000020c .hidden cs43l22_SetVolume
10001218 g     O .ccmram	00000020 .hidden amp_lfo
0801ee48 g     O .rodata	00000006 .hidden MIDIscale01
0800e20c  w    F .text	00000002 USART6_IRQHandler
080104d0 g     F .text	00000000 _init
08000a88 g     F .text	0000009e .hidden __aeabi_d2f
0800e20c  w    F .text	00000002 USART3_IRQHandler
08010198 g     F .text	0000002c __libc_fini_array
2001f7b4 g       .bss	00000000 _ebss
0800f86c g     F .text	00000124 rint
2001f0d0 g     O .bss	00000004 .hidden filterFreq
0800e1bc  w    F .text	00000038 Reset_Handler
1000129d g     O .ccmram	00000001 .hidden phaserON.lto_priv.152
0800e20c  w    F .text	00000002 CAN1_RX1_IRQHandler
0800e20c  w    F .text	00000002 UART5_IRQHandler
0800f0f0 g     F .text	00000104 __kernel_cosf
100000c8 g     O .ccmram	00000020 .hidden SVFilter
0800e20c  w    F .text	00000002 DMA2_Stream0_IRQHandler
0800e2b0 g     F .text	0000008c lrintf
2001f100 g     O .bss	00000004 .hidden fb.lto_priv.153
0800ba6c g     F .text	000003b2 .hidden USBH_CtlReq
0800a648 g     F .text	00000002 TIM4_IRQHandler
080001f0 g     F .text	00000276 .hidden __aeabi_dadd
08000980 g     F .text	00000082 .hidden __ledf2
20001bec g     O .bss	00000004 .hidden swrate.lto_priv.172
080004e8 g     F .text	0000006a .hidden __aeabi_ul2d
0801ee58 g     O .rodata	00000007 .hidden MIDIscale03
00000000  w      *UND*	00000000 __deregister_frame_info
10003eb0 g       ._user_heap_stack	00000000 end
2001f105 g     O .bss	00000001 .hidden OutputDev
0800e20c  w    F .text	00000002 I2C1_EV_IRQHandler
0800d4a0 g     F .text	00000204 .hidden I2Cx_Init.lto_priv.174
0800e20c  w    F .text	00000002 DMA1_Stream6_IRQHandler
20000910 g     O .bss	00000fa0 .hidden audiobuff
0801ddc0 g     O .rodata	00001004 .hidden sinetable
20000050 g     O .data	00000004 .hidden fdb.lto_priv.171
0800bfac g     F .text	000000fe .hidden USB_StopHost
08000a74 g     F .text	00000012 .hidden __aeabi_dcmpgt
0800e20c  w    F .text	00000002 DMA1_Stream1_IRQHandler
0800e20c  w    F .text	00000002 UART4_IRQHandler
2001f734 g     O .bss	00000004 .hidden uwTick.lto_priv.144
08010260 g     F .text	000001b0 _free_r
20000064 g     O .data	00000010 .hidden GPIO_PORT
0800e20c  w    F .text	00000002 TIM3_IRQHandler
0800e20c  w    F .text	00000002 RCC_IRQHandler
0801ee08 g     O .rodata	0000003c .hidden CSWTCH.11.lto_priv.176
08000a60 g     F .text	00000012 .hidden __aeabi_dcmpge
2000004c g     O .data	00000001 .hidden demoMode
0800e20c  w    F .text	00000002 TIM8_BRK_TIM12_IRQHandler
10000114 g     O .ccmram	00000020 .hidden op1
080001ec g     F .text	0000027a .hidden __aeabi_dsub
0800e20c g       .text	00000002 Default_Handler
20001944 g     O .bss	00000004 .hidden shift.lto_priv.170
200008b0 g     O .data	00000004 __malloc_sbrk_base
08002c4c g     F .text	00003850 .hidden make_sound.constprop.32
080004e8 g     F .text	0000006a .hidden __floatundidf
08010114 g     F .text	00000040 rand
0800e20c  w    F .text	00000002 EXTI15_10_IRQHandler
0800649c g     F .text	000017a4 .hidden USBH_MIDI_Process.lto_priv.167
08010410 g     F .text	000000a4 __register_exitproc
0800e20c  w    F .text	00000002 ADC_IRQHandler
100028a8 g     O .ccmram	000015f8 .hidden delR.lto_priv.158
20001950 g     O .bss	00000290 .hidden hHCD
2001f780 g     O .bss	00000028 __malloc_current_mallinfo
0801edc4 g     O .rodata	00000005 .hidden MIDIscale04
0801edf4 g     O .rodata	00000003 .hidden MIDIscale07
20001940 g     O .bss	00000004 .hidden rateCoeff
0800a654 g     F .text	0000000c DMA1_Stream7_IRQHandler
1000009c g     O .ccmram	00000028 .hidden adsr
10000c54 g     O .ccmram	0000002c .hidden d2
0800e20c  w    F .text	00000002 TIM7_IRQHandler
0801edf8 g     O .rodata	00000008 .hidden MIDIscale06
0800e20c  w    F .text	00000002 CAN2_TX_IRQHandler
08000488 g     F .text	00000022 .hidden __aeabi_i2d
0800e20c  w    F .text	00000002 TIM5_IRQHandler
0800beac g     F .text	00000030 .hidden I2S_DMAError
1000129e g     O .ccmram	00000001 .hidden chorusON.lto_priv.150
0800e20c  w    F .text	00000002 DMA2_Stream7_IRQHandler
10000ccc g     O .ccmram	0000054c .hidden mbSawOsc
0800e20c  w    F .text	00000002 I2C3_EV_IRQHandler
1000129c g     O .ccmram	00000001 .hidden delayON.lto_priv.151
10002898 g     O .ccmram	00000010 .hidden lfoL.lto_priv.159
1000125c g     O .ccmram	00000020 .hidden filt2_lfo
0800e20c  w    F .text	00000002 EXTI9_5_IRQHandler
080007a8 g     F .text	000001d0 .hidden __divdf3
0800dfe4 g     F .text	00000098 .hidden drifter_newSegment
0800e20c  w    F .text	00000002 RTC_WKUP_IRQHandler
200004a4 g     O .data	00000408 __malloc_av_
08000554 g     F .text	00000254 .hidden __muldf3
0800e7cc g     F .text	000005f0 __ieee754_powf
0800e20c  w    F .text	00000002 ETH_WKUP_IRQHandler
080100f8 g     F .text	00000002 __malloc_lock
0800f9e8 g     F .text	000000d0 scalbnf
0800d3e4 g     F .text	0000009c .hidden HAL_I2C_Mem_Write.part.16.constprop.60
0800ccc8 g     F .text	0000000e .hidden USBH_MIDI_ClassRequest.lto_priv.166
080088c8 g     F .text	0000081e .hidden cs43l22_Init
0800e20c  w    F .text	00000002 SPI2_IRQHandler
20001bf4 g     O .bss	00000004 .hidden wet.lto_priv.140
0800e20c  w    F .text	00000002 OTG_HS_EP1_IN_IRQHandler
0801005c g     F .text	0000009a memset
0800f04c g     F .text	000000a2 __ieee754_sqrtf
0800d494 g     F .text	00000002 MemManage_Handler
08000c5c g     F .text	00001ff0 main
2001f774 g     O .bss	00000004 __malloc_max_total_mem
0800e20c  w    F .text	00000002 DMA1_Stream0_IRQHandler
08010100 g     F .text	00000014 srand
0800d6fc g     F .text	00000414 .hidden MagicFX.part.1.lto_priv.142
0801fb50 g       *ABS*	00000000 _siccmram
0800e20c  w    F .text	00000002 CAN1_TX_IRQHandler
0800d488 g     F .text	00000002 SVC_Handler
0800f868 g     F .text	00000004 matherr
0801ee50 g     O .rodata	00000007 .hidden MIDIscale02
08000a88 g     F .text	0000009e .hidden __truncdfsf2
10000000 g     O .ccmram	00000034 .hidden seq
0800fb40 g     F .text	0000051c _malloc_r
0800ba4c g     F .text	00000004 .hidden USBH_MIDI_SOFProcess.lto_priv.168
080004f8 g     F .text	0000005a .hidden __aeabi_l2d
00000000  w      *UND*	00000000 __libc_fini
0801edcc g     O .rodata	00000007 .hidden MIDIscale05
0800bedc g     F .text	0000003c .hidden I2S_DMATxHalfCplt
0800e20c  w    F .text	00000002 EXTI4_IRQHandler
080101c4 g     F .text	0000009c _malloc_trim_r
20001900 g     O .bss	00000040 .hidden hAudioOutI2s
0800ca98 g     F .text	00000108 .hidden cs43l22_Pause
100000f4 g     O .ccmram	00000020 .hidden vibr_lfo
0800db10 g     F .text	00000050 SystemInit
0800d308 g     F .text	000000dc .hidden I2C_RequestMemoryWrite.constprop.63
0800be8c g     F .text	0000000e .hidden USB_DisableGlobalInt
08000988 g     F .text	0000007a .hidden __nedf2
080104dc g     F .text	00000000 _fini
0800fab8 g     F .text	00000018 copysignf
2001f770 g     O .bss	00000001 .hidden Appli_state
0800cba0 g     F .text	00000128 .hidden cs43l22_Play
0801018c g     F .text	0000000c atexit
10003eb0 g       .ccmram	00000000 _eccmram
2001f0c0 g     O .bss	00000004 .hidden filterFreq2
10000c08 g     O .ccmram	00000020 .hidden op3
08009330 g     F .text	00000004 .hidden cs43l22_SetFrequency
0800e20c  w    F .text	00000002 FSMC_IRQHandler
0800e20c  w    F .text	00000002 ETH_IRQHandler
0800f9dc g     F .text	0000000c nanf
200004a0 g     O .data	00000004 _impure_ptr
0800e20c  w    F .text	00000002 OTG_HS_EP1_OUT_IRQHandler
08007c40 g     F .text	00000c88 .hidden HAL_DMA_IRQHandler
20000054 g     O .data	00000004 .hidden centralFreq
0800e20c  w    F .text	00000002 WWDG_IRQHandler
0801ee00 g     O .rodata	00000005 .hidden MIDIscale10
0800b144 g     F .text	00000064 .hidden HAL_NVIC_SetPriority.constprop.106
0800e20c  w    F .text	00000002 TIM2_IRQHandler
0800e40c g     F .text	0000007c sinf
0800e20c  w    F .text	00000002 OTG_FS_WKUP_IRQHandler
2001f0cc g     O .bss	00000004 .hidden dmax.lto_priv.155
0800e20c  w    F .text	00000002 TIM1_TRG_COM_TIM11_IRQHandler
0800e20c  w    F .text	00000002 OTG_HS_IRQHandler
2001ffff g       *ABS*	00000000 _estack
0800a660 g     F .text	00000014 EXTI1_IRQHandler
200008d0 g     O .bss	00000040 .hidden MIDI_RX_Buffer
08000a24 g     F .text	00000012 .hidden __aeabi_dcmpeq
0800c328 g     F .text	0000001e .hidden USB_HC_ReadInterrupt
200008b4 g       .data	00000000 _edata
2001f0c4 g     O .bss	00000004 .hidden writepos.lto_priv.163
10000000 g       .ccmram	00000000 _sccmram
0800c130 g     F .text	000001f6 .hidden USB_HC_Halt
0800e20c  w    F .text	00000002 USART2_IRQHandler
200008ac g     O .data	00000004 __malloc_trim_threshold
10000044 g     O .ccmram	0000002c .hidden a
08000000 g     O .isr_vector	00000000 g_pfnVectors
0800e07c g     F .text	00000140 .hidden mono_chorus_compute
0800e20c  w    F .text	00000002 I2C2_ER_IRQHandler
20000058 g     O .data	00000004 .hidden wet.lto_priv.139
1000068c g     O .ccmram	0000055c .hidden mbRectOsc
0800d6a4 g     F .text	00000058 .hidden BSP_LED_Init
0800e20c  w    F .text	00000002 DMA2_Stream1_IRQHandler
2001f738 g     O .bss	00000038 .hidden I2cHandle.lto_priv.173
0800e20c  w    F .text	00000002 CAN1_SCE_IRQHandler
0800e20c  w    F .text	00000002 FLASH_IRQHandler
0800f1f4 g     F .text	000005e2 __kernel_rem_pio2f
2001f104 g     O .bss	00000001 .hidden freeze
0800e20c  w    F .text	00000002 DMA2_Stream4_IRQHandler
0800d490 g     F .text	00000002 BusFault_Handler
0800e20c  w    F .text	00000002 USART1_IRQHandler
0800c8ec g     F .text	000001ac .hidden cs43l22_Resume
100000c4 g     O .ccmram	00000001 .hidden autoFilterON.lto_priv.148
0800e33c g     F .text	000000d0 rintf
0800a754 g     F .text	00000976 OTG_FS_IRQHandler
0800e20c  w    F .text	00000002 SPI3_IRQHandler
08000a14 g     F .text	00000010 .hidden __aeabi_cdcmpeq
08000978 g     F .text	0000008a .hidden __gedf2
0800e20c  w    F .text	00000002 DMA1_Stream4_IRQHandler
0800e20c  w    F .text	00000002 I2C1_ER_IRQHandler
080095e8 g     F .text	000000e8 .hidden cs43l22_SetMute
0800e220 g     F .text	00000090 floorf
080004ac g     F .text	0000003a .hidden __aeabi_f2d
0800c348 g     F .text	00000284 .hidden USB_HC_StartXfer
00000000  w      *UND*	00000000 _Jv_RegisterClasses
0800c5cc g     F .text	00000030 .hidden USB_CoreReset.lto_priv.169
080001ec g     F .text	0000027a .hidden __subdf3
0800dbcc g     F .text	000000c4 .hidden seq_sequence_new
0800dc90 g     F .text	0000024c .hidden SVF_calcSample
00000000  w      *UND*	00000000 __register_frame_info
0800e20c  w    F .text	00000002 DMA2_Stream6_IRQHandler
10000c80 g     O .ccmram	0000002c .hidden d3
0800b1a8 g     F .text	0000048c .hidden USBH_Get_DevDesc.constprop.114
0800a64c g     F .text	00000006 DMA1_Stream3_IRQHandler
0800fb30 g     F .text	00000010 free
0800dedc g     F .text	00000010 .hidden Error_Handler



Disassembly of section .text:

08000188 <__do_global_dtors_aux>:
$t():
 8000188:	b510      	push	{r4, lr}
 800018a:	4c05      	ldr	r4, [pc, #20]	; (80001a0 <__do_global_dtors_aux+0x18>)
 800018c:	7823      	ldrb	r3, [r4, #0]
 800018e:	b933      	cbnz	r3, 800019e <__do_global_dtors_aux+0x16>
 8000190:	4b04      	ldr	r3, [pc, #16]	; (80001a4 <__do_global_dtors_aux+0x1c>)
 8000192:	b113      	cbz	r3, 800019a <__do_global_dtors_aux+0x12>
 8000194:	4804      	ldr	r0, [pc, #16]	; (80001a8 <__do_global_dtors_aux+0x20>)
 8000196:	f3af 8000 	nop.w
 800019a:	2301      	movs	r3, #1
 800019c:	7023      	strb	r3, [r4, #0]
 800019e:	bd10      	pop	{r4, pc}
$d():
 80001a0:	200008b4 	.word	0x200008b4
 80001a4:	00000000 	.word	0x00000000
 80001a8:	080104d0 	.word	0x080104d0

080001ac <frame_dummy>:
$t():
 80001ac:	4b08      	ldr	r3, [pc, #32]	; (80001d0 <frame_dummy+0x24>)
 80001ae:	b510      	push	{r4, lr}
 80001b0:	b11b      	cbz	r3, 80001ba <frame_dummy+0xe>
 80001b2:	4808      	ldr	r0, [pc, #32]	; (80001d4 <frame_dummy+0x28>)
 80001b4:	4908      	ldr	r1, [pc, #32]	; (80001d8 <frame_dummy+0x2c>)
 80001b6:	f3af 8000 	nop.w
 80001ba:	4808      	ldr	r0, [pc, #32]	; (80001dc <frame_dummy+0x30>)
 80001bc:	6803      	ldr	r3, [r0, #0]
 80001be:	b903      	cbnz	r3, 80001c2 <frame_dummy+0x16>
 80001c0:	bd10      	pop	{r4, pc}
 80001c2:	4b07      	ldr	r3, [pc, #28]	; (80001e0 <frame_dummy+0x34>)
 80001c4:	2b00      	cmp	r3, #0
 80001c6:	d0fb      	beq.n	80001c0 <frame_dummy+0x14>
 80001c8:	e8bd 4010 	ldmia.w	sp!, {r4, lr}
 80001cc:	4718      	bx	r3
 80001ce:	bf00      	nop
$d():
 80001d0:	00000000 	.word	0x00000000
 80001d4:	080104d0 	.word	0x080104d0
 80001d8:	200008b8 	.word	0x200008b8
 80001dc:	200008b4 	.word	0x200008b4
 80001e0:	00000000 	.word	0x00000000

080001e4 <__aeabi_drsub>:
$t():
 80001e4:	f081 4100 	eor.w	r1, r1, #2147483648	; 0x80000000
 80001e8:	e002      	b.n	80001f0 <__adddf3>
 80001ea:	bf00      	nop

080001ec <__aeabi_dsub>:
__aeabi_dsub():
 80001ec:	f083 4300 	eor.w	r3, r3, #2147483648	; 0x80000000

080001f0 <__adddf3>:
 80001f0:	b530      	push	{r4, r5, lr}
 80001f2:	ea4f 0441 	mov.w	r4, r1, lsl #1
 80001f6:	ea4f 0543 	mov.w	r5, r3, lsl #1
 80001fa:	ea94 0f05 	teq	r4, r5
 80001fe:	bf08      	it	eq
 8000200:	ea90 0f02 	teqeq	r0, r2
 8000204:	bf1f      	itttt	ne
 8000206:	ea54 0c00 	orrsne.w	ip, r4, r0
 800020a:	ea55 0c02 	orrsne.w	ip, r5, r2
 800020e:	ea7f 5c64 	mvnsne.w	ip, r4, asr #21
 8000212:	ea7f 5c65 	mvnsne.w	ip, r5, asr #21
 8000216:	f000 80e2 	beq.w	80003de <__adddf3+0x1ee>
 800021a:	ea4f 5454 	mov.w	r4, r4, lsr #21
 800021e:	ebd4 5555 	rsbs	r5, r4, r5, lsr #21
 8000222:	bfb8      	it	lt
 8000224:	426d      	neglt	r5, r5
 8000226:	dd0c      	ble.n	8000242 <__adddf3+0x52>
 8000228:	442c      	add	r4, r5
 800022a:	ea80 0202 	eor.w	r2, r0, r2
 800022e:	ea81 0303 	eor.w	r3, r1, r3
 8000232:	ea82 0000 	eor.w	r0, r2, r0
 8000236:	ea83 0101 	eor.w	r1, r3, r1
 800023a:	ea80 0202 	eor.w	r2, r0, r2
 800023e:	ea81 0303 	eor.w	r3, r1, r3
 8000242:	2d36      	cmp	r5, #54	; 0x36
 8000244:	bf88      	it	hi
 8000246:	bd30      	pophi	{r4, r5, pc}
 8000248:	f011 4f00 	tst.w	r1, #2147483648	; 0x80000000
 800024c:	ea4f 3101 	mov.w	r1, r1, lsl #12
 8000250:	f44f 1c80 	mov.w	ip, #1048576	; 0x100000
 8000254:	ea4c 3111 	orr.w	r1, ip, r1, lsr #12
 8000258:	d002      	beq.n	8000260 <__adddf3+0x70>
 800025a:	4240      	negs	r0, r0
 800025c:	eb61 0141 	sbc.w	r1, r1, r1, lsl #1
 8000260:	f013 4f00 	tst.w	r3, #2147483648	; 0x80000000
 8000264:	ea4f 3303 	mov.w	r3, r3, lsl #12
 8000268:	ea4c 3313 	orr.w	r3, ip, r3, lsr #12
 800026c:	d002      	beq.n	8000274 <__adddf3+0x84>
 800026e:	4252      	negs	r2, r2
 8000270:	eb63 0343 	sbc.w	r3, r3, r3, lsl #1
 8000274:	ea94 0f05 	teq	r4, r5
 8000278:	f000 80a7 	beq.w	80003ca <__adddf3+0x1da>
 800027c:	f1a4 0401 	sub.w	r4, r4, #1
 8000280:	f1d5 0e20 	rsbs	lr, r5, #32
 8000284:	db0d      	blt.n	80002a2 <__adddf3+0xb2>
 8000286:	fa02 fc0e 	lsl.w	ip, r2, lr
 800028a:	fa22 f205 	lsr.w	r2, r2, r5
 800028e:	1880      	adds	r0, r0, r2
 8000290:	f141 0100 	adc.w	r1, r1, #0
 8000294:	fa03 f20e 	lsl.w	r2, r3, lr
 8000298:	1880      	adds	r0, r0, r2
 800029a:	fa43 f305 	asr.w	r3, r3, r5
 800029e:	4159      	adcs	r1, r3
 80002a0:	e00e      	b.n	80002c0 <__adddf3+0xd0>
 80002a2:	f1a5 0520 	sub.w	r5, r5, #32
 80002a6:	f10e 0e20 	add.w	lr, lr, #32
 80002aa:	2a01      	cmp	r2, #1
 80002ac:	fa03 fc0e 	lsl.w	ip, r3, lr
 80002b0:	bf28      	it	cs
 80002b2:	f04c 0c02 	orrcs.w	ip, ip, #2
 80002b6:	fa43 f305 	asr.w	r3, r3, r5
 80002ba:	18c0      	adds	r0, r0, r3
 80002bc:	eb51 71e3 	adcs.w	r1, r1, r3, asr #31
 80002c0:	f001 4500 	and.w	r5, r1, #2147483648	; 0x80000000
 80002c4:	d507      	bpl.n	80002d6 <__adddf3+0xe6>
 80002c6:	f04f 0e00 	mov.w	lr, #0
 80002ca:	f1dc 0c00 	rsbs	ip, ip, #0
 80002ce:	eb7e 0000 	sbcs.w	r0, lr, r0
 80002d2:	eb6e 0101 	sbc.w	r1, lr, r1
 80002d6:	f5b1 1f80 	cmp.w	r1, #1048576	; 0x100000
 80002da:	d31b      	bcc.n	8000314 <__adddf3+0x124>
 80002dc:	f5b1 1f00 	cmp.w	r1, #2097152	; 0x200000
 80002e0:	d30c      	bcc.n	80002fc <__adddf3+0x10c>
 80002e2:	0849      	lsrs	r1, r1, #1
 80002e4:	ea5f 0030 	movs.w	r0, r0, rrx
 80002e8:	ea4f 0c3c 	mov.w	ip, ip, rrx
 80002ec:	f104 0401 	add.w	r4, r4, #1
 80002f0:	ea4f 5244 	mov.w	r2, r4, lsl #21
 80002f4:	f512 0f80 	cmn.w	r2, #4194304	; 0x400000
 80002f8:	f080 809a 	bcs.w	8000430 <__adddf3+0x240>
 80002fc:	f1bc 4f00 	cmp.w	ip, #2147483648	; 0x80000000
 8000300:	bf08      	it	eq
 8000302:	ea5f 0c50 	movseq.w	ip, r0, lsr #1
 8000306:	f150 0000 	adcs.w	r0, r0, #0
 800030a:	eb41 5104 	adc.w	r1, r1, r4, lsl #20
 800030e:	ea41 0105 	orr.w	r1, r1, r5
 8000312:	bd30      	pop	{r4, r5, pc}
 8000314:	ea5f 0c4c 	movs.w	ip, ip, lsl #1
 8000318:	4140      	adcs	r0, r0
 800031a:	eb41 0101 	adc.w	r1, r1, r1
 800031e:	f411 1f80 	tst.w	r1, #1048576	; 0x100000
 8000322:	f1a4 0401 	sub.w	r4, r4, #1
 8000326:	d1e9      	bne.n	80002fc <__adddf3+0x10c>
 8000328:	f091 0f00 	teq	r1, #0
 800032c:	bf04      	itt	eq
 800032e:	4601      	moveq	r1, r0
 8000330:	2000      	moveq	r0, #0
 8000332:	fab1 f381 	clz	r3, r1
 8000336:	bf08      	it	eq
 8000338:	3320      	addeq	r3, #32
 800033a:	f1a3 030b 	sub.w	r3, r3, #11
 800033e:	f1b3 0220 	subs.w	r2, r3, #32
 8000342:	da0c      	bge.n	800035e <__adddf3+0x16e>
 8000344:	320c      	adds	r2, #12
 8000346:	dd08      	ble.n	800035a <__adddf3+0x16a>
 8000348:	f102 0c14 	add.w	ip, r2, #20
 800034c:	f1c2 020c 	rsb	r2, r2, #12
 8000350:	fa01 f00c 	lsl.w	r0, r1, ip
 8000354:	fa21 f102 	lsr.w	r1, r1, r2
 8000358:	e00c      	b.n	8000374 <__adddf3+0x184>
 800035a:	f102 0214 	add.w	r2, r2, #20
 800035e:	bfd8      	it	le
 8000360:	f1c2 0c20 	rsble	ip, r2, #32
 8000364:	fa01 f102 	lsl.w	r1, r1, r2
 8000368:	fa20 fc0c 	lsr.w	ip, r0, ip
 800036c:	bfdc      	itt	le
 800036e:	ea41 010c 	orrle.w	r1, r1, ip
 8000372:	4090      	lslle	r0, r2
 8000374:	1ae4      	subs	r4, r4, r3
 8000376:	bfa2      	ittt	ge
 8000378:	eb01 5104 	addge.w	r1, r1, r4, lsl #20
 800037c:	4329      	orrge	r1, r5
 800037e:	bd30      	popge	{r4, r5, pc}
 8000380:	ea6f 0404 	mvn.w	r4, r4
 8000384:	3c1f      	subs	r4, #31
 8000386:	da1c      	bge.n	80003c2 <__adddf3+0x1d2>
 8000388:	340c      	adds	r4, #12
 800038a:	dc0e      	bgt.n	80003aa <__adddf3+0x1ba>
 800038c:	f104 0414 	add.w	r4, r4, #20
 8000390:	f1c4 0220 	rsb	r2, r4, #32
 8000394:	fa20 f004 	lsr.w	r0, r0, r4
 8000398:	fa01 f302 	lsl.w	r3, r1, r2
 800039c:	ea40 0003 	orr.w	r0, r0, r3
 80003a0:	fa21 f304 	lsr.w	r3, r1, r4
 80003a4:	ea45 0103 	orr.w	r1, r5, r3
 80003a8:	bd30      	pop	{r4, r5, pc}
 80003aa:	f1c4 040c 	rsb	r4, r4, #12
 80003ae:	f1c4 0220 	rsb	r2, r4, #32
 80003b2:	fa20 f002 	lsr.w	r0, r0, r2
 80003b6:	fa01 f304 	lsl.w	r3, r1, r4
 80003ba:	ea40 0003 	orr.w	r0, r0, r3
 80003be:	4629      	mov	r1, r5
 80003c0:	bd30      	pop	{r4, r5, pc}
 80003c2:	fa21 f004 	lsr.w	r0, r1, r4
 80003c6:	4629      	mov	r1, r5
 80003c8:	bd30      	pop	{r4, r5, pc}
 80003ca:	f094 0f00 	teq	r4, #0
 80003ce:	f483 1380 	eor.w	r3, r3, #1048576	; 0x100000
 80003d2:	bf06      	itte	eq
 80003d4:	f481 1180 	eoreq.w	r1, r1, #1048576	; 0x100000
 80003d8:	3401      	addeq	r4, #1
 80003da:	3d01      	subne	r5, #1
 80003dc:	e74e      	b.n	800027c <__adddf3+0x8c>
 80003de:	ea7f 5c64 	mvns.w	ip, r4, asr #21
 80003e2:	bf18      	it	ne
 80003e4:	ea7f 5c65 	mvnsne.w	ip, r5, asr #21
 80003e8:	d029      	beq.n	800043e <__adddf3+0x24e>
 80003ea:	ea94 0f05 	teq	r4, r5
 80003ee:	bf08      	it	eq
 80003f0:	ea90 0f02 	teqeq	r0, r2
 80003f4:	d005      	beq.n	8000402 <__adddf3+0x212>
 80003f6:	ea54 0c00 	orrs.w	ip, r4, r0
 80003fa:	bf04      	itt	eq
 80003fc:	4619      	moveq	r1, r3
 80003fe:	4610      	moveq	r0, r2
 8000400:	bd30      	pop	{r4, r5, pc}
 8000402:	ea91 0f03 	teq	r1, r3
 8000406:	bf1e      	ittt	ne
 8000408:	2100      	movne	r1, #0
 800040a:	2000      	movne	r0, #0
 800040c:	bd30      	popne	{r4, r5, pc}
 800040e:	ea5f 5c54 	movs.w	ip, r4, lsr #21
 8000412:	d105      	bne.n	8000420 <__adddf3+0x230>
 8000414:	0040      	lsls	r0, r0, #1
 8000416:	4149      	adcs	r1, r1
 8000418:	bf28      	it	cs
 800041a:	f041 4100 	orrcs.w	r1, r1, #2147483648	; 0x80000000
 800041e:	bd30      	pop	{r4, r5, pc}
 8000420:	f514 0480 	adds.w	r4, r4, #4194304	; 0x400000
 8000424:	bf3c      	itt	cc
 8000426:	f501 1180 	addcc.w	r1, r1, #1048576	; 0x100000
 800042a:	bd30      	popcc	{r4, r5, pc}
 800042c:	f001 4500 	and.w	r5, r1, #2147483648	; 0x80000000
 8000430:	f045 41fe 	orr.w	r1, r5, #2130706432	; 0x7f000000
 8000434:	f441 0170 	orr.w	r1, r1, #15728640	; 0xf00000
 8000438:	f04f 0000 	mov.w	r0, #0
 800043c:	bd30      	pop	{r4, r5, pc}
 800043e:	ea7f 5c64 	mvns.w	ip, r4, asr #21
 8000442:	bf1a      	itte	ne
 8000444:	4619      	movne	r1, r3
 8000446:	4610      	movne	r0, r2
 8000448:	ea7f 5c65 	mvnseq.w	ip, r5, asr #21
 800044c:	bf1c      	itt	ne
 800044e:	460b      	movne	r3, r1
 8000450:	4602      	movne	r2, r0
 8000452:	ea50 3401 	orrs.w	r4, r0, r1, lsl #12
 8000456:	bf06      	itte	eq
 8000458:	ea52 3503 	orrseq.w	r5, r2, r3, lsl #12
 800045c:	ea91 0f03 	teqeq	r1, r3
 8000460:	f441 2100 	orrne.w	r1, r1, #524288	; 0x80000
 8000464:	bd30      	pop	{r4, r5, pc}
__adddf3():
 8000466:	bf00      	nop

08000468 <__aeabi_ui2d>:
__aeabi_ui2d():
 8000468:	f090 0f00 	teq	r0, #0
 800046c:	bf04      	itt	eq
 800046e:	2100      	moveq	r1, #0
 8000470:	4770      	bxeq	lr
 8000472:	b530      	push	{r4, r5, lr}
 8000474:	f44f 6480 	mov.w	r4, #1024	; 0x400
 8000478:	f104 0432 	add.w	r4, r4, #50	; 0x32
 800047c:	f04f 0500 	mov.w	r5, #0
 8000480:	f04f 0100 	mov.w	r1, #0
 8000484:	e750      	b.n	8000328 <__adddf3+0x138>
 8000486:	bf00      	nop

08000488 <__aeabi_i2d>:
__floatsidf():
 8000488:	f090 0f00 	teq	r0, #0
 800048c:	bf04      	itt	eq
 800048e:	2100      	moveq	r1, #0
 8000490:	4770      	bxeq	lr
 8000492:	b530      	push	{r4, r5, lr}
 8000494:	f44f 6480 	mov.w	r4, #1024	; 0x400
 8000498:	f104 0432 	add.w	r4, r4, #50	; 0x32
 800049c:	f010 4500 	ands.w	r5, r0, #2147483648	; 0x80000000
 80004a0:	bf48      	it	mi
 80004a2:	4240      	negmi	r0, r0
 80004a4:	f04f 0100 	mov.w	r1, #0
 80004a8:	e73e      	b.n	8000328 <__adddf3+0x138>
 80004aa:	bf00      	nop

080004ac <__aeabi_f2d>:
__extendsfdf2():
 80004ac:	0042      	lsls	r2, r0, #1
 80004ae:	ea4f 01e2 	mov.w	r1, r2, asr #3
 80004b2:	ea4f 0131 	mov.w	r1, r1, rrx
 80004b6:	ea4f 7002 	mov.w	r0, r2, lsl #28
 80004ba:	bf1f      	itttt	ne
 80004bc:	f012 437f 	andsne.w	r3, r2, #4278190080	; 0xff000000
 80004c0:	f093 4f7f 	teqne	r3, #4278190080	; 0xff000000
 80004c4:	f081 5160 	eorne.w	r1, r1, #939524096	; 0x38000000
 80004c8:	4770      	bxne	lr
 80004ca:	f092 0f00 	teq	r2, #0
 80004ce:	bf14      	ite	ne
 80004d0:	f093 4f7f 	teqne	r3, #4278190080	; 0xff000000
 80004d4:	4770      	bxeq	lr
 80004d6:	b530      	push	{r4, r5, lr}
 80004d8:	f44f 7460 	mov.w	r4, #896	; 0x380
 80004dc:	f001 4500 	and.w	r5, r1, #2147483648	; 0x80000000
 80004e0:	f021 4100 	bic.w	r1, r1, #2147483648	; 0x80000000
 80004e4:	e720      	b.n	8000328 <__adddf3+0x138>
 80004e6:	bf00      	nop

080004e8 <__aeabi_ul2d>:
__aeabi_ul2d():
 80004e8:	ea50 0201 	orrs.w	r2, r0, r1
 80004ec:	bf08      	it	eq
 80004ee:	4770      	bxeq	lr
 80004f0:	b530      	push	{r4, r5, lr}
 80004f2:	f04f 0500 	mov.w	r5, #0
 80004f6:	e00a      	b.n	800050e <__aeabi_l2d+0x16>

080004f8 <__aeabi_l2d>:
 80004f8:	ea50 0201 	orrs.w	r2, r0, r1
 80004fc:	bf08      	it	eq
 80004fe:	4770      	bxeq	lr
 8000500:	b530      	push	{r4, r5, lr}
 8000502:	f011 4500 	ands.w	r5, r1, #2147483648	; 0x80000000
 8000506:	d502      	bpl.n	800050e <__aeabi_l2d+0x16>
 8000508:	4240      	negs	r0, r0
 800050a:	eb61 0141 	sbc.w	r1, r1, r1, lsl #1
 800050e:	f44f 6480 	mov.w	r4, #1024	; 0x400
 8000512:	f104 0432 	add.w	r4, r4, #50	; 0x32
 8000516:	ea5f 5c91 	movs.w	ip, r1, lsr #22
 800051a:	f43f aedc 	beq.w	80002d6 <__adddf3+0xe6>
 800051e:	f04f 0203 	mov.w	r2, #3
 8000522:	ea5f 0cdc 	movs.w	ip, ip, lsr #3
 8000526:	bf18      	it	ne
 8000528:	3203      	addne	r2, #3
 800052a:	ea5f 0cdc 	movs.w	ip, ip, lsr #3
 800052e:	bf18      	it	ne
 8000530:	3203      	addne	r2, #3
 8000532:	eb02 02dc 	add.w	r2, r2, ip, lsr #3
 8000536:	f1c2 0320 	rsb	r3, r2, #32
 800053a:	fa00 fc03 	lsl.w	ip, r0, r3
 800053e:	fa20 f002 	lsr.w	r0, r0, r2
 8000542:	fa01 fe03 	lsl.w	lr, r1, r3
 8000546:	ea40 000e 	orr.w	r0, r0, lr
 800054a:	fa21 f102 	lsr.w	r1, r1, r2
 800054e:	4414      	add	r4, r2
 8000550:	e6c1      	b.n	80002d6 <__adddf3+0xe6>
__floatdidf():
 8000552:	bf00      	nop

08000554 <__aeabi_dmul>:
__aeabi_dmul():
 8000554:	b570      	push	{r4, r5, r6, lr}
 8000556:	f04f 0cff 	mov.w	ip, #255	; 0xff
 800055a:	f44c 6ce0 	orr.w	ip, ip, #1792	; 0x700
 800055e:	ea1c 5411 	ands.w	r4, ip, r1, lsr #20
 8000562:	bf1d      	ittte	ne
 8000564:	ea1c 5513 	andsne.w	r5, ip, r3, lsr #20
 8000568:	ea94 0f0c 	teqne	r4, ip
 800056c:	ea95 0f0c 	teqne	r5, ip
 8000570:	f000 f8de 	bleq	8000730 <__aeabi_dmul+0x1dc>
 8000574:	442c      	add	r4, r5
 8000576:	ea81 0603 	eor.w	r6, r1, r3
 800057a:	ea21 514c 	bic.w	r1, r1, ip, lsl #21
 800057e:	ea23 534c 	bic.w	r3, r3, ip, lsl #21
 8000582:	ea50 3501 	orrs.w	r5, r0, r1, lsl #12
 8000586:	bf18      	it	ne
 8000588:	ea52 3503 	orrsne.w	r5, r2, r3, lsl #12
 800058c:	f441 1180 	orr.w	r1, r1, #1048576	; 0x100000
 8000590:	f443 1380 	orr.w	r3, r3, #1048576	; 0x100000
 8000594:	d038      	beq.n	8000608 <__aeabi_dmul+0xb4>
 8000596:	fba0 ce02 	umull	ip, lr, r0, r2
 800059a:	f04f 0500 	mov.w	r5, #0
 800059e:	fbe1 e502 	umlal	lr, r5, r1, r2
 80005a2:	f006 4200 	and.w	r2, r6, #2147483648	; 0x80000000
 80005a6:	fbe0 e503 	umlal	lr, r5, r0, r3
 80005aa:	f04f 0600 	mov.w	r6, #0
 80005ae:	fbe1 5603 	umlal	r5, r6, r1, r3
 80005b2:	f09c 0f00 	teq	ip, #0
 80005b6:	bf18      	it	ne
 80005b8:	f04e 0e01 	orrne.w	lr, lr, #1
 80005bc:	f1a4 04ff 	sub.w	r4, r4, #255	; 0xff
 80005c0:	f5b6 7f00 	cmp.w	r6, #512	; 0x200
 80005c4:	f564 7440 	sbc.w	r4, r4, #768	; 0x300
 80005c8:	d204      	bcs.n	80005d4 <__aeabi_dmul+0x80>
 80005ca:	ea5f 0e4e 	movs.w	lr, lr, lsl #1
 80005ce:	416d      	adcs	r5, r5
 80005d0:	eb46 0606 	adc.w	r6, r6, r6
 80005d4:	ea42 21c6 	orr.w	r1, r2, r6, lsl #11
 80005d8:	ea41 5155 	orr.w	r1, r1, r5, lsr #21
 80005dc:	ea4f 20c5 	mov.w	r0, r5, lsl #11
 80005e0:	ea40 505e 	orr.w	r0, r0, lr, lsr #21
 80005e4:	ea4f 2ece 	mov.w	lr, lr, lsl #11
 80005e8:	f1b4 0cfd 	subs.w	ip, r4, #253	; 0xfd
 80005ec:	bf88      	it	hi
 80005ee:	f5bc 6fe0 	cmphi.w	ip, #1792	; 0x700
 80005f2:	d81e      	bhi.n	8000632 <__aeabi_dmul+0xde>
 80005f4:	f1be 4f00 	cmp.w	lr, #2147483648	; 0x80000000
 80005f8:	bf08      	it	eq
 80005fa:	ea5f 0e50 	movseq.w	lr, r0, lsr #1
 80005fe:	f150 0000 	adcs.w	r0, r0, #0
 8000602:	eb41 5104 	adc.w	r1, r1, r4, lsl #20
 8000606:	bd70      	pop	{r4, r5, r6, pc}
 8000608:	f006 4600 	and.w	r6, r6, #2147483648	; 0x80000000
 800060c:	ea46 0101 	orr.w	r1, r6, r1
 8000610:	ea40 0002 	orr.w	r0, r0, r2
 8000614:	ea81 0103 	eor.w	r1, r1, r3
 8000618:	ebb4 045c 	subs.w	r4, r4, ip, lsr #1
 800061c:	bfc2      	ittt	gt
 800061e:	ebd4 050c 	rsbsgt	r5, r4, ip
 8000622:	ea41 5104 	orrgt.w	r1, r1, r4, lsl #20
 8000626:	bd70      	popgt	{r4, r5, r6, pc}
 8000628:	f441 1180 	orr.w	r1, r1, #1048576	; 0x100000
 800062c:	f04f 0e00 	mov.w	lr, #0
 8000630:	3c01      	subs	r4, #1
 8000632:	f300 80ab 	bgt.w	800078c <__aeabi_dmul+0x238>
 8000636:	f114 0f36 	cmn.w	r4, #54	; 0x36
 800063a:	bfde      	ittt	le
 800063c:	2000      	movle	r0, #0
 800063e:	f001 4100 	andle.w	r1, r1, #2147483648	; 0x80000000
 8000642:	bd70      	pople	{r4, r5, r6, pc}
 8000644:	f1c4 0400 	rsb	r4, r4, #0
 8000648:	3c20      	subs	r4, #32
 800064a:	da35      	bge.n	80006b8 <__aeabi_dmul+0x164>
 800064c:	340c      	adds	r4, #12
 800064e:	dc1b      	bgt.n	8000688 <__aeabi_dmul+0x134>
 8000650:	f104 0414 	add.w	r4, r4, #20
 8000654:	f1c4 0520 	rsb	r5, r4, #32
 8000658:	fa00 f305 	lsl.w	r3, r0, r5
 800065c:	fa20 f004 	lsr.w	r0, r0, r4
 8000660:	fa01 f205 	lsl.w	r2, r1, r5
 8000664:	ea40 0002 	orr.w	r0, r0, r2
 8000668:	f001 4200 	and.w	r2, r1, #2147483648	; 0x80000000
 800066c:	f021 4100 	bic.w	r1, r1, #2147483648	; 0x80000000
 8000670:	eb10 70d3 	adds.w	r0, r0, r3, lsr #31
 8000674:	fa21 f604 	lsr.w	r6, r1, r4
 8000678:	eb42 0106 	adc.w	r1, r2, r6
 800067c:	ea5e 0e43 	orrs.w	lr, lr, r3, lsl #1
 8000680:	bf08      	it	eq
 8000682:	ea20 70d3 	biceq.w	r0, r0, r3, lsr #31
 8000686:	bd70      	pop	{r4, r5, r6, pc}
 8000688:	f1c4 040c 	rsb	r4, r4, #12
 800068c:	f1c4 0520 	rsb	r5, r4, #32
 8000690:	fa00 f304 	lsl.w	r3, r0, r4
 8000694:	fa20 f005 	lsr.w	r0, r0, r5
 8000698:	fa01 f204 	lsl.w	r2, r1, r4
 800069c:	ea40 0002 	orr.w	r0, r0, r2
 80006a0:	f001 4100 	and.w	r1, r1, #2147483648	; 0x80000000
 80006a4:	eb10 70d3 	adds.w	r0, r0, r3, lsr #31
 80006a8:	f141 0100 	adc.w	r1, r1, #0
 80006ac:	ea5e 0e43 	orrs.w	lr, lr, r3, lsl #1
 80006b0:	bf08      	it	eq
 80006b2:	ea20 70d3 	biceq.w	r0, r0, r3, lsr #31
 80006b6:	bd70      	pop	{r4, r5, r6, pc}
 80006b8:	f1c4 0520 	rsb	r5, r4, #32
 80006bc:	fa00 f205 	lsl.w	r2, r0, r5
 80006c0:	ea4e 0e02 	orr.w	lr, lr, r2
 80006c4:	fa20 f304 	lsr.w	r3, r0, r4
 80006c8:	fa01 f205 	lsl.w	r2, r1, r5
 80006cc:	ea43 0302 	orr.w	r3, r3, r2
 80006d0:	fa21 f004 	lsr.w	r0, r1, r4
 80006d4:	f001 4100 	and.w	r1, r1, #2147483648	; 0x80000000
 80006d8:	fa21 f204 	lsr.w	r2, r1, r4
 80006dc:	ea20 0002 	bic.w	r0, r0, r2
 80006e0:	eb00 70d3 	add.w	r0, r0, r3, lsr #31
 80006e4:	ea5e 0e43 	orrs.w	lr, lr, r3, lsl #1
 80006e8:	bf08      	it	eq
 80006ea:	ea20 70d3 	biceq.w	r0, r0, r3, lsr #31
 80006ee:	bd70      	pop	{r4, r5, r6, pc}
 80006f0:	f094 0f00 	teq	r4, #0
 80006f4:	d10f      	bne.n	8000716 <__aeabi_dmul+0x1c2>
 80006f6:	f001 4600 	and.w	r6, r1, #2147483648	; 0x80000000
 80006fa:	0040      	lsls	r0, r0, #1
 80006fc:	eb41 0101 	adc.w	r1, r1, r1
 8000700:	f411 1f80 	tst.w	r1, #1048576	; 0x100000
 8000704:	bf08      	it	eq
 8000706:	3c01      	subeq	r4, #1
 8000708:	d0f7      	beq.n	80006fa <__aeabi_dmul+0x1a6>
 800070a:	ea41 0106 	orr.w	r1, r1, r6
 800070e:	f095 0f00 	teq	r5, #0
 8000712:	bf18      	it	ne
 8000714:	4770      	bxne	lr
 8000716:	f003 4600 	and.w	r6, r3, #2147483648	; 0x80000000
 800071a:	0052      	lsls	r2, r2, #1
 800071c:	eb43 0303 	adc.w	r3, r3, r3
 8000720:	f413 1f80 	tst.w	r3, #1048576	; 0x100000
 8000724:	bf08      	it	eq
 8000726:	3d01      	subeq	r5, #1
 8000728:	d0f7      	beq.n	800071a <__aeabi_dmul+0x1c6>
 800072a:	ea43 0306 	orr.w	r3, r3, r6
 800072e:	4770      	bx	lr
 8000730:	ea94 0f0c 	teq	r4, ip
 8000734:	ea0c 5513 	and.w	r5, ip, r3, lsr #20
 8000738:	bf18      	it	ne
 800073a:	ea95 0f0c 	teqne	r5, ip
 800073e:	d00c      	beq.n	800075a <__aeabi_dmul+0x206>
 8000740:	ea50 0641 	orrs.w	r6, r0, r1, lsl #1
 8000744:	bf18      	it	ne
 8000746:	ea52 0643 	orrsne.w	r6, r2, r3, lsl #1
 800074a:	d1d1      	bne.n	80006f0 <__aeabi_dmul+0x19c>
 800074c:	ea81 0103 	eor.w	r1, r1, r3
 8000750:	f001 4100 	and.w	r1, r1, #2147483648	; 0x80000000
 8000754:	f04f 0000 	mov.w	r0, #0
 8000758:	bd70      	pop	{r4, r5, r6, pc}
 800075a:	ea50 0641 	orrs.w	r6, r0, r1, lsl #1
 800075e:	bf06      	itte	eq
 8000760:	4610      	moveq	r0, r2
 8000762:	4619      	moveq	r1, r3
 8000764:	ea52 0643 	orrsne.w	r6, r2, r3, lsl #1
 8000768:	d019      	beq.n	800079e <__aeabi_dmul+0x24a>
 800076a:	ea94 0f0c 	teq	r4, ip
 800076e:	d102      	bne.n	8000776 <__aeabi_dmul+0x222>
 8000770:	ea50 3601 	orrs.w	r6, r0, r1, lsl #12
 8000774:	d113      	bne.n	800079e <__aeabi_dmul+0x24a>
 8000776:	ea95 0f0c 	teq	r5, ip
 800077a:	d105      	bne.n	8000788 <__aeabi_dmul+0x234>
 800077c:	ea52 3603 	orrs.w	r6, r2, r3, lsl #12
 8000780:	bf1c      	itt	ne
 8000782:	4610      	movne	r0, r2
 8000784:	4619      	movne	r1, r3
 8000786:	d10a      	bne.n	800079e <__aeabi_dmul+0x24a>
 8000788:	ea81 0103 	eor.w	r1, r1, r3
 800078c:	f001 4100 	and.w	r1, r1, #2147483648	; 0x80000000
 8000790:	f041 41fe 	orr.w	r1, r1, #2130706432	; 0x7f000000
 8000794:	f441 0170 	orr.w	r1, r1, #15728640	; 0xf00000
 8000798:	f04f 0000 	mov.w	r0, #0
 800079c:	bd70      	pop	{r4, r5, r6, pc}
 800079e:	f041 41fe 	orr.w	r1, r1, #2130706432	; 0x7f000000
 80007a2:	f441 0178 	orr.w	r1, r1, #16252928	; 0xf80000
 80007a6:	bd70      	pop	{r4, r5, r6, pc}

080007a8 <__aeabi_ddiv>:
__aeabi_ddiv():
 80007a8:	b570      	push	{r4, r5, r6, lr}
 80007aa:	f04f 0cff 	mov.w	ip, #255	; 0xff
 80007ae:	f44c 6ce0 	orr.w	ip, ip, #1792	; 0x700
 80007b2:	ea1c 5411 	ands.w	r4, ip, r1, lsr #20
 80007b6:	bf1d      	ittte	ne
 80007b8:	ea1c 5513 	andsne.w	r5, ip, r3, lsr #20
 80007bc:	ea94 0f0c 	teqne	r4, ip
 80007c0:	ea95 0f0c 	teqne	r5, ip
 80007c4:	f000 f8a7 	bleq	8000916 <__aeabi_ddiv+0x16e>
 80007c8:	eba4 0405 	sub.w	r4, r4, r5
 80007cc:	ea81 0e03 	eor.w	lr, r1, r3
 80007d0:	ea52 3503 	orrs.w	r5, r2, r3, lsl #12
 80007d4:	ea4f 3101 	mov.w	r1, r1, lsl #12
 80007d8:	f000 8088 	beq.w	80008ec <__aeabi_ddiv+0x144>
 80007dc:	ea4f 3303 	mov.w	r3, r3, lsl #12
 80007e0:	f04f 5580 	mov.w	r5, #268435456	; 0x10000000
 80007e4:	ea45 1313 	orr.w	r3, r5, r3, lsr #4
 80007e8:	ea43 6312 	orr.w	r3, r3, r2, lsr #24
 80007ec:	ea4f 2202 	mov.w	r2, r2, lsl #8
 80007f0:	ea45 1511 	orr.w	r5, r5, r1, lsr #4
 80007f4:	ea45 6510 	orr.w	r5, r5, r0, lsr #24
 80007f8:	ea4f 2600 	mov.w	r6, r0, lsl #8
 80007fc:	f00e 4100 	and.w	r1, lr, #2147483648	; 0x80000000
 8000800:	429d      	cmp	r5, r3
 8000802:	bf08      	it	eq
 8000804:	4296      	cmpeq	r6, r2
 8000806:	f144 04fd 	adc.w	r4, r4, #253	; 0xfd
 800080a:	f504 7440 	add.w	r4, r4, #768	; 0x300
 800080e:	d202      	bcs.n	8000816 <__aeabi_ddiv+0x6e>
 8000810:	085b      	lsrs	r3, r3, #1
 8000812:	ea4f 0232 	mov.w	r2, r2, rrx
 8000816:	1ab6      	subs	r6, r6, r2
 8000818:	eb65 0503 	sbc.w	r5, r5, r3
 800081c:	085b      	lsrs	r3, r3, #1
 800081e:	ea4f 0232 	mov.w	r2, r2, rrx
 8000822:	f44f 1080 	mov.w	r0, #1048576	; 0x100000
 8000826:	f44f 2c00 	mov.w	ip, #524288	; 0x80000
 800082a:	ebb6 0e02 	subs.w	lr, r6, r2
 800082e:	eb75 0e03 	sbcs.w	lr, r5, r3
 8000832:	bf22      	ittt	cs
 8000834:	1ab6      	subcs	r6, r6, r2
 8000836:	4675      	movcs	r5, lr
 8000838:	ea40 000c 	orrcs.w	r0, r0, ip
 800083c:	085b      	lsrs	r3, r3, #1
 800083e:	ea4f 0232 	mov.w	r2, r2, rrx
 8000842:	ebb6 0e02 	subs.w	lr, r6, r2
 8000846:	eb75 0e03 	sbcs.w	lr, r5, r3
 800084a:	bf22      	ittt	cs
 800084c:	1ab6      	subcs	r6, r6, r2
 800084e:	4675      	movcs	r5, lr
 8000850:	ea40 005c 	orrcs.w	r0, r0, ip, lsr #1
 8000854:	085b      	lsrs	r3, r3, #1
 8000856:	ea4f 0232 	mov.w	r2, r2, rrx
 800085a:	ebb6 0e02 	subs.w	lr, r6, r2
 800085e:	eb75 0e03 	sbcs.w	lr, r5, r3
 8000862:	bf22      	ittt	cs
 8000864:	1ab6      	subcs	r6, r6, r2
 8000866:	4675      	movcs	r5, lr
 8000868:	ea40 009c 	orrcs.w	r0, r0, ip, lsr #2
 800086c:	085b      	lsrs	r3, r3, #1
 800086e:	ea4f 0232 	mov.w	r2, r2, rrx
 8000872:	ebb6 0e02 	subs.w	lr, r6, r2
 8000876:	eb75 0e03 	sbcs.w	lr, r5, r3
 800087a:	bf22      	ittt	cs
 800087c:	1ab6      	subcs	r6, r6, r2
 800087e:	4675      	movcs	r5, lr
 8000880:	ea40 00dc 	orrcs.w	r0, r0, ip, lsr #3
 8000884:	ea55 0e06 	orrs.w	lr, r5, r6
 8000888:	d018      	beq.n	80008bc <__aeabi_ddiv+0x114>
 800088a:	ea4f 1505 	mov.w	r5, r5, lsl #4
 800088e:	ea45 7516 	orr.w	r5, r5, r6, lsr #28
 8000892:	ea4f 1606 	mov.w	r6, r6, lsl #4
 8000896:	ea4f 03c3 	mov.w	r3, r3, lsl #3
 800089a:	ea43 7352 	orr.w	r3, r3, r2, lsr #29
 800089e:	ea4f 02c2 	mov.w	r2, r2, lsl #3
 80008a2:	ea5f 1c1c 	movs.w	ip, ip, lsr #4
 80008a6:	d1c0      	bne.n	800082a <__aeabi_ddiv+0x82>
 80008a8:	f411 1f80 	tst.w	r1, #1048576	; 0x100000
 80008ac:	d10b      	bne.n	80008c6 <__aeabi_ddiv+0x11e>
 80008ae:	ea41 0100 	orr.w	r1, r1, r0
 80008b2:	f04f 0000 	mov.w	r0, #0
 80008b6:	f04f 4c00 	mov.w	ip, #2147483648	; 0x80000000
 80008ba:	e7b6      	b.n	800082a <__aeabi_ddiv+0x82>
 80008bc:	f411 1f80 	tst.w	r1, #1048576	; 0x100000
 80008c0:	bf04      	itt	eq
 80008c2:	4301      	orreq	r1, r0
 80008c4:	2000      	moveq	r0, #0
 80008c6:	f1b4 0cfd 	subs.w	ip, r4, #253	; 0xfd
 80008ca:	bf88      	it	hi
 80008cc:	f5bc 6fe0 	cmphi.w	ip, #1792	; 0x700
 80008d0:	f63f aeaf 	bhi.w	8000632 <__aeabi_dmul+0xde>
 80008d4:	ebb5 0c03 	subs.w	ip, r5, r3
 80008d8:	bf04      	itt	eq
 80008da:	ebb6 0c02 	subseq.w	ip, r6, r2
 80008de:	ea5f 0c50 	movseq.w	ip, r0, lsr #1
 80008e2:	f150 0000 	adcs.w	r0, r0, #0
 80008e6:	eb41 5104 	adc.w	r1, r1, r4, lsl #20
 80008ea:	bd70      	pop	{r4, r5, r6, pc}
 80008ec:	f00e 4e00 	and.w	lr, lr, #2147483648	; 0x80000000
 80008f0:	ea4e 3111 	orr.w	r1, lr, r1, lsr #12
 80008f4:	eb14 045c 	adds.w	r4, r4, ip, lsr #1
 80008f8:	bfc2      	ittt	gt
 80008fa:	ebd4 050c 	rsbsgt	r5, r4, ip
 80008fe:	ea41 5104 	orrgt.w	r1, r1, r4, lsl #20
 8000902:	bd70      	popgt	{r4, r5, r6, pc}
 8000904:	f441 1180 	orr.w	r1, r1, #1048576	; 0x100000
 8000908:	f04f 0e00 	mov.w	lr, #0
 800090c:	3c01      	subs	r4, #1
 800090e:	e690      	b.n	8000632 <__aeabi_dmul+0xde>
 8000910:	ea45 0e06 	orr.w	lr, r5, r6
 8000914:	e68d      	b.n	8000632 <__aeabi_dmul+0xde>
 8000916:	ea0c 5513 	and.w	r5, ip, r3, lsr #20
 800091a:	ea94 0f0c 	teq	r4, ip
 800091e:	bf08      	it	eq
 8000920:	ea95 0f0c 	teqeq	r5, ip
 8000924:	f43f af3b 	beq.w	800079e <__aeabi_dmul+0x24a>
 8000928:	ea94 0f0c 	teq	r4, ip
 800092c:	d10a      	bne.n	8000944 <__aeabi_ddiv+0x19c>
 800092e:	ea50 3401 	orrs.w	r4, r0, r1, lsl #12
 8000932:	f47f af34 	bne.w	800079e <__aeabi_dmul+0x24a>
 8000936:	ea95 0f0c 	teq	r5, ip
 800093a:	f47f af25 	bne.w	8000788 <__aeabi_dmul+0x234>
 800093e:	4610      	mov	r0, r2
 8000940:	4619      	mov	r1, r3
 8000942:	e72c      	b.n	800079e <__aeabi_dmul+0x24a>
 8000944:	ea95 0f0c 	teq	r5, ip
 8000948:	d106      	bne.n	8000958 <__aeabi_ddiv+0x1b0>
 800094a:	ea52 3503 	orrs.w	r5, r2, r3, lsl #12
 800094e:	f43f aefd 	beq.w	800074c <__aeabi_dmul+0x1f8>
 8000952:	4610      	mov	r0, r2
 8000954:	4619      	mov	r1, r3
 8000956:	e722      	b.n	800079e <__aeabi_dmul+0x24a>
 8000958:	ea50 0641 	orrs.w	r6, r0, r1, lsl #1
 800095c:	bf18      	it	ne
 800095e:	ea52 0643 	orrsne.w	r6, r2, r3, lsl #1
 8000962:	f47f aec5 	bne.w	80006f0 <__aeabi_dmul+0x19c>
 8000966:	ea50 0441 	orrs.w	r4, r0, r1, lsl #1
 800096a:	f47f af0d 	bne.w	8000788 <__aeabi_dmul+0x234>
 800096e:	ea52 0543 	orrs.w	r5, r2, r3, lsl #1
 8000972:	f47f aeeb 	bne.w	800074c <__aeabi_dmul+0x1f8>
 8000976:	e712      	b.n	800079e <__aeabi_dmul+0x24a>

08000978 <__gedf2>:
__gtdf2():
 8000978:	f04f 3cff 	mov.w	ip, #4294967295
 800097c:	e006      	b.n	800098c <__cmpdf2+0x4>
 800097e:	bf00      	nop

08000980 <__ledf2>:
 8000980:	f04f 0c01 	mov.w	ip, #1
 8000984:	e002      	b.n	800098c <__cmpdf2+0x4>
 8000986:	bf00      	nop

08000988 <__cmpdf2>:
 8000988:	f04f 0c01 	mov.w	ip, #1
 800098c:	f84d cd04 	str.w	ip, [sp, #-4]!
 8000990:	ea4f 0c41 	mov.w	ip, r1, lsl #1
 8000994:	ea7f 5c6c 	mvns.w	ip, ip, asr #21
 8000998:	ea4f 0c43 	mov.w	ip, r3, lsl #1
 800099c:	bf18      	it	ne
 800099e:	ea7f 5c6c 	mvnsne.w	ip, ip, asr #21
 80009a2:	d01b      	beq.n	80009dc <__cmpdf2+0x54>
 80009a4:	b001      	add	sp, #4
 80009a6:	ea50 0c41 	orrs.w	ip, r0, r1, lsl #1
 80009aa:	bf0c      	ite	eq
 80009ac:	ea52 0c43 	orrseq.w	ip, r2, r3, lsl #1
 80009b0:	ea91 0f03 	teqne	r1, r3
 80009b4:	bf02      	ittt	eq
 80009b6:	ea90 0f02 	teqeq	r0, r2
 80009ba:	2000      	moveq	r0, #0
 80009bc:	4770      	bxeq	lr
 80009be:	f110 0f00 	cmn.w	r0, #0
 80009c2:	ea91 0f03 	teq	r1, r3
 80009c6:	bf58      	it	pl
 80009c8:	4299      	cmppl	r1, r3
 80009ca:	bf08      	it	eq
 80009cc:	4290      	cmpeq	r0, r2
 80009ce:	bf2c      	ite	cs
 80009d0:	17d8      	asrcs	r0, r3, #31
 80009d2:	ea6f 70e3 	mvncc.w	r0, r3, asr #31
 80009d6:	f040 0001 	orr.w	r0, r0, #1
 80009da:	4770      	bx	lr
 80009dc:	ea4f 0c41 	mov.w	ip, r1, lsl #1
 80009e0:	ea7f 5c6c 	mvns.w	ip, ip, asr #21
 80009e4:	d102      	bne.n	80009ec <__cmpdf2+0x64>
 80009e6:	ea50 3c01 	orrs.w	ip, r0, r1, lsl #12
 80009ea:	d107      	bne.n	80009fc <__cmpdf2+0x74>
 80009ec:	ea4f 0c43 	mov.w	ip, r3, lsl #1
 80009f0:	ea7f 5c6c 	mvns.w	ip, ip, asr #21
 80009f4:	d1d6      	bne.n	80009a4 <__cmpdf2+0x1c>
 80009f6:	ea52 3c03 	orrs.w	ip, r2, r3, lsl #12
 80009fa:	d0d3      	beq.n	80009a4 <__cmpdf2+0x1c>
 80009fc:	f85d 0b04 	ldr.w	r0, [sp], #4
 8000a00:	4770      	bx	lr
__cmpdf2():
 8000a02:	bf00      	nop

08000a04 <__aeabi_cdrcmple>:
__aeabi_cdrcmple():
 8000a04:	4684      	mov	ip, r0
 8000a06:	4610      	mov	r0, r2
 8000a08:	4662      	mov	r2, ip
 8000a0a:	468c      	mov	ip, r1
 8000a0c:	4619      	mov	r1, r3
 8000a0e:	4663      	mov	r3, ip
 8000a10:	e000      	b.n	8000a14 <__aeabi_cdcmpeq>
 8000a12:	bf00      	nop

08000a14 <__aeabi_cdcmpeq>:
 8000a14:	b501      	push	{r0, lr}
 8000a16:	f7ff ffb7 	bl	8000988 <__cmpdf2>
 8000a1a:	2800      	cmp	r0, #0
 8000a1c:	bf48      	it	mi
 8000a1e:	f110 0f00 	cmnmi.w	r0, #0
 8000a22:	bd01      	pop	{r0, pc}

08000a24 <__aeabi_dcmpeq>:
__aeabi_dcmpeq():
 8000a24:	f84d ed08 	str.w	lr, [sp, #-8]!
 8000a28:	f7ff fff4 	bl	8000a14 <__aeabi_cdcmpeq>
 8000a2c:	bf0c      	ite	eq
 8000a2e:	2001      	moveq	r0, #1
 8000a30:	2000      	movne	r0, #0
 8000a32:	f85d fb08 	ldr.w	pc, [sp], #8
 8000a36:	bf00      	nop

08000a38 <__aeabi_dcmplt>:
__aeabi_dcmplt():
 8000a38:	f84d ed08 	str.w	lr, [sp, #-8]!
 8000a3c:	f7ff ffea 	bl	8000a14 <__aeabi_cdcmpeq>
 8000a40:	bf34      	ite	cc
 8000a42:	2001      	movcc	r0, #1
 8000a44:	2000      	movcs	r0, #0
 8000a46:	f85d fb08 	ldr.w	pc, [sp], #8
 8000a4a:	bf00      	nop

08000a4c <__aeabi_dcmple>:
__aeabi_dcmple():
 8000a4c:	f84d ed08 	str.w	lr, [sp, #-8]!
 8000a50:	f7ff ffe0 	bl	8000a14 <__aeabi_cdcmpeq>
 8000a54:	bf94      	ite	ls
 8000a56:	2001      	movls	r0, #1
 8000a58:	2000      	movhi	r0, #0
 8000a5a:	f85d fb08 	ldr.w	pc, [sp], #8
 8000a5e:	bf00      	nop

08000a60 <__aeabi_dcmpge>:
__aeabi_dcmpge():
 8000a60:	f84d ed08 	str.w	lr, [sp, #-8]!
 8000a64:	f7ff ffce 	bl	8000a04 <__aeabi_cdrcmple>
 8000a68:	bf94      	ite	ls
 8000a6a:	2001      	movls	r0, #1
 8000a6c:	2000      	movhi	r0, #0
 8000a6e:	f85d fb08 	ldr.w	pc, [sp], #8
 8000a72:	bf00      	nop

08000a74 <__aeabi_dcmpgt>:
__aeabi_dcmpgt():
 8000a74:	f84d ed08 	str.w	lr, [sp, #-8]!
 8000a78:	f7ff ffc4 	bl	8000a04 <__aeabi_cdrcmple>
 8000a7c:	bf34      	ite	cc
 8000a7e:	2001      	movcc	r0, #1
 8000a80:	2000      	movcs	r0, #0
 8000a82:	f85d fb08 	ldr.w	pc, [sp], #8
 8000a86:	bf00      	nop

08000a88 <__aeabi_d2f>:
__aeabi_d2f():
 8000a88:	ea4f 0241 	mov.w	r2, r1, lsl #1
 8000a8c:	f1b2 43e0 	subs.w	r3, r2, #1879048192	; 0x70000000
 8000a90:	bf24      	itt	cs
 8000a92:	f5b3 1c00 	subscs.w	ip, r3, #2097152	; 0x200000
 8000a96:	f1dc 5cfe 	rsbscs	ip, ip, #532676608	; 0x1fc00000
 8000a9a:	d90d      	bls.n	8000ab8 <__aeabi_d2f+0x30>
 8000a9c:	f001 4c00 	and.w	ip, r1, #2147483648	; 0x80000000
 8000aa0:	ea4f 02c0 	mov.w	r2, r0, lsl #3
 8000aa4:	ea4c 7050 	orr.w	r0, ip, r0, lsr #29
 8000aa8:	f1b2 4f00 	cmp.w	r2, #2147483648	; 0x80000000
 8000aac:	eb40 0083 	adc.w	r0, r0, r3, lsl #2
 8000ab0:	bf08      	it	eq
 8000ab2:	f020 0001 	biceq.w	r0, r0, #1
 8000ab6:	4770      	bx	lr
 8000ab8:	f011 4f80 	tst.w	r1, #1073741824	; 0x40000000
 8000abc:	d121      	bne.n	8000b02 <__aeabi_d2f+0x7a>
 8000abe:	f113 7238 	adds.w	r2, r3, #48234496	; 0x2e00000
 8000ac2:	bfbc      	itt	lt
 8000ac4:	f001 4000 	andlt.w	r0, r1, #2147483648	; 0x80000000
 8000ac8:	4770      	bxlt	lr
 8000aca:	f441 1180 	orr.w	r1, r1, #1048576	; 0x100000
 8000ace:	ea4f 5252 	mov.w	r2, r2, lsr #21
 8000ad2:	f1c2 0218 	rsb	r2, r2, #24
 8000ad6:	f1c2 0c20 	rsb	ip, r2, #32
 8000ada:	fa10 f30c 	lsls.w	r3, r0, ip
 8000ade:	fa20 f002 	lsr.w	r0, r0, r2
 8000ae2:	bf18      	it	ne
 8000ae4:	f040 0001 	orrne.w	r0, r0, #1
 8000ae8:	ea4f 23c1 	mov.w	r3, r1, lsl #11
 8000aec:	ea4f 23d3 	mov.w	r3, r3, lsr #11
 8000af0:	fa03 fc0c 	lsl.w	ip, r3, ip
 8000af4:	ea40 000c 	orr.w	r0, r0, ip
 8000af8:	fa23 f302 	lsr.w	r3, r3, r2
 8000afc:	ea4f 0343 	mov.w	r3, r3, lsl #1
 8000b00:	e7cc      	b.n	8000a9c <__aeabi_d2f+0x14>
 8000b02:	ea7f 5362 	mvns.w	r3, r2, asr #21
 8000b06:	d107      	bne.n	8000b18 <__aeabi_d2f+0x90>
 8000b08:	ea50 3301 	orrs.w	r3, r0, r1, lsl #12
 8000b0c:	bf1e      	ittt	ne
 8000b0e:	f04f 40fe 	movne.w	r0, #2130706432	; 0x7f000000
 8000b12:	f440 0040 	orrne.w	r0, r0, #12582912	; 0xc00000
 8000b16:	4770      	bxne	lr
 8000b18:	f001 4000 	and.w	r0, r1, #2147483648	; 0x80000000
 8000b1c:	f040 40fe 	orr.w	r0, r0, #2130706432	; 0x7f000000
 8000b20:	f440 0000 	orr.w	r0, r0, #8388608	; 0x800000
 8000b24:	4770      	bx	lr
 8000b26:	bf00      	nop

08000b28 <memcpy>:
memcpy():
 8000b28:	4684      	mov	ip, r0
 8000b2a:	ea41 0300 	orr.w	r3, r1, r0
 8000b2e:	f013 0303 	ands.w	r3, r3, #3
 8000b32:	d16d      	bne.n	8000c10 <memcpy+0xe8>
 8000b34:	3a40      	subs	r2, #64	; 0x40
 8000b36:	d341      	bcc.n	8000bbc <memcpy+0x94>
 8000b38:	f851 3b04 	ldr.w	r3, [r1], #4
 8000b3c:	f840 3b04 	str.w	r3, [r0], #4
 8000b40:	f851 3b04 	ldr.w	r3, [r1], #4
 8000b44:	f840 3b04 	str.w	r3, [r0], #4
 8000b48:	f851 3b04 	ldr.w	r3, [r1], #4
 8000b4c:	f840 3b04 	str.w	r3, [r0], #4
 8000b50:	f851 3b04 	ldr.w	r3, [r1], #4
 8000b54:	f840 3b04 	str.w	r3, [r0], #4
 8000b58:	f851 3b04 	ldr.w	r3, [r1], #4
 8000b5c:	f840 3b04 	str.w	r3, [r0], #4
 8000b60:	f851 3b04 	ldr.w	r3, [r1], #4
 8000b64:	f840 3b04 	str.w	r3, [r0], #4
 8000b68:	f851 3b04 	ldr.w	r3, [r1], #4
 8000b6c:	f840 3b04 	str.w	r3, [r0], #4
 8000b70:	f851 3b04 	ldr.w	r3, [r1], #4
 8000b74:	f840 3b04 	str.w	r3, [r0], #4
 8000b78:	f851 3b04 	ldr.w	r3, [r1], #4
 8000b7c:	f840 3b04 	str.w	r3, [r0], #4
 8000b80:	f851 3b04 	ldr.w	r3, [r1], #4
 8000b84:	f840 3b04 	str.w	r3, [r0], #4
 8000b88:	f851 3b04 	ldr.w	r3, [r1], #4
 8000b8c:	f840 3b04 	str.w	r3, [r0], #4
 8000b90:	f851 3b04 	ldr.w	r3, [r1], #4
 8000b94:	f840 3b04 	str.w	r3, [r0], #4
 8000b98:	f851 3b04 	ldr.w	r3, [r1], #4
 8000b9c:	f840 3b04 	str.w	r3, [r0], #4
 8000ba0:	f851 3b04 	ldr.w	r3, [r1], #4
 8000ba4:	f840 3b04 	str.w	r3, [r0], #4
 8000ba8:	f851 3b04 	ldr.w	r3, [r1], #4
 8000bac:	f840 3b04 	str.w	r3, [r0], #4
 8000bb0:	f851 3b04 	ldr.w	r3, [r1], #4
 8000bb4:	f840 3b04 	str.w	r3, [r0], #4
 8000bb8:	3a40      	subs	r2, #64	; 0x40
 8000bba:	d2bd      	bcs.n	8000b38 <memcpy+0x10>
 8000bbc:	3230      	adds	r2, #48	; 0x30
 8000bbe:	d311      	bcc.n	8000be4 <memcpy+0xbc>
 8000bc0:	f851 3b04 	ldr.w	r3, [r1], #4
 8000bc4:	f840 3b04 	str.w	r3, [r0], #4
 8000bc8:	f851 3b04 	ldr.w	r3, [r1], #4
 8000bcc:	f840 3b04 	str.w	r3, [r0], #4
 8000bd0:	f851 3b04 	ldr.w	r3, [r1], #4
 8000bd4:	f840 3b04 	str.w	r3, [r0], #4
 8000bd8:	f851 3b04 	ldr.w	r3, [r1], #4
 8000bdc:	f840 3b04 	str.w	r3, [r0], #4
 8000be0:	3a10      	subs	r2, #16
 8000be2:	d2ed      	bcs.n	8000bc0 <memcpy+0x98>
 8000be4:	320c      	adds	r2, #12
 8000be6:	d305      	bcc.n	8000bf4 <memcpy+0xcc>
 8000be8:	f851 3b04 	ldr.w	r3, [r1], #4
 8000bec:	f840 3b04 	str.w	r3, [r0], #4
 8000bf0:	3a04      	subs	r2, #4
 8000bf2:	d2f9      	bcs.n	8000be8 <memcpy+0xc0>
 8000bf4:	3204      	adds	r2, #4
 8000bf6:	d008      	beq.n	8000c0a <memcpy+0xe2>
 8000bf8:	07d2      	lsls	r2, r2, #31
 8000bfa:	bf1c      	itt	ne
 8000bfc:	f811 3b01 	ldrbne.w	r3, [r1], #1
 8000c00:	f800 3b01 	strbne.w	r3, [r0], #1
 8000c04:	d301      	bcc.n	8000c0a <memcpy+0xe2>
 8000c06:	880b      	ldrh	r3, [r1, #0]
 8000c08:	8003      	strh	r3, [r0, #0]
 8000c0a:	4660      	mov	r0, ip
 8000c0c:	4770      	bx	lr
 8000c0e:	bf00      	nop
 8000c10:	2a08      	cmp	r2, #8
 8000c12:	d313      	bcc.n	8000c3c <memcpy+0x114>
 8000c14:	078b      	lsls	r3, r1, #30
 8000c16:	d08d      	beq.n	8000b34 <memcpy+0xc>
 8000c18:	f010 0303 	ands.w	r3, r0, #3
 8000c1c:	d08a      	beq.n	8000b34 <memcpy+0xc>
 8000c1e:	f1c3 0304 	rsb	r3, r3, #4
 8000c22:	1ad2      	subs	r2, r2, r3
 8000c24:	07db      	lsls	r3, r3, #31
 8000c26:	bf1c      	itt	ne
 8000c28:	f811 3b01 	ldrbne.w	r3, [r1], #1
 8000c2c:	f800 3b01 	strbne.w	r3, [r0], #1
 8000c30:	d380      	bcc.n	8000b34 <memcpy+0xc>
 8000c32:	f831 3b02 	ldrh.w	r3, [r1], #2
 8000c36:	f820 3b02 	strh.w	r3, [r0], #2
 8000c3a:	e77b      	b.n	8000b34 <memcpy+0xc>
 8000c3c:	3a04      	subs	r2, #4
 8000c3e:	d3d9      	bcc.n	8000bf4 <memcpy+0xcc>
 8000c40:	3a01      	subs	r2, #1
 8000c42:	f811 3b01 	ldrb.w	r3, [r1], #1
 8000c46:	f800 3b01 	strb.w	r3, [r0], #1
 8000c4a:	d2f9      	bcs.n	8000c40 <memcpy+0x118>
 8000c4c:	780b      	ldrb	r3, [r1, #0]
 8000c4e:	7003      	strb	r3, [r0, #0]
 8000c50:	784b      	ldrb	r3, [r1, #1]
 8000c52:	7043      	strb	r3, [r0, #1]
 8000c54:	788b      	ldrb	r3, [r1, #2]
 8000c56:	7083      	strb	r3, [r0, #2]
 8000c58:	4660      	mov	r0, ip
 8000c5a:	4770      	bx	lr

08000c5c <main>:
main():
 8000c5c:	4b79      	ldr	r3, [pc, #484]	; (8000e44 <main+0x1e8>)
 8000c5e:	487a      	ldr	r0, [pc, #488]	; (8000e48 <main+0x1ec>)
 8000c60:	6819      	ldr	r1, [r3, #0]
 8000c62:	4a7a      	ldr	r2, [pc, #488]	; (8000e4c <main+0x1f0>)
 8000c64:	f441 7100 	orr.w	r1, r1, #512	; 0x200
 8000c68:	e92d 4880 	stmdb	sp!, {r7, fp, lr}
 8000c6c:	6019      	str	r1, [r3, #0]
 8000c6e:	6819      	ldr	r1, [r3, #0]
 8000c70:	f441 6180 	orr.w	r1, r1, #1024	; 0x400
 8000c74:	6019      	str	r1, [r3, #0]
 8000c76:	6819      	ldr	r1, [r3, #0]
 8000c78:	f441 7180 	orr.w	r1, r1, #256	; 0x100
 8000c7c:	6019      	str	r1, [r3, #0]
 8000c7e:	68c1      	ldr	r1, [r0, #12]
 8000c80:	f64f 03ff 	movw	r3, #63743	; 0xf8ff
 8000c84:	400b      	ands	r3, r1
 8000c86:	431a      	orrs	r2, r3
 8000c88:	60c2      	str	r2, [r0, #12]
 8000c8a:	b08d      	sub	sp, #52	; 0x34
 8000c8c:	f00c fb1a 	bl	800d2c4 <HAL_InitTick.constprop.87>
 8000c90:	2001      	movs	r0, #1
 8000c92:	f00c fd07 	bl	800d6a4 <BSP_LED_Init>
 8000c96:	2000      	movs	r0, #0
 8000c98:	f00c fd04 	bl	800d6a4 <BSP_LED_Init>
 8000c9c:	2002      	movs	r0, #2
 8000c9e:	f00c fd01 	bl	800d6a4 <BSP_LED_Init>
 8000ca2:	2003      	movs	r0, #3
 8000ca4:	f00c fcfe 	bl	800d6a4 <BSP_LED_Init>
 8000ca8:	4b69      	ldr	r3, [pc, #420]	; (8000e50 <main+0x1f4>)
 8000caa:	496a      	ldr	r1, [pc, #424]	; (8000e54 <main+0x1f8>)
 8000cac:	6c1a      	ldr	r2, [r3, #64]	; 0x40
 8000cae:	f042 5280 	orr.w	r2, r2, #268435456	; 0x10000000
 8000cb2:	641a      	str	r2, [r3, #64]	; 0x40
 8000cb4:	680a      	ldr	r2, [r1, #0]
 8000cb6:	f442 4240 	orr.w	r2, r2, #49152	; 0xc000
 8000cba:	600a      	str	r2, [r1, #0]
 8000cbc:	689a      	ldr	r2, [r3, #8]
 8000cbe:	f002 020c 	and.w	r2, r2, #12
 8000cc2:	2a04      	cmp	r2, #4
 8000cc4:	d007      	beq.n	8000cd6 <main+0x7a>
 8000cc6:	689a      	ldr	r2, [r3, #8]
 8000cc8:	f002 020c 	and.w	r2, r2, #12
 8000ccc:	2a08      	cmp	r2, #8
 8000cce:	d11c      	bne.n	8000d0a <main+0xae>
 8000cd0:	685b      	ldr	r3, [r3, #4]
 8000cd2:	025e      	lsls	r6, r3, #9
 8000cd4:	d519      	bpl.n	8000d0a <main+0xae>
 8000cd6:	4b5e      	ldr	r3, [pc, #376]	; (8000e50 <main+0x1f4>)
 8000cd8:	681b      	ldr	r3, [r3, #0]
 8000cda:	4b5d      	ldr	r3, [pc, #372]	; (8000e50 <main+0x1f4>)
 8000cdc:	689a      	ldr	r2, [r3, #8]
 8000cde:	f002 020c 	and.w	r2, r2, #12
 8000ce2:	2a08      	cmp	r2, #8
 8000ce4:	d00f      	beq.n	8000d06 <main+0xaa>
 8000ce6:	4a5c      	ldr	r2, [pc, #368]	; (8000e58 <main+0x1fc>)
 8000ce8:	f8df b174 	ldr.w	fp, [pc, #372]	; 8000e60 <main+0x204>
 8000cec:	2100      	movs	r1, #0
 8000cee:	6011      	str	r1, [r2, #0]
 8000cf0:	f8db 1000 	ldr.w	r1, [fp]
 8000cf4:	681a      	ldr	r2, [r3, #0]
 8000cf6:	4856      	ldr	r0, [pc, #344]	; (8000e50 <main+0x1f4>)
 8000cf8:	0192      	lsls	r2, r2, #6
 8000cfa:	d52d      	bpl.n	8000d58 <main+0xfc>
 8000cfc:	f8db 2000 	ldr.w	r2, [fp]
 8000d00:	1a52      	subs	r2, r2, r1
 8000d02:	2a64      	cmp	r2, #100	; 0x64
 8000d04:	d9f6      	bls.n	8000cf4 <main+0x98>
 8000d06:	f00d f8e9 	bl	800dedc <Error_Handler>
 8000d0a:	4b54      	ldr	r3, [pc, #336]	; (8000e5c <main+0x200>)
 8000d0c:	f8df b150 	ldr.w	fp, [pc, #336]	; 8000e60 <main+0x204>
 8000d10:	484f      	ldr	r0, [pc, #316]	; (8000e50 <main+0x1f4>)
 8000d12:	2200      	movs	r2, #0
 8000d14:	701a      	strb	r2, [r3, #0]
 8000d16:	f8db 1000 	ldr.w	r1, [fp]
 8000d1a:	6803      	ldr	r3, [r0, #0]
 8000d1c:	039d      	lsls	r5, r3, #14
 8000d1e:	f241 3288 	movw	r2, #5000	; 0x1388
 8000d22:	d507      	bpl.n	8000d34 <main+0xd8>
 8000d24:	f8db 3000 	ldr.w	r3, [fp]
 8000d28:	1a5b      	subs	r3, r3, r1
 8000d2a:	4293      	cmp	r3, r2
 8000d2c:	d8eb      	bhi.n	8000d06 <main+0xaa>
 8000d2e:	6803      	ldr	r3, [r0, #0]
 8000d30:	039d      	lsls	r5, r3, #14
 8000d32:	d4f7      	bmi.n	8000d24 <main+0xc8>
 8000d34:	4b49      	ldr	r3, [pc, #292]	; (8000e5c <main+0x200>)
 8000d36:	4846      	ldr	r0, [pc, #280]	; (8000e50 <main+0x1f4>)
 8000d38:	2201      	movs	r2, #1
 8000d3a:	701a      	strb	r2, [r3, #0]
 8000d3c:	f8db 1000 	ldr.w	r1, [fp]
 8000d40:	f241 3288 	movw	r2, #5000	; 0x1388
 8000d44:	6803      	ldr	r3, [r0, #0]
 8000d46:	039c      	lsls	r4, r3, #14
 8000d48:	d4c7      	bmi.n	8000cda <main+0x7e>
 8000d4a:	f8db 3000 	ldr.w	r3, [fp]
 8000d4e:	1a5b      	subs	r3, r3, r1
 8000d50:	4293      	cmp	r3, r2
 8000d52:	d9f7      	bls.n	8000d44 <main+0xe8>
 8000d54:	f00d f8c2 	bl	800dedc <Error_Handler>
 8000d58:	f647 71c0 	movw	r1, #32704	; 0x7fc0
 8000d5c:	fa91 f1a1 	rbit	r1, r1
 8000d60:	fab1 f181 	clz	r1, r1
 8000d64:	f44f 3340 	mov.w	r3, #196608	; 0x30000
 8000d68:	fa93 f3a3 	rbit	r3, r3
 8000d6c:	fab3 f383 	clz	r3, r3
 8000d70:	f04f 6270 	mov.w	r2, #251658240	; 0xf000000
 8000d74:	fa92 f2a2 	rbit	r2, r2
 8000d78:	fab2 f282 	clz	r2, r2
 8000d7c:	f44f 74a8 	mov.w	r4, #336	; 0x150
 8000d80:	b2d2      	uxtb	r2, r2
 8000d82:	b2c9      	uxtb	r1, r1
 8000d84:	2307      	movs	r3, #7
 8000d86:	fa04 f101 	lsl.w	r1, r4, r1
 8000d8a:	4093      	lsls	r3, r2
 8000d8c:	430b      	orrs	r3, r1
 8000d8e:	4a32      	ldr	r2, [pc, #200]	; (8000e58 <main+0x1fc>)
 8000d90:	f043 5301 	orr.w	r3, r3, #541065216	; 0x20400000
 8000d94:	f043 0308 	orr.w	r3, r3, #8
 8000d98:	2101      	movs	r1, #1
 8000d9a:	6043      	str	r3, [r0, #4]
 8000d9c:	6011      	str	r1, [r2, #0]
 8000d9e:	f8db 2000 	ldr.w	r2, [fp]
 8000da2:	6801      	ldr	r1, [r0, #0]
 8000da4:	4b2a      	ldr	r3, [pc, #168]	; (8000e50 <main+0x1f4>)
 8000da6:	018f      	lsls	r7, r1, #6
 8000da8:	d405      	bmi.n	8000db6 <main+0x15a>
 8000daa:	f8db 3000 	ldr.w	r3, [fp]
 8000dae:	1a9b      	subs	r3, r3, r2
 8000db0:	2b64      	cmp	r3, #100	; 0x64
 8000db2:	d9f6      	bls.n	8000da2 <main+0x146>
 8000db4:	e7a7      	b.n	8000d06 <main+0xaa>
 8000db6:	4923      	ldr	r1, [pc, #140]	; (8000e44 <main+0x1e8>)
 8000db8:	680a      	ldr	r2, [r1, #0]
 8000dba:	f002 020f 	and.w	r2, r2, #15
 8000dbe:	2a04      	cmp	r2, #4
 8000dc0:	d822      	bhi.n	8000e08 <main+0x1ac>
 8000dc2:	2205      	movs	r2, #5
 8000dc4:	700a      	strb	r2, [r1, #0]
 8000dc6:	680a      	ldr	r2, [r1, #0]
 8000dc8:	f002 020f 	and.w	r2, r2, #15
 8000dcc:	2a05      	cmp	r2, #5
 8000dce:	d19a      	bne.n	8000d06 <main+0xaa>
 8000dd0:	689a      	ldr	r2, [r3, #8]
 8000dd2:	f022 02f0 	bic.w	r2, r2, #240	; 0xf0
 8000dd6:	609a      	str	r2, [r3, #8]
 8000dd8:	681a      	ldr	r2, [r3, #0]
 8000dda:	0196      	lsls	r6, r2, #6
 8000ddc:	d593      	bpl.n	8000d06 <main+0xaa>
 8000dde:	689a      	ldr	r2, [r3, #8]
 8000de0:	f022 0203 	bic.w	r2, r2, #3
 8000de4:	f042 0202 	orr.w	r2, r2, #2
 8000de8:	609a      	str	r2, [r3, #8]
 8000dea:	f8db 0000 	ldr.w	r0, [fp]
 8000dee:	f241 3188 	movw	r1, #5000	; 0x1388
 8000df2:	689a      	ldr	r2, [r3, #8]
 8000df4:	f002 020c 	and.w	r2, r2, #12
 8000df8:	2a08      	cmp	r2, #8
 8000dfa:	d03c      	beq.n	8000e76 <main+0x21a>
 8000dfc:	f8db 2000 	ldr.w	r2, [fp]
 8000e00:	1a12      	subs	r2, r2, r0
 8000e02:	428a      	cmp	r2, r1
 8000e04:	d9f5      	bls.n	8000df2 <main+0x196>
 8000e06:	e77e      	b.n	8000d06 <main+0xaa>
 8000e08:	689a      	ldr	r2, [r3, #8]
 8000e0a:	f022 02f0 	bic.w	r2, r2, #240	; 0xf0
 8000e0e:	609a      	str	r2, [r3, #8]
 8000e10:	681a      	ldr	r2, [r3, #0]
 8000e12:	0195      	lsls	r5, r2, #6
 8000e14:	f57f af77 	bpl.w	8000d06 <main+0xaa>
 8000e18:	689a      	ldr	r2, [r3, #8]
 8000e1a:	f022 0203 	bic.w	r2, r2, #3
 8000e1e:	f042 0202 	orr.w	r2, r2, #2
 8000e22:	609a      	str	r2, [r3, #8]
 8000e24:	f8db 0000 	ldr.w	r0, [fp]
 8000e28:	f241 3188 	movw	r1, #5000	; 0x1388
 8000e2c:	689a      	ldr	r2, [r3, #8]
 8000e2e:	f002 020c 	and.w	r2, r2, #12
 8000e32:	2a08      	cmp	r2, #8
 8000e34:	d016      	beq.n	8000e64 <main+0x208>
 8000e36:	f8db 2000 	ldr.w	r2, [fp]
 8000e3a:	1a12      	subs	r2, r2, r0
 8000e3c:	428a      	cmp	r2, r1
 8000e3e:	d9f5      	bls.n	8000e2c <main+0x1d0>
 8000e40:	e761      	b.n	8000d06 <main+0xaa>
 8000e42:	bf00      	nop
 8000e44:	40023c00 	.word	0x40023c00
 8000e48:	e000ed00 	.word	0xe000ed00
 8000e4c:	05fa0300 	.word	0x05fa0300
 8000e50:	40023800 	.word	0x40023800
 8000e54:	40007000 	.word	0x40007000
 8000e58:	42470060 	.word	0x42470060
 8000e5c:	40023802 	.word	0x40023802
 8000e60:	2001f734 	.word	0x2001f734
 8000e64:	4bc6      	ldr	r3, [pc, #792]	; (8001180 <main+0x524>)
 8000e66:	2205      	movs	r2, #5
 8000e68:	701a      	strb	r2, [r3, #0]
 8000e6a:	681b      	ldr	r3, [r3, #0]
 8000e6c:	f003 030f 	and.w	r3, r3, #15
 8000e70:	4293      	cmp	r3, r2
 8000e72:	f47f af48 	bne.w	8000d06 <main+0xaa>
 8000e76:	4cc3      	ldr	r4, [pc, #780]	; (8001184 <main+0x528>)
 8000e78:	68a3      	ldr	r3, [r4, #8]
 8000e7a:	f423 53e0 	bic.w	r3, r3, #7168	; 0x1c00
 8000e7e:	f443 53a0 	orr.w	r3, r3, #5120	; 0x1400
 8000e82:	60a3      	str	r3, [r4, #8]
 8000e84:	68a3      	ldr	r3, [r4, #8]
 8000e86:	f423 4360 	bic.w	r3, r3, #57344	; 0xe000
 8000e8a:	f443 4300 	orr.w	r3, r3, #32768	; 0x8000
 8000e8e:	60a3      	str	r3, [r4, #8]
 8000e90:	f00c fa18 	bl	800d2c4 <HAL_InitTick.constprop.87>
 8000e94:	6b23      	ldr	r3, [r4, #48]	; 0x30
 8000e96:	4abc      	ldr	r2, [pc, #752]	; (8001188 <main+0x52c>)
 8000e98:	48bc      	ldr	r0, [pc, #752]	; (800118c <main+0x530>)
 8000e9a:	f043 0301 	orr.w	r3, r3, #1
 8000e9e:	6323      	str	r3, [r4, #48]	; 0x30
 8000ea0:	a907      	add	r1, sp, #28
 8000ea2:	2302      	movs	r3, #2
 8000ea4:	2601      	movs	r6, #1
 8000ea6:	2500      	movs	r5, #0
 8000ea8:	930a      	str	r3, [sp, #40]	; 0x28
 8000eaa:	9208      	str	r2, [sp, #32]
 8000eac:	9607      	str	r6, [sp, #28]
 8000eae:	9509      	str	r5, [sp, #36]	; 0x24
 8000eb0:	f00b fc06 	bl	800c6c0 <HAL_GPIO_Init>
 8000eb4:	2006      	movs	r0, #6
 8000eb6:	210f      	movs	r1, #15
 8000eb8:	f00a f944 	bl	800b144 <HAL_NVIC_SetPriority.constprop.106>
 8000ebc:	49b4      	ldr	r1, [pc, #720]	; (8001190 <main+0x534>)
 8000ebe:	4bb5      	ldr	r3, [pc, #724]	; (8001194 <main+0x538>)
 8000ec0:	4ab5      	ldr	r2, [pc, #724]	; (8001198 <main+0x53c>)
 8000ec2:	2040      	movs	r0, #64	; 0x40
 8000ec4:	6008      	str	r0, [r1, #0]
 8000ec6:	7959      	ldrb	r1, [r3, #5]
 8000ec8:	601a      	str	r2, [r3, #0]
 8000eca:	b939      	cbnz	r1, 8000edc <main+0x280>
 8000ecc:	6b61      	ldr	r1, [r4, #52]	; 0x34
 8000ece:	f041 0140 	orr.w	r1, r1, #64	; 0x40
 8000ed2:	6361      	str	r1, [r4, #52]	; 0x34
 8000ed4:	6811      	ldr	r1, [r2, #0]
 8000ed6:	f041 0104 	orr.w	r1, r1, #4
 8000eda:	6011      	str	r1, [r2, #0]
 8000edc:	4aae      	ldr	r2, [pc, #696]	; (8001198 <main+0x53c>)
 8000ede:	791e      	ldrb	r6, [r3, #4]
 8000ee0:	4dac      	ldr	r5, [pc, #688]	; (8001194 <main+0x538>)
 8000ee2:	2002      	movs	r0, #2
 8000ee4:	7158      	strb	r0, [r3, #5]
 8000ee6:	6811      	ldr	r1, [r2, #0]
 8000ee8:	2401      	movs	r4, #1
 8000eea:	f041 0104 	orr.w	r1, r1, #4
 8000eee:	42a6      	cmp	r6, r4
 8000ef0:	6011      	str	r1, [r2, #0]
 8000ef2:	715c      	strb	r4, [r3, #5]
 8000ef4:	f040 839a 	bne.w	800162c <main+0x9d0>
 8000ef8:	4da8      	ldr	r5, [pc, #672]	; (800119c <main+0x540>)
 8000efa:	4fa9      	ldr	r7, [pc, #676]	; (80011a0 <main+0x544>)
 8000efc:	f8df 9354 	ldr.w	r9, [pc, #852]	; 8001254 <main+0x5f8>
 8000f00:	f8df a354 	ldr.w	sl, [pc, #852]	; 8001258 <main+0x5fc>
 8000f04:	eddf 8aa7 	vldr	s17, [pc, #668]	; 80011a4 <main+0x548>
 8000f08:	ed9f 9aa7 	vldr	s18, [pc, #668]	; 80011a8 <main+0x54c>
 8000f0c:	f00f f8f8 	bl	8010100 <srand>
 8000f10:	f04f 567e 	mov.w	r6, #1065353216	; 0x3f800000
 8000f14:	f8df e344 	ldr.w	lr, [pc, #836]	; 800125c <main+0x600>
 8000f18:	4ba4      	ldr	r3, [pc, #656]	; (80011ac <main+0x550>)
 8000f1a:	602e      	str	r6, [r5, #0]
 8000f1c:	f8df c340 	ldr.w	ip, [pc, #832]	; 8001260 <main+0x604>
 8000f20:	4aa3      	ldr	r2, [pc, #652]	; (80011b0 <main+0x554>)
 8000f22:	49a4      	ldr	r1, [pc, #656]	; (80011b4 <main+0x558>)
 8000f24:	f8c3 9008 	str.w	r9, [r3, #8]
 8000f28:	2500      	movs	r5, #0
 8000f2a:	2400      	movs	r4, #0
 8000f2c:	eeb1 8a00 	vmov.f32	s16, #16
 8000f30:	f04f 4880 	mov.w	r8, #1073741824	; 0x40000000
 8000f34:	f88e 5000 	strb.w	r5, [lr]
 8000f38:	f8df e328 	ldr.w	lr, [pc, #808]	; 8001264 <main+0x608>
 8000f3c:	ed83 8a00 	vstr	s16, [r3]
 8000f40:	f88c 5000 	strb.w	r5, [ip]
 8000f44:	703d      	strb	r5, [r7, #0]
 8000f46:	f8df c320 	ldr.w	ip, [pc, #800]	; 8001268 <main+0x60c>
 8000f4a:	f8c3 8004 	str.w	r8, [r3, #4]
 8000f4e:	4618      	mov	r0, r3
 8000f50:	7015      	strb	r5, [r2, #0]
 8000f52:	621c      	str	r4, [r3, #32]
 8000f54:	4f98      	ldr	r7, [pc, #608]	; (80011b8 <main+0x55c>)
 8000f56:	4b99      	ldr	r3, [pc, #612]	; (80011bc <main+0x560>)
 8000f58:	700d      	strb	r5, [r1, #0]
 8000f5a:	f243 22c8 	movw	r2, #13000	; 0x32c8
 8000f5e:	f8ce 2000 	str.w	r2, [lr]
 8000f62:	4997      	ldr	r1, [pc, #604]	; (80011c0 <main+0x564>)
 8000f64:	4a97      	ldr	r2, [pc, #604]	; (80011c4 <main+0x568>)
 8000f66:	f88c 5000 	strb.w	r5, [ip]
 8000f6a:	6039      	str	r1, [r7, #0]
 8000f6c:	601a      	str	r2, [r3, #0]
 8000f6e:	f8ca 6000 	str.w	r6, [sl]
 8000f72:	f00d f837 	bl	800dfe4 <drifter_newSegment>
 8000f76:	4b94      	ldr	r3, [pc, #592]	; (80011c8 <main+0x56c>)
 8000f78:	4f94      	ldr	r7, [pc, #592]	; (80011cc <main+0x570>)
 8000f7a:	ed83 8a00 	vstr	s16, [r3]
 8000f7e:	4618      	mov	r0, r3
 8000f80:	f8c3 8004 	str.w	r8, [r3, #4]
 8000f84:	f8c3 9008 	str.w	r9, [r3, #8]
 8000f88:	621c      	str	r4, [r3, #32]
 8000f8a:	f00d f82b 	bl	800dfe4 <drifter_newSegment>
 8000f8e:	4b90      	ldr	r3, [pc, #576]	; (80011d0 <main+0x574>)
 8000f90:	f8df a2d8 	ldr.w	sl, [pc, #728]	; 800126c <main+0x610>
 8000f94:	ed83 8a00 	vstr	s16, [r3]
 8000f98:	4618      	mov	r0, r3
 8000f9a:	f8c3 8004 	str.w	r8, [r3, #4]
 8000f9e:	f8c3 9008 	str.w	r9, [r3, #8]
 8000fa2:	621c      	str	r4, [r3, #32]
 8000fa4:	f00d f81e 	bl	800dfe4 <drifter_newSegment>
 8000fa8:	ed9f 0a8a 	vldr	s0, [pc, #552]	; 80011d4 <main+0x578>
 8000fac:	4b8a      	ldr	r3, [pc, #552]	; (80011d8 <main+0x57c>)
 8000fae:	623b      	str	r3, [r7, #32]
 8000fb0:	f00d f97e 	bl	800e2b0 <lrintf>
 8000fb4:	ee07 0a90 	vmov	s15, r0
 8000fb8:	eef8 7ae7 	vcvt.f32.s32	s15, s15
 8000fbc:	eeb6 8a00 	vmov.f32	s16, #96	; 0x60
 8000fc0:	ee67 7a88 	vmul.f32	s15, s15, s16
 8000fc4:	4b85      	ldr	r3, [pc, #532]	; (80011dc <main+0x580>)
 8000fc6:	4a86      	ldr	r2, [pc, #536]	; (80011e0 <main+0x584>)
 8000fc8:	6278      	str	r0, [r7, #36]	; 0x24
 8000fca:	eefc 7ae7 	vcvt.u32.f32	s15, s15
 8000fce:	2004      	movs	r0, #4
 8000fd0:	2124      	movs	r1, #36	; 0x24
 8000fd2:	62bd      	str	r5, [r7, #40]	; 0x28
 8000fd4:	f887 502c 	strb.w	r5, [r7, #44]	; 0x2c
 8000fd8:	edc7 7a0c 	vstr	s15, [r7, #48]	; 0x30
 8000fdc:	729d      	strb	r5, [r3, #10]
 8000fde:	72dd      	strb	r5, [r3, #11]
 8000fe0:	731d      	strb	r5, [r3, #12]
 8000fe2:	735d      	strb	r5, [r3, #13]
 8000fe4:	739d      	strb	r5, [r3, #14]
 8000fe6:	701d      	strb	r5, [r3, #0]
 8000fe8:	7218      	strb	r0, [r3, #8]
 8000fea:	7259      	strb	r1, [r3, #9]
 8000fec:	605a      	str	r2, [r3, #4]
 8000fee:	f00c fded 	bl	800dbcc <seq_sequence_new>
 8000ff2:	4b7c      	ldr	r3, [pc, #496]	; (80011e4 <main+0x588>)
 8000ff4:	4a7c      	ldr	r2, [pc, #496]	; (80011e8 <main+0x58c>)
 8000ff6:	f8df 8278 	ldr.w	r8, [pc, #632]	; 8001270 <main+0x614>
 8000ffa:	ed83 8a02 	vstr	s16, [r3, #8]
 8000ffe:	4f7b      	ldr	r7, [pc, #492]	; (80011ec <main+0x590>)
 8001000:	f8c3 900c 	str.w	r9, [r3, #12]
 8001004:	f241 5cf4 	movw	ip, #5620	; 0x15f4
 8001008:	621d      	str	r5, [r3, #32]
 800100a:	625d      	str	r5, [r3, #36]	; 0x24
 800100c:	edc3 8a00 	vstr	s17, [r3]
 8001010:	edc3 8a01 	vstr	s17, [r3, #4]
 8001014:	619c      	str	r4, [r3, #24]
 8001016:	611c      	str	r4, [r3, #16]
 8001018:	f240 5377 	movw	r3, #1399	; 0x577
 800101c:	f8c8 7004 	str.w	r7, [r8, #4]
 8001020:	6057      	str	r7, [r2, #4]
 8001022:	f8c8 300c 	str.w	r3, [r8, #12]
 8001026:	2701      	movs	r7, #1
 8001028:	60d3      	str	r3, [r2, #12]
 800102a:	4b71      	ldr	r3, [pc, #452]	; (80011f0 <main+0x594>)
 800102c:	f8df e244 	ldr.w	lr, [pc, #580]	; 8001274 <main+0x618>
 8001030:	eddf 7a70 	vldr	s15, [pc, #448]	; 80011f4 <main+0x598>
 8001034:	f802 700c 	strb.w	r7, [r2, ip]
 8001038:	f808 700c 	strb.w	r7, [r8, ip]
 800103c:	f102 0010 	add.w	r0, r2, #16
 8001040:	496d      	ldr	r1, [pc, #436]	; (80011f8 <main+0x59c>)
 8001042:	f8df c234 	ldr.w	ip, [pc, #564]	; 8001278 <main+0x61c>
 8001046:	f8c3 c004 	str.w	ip, [r3, #4]
 800104a:	ed82 8a02 	vstr	s16, [r2, #8]
 800104e:	f500 5caf 	add.w	ip, r0, #5600	; 0x15e0
 8001052:	ed82 8a00 	vstr	s16, [r2]
 8001056:	f8df 9224 	ldr.w	r9, [pc, #548]	; 800127c <main+0x620>
 800105a:	4a68      	ldr	r2, [pc, #416]	; (80011fc <main+0x5a0>)
 800105c:	edce 7a01 	vstr	s15, [lr, #4]
 8001060:	609a      	str	r2, [r3, #8]
 8001062:	600e      	str	r6, [r1, #0]
 8001064:	f8ce a000 	str.w	sl, [lr]
 8001068:	4629      	mov	r1, r5
 800106a:	f8ce 4008 	str.w	r4, [lr, #8]
 800106e:	f44f 52af 	mov.w	r2, #5600	; 0x15e0
 8001072:	f8df e20c 	ldr.w	lr, [pc, #524]	; 8001280 <main+0x624>
 8001076:	f8c3 a000 	str.w	sl, [r3]
 800107a:	f8c9 e000 	str.w	lr, [r9]
 800107e:	f8cc e000 	str.w	lr, [ip]
 8001082:	ed88 8a02 	vstr	s16, [r8, #8]
 8001086:	ed88 8a00 	vstr	s16, [r8]
 800108a:	f00e ffe7 	bl	801005c <memset>
 800108e:	4629      	mov	r1, r5
 8001090:	f108 0010 	add.w	r0, r8, #16
 8001094:	f44f 52af 	mov.w	r2, #5600	; 0x15e0
 8001098:	f00e ffe0 	bl	801005c <memset>
 800109c:	4958      	ldr	r1, [pc, #352]	; (8001200 <main+0x5a4>)
 800109e:	4a59      	ldr	r2, [pc, #356]	; (8001204 <main+0x5a8>)
 80010a0:	eddf 7a59 	vldr	s15, [pc, #356]	; 8001208 <main+0x5ac>
 80010a4:	700f      	strb	r7, [r1, #0]
 80010a6:	7017      	strb	r7, [r2, #0]
 80010a8:	f8df 91d8 	ldr.w	r9, [pc, #472]	; 8001284 <main+0x628>
 80010ac:	f8df c1d8 	ldr.w	ip, [pc, #472]	; 8001288 <main+0x62c>
 80010b0:	edc1 7a03 	vstr	s15, [r1, #12]
 80010b4:	f04f 5778 	mov.w	r7, #1040187392	; 0x3e000000
 80010b8:	f8c1 9018 	str.w	r9, [r1, #24]
 80010bc:	604f      	str	r7, [r1, #4]
 80010be:	6057      	str	r7, [r2, #4]
 80010c0:	f8c1 c008 	str.w	ip, [r1, #8]
 80010c4:	610c      	str	r4, [r1, #16]
 80010c6:	614c      	str	r4, [r1, #20]
 80010c8:	61cc      	str	r4, [r1, #28]
 80010ca:	4f50      	ldr	r7, [pc, #320]	; (800120c <main+0x5b0>)
 80010cc:	4950      	ldr	r1, [pc, #320]	; (8001210 <main+0x5b4>)
 80010ce:	ed9f 7a51 	vldr	s14, [pc, #324]	; 8001214 <main+0x5b8>
 80010d2:	4851      	ldr	r0, [pc, #324]	; (8001218 <main+0x5bc>)
 80010d4:	edc2 7a03 	vstr	s15, [r2, #12]
 80010d8:	f8c2 9018 	str.w	r9, [r2, #24]
 80010dc:	f8c2 c008 	str.w	ip, [r2, #8]
 80010e0:	f8df 81a8 	ldr.w	r8, [pc, #424]	; 800128c <main+0x630>
 80010e4:	6114      	str	r4, [r2, #16]
 80010e6:	6154      	str	r4, [r2, #20]
 80010e8:	61d4      	str	r4, [r2, #28]
 80010ea:	eddf 7a4c 	vldr	s15, [pc, #304]	; 800121c <main+0x5c0>
 80010ee:	f8df 91a0 	ldr.w	r9, [pc, #416]	; 8001290 <main+0x634>
 80010f2:	4a4b      	ldr	r2, [pc, #300]	; (8001220 <main+0x5c4>)
 80010f4:	4b4b      	ldr	r3, [pc, #300]	; (8001224 <main+0x5c8>)
 80010f6:	f8c7 9000 	str.w	r9, [r7]
 80010fa:	f8df a198 	ldr.w	sl, [pc, #408]	; 8001294 <main+0x638>
 80010fe:	ed81 7a00 	vstr	s14, [r1]
 8001102:	f8df c194 	ldr.w	ip, [pc, #404]	; 8001298 <main+0x63c>
 8001106:	4948      	ldr	r1, [pc, #288]	; (8001228 <main+0x5cc>)
 8001108:	4f48      	ldr	r7, [pc, #288]	; (800122c <main+0x5d0>)
 800110a:	edc8 7a00 	vstr	s15, [r8]
 800110e:	f8c2 c000 	str.w	ip, [r2]
 8001112:	6186      	str	r6, [r0, #24]
 8001114:	6003      	str	r3, [r0, #0]
 8001116:	6043      	str	r3, [r0, #4]
 8001118:	60c4      	str	r4, [r0, #12]
 800111a:	61c4      	str	r4, [r0, #28]
 800111c:	6144      	str	r4, [r0, #20]
 800111e:	f8c0 a008 	str.w	sl, [r0, #8]
 8001122:	f8df 8178 	ldr.w	r8, [pc, #376]	; 800129c <main+0x640>
 8001126:	4842      	ldr	r0, [pc, #264]	; (8001230 <main+0x5d4>)
 8001128:	4a42      	ldr	r2, [pc, #264]	; (8001234 <main+0x5d8>)
 800112a:	6008      	str	r0, [r1, #0]
 800112c:	f8c7 8000 	str.w	r8, [r7]
 8001130:	f8df e16c 	ldr.w	lr, [pc, #364]	; 80012a0 <main+0x644>
 8001134:	f8df c16c 	ldr.w	ip, [pc, #364]	; 80012a4 <main+0x648>
 8001138:	493f      	ldr	r1, [pc, #252]	; (8001238 <main+0x5dc>)
 800113a:	f8df 816c 	ldr.w	r8, [pc, #364]	; 80012a8 <main+0x64c>
 800113e:	f8df 916c 	ldr.w	r9, [pc, #364]	; 80012ac <main+0x650>
 8001142:	4d3e      	ldr	r5, [pc, #248]	; (800123c <main+0x5e0>)
 8001144:	f8c2 c000 	str.w	ip, [r2]
 8001148:	483d      	ldr	r0, [pc, #244]	; (8001240 <main+0x5e4>)
 800114a:	4a3e      	ldr	r2, [pc, #248]	; (8001244 <main+0x5e8>)
 800114c:	f8df c160 	ldr.w	ip, [pc, #352]	; 80012b0 <main+0x654>
 8001150:	4f3d      	ldr	r7, [pc, #244]	; (8001248 <main+0x5ec>)
 8001152:	6008      	str	r0, [r1, #0]
 8001154:	eef5 7a00 	vmov.f32	s15, #80	; 0x50
 8001158:	483c      	ldr	r0, [pc, #240]	; (800124c <main+0x5f0>)
 800115a:	493d      	ldr	r1, [pc, #244]	; (8001250 <main+0x5f4>)
 800115c:	edc8 7a00 	vstr	s15, [r8]
 8001160:	46f0      	mov	r8, lr
 8001162:	edc7 7a00 	vstr	s15, [r7]
 8001166:	f8c9 3000 	str.w	r3, [r9]
 800116a:	462f      	mov	r7, r5
 800116c:	f8c9 3004 	str.w	r3, [r9, #4]
 8001170:	f8c9 6018 	str.w	r6, [r9, #24]
 8001174:	6013      	str	r3, [r2, #0]
 8001176:	6053      	str	r3, [r2, #4]
 8001178:	6196      	str	r6, [r2, #24]
 800117a:	f8c9 a008 	str.w	sl, [r9, #8]
 800117e:	e099      	b.n	80012b4 <main+0x658>
 8001180:	40023c00 	.word	0x40023c00
 8001184:	40023800 	.word	0x40023800
 8001188:	10110000 	.word	0x10110000
 800118c:	40020000 	.word	0x40020000
 8001190:	e000e100 	.word	0xe000e100
 8001194:	20001948 	.word	0x20001948
 8001198:	50060800 	.word	0x50060800
 800119c:	100000f0 	.word	0x100000f0
 80011a0:	100000e8 	.word	0x100000e8
 80011a4:	3a83126f 	.word	0x3a83126f
 80011a8:	30000000 	.word	0x30000000
 80011ac:	10000c28 	.word	0x10000c28
 80011b0:	1000129c 	.word	0x1000129c
 80011b4:	1000129e 	.word	0x1000129e
 80011b8:	2001f0fc 	.word	0x2001f0fc
 80011bc:	2001f0c4 	.word	0x2001f0c4
 80011c0:	20001bf8 	.word	0x20001bf8
 80011c4:	2000e718 	.word	0x2000e718
 80011c8:	10000c54 	.word	0x10000c54
 80011cc:	10000000 	.word	0x10000000
 80011d0:	10000c80 	.word	0x10000c80
 80011d4:	46013300 	.word	0x46013300
 80011d8:	43a00000 	.word	0x43a00000
 80011dc:	10000034 	.word	0x10000034
 80011e0:	080104f8 	.word	0x080104f8
 80011e4:	1000009c 	.word	0x1000009c
 80011e8:	100028a8 	.word	0x100028a8
 80011ec:	be4ccccd 	.word	0xbe4ccccd
 80011f0:	10002898 	.word	0x10002898
 80011f4:	3df5c28f 	.word	0x3df5c28f
 80011f8:	20001940 	.word	0x20001940
 80011fc:	3fc90fdb 	.word	0x3fc90fdb
 8001200:	100000c8 	.word	0x100000c8
 8001204:	1000127c 	.word	0x1000127c
 8001208:	3f666666 	.word	0x3f666666
 800120c:	20001bec 	.word	0x20001bec
 8001210:	20001be4 	.word	0x20001be4
 8001214:	44d48000 	.word	0x44d48000
 8001218:	10000114 	.word	0x10000114
 800121c:	43480000 	.word	0x43480000
 8001220:	2001f100 	.word	0x2001f100
 8001224:	3f4ccccd 	.word	0x3f4ccccd
 8001228:	20001bf4 	.word	0x20001bf4
 800122c:	2001f0f8 	.word	0x2001f0f8
 8001230:	3e99999a 	.word	0x3e99999a
 8001234:	2001f0cc 	.word	0x2001f0cc
 8001238:	2001f0f0 	.word	0x2001f0f0
 800123c:	10000044 	.word	0x10000044
 8001240:	376f08eb 	.word	0x376f08eb
 8001244:	10000c08 	.word	0x10000c08
 8001248:	2001f0c0 	.word	0x2001f0c0
 800124c:	100000f4 	.word	0x100000f4
 8001250:	1000123c 	.word	0x1000123c
 8001254:	3c23d70a 	.word	0x3c23d70a
 8001258:	10001238 	.word	0x10001238
 800125c:	100000c4 	.word	0x100000c4
 8001260:	100000e9 	.word	0x100000e9
 8001264:	20001944 	.word	0x20001944
 8001268:	1000129d 	.word	0x1000129d
 800126c:	42480000 	.word	0x42480000
 8001270:	100012a0 	.word	0x100012a0
 8001274:	10003ea0 	.word	0x10003ea0
 8001278:	3de147ae 	.word	0x3de147ae
 800127c:	10002890 	.word	0x10002890
 8001280:	43700000 	.word	0x43700000
 8001284:	3ecccccd 	.word	0x3ecccccd
 8001288:	3ed413a9 	.word	0x3ed413a9
 800128c:	20001be0 	.word	0x20001be0
 8001290:	3dcccccd 	.word	0x3dcccccd
 8001294:	4412c000 	.word	0x4412c000
 8001298:	3f333333 	.word	0x3f333333
 800129c:	3c149b93 	.word	0x3c149b93
 80012a0:	10000070 	.word	0x10000070
 80012a4:	3d9de54c 	.word	0x3d9de54c
 80012a8:	2001f0d0 	.word	0x2001f0d0
 80012ac:	10000be8 	.word	0x10000be8
 80012b0:	10000cac 	.word	0x10000cac
 80012b4:	f8c9 400c 	str.w	r4, [r9, #12]
 80012b8:	f8c9 401c 	str.w	r4, [r9, #28]
 80012bc:	f8c9 4014 	str.w	r4, [r9, #20]
 80012c0:	f8c2 a008 	str.w	sl, [r2, #8]
 80012c4:	60d4      	str	r4, [r2, #12]
 80012c6:	61d4      	str	r4, [r2, #28]
 80012c8:	6154      	str	r4, [r2, #20]
 80012ca:	f8df 91cc 	ldr.w	r9, [pc, #460]	; 8001498 <main+0x83c>
 80012ce:	4a69      	ldr	r2, [pc, #420]	; (8001474 <main+0x818>)
 80012d0:	f8cc 3000 	str.w	r3, [ip]
 80012d4:	f8cc 3004 	str.w	r3, [ip, #4]
 80012d8:	4b67      	ldr	r3, [pc, #412]	; (8001478 <main+0x81c>)
 80012da:	f8cc 6018 	str.w	r6, [ip, #24]
 80012de:	6186      	str	r6, [r0, #24]
 80012e0:	f8c0 9008 	str.w	r9, [r0, #8]
 80012e4:	f8cc a008 	str.w	sl, [ip, #8]
 80012e8:	f8cc 400c 	str.w	r4, [ip, #12]
 80012ec:	f8cc 401c 	str.w	r4, [ip, #28]
 80012f0:	f8cc 4014 	str.w	r4, [ip, #20]
 80012f4:	6004      	str	r4, [r0, #0]
 80012f6:	6044      	str	r4, [r0, #4]
 80012f8:	60c4      	str	r4, [r0, #12]
 80012fa:	61c4      	str	r4, [r0, #28]
 80012fc:	6144      	str	r4, [r0, #20]
 80012fe:	600c      	str	r4, [r1, #0]
 8001300:	604c      	str	r4, [r1, #4]
 8001302:	608c      	str	r4, [r1, #8]
 8001304:	60cc      	str	r4, [r1, #12]
 8001306:	61cc      	str	r4, [r1, #28]
 8001308:	614c      	str	r4, [r1, #20]
 800130a:	ed9f 8a5c 	vldr	s16, [pc, #368]	; 800147c <main+0x820>
 800130e:	618e      	str	r6, [r1, #24]
 8001310:	f848 4b08 	str.w	r4, [r8], #8
 8001314:	f847 6b08 	str.w	r6, [r7], #8
 8001318:	606e      	str	r6, [r5, #4]
 800131a:	6196      	str	r6, [r2, #24]
 800131c:	619e      	str	r6, [r3, #24]
 800131e:	46a1      	mov	r9, r4
 8001320:	f8ce 4004 	str.w	r4, [lr, #4]
 8001324:	6014      	str	r4, [r2, #0]
 8001326:	6054      	str	r4, [r2, #4]
 8001328:	6094      	str	r4, [r2, #8]
 800132a:	60d4      	str	r4, [r2, #12]
 800132c:	61d4      	str	r4, [r2, #28]
 800132e:	6154      	str	r4, [r2, #20]
 8001330:	601c      	str	r4, [r3, #0]
 8001332:	605c      	str	r4, [r3, #4]
 8001334:	609c      	str	r4, [r3, #8]
 8001336:	60dc      	str	r4, [r3, #12]
 8001338:	61dc      	str	r4, [r3, #28]
 800133a:	615c      	str	r4, [r3, #20]
 800133c:	f105 062c 	add.w	r6, r5, #44	; 0x2c
 8001340:	f00e fee8 	bl	8010114 <rand>
 8001344:	ee07 0a90 	vmov	s15, r0
 8001348:	eef8 7ae7 	vcvt.f32.s32	s15, s15
 800134c:	eeb0 7a68 	vmov.f32	s14, s17
 8001350:	ee67 7a89 	vmul.f32	s15, s15, s18
 8001354:	f848 9b04 	str.w	r9, [r8], #4
 8001358:	eea7 7a88 	vfma.f32	s14, s15, s16
 800135c:	f8df e13c 	ldr.w	lr, [pc, #316]	; 800149c <main+0x840>
 8001360:	2400      	movs	r4, #0
 8001362:	eca7 7a01 	vstmia	r7!, {s14}
 8001366:	eef0 7a47 	vmov.f32	s15, s14
 800136a:	ed95 7a00 	vldr	s14, [r5]
 800136e:	ee77 7a87 	vadd.f32	s15, s15, s14
 8001372:	42b7      	cmp	r7, r6
 8001374:	edc5 7a00 	vstr	s15, [r5]
 8001378:	d1e2      	bne.n	8001340 <main+0x6e4>
 800137a:	eeb7 8a00 	vmov.f32	s16, #112	; 0x70
 800137e:	eec8 7a27 	vdiv.f32	s15, s16, s15
 8001382:	4b3f      	ldr	r3, [pc, #252]	; (8001480 <main+0x824>)
 8001384:	4f3f      	ldr	r7, [pc, #252]	; (8001484 <main+0x828>)
 8001386:	611c      	str	r4, [r3, #16]
 8001388:	2500      	movs	r5, #0
 800138a:	2601      	movs	r6, #1
 800138c:	4629      	mov	r1, r5
 800138e:	f103 0024 	add.w	r0, r3, #36	; 0x24
 8001392:	f44f 62a4 	mov.w	r2, #1312	; 0x520
 8001396:	f883 6548 	strb.w	r6, [r3, #1352]	; 0x548
 800139a:	f8c3 5544 	str.w	r5, [r3, #1348]	; 0x544
 800139e:	621c      	str	r4, [r3, #32]
 80013a0:	60df      	str	r7, [r3, #12]
 80013a2:	ed83 8a01 	vstr	s16, [r3, #4]
 80013a6:	edce 7a00 	vstr	s15, [lr]
 80013aa:	f00e fe57 	bl	801005c <memset>
 80013ae:	4b36      	ldr	r3, [pc, #216]	; (8001488 <main+0x82c>)
 80013b0:	4629      	mov	r1, r5
 80013b2:	f103 0030 	add.w	r0, r3, #48	; 0x30
 80013b6:	f44f 62a4 	mov.w	r2, #1312	; 0x520
 80013ba:	f883 6558 	strb.w	r6, [r3, #1368]	; 0x558
 80013be:	ed83 8a01 	vstr	s16, [r3, #4]
 80013c2:	60df      	str	r7, [r3, #12]
 80013c4:	615c      	str	r4, [r3, #20]
 80013c6:	611c      	str	r4, [r3, #16]
 80013c8:	62dc      	str	r4, [r3, #44]	; 0x2c
 80013ca:	f8c3 5550 	str.w	r5, [r3, #1360]	; 0x550
 80013ce:	f00e fe45 	bl	801005c <memset>
 80013d2:	4b2e      	ldr	r3, [pc, #184]	; (800148c <main+0x830>)
 80013d4:	4629      	mov	r1, r5
 80013d6:	f103 002c 	add.w	r0, r3, #44	; 0x2c
 80013da:	f44f 62a4 	mov.w	r2, #1312	; 0x520
 80013de:	ed83 8a01 	vstr	s16, [r3, #4]
 80013e2:	60df      	str	r7, [r3, #12]
 80013e4:	615c      	str	r4, [r3, #20]
 80013e6:	611c      	str	r4, [r3, #16]
 80013e8:	f883 6554 	strb.w	r6, [r3, #1364]	; 0x554
 80013ec:	629c      	str	r4, [r3, #40]	; 0x28
 80013ee:	f8c3 554c 	str.w	r5, [r3, #1356]	; 0x54c
 80013f2:	f00e fe33 	bl	801005c <memset>
 80013f6:	4b26      	ldr	r3, [pc, #152]	; (8001490 <main+0x834>)
 80013f8:	f647 72c0 	movw	r2, #32704	; 0x7fc0
 80013fc:	f8d3 1084 	ldr.w	r1, [r3, #132]	; 0x84
 8001400:	fa92 f2a2 	rbit	r2, r2
 8001404:	fab2 f282 	clz	r2, r2
 8001408:	f04f 42e0 	mov.w	r2, #1879048192	; 0x70000000
 800140c:	f8d3 1084 	ldr.w	r1, [r3, #132]	; 0x84
 8001410:	fa92 f2a2 	rbit	r2, r2
 8001414:	fab2 f282 	clz	r2, r2
 8001418:	4a1e      	ldr	r2, [pc, #120]	; (8001494 <main+0x838>)
 800141a:	6899      	ldr	r1, [r3, #8]
 800141c:	6f19      	ldr	r1, [r3, #112]	; 0x70
 800141e:	6015      	str	r5, [r2, #0]
 8001420:	f8db 1000 	ldr.w	r1, [fp]
 8001424:	e004      	b.n	8001430 <main+0x7d4>
 8001426:	f8db 2000 	ldr.w	r2, [fp]
 800142a:	1a52      	subs	r2, r2, r1
 800142c:	2a64      	cmp	r2, #100	; 0x64
 800142e:	d83f      	bhi.n	80014b0 <main+0x854>
 8001430:	681a      	ldr	r2, [r3, #0]
 8001432:	4817      	ldr	r0, [pc, #92]	; (8001490 <main+0x834>)
 8001434:	0112      	lsls	r2, r2, #4
 8001436:	d4f6      	bmi.n	8001426 <main+0x7ca>
 8001438:	f647 73c0 	movw	r3, #32704	; 0x7fc0
 800143c:	fa93 f3a3 	rbit	r3, r3
 8001440:	fab3 f383 	clz	r3, r3
 8001444:	f04f 42e0 	mov.w	r2, #1879048192	; 0x70000000
 8001448:	fa92 f2a2 	rbit	r2, r2
 800144c:	fab2 f282 	clz	r2, r2
 8001450:	f44f 7191 	mov.w	r1, #290	; 0x122
 8001454:	2402      	movs	r4, #2
 8001456:	b2d2      	uxtb	r2, r2
 8001458:	b2db      	uxtb	r3, r3
 800145a:	fa04 f202 	lsl.w	r2, r4, r2
 800145e:	fa01 f303 	lsl.w	r3, r1, r3
 8001462:	490c      	ldr	r1, [pc, #48]	; (8001494 <main+0x838>)
 8001464:	4313      	orrs	r3, r2
 8001466:	2201      	movs	r2, #1
 8001468:	f8c0 3084 	str.w	r3, [r0, #132]	; 0x84
 800146c:	600a      	str	r2, [r1, #0]
 800146e:	f8db 2000 	ldr.w	r2, [fp]
 8001472:	e01a      	b.n	80014aa <main+0x84e>
 8001474:	1000125c 	.word	0x1000125c
 8001478:	10001218 	.word	0x10001218
 800147c:	3f7a9fbf 	.word	0x3f7a9fbf
 8001480:	10000ccc 	.word	0x10000ccc
 8001484:	43dc0000 	.word	0x43dc0000
 8001488:	1000068c 	.word	0x1000068c
 800148c:	10000134 	.word	0x10000134
 8001490:	40023800 	.word	0x40023800
 8001494:	42470068 	.word	0x42470068
 8001498:	40b00000 	.word	0x40b00000
 800149c:	10000044 	.word	0x10000044
 80014a0:	f8db 3000 	ldr.w	r3, [fp]
 80014a4:	1a9b      	subs	r3, r3, r2
 80014a6:	2b64      	cmp	r3, #100	; 0x64
 80014a8:	d802      	bhi.n	80014b0 <main+0x854>
 80014aa:	6803      	ldr	r3, [r0, #0]
 80014ac:	011f      	lsls	r7, r3, #4
 80014ae:	d5f7      	bpl.n	80014a0 <main+0x844>
 80014b0:	4ebc      	ldr	r6, [pc, #752]	; (80017a4 <main+0xb48>)
 80014b2:	2094      	movs	r0, #148	; 0x94
 80014b4:	6873      	ldr	r3, [r6, #4]
 80014b6:	4798      	blx	r3
 80014b8:	f000 00f8 	and.w	r0, r0, #248	; 0xf8
 80014bc:	28e0      	cmp	r0, #224	; 0xe0
 80014be:	f47f ac22 	bne.w	8000d06 <main+0xaa>
 80014c2:	4cb9      	ldr	r4, [pc, #740]	; (80017a8 <main+0xb4c>)
 80014c4:	f8df 9310 	ldr.w	r9, [pc, #784]	; 80017d8 <main+0xb7c>
 80014c8:	6026      	str	r6, [r4, #0]
 80014ca:	2104      	movs	r1, #4
 80014cc:	6836      	ldr	r6, [r6, #0]
 80014ce:	4db7      	ldr	r5, [pc, #732]	; (80017ac <main+0xb50>)
 80014d0:	2246      	movs	r2, #70	; 0x46
 80014d2:	f64a 4344 	movw	r3, #44100	; 0xac44
 80014d6:	2094      	movs	r0, #148	; 0x94
 80014d8:	47b0      	blx	r6
 80014da:	f8d9 301c 	ldr.w	r3, [r9, #28]
 80014de:	f8c5 9000 	str.w	r9, [r5]
 80014e2:	f423 6380 	bic.w	r3, r3, #1024	; 0x400
 80014e6:	f8c9 301c 	str.w	r3, [r9, #28]
 80014ea:	f895 203d 	ldrb.w	r2, [r5, #61]	; 0x3d
 80014ee:	2300      	movs	r3, #0
 80014f0:	f44f 7000 	mov.w	r0, #512	; 0x200
 80014f4:	f64a 4144 	movw	r1, #44100	; 0xac44
 80014f8:	f002 06ff 	and.w	r6, r2, #255	; 0xff
 80014fc:	6169      	str	r1, [r5, #20]
 80014fe:	61eb      	str	r3, [r5, #28]
 8001500:	61ab      	str	r3, [r5, #24]
 8001502:	60eb      	str	r3, [r5, #12]
 8001504:	60ab      	str	r3, [r5, #8]
 8001506:	6128      	str	r0, [r5, #16]
 8001508:	6068      	str	r0, [r5, #4]
 800150a:	2a00      	cmp	r2, #0
 800150c:	f000 8208 	beq.w	8001920 <main+0xcc4>
 8001510:	2002      	movs	r0, #2
 8001512:	f895 203d 	ldrb.w	r2, [r5, #61]	; 0x3d
 8001516:	f885 003d 	strb.w	r0, [r5, #61]	; 0x3d
 800151a:	f8d9 201c 	ldr.w	r2, [r9, #28]
 800151e:	f422 627b 	bic.w	r2, r2, #4016	; 0xfb0
 8001522:	f022 020f 	bic.w	r2, r2, #15
 8001526:	f8c9 201c 	str.w	r2, [r9, #28]
 800152a:	f8c9 0020 	str.w	r0, [r9, #32]
 800152e:	f8d9 001c 	ldr.w	r0, [r9, #28]
 8001532:	4688      	mov	r8, r1
 8001534:	461f      	mov	r7, r3
 8001536:	46ce      	mov	lr, r9
 8001538:	2120      	movs	r1, #32
 800153a:	69ea      	ldr	r2, [r5, #28]
 800153c:	4e9b      	ldr	r6, [pc, #620]	; (80017ac <main+0xb50>)
 800153e:	2a01      	cmp	r2, #1
 8001540:	f000 81e4 	beq.w	800190c <main+0xcb0>
 8001544:	4b9a      	ldr	r3, [pc, #616]	; (80017b0 <main+0xb54>)
 8001546:	681a      	ldr	r2, [r3, #0]
 8001548:	0152      	lsls	r2, r2, #5
 800154a:	f140 816b 	bpl.w	8001824 <main+0xbc8>
 800154e:	689a      	ldr	r2, [r3, #8]
 8001550:	0212      	lsls	r2, r2, #8
 8001552:	d503      	bpl.n	800155c <main+0x900>
 8001554:	689a      	ldr	r2, [r3, #8]
 8001556:	f422 0200 	bic.w	r2, r2, #8388608	; 0x800000
 800155a:	609a      	str	r2, [r3, #8]
 800155c:	4b94      	ldr	r3, [pc, #592]	; (80017b0 <main+0xb54>)
 800155e:	4e94      	ldr	r6, [pc, #592]	; (80017b0 <main+0xb54>)
 8001560:	685a      	ldr	r2, [r3, #4]
 8001562:	f412 0f80 	tst.w	r2, #4194304	; 0x400000
 8001566:	685a      	ldr	r2, [r3, #4]
 8001568:	bf14      	ite	ne
 800156a:	4b92      	ldrne	r3, [pc, #584]	; (80017b4 <main+0xb58>)
 800156c:	4b92      	ldreq	r3, [pc, #584]	; (80017b8 <main+0xb5c>)
 800156e:	f002 023f 	and.w	r2, r2, #63	; 0x3f
 8001572:	fbb3 f3f2 	udiv	r3, r3, r2
 8001576:	f8d6 2084 	ldr.w	r2, [r6, #132]	; 0x84
 800157a:	f8d6 6084 	ldr.w	r6, [r6, #132]	; 0x84
 800157e:	f3c2 1288 	ubfx	r2, r2, #6, #9
 8001582:	fb02 f203 	mul.w	r2, r2, r3
 8001586:	f3c6 7302 	ubfx	r3, r6, #28, #3
 800158a:	fbb2 f3f3 	udiv	r3, r2, r3
 800158e:	692e      	ldr	r6, [r5, #16]
 8001590:	4a8a      	ldr	r2, [pc, #552]	; (80017bc <main+0xb60>)
 8001592:	f5b6 7f00 	cmp.w	r6, #512	; 0x200
 8001596:	bf0c      	ite	eq
 8001598:	0a1b      	lsreq	r3, r3, #8
 800159a:	fbb3 f3f1 	udivne	r3, r3, r1
 800159e:	eb03 0383 	add.w	r3, r3, r3, lsl #2
 80015a2:	005b      	lsls	r3, r3, #1
 80015a4:	fbb3 f3f8 	udiv	r3, r3, r8
 80015a8:	3305      	adds	r3, #5
 80015aa:	fba2 2303 	umull	r2, r3, r2, r3
 80015ae:	ea4f 0cd3 	mov.w	ip, r3, lsr #3
 80015b2:	ea4f 085c 	mov.w	r8, ip, lsr #1
 80015b6:	f1a8 0202 	sub.w	r2, r8, #2
 80015ba:	f00c 0301 	and.w	r3, ip, #1
 80015be:	2afd      	cmp	r2, #253	; 0xfd
 80015c0:	ea4f 2303 	mov.w	r3, r3, lsl #8
 80015c4:	bf94      	ite	ls
 80015c6:	ea48 0803 	orrls.w	r8, r8, r3
 80015ca:	f04f 0802 	movhi.w	r8, #2
 80015ce:	6869      	ldr	r1, [r5, #4]
 80015d0:	68ab      	ldr	r3, [r5, #8]
 80015d2:	69aa      	ldr	r2, [r5, #24]
 80015d4:	f8d5 9020 	ldr.w	r9, [r5, #32]
 80015d8:	4308      	orrs	r0, r1
 80015da:	f440 6000 	orr.w	r0, r0, #2048	; 0x800
 80015de:	4318      	orrs	r0, r3
 80015e0:	4310      	orrs	r0, r2
 80015e2:	ea46 0608 	orr.w	r6, r6, r8
 80015e6:	4338      	orrs	r0, r7
 80015e8:	f1b9 0f01 	cmp.w	r9, #1
 80015ec:	f8ce 6020 	str.w	r6, [lr, #32]
 80015f0:	f8ce 001c 	str.w	r0, [lr, #28]
 80015f4:	f000 80f4 	beq.w	80017e0 <main+0xb84>
 80015f8:	2200      	movs	r2, #0
 80015fa:	2301      	movs	r3, #1
 80015fc:	f885 203e 	strb.w	r2, [r5, #62]	; 0x3e
 8001600:	f885 303d 	strb.w	r3, [r5, #61]	; 0x3d
 8001604:	6823      	ldr	r3, [r4, #0]
 8001606:	4c6e      	ldr	r4, [pc, #440]	; (80017c0 <main+0xb64>)
 8001608:	689b      	ldr	r3, [r3, #8]
 800160a:	4621      	mov	r1, r4
 800160c:	2094      	movs	r0, #148	; 0x94
 800160e:	f44f 627a 	mov.w	r2, #4000	; 0xfa0
 8001612:	4798      	blx	r3
 8001614:	b928      	cbnz	r0, 8001622 <main+0x9c6>
 8001616:	f895 203d 	ldrb.w	r2, [r5, #61]	; 0x3d
 800161a:	4b64      	ldr	r3, [pc, #400]	; (80017ac <main+0xb50>)
 800161c:	2a01      	cmp	r2, #1
 800161e:	f000 8105 	beq.w	800182c <main+0xbd0>
 8001622:	4f68      	ldr	r7, [pc, #416]	; (80017c4 <main+0xb68>)
 8001624:	693b      	ldr	r3, [r7, #16]
 8001626:	07dc      	lsls	r4, r3, #31
 8001628:	d413      	bmi.n	8001652 <main+0x9f6>
 800162a:	e7fe      	b.n	800162a <main+0x9ce>
 800162c:	712c      	strb	r4, [r5, #4]
 800162e:	f8db 0000 	ldr.w	r0, [fp]
 8001632:	e006      	b.n	8001642 <main+0x9e6>
 8001634:	f8db 1000 	ldr.w	r1, [fp]
 8001638:	1a09      	subs	r1, r1, r0
 800163a:	f5b1 7f7a 	cmp.w	r1, #1000	; 0x3e8
 800163e:	f200 837f 	bhi.w	8001d40 <main+0x10e4>
 8001642:	6854      	ldr	r4, [r2, #4]
 8001644:	4960      	ldr	r1, [pc, #384]	; (80017c8 <main+0xb6c>)
 8001646:	07e4      	lsls	r4, r4, #31
 8001648:	d5f4      	bpl.n	8001634 <main+0x9d8>
 800164a:	2200      	movs	r2, #0
 800164c:	6888      	ldr	r0, [r1, #8]
 800164e:	711a      	strb	r2, [r3, #4]
 8001650:	e452      	b.n	8000ef8 <main+0x29c>
 8001652:	f8df a188 	ldr.w	sl, [pc, #392]	; 80017dc <main+0xb80>
 8001656:	4b5d      	ldr	r3, [pc, #372]	; (80017cc <main+0xb70>)
 8001658:	4e5d      	ldr	r6, [pc, #372]	; (80017d0 <main+0xb74>)
 800165a:	2400      	movs	r4, #0
 800165c:	4621      	mov	r1, r4
 800165e:	223c      	movs	r2, #60	; 0x3c
 8001660:	f20a 50cc 	addw	r0, sl, #1484	; 0x5cc
 8001664:	701c      	strb	r4, [r3, #0]
 8001666:	f88a 460c 	strb.w	r4, [sl, #1548]	; 0x60c
 800166a:	f8ca 45c4 	str.w	r4, [sl, #1476]	; 0x5c4
 800166e:	f8ca 45c8 	str.w	r4, [sl, #1480]	; 0x5c8
 8001672:	f00e fcf3 	bl	801005c <memset>
 8001676:	4621      	mov	r1, r4
 8001678:	f44f 7200 	mov.w	r2, #512	; 0x200
 800167c:	f10a 001c 	add.w	r0, sl, #28
 8001680:	f00e fcec 	bl	801005c <memset>
 8001684:	2501      	movs	r5, #1
 8001686:	2240      	movs	r2, #64	; 0x40
 8001688:	4b52      	ldr	r3, [pc, #328]	; (80017d4 <main+0xb78>)
 800168a:	f88a 4000 	strb.w	r4, [sl]
 800168e:	4621      	mov	r1, r4
 8001690:	f04f 30ff 	mov.w	r0, #4294967295
 8001694:	f04f 0803 	mov.w	r8, #3
 8001698:	f88a 2006 	strb.w	r2, [sl, #6]
 800169c:	f8ca 3614 	str.w	r3, [sl, #1556]	; 0x614
 80016a0:	f88a 4001 	strb.w	r4, [sl, #1]
 80016a4:	f8ca 4608 	str.w	r4, [sl, #1544]	; 0x608
 80016a8:	f88a 4019 	strb.w	r4, [sl, #25]
 80016ac:	f88a 421c 	strb.w	r4, [sl, #540]	; 0x21c
 80016b0:	f88a 5002 	strb.w	r5, [sl, #2]
 80016b4:	f88a 5018 	strb.w	r5, [sl, #24]
 80016b8:	f88a 521d 	strb.w	r5, [sl, #541]	; 0x21d
 80016bc:	f009 fd42 	bl	800b144 <HAL_NVIC_SetPriority.constprop.106>
 80016c0:	4b3b      	ldr	r3, [pc, #236]	; (80017b0 <main+0xb54>)
 80016c2:	f886 8289 	strb.w	r8, [r6, #649]	; 0x289
 80016c6:	f04f 42a0 	mov.w	r2, #1342177280	; 0x50000000
 80016ca:	6032      	str	r2, [r6, #0]
 80016cc:	6b1a      	ldr	r2, [r3, #48]	; 0x30
 80016ce:	6134      	str	r4, [r6, #16]
 80016d0:	432a      	orrs	r2, r5
 80016d2:	631a      	str	r2, [r3, #48]	; 0x30
 80016d4:	6b1a      	ldr	r2, [r3, #48]	; 0x30
 80016d6:	6234      	str	r4, [r6, #32]
 80016d8:	f042 0204 	orr.w	r2, r2, #4
 80016dc:	631a      	str	r2, [r3, #48]	; 0x30
 80016de:	f04f 0e0b 	mov.w	lr, #11
 80016e2:	2202      	movs	r2, #2
 80016e4:	f44f 53c0 	mov.w	r3, #6144	; 0x1800
 80016e8:	f04f 090a 	mov.w	r9, #10
 80016ec:	a907      	add	r1, sp, #28
 80016ee:	4638      	mov	r0, r7
 80016f0:	61b2      	str	r2, [r6, #24]
 80016f2:	9208      	str	r2, [sp, #32]
 80016f4:	9201      	str	r2, [sp, #4]
 80016f6:	9307      	str	r3, [sp, #28]
 80016f8:	61f4      	str	r4, [r6, #28]
 80016fa:	6274      	str	r4, [r6, #36]	; 0x24
 80016fc:	f8c6 a28c 	str.w	sl, [r6, #652]	; 0x28c
 8001700:	f8ca 6610 	str.w	r6, [sl, #1552]	; 0x610
 8001704:	f8c6 e008 	str.w	lr, [r6, #8]
 8001708:	f8c6 800c 	str.w	r8, [r6, #12]
 800170c:	f8cd 8028 	str.w	r8, [sp, #40]	; 0x28
 8001710:	9409      	str	r4, [sp, #36]	; 0x24
 8001712:	f8cd 902c 	str.w	r9, [sp, #44]	; 0x2c
 8001716:	f00a ffd3 	bl	800c6c0 <HAL_GPIO_Init>
 800171a:	f44f 6180 	mov.w	r1, #1024	; 0x400
 800171e:	2312      	movs	r3, #18
 8001720:	9509      	str	r5, [sp, #36]	; 0x24
 8001722:	f8cd 8028 	str.w	r8, [sp, #40]	; 0x28
 8001726:	f8cd 902c 	str.w	r9, [sp, #44]	; 0x2c
 800172a:	463a      	mov	r2, r7
 800172c:	9107      	str	r1, [sp, #28]
 800172e:	9308      	str	r3, [sp, #32]
 8001730:	3401      	adds	r4, #1
 8001732:	2c10      	cmp	r4, #16
 8001734:	f000 81d2 	beq.w	8001adc <main+0xe80>
 8001738:	fa05 f704 	lsl.w	r7, r5, r4
 800173c:	f407 6380 	and.w	r3, r7, #1024	; 0x400
 8001740:	429f      	cmp	r7, r3
 8001742:	d1f5      	bne.n	8001730 <main+0xad4>
 8001744:	08e3      	lsrs	r3, r4, #3
 8001746:	009b      	lsls	r3, r3, #2
 8001748:	f103 4380 	add.w	r3, r3, #1073741824	; 0x40000000
 800174c:	f503 3300 	add.w	r3, r3, #131072	; 0x20000
 8001750:	f004 0107 	and.w	r1, r4, #7
 8001754:	6a18      	ldr	r0, [r3, #32]
 8001756:	0089      	lsls	r1, r1, #2
 8001758:	f04f 0e0f 	mov.w	lr, #15
 800175c:	fa0e fe01 	lsl.w	lr, lr, r1
 8001760:	ea20 000e 	bic.w	r0, r0, lr
 8001764:	fa09 f101 	lsl.w	r1, r9, r1
 8001768:	4301      	orrs	r1, r0
 800176a:	6219      	str	r1, [r3, #32]
 800176c:	0060      	lsls	r0, r4, #1
 800176e:	6811      	ldr	r1, [r2, #0]
 8001770:	9b01      	ldr	r3, [sp, #4]
 8001772:	fa08 fc00 	lsl.w	ip, r8, r0
 8001776:	ea6f 0e0c 	mvn.w	lr, ip
 800177a:	4083      	lsls	r3, r0
 800177c:	ea0e 0101 	and.w	r1, lr, r1
 8001780:	4319      	orrs	r1, r3
 8001782:	6011      	str	r1, [r2, #0]
 8001784:	6893      	ldr	r3, [r2, #8]
 8001786:	ea4c 0303 	orr.w	r3, ip, r3
 800178a:	6093      	str	r3, [r2, #8]
 800178c:	6853      	ldr	r3, [r2, #4]
 800178e:	431f      	orrs	r7, r3
 8001790:	6057      	str	r7, [r2, #4]
 8001792:	68d1      	ldr	r1, [r2, #12]
 8001794:	fa05 f300 	lsl.w	r3, r5, r0
 8001798:	ea0e 0101 	and.w	r1, lr, r1
 800179c:	430b      	orrs	r3, r1
 800179e:	60d3      	str	r3, [r2, #12]
 80017a0:	e7c6      	b.n	8001730 <main+0xad4>
 80017a2:	bf00      	nop
 80017a4:	20000000 	.word	0x20000000
 80017a8:	20001be8 	.word	0x20001be8
 80017ac:	20001900 	.word	0x20001900
 80017b0:	40023800 	.word	0x40023800
 80017b4:	007a1200 	.word	0x007a1200
 80017b8:	00f42400 	.word	0x00f42400
 80017bc:	cccccccd 	.word	0xcccccccd
 80017c0:	20000910 	.word	0x20000910
 80017c4:	40020000 	.word	0x40020000
 80017c8:	50060800 	.word	0x50060800
 80017cc:	2000004c 	.word	0x2000004c
 80017d0:	20001950 	.word	0x20001950
 80017d4:	0800db61 	.word	0x0800db61
 80017d8:	40003c00 	.word	0x40003c00
 80017dc:	2001f118 	.word	0x2001f118
 80017e0:	48af      	ldr	r0, [pc, #700]	; (8001aa0 <main+0xe44>)
 80017e2:	4586      	cmp	lr, r0
 80017e4:	f000 82bc 	beq.w	8001d60 <main+0x1104>
 80017e8:	f04f 2040 	mov.w	r0, #1073758208	; 0x40004000
 80017ec:	f04f 0802 	mov.w	r8, #2
 80017f0:	69c6      	ldr	r6, [r0, #28]
 80017f2:	f426 667b 	bic.w	r6, r6, #4016	; 0xfb0
 80017f6:	f026 060f 	bic.w	r6, r6, #15
 80017fa:	61c6      	str	r6, [r0, #28]
 80017fc:	f5b1 7f00 	cmp.w	r1, #512	; 0x200
 8001800:	f8c0 8020 	str.w	r8, [r0, #32]
 8001804:	69c6      	ldr	r6, [r0, #28]
 8001806:	f000 82a3 	beq.w	8001d50 <main+0x10f4>
 800180a:	2900      	cmp	r1, #0
 800180c:	f040 8281 	bne.w	8001d12 <main+0x10b6>
 8001810:	431a      	orrs	r2, r3
 8001812:	f442 6200 	orr.w	r2, r2, #2048	; 0x800
 8001816:	ea42 0307 	orr.w	r3, r2, r7
 800181a:	4333      	orrs	r3, r6
 800181c:	f443 7380 	orr.w	r3, r3, #256	; 0x100
 8001820:	61c3      	str	r3, [r0, #28]
 8001822:	e6e9      	b.n	80015f8 <main+0x99c>
 8001824:	2301      	movs	r3, #1
 8001826:	f886 303d 	strb.w	r3, [r6, #61]	; 0x3d
 800182a:	e6eb      	b.n	8001604 <main+0x9a8>
 800182c:	681a      	ldr	r2, [r3, #0]
 800182e:	625c      	str	r4, [r3, #36]	; 0x24
 8001830:	69d0      	ldr	r0, [r2, #28]
 8001832:	69d1      	ldr	r1, [r2, #28]
 8001834:	f000 0007 	and.w	r0, r0, #7
 8001838:	2803      	cmp	r0, #3
 800183a:	f001 0107 	and.w	r1, r1, #7
 800183e:	f000 8282 	beq.w	8001d46 <main+0x10ea>
 8001842:	2905      	cmp	r1, #5
 8001844:	f000 827f 	beq.w	8001d46 <main+0x10ea>
 8001848:	f44f 61fa 	mov.w	r1, #2000	; 0x7d0
 800184c:	8519      	strh	r1, [r3, #40]	; 0x28
 800184e:	8559      	strh	r1, [r3, #42]	; 0x2a
 8001850:	f895 103c 	ldrb.w	r1, [r5, #60]	; 0x3c
 8001854:	4b93      	ldr	r3, [pc, #588]	; (8001aa4 <main+0xe48>)
 8001856:	2901      	cmp	r1, #1
 8001858:	f43f aee3 	beq.w	8001622 <main+0x9c6>
 800185c:	6b59      	ldr	r1, [r3, #52]	; 0x34
 800185e:	4f92      	ldr	r7, [pc, #584]	; (8001aa8 <main+0xe4c>)
 8001860:	4e92      	ldr	r6, [pc, #584]	; (8001aac <main+0xe50>)
 8001862:	640f      	str	r7, [r1, #64]	; 0x40
 8001864:	f04f 0e01 	mov.w	lr, #1
 8001868:	2412      	movs	r4, #18
 800186a:	2000      	movs	r0, #0
 800186c:	f883 e03c 	strb.w	lr, [r3, #60]	; 0x3c
 8001870:	f883 403d 	strb.w	r4, [r3, #61]	; 0x3d
 8001874:	f883 003e 	strb.w	r0, [r3, #62]	; 0x3e
 8001878:	8d18      	ldrh	r0, [r3, #40]	; 0x28
 800187a:	f891 3034 	ldrb.w	r3, [r1, #52]	; 0x34
 800187e:	4c8c      	ldr	r4, [pc, #560]	; (8001ab0 <main+0xe54>)
 8001880:	63ce      	str	r6, [r1, #60]	; 0x3c
 8001882:	4573      	cmp	r3, lr
 8001884:	b280      	uxth	r0, r0
 8001886:	648c      	str	r4, [r1, #72]	; 0x48
 8001888:	4f8a      	ldr	r7, [pc, #552]	; (8001ab4 <main+0xe58>)
 800188a:	f102 060c 	add.w	r6, r2, #12
 800188e:	d02b      	beq.n	80018e8 <main+0xc8c>
 8001890:	680b      	ldr	r3, [r1, #0]
 8001892:	f8d1 c008 	ldr.w	ip, [r1, #8]
 8001896:	2402      	movs	r4, #2
 8001898:	f881 4035 	strb.w	r4, [r1, #53]	; 0x35
 800189c:	681c      	ldr	r4, [r3, #0]
 800189e:	f881 e034 	strb.w	lr, [r1, #52]	; 0x34
 80018a2:	f1bc 0f40 	cmp.w	ip, #64	; 0x40
 80018a6:	f024 0101 	bic.w	r1, r4, #1
 80018aa:	6019      	str	r1, [r3, #0]
 80018ac:	6058      	str	r0, [r3, #4]
 80018ae:	bf0b      	itete	eq
 80018b0:	609e      	streq	r6, [r3, #8]
 80018b2:	609f      	strne	r7, [r3, #8]
 80018b4:	60df      	streq	r7, [r3, #12]
 80018b6:	60de      	strne	r6, [r3, #12]
 80018b8:	6819      	ldr	r1, [r3, #0]
 80018ba:	f041 0110 	orr.w	r1, r1, #16
 80018be:	6019      	str	r1, [r3, #0]
 80018c0:	6819      	ldr	r1, [r3, #0]
 80018c2:	f041 0108 	orr.w	r1, r1, #8
 80018c6:	6019      	str	r1, [r3, #0]
 80018c8:	6819      	ldr	r1, [r3, #0]
 80018ca:	f041 0104 	orr.w	r1, r1, #4
 80018ce:	6019      	str	r1, [r3, #0]
 80018d0:	6959      	ldr	r1, [r3, #20]
 80018d2:	f041 0180 	orr.w	r1, r1, #128	; 0x80
 80018d6:	6159      	str	r1, [r3, #20]
 80018d8:	6819      	ldr	r1, [r3, #0]
 80018da:	f041 0102 	orr.w	r1, r1, #2
 80018de:	6019      	str	r1, [r3, #0]
 80018e0:	6819      	ldr	r1, [r3, #0]
 80018e2:	f041 0101 	orr.w	r1, r1, #1
 80018e6:	6019      	str	r1, [r3, #0]
 80018e8:	69d3      	ldr	r3, [r2, #28]
 80018ea:	055f      	lsls	r7, r3, #21
 80018ec:	d403      	bmi.n	80018f6 <main+0xc9a>
 80018ee:	69d3      	ldr	r3, [r2, #28]
 80018f0:	f443 6380 	orr.w	r3, r3, #1024	; 0x400
 80018f4:	61d3      	str	r3, [r2, #28]
 80018f6:	6853      	ldr	r3, [r2, #4]
 80018f8:	079e      	lsls	r6, r3, #30
 80018fa:	d403      	bmi.n	8001904 <main+0xca8>
 80018fc:	6853      	ldr	r3, [r2, #4]
 80018fe:	f043 0302 	orr.w	r3, r3, #2
 8001902:	6053      	str	r3, [r2, #4]
 8001904:	2300      	movs	r3, #0
 8001906:	f885 303c 	strb.w	r3, [r5, #60]	; 0x3c
 800190a:	e68a      	b.n	8001622 <main+0x9c6>
 800190c:	4a6a      	ldr	r2, [pc, #424]	; (8001ab8 <main+0xe5c>)
 800190e:	6893      	ldr	r3, [r2, #8]
 8001910:	021e      	lsls	r6, r3, #8
 8001912:	d45d      	bmi.n	80019d0 <main+0xd74>
 8001914:	6896      	ldr	r6, [r2, #8]
 8001916:	4b69      	ldr	r3, [pc, #420]	; (8001abc <main+0xe60>)
 8001918:	f446 0600 	orr.w	r6, r6, #8388608	; 0x800000
 800191c:	6096      	str	r6, [r2, #8]
 800191e:	e636      	b.n	800158e <main+0x932>
 8001920:	4f65      	ldr	r7, [pc, #404]	; (8001ab8 <main+0xe5c>)
 8001922:	4867      	ldr	r0, [pc, #412]	; (8001ac0 <main+0xe64>)
 8001924:	6c3b      	ldr	r3, [r7, #64]	; 0x40
 8001926:	f443 4300 	orr.w	r3, r3, #32768	; 0x8000
 800192a:	643b      	str	r3, [r7, #64]	; 0x40
 800192c:	6b3b      	ldr	r3, [r7, #48]	; 0x30
 800192e:	f043 0304 	orr.w	r3, r3, #4
 8001932:	633b      	str	r3, [r7, #48]	; 0x30
 8001934:	6b3b      	ldr	r3, [r7, #48]	; 0x30
 8001936:	f043 0301 	orr.w	r3, r3, #1
 800193a:	633b      	str	r3, [r7, #48]	; 0x30
 800193c:	f44f 5ea0 	mov.w	lr, #5120	; 0x1400
 8001940:	2302      	movs	r3, #2
 8001942:	2206      	movs	r2, #6
 8001944:	a907      	add	r1, sp, #28
 8001946:	f8cd e01c 	str.w	lr, [sp, #28]
 800194a:	920b      	str	r2, [sp, #44]	; 0x2c
 800194c:	9308      	str	r3, [sp, #32]
 800194e:	930a      	str	r3, [sp, #40]	; 0x28
 8001950:	9609      	str	r6, [sp, #36]	; 0x24
 8001952:	f00a feb5 	bl	800c6c0 <HAL_GPIO_Init>
 8001956:	2310      	movs	r3, #16
 8001958:	485a      	ldr	r0, [pc, #360]	; (8001ac4 <main+0xe68>)
 800195a:	9307      	str	r3, [sp, #28]
 800195c:	a907      	add	r1, sp, #28
 800195e:	f00a feaf 	bl	800c6c0 <HAL_GPIO_Init>
 8001962:	6b3b      	ldr	r3, [r7, #48]	; 0x30
 8001964:	4856      	ldr	r0, [pc, #344]	; (8001ac0 <main+0xe64>)
 8001966:	f043 0304 	orr.w	r3, r3, #4
 800196a:	633b      	str	r3, [r7, #48]	; 0x30
 800196c:	a907      	add	r1, sp, #28
 800196e:	2380      	movs	r3, #128	; 0x80
 8001970:	9307      	str	r3, [sp, #28]
 8001972:	f00a fea5 	bl	800c6c0 <HAL_GPIO_Init>
 8001976:	6b3b      	ldr	r3, [r7, #48]	; 0x30
 8001978:	f443 1300 	orr.w	r3, r3, #2097152	; 0x200000
 800197c:	633b      	str	r3, [r7, #48]	; 0x30
 800197e:	682b      	ldr	r3, [r5, #0]
 8001980:	454b      	cmp	r3, r9
 8001982:	d02b      	beq.n	80019dc <main+0xd80>
 8001984:	202f      	movs	r0, #47	; 0x2f
 8001986:	2106      	movs	r1, #6
 8001988:	f009 fbdc 	bl	800b144 <HAL_NVIC_SetPriority.constprop.106>
 800198c:	4b4e      	ldr	r3, [pc, #312]	; (8001ac8 <main+0xe6c>)
 800198e:	f8d5 e000 	ldr.w	lr, [r5]
 8001992:	f8d5 8014 	ldr.w	r8, [r5, #20]
 8001996:	68ef      	ldr	r7, [r5, #12]
 8001998:	4942      	ldr	r1, [pc, #264]	; (8001aa4 <main+0xe48>)
 800199a:	f44f 4200 	mov.w	r2, #32768	; 0x8000
 800199e:	605a      	str	r2, [r3, #4]
 80019a0:	2202      	movs	r2, #2
 80019a2:	f895 303d 	ldrb.w	r3, [r5, #61]	; 0x3d
 80019a6:	f885 203d 	strb.w	r2, [r5, #61]	; 0x3d
 80019aa:	f8de 301c 	ldr.w	r3, [lr, #28]
 80019ae:	f423 637b 	bic.w	r3, r3, #4016	; 0xfb0
 80019b2:	f023 030f 	bic.w	r3, r3, #15
 80019b6:	f8ce 301c 	str.w	r3, [lr, #28]
 80019ba:	4590      	cmp	r8, r2
 80019bc:	f8ce 2020 	str.w	r2, [lr, #32]
 80019c0:	f8de 001c 	ldr.w	r0, [lr, #28]
 80019c4:	d006      	beq.n	80019d4 <main+0xd78>
 80019c6:	2f00      	cmp	r7, #0
 80019c8:	bf14      	ite	ne
 80019ca:	2140      	movne	r1, #64	; 0x40
 80019cc:	2120      	moveq	r1, #32
 80019ce:	e5b4      	b.n	800153a <main+0x8de>
 80019d0:	4b3a      	ldr	r3, [pc, #232]	; (8001abc <main+0xe60>)
 80019d2:	e5dc      	b.n	800158e <main+0x932>
 80019d4:	690e      	ldr	r6, [r1, #16]
 80019d6:	f04f 0c00 	mov.w	ip, #0
 80019da:	e5f8      	b.n	80015ce <main+0x972>
 80019dc:	4b3b      	ldr	r3, [pc, #236]	; (8001acc <main+0xe70>)
 80019de:	4a3c      	ldr	r2, [pc, #240]	; (8001ad0 <main+0xe74>)
 80019e0:	f893 1035 	ldrb.w	r1, [r3, #53]	; 0x35
 80019e4:	605e      	str	r6, [r3, #4]
 80019e6:	2740      	movs	r7, #64	; 0x40
 80019e8:	f44f 6080 	mov.w	r0, #1024	; 0x400
 80019ec:	f44f 6900 	mov.w	r9, #2048	; 0x800
 80019f0:	f44f 5800 	mov.w	r8, #8192	; 0x2000
 80019f4:	f44f 7c80 	mov.w	ip, #256	; 0x100
 80019f8:	f44f 3e00 	mov.w	lr, #131072	; 0x20000
 80019fc:	609f      	str	r7, [r3, #8]
 80019fe:	6118      	str	r0, [r3, #16]
 8001a00:	2704      	movs	r7, #4
 8001a02:	2003      	movs	r0, #3
 8001a04:	2902      	cmp	r1, #2
 8001a06:	60de      	str	r6, [r3, #12]
 8001a08:	62de      	str	r6, [r3, #44]	; 0x2c
 8001a0a:	631e      	str	r6, [r3, #48]	; 0x30
 8001a0c:	636b      	str	r3, [r5, #52]	; 0x34
 8001a0e:	639d      	str	r5, [r3, #56]	; 0x38
 8001a10:	f8c3 9014 	str.w	r9, [r3, #20]
 8001a14:	f8c3 8018 	str.w	r8, [r3, #24]
 8001a18:	f8c3 c01c 	str.w	ip, [r3, #28]
 8001a1c:	f8c3 e020 	str.w	lr, [r3, #32]
 8001a20:	625f      	str	r7, [r3, #36]	; 0x24
 8001a22:	6298      	str	r0, [r3, #40]	; 0x28
 8001a24:	601a      	str	r2, [r3, #0]
 8001a26:	d024      	beq.n	8001a72 <main+0xe16>
 8001a28:	6810      	ldr	r0, [r2, #0]
 8001a2a:	492a      	ldr	r1, [pc, #168]	; (8001ad4 <main+0xe78>)
 8001a2c:	f883 6034 	strb.w	r6, [r3, #52]	; 0x34
 8001a30:	f020 0001 	bic.w	r0, r0, #1
 8001a34:	6010      	str	r0, [r2, #0]
 8001a36:	f04f 0921 	mov.w	r9, #33	; 0x21
 8001a3a:	f04f 7880 	mov.w	r8, #16777216	; 0x1000000
 8001a3e:	f04f 6c00 	mov.w	ip, #134217728	; 0x8000000
 8001a42:	f04f 7e00 	mov.w	lr, #33554432	; 0x2000000
 8001a46:	f44f 0780 	mov.w	r7, #4194304	; 0x400000
 8001a4a:	f04f 6080 	mov.w	r0, #67108864	; 0x4000000
 8001a4e:	6016      	str	r6, [r2, #0]
 8001a50:	6056      	str	r6, [r2, #4]
 8001a52:	6096      	str	r6, [r2, #8]
 8001a54:	60d6      	str	r6, [r2, #12]
 8001a56:	6116      	str	r6, [r2, #16]
 8001a58:	f8c2 9014 	str.w	r9, [r2, #20]
 8001a5c:	f8c1 800c 	str.w	r8, [r1, #12]
 8001a60:	f8c1 c00c 	str.w	ip, [r1, #12]
 8001a64:	f8c1 e00c 	str.w	lr, [r1, #12]
 8001a68:	60cf      	str	r7, [r1, #12]
 8001a6a:	60c8      	str	r0, [r1, #12]
 8001a6c:	64de      	str	r6, [r3, #76]	; 0x4c
 8001a6e:	f883 6035 	strb.w	r6, [r3, #53]	; 0x35
 8001a72:	4917      	ldr	r1, [pc, #92]	; (8001ad0 <main+0xe74>)
 8001a74:	2202      	movs	r2, #2
 8001a76:	f883 2035 	strb.w	r2, [r3, #53]	; 0x35
 8001a7a:	6808      	ldr	r0, [r1, #0]
 8001a7c:	4a16      	ldr	r2, [pc, #88]	; (8001ad8 <main+0xe7c>)
 8001a7e:	4002      	ands	r2, r0
 8001a80:	f442 320b 	orr.w	r2, r2, #142336	; 0x22c00
 8001a84:	f442 72a0 	orr.w	r2, r2, #320	; 0x140
 8001a88:	600a      	str	r2, [r1, #0]
 8001a8a:	694a      	ldr	r2, [r1, #20]
 8001a8c:	2600      	movs	r6, #0
 8001a8e:	f042 0207 	orr.w	r2, r2, #7
 8001a92:	2001      	movs	r0, #1
 8001a94:	614a      	str	r2, [r1, #20]
 8001a96:	64de      	str	r6, [r3, #76]	; 0x4c
 8001a98:	f883 0035 	strb.w	r0, [r3, #53]	; 0x35
 8001a9c:	e772      	b.n	8001984 <main+0xd28>
 8001a9e:	bf00      	nop
 8001aa0:	40003800 	.word	0x40003800
 8001aa4:	20001900 	.word	0x20001900
 8001aa8:	0800bedd 	.word	0x0800bedd
 8001aac:	0800bf19 	.word	0x0800bf19
 8001ab0:	0800bead 	.word	0x0800bead
 8001ab4:	20000910 	.word	0x20000910
 8001ab8:	40023800 	.word	0x40023800
 8001abc:	00bb8000 	.word	0x00bb8000
 8001ac0:	40020800 	.word	0x40020800
 8001ac4:	40020000 	.word	0x40020000
 8001ac8:	e000e100 	.word	0xe000e100
 8001acc:	200018b0 	.word	0x200018b0
 8001ad0:	400260b8 	.word	0x400260b8
 8001ad4:	40026000 	.word	0x40026000
 8001ad8:	f014803f 	.word	0xf014803f
 8001adc:	2301      	movs	r3, #1
 8001ade:	2200      	movs	r2, #0
 8001ae0:	a907      	add	r1, sp, #28
 8001ae2:	2402      	movs	r4, #2
 8001ae4:	48b3      	ldr	r0, [pc, #716]	; (8001db4 <main+0x1158>)
 8001ae6:	9307      	str	r3, [sp, #28]
 8001ae8:	9308      	str	r3, [sp, #32]
 8001aea:	940a      	str	r4, [sp, #40]	; 0x28
 8001aec:	9209      	str	r2, [sp, #36]	; 0x24
 8001aee:	f009 faed 	bl	800b0cc <HAL_GPIO_Init.constprop.108>
 8001af2:	4bb1      	ldr	r3, [pc, #708]	; (8001db8 <main+0x115c>)
 8001af4:	6b5a      	ldr	r2, [r3, #52]	; 0x34
 8001af6:	f042 0280 	orr.w	r2, r2, #128	; 0x80
 8001afa:	635a      	str	r2, [r3, #52]	; 0x34
 8001afc:	6c5a      	ldr	r2, [r3, #68]	; 0x44
 8001afe:	f442 4280 	orr.w	r2, r2, #16384	; 0x4000
 8001b02:	645a      	str	r2, [r3, #68]	; 0x44
 8001b04:	2043      	movs	r0, #67	; 0x43
 8001b06:	2106      	movs	r1, #6
 8001b08:	f009 fb1c 	bl	800b144 <HAL_NVIC_SetPriority.constprop.106>
 8001b0c:	4bab      	ldr	r3, [pc, #684]	; (8001dbc <main+0x1160>)
 8001b0e:	6834      	ldr	r4, [r6, #0]
 8001b10:	2208      	movs	r2, #8
 8001b12:	609a      	str	r2, [r3, #8]
 8001b14:	68a3      	ldr	r3, [r4, #8]
 8001b16:	f023 0301 	bic.w	r3, r3, #1
 8001b1a:	60a3      	str	r3, [r4, #8]
 8001b1c:	69b3      	ldr	r3, [r6, #24]
 8001b1e:	6935      	ldr	r5, [r6, #16]
 8001b20:	6af2      	ldr	r2, [r6, #44]	; 0x2c
 8001b22:	2b01      	cmp	r3, #1
 8001b24:	f040 80ea 	bne.w	8001cfc <main+0x10a0>
 8001b28:	6ba3      	ldr	r3, [r4, #56]	; 0x38
 8001b2a:	f423 3380 	bic.w	r3, r3, #65536	; 0x10000
 8001b2e:	63a3      	str	r3, [r4, #56]	; 0x38
 8001b30:	68e3      	ldr	r3, [r4, #12]
 8001b32:	f423 0384 	bic.w	r3, r3, #4325376	; 0x420000
 8001b36:	f023 0340 	bic.w	r3, r3, #64	; 0x40
 8001b3a:	60e3      	str	r3, [r4, #12]
 8001b3c:	68e3      	ldr	r3, [r4, #12]
 8001b3e:	2a01      	cmp	r2, #1
 8001b40:	f423 1340 	bic.w	r3, r3, #3145728	; 0x300000
 8001b44:	60e3      	str	r3, [r4, #12]
 8001b46:	d103      	bne.n	8001b50 <main+0xef4>
 8001b48:	68e3      	ldr	r3, [r4, #12]
 8001b4a:	f443 1380 	orr.w	r3, r3, #1048576	; 0x100000
 8001b4e:	60e3      	str	r3, [r4, #12]
 8001b50:	4620      	mov	r0, r4
 8001b52:	f00a fd3b 	bl	800c5cc <USB_CoreReset.lto_priv.169>
 8001b56:	2d01      	cmp	r5, #1
 8001b58:	d107      	bne.n	8001b6a <main+0xf0e>
 8001b5a:	68a3      	ldr	r3, [r4, #8]
 8001b5c:	f043 030c 	orr.w	r3, r3, #12
 8001b60:	60a3      	str	r3, [r4, #8]
 8001b62:	68a3      	ldr	r3, [r4, #8]
 8001b64:	f043 0320 	orr.w	r3, r3, #32
 8001b68:	60a3      	str	r3, [r4, #8]
 8001b6a:	6833      	ldr	r3, [r6, #0]
 8001b6c:	68da      	ldr	r2, [r3, #12]
 8001b6e:	f022 42c0 	bic.w	r2, r2, #1610612736	; 0x60000000
 8001b72:	60da      	str	r2, [r3, #12]
 8001b74:	68da      	ldr	r2, [r3, #12]
 8001b76:	f042 5200 	orr.w	r2, r2, #536870912	; 0x20000000
 8001b7a:	60da      	str	r2, [r3, #12]
 8001b7c:	2032      	movs	r0, #50	; 0x32
 8001b7e:	f009 ff67 	bl	800ba50 <HAL_Delay>
 8001b82:	6834      	ldr	r4, [r6, #0]
 8001b84:	2300      	movs	r3, #0
 8001b86:	f106 0108 	add.w	r1, r6, #8
 8001b8a:	c926      	ldmia	r1, {r1, r2, r5}
 8001b8c:	f8c4 3e00 	str.w	r3, [r4, #3584]	; 0xe00
 8001b90:	6ba3      	ldr	r3, [r4, #56]	; 0x38
 8001b92:	f423 2380 	bic.w	r3, r3, #262144	; 0x40000
 8001b96:	63a3      	str	r3, [r4, #56]	; 0x38
 8001b98:	6ba3      	ldr	r3, [r4, #56]	; 0x38
 8001b9a:	f423 2300 	bic.w	r3, r3, #524288	; 0x80000
 8001b9e:	63a3      	str	r3, [r4, #56]	; 0x38
 8001ba0:	6ba3      	ldr	r3, [r4, #56]	; 0x38
 8001ba2:	f443 1300 	orr.w	r3, r3, #2097152	; 0x200000
 8001ba6:	63a3      	str	r3, [r4, #56]	; 0x38
 8001ba8:	2a03      	cmp	r2, #3
 8001baa:	f8d4 3400 	ldr.w	r3, [r4, #1024]	; 0x400
 8001bae:	f000 80f1 	beq.w	8001d94 <main+0x1138>
 8001bb2:	f023 0304 	bic.w	r3, r3, #4
 8001bb6:	f8c4 3400 	str.w	r3, [r4, #1024]	; 0x400
 8001bba:	f44f 7308 	mov.w	r3, #544	; 0x220
 8001bbe:	6123      	str	r3, [r4, #16]
 8001bc0:	4b7f      	ldr	r3, [pc, #508]	; (8001dc0 <main+0x1164>)
 8001bc2:	e001      	b.n	8001bc8 <main+0xf6c>
 8001bc4:	3b01      	subs	r3, #1
 8001bc6:	d002      	beq.n	8001bce <main+0xf72>
 8001bc8:	6922      	ldr	r2, [r4, #16]
 8001bca:	0690      	lsls	r0, r2, #26
 8001bcc:	d4fa      	bmi.n	8001bc4 <main+0xf68>
 8001bce:	2310      	movs	r3, #16
 8001bd0:	6123      	str	r3, [r4, #16]
 8001bd2:	4b7b      	ldr	r3, [pc, #492]	; (8001dc0 <main+0x1164>)
 8001bd4:	e001      	b.n	8001bda <main+0xf7e>
 8001bd6:	3b01      	subs	r3, #1
 8001bd8:	d002      	beq.n	8001be0 <main+0xf84>
 8001bda:	6922      	ldr	r2, [r4, #16]
 8001bdc:	06d2      	lsls	r2, r2, #27
 8001bde:	d4fa      	bmi.n	8001bd6 <main+0xf7a>
 8001be0:	b161      	cbz	r1, 8001bfc <main+0xfa0>
 8001be2:	2200      	movs	r2, #0
 8001be4:	4617      	mov	r7, r2
 8001be6:	f504 63a0 	add.w	r3, r4, #1280	; 0x500
 8001bea:	f04f 30ff 	mov.w	r0, #4294967295
 8001bee:	3201      	adds	r2, #1
 8001bf0:	428a      	cmp	r2, r1
 8001bf2:	6098      	str	r0, [r3, #8]
 8001bf4:	60df      	str	r7, [r3, #12]
 8001bf6:	f103 0320 	add.w	r3, r3, #32
 8001bfa:	d1f8      	bne.n	8001bee <main+0xf92>
 8001bfc:	f8d4 3440 	ldr.w	r3, [r4, #1088]	; 0x440
 8001c00:	9304      	str	r3, [sp, #16]
 8001c02:	9b04      	ldr	r3, [sp, #16]
 8001c04:	f023 032e 	bic.w	r3, r3, #46	; 0x2e
 8001c08:	9304      	str	r3, [sp, #16]
 8001c0a:	9b04      	ldr	r3, [sp, #16]
 8001c0c:	04d9      	lsls	r1, r3, #19
 8001c0e:	d404      	bmi.n	8001c1a <main+0xfbe>
 8001c10:	9b04      	ldr	r3, [sp, #16]
 8001c12:	f443 5380 	orr.w	r3, r3, #4096	; 0x1000
 8001c16:	f8c4 3440 	str.w	r3, [r4, #1088]	; 0x440
 8001c1a:	20c8      	movs	r0, #200	; 0xc8
 8001c1c:	9b04      	ldr	r3, [sp, #16]
 8001c1e:	f009 ff17 	bl	800ba50 <HAL_Delay>
 8001c22:	2200      	movs	r2, #0
 8001c24:	f04f 33ff 	mov.w	r3, #4294967295
 8001c28:	f1b4 4fa0 	cmp.w	r4, #1342177280	; 0x50000000
 8001c2c:	61a2      	str	r2, [r4, #24]
 8001c2e:	6163      	str	r3, [r4, #20]
 8001c30:	f000 8616 	beq.w	8002860 <main+0x1c04>
 8001c34:	f44f 7100 	mov.w	r1, #512	; 0x200
 8001c38:	4a62      	ldr	r2, [pc, #392]	; (8001dc4 <main+0x1168>)
 8001c3a:	4b63      	ldr	r3, [pc, #396]	; (8001dc8 <main+0x116c>)
 8001c3c:	6261      	str	r1, [r4, #36]	; 0x24
 8001c3e:	62a2      	str	r2, [r4, #40]	; 0x28
 8001c40:	f8c4 3100 	str.w	r3, [r4, #256]	; 0x100
 8001c44:	b91d      	cbnz	r5, 8001c4e <main+0xff2>
 8001c46:	69a3      	ldr	r3, [r4, #24]
 8001c48:	f043 0310 	orr.w	r3, r3, #16
 8001c4c:	61a3      	str	r3, [r4, #24]
 8001c4e:	69a0      	ldr	r0, [r4, #24]
 8001c50:	4a5e      	ldr	r2, [pc, #376]	; (8001dcc <main+0x1170>)
 8001c52:	6833      	ldr	r3, [r6, #0]
 8001c54:	f8da 55c8 	ldr.w	r5, [sl, #1480]	; 0x5c8
 8001c58:	495d      	ldr	r1, [pc, #372]	; (8001dd0 <main+0x1174>)
 8001c5a:	4302      	orrs	r2, r0
 8001c5c:	f503 6380 	add.w	r3, r3, #1024	; 0x400
 8001c60:	2001      	movs	r0, #1
 8001c62:	61a2      	str	r2, [r4, #24]
 8001c64:	f886 0289 	strb.w	r0, [r6, #649]	; 0x289
 8001c68:	689b      	ldr	r3, [r3, #8]
 8001c6a:	b29b      	uxth	r3, r3
 8001c6c:	f8ca 3608 	str.w	r3, [sl, #1544]	; 0x608
 8001c70:	b925      	cbnz	r5, 8001c7c <main+0x1020>
 8001c72:	4b58      	ldr	r3, [pc, #352]	; (8001dd4 <main+0x1178>)
 8001c74:	f8c1 05c8 	str.w	r0, [r1, #1480]	; 0x5c8
 8001c78:	f8c1 35c0 	str.w	r3, [r1, #1472]	; 0x5c0
 8001c7c:	f8da 3610 	ldr.w	r3, [sl, #1552]	; 0x610
 8001c80:	f893 2288 	ldrb.w	r2, [r3, #648]	; 0x288
 8001c84:	2a01      	cmp	r2, #1
 8001c86:	f040 85cf 	bne.w	8002828 <main+0x1bcc>
 8001c8a:	4b4a      	ldr	r3, [pc, #296]	; (8001db4 <main+0x1158>)
 8001c8c:	f8df 8150 	ldr.w	r8, [pc, #336]	; 8001de0 <main+0x1184>
 8001c90:	2201      	movs	r2, #1
 8001c92:	835a      	strh	r2, [r3, #26]
 8001c94:	20c8      	movs	r0, #200	; 0xc8
 8001c96:	f009 fedb 	bl	800ba50 <HAL_Delay>
 8001c9a:	f04f 0900 	mov.w	r9, #0
 8001c9e:	f898 3000 	ldrb.w	r3, [r8]
 8001ca2:	2b02      	cmp	r3, #2
 8001ca4:	f000 80b5 	beq.w	8001e12 <main+0x11b6>
 8001ca8:	2b04      	cmp	r3, #4
 8001caa:	f000 8484 	beq.w	80025b6 <main+0x195a>
 8001cae:	f8db 2000 	ldr.w	r2, [fp]
 8001cb2:	f8db 3000 	ldr.w	r3, [fp]
 8001cb6:	4293      	cmp	r3, r2
 8001cb8:	d0fb      	beq.n	8001cb2 <main+0x1056>
 8001cba:	2302      	movs	r3, #2
 8001cbc:	f88d 300f 	strb.w	r3, [sp, #15]
 8001cc0:	f89a 3000 	ldrb.w	r3, [sl]
 8001cc4:	2b0a      	cmp	r3, #10
 8001cc6:	d8ea      	bhi.n	8001c9e <main+0x1042>
 8001cc8:	a201      	add	r2, pc, #4	; (adr r2, 8001cd0 <main+0x1074>)
 8001cca:	f852 f023 	ldr.w	pc, [r2, r3, lsl #2]
 8001cce:	bf00      	nop
 8001cd0:	08002195 	.word	0x08002195
 8001cd4:	08001c9f 	.word	0x08001c9f
 8001cd8:	08001f5d 	.word	0x08001f5d
 8001cdc:	08001ec9 	.word	0x08001ec9
 8001ce0:	08001c9f 	.word	0x08001c9f
 8001ce4:	08001e93 	.word	0x08001e93
 8001ce8:	08001e6f 	.word	0x08001e6f
 8001cec:	08001eb1 	.word	0x08001eb1
 8001cf0:	08001e37 	.word	0x08001e37
 8001cf4:	08001de5 	.word	0x08001de5
 8001cf8:	080021eb 	.word	0x080021eb
 8001cfc:	68e3      	ldr	r3, [r4, #12]
 8001cfe:	f043 0340 	orr.w	r3, r3, #64	; 0x40
 8001d02:	60e3      	str	r3, [r4, #12]
 8001d04:	4620      	mov	r0, r4
 8001d06:	f00a fc61 	bl	800c5cc <USB_CoreReset.lto_priv.169>
 8001d0a:	f44f 3380 	mov.w	r3, #65536	; 0x10000
 8001d0e:	63a3      	str	r3, [r4, #56]	; 0x38
 8001d10:	e721      	b.n	8001b56 <main+0xefa>
 8001d12:	4313      	orrs	r3, r2
 8001d14:	f443 6300 	orr.w	r3, r3, #2048	; 0x800
 8001d18:	f421 7100 	bic.w	r1, r1, #512	; 0x200
 8001d1c:	f5b1 7f80 	cmp.w	r1, #256	; 0x100
 8001d20:	ea43 0307 	orr.w	r3, r3, r7
 8001d24:	482c      	ldr	r0, [pc, #176]	; (8001dd8 <main+0x117c>)
 8001d26:	4a2d      	ldr	r2, [pc, #180]	; (8001ddc <main+0x1180>)
 8001d28:	bf08      	it	eq
 8001d2a:	f04f 0c00 	moveq.w	ip, #0
 8001d2e:	4333      	orrs	r3, r6
 8001d30:	ea43 030c 	orr.w	r3, r3, ip
 8001d34:	4586      	cmp	lr, r0
 8001d36:	bf0c      	ite	eq
 8001d38:	4610      	moveq	r0, r2
 8001d3a:	f04f 2040 	movne.w	r0, #1073758208	; 0x40004000
 8001d3e:	e56f      	b.n	8001820 <main+0xbc4>
 8001d40:	2003      	movs	r0, #3
 8001d42:	f7ff b8d9 	b.w	8000ef8 <main+0x29c>
 8001d46:	f44f 637a 	mov.w	r3, #4000	; 0xfa0
 8001d4a:	852b      	strh	r3, [r5, #40]	; 0x28
 8001d4c:	856b      	strh	r3, [r5, #42]	; 0x2a
 8001d4e:	e57f      	b.n	8001850 <main+0xbf4>
 8001d50:	ea43 0102 	orr.w	r1, r3, r2
 8001d54:	f441 6110 	orr.w	r1, r1, #2304	; 0x900
 8001d58:	4331      	orrs	r1, r6
 8001d5a:	ea41 0307 	orr.w	r3, r1, r7
 8001d5e:	e55f      	b.n	8001820 <main+0xbc4>
 8001d60:	481e      	ldr	r0, [pc, #120]	; (8001ddc <main+0x1180>)
 8001d62:	69c6      	ldr	r6, [r0, #28]
 8001d64:	f426 667b 	bic.w	r6, r6, #4016	; 0xfb0
 8001d68:	f026 060f 	bic.w	r6, r6, #15
 8001d6c:	f04f 0802 	mov.w	r8, #2
 8001d70:	61c6      	str	r6, [r0, #28]
 8001d72:	f5b1 7f00 	cmp.w	r1, #512	; 0x200
 8001d76:	f8c0 8020 	str.w	r8, [r0, #32]
 8001d7a:	69c6      	ldr	r6, [r0, #28]
 8001d7c:	d013      	beq.n	8001da6 <main+0x114a>
 8001d7e:	2900      	cmp	r1, #0
 8001d80:	d1c7      	bne.n	8001d12 <main+0x10b6>
 8001d82:	431a      	orrs	r2, r3
 8001d84:	f442 6200 	orr.w	r2, r2, #2048	; 0x800
 8001d88:	433a      	orrs	r2, r7
 8001d8a:	ea42 0306 	orr.w	r3, r2, r6
 8001d8e:	f443 7380 	orr.w	r3, r3, #256	; 0x100
 8001d92:	e545      	b.n	8001820 <main+0xbc4>
 8001d94:	f1b4 4fa0 	cmp.w	r4, #1342177280	; 0x50000000
 8001d98:	f43f af0b 	beq.w	8001bb2 <main+0xf56>
 8001d9c:	f043 0304 	orr.w	r3, r3, #4
 8001da0:	f8c4 3400 	str.w	r3, [r4, #1024]	; 0x400
 8001da4:	e709      	b.n	8001bba <main+0xf5e>
 8001da6:	4313      	orrs	r3, r2
 8001da8:	f443 6310 	orr.w	r3, r3, #2304	; 0x900
 8001dac:	4333      	orrs	r3, r6
 8001dae:	433b      	orrs	r3, r7
 8001db0:	e536      	b.n	8001820 <main+0xbc4>
 8001db2:	bf00      	nop
 8001db4:	40020800 	.word	0x40020800
 8001db8:	40023800 	.word	0x40023800
 8001dbc:	e000e100 	.word	0xe000e100
 8001dc0:	00030d40 	.word	0x00030d40
 8001dc4:	01000200 	.word	0x01000200
 8001dc8:	00e00300 	.word	0x00e00300
 8001dcc:	a3200008 	.word	0xa3200008
 8001dd0:	2001f118 	.word	0x2001f118
 8001dd4:	2000002c 	.word	0x2000002c
 8001dd8:	40003800 	.word	0x40003800
 8001ddc:	40003400 	.word	0x40003400
 8001de0:	2001f770 	.word	0x2001f770
 8001de4:	f8da 35c8 	ldr.w	r3, [sl, #1480]	; 0x5c8
 8001de8:	4c5a      	ldr	r4, [pc, #360]	; (8001f54 <main+0x12f8>)
 8001dea:	2b00      	cmp	r3, #0
 8001dec:	f43f af57 	beq.w	8001c9e <main+0x1042>
 8001df0:	f8d4 35c0 	ldr.w	r3, [r4, #1472]	; 0x5c0
 8001df4:	f8c4 95c4 	str.w	r9, [r4, #1476]	; 0x5c4
 8001df8:	7919      	ldrb	r1, [r3, #4]
 8001dfa:	f894 2241 	ldrb.w	r2, [r4, #577]	; 0x241
 8001dfe:	4291      	cmp	r1, r2
 8001e00:	f000 8410 	beq.w	8002624 <main+0x19c8>
 8001e04:	230c      	movs	r3, #12
 8001e06:	7023      	strb	r3, [r4, #0]
 8001e08:	f898 3000 	ldrb.w	r3, [r8]
 8001e0c:	2b02      	cmp	r3, #2
 8001e0e:	f47f af4b 	bne.w	8001ca8 <main+0x104c>
 8001e12:	f8da 35c4 	ldr.w	r3, [sl, #1476]	; 0x5c4
 8001e16:	69db      	ldr	r3, [r3, #28]
 8001e18:	781a      	ldrb	r2, [r3, #0]
 8001e1a:	2a01      	cmp	r2, #1
 8001e1c:	d807      	bhi.n	8001e2e <main+0x11d2>
 8001e1e:	2040      	movs	r0, #64	; 0x40
 8001e20:	2101      	movs	r1, #1
 8001e22:	2203      	movs	r2, #3
 8001e24:	4c4c      	ldr	r4, [pc, #304]	; (8001f58 <main+0x12fc>)
 8001e26:	611c      	str	r4, [r3, #16]
 8001e28:	82d8      	strh	r0, [r3, #22]
 8001e2a:	7019      	strb	r1, [r3, #0]
 8001e2c:	765a      	strb	r2, [r3, #25]
 8001e2e:	2303      	movs	r3, #3
 8001e30:	f888 3000 	strb.w	r3, [r8]
 8001e34:	e73b      	b.n	8001cae <main+0x1052>
 8001e36:	f89a 2002 	ldrb.w	r2, [sl, #2]
 8001e3a:	4b46      	ldr	r3, [pc, #280]	; (8001f54 <main+0x12f8>)
 8001e3c:	f89a 1237 	ldrb.w	r1, [sl, #567]	; 0x237
 8001e40:	2a01      	cmp	r2, #1
 8001e42:	d108      	bne.n	8001e56 <main+0x11fa>
 8001e44:	2209      	movs	r2, #9
 8001e46:	f883 9010 	strb.w	r9, [r3, #16]
 8001e4a:	8259      	strh	r1, [r3, #18]
 8001e4c:	f8a3 9014 	strh.w	r9, [r3, #20]
 8001e50:	f8a3 9016 	strh.w	r9, [r3, #22]
 8001e54:	745a      	strb	r2, [r3, #17]
 8001e56:	4c3f      	ldr	r4, [pc, #252]	; (8001f54 <main+0x12f8>)
 8001e58:	2100      	movs	r1, #0
 8001e5a:	4620      	mov	r0, r4
 8001e5c:	460a      	mov	r2, r1
 8001e5e:	f009 fe05 	bl	800ba6c <USBH_CtlReq>
 8001e62:	2800      	cmp	r0, #0
 8001e64:	f47f af1b 	bne.w	8001c9e <main+0x1042>
 8001e68:	2309      	movs	r3, #9
 8001e6a:	7023      	strb	r3, [r4, #0]
 8001e6c:	e717      	b.n	8001c9e <main+0x1042>
 8001e6e:	f8da 35c4 	ldr.w	r3, [sl, #1476]	; 0x5c4
 8001e72:	4c38      	ldr	r4, [pc, #224]	; (8001f54 <main+0x12f8>)
 8001e74:	2b00      	cmp	r3, #0
 8001e76:	d0c5      	beq.n	8001e04 <main+0x11a8>
 8001e78:	691b      	ldr	r3, [r3, #16]
 8001e7a:	4620      	mov	r0, r4
 8001e7c:	4798      	blx	r3
 8001e7e:	f88d 000f 	strb.w	r0, [sp, #15]
 8001e82:	f89d 300f 	ldrb.w	r3, [sp, #15]
 8001e86:	2b00      	cmp	r3, #0
 8001e88:	f47f af09 	bne.w	8001c9e <main+0x1042>
 8001e8c:	230a      	movs	r3, #10
 8001e8e:	7023      	strb	r3, [r4, #0]
 8001e90:	e705      	b.n	8001c9e <main+0x1042>
 8001e92:	f89a 3001 	ldrb.w	r3, [sl, #1]
 8001e96:	2b07      	cmp	r3, #7
 8001e98:	f63f af01 	bhi.w	8001c9e <main+0x1042>
 8001e9c:	e8df f013 	tbh	[pc, r3, lsl #1]
 8001ea0:	0231023b 	.word	0x0231023b
 8001ea4:	01d002d8 	.word	0x01d002d8
 8001ea8:	01c70214 	.word	0x01c70214
 8001eac:	01ae01be 	.word	0x01ae01be
 8001eb0:	f8da 3614 	ldr.w	r3, [sl, #1556]	; 0x614
 8001eb4:	4c27      	ldr	r4, [pc, #156]	; (8001f54 <main+0x12f8>)
 8001eb6:	2b00      	cmp	r3, #0
 8001eb8:	f43f aef1 	beq.w	8001c9e <main+0x1042>
 8001ebc:	4620      	mov	r0, r4
 8001ebe:	2101      	movs	r1, #1
 8001ec0:	4798      	blx	r3
 8001ec2:	2308      	movs	r3, #8
 8001ec4:	7023      	strb	r3, [r4, #0]
 8001ec6:	e6ea      	b.n	8001c9e <main+0x1042>
 8001ec8:	4c22      	ldr	r4, [pc, #136]	; (8001f54 <main+0x12f8>)
 8001eca:	f8ca 95cc 	str.w	r9, [sl, #1484]	; 0x5cc
 8001ece:	2100      	movs	r1, #0
 8001ed0:	f44f 7200 	mov.w	r2, #512	; 0x200
 8001ed4:	f104 001c 	add.w	r0, r4, #28
 8001ed8:	f8ca 95d0 	str.w	r9, [sl, #1488]	; 0x5d0
 8001edc:	f8ca 95d4 	str.w	r9, [sl, #1492]	; 0x5d4
 8001ee0:	f8ca 95d8 	str.w	r9, [sl, #1496]	; 0x5d8
 8001ee4:	f8ca 95dc 	str.w	r9, [sl, #1500]	; 0x5dc
 8001ee8:	f8ca 95e0 	str.w	r9, [sl, #1504]	; 0x5e0
 8001eec:	f8ca 95e4 	str.w	r9, [sl, #1508]	; 0x5e4
 8001ef0:	f8ca 95e8 	str.w	r9, [sl, #1512]	; 0x5e8
 8001ef4:	f8ca 95ec 	str.w	r9, [sl, #1516]	; 0x5ec
 8001ef8:	f8ca 95f0 	str.w	r9, [sl, #1520]	; 0x5f0
 8001efc:	f8ca 95f4 	str.w	r9, [sl, #1524]	; 0x5f4
 8001f00:	f8ca 95f8 	str.w	r9, [sl, #1528]	; 0x5f8
 8001f04:	f8ca 95fc 	str.w	r9, [sl, #1532]	; 0x5fc
 8001f08:	f8ca 9600 	str.w	r9, [sl, #1536]	; 0x600
 8001f0c:	f8ca 9604 	str.w	r9, [sl, #1540]	; 0x604
 8001f10:	f00e f8a4 	bl	801005c <memset>
 8001f14:	f8da 25c4 	ldr.w	r2, [sl, #1476]	; 0x5c4
 8001f18:	f88a 9000 	strb.w	r9, [sl]
 8001f1c:	2301      	movs	r3, #1
 8001f1e:	2140      	movs	r1, #64	; 0x40
 8001f20:	f88a 9001 	strb.w	r9, [sl, #1]
 8001f24:	f8ca 9608 	str.w	r9, [sl, #1544]	; 0x608
 8001f28:	f88a 9019 	strb.w	r9, [sl, #25]
 8001f2c:	f88a 921c 	strb.w	r9, [sl, #540]	; 0x21c
 8001f30:	f88a 3002 	strb.w	r3, [sl, #2]
 8001f34:	f88a 3018 	strb.w	r3, [sl, #24]
 8001f38:	f88a 321d 	strb.w	r3, [sl, #541]	; 0x21d
 8001f3c:	f88a 1006 	strb.w	r1, [sl, #6]
 8001f40:	2a00      	cmp	r2, #0
 8001f42:	f43f aeac 	beq.w	8001c9e <main+0x1042>
 8001f46:	68d3      	ldr	r3, [r2, #12]
 8001f48:	4620      	mov	r0, r4
 8001f4a:	4798      	blx	r3
 8001f4c:	f8c4 95c4 	str.w	r9, [r4, #1476]	; 0x5c4
 8001f50:	e6a5      	b.n	8001c9e <main+0x1042>
 8001f52:	bf00      	nop
 8001f54:	2001f118 	.word	0x2001f118
 8001f58:	200008d0 	.word	0x200008d0
 8001f5c:	f8db 2000 	ldr.w	r2, [fp]
 8001f60:	f8db 3000 	ldr.w	r3, [fp]
 8001f64:	1a9b      	subs	r3, r3, r2
 8001f66:	2b64      	cmp	r3, #100	; 0x64
 8001f68:	d3fa      	bcc.n	8001f60 <main+0x1304>
 8001f6a:	f8da 3610 	ldr.w	r3, [sl, #1552]	; 0x610
 8001f6e:	f8da 05cc 	ldr.w	r0, [sl, #1484]	; 0x5cc
 8001f72:	681a      	ldr	r2, [r3, #0]
 8001f74:	f8d2 2440 	ldr.w	r2, [r2, #1088]	; 0x440
 8001f78:	9207      	str	r2, [sp, #28]
 8001f7a:	9a07      	ldr	r2, [sp, #28]
 8001f7c:	f3c2 4241 	ubfx	r2, r2, #17, #2
 8001f80:	2a03      	cmp	r2, #3
 8001f82:	bf16      	itet	ne
 8001f84:	49cd      	ldrne	r1, [pc, #820]	; (80022bc <main+0x1660>)
 8001f86:	2401      	moveq	r4, #1
 8001f88:	5c8c      	ldrbne	r4, [r1, r2]
 8001f8a:	f88a 421d 	strb.w	r4, [sl, #541]	; 0x21d
 8001f8e:	2105      	movs	r1, #5
 8001f90:	f410 4000 	ands.w	r0, r0, #32768	; 0x8000
 8001f94:	f88a 1000 	strb.w	r1, [sl]
 8001f98:	4ac9      	ldr	r2, [pc, #804]	; (80022c0 <main+0x1664>)
 8001f9a:	f000 8372 	beq.w	8002682 <main+0x1a26>
 8001f9e:	f8d2 05d0 	ldr.w	r0, [r2, #1488]	; 0x5d0
 8001fa2:	0406      	lsls	r6, r0, #16
 8001fa4:	f140 836a 	bpl.w	800267c <main+0x1a20>
 8001fa8:	f8d2 05d4 	ldr.w	r0, [r2, #1492]	; 0x5d4
 8001fac:	0405      	lsls	r5, r0, #16
 8001fae:	f140 8362 	bpl.w	8002676 <main+0x1a1a>
 8001fb2:	f8d2 05d8 	ldr.w	r0, [r2, #1496]	; 0x5d8
 8001fb6:	0400      	lsls	r0, r0, #16
 8001fb8:	f140 8345 	bpl.w	8002646 <main+0x19ea>
 8001fbc:	f8d2 05dc 	ldr.w	r0, [r2, #1500]	; 0x5dc
 8001fc0:	0407      	lsls	r7, r0, #16
 8001fc2:	f140 83ab 	bpl.w	800271c <main+0x1ac0>
 8001fc6:	f8d2 05e0 	ldr.w	r0, [r2, #1504]	; 0x5e0
 8001fca:	0406      	lsls	r6, r0, #16
 8001fcc:	f140 83a4 	bpl.w	8002718 <main+0x1abc>
 8001fd0:	f8d2 15e4 	ldr.w	r1, [r2, #1508]	; 0x5e4
 8001fd4:	040d      	lsls	r5, r1, #16
 8001fd6:	f140 839c 	bpl.w	8002712 <main+0x1ab6>
 8001fda:	f8d2 15e8 	ldr.w	r1, [r2, #1512]	; 0x5e8
 8001fde:	0408      	lsls	r0, r1, #16
 8001fe0:	f140 8394 	bpl.w	800270c <main+0x1ab0>
 8001fe4:	f8d2 15ec 	ldr.w	r1, [r2, #1516]	; 0x5ec
 8001fe8:	0409      	lsls	r1, r1, #16
 8001fea:	f140 8388 	bpl.w	80026fe <main+0x1aa2>
 8001fee:	f8d2 25f0 	ldr.w	r2, [r2, #1520]	; 0x5f0
 8001ff2:	0412      	lsls	r2, r2, #16
 8001ff4:	f140 8380 	bpl.w	80026f8 <main+0x1a9c>
 8001ff8:	f8da 15f4 	ldr.w	r1, [sl, #1524]	; 0x5f4
 8001ffc:	4ab0      	ldr	r2, [pc, #704]	; (80022c0 <main+0x1664>)
 8001ffe:	040f      	lsls	r7, r1, #16
 8002000:	f140 8377 	bpl.w	80026f2 <main+0x1a96>
 8002004:	21ff      	movs	r1, #255	; 0xff
 8002006:	7151      	strb	r1, [r2, #5]
 8002008:	f8da 15d0 	ldr.w	r1, [sl, #1488]	; 0x5d0
 800200c:	4aac      	ldr	r2, [pc, #688]	; (80022c0 <main+0x1664>)
 800200e:	040e      	lsls	r6, r1, #16
 8002010:	f140 836b 	bpl.w	80026ea <main+0x1a8e>
 8002014:	f8d2 15d4 	ldr.w	r1, [r2, #1492]	; 0x5d4
 8002018:	040d      	lsls	r5, r1, #16
 800201a:	f140 8362 	bpl.w	80026e2 <main+0x1a86>
 800201e:	f8d2 15d8 	ldr.w	r1, [r2, #1496]	; 0x5d8
 8002022:	0408      	lsls	r0, r1, #16
 8002024:	f140 8359 	bpl.w	80026da <main+0x1a7e>
 8002028:	f8d2 15dc 	ldr.w	r1, [r2, #1500]	; 0x5dc
 800202c:	0409      	lsls	r1, r1, #16
 800202e:	f140 837c 	bpl.w	800272a <main+0x1ace>
 8002032:	f8d2 15e0 	ldr.w	r1, [r2, #1504]	; 0x5e0
 8002036:	040f      	lsls	r7, r1, #16
 8002038:	f140 8373 	bpl.w	8002722 <main+0x1ac6>
 800203c:	f8d2 15e4 	ldr.w	r1, [r2, #1508]	; 0x5e4
 8002040:	040e      	lsls	r6, r1, #16
 8002042:	f140 8382 	bpl.w	800274a <main+0x1aee>
 8002046:	f8d2 15e8 	ldr.w	r1, [r2, #1512]	; 0x5e8
 800204a:	040d      	lsls	r5, r1, #16
 800204c:	f140 8379 	bpl.w	8002742 <main+0x1ae6>
 8002050:	f8d2 15ec 	ldr.w	r1, [r2, #1516]	; 0x5ec
 8002054:	0408      	lsls	r0, r1, #16
 8002056:	f140 8370 	bpl.w	800273a <main+0x1ade>
 800205a:	f8d2 15f0 	ldr.w	r1, [r2, #1520]	; 0x5f0
 800205e:	0409      	lsls	r1, r1, #16
 8002060:	f140 8367 	bpl.w	8002732 <main+0x1ad6>
 8002064:	f8d2 25f4 	ldr.w	r2, [r2, #1524]	; 0x5f4
 8002068:	0412      	lsls	r2, r2, #16
 800206a:	bf48      	it	mi
 800206c:	f04f 0eff 	movmi.w	lr, #255	; 0xff
 8002070:	f140 8348 	bpl.w	8002704 <main+0x1aa8>
 8002074:	f893 0288 	ldrb.w	r0, [r3, #648]	; 0x288
 8002078:	f88a e004 	strb.w	lr, [sl, #4]
 800207c:	2801      	cmp	r0, #1
 800207e:	f89a 121c 	ldrb.w	r1, [sl, #540]	; 0x21c
 8002082:	f89a 2006 	ldrb.w	r2, [sl, #6]
 8002086:	f43f ae0a 	beq.w	8001c9e <main+0x1042>
 800208a:	eb0e 058e 	add.w	r5, lr, lr, lsl #2
 800208e:	eb03 05c5 	add.w	r5, r3, r5, lsl #3
 8002092:	2701      	movs	r7, #1
 8002094:	f885 1030 	strb.w	r1, [r5, #48]	; 0x30
 8002098:	f885 7033 	strb.w	r7, [r5, #51]	; 0x33
 800209c:	f885 e031 	strb.w	lr, [r5, #49]	; 0x31
 80020a0:	f885 9037 	strb.w	r9, [r5, #55]	; 0x37
 80020a4:	f885 9032 	strb.w	r9, [r5, #50]	; 0x32
 80020a8:	f885 4034 	strb.w	r4, [r5, #52]	; 0x34
 80020ac:	6818      	ldr	r0, [r3, #0]
 80020ae:	872a      	strh	r2, [r5, #56]	; 0x38
 80020b0:	2620      	movs	r6, #32
 80020b2:	f500 65a0 	add.w	r5, r0, #1280	; 0x500
 80020b6:	9501      	str	r5, [sp, #4]
 80020b8:	fb16 550e 	smlabb	r5, r6, lr, r5
 80020bc:	f04f 36ff 	mov.w	r6, #4294967295
 80020c0:	60ae      	str	r6, [r5, #8]
 80020c2:	f240 469d 	movw	r6, #1181	; 0x49d
 80020c6:	60ee      	str	r6, [r5, #12]
 80020c8:	68ee      	ldr	r6, [r5, #12]
 80020ca:	f446 7680 	orr.w	r6, r6, #256	; 0x100
 80020ce:	60ee      	str	r6, [r5, #12]
 80020d0:	f500 6680 	add.w	r6, r0, #1024	; 0x400
 80020d4:	fa07 fc0e 	lsl.w	ip, r7, lr
 80020d8:	f8d6 e018 	ldr.w	lr, [r6, #24]
 80020dc:	ea4c 0e0e 	orr.w	lr, ip, lr
 80020e0:	f8c6 e018 	str.w	lr, [r6, #24]
 80020e4:	0589      	lsls	r1, r1, #22
 80020e6:	f001 51fe 	and.w	r1, r1, #532676608	; 0x1fc00000
 80020ea:	2c02      	cmp	r4, #2
 80020ec:	f442 4200 	orr.w	r2, r2, #32768	; 0x8000
 80020f0:	6984      	ldr	r4, [r0, #24]
 80020f2:	ea42 0201 	orr.w	r2, r2, r1
 80020f6:	bf0c      	ite	eq
 80020f8:	f44f 3100 	moveq.w	r1, #131072	; 0x20000
 80020fc:	2100      	movne	r1, #0
 80020fe:	430a      	orrs	r2, r1
 8002100:	f044 7400 	orr.w	r4, r4, #33554432	; 0x2000000
 8002104:	6184      	str	r4, [r0, #24]
 8002106:	602a      	str	r2, [r5, #0]
 8002108:	f89a 1005 	ldrb.w	r1, [sl, #5]
 800210c:	9d01      	ldr	r5, [sp, #4]
 800210e:	f883 7288 	strb.w	r7, [r3, #648]	; 0x288
 8002112:	eb01 0481 	add.w	r4, r1, r1, lsl #2
 8002116:	eb03 04c4 	add.w	r4, r3, r4, lsl #3
 800211a:	2720      	movs	r7, #32
 800211c:	f89a 221c 	ldrb.w	r2, [sl, #540]	; 0x21c
 8002120:	f89a e21d 	ldrb.w	lr, [sl, #541]	; 0x21d
 8002124:	f89a c006 	ldrb.w	ip, [sl, #6]
 8002128:	f884 2030 	strb.w	r2, [r4, #48]	; 0x30
 800212c:	fb17 5501 	smlabb	r5, r7, r1, r5
 8002130:	f8a4 c038 	strh.w	ip, [r4, #56]	; 0x38
 8002134:	f884 e034 	strb.w	lr, [r4, #52]	; 0x34
 8002138:	f884 1031 	strb.w	r1, [r4, #49]	; 0x31
 800213c:	f884 9037 	strb.w	r9, [r4, #55]	; 0x37
 8002140:	f884 9032 	strb.w	r9, [r4, #50]	; 0x32
 8002144:	f884 9033 	strb.w	r9, [r4, #51]	; 0x33
 8002148:	f04f 34ff 	mov.w	r4, #4294967295
 800214c:	60ac      	str	r4, [r5, #8]
 800214e:	f1b0 4fa0 	cmp.w	r0, #1342177280	; 0x50000000
 8002152:	f240 449d 	movw	r4, #1181	; 0x49d
 8002156:	60ec      	str	r4, [r5, #12]
 8002158:	d003      	beq.n	8002162 <main+0x1506>
 800215a:	68ec      	ldr	r4, [r5, #12]
 800215c:	f044 0460 	orr.w	r4, r4, #96	; 0x60
 8002160:	60ec      	str	r4, [r5, #12]
 8002162:	2401      	movs	r4, #1
 8002164:	408c      	lsls	r4, r1
 8002166:	69b1      	ldr	r1, [r6, #24]
 8002168:	4321      	orrs	r1, r4
 800216a:	61b1      	str	r1, [r6, #24]
 800216c:	0592      	lsls	r2, r2, #22
 800216e:	6984      	ldr	r4, [r0, #24]
 8002170:	f1be 0f02 	cmp.w	lr, #2
 8002174:	f002 52fe 	and.w	r2, r2, #532676608	; 0x1fc00000
 8002178:	bf0c      	ite	eq
 800217a:	f44f 3100 	moveq.w	r1, #131072	; 0x20000
 800217e:	2100      	movne	r1, #0
 8002180:	ea42 020c 	orr.w	r2, r2, ip
 8002184:	430a      	orrs	r2, r1
 8002186:	f044 7100 	orr.w	r1, r4, #33554432	; 0x2000000
 800218a:	6181      	str	r1, [r0, #24]
 800218c:	602a      	str	r2, [r5, #0]
 800218e:	f883 9288 	strb.w	r9, [r3, #648]	; 0x288
 8002192:	e584      	b.n	8001c9e <main+0x1042>
 8002194:	f89a 321e 	ldrb.w	r3, [sl, #542]	; 0x21e
 8002198:	4a49      	ldr	r2, [pc, #292]	; (80022c0 <main+0x1664>)
 800219a:	2b00      	cmp	r3, #0
 800219c:	f43f ad7f 	beq.w	8001c9e <main+0x1042>
 80021a0:	2301      	movs	r3, #1
 80021a2:	7013      	strb	r3, [r2, #0]
 80021a4:	f8db 2000 	ldr.w	r2, [fp]
 80021a8:	f8db 3000 	ldr.w	r3, [fp]
 80021ac:	1a9b      	subs	r3, r3, r2
 80021ae:	2bc8      	cmp	r3, #200	; 0xc8
 80021b0:	d3fa      	bcc.n	80021a8 <main+0x154c>
 80021b2:	f8da 3610 	ldr.w	r3, [sl, #1552]	; 0x610
 80021b6:	6819      	ldr	r1, [r3, #0]
 80021b8:	f8d1 3440 	ldr.w	r3, [r1, #1088]	; 0x440
 80021bc:	9306      	str	r3, [sp, #24]
 80021be:	9b06      	ldr	r3, [sp, #24]
 80021c0:	f023 032e 	bic.w	r3, r3, #46	; 0x2e
 80021c4:	9306      	str	r3, [sp, #24]
 80021c6:	9b06      	ldr	r3, [sp, #24]
 80021c8:	f443 7380 	orr.w	r3, r3, #256	; 0x100
 80021cc:	f8c1 3440 	str.w	r3, [r1, #1088]	; 0x440
 80021d0:	4b3c      	ldr	r3, [pc, #240]	; (80022c4 <main+0x1668>)
 80021d2:	681a      	ldr	r2, [r3, #0]
 80021d4:	f8db 3000 	ldr.w	r3, [fp]
 80021d8:	1a9b      	subs	r3, r3, r2
 80021da:	2b0a      	cmp	r3, #10
 80021dc:	d3fa      	bcc.n	80021d4 <main+0x1578>
 80021de:	9b06      	ldr	r3, [sp, #24]
 80021e0:	f423 7380 	bic.w	r3, r3, #256	; 0x100
 80021e4:	f8c1 3440 	str.w	r3, [r1, #1088]	; 0x440
 80021e8:	e559      	b.n	8001c9e <main+0x1042>
 80021ea:	f8da 35c4 	ldr.w	r3, [sl, #1476]	; 0x5c4
 80021ee:	2b00      	cmp	r3, #0
 80021f0:	f43f ad55 	beq.w	8001c9e <main+0x1042>
 80021f4:	695b      	ldr	r3, [r3, #20]
 80021f6:	4832      	ldr	r0, [pc, #200]	; (80022c0 <main+0x1664>)
 80021f8:	4798      	blx	r3
 80021fa:	e550      	b.n	8001c9e <main+0x1042>
 80021fc:	f89a 0230 	ldrb.w	r0, [sl, #560]	; 0x230
 8002200:	2800      	cmp	r0, #0
 8002202:	f040 8241 	bne.w	8002688 <main+0x1a2c>
 8002206:	f89a 3231 	ldrb.w	r3, [sl, #561]	; 0x231
 800220a:	f88a 921f 	strb.w	r9, [sl, #543]	; 0x21f
 800220e:	2b01      	cmp	r3, #1
 8002210:	4a2b      	ldr	r2, [pc, #172]	; (80022c0 <main+0x1664>)
 8002212:	f000 8203 	beq.w	800261c <main+0x19c0>
 8002216:	2307      	movs	r3, #7
 8002218:	7013      	strb	r3, [r2, #0]
 800221a:	e540      	b.n	8001c9e <main+0x1042>
 800221c:	f89a 022f 	ldrb.w	r0, [sl, #559]	; 0x22f
 8002220:	2800      	cmp	r0, #0
 8002222:	f040 8240 	bne.w	80026a6 <main+0x1a4a>
 8002226:	2307      	movs	r3, #7
 8002228:	f88a 3001 	strb.w	r3, [sl, #1]
 800222c:	e537      	b.n	8001c9e <main+0x1042>
 800222e:	f89a 022e 	ldrb.w	r0, [sl, #558]	; 0x22e
 8002232:	2800      	cmp	r0, #0
 8002234:	f040 8230 	bne.w	8002698 <main+0x1a3c>
 8002238:	2306      	movs	r3, #6
 800223a:	f88a 3001 	strb.w	r3, [sl, #1]
 800223e:	e52e      	b.n	8001c9e <main+0x1042>
 8002240:	f89a 2002 	ldrb.w	r2, [sl, #2]
 8002244:	4b1e      	ldr	r3, [pc, #120]	; (80022c0 <main+0x1664>)
 8002246:	2a01      	cmp	r2, #1
 8002248:	d10a      	bne.n	8002260 <main+0x1604>
 800224a:	2280      	movs	r2, #128	; 0x80
 800224c:	2006      	movs	r0, #6
 800224e:	f44f 7100 	mov.w	r1, #512	; 0x200
 8002252:	741a      	strb	r2, [r3, #16]
 8002254:	2209      	movs	r2, #9
 8002256:	f8a3 9014 	strh.w	r9, [r3, #20]
 800225a:	7458      	strb	r0, [r3, #17]
 800225c:	8259      	strh	r1, [r3, #18]
 800225e:	82da      	strh	r2, [r3, #22]
 8002260:	4c17      	ldr	r4, [pc, #92]	; (80022c0 <main+0x1664>)
 8002262:	2209      	movs	r2, #9
 8002264:	4620      	mov	r0, r4
 8002266:	f104 011c 	add.w	r1, r4, #28
 800226a:	f009 fbff 	bl	800ba6c <USBH_CtlReq>
 800226e:	2800      	cmp	r0, #0
 8002270:	f47f ad15 	bne.w	8001c9e <main+0x1042>
 8002274:	7fe2      	ldrb	r2, [r4, #31]
 8002276:	7fa3      	ldrb	r3, [r4, #30]
 8002278:	7f21      	ldrb	r1, [r4, #28]
 800227a:	f884 1232 	strb.w	r1, [r4, #562]	; 0x232
 800227e:	eb03 2302 	add.w	r3, r3, r2, lsl #8
 8002282:	f894 1020 	ldrb.w	r1, [r4, #32]
 8002286:	f894 2021 	ldrb.w	r2, [r4, #33]	; 0x21
 800228a:	f8a4 3234 	strh.w	r3, [r4, #564]	; 0x234
 800228e:	f894 3022 	ldrb.w	r3, [r4, #34]	; 0x22
 8002292:	7f60      	ldrb	r0, [r4, #29]
 8002294:	f884 1236 	strb.w	r1, [r4, #566]	; 0x236
 8002298:	f884 2237 	strb.w	r2, [r4, #567]	; 0x237
 800229c:	f894 1023 	ldrb.w	r1, [r4, #35]	; 0x23
 80022a0:	f894 2024 	ldrb.w	r2, [r4, #36]	; 0x24
 80022a4:	f884 3238 	strb.w	r3, [r4, #568]	; 0x238
 80022a8:	2304      	movs	r3, #4
 80022aa:	f884 0233 	strb.w	r0, [r4, #563]	; 0x233
 80022ae:	f884 1239 	strb.w	r1, [r4, #569]	; 0x239
 80022b2:	f884 223a 	strb.w	r2, [r4, #570]	; 0x23a
 80022b6:	7063      	strb	r3, [r4, #1]
 80022b8:	e4f1      	b.n	8001c9e <main+0x1042>
 80022ba:	bf00      	nop
 80022bc:	080104fc 	.word	0x080104fc
 80022c0:	2001f118 	.word	0x2001f118
 80022c4:	2001f734 	.word	0x2001f734
 80022c8:	f89a 1002 	ldrb.w	r1, [sl, #2]
 80022cc:	4bd1      	ldr	r3, [pc, #836]	; (8002614 <main+0x19b8>)
 80022ce:	f8ba 2234 	ldrh.w	r2, [sl, #564]	; 0x234
 80022d2:	2901      	cmp	r1, #1
 80022d4:	f000 81ee 	beq.w	80026b4 <main+0x1a58>
 80022d8:	2902      	cmp	r1, #2
 80022da:	f47f ace0 	bne.w	8001c9e <main+0x1042>
 80022de:	7e1b      	ldrb	r3, [r3, #24]
 80022e0:	3b01      	subs	r3, #1
 80022e2:	2b0a      	cmp	r3, #10
 80022e4:	f63f acdb 	bhi.w	8001c9e <main+0x1042>
 80022e8:	e8df f013 	tbh	[pc, r3, lsl #1]
 80022ec:	02890233 	.word	0x02890233
 80022f0:	0449025c 	.word	0x0449025c
 80022f4:	03000403 	.word	0x03000403
 80022f8:	036202d3 	.word	0x036202d3
 80022fc:	032e046d 	.word	0x032e046d
 8002300:	031d      	.short	0x031d
 8002302:	2012      	movs	r0, #18
 8002304:	f008 ff50 	bl	800b1a8 <USBH_Get_DevDesc.constprop.114>
 8002308:	2800      	cmp	r0, #0
 800230a:	f47f acc8 	bne.w	8001c9e <main+0x1042>
 800230e:	2302      	movs	r3, #2
 8002310:	f88a 3001 	strb.w	r3, [sl, #1]
 8002314:	e4c3      	b.n	8001c9e <main+0x1042>
 8002316:	2008      	movs	r0, #8
 8002318:	f008 ff46 	bl	800b1a8 <USBH_Get_DevDesc.constprop.114>
 800231c:	2800      	cmp	r0, #0
 800231e:	f47f acbe 	bne.w	8001c9e <main+0x1042>
 8002322:	f8da 1610 	ldr.w	r1, [sl, #1552]	; 0x610
 8002326:	f89a 2227 	ldrb.w	r2, [sl, #551]	; 0x227
 800232a:	f891 3288 	ldrb.w	r3, [r1, #648]	; 0x288
 800232e:	f88a 2006 	strb.w	r2, [sl, #6]
 8002332:	2601      	movs	r6, #1
 8002334:	42b3      	cmp	r3, r6
 8002336:	f88a 6001 	strb.w	r6, [sl, #1]
 800233a:	f89a 7004 	ldrb.w	r7, [sl, #4]
 800233e:	f89a 421c 	ldrb.w	r4, [sl, #540]	; 0x21c
 8002342:	f89a e21d 	ldrb.w	lr, [sl, #541]	; 0x21d
 8002346:	f43f acaa 	beq.w	8001c9e <main+0x1042>
 800234a:	eb07 0587 	add.w	r5, r7, r7, lsl #2
 800234e:	eb01 05c5 	add.w	r5, r1, r5, lsl #3
 8002352:	fa06 fc07 	lsl.w	ip, r6, r7
 8002356:	f885 4030 	strb.w	r4, [r5, #48]	; 0x30
 800235a:	f885 7031 	strb.w	r7, [r5, #49]	; 0x31
 800235e:	f885 0037 	strb.w	r0, [r5, #55]	; 0x37
 8002362:	f885 0032 	strb.w	r0, [r5, #50]	; 0x32
 8002366:	f885 6033 	strb.w	r6, [r5, #51]	; 0x33
 800236a:	f885 e034 	strb.w	lr, [r5, #52]	; 0x34
 800236e:	680b      	ldr	r3, [r1, #0]
 8002370:	872a      	strh	r2, [r5, #56]	; 0x38
 8002372:	f503 60a0 	add.w	r0, r3, #1280	; 0x500
 8002376:	2520      	movs	r5, #32
 8002378:	9001      	str	r0, [sp, #4]
 800237a:	fb15 0007 	smlabb	r0, r5, r7, r0
 800237e:	f04f 35ff 	mov.w	r5, #4294967295
 8002382:	6085      	str	r5, [r0, #8]
 8002384:	f240 459d 	movw	r5, #1181	; 0x49d
 8002388:	60c5      	str	r5, [r0, #12]
 800238a:	68c5      	ldr	r5, [r0, #12]
 800238c:	f445 7580 	orr.w	r5, r5, #256	; 0x100
 8002390:	60c5      	str	r5, [r0, #12]
 8002392:	f503 6580 	add.w	r5, r3, #1024	; 0x400
 8002396:	69af      	ldr	r7, [r5, #24]
 8002398:	ea4c 0707 	orr.w	r7, ip, r7
 800239c:	61af      	str	r7, [r5, #24]
 800239e:	05a4      	lsls	r4, r4, #22
 80023a0:	699f      	ldr	r7, [r3, #24]
 80023a2:	f004 54fe 	and.w	r4, r4, #532676608	; 0x1fc00000
 80023a6:	f1be 0f02 	cmp.w	lr, #2
 80023aa:	f442 4200 	orr.w	r2, r2, #32768	; 0x8000
 80023ae:	ea42 0204 	orr.w	r2, r2, r4
 80023b2:	bf0c      	ite	eq
 80023b4:	f44f 3400 	moveq.w	r4, #131072	; 0x20000
 80023b8:	2400      	movne	r4, #0
 80023ba:	4322      	orrs	r2, r4
 80023bc:	f047 7700 	orr.w	r7, r7, #33554432	; 0x2000000
 80023c0:	619f      	str	r7, [r3, #24]
 80023c2:	6002      	str	r2, [r0, #0]
 80023c4:	f89a 0005 	ldrb.w	r0, [sl, #5]
 80023c8:	f881 6288 	strb.w	r6, [r1, #648]	; 0x288
 80023cc:	eb00 0480 	add.w	r4, r0, r0, lsl #2
 80023d0:	9e01      	ldr	r6, [sp, #4]
 80023d2:	f89a 221c 	ldrb.w	r2, [sl, #540]	; 0x21c
 80023d6:	f89a e21d 	ldrb.w	lr, [sl, #541]	; 0x21d
 80023da:	f89a c006 	ldrb.w	ip, [sl, #6]
 80023de:	eb01 04c4 	add.w	r4, r1, r4, lsl #3
 80023e2:	2720      	movs	r7, #32
 80023e4:	fb17 6600 	smlabb	r6, r7, r0, r6
 80023e8:	f884 2030 	strb.w	r2, [r4, #48]	; 0x30
 80023ec:	f8a4 c038 	strh.w	ip, [r4, #56]	; 0x38
 80023f0:	f884 e034 	strb.w	lr, [r4, #52]	; 0x34
 80023f4:	f884 0031 	strb.w	r0, [r4, #49]	; 0x31
 80023f8:	f884 9037 	strb.w	r9, [r4, #55]	; 0x37
 80023fc:	f884 9032 	strb.w	r9, [r4, #50]	; 0x32
 8002400:	f884 9033 	strb.w	r9, [r4, #51]	; 0x33
 8002404:	f04f 34ff 	mov.w	r4, #4294967295
 8002408:	60b4      	str	r4, [r6, #8]
 800240a:	f1b3 4fa0 	cmp.w	r3, #1342177280	; 0x50000000
 800240e:	f240 449d 	movw	r4, #1181	; 0x49d
 8002412:	60f4      	str	r4, [r6, #12]
 8002414:	d003      	beq.n	800241e <main+0x17c2>
 8002416:	68f4      	ldr	r4, [r6, #12]
 8002418:	f044 0460 	orr.w	r4, r4, #96	; 0x60
 800241c:	60f4      	str	r4, [r6, #12]
 800241e:	2401      	movs	r4, #1
 8002420:	4084      	lsls	r4, r0
 8002422:	69a8      	ldr	r0, [r5, #24]
 8002424:	4320      	orrs	r0, r4
 8002426:	61a8      	str	r0, [r5, #24]
 8002428:	0592      	lsls	r2, r2, #22
 800242a:	699c      	ldr	r4, [r3, #24]
 800242c:	f1be 0f02 	cmp.w	lr, #2
 8002430:	f002 52fe 	and.w	r2, r2, #532676608	; 0x1fc00000
 8002434:	bf0c      	ite	eq
 8002436:	f44f 3000 	moveq.w	r0, #131072	; 0x20000
 800243a:	2000      	movne	r0, #0
 800243c:	ea42 020c 	orr.w	r2, r2, ip
 8002440:	4302      	orrs	r2, r0
 8002442:	f044 7000 	orr.w	r0, r4, #33554432	; 0x2000000
 8002446:	6198      	str	r0, [r3, #24]
 8002448:	6032      	str	r2, [r6, #0]
 800244a:	f881 9288 	strb.w	r9, [r1, #648]	; 0x288
 800244e:	e426      	b.n	8001c9e <main+0x1042>
 8002450:	f89a 2002 	ldrb.w	r2, [sl, #2]
 8002454:	4b6f      	ldr	r3, [pc, #444]	; (8002614 <main+0x19b8>)
 8002456:	2a01      	cmp	r2, #1
 8002458:	d108      	bne.n	800246c <main+0x1810>
 800245a:	2105      	movs	r1, #5
 800245c:	f883 9010 	strb.w	r9, [r3, #16]
 8002460:	825a      	strh	r2, [r3, #18]
 8002462:	f8a3 9014 	strh.w	r9, [r3, #20]
 8002466:	f8a3 9016 	strh.w	r9, [r3, #22]
 800246a:	7459      	strb	r1, [r3, #17]
 800246c:	2100      	movs	r1, #0
 800246e:	460a      	mov	r2, r1
 8002470:	4868      	ldr	r0, [pc, #416]	; (8002614 <main+0x19b8>)
 8002472:	f009 fafb 	bl	800ba6c <USBH_CtlReq>
 8002476:	2800      	cmp	r0, #0
 8002478:	f47f ac11 	bne.w	8001c9e <main+0x1042>
 800247c:	f8db 2000 	ldr.w	r2, [fp]
 8002480:	f8db 3000 	ldr.w	r3, [fp]
 8002484:	1a9b      	subs	r3, r3, r2
 8002486:	2b02      	cmp	r3, #2
 8002488:	d3fa      	bcc.n	8002480 <main+0x1824>
 800248a:	f8da 1610 	ldr.w	r1, [sl, #1552]	; 0x610
 800248e:	f89a 5004 	ldrb.w	r5, [sl, #4]
 8002492:	f891 3288 	ldrb.w	r3, [r1, #648]	; 0x288
 8002496:	f89a c21d 	ldrb.w	ip, [sl, #541]	; 0x21d
 800249a:	f89a 7006 	ldrb.w	r7, [sl, #6]
 800249e:	2001      	movs	r0, #1
 80024a0:	2203      	movs	r2, #3
 80024a2:	4283      	cmp	r3, r0
 80024a4:	f88a 021c 	strb.w	r0, [sl, #540]	; 0x21c
 80024a8:	f88a 2001 	strb.w	r2, [sl, #1]
 80024ac:	f43f abf7 	beq.w	8001c9e <main+0x1042>
 80024b0:	eb05 0285 	add.w	r2, r5, r5, lsl #2
 80024b4:	eb01 02c2 	add.w	r2, r1, r2, lsl #3
 80024b8:	2320      	movs	r3, #32
 80024ba:	f882 0030 	strb.w	r0, [r2, #48]	; 0x30
 80024be:	f882 5031 	strb.w	r5, [r2, #49]	; 0x31
 80024c2:	f882 0033 	strb.w	r0, [r2, #51]	; 0x33
 80024c6:	f882 c034 	strb.w	ip, [r2, #52]	; 0x34
 80024ca:	f882 9037 	strb.w	r9, [r2, #55]	; 0x37
 80024ce:	f882 9032 	strb.w	r9, [r2, #50]	; 0x32
 80024d2:	8717      	strh	r7, [r2, #56]	; 0x38
 80024d4:	680a      	ldr	r2, [r1, #0]
 80024d6:	f502 64a0 	add.w	r4, r2, #1280	; 0x500
 80024da:	9401      	str	r4, [sp, #4]
 80024dc:	fb13 4405 	smlabb	r4, r3, r5, r4
 80024e0:	f04f 36ff 	mov.w	r6, #4294967295
 80024e4:	60a6      	str	r6, [r4, #8]
 80024e6:	f240 469d 	movw	r6, #1181	; 0x49d
 80024ea:	60e6      	str	r6, [r4, #12]
 80024ec:	68e6      	ldr	r6, [r4, #12]
 80024ee:	f446 7e80 	orr.w	lr, r6, #256	; 0x100
 80024f2:	f502 6680 	add.w	r6, r2, #1024	; 0x400
 80024f6:	f8c4 e00c 	str.w	lr, [r4, #12]
 80024fa:	f8d6 e018 	ldr.w	lr, [r6, #24]
 80024fe:	fa00 f505 	lsl.w	r5, r0, r5
 8002502:	ea45 050e 	orr.w	r5, r5, lr
 8002506:	61b5      	str	r5, [r6, #24]
 8002508:	6995      	ldr	r5, [r2, #24]
 800250a:	f1bc 0f02 	cmp.w	ip, #2
 800250e:	bf0c      	ite	eq
 8002510:	f44f 3e00 	moveq.w	lr, #131072	; 0x20000
 8002514:	f04f 0e00 	movne.w	lr, #0
 8002518:	f447 0781 	orr.w	r7, r7, #4227072	; 0x408000
 800251c:	ea47 070e 	orr.w	r7, r7, lr
 8002520:	f045 7500 	orr.w	r5, r5, #33554432	; 0x2000000
 8002524:	6195      	str	r5, [r2, #24]
 8002526:	6027      	str	r7, [r4, #0]
 8002528:	f89a 5005 	ldrb.w	r5, [sl, #5]
 800252c:	f881 0288 	strb.w	r0, [r1, #648]	; 0x288
 8002530:	9f01      	ldr	r7, [sp, #4]
 8002532:	f89a 421c 	ldrb.w	r4, [sl, #540]	; 0x21c
 8002536:	f89a e21d 	ldrb.w	lr, [sl, #541]	; 0x21d
 800253a:	f89a c006 	ldrb.w	ip, [sl, #6]
 800253e:	eb05 0085 	add.w	r0, r5, r5, lsl #2
 8002542:	eb01 00c0 	add.w	r0, r1, r0, lsl #3
 8002546:	fb13 7305 	smlabb	r3, r3, r5, r7
 800254a:	f880 4030 	strb.w	r4, [r0, #48]	; 0x30
 800254e:	f8a0 c038 	strh.w	ip, [r0, #56]	; 0x38
 8002552:	f880 e034 	strb.w	lr, [r0, #52]	; 0x34
 8002556:	f880 5031 	strb.w	r5, [r0, #49]	; 0x31
 800255a:	f880 9037 	strb.w	r9, [r0, #55]	; 0x37
 800255e:	f880 9032 	strb.w	r9, [r0, #50]	; 0x32
 8002562:	f880 9033 	strb.w	r9, [r0, #51]	; 0x33
 8002566:	f04f 30ff 	mov.w	r0, #4294967295
 800256a:	6098      	str	r0, [r3, #8]
 800256c:	f1b2 4fa0 	cmp.w	r2, #1342177280	; 0x50000000
 8002570:	f240 409d 	movw	r0, #1181	; 0x49d
 8002574:	60d8      	str	r0, [r3, #12]
 8002576:	d003      	beq.n	8002580 <main+0x1924>
 8002578:	68d8      	ldr	r0, [r3, #12]
 800257a:	f040 0060 	orr.w	r0, r0, #96	; 0x60
 800257e:	60d8      	str	r0, [r3, #12]
 8002580:	2001      	movs	r0, #1
 8002582:	fa00 f505 	lsl.w	r5, r0, r5
 8002586:	69b0      	ldr	r0, [r6, #24]
 8002588:	4305      	orrs	r5, r0
 800258a:	61b5      	str	r5, [r6, #24]
 800258c:	05a0      	lsls	r0, r4, #22
 800258e:	6995      	ldr	r5, [r2, #24]
 8002590:	f1be 0f02 	cmp.w	lr, #2
 8002594:	f000 50fe 	and.w	r0, r0, #532676608	; 0x1fc00000
 8002598:	bf0c      	ite	eq
 800259a:	f44f 3400 	moveq.w	r4, #131072	; 0x20000
 800259e:	2400      	movne	r4, #0
 80025a0:	ea40 000c 	orr.w	r0, r0, ip
 80025a4:	4320      	orrs	r0, r4
 80025a6:	f045 7400 	orr.w	r4, r5, #33554432	; 0x2000000
 80025aa:	6194      	str	r4, [r2, #24]
 80025ac:	6018      	str	r0, [r3, #0]
 80025ae:	f881 9288 	strb.w	r9, [r1, #648]	; 0x288
 80025b2:	f7ff bb74 	b.w	8001c9e <main+0x1042>
 80025b6:	f89a 3000 	ldrb.w	r3, [sl]
 80025ba:	f8da 25c4 	ldr.w	r2, [sl, #1476]	; 0x5c4
 80025be:	4916      	ldr	r1, [pc, #88]	; (8002618 <main+0x19bc>)
 80025c0:	69d4      	ldr	r4, [r2, #28]
 80025c2:	f881 9000 	strb.w	r9, [r1]
 80025c6:	2b0a      	cmp	r3, #10
 80025c8:	4d12      	ldr	r5, [pc, #72]	; (8002614 <main+0x19b8>)
 80025ca:	f47f ab70 	bne.w	8001cae <main+0x1052>
 80025ce:	f8d5 6610 	ldr.w	r6, [r5, #1552]	; 0x610
 80025d2:	7861      	ldrb	r1, [r4, #1]
 80025d4:	f896 3288 	ldrb.w	r3, [r6, #648]	; 0x288
 80025d8:	f884 9000 	strb.w	r9, [r4]
 80025dc:	2b01      	cmp	r3, #1
 80025de:	f43f ab66 	beq.w	8001cae <main+0x1052>
 80025e2:	2701      	movs	r7, #1
 80025e4:	f886 7288 	strb.w	r7, [r6, #648]	; 0x288
 80025e8:	6830      	ldr	r0, [r6, #0]
 80025ea:	f009 fda1 	bl	800c130 <USB_HC_Halt>
 80025ee:	f8d5 5610 	ldr.w	r5, [r5, #1552]	; 0x610
 80025f2:	f886 9288 	strb.w	r9, [r6, #648]	; 0x288
 80025f6:	f895 3288 	ldrb.w	r3, [r5, #648]	; 0x288
 80025fa:	78a1      	ldrb	r1, [r4, #2]
 80025fc:	42bb      	cmp	r3, r7
 80025fe:	f43f ab56 	beq.w	8001cae <main+0x1052>
 8002602:	f885 7288 	strb.w	r7, [r5, #648]	; 0x288
 8002606:	6828      	ldr	r0, [r5, #0]
 8002608:	f009 fd92 	bl	800c130 <USB_HC_Halt>
 800260c:	f885 9288 	strb.w	r9, [r5, #648]	; 0x288
 8002610:	f7ff bb4d 	b.w	8001cae <main+0x1052>
 8002614:	2001f118 	.word	0x2001f118
 8002618:	2001f770 	.word	0x2001f770
 800261c:	2308      	movs	r3, #8
 800261e:	7013      	strb	r3, [r2, #0]
 8002620:	f7ff bb3d 	b.w	8001c9e <main+0x1042>
 8002624:	f8c4 35c4 	str.w	r3, [r4, #1476]	; 0x5c4
 8002628:	4620      	mov	r0, r4
 800262a:	689b      	ldr	r3, [r3, #8]
 800262c:	4798      	blx	r3
 800262e:	2800      	cmp	r0, #0
 8002630:	f47f abe8 	bne.w	8001e04 <main+0x11a8>
 8002634:	2306      	movs	r3, #6
 8002636:	7023      	strb	r3, [r4, #0]
 8002638:	4620      	mov	r0, r4
 800263a:	f8d4 3614 	ldr.w	r3, [r4, #1556]	; 0x614
 800263e:	2103      	movs	r1, #3
 8002640:	4798      	blx	r3
 8002642:	f7ff bb2c 	b.w	8001c9e <main+0x1042>
 8002646:	2203      	movs	r2, #3
 8002648:	4611      	mov	r1, r2
 800264a:	eb0a 0181 	add.w	r1, sl, r1, lsl #2
 800264e:	f44f 4000 	mov.w	r0, #32768	; 0x8000
 8002652:	f8c1 05cc 	str.w	r0, [r1, #1484]	; 0x5cc
 8002656:	f8da 15cc 	ldr.w	r1, [sl, #1484]	; 0x5cc
 800265a:	f88a 2005 	strb.w	r2, [sl, #5]
 800265e:	4001      	ands	r1, r0
 8002660:	f47f acd2 	bne.w	8002008 <main+0x13ac>
 8002664:	468e      	mov	lr, r1
 8002666:	460a      	mov	r2, r1
 8002668:	eb0a 0282 	add.w	r2, sl, r2, lsl #2
 800266c:	f248 0180 	movw	r1, #32896	; 0x8080
 8002670:	f8c2 15cc 	str.w	r1, [r2, #1484]	; 0x5cc
 8002674:	e4fe      	b.n	8002074 <main+0x1418>
 8002676:	2202      	movs	r2, #2
 8002678:	4611      	mov	r1, r2
 800267a:	e7e6      	b.n	800264a <main+0x19ee>
 800267c:	2201      	movs	r2, #1
 800267e:	4611      	mov	r1, r2
 8002680:	e7e3      	b.n	800264a <main+0x19ee>
 8002682:	4602      	mov	r2, r0
 8002684:	4601      	mov	r1, r0
 8002686:	e7e0      	b.n	800264a <main+0x19ee>
 8002688:	49c4      	ldr	r1, [pc, #784]	; (800299c <main+0x1d40>)
 800268a:	f008 ffd3 	bl	800b634 <USBH_Get_StringDesc.constprop.120>
 800268e:	2800      	cmp	r0, #0
 8002690:	f43f adb9 	beq.w	8002206 <main+0x15aa>
 8002694:	f7ff bb03 	b.w	8001c9e <main+0x1042>
 8002698:	49c0      	ldr	r1, [pc, #768]	; (800299c <main+0x1d40>)
 800269a:	f008 ffcb 	bl	800b634 <USBH_Get_StringDesc.constprop.120>
 800269e:	2800      	cmp	r0, #0
 80026a0:	f47f aafd 	bne.w	8001c9e <main+0x1042>
 80026a4:	e5c8      	b.n	8002238 <main+0x15dc>
 80026a6:	49bd      	ldr	r1, [pc, #756]	; (800299c <main+0x1d40>)
 80026a8:	f008 ffc4 	bl	800b634 <USBH_Get_StringDesc.constprop.120>
 80026ac:	2800      	cmp	r0, #0
 80026ae:	f47f aaf6 	bne.w	8001c9e <main+0x1042>
 80026b2:	e5b8      	b.n	8002226 <main+0x15ca>
 80026b4:	f103 001c 	add.w	r0, r3, #28
 80026b8:	2480      	movs	r4, #128	; 0x80
 80026ba:	82da      	strh	r2, [r3, #22]
 80026bc:	6098      	str	r0, [r3, #8]
 80026be:	819a      	strh	r2, [r3, #12]
 80026c0:	2006      	movs	r0, #6
 80026c2:	7619      	strb	r1, [r3, #24]
 80026c4:	2202      	movs	r2, #2
 80026c6:	f44f 7100 	mov.w	r1, #512	; 0x200
 80026ca:	f8a3 9014 	strh.w	r9, [r3, #20]
 80026ce:	741c      	strb	r4, [r3, #16]
 80026d0:	7458      	strb	r0, [r3, #17]
 80026d2:	8259      	strh	r1, [r3, #18]
 80026d4:	709a      	strb	r2, [r3, #2]
 80026d6:	f7ff bae2 	b.w	8001c9e <main+0x1042>
 80026da:	f04f 0e03 	mov.w	lr, #3
 80026de:	4672      	mov	r2, lr
 80026e0:	e7c2      	b.n	8002668 <main+0x1a0c>
 80026e2:	f04f 0e02 	mov.w	lr, #2
 80026e6:	4672      	mov	r2, lr
 80026e8:	e7be      	b.n	8002668 <main+0x1a0c>
 80026ea:	f04f 0e01 	mov.w	lr, #1
 80026ee:	4672      	mov	r2, lr
 80026f0:	e7ba      	b.n	8002668 <main+0x1a0c>
 80026f2:	220a      	movs	r2, #10
 80026f4:	4611      	mov	r1, r2
 80026f6:	e7a8      	b.n	800264a <main+0x19ee>
 80026f8:	2209      	movs	r2, #9
 80026fa:	4611      	mov	r1, r2
 80026fc:	e7a5      	b.n	800264a <main+0x19ee>
 80026fe:	2208      	movs	r2, #8
 8002700:	4611      	mov	r1, r2
 8002702:	e7a2      	b.n	800264a <main+0x19ee>
 8002704:	f04f 0e0a 	mov.w	lr, #10
 8002708:	4672      	mov	r2, lr
 800270a:	e7ad      	b.n	8002668 <main+0x1a0c>
 800270c:	2207      	movs	r2, #7
 800270e:	4611      	mov	r1, r2
 8002710:	e79b      	b.n	800264a <main+0x19ee>
 8002712:	2206      	movs	r2, #6
 8002714:	4611      	mov	r1, r2
 8002716:	e798      	b.n	800264a <main+0x19ee>
 8002718:	460a      	mov	r2, r1
 800271a:	e796      	b.n	800264a <main+0x19ee>
 800271c:	2204      	movs	r2, #4
 800271e:	4611      	mov	r1, r2
 8002720:	e793      	b.n	800264a <main+0x19ee>
 8002722:	f04f 0e05 	mov.w	lr, #5
 8002726:	4672      	mov	r2, lr
 8002728:	e79e      	b.n	8002668 <main+0x1a0c>
 800272a:	f04f 0e04 	mov.w	lr, #4
 800272e:	4672      	mov	r2, lr
 8002730:	e79a      	b.n	8002668 <main+0x1a0c>
 8002732:	f04f 0e09 	mov.w	lr, #9
 8002736:	4672      	mov	r2, lr
 8002738:	e796      	b.n	8002668 <main+0x1a0c>
 800273a:	f04f 0e08 	mov.w	lr, #8
 800273e:	4672      	mov	r2, lr
 8002740:	e792      	b.n	8002668 <main+0x1a0c>
 8002742:	f04f 0e07 	mov.w	lr, #7
 8002746:	4672      	mov	r2, lr
 8002748:	e78e      	b.n	8002668 <main+0x1a0c>
 800274a:	f04f 0e06 	mov.w	lr, #6
 800274e:	4672      	mov	r2, lr
 8002750:	e78a      	b.n	8002668 <main+0x1a0c>
 8002752:	f89a 0005 	ldrb.w	r0, [sl, #5]
 8002756:	f8da 4610 	ldr.w	r4, [sl, #1552]	; 0x610
 800275a:	eb00 0380 	add.w	r3, r0, r0, lsl #2
 800275e:	00db      	lsls	r3, r3, #3
 8002760:	18e2      	adds	r2, r4, r3
 8002762:	f04f 0e03 	mov.w	lr, #3
 8002766:	f103 0c30 	add.w	ip, r3, #48	; 0x30
 800276a:	f882 9033 	strb.w	r9, [r2, #51]	; 0x33
 800276e:	f882 9037 	strb.w	r9, [r2, #55]	; 0x37
 8002772:	4b8b      	ldr	r3, [pc, #556]	; (80029a0 <main+0x1d44>)
 8002774:	f882 e03a 	strb.w	lr, [r2, #58]	; 0x3a
 8002778:	f882 0031 	strb.w	r0, [r2, #49]	; 0x31
 800277c:	2608      	movs	r6, #8
 800277e:	63d3      	str	r3, [r2, #60]	; 0x3c
 8002780:	6416      	str	r6, [r2, #64]	; 0x40
 8002782:	f882 9054 	strb.w	r9, [r2, #84]	; 0x54
 8002786:	f8c2 9044 	str.w	r9, [r2, #68]	; 0x44
 800278a:	f882 9055 	strb.w	r9, [r2, #85]	; 0x55
 800278e:	eb04 010c 	add.w	r1, r4, ip
 8002792:	6820      	ldr	r0, [r4, #0]
 8002794:	7c22      	ldrb	r2, [r4, #16]
 8002796:	f009 fdd7 	bl	800c348 <USB_HC_StartXfer>
 800279a:	2302      	movs	r3, #2
 800279c:	f88a 3018 	strb.w	r3, [sl, #24]
 80027a0:	f7ff ba7d 	b.w	8001c9e <main+0x1042>
 80027a4:	f89a 0004 	ldrb.w	r0, [sl, #4]
 80027a8:	f8da 3608 	ldr.w	r3, [sl, #1544]	; 0x608
 80027ac:	f8da 4610 	ldr.w	r4, [sl, #1552]	; 0x610
 80027b0:	f8aa 300e 	strh.w	r3, [sl, #14]
 80027b4:	eb00 0380 	add.w	r3, r0, r0, lsl #2
 80027b8:	00db      	lsls	r3, r3, #3
 80027ba:	18e2      	adds	r2, r4, r3
 80027bc:	2601      	movs	r6, #1
 80027be:	f882 6033 	strb.w	r6, [r2, #51]	; 0x33
 80027c2:	2602      	movs	r6, #2
 80027c4:	f882 603a 	strb.w	r6, [r2, #58]	; 0x3a
 80027c8:	f8da 6008 	ldr.w	r6, [sl, #8]
 80027cc:	f882 9037 	strb.w	r9, [r2, #55]	; 0x37
 80027d0:	3330      	adds	r3, #48	; 0x30
 80027d2:	63d6      	str	r6, [r2, #60]	; 0x3c
 80027d4:	f882 0031 	strb.w	r0, [r2, #49]	; 0x31
 80027d8:	f8ba 600c 	ldrh.w	r6, [sl, #12]
 80027dc:	6416      	str	r6, [r2, #64]	; 0x40
 80027de:	f882 9054 	strb.w	r9, [r2, #84]	; 0x54
 80027e2:	f8c2 9044 	str.w	r9, [r2, #68]	; 0x44
 80027e6:	18e1      	adds	r1, r4, r3
 80027e8:	f882 9055 	strb.w	r9, [r2, #85]	; 0x55
 80027ec:	6820      	ldr	r0, [r4, #0]
 80027ee:	7c22      	ldrb	r2, [r4, #16]
 80027f0:	f009 fdaa 	bl	800c348 <USB_HC_StartXfer>
 80027f4:	2304      	movs	r3, #4
 80027f6:	f88a 3018 	strb.w	r3, [sl, #24]
 80027fa:	f7ff ba50 	b.w	8001c9e <main+0x1042>
 80027fe:	f89a 3005 	ldrb.w	r3, [sl, #5]
 8002802:	f8da 1610 	ldr.w	r1, [sl, #1552]	; 0x610
 8002806:	4a67      	ldr	r2, [pc, #412]	; (80029a4 <main+0x1d48>)
 8002808:	eb03 0383 	add.w	r3, r3, r3, lsl #2
 800280c:	eb01 03c3 	add.w	r3, r1, r3, lsl #3
 8002810:	f893 3054 	ldrb.w	r3, [r3, #84]	; 0x54
 8002814:	2b01      	cmp	r3, #1
 8002816:	d02c      	beq.n	8002872 <main+0x1c16>
 8002818:	2b04      	cmp	r3, #4
 800281a:	f47f aa40 	bne.w	8001c9e <main+0x1042>
 800281e:	230b      	movs	r3, #11
 8002820:	f88a 3018 	strb.w	r3, [sl, #24]
 8002824:	f7ff ba3b 	b.w	8001c9e <main+0x1042>
 8002828:	681a      	ldr	r2, [r3, #0]
 800282a:	6891      	ldr	r1, [r2, #8]
 800282c:	2001      	movs	r0, #1
 800282e:	4301      	orrs	r1, r0
 8002830:	f883 0288 	strb.w	r0, [r3, #648]	; 0x288
 8002834:	6091      	str	r1, [r2, #8]
 8002836:	f8d2 1440 	ldr.w	r1, [r2, #1088]	; 0x440
 800283a:	9105      	str	r1, [sp, #20]
 800283c:	9905      	ldr	r1, [sp, #20]
 800283e:	f021 012e 	bic.w	r1, r1, #46	; 0x2e
 8002842:	9105      	str	r1, [sp, #20]
 8002844:	9905      	ldr	r1, [sp, #20]
 8002846:	04cf      	lsls	r7, r1, #19
 8002848:	d404      	bmi.n	8002854 <main+0x1bf8>
 800284a:	9905      	ldr	r1, [sp, #20]
 800284c:	f441 5180 	orr.w	r1, r1, #4096	; 0x1000
 8002850:	f8c2 1440 	str.w	r1, [r2, #1088]	; 0x440
 8002854:	9a05      	ldr	r2, [sp, #20]
 8002856:	2200      	movs	r2, #0
 8002858:	f883 2288 	strb.w	r2, [r3, #648]	; 0x288
 800285c:	f7ff ba15 	b.w	8001c8a <main+0x102e>
 8002860:	2180      	movs	r1, #128	; 0x80
 8002862:	4a51      	ldr	r2, [pc, #324]	; (80029a8 <main+0x1d4c>)
 8002864:	4b51      	ldr	r3, [pc, #324]	; (80029ac <main+0x1d50>)
 8002866:	6261      	str	r1, [r4, #36]	; 0x24
 8002868:	62a2      	str	r2, [r4, #40]	; 0x28
 800286a:	f8c4 3100 	str.w	r3, [r4, #256]	; 0x100
 800286e:	f7ff b9e9 	b.w	8001c44 <main+0xfe8>
 8002872:	7c13      	ldrb	r3, [r2, #16]
 8002874:	8ad1      	ldrh	r1, [r2, #22]
 8002876:	f023 037f 	bic.w	r3, r3, #127	; 0x7f
 800287a:	b2db      	uxtb	r3, r3
 800287c:	2900      	cmp	r1, #0
 800287e:	f000 819a 	beq.w	8002bb6 <main+0x1f5a>
 8002882:	2b00      	cmp	r3, #0
 8002884:	f040 8193 	bne.w	8002bae <main+0x1f52>
 8002888:	2305      	movs	r3, #5
 800288a:	f88a 3018 	strb.w	r3, [sl, #24]
 800288e:	f7ff ba06 	b.w	8001c9e <main+0x1042>
 8002892:	f89a 5004 	ldrb.w	r5, [sl, #4]
 8002896:	f8da 4610 	ldr.w	r4, [sl, #1552]	; 0x610
 800289a:	eb05 0385 	add.w	r3, r5, r5, lsl #2
 800289e:	00db      	lsls	r3, r3, #3
 80028a0:	18e1      	adds	r1, r4, r3
 80028a2:	2701      	movs	r7, #1
 80028a4:	f881 7033 	strb.w	r7, [r1, #51]	; 0x33
 80028a8:	f101 0650 	add.w	r6, r1, #80	; 0x50
 80028ac:	2702      	movs	r7, #2
 80028ae:	f881 9037 	strb.w	r9, [r1, #55]	; 0x37
 80028b2:	f881 703a 	strb.w	r7, [r1, #58]	; 0x3a
 80028b6:	f881 5031 	strb.w	r5, [r1, #49]	; 0x31
 80028ba:	3330      	adds	r3, #48	; 0x30
 80028bc:	f8c1 903c 	str.w	r9, [r1, #60]	; 0x3c
 80028c0:	f8c1 9040 	str.w	r9, [r1, #64]	; 0x40
 80028c4:	f881 9054 	strb.w	r9, [r1, #84]	; 0x54
 80028c8:	f8c1 9044 	str.w	r9, [r1, #68]	; 0x44
 80028cc:	6820      	ldr	r0, [r4, #0]
 80028ce:	f886 9005 	strb.w	r9, [r6, #5]
 80028d2:	18e1      	adds	r1, r4, r3
 80028d4:	7c22      	ldrb	r2, [r4, #16]
 80028d6:	f009 fd37 	bl	800c348 <USB_HC_StartXfer>
 80028da:	f8da 3608 	ldr.w	r3, [sl, #1544]	; 0x608
 80028de:	f8aa 300e 	strh.w	r3, [sl, #14]
 80028e2:	2308      	movs	r3, #8
 80028e4:	f88a 3018 	strb.w	r3, [sl, #24]
 80028e8:	f7ff b9d9 	b.w	8001c9e <main+0x1042>
 80028ec:	f89a 3005 	ldrb.w	r3, [sl, #5]
 80028f0:	f8da 2610 	ldr.w	r2, [sl, #1552]	; 0x610
 80028f4:	492b      	ldr	r1, [pc, #172]	; (80029a4 <main+0x1d48>)
 80028f6:	eb03 0383 	add.w	r3, r3, r3, lsl #2
 80028fa:	eb02 03c3 	add.w	r3, r2, r3, lsl #3
 80028fe:	f893 3054 	ldrb.w	r3, [r3, #84]	; 0x54
 8002902:	2b01      	cmp	r3, #1
 8002904:	f000 815a 	beq.w	8002bbc <main+0x1f60>
 8002908:	2b05      	cmp	r3, #5
 800290a:	f000 8198 	beq.w	8002c3e <main+0x1fe2>
 800290e:	2b02      	cmp	r3, #2
 8002910:	d0ba      	beq.n	8002888 <main+0x1c2c>
 8002912:	2b04      	cmp	r3, #4
 8002914:	f47f a9c3 	bne.w	8001c9e <main+0x1042>
 8002918:	230b      	movs	r3, #11
 800291a:	760b      	strb	r3, [r1, #24]
 800291c:	2301      	movs	r3, #1
 800291e:	f88a 3002 	strb.w	r3, [sl, #2]
 8002922:	f7ff b9bc 	b.w	8001c9e <main+0x1042>
 8002926:	f89a 3019 	ldrb.w	r3, [sl, #25]
 800292a:	4c1e      	ldr	r4, [pc, #120]	; (80029a4 <main+0x1d48>)
 800292c:	3301      	adds	r3, #1
 800292e:	b2db      	uxtb	r3, r3
 8002930:	2b02      	cmp	r3, #2
 8002932:	f88a 3019 	strb.w	r3, [sl, #25]
 8002936:	d91b      	bls.n	8002970 <main+0x1d14>
 8002938:	f8d4 3614 	ldr.w	r3, [r4, #1556]	; 0x614
 800293c:	4620      	mov	r0, r4
 800293e:	2106      	movs	r1, #6
 8002940:	4798      	blx	r3
 8002942:	f884 9019 	strb.w	r9, [r4, #25]
 8002946:	e7e9      	b.n	800291c <main+0x1cc0>
 8002948:	f89a 3005 	ldrb.w	r3, [sl, #5]
 800294c:	f8da 1610 	ldr.w	r1, [sl, #1552]	; 0x610
 8002950:	eb03 0383 	add.w	r3, r3, r3, lsl #2
 8002954:	eb01 03c3 	add.w	r3, r1, r3, lsl #3
 8002958:	f893 3054 	ldrb.w	r3, [r3, #84]	; 0x54
 800295c:	2b01      	cmp	r3, #1
 800295e:	d034      	beq.n	80029ca <main+0x1d6e>
 8002960:	2b02      	cmp	r3, #2
 8002962:	f47f af59 	bne.w	8002818 <main+0x1bbc>
 8002966:	2309      	movs	r3, #9
 8002968:	f88a 3018 	strb.w	r3, [sl, #24]
 800296c:	f7ff b997 	b.w	8001c9e <main+0x1042>
 8002970:	f8d4 4610 	ldr.w	r4, [r4, #1552]	; 0x610
 8002974:	f894 3288 	ldrb.w	r3, [r4, #648]	; 0x288
 8002978:	2b01      	cmp	r3, #1
 800297a:	d007      	beq.n	800298c <main+0x1d30>
 800297c:	2301      	movs	r3, #1
 800297e:	f884 3288 	strb.w	r3, [r4, #648]	; 0x288
 8002982:	6820      	ldr	r0, [r4, #0]
 8002984:	f009 fb12 	bl	800bfac <USB_StopHost>
 8002988:	f884 9288 	strb.w	r9, [r4, #648]	; 0x288
 800298c:	2301      	movs	r3, #1
 800298e:	f88a 3018 	strb.w	r3, [sl, #24]
 8002992:	f88a 3002 	strb.w	r3, [sl, #2]
 8002996:	f7ff b982 	b.w	8001c9e <main+0x1042>
 800299a:	bf00      	nop
 800299c:	2001f134 	.word	0x2001f134
 80029a0:	2001f128 	.word	0x2001f128
 80029a4:	2001f118 	.word	0x2001f118
 80029a8:	00600080 	.word	0x00600080
 80029ac:	004000e0 	.word	0x004000e0
 80029b0:	f89a 3004 	ldrb.w	r3, [sl, #4]
 80029b4:	f8da 1610 	ldr.w	r1, [sl, #1552]	; 0x610
 80029b8:	eb03 0383 	add.w	r3, r3, r3, lsl #2
 80029bc:	eb01 03c3 	add.w	r3, r1, r3, lsl #3
 80029c0:	f893 3054 	ldrb.w	r3, [r3, #84]	; 0x54
 80029c4:	2b01      	cmp	r3, #1
 80029c6:	f47f af27 	bne.w	8002818 <main+0x1bbc>
 80029ca:	f89a 301e 	ldrb.w	r3, [sl, #30]
 80029ce:	f89a 401f 	ldrb.w	r4, [sl, #31]
 80029d2:	f88a 9018 	strb.w	r9, [sl, #24]
 80029d6:	eb03 2404 	add.w	r4, r3, r4, lsl #8
 80029da:	2101      	movs	r1, #1
 80029dc:	f89a 301c 	ldrb.w	r3, [sl, #28]
 80029e0:	f88a 1002 	strb.w	r1, [sl, #2]
 80029e4:	f88a 3232 	strb.w	r3, [sl, #562]	; 0x232
 80029e8:	f89a 101d 	ldrb.w	r1, [sl, #29]
 80029ec:	f89a 3020 	ldrb.w	r3, [sl, #32]
 80029f0:	f88a 1233 	strb.w	r1, [sl, #563]	; 0x233
 80029f4:	f88a 3236 	strb.w	r3, [sl, #566]	; 0x236
 80029f8:	f89a 1021 	ldrb.w	r1, [sl, #33]	; 0x21
 80029fc:	f89a 3022 	ldrb.w	r3, [sl, #34]	; 0x22
 8002a00:	f88a 1237 	strb.w	r1, [sl, #567]	; 0x237
 8002a04:	b2a4      	uxth	r4, r4
 8002a06:	f89a 1023 	ldrb.w	r1, [sl, #35]	; 0x23
 8002a0a:	f88a 3238 	strb.w	r3, [sl, #568]	; 0x238
 8002a0e:	2a09      	cmp	r2, #9
 8002a10:	f89a 3024 	ldrb.w	r3, [sl, #36]	; 0x24
 8002a14:	f8aa 4234 	strh.w	r4, [sl, #564]	; 0x234
 8002a18:	f88a 1239 	strb.w	r1, [sl, #569]	; 0x239
 8002a1c:	f88a 323a 	strb.w	r3, [sl, #570]	; 0x23a
 8002a20:	d90e      	bls.n	8002a40 <main+0x1de4>
 8002a22:	4889      	ldr	r0, [pc, #548]	; (8002c48 <main+0x1fec>)
 8002a24:	2700      	movs	r7, #0
 8002a26:	f100 031c 	add.w	r3, r0, #28
 8002a2a:	2209      	movs	r2, #9
 8002a2c:	e006      	b.n	8002a3c <main+0x1de0>
 8002a2e:	7819      	ldrb	r1, [r3, #0]
 8002a30:	440b      	add	r3, r1
 8002a32:	440a      	add	r2, r1
 8002a34:	7859      	ldrb	r1, [r3, #1]
 8002a36:	2904      	cmp	r1, #4
 8002a38:	b292      	uxth	r2, r2
 8002a3a:	d006      	beq.n	8002a4a <main+0x1dee>
 8002a3c:	42a2      	cmp	r2, r4
 8002a3e:	d3f6      	bcc.n	8002a2e <main+0x1dd2>
 8002a40:	2305      	movs	r3, #5
 8002a42:	f88a 3001 	strb.w	r3, [sl, #1]
 8002a46:	f7ff b92a 	b.w	8001c9e <main+0x1042>
 8002a4a:	7819      	ldrb	r1, [r3, #0]
 8002a4c:	f880 123c 	strb.w	r1, [r0, #572]	; 0x23c
 8002a50:	7859      	ldrb	r1, [r3, #1]
 8002a52:	f880 123d 	strb.w	r1, [r0, #573]	; 0x23d
 8002a56:	7899      	ldrb	r1, [r3, #2]
 8002a58:	f880 123e 	strb.w	r1, [r0, #574]	; 0x23e
 8002a5c:	78d9      	ldrb	r1, [r3, #3]
 8002a5e:	f880 123f 	strb.w	r1, [r0, #575]	; 0x23f
 8002a62:	7919      	ldrb	r1, [r3, #4]
 8002a64:	f880 1240 	strb.w	r1, [r0, #576]	; 0x240
 8002a68:	7959      	ldrb	r1, [r3, #5]
 8002a6a:	f880 1241 	strb.w	r1, [r0, #577]	; 0x241
 8002a6e:	7999      	ldrb	r1, [r3, #6]
 8002a70:	f880 1242 	strb.w	r1, [r0, #578]	; 0x242
 8002a74:	79d9      	ldrb	r1, [r3, #7]
 8002a76:	f880 1243 	strb.w	r1, [r0, #579]	; 0x243
 8002a7a:	7a19      	ldrb	r1, [r3, #8]
 8002a7c:	f890 c240 	ldrb.w	ip, [r0, #576]	; 0x240
 8002a80:	f880 1244 	strb.w	r1, [r0, #580]	; 0x244
 8002a84:	2500      	movs	r5, #0
 8002a86:	265a      	movs	r6, #90	; 0x5a
 8002a88:	4629      	mov	r1, r5
 8002a8a:	fb06 fe07 	mul.w	lr, r6, r7
 8002a8e:	4561      	cmp	r1, ip
 8002a90:	da29      	bge.n	8002ae6 <main+0x1e8a>
 8002a92:	4294      	cmp	r4, r2
 8002a94:	d927      	bls.n	8002ae6 <main+0x1e8a>
 8002a96:	781e      	ldrb	r6, [r3, #0]
 8002a98:	4433      	add	r3, r6
 8002a9a:	4432      	add	r2, r6
 8002a9c:	785e      	ldrb	r6, [r3, #1]
 8002a9e:	2e05      	cmp	r6, #5
 8002aa0:	b292      	uxth	r2, r2
 8002aa2:	d1f4      	bne.n	8002a8e <main+0x1e32>
 8002aa4:	3101      	adds	r1, #1
 8002aa6:	eb0e 01c1 	add.w	r1, lr, r1, lsl #3
 8002aaa:	4451      	add	r1, sl
 8002aac:	781e      	ldrb	r6, [r3, #0]
 8002aae:	f881 623e 	strb.w	r6, [r1, #574]	; 0x23e
 8002ab2:	785e      	ldrb	r6, [r3, #1]
 8002ab4:	f881 623f 	strb.w	r6, [r1, #575]	; 0x23f
 8002ab8:	789e      	ldrb	r6, [r3, #2]
 8002aba:	f881 6240 	strb.w	r6, [r1, #576]	; 0x240
 8002abe:	78de      	ldrb	r6, [r3, #3]
 8002ac0:	f881 6241 	strb.w	r6, [r1, #577]	; 0x241
 8002ac4:	f893 c005 	ldrb.w	ip, [r3, #5]
 8002ac8:	791e      	ldrb	r6, [r3, #4]
 8002aca:	eb06 260c 	add.w	r6, r6, ip, lsl #8
 8002ace:	f8a1 6242 	strh.w	r6, [r1, #578]	; 0x242
 8002ad2:	799e      	ldrb	r6, [r3, #6]
 8002ad4:	f881 6244 	strb.w	r6, [r1, #580]	; 0x244
 8002ad8:	3501      	adds	r5, #1
 8002ada:	b2ed      	uxtb	r5, r5
 8002adc:	f890 c240 	ldrb.w	ip, [r0, #576]	; 0x240
 8002ae0:	b269      	sxtb	r1, r5
 8002ae2:	4561      	cmp	r1, ip
 8002ae4:	dbd5      	blt.n	8002a92 <main+0x1e36>
 8002ae6:	3701      	adds	r7, #1
 8002ae8:	2f0a      	cmp	r7, #10
 8002aea:	f100 005a 	add.w	r0, r0, #90	; 0x5a
 8002aee:	d1a5      	bne.n	8002a3c <main+0x1de0>
 8002af0:	e7a6      	b.n	8002a40 <main+0x1de4>
 8002af2:	f89a 0005 	ldrb.w	r0, [sl, #5]
 8002af6:	f8da 4610 	ldr.w	r4, [sl, #1552]	; 0x610
 8002afa:	f8ba 500c 	ldrh.w	r5, [sl, #12]
 8002afe:	f89a 721d 	ldrb.w	r7, [sl, #541]	; 0x21d
 8002b02:	f8da 6008 	ldr.w	r6, [sl, #8]
 8002b06:	fab7 f787 	clz	r7, r7
 8002b0a:	0083      	lsls	r3, r0, #2
 8002b0c:	1819      	adds	r1, r3, r0
 8002b0e:	eb04 01c1 	add.w	r1, r4, r1, lsl #3
 8002b12:	2202      	movs	r2, #2
 8002b14:	f881 9033 	strb.w	r9, [r1, #51]	; 0x33
 8002b18:	f881 9037 	strb.w	r9, [r1, #55]	; 0x37
 8002b1c:	097f      	lsrs	r7, r7, #5
 8002b1e:	f881 203a 	strb.w	r2, [r1, #58]	; 0x3a
 8002b22:	2d00      	cmp	r5, #0
 8002b24:	d13d      	bne.n	8002ba2 <main+0x1f46>
 8002b26:	f04f 0e01 	mov.w	lr, #1
 8002b2a:	f881 e049 	strb.w	lr, [r1, #73]	; 0x49
 8002b2e:	1819      	adds	r1, r3, r0
 8002b30:	eb04 01c1 	add.w	r1, r4, r1, lsl #3
 8002b34:	4403      	add	r3, r0
 8002b36:	f891 e054 	ldrb.w	lr, [r1, #84]	; 0x54
 8002b3a:	f881 203a 	strb.w	r2, [r1, #58]	; 0x3a
 8002b3e:	00db      	lsls	r3, r3, #3
 8002b40:	18e2      	adds	r2, r4, r3
 8002b42:	f1be 0f02 	cmp.w	lr, #2
 8002b46:	bf18      	it	ne
 8002b48:	f881 7035 	strbne.w	r7, [r1, #53]	; 0x35
 8002b4c:	3330      	adds	r3, #48	; 0x30
 8002b4e:	f882 0031 	strb.w	r0, [r2, #49]	; 0x31
 8002b52:	63d6      	str	r6, [r2, #60]	; 0x3c
 8002b54:	6415      	str	r5, [r2, #64]	; 0x40
 8002b56:	f882 9054 	strb.w	r9, [r2, #84]	; 0x54
 8002b5a:	f8c2 9044 	str.w	r9, [r2, #68]	; 0x44
 8002b5e:	18e1      	adds	r1, r4, r3
 8002b60:	f882 9055 	strb.w	r9, [r2, #85]	; 0x55
 8002b64:	6820      	ldr	r0, [r4, #0]
 8002b66:	7c22      	ldrb	r2, [r4, #16]
 8002b68:	f009 fbee 	bl	800c348 <USB_HC_StartXfer>
 8002b6c:	f8da 3608 	ldr.w	r3, [sl, #1544]	; 0x608
 8002b70:	f8aa 300e 	strh.w	r3, [sl, #14]
 8002b74:	2306      	movs	r3, #6
 8002b76:	f88a 3018 	strb.w	r3, [sl, #24]
 8002b7a:	f7ff b890 	b.w	8001c9e <main+0x1042>
 8002b7e:	f89a 3004 	ldrb.w	r3, [sl, #4]
 8002b82:	f8da 2610 	ldr.w	r2, [sl, #1552]	; 0x610
 8002b86:	4930      	ldr	r1, [pc, #192]	; (8002c48 <main+0x1fec>)
 8002b88:	eb03 0383 	add.w	r3, r3, r3, lsl #2
 8002b8c:	eb02 03c3 	add.w	r3, r2, r3, lsl #3
 8002b90:	f893 3054 	ldrb.w	r3, [r3, #84]	; 0x54
 8002b94:	2b01      	cmp	r3, #1
 8002b96:	f47f ae3f 	bne.w	8002818 <main+0x1bbc>
 8002b9a:	2309      	movs	r3, #9
 8002b9c:	760b      	strb	r3, [r1, #24]
 8002b9e:	f7ff b87e 	b.w	8001c9e <main+0x1042>
 8002ba2:	f891 2049 	ldrb.w	r2, [r1, #73]	; 0x49
 8002ba6:	2a00      	cmp	r2, #0
 8002ba8:	bf18      	it	ne
 8002baa:	2202      	movne	r2, #2
 8002bac:	e7bf      	b.n	8002b2e <main+0x1ed2>
 8002bae:	2303      	movs	r3, #3
 8002bb0:	7613      	strb	r3, [r2, #24]
 8002bb2:	f7ff b874 	b.w	8001c9e <main+0x1042>
 8002bb6:	2b00      	cmp	r3, #0
 8002bb8:	f47f aed5 	bne.w	8002966 <main+0x1d0a>
 8002bbc:	2307      	movs	r3, #7
 8002bbe:	f88a 3018 	strb.w	r3, [sl, #24]
 8002bc2:	f7ff b86c 	b.w	8001c9e <main+0x1042>
 8002bc6:	f89a 0005 	ldrb.w	r0, [sl, #5]
 8002bca:	f8da 4610 	ldr.w	r4, [sl, #1552]	; 0x610
 8002bce:	f89a 121d 	ldrb.w	r1, [sl, #541]	; 0x21d
 8002bd2:	fab1 f181 	clz	r1, r1
 8002bd6:	0083      	lsls	r3, r0, #2
 8002bd8:	181a      	adds	r2, r3, r0
 8002bda:	eb04 02c2 	add.w	r2, r4, r2, lsl #3
 8002bde:	2701      	movs	r7, #1
 8002be0:	f892 6054 	ldrb.w	r6, [r2, #84]	; 0x54
 8002be4:	f882 7049 	strb.w	r7, [r2, #73]	; 0x49
 8002be8:	4403      	add	r3, r0
 8002bea:	2702      	movs	r7, #2
 8002bec:	0949      	lsrs	r1, r1, #5
 8002bee:	42be      	cmp	r6, r7
 8002bf0:	ea4f 03c3 	mov.w	r3, r3, lsl #3
 8002bf4:	bf18      	it	ne
 8002bf6:	f882 1035 	strbne.w	r1, [r2, #53]	; 0x35
 8002bfa:	f882 9033 	strb.w	r9, [r2, #51]	; 0x33
 8002bfe:	f882 9037 	strb.w	r9, [r2, #55]	; 0x37
 8002c02:	f882 703a 	strb.w	r7, [r2, #58]	; 0x3a
 8002c06:	18e2      	adds	r2, r4, r3
 8002c08:	3330      	adds	r3, #48	; 0x30
 8002c0a:	f882 0031 	strb.w	r0, [r2, #49]	; 0x31
 8002c0e:	f8c2 903c 	str.w	r9, [r2, #60]	; 0x3c
 8002c12:	f8c2 9040 	str.w	r9, [r2, #64]	; 0x40
 8002c16:	f882 9054 	strb.w	r9, [r2, #84]	; 0x54
 8002c1a:	f8c2 9044 	str.w	r9, [r2, #68]	; 0x44
 8002c1e:	18e1      	adds	r1, r4, r3
 8002c20:	f882 9055 	strb.w	r9, [r2, #85]	; 0x55
 8002c24:	6820      	ldr	r0, [r4, #0]
 8002c26:	7c22      	ldrb	r2, [r4, #16]
 8002c28:	f009 fb8e 	bl	800c348 <USB_HC_StartXfer>
 8002c2c:	f8da 3608 	ldr.w	r3, [sl, #1544]	; 0x608
 8002c30:	f8aa 300e 	strh.w	r3, [sl, #14]
 8002c34:	230a      	movs	r3, #10
 8002c36:	f88a 3018 	strb.w	r3, [sl, #24]
 8002c3a:	f7ff b830 	b.w	8001c9e <main+0x1042>
 8002c3e:	230c      	movs	r3, #12
 8002c40:	760b      	strb	r3, [r1, #24]
 8002c42:	f7ff b82c 	b.w	8001c9e <main+0x1042>
 8002c46:	bf00      	nop
 8002c48:	2001f118 	.word	0x2001f118

08002c4c <make_sound.constprop.32>:
make_sound.constprop.32():
 8002c4c:	e92d 4ff0 	stmdb	sp!, {r4, r5, r6, r7, r8, r9, sl, fp, lr}
 8002c50:	ed2d 8b0e 	vpush	{d8-d14}
 8002c54:	4c77      	ldr	r4, [pc, #476]	; (8002e34 <make_sound.constprop.32+0x1e8>)
 8002c56:	f8df 820c 	ldr.w	r8, [pc, #524]	; 8002e64 <make_sound.constprop.32+0x218>
 8002c5a:	4d77      	ldr	r5, [pc, #476]	; (8002e38 <make_sound.constprop.32+0x1ec>)
 8002c5c:	ed9f aa77 	vldr	s20, [pc, #476]	; 8002e3c <make_sound.constprop.32+0x1f0>
 8002c60:	eddf aa77 	vldr	s21, [pc, #476]	; 8002e40 <make_sound.constprop.32+0x1f4>
 8002c64:	ed9f 8a77 	vldr	s16, [pc, #476]	; 8002e44 <make_sound.constprop.32+0x1f8>
 8002c68:	b085      	sub	sp, #20
 8002c6a:	1d06      	adds	r6, r0, #4
 8002c6c:	f200 79d4 	addw	r9, r0, #2004	; 0x7d4
 8002c70:	6aa3      	ldr	r3, [r4, #40]	; 0x28
 8002c72:	4970      	ldr	r1, [pc, #448]	; (8002e34 <make_sound.constprop.32+0x1e8>)
 8002c74:	1e5a      	subs	r2, r3, #1
 8002c76:	2b00      	cmp	r3, #0
 8002c78:	62a2      	str	r2, [r4, #40]	; 0x28
 8002c7a:	f341 8453 	ble.w	8004524 <make_sound.constprop.32+0x18d8>
 8002c7e:	edd4 7a40 	vldr	s15, [r4, #256]	; 0x100
 8002c82:	eef5 7ac0 	vcmpe.f32	s15, #0.0
 8002c86:	eef1 fa10 	vmrs	APSR_nzcv, fpscr
 8002c8a:	f141 84f6 	bpl.w	800467a <make_sound.constprop.32+0x1a2e>
 8002c8e:	ee77 7a88 	vadd.f32	s15, s15, s16
 8002c92:	eef5 7ac0 	vcmpe.f32	s15, #0.0
 8002c96:	eef1 fa10 	vmrs	APSR_nzcv, fpscr
 8002c9a:	d4f8      	bmi.n	8002c8e <make_sound.constprop.32+0x42>
 8002c9c:	edc4 7a40 	vstr	s15, [r4, #256]	; 0x100
 8002ca0:	eeb0 7a67 	vmov.f32	s14, s15
 8002ca4:	eef4 7ac8 	vcmpe.f32	s15, s16
 8002ca8:	eef1 fa10 	vmrs	APSR_nzcv, fpscr
 8002cac:	db08      	blt.n	8002cc0 <make_sound.constprop.32+0x74>
 8002cae:	ee37 7a48 	vsub.f32	s14, s14, s16
 8002cb2:	eeb4 7ac8 	vcmpe.f32	s14, s16
 8002cb6:	eef1 fa10 	vmrs	APSR_nzcv, fpscr
 8002cba:	daf8      	bge.n	8002cae <make_sound.constprop.32+0x62>
 8002cbc:	ed84 7a40 	vstr	s14, [r4, #256]	; 0x100
 8002cc0:	ed9f 0a61 	vldr	s0, [pc, #388]	; 8002e48 <make_sound.constprop.32+0x1fc>
 8002cc4:	edd4 8a3d 	vldr	s17, [r4, #244]	; 0xf4
 8002cc8:	ee27 0a00 	vmul.f32	s0, s14, s0
 8002ccc:	f00b faf0 	bl	800e2b0 <lrintf>
 8002cd0:	eb08 0080 	add.w	r0, r8, r0, lsl #2
 8002cd4:	edd0 7a00 	vldr	s15, [r0]
 8002cd8:	ed94 7a40 	vldr	s14, [r4, #256]	; 0x100
 8002cdc:	edd4 5a3f 	vldr	s11, [r4, #252]	; 0xfc
 8002ce0:	ed9f 6a5a 	vldr	s12, [pc, #360]	; 8002e4c <make_sound.constprop.32+0x200>
 8002ce4:	edd4 9a3b 	vldr	s19, [r4, #236]	; 0xec
 8002ce8:	f894 30e9 	ldrb.w	r3, [r4, #233]	; 0xe9
 8002cec:	ee68 7aa7 	vmul.f32	s15, s17, s15
 8002cf0:	eef7 6a00 	vmov.f32	s13, #112	; 0x70
 8002cf4:	ee77 6aa6 	vadd.f32	s13, s15, s13
 8002cf8:	eea5 7a86 	vfma.f32	s14, s11, s12
 8002cfc:	ee66 9aa9 	vmul.f32	s19, s13, s19
 8002d00:	edc4 7a44 	vstr	s15, [r4, #272]	; 0x110
 8002d04:	edc4 9a47 	vstr	s19, [r4, #284]	; 0x11c
 8002d08:	ed84 7a40 	vstr	s14, [r4, #256]	; 0x100
 8002d0c:	2b0f      	cmp	r3, #15
 8002d0e:	f203 8387 	bhi.w	8006420 <make_sound.constprop.32+0x37d4>
 8002d12:	e8df f013 	tbh	[pc, r3, lsl #1]
 8002d16:	06b7      	.short	0x06b7
 8002d18:	0ba0066e 	.word	0x0ba0066e
 8002d1c:	09250702 	.word	0x09250702
 8002d20:	0a7104a9 	.word	0x0a7104a9
 8002d24:	05a10971 	.word	0x05a10971
 8002d28:	082104e2 	.word	0x082104e2
 8002d2c:	03610759 	.word	0x03610759
 8002d30:	00ad01cb 	.word	0x00ad01cb
 8002d34:	0010      	.short	0x0010
 8002d36:	f8df a130 	ldr.w	sl, [pc, #304]	; 8002e68 <make_sound.constprop.32+0x21c>
 8002d3a:	eddf 7a45 	vldr	s15, [pc, #276]	; 8002e50 <make_sound.constprop.32+0x204>
 8002d3e:	f89a 3548 	ldrb.w	r3, [sl, #1352]	; 0x548
 8002d42:	edca 9a03 	vstr	s19, [sl, #12]
 8002d46:	ed9a 9a04 	vldr	s18, [sl, #16]
 8002d4a:	edda ba06 	vldr	s23, [sl, #24]
 8002d4e:	ed9a 7a07 	vldr	s14, [sl, #28]
 8002d52:	edda 8a08 	vldr	s17, [sl, #32]
 8002d56:	f8da 2544 	ldr.w	r2, [sl, #1348]	; 0x544
 8002d5a:	2b00      	cmp	r3, #0
 8002d5c:	f042 801b 	bne.w	8004d96 <make_sound.constprop.32+0x214a>
 8002d60:	eec9 7aa7 	vdiv.f32	s15, s19, s15
 8002d64:	eddf 6a3b 	vldr	s13, [pc, #236]	; 8002e54 <make_sound.constprop.32+0x208>
 8002d68:	eef4 7ae6 	vcmpe.f32	s15, s13
 8002d6c:	eef1 fa10 	vmrs	APSR_nzcv, fpscr
 8002d70:	f102 8028 	bmi.w	8004dc4 <make_sound.constprop.32+0x2178>
 8002d74:	eef6 6a00 	vmov.f32	s13, #96	; 0x60
 8002d78:	eef4 7a66 	vcmp.f32	s15, s13
 8002d7c:	eef1 fa10 	vmrs	APSR_nzcv, fpscr
 8002d80:	bfc8      	it	gt
 8002d82:	eef0 7a66 	vmovgt.f32	s15, s13
 8002d86:	ee77 7ac7 	vsub.f32	s15, s15, s14
 8002d8a:	ed9f 6a33 	vldr	s12, [pc, #204]	; 8002e58 <make_sound.constprop.32+0x20c>
 8002d8e:	ee77 9a27 	vadd.f32	s19, s14, s15
 8002d92:	eeb4 9ac6 	vcmpe.f32	s18, s12
 8002d96:	eef1 fa10 	vmrs	APSR_nzcv, fpscr
 8002d9a:	ee79 baab 	vadd.f32	s23, s19, s23
 8002d9e:	f2c2 8438 	blt.w	8005612 <make_sound.constprop.32+0x29c6>
 8002da2:	ee39 6a46 	vsub.f32	s12, s18, s12
 8002da6:	eef7 7a00 	vmov.f32	s15, #112	; 0x70
 8002daa:	ee29 ba86 	vmul.f32	s22, s19, s12
 8002dae:	ee7b bacb 	vsub.f32	s23, s23, s22
 8002db2:	eef4 bae7 	vcmpe.f32	s23, s15
 8002db6:	eef1 fa10 	vmrs	APSR_nzcv, fpscr
 8002dba:	f2c2 8600 	blt.w	80059be <make_sound.constprop.32+0x2d72>
 8002dbe:	ee7b bae7 	vsub.f32	s23, s23, s15
 8002dc2:	eddf 7a26 	vldr	s15, [pc, #152]	; 8002e5c <make_sound.constprop.32+0x210>
 8002dc6:	9202      	str	r2, [sp, #8]
 8002dc8:	ee7b 6a2b 	vadd.f32	s13, s22, s23
 8002dcc:	eeb6 0a00 	vmov.f32	s0, #96	; 0x60
 8002dd0:	ee66 6aa7 	vmul.f32	s13, s13, s15
 8002dd4:	0093      	lsls	r3, r2, #2
 8002dd6:	ee86 caa9 	vdiv.f32	s24, s13, s19
 8002dda:	9301      	str	r3, [sp, #4]
 8002ddc:	4f20      	ldr	r7, [pc, #128]	; (8002e60 <make_sound.constprop.32+0x214>)
 8002dde:	f8df b08c 	ldr.w	fp, [pc, #140]	; 8002e6c <make_sound.constprop.32+0x220>
 8002de2:	ee3c 0a40 	vsub.f32	s0, s24, s0
 8002de6:	f00b fa63 	bl	800e2b0 <lrintf>
 8002dea:	ee07 0a90 	vmov	s15, r0
 8002dee:	eef8 6ae7 	vcvt.f32.s32	s13, s15
 8002df2:	9b01      	ldr	r3, [sp, #4]
 8002df4:	9a02      	ldr	r2, [sp, #8]
 8002df6:	f000 003f 	and.w	r0, r0, #63	; 0x3f
 8002dfa:	ee7c 6a66 	vsub.f32	s13, s24, s13
 8002dfe:	eb07 01c0 	add.w	r1, r7, r0, lsl #3
 8002e02:	469e      	mov	lr, r3
 8002e04:	ed91 7a01 	vldr	s14, [r1, #4]
 8002e08:	edd1 7a00 	vldr	s15, [r1]
 8002e0c:	eee6 7a87 	vfma.f32	s15, s13, s14
 8002e10:	eb0b 0c0e 	add.w	ip, fp, lr
 8002e14:	3040      	adds	r0, #64	; 0x40
 8002e16:	ed9c 7a00 	vldr	s14, [ip]
 8002e1a:	ee77 7a27 	vadd.f32	s15, s14, s15
 8002e1e:	f5b0 5f90 	cmp.w	r0, #4608	; 0x1200
 8002e22:	f501 7100 	add.w	r1, r1, #512	; 0x200
 8002e26:	f10e 0e04 	add.w	lr, lr, #4
 8002e2a:	edcc 7a00 	vstr	s15, [ip]
 8002e2e:	dbe9      	blt.n	8002e04 <make_sound.constprop.32+0x1b8>
 8002e30:	f002 bdc9 	b.w	80059c6 <make_sound.constprop.32+0x2d7a>
 8002e34:	10000000 	.word	0x10000000
 8002e38:	100010f8 	.word	0x100010f8
 8002e3c:	30000000 	.word	0x30000000
 8002e40:	3ecccccd 	.word	0x3ecccccd
 8002e44:	40c90fdb 	.word	0x40c90fdb
 8002e48:	4322f983 	.word	0x4322f983
 8002e4c:	39156592 	.word	0x39156592
 8002e50:	472c4400 	.word	0x472c4400
 8002e54:	3727c5ac 	.word	0x3727c5ac
 8002e58:	1e3ce508 	.word	0x1e3ce508
 8002e5c:	42800000 	.word	0x42800000
 8002e60:	08010508 	.word	0x08010508
 8002e64:	0801ddc0 	.word	0x0801ddc0
 8002e68:	10000ccc 	.word	0x10000ccc
 8002e6c:	10000cf0 	.word	0x10000cf0
 8002e70:	4f8a      	ldr	r7, [pc, #552]	; (800309c <make_sound.constprop.32+0x450>)
 8002e72:	eddf 7a8b 	vldr	s15, [pc, #556]	; 80030a0 <make_sound.constprop.32+0x454>
 8002e76:	edd7 6a05 	vldr	s13, [r7, #20]
 8002e7a:	ed97 6a06 	vldr	s12, [r7, #24]
 8002e7e:	eddf 5a89 	vldr	s11, [pc, #548]	; 80030a4 <make_sound.constprop.32+0x458>
 8002e82:	ed97 7a03 	vldr	s14, [r7, #12]
 8002e86:	ee29 6a86 	vmul.f32	s12, s19, s12
 8002e8a:	ee66 7aa7 	vmul.f32	s15, s13, s15
 8002e8e:	f107 0a20 	add.w	sl, r7, #32
 8002e92:	eee6 7a25 	vfma.f32	s15, s12, s11
 8002e96:	f107 0bc4 	add.w	fp, r7, #196	; 0xc4
 8002e9a:	edda 5a06 	vldr	s11, [sl, #24]
 8002e9e:	eddb 6a06 	vldr	s13, [fp, #24]
 8002ea2:	ed87 6a02 	vstr	s12, [r7, #8]
 8002ea6:	ee77 7a87 	vadd.f32	s15, s15, s14
 8002eaa:	ee29 7aa5 	vmul.f32	s14, s19, s11
 8002eae:	eef5 7ac0 	vcmpe.f32	s15, #0.0
 8002eb2:	ee69 9aa6 	vmul.f32	s19, s19, s13
 8002eb6:	eef1 fa10 	vmrs	APSR_nzcv, fpscr
 8002eba:	edc7 7a03 	vstr	s15, [r7, #12]
 8002ebe:	ed8a 7a02 	vstr	s14, [sl, #8]
 8002ec2:	edcb 9a02 	vstr	s19, [fp, #8]
 8002ec6:	d508      	bpl.n	8002eda <make_sound.constprop.32+0x28e>
 8002ec8:	ee77 7a88 	vadd.f32	s15, s15, s16
 8002ecc:	eef5 7ac0 	vcmpe.f32	s15, #0.0
 8002ed0:	eef1 fa10 	vmrs	APSR_nzcv, fpscr
 8002ed4:	d4f8      	bmi.n	8002ec8 <make_sound.constprop.32+0x27c>
 8002ed6:	edc7 7a03 	vstr	s15, [r7, #12]
 8002eda:	eef4 7ac8 	vcmpe.f32	s15, s16
 8002ede:	eef1 fa10 	vmrs	APSR_nzcv, fpscr
 8002ee2:	db08      	blt.n	8002ef6 <make_sound.constprop.32+0x2aa>
 8002ee4:	ee77 7ac8 	vsub.f32	s15, s15, s16
 8002ee8:	eef4 7ac8 	vcmpe.f32	s15, s16
 8002eec:	eef1 fa10 	vmrs	APSR_nzcv, fpscr
 8002ef0:	daf8      	bge.n	8002ee4 <make_sound.constprop.32+0x298>
 8002ef2:	edc7 7a03 	vstr	s15, [r7, #12]
 8002ef6:	ed9f 0a6c 	vldr	s0, [pc, #432]	; 80030a8 <make_sound.constprop.32+0x45c>
 8002efa:	edd7 8a00 	vldr	s17, [r7]
 8002efe:	ee27 0a80 	vmul.f32	s0, s15, s0
 8002f02:	f00b f9d5 	bl	800e2b0 <lrintf>
 8002f06:	eb08 0080 	add.w	r0, r8, r0, lsl #2
 8002f0a:	edd0 6a00 	vldr	s13, [r0]
 8002f0e:	edd4 7a4a 	vldr	s15, [r4, #296]	; 0x128
 8002f12:	edd4 5a47 	vldr	s11, [r4, #284]	; 0x11c
 8002f16:	ed9f 6a63 	vldr	s12, [pc, #396]	; 80030a4 <make_sound.constprop.32+0x458>
 8002f1a:	ed94 7a48 	vldr	s14, [r4, #288]	; 0x120
 8002f1e:	ee68 6aa6 	vmul.f32	s13, s17, s13
 8002f22:	ee66 7aa7 	vmul.f32	s15, s13, s15
 8002f26:	edc7 6a07 	vstr	s13, [r7, #28]
 8002f2a:	eee5 7a86 	vfma.f32	s15, s11, s12
 8002f2e:	ee77 7a87 	vadd.f32	s15, s15, s14
 8002f32:	eef5 7ac0 	vcmpe.f32	s15, #0.0
 8002f36:	eef1 fa10 	vmrs	APSR_nzcv, fpscr
 8002f3a:	edc4 7a48 	vstr	s15, [r4, #288]	; 0x120
 8002f3e:	f143 80d0 	bpl.w	80060e2 <make_sound.constprop.32+0x3496>
 8002f42:	ee77 7a88 	vadd.f32	s15, s15, s16
 8002f46:	eef5 7ac0 	vcmpe.f32	s15, #0.0
 8002f4a:	eef1 fa10 	vmrs	APSR_nzcv, fpscr
 8002f4e:	d4f8      	bmi.n	8002f42 <make_sound.constprop.32+0x2f6>
 8002f50:	edc4 7a48 	vstr	s15, [r4, #288]	; 0x120
 8002f54:	eeb0 7a67 	vmov.f32	s14, s15
 8002f58:	eef4 7ac8 	vcmpe.f32	s15, s16
 8002f5c:	eef1 fa10 	vmrs	APSR_nzcv, fpscr
 8002f60:	db08      	blt.n	8002f74 <make_sound.constprop.32+0x328>
 8002f62:	ee37 7a48 	vsub.f32	s14, s14, s16
 8002f66:	eeb4 7ac8 	vcmpe.f32	s14, s16
 8002f6a:	eef1 fa10 	vmrs	APSR_nzcv, fpscr
 8002f6e:	daf8      	bge.n	8002f62 <make_sound.constprop.32+0x316>
 8002f70:	ed84 7a48 	vstr	s14, [r4, #288]	; 0x120
 8002f74:	ed9f 0a4c 	vldr	s0, [pc, #304]	; 80030a8 <make_sound.constprop.32+0x45c>
 8002f78:	edd4 8a45 	vldr	s17, [r4, #276]	; 0x114
 8002f7c:	ee27 0a00 	vmul.f32	s0, s14, s0
 8002f80:	f00b f996 	bl	800e2b0 <lrintf>
 8002f84:	eddb 6a05 	vldr	s13, [fp, #20]
 8002f88:	eddf 7a45 	vldr	s15, [pc, #276]	; 80030a0 <make_sound.constprop.32+0x454>
 8002f8c:	eddb 5a02 	vldr	s11, [fp, #8]
 8002f90:	ed9f 6a44 	vldr	s12, [pc, #272]	; 80030a4 <make_sound.constprop.32+0x458>
 8002f94:	ed9b 7a03 	vldr	s14, [fp, #12]
 8002f98:	ee66 7aa7 	vmul.f32	s15, s13, s15
 8002f9c:	eb08 0080 	add.w	r0, r8, r0, lsl #2
 8002fa0:	eee5 7a86 	vfma.f32	s15, s11, s12
 8002fa4:	edd0 6a00 	vldr	s13, [r0]
 8002fa8:	ee77 7a87 	vadd.f32	s15, s15, s14
 8002fac:	ee68 8aa6 	vmul.f32	s17, s17, s13
 8002fb0:	eef5 7ac0 	vcmpe.f32	s15, #0.0
 8002fb4:	eef1 fa10 	vmrs	APSR_nzcv, fpscr
 8002fb8:	edcb 7a03 	vstr	s15, [fp, #12]
 8002fbc:	edc4 8a4c 	vstr	s17, [r4, #304]	; 0x130
 8002fc0:	d508      	bpl.n	8002fd4 <make_sound.constprop.32+0x388>
 8002fc2:	ee77 7a88 	vadd.f32	s15, s15, s16
 8002fc6:	eef5 7ac0 	vcmpe.f32	s15, #0.0
 8002fca:	eef1 fa10 	vmrs	APSR_nzcv, fpscr
 8002fce:	d4f8      	bmi.n	8002fc2 <make_sound.constprop.32+0x376>
 8002fd0:	edcb 7a03 	vstr	s15, [fp, #12]
 8002fd4:	eef4 7ac8 	vcmpe.f32	s15, s16
 8002fd8:	eef1 fa10 	vmrs	APSR_nzcv, fpscr
 8002fdc:	db08      	blt.n	8002ff0 <make_sound.constprop.32+0x3a4>
 8002fde:	ee77 7ac8 	vsub.f32	s15, s15, s16
 8002fe2:	eef4 7ac8 	vcmpe.f32	s15, s16
 8002fe6:	eef1 fa10 	vmrs	APSR_nzcv, fpscr
 8002fea:	daf8      	bge.n	8002fde <make_sound.constprop.32+0x392>
 8002fec:	edcb 7a03 	vstr	s15, [fp, #12]
 8002ff0:	ed9f 0a2d 	vldr	s0, [pc, #180]	; 80030a8 <make_sound.constprop.32+0x45c>
 8002ff4:	eddb 8a00 	vldr	s17, [fp]
 8002ff8:	ee27 0a80 	vmul.f32	s0, s15, s0
 8002ffc:	f00b f958 	bl	800e2b0 <lrintf>
 8003000:	eb08 0080 	add.w	r0, r8, r0, lsl #2
 8003004:	edd0 6a00 	vldr	s13, [r0]
 8003008:	edda 7a05 	vldr	s15, [sl, #20]
 800300c:	edda 5a02 	vldr	s11, [sl, #8]
 8003010:	ed9f 6a24 	vldr	s12, [pc, #144]	; 80030a4 <make_sound.constprop.32+0x458>
 8003014:	ed9a 7a03 	vldr	s14, [sl, #12]
 8003018:	ee68 6aa6 	vmul.f32	s13, s17, s13
 800301c:	ee66 7aa7 	vmul.f32	s15, s13, s15
 8003020:	edcb 6a07 	vstr	s13, [fp, #28]
 8003024:	eee5 7a86 	vfma.f32	s15, s11, s12
 8003028:	ee77 7a87 	vadd.f32	s15, s15, s14
 800302c:	eef5 7ac0 	vcmpe.f32	s15, #0.0
 8003030:	eef1 fa10 	vmrs	APSR_nzcv, fpscr
 8003034:	edca 7a03 	vstr	s15, [sl, #12]
 8003038:	d508      	bpl.n	800304c <make_sound.constprop.32+0x400>
 800303a:	ee77 7a88 	vadd.f32	s15, s15, s16
 800303e:	eef5 7ac0 	vcmpe.f32	s15, #0.0
 8003042:	eef1 fa10 	vmrs	APSR_nzcv, fpscr
 8003046:	d4f8      	bmi.n	800303a <make_sound.constprop.32+0x3ee>
 8003048:	edca 7a03 	vstr	s15, [sl, #12]
 800304c:	eef4 7ac8 	vcmpe.f32	s15, s16
 8003050:	eef1 fa10 	vmrs	APSR_nzcv, fpscr
 8003054:	db08      	blt.n	8003068 <make_sound.constprop.32+0x41c>
 8003056:	ee77 7ac8 	vsub.f32	s15, s15, s16
 800305a:	eef4 7ac8 	vcmpe.f32	s15, s16
 800305e:	eef1 fa10 	vmrs	APSR_nzcv, fpscr
 8003062:	daf8      	bge.n	8003056 <make_sound.constprop.32+0x40a>
 8003064:	edca 7a03 	vstr	s15, [sl, #12]
 8003068:	ed9f 0a0f 	vldr	s0, [pc, #60]	; 80030a8 <make_sound.constprop.32+0x45c>
 800306c:	edda 8a00 	vldr	s17, [sl]
 8003070:	ee27 0a80 	vmul.f32	s0, s15, s0
 8003074:	f00b f91c 	bl	800e2b0 <lrintf>
 8003078:	eb08 0080 	add.w	r0, r8, r0, lsl #2
 800307c:	edd0 7a00 	vldr	s15, [r0]
 8003080:	ed94 7a4c 	vldr	s14, [r4, #304]	; 0x130
 8003084:	ee68 7aa7 	vmul.f32	s15, s17, s15
 8003088:	eef6 8a00 	vmov.f32	s17, #96	; 0x60
 800308c:	ee37 7a87 	vadd.f32	s14, s15, s14
 8003090:	edca 7a07 	vstr	s15, [sl, #28]
 8003094:	ee27 9a28 	vmul.f32	s18, s14, s17
 8003098:	e3f0      	b.n	800387c <make_sound.constprop.32+0xc30>
 800309a:	bf00      	nop
 800309c:	10000be8 	.word	0x10000be8
 80030a0:	00000000 	.word	0x00000000
 80030a4:	39156592 	.word	0x39156592
 80030a8:	4322f983 	.word	0x4322f983
 80030ac:	f8d4 3c40 	ldr.w	r3, [r4, #3136]	; 0xc40
 80030b0:	f8df a300 	ldr.w	sl, [pc, #768]	; 80033b4 <make_sound.constprop.32+0x768>
 80030b4:	f8d4 2c3c 	ldr.w	r2, [r4, #3132]	; 0xc3c
 80030b8:	ee06 3a90 	vmov	s13, r3
 80030bc:	f60a 4728 	addw	r7, sl, #3112	; 0xc28
 80030c0:	ed97 6a09 	vldr	s12, [r7, #36]	; 0x24
 80030c4:	ed97 7a07 	vldr	s14, [r7, #28]
 80030c8:	edd7 7a02 	vldr	s15, [r7, #8]
 80030cc:	eef8 6a66 	vcvt.f32.u32	s13, s13
 80030d0:	3301      	adds	r3, #1
 80030d2:	eea6 7a26 	vfma.f32	s14, s12, s13
 80030d6:	4293      	cmp	r3, r2
 80030d8:	f8c4 3c40 	str.w	r3, [r4, #3136]	; 0xc40
 80030dc:	ee27 7a27 	vmul.f32	s14, s14, s15
 80030e0:	ed87 7a0a 	vstr	s14, [r7, #40]	; 0x28
 80030e4:	f082 805e 	bcs.w	80051a4 <make_sound.constprop.32+0x2558>
 80030e8:	f8d4 3c6c 	ldr.w	r3, [r4, #3180]	; 0xc6c
 80030ec:	f8df a2c4 	ldr.w	sl, [pc, #708]	; 80033b4 <make_sound.constprop.32+0x768>
 80030f0:	f8df b2dc 	ldr.w	fp, [pc, #732]	; 80033d0 <make_sound.constprop.32+0x784>
 80030f4:	f8d4 2c68 	ldr.w	r2, [r4, #3176]	; 0xc68
 80030f8:	eddb 5a00 	vldr	s11, [fp]
 80030fc:	ee06 3a10 	vmov	s12, r3
 8003100:	f60a 4754 	addw	r7, sl, #3156	; 0xc54
 8003104:	eeb8 5a46 	vcvt.f32.u32	s10, s12
 8003108:	edd7 4a09 	vldr	s9, [r7, #36]	; 0x24
 800310c:	edd7 6a07 	vldr	s13, [r7, #28]
 8003110:	edd7 7a02 	vldr	s15, [r7, #8]
 8003114:	eeb7 6a00 	vmov.f32	s12, #112	; 0x70
 8003118:	ee37 7a06 	vadd.f32	s14, s14, s12
 800311c:	eee4 6a85 	vfma.f32	s13, s9, s10
 8003120:	3301      	adds	r3, #1
 8003122:	4293      	cmp	r3, r2
 8003124:	eeb3 6a09 	vmov.f32	s12, #57	; 0x39
 8003128:	eea7 6a25 	vfma.f32	s12, s14, s11
 800312c:	f8c4 3c6c 	str.w	r3, [r4, #3180]	; 0xc6c
 8003130:	ee66 6aa7 	vmul.f32	s13, s13, s15
 8003134:	ed84 6a47 	vstr	s12, [r4, #284]	; 0x11c
 8003138:	edc7 6a0a 	vstr	s13, [r7, #40]	; 0x28
 800313c:	f081 87a2 	bcs.w	8005084 <make_sound.constprop.32+0x2438>
 8003140:	f8d4 3c98 	ldr.w	r3, [r4, #3224]	; 0xc98
 8003144:	499b      	ldr	r1, [pc, #620]	; (80033b4 <make_sound.constprop.32+0x768>)
 8003146:	f8d4 2c94 	ldr.w	r2, [r4, #3220]	; 0xc94
 800314a:	ee06 3a10 	vmov	s12, r3
 800314e:	f501 6a48 	add.w	sl, r1, #3200	; 0xc80
 8003152:	eeb8 5a46 	vcvt.f32.u32	s10, s12
 8003156:	edda 4a09 	vldr	s9, [sl, #36]	; 0x24
 800315a:	edda 7a07 	vldr	s15, [sl, #28]
 800315e:	ed9a 7a02 	vldr	s14, [sl, #8]
 8003162:	eeb7 6a00 	vmov.f32	s12, #112	; 0x70
 8003166:	eee4 7a85 	vfma.f32	s15, s9, s10
 800316a:	3301      	adds	r3, #1
 800316c:	f601 37e8 	addw	r7, r1, #3048	; 0xbe8
 8003170:	ee76 6a86 	vadd.f32	s13, s13, s12
 8003174:	eeb3 4a09 	vmov.f32	s8, #57	; 0x39
 8003178:	eea6 4aa5 	vfma.f32	s8, s13, s11
 800317c:	4293      	cmp	r3, r2
 800317e:	f8c4 3c98 	str.w	r3, [r4, #3224]	; 0xc98
 8003182:	ee67 7a87 	vmul.f32	s15, s15, s14
 8003186:	ed87 4a02 	vstr	s8, [r7, #8]
 800318a:	edca 7a0a 	vstr	s15, [sl, #40]	; 0x28
 800318e:	f082 809b 	bcs.w	80052c8 <make_sound.constprop.32+0x267c>
 8003192:	eeb7 7a00 	vmov.f32	s14, #112	; 0x70
 8003196:	ee77 7a87 	vadd.f32	s15, s15, s14
 800319a:	eef3 4a09 	vmov.f32	s9, #57	; 0x39
 800319e:	eee7 4aa5 	vfma.f32	s9, s15, s11
 80031a2:	f8df a230 	ldr.w	sl, [pc, #560]	; 80033d4 <make_sound.constprop.32+0x788>
 80031a6:	edd4 7a48 	vldr	s15, [r4, #288]	; 0x120
 80031aa:	edca 4a02 	vstr	s9, [sl, #8]
 80031ae:	eef5 7ac0 	vcmpe.f32	s15, #0.0
 80031b2:	eef1 fa10 	vmrs	APSR_nzcv, fpscr
 80031b6:	d50d      	bpl.n	80031d4 <make_sound.constprop.32+0x588>
 80031b8:	ee77 7a88 	vadd.f32	s15, s15, s16
 80031bc:	eef5 7ac0 	vcmpe.f32	s15, #0.0
 80031c0:	eef1 fa10 	vmrs	APSR_nzcv, fpscr
 80031c4:	d4f8      	bmi.n	80031b8 <make_sound.constprop.32+0x56c>
 80031c6:	eef4 7ac8 	vcmpe.f32	s15, s16
 80031ca:	eef1 fa10 	vmrs	APSR_nzcv, fpscr
 80031ce:	db06      	blt.n	80031de <make_sound.constprop.32+0x592>
 80031d0:	ee77 7ac8 	vsub.f32	s15, s15, s16
 80031d4:	eef4 7ac8 	vcmpe.f32	s15, s16
 80031d8:	eef1 fa10 	vmrs	APSR_nzcv, fpscr
 80031dc:	daf8      	bge.n	80031d0 <make_sound.constprop.32+0x584>
 80031de:	ed94 5a47 	vldr	s10, [r4, #284]	; 0x11c
 80031e2:	ed9f 7a75 	vldr	s14, [pc, #468]	; 80033b8 <make_sound.constprop.32+0x76c>
 80031e6:	4b73      	ldr	r3, [pc, #460]	; (80033b4 <make_sound.constprop.32+0x768>)
 80031e8:	eeb4 5ac7 	vcmpe.f32	s10, s14
 80031ec:	eef1 fa10 	vmrs	APSR_nzcv, fpscr
 80031f0:	f141 85ec 	bpl.w	8004dcc <make_sound.constprop.32+0x2180>
 80031f4:	ed9f 7a71 	vldr	s14, [pc, #452]	; 80033bc <make_sound.constprop.32+0x770>
 80031f8:	eddf 6a71 	vldr	s13, [pc, #452]	; 80033c0 <make_sound.constprop.32+0x774>
 80031fc:	ee25 7a07 	vmul.f32	s14, s10, s14
 8003200:	eeb4 7ae6 	vcmpe.f32	s14, s13
 8003204:	eef1 fa10 	vmrs	APSR_nzcv, fpscr
 8003208:	f201 85e2 	bhi.w	8004dd0 <make_sound.constprop.32+0x2184>
 800320c:	eeb0 7a66 	vmov.f32	s14, s13
 8003210:	eef4 7ac7 	vcmpe.f32	s15, s14
 8003214:	eef1 fa10 	vmrs	APSR_nzcv, fpscr
 8003218:	edc3 6a49 	vstr	s13, [r3, #292]	; 0x124
 800321c:	f101 85e0 	bmi.w	8004de0 <make_sound.constprop.32+0x2194>
 8003220:	eddf 5a68 	vldr	s11, [pc, #416]	; 80033c4 <make_sound.constprop.32+0x778>
 8003224:	ed94 6a45 	vldr	s12, [r4, #276]	; 0x114
 8003228:	eef0 6a00 	vmov.f32	s13, #0
 800322c:	eee7 5aa6 	vfma.f32	s11, s15, s13
 8003230:	ee78 6a47 	vsub.f32	s13, s16, s14
 8003234:	ee35 7ac7 	vsub.f32	s14, s11, s14
 8003238:	ee27 7a06 	vmul.f32	s14, s14, s12
 800323c:	eec7 6a26 	vdiv.f32	s13, s14, s13
 8003240:	ed9f 6a61 	vldr	s12, [pc, #388]	; 80033c8 <make_sound.constprop.32+0x77c>
 8003244:	ed97 7a03 	vldr	s14, [r7, #12]
 8003248:	edc4 6a4c 	vstr	s13, [r4, #304]	; 0x130
 800324c:	eee5 7a06 	vfma.f32	s15, s10, s12
 8003250:	eeb5 7ac0 	vcmpe.f32	s14, #0.0
 8003254:	eef1 fa10 	vmrs	APSR_nzcv, fpscr
 8003258:	edc4 7a48 	vstr	s15, [r4, #288]	; 0x120
 800325c:	d508      	bpl.n	8003270 <make_sound.constprop.32+0x624>
 800325e:	ee37 7a08 	vadd.f32	s14, s14, s16
 8003262:	eeb5 7ac0 	vcmpe.f32	s14, #0.0
 8003266:	eef1 fa10 	vmrs	APSR_nzcv, fpscr
 800326a:	d4f8      	bmi.n	800325e <make_sound.constprop.32+0x612>
 800326c:	ed87 7a03 	vstr	s14, [r7, #12]
 8003270:	eeb4 7ac8 	vcmpe.f32	s14, s16
 8003274:	eef1 fa10 	vmrs	APSR_nzcv, fpscr
 8003278:	db08      	blt.n	800328c <make_sound.constprop.32+0x640>
 800327a:	ee37 7a48 	vsub.f32	s14, s14, s16
 800327e:	eeb4 7ac8 	vcmpe.f32	s14, s16
 8003282:	eef1 fa10 	vmrs	APSR_nzcv, fpscr
 8003286:	daf8      	bge.n	800327a <make_sound.constprop.32+0x62e>
 8003288:	ed87 7a03 	vstr	s14, [r7, #12]
 800328c:	eddf 7a4a 	vldr	s15, [pc, #296]	; 80033b8 <make_sound.constprop.32+0x76c>
 8003290:	eeb4 4ae7 	vcmpe.f32	s8, s15
 8003294:	eef1 fa10 	vmrs	APSR_nzcv, fpscr
 8003298:	f142 8229 	bpl.w	80056ee <make_sound.constprop.32+0x2aa2>
 800329c:	eddf 7a47 	vldr	s15, [pc, #284]	; 80033bc <make_sound.constprop.32+0x770>
 80032a0:	ed9f 6a47 	vldr	s12, [pc, #284]	; 80033c0 <make_sound.constprop.32+0x774>
 80032a4:	ee64 7a27 	vmul.f32	s15, s8, s15
 80032a8:	eef4 7ac6 	vcmpe.f32	s15, s12
 80032ac:	eef1 fa10 	vmrs	APSR_nzcv, fpscr
 80032b0:	f202 821f 	bhi.w	80056f2 <make_sound.constprop.32+0x2aa6>
 80032b4:	eef0 7a46 	vmov.f32	s15, s12
 80032b8:	eeb4 7ae7 	vcmpe.f32	s14, s15
 80032bc:	eef1 fa10 	vmrs	APSR_nzcv, fpscr
 80032c0:	ed87 6a04 	vstr	s12, [r7, #16]
 80032c4:	f102 821d 	bmi.w	8005702 <make_sound.constprop.32+0x2ab6>
 80032c8:	ed9f 5a3e 	vldr	s10, [pc, #248]	; 80033c4 <make_sound.constprop.32+0x778>
 80032cc:	edd7 5a00 	vldr	s11, [r7]
 80032d0:	eeb0 6a00 	vmov.f32	s12, #0
 80032d4:	eea7 5a06 	vfma.f32	s10, s14, s12
 80032d8:	ee38 6a67 	vsub.f32	s12, s16, s15
 80032dc:	ee75 7a67 	vsub.f32	s15, s10, s15
 80032e0:	ee67 7aa5 	vmul.f32	s15, s15, s11
 80032e4:	ee87 6a86 	vdiv.f32	s12, s15, s12
 80032e8:	eddf 5a37 	vldr	s11, [pc, #220]	; 80033c8 <make_sound.constprop.32+0x77c>
 80032ec:	edda 7a03 	vldr	s15, [sl, #12]
 80032f0:	ed87 6a07 	vstr	s12, [r7, #28]
 80032f4:	eea4 7a25 	vfma.f32	s14, s8, s11
 80032f8:	eef5 7ac0 	vcmpe.f32	s15, #0.0
 80032fc:	eef1 fa10 	vmrs	APSR_nzcv, fpscr
 8003300:	ee76 6a86 	vadd.f32	s13, s13, s12
 8003304:	ed87 7a03 	vstr	s14, [r7, #12]
 8003308:	d508      	bpl.n	800331c <make_sound.constprop.32+0x6d0>
 800330a:	ee77 7a88 	vadd.f32	s15, s15, s16
 800330e:	eef5 7ac0 	vcmpe.f32	s15, #0.0
 8003312:	eef1 fa10 	vmrs	APSR_nzcv, fpscr
 8003316:	d4f8      	bmi.n	800330a <make_sound.constprop.32+0x6be>
 8003318:	edca 7a03 	vstr	s15, [sl, #12]
 800331c:	eef4 7ac8 	vcmpe.f32	s15, s16
 8003320:	eef1 fa10 	vmrs	APSR_nzcv, fpscr
 8003324:	db08      	blt.n	8003338 <make_sound.constprop.32+0x6ec>
 8003326:	ee77 7ac8 	vsub.f32	s15, s15, s16
 800332a:	eef4 7ac8 	vcmpe.f32	s15, s16
 800332e:	eef1 fa10 	vmrs	APSR_nzcv, fpscr
 8003332:	daf8      	bge.n	8003326 <make_sound.constprop.32+0x6da>
 8003334:	edca 7a03 	vstr	s15, [sl, #12]
 8003338:	ed9f 7a1f 	vldr	s14, [pc, #124]	; 80033b8 <make_sound.constprop.32+0x76c>
 800333c:	eef4 4ac7 	vcmpe.f32	s9, s14
 8003340:	eef1 fa10 	vmrs	APSR_nzcv, fpscr
 8003344:	f142 8010 	bpl.w	8005368 <make_sound.constprop.32+0x271c>
 8003348:	ed9f 7a1c 	vldr	s14, [pc, #112]	; 80033bc <make_sound.constprop.32+0x770>
 800334c:	ed9f 6a1c 	vldr	s12, [pc, #112]	; 80033c0 <make_sound.constprop.32+0x774>
 8003350:	ee24 7a87 	vmul.f32	s14, s9, s14
 8003354:	eeb4 7ac6 	vcmpe.f32	s14, s12
 8003358:	eef1 fa10 	vmrs	APSR_nzcv, fpscr
 800335c:	f202 8006 	bhi.w	800536c <make_sound.constprop.32+0x2720>
 8003360:	eeb0 7a46 	vmov.f32	s14, s12
 8003364:	eef4 7ac7 	vcmpe.f32	s15, s14
 8003368:	eef1 fa10 	vmrs	APSR_nzcv, fpscr
 800336c:	ed8a 6a04 	vstr	s12, [sl, #16]
 8003370:	f102 8004 	bmi.w	800537c <make_sound.constprop.32+0x2730>
 8003374:	ed9f 5a13 	vldr	s10, [pc, #76]	; 80033c4 <make_sound.constprop.32+0x778>
 8003378:	edda 5a00 	vldr	s11, [sl]
 800337c:	eeb0 6a00 	vmov.f32	s12, #0
 8003380:	eea7 5a86 	vfma.f32	s10, s15, s12
 8003384:	ee38 6a47 	vsub.f32	s12, s16, s14
 8003388:	ee35 7a47 	vsub.f32	s14, s10, s14
 800338c:	ee27 7a25 	vmul.f32	s14, s14, s11
 8003390:	ee87 7a06 	vdiv.f32	s14, s14, s12
 8003394:	ed9f 6a0c 	vldr	s12, [pc, #48]	; 80033c8 <make_sound.constprop.32+0x77c>
 8003398:	eddf 8a0c 	vldr	s17, [pc, #48]	; 80033cc <make_sound.constprop.32+0x780>
 800339c:	ed8a 7a07 	vstr	s14, [sl, #28]
 80033a0:	eee4 7a86 	vfma.f32	s15, s9, s12
 80033a4:	ee76 6a87 	vadd.f32	s13, s13, s14
 80033a8:	edca 7a03 	vstr	s15, [sl, #12]
 80033ac:	ee26 9aa8 	vmul.f32	s18, s13, s17
 80033b0:	e264      	b.n	800387c <make_sound.constprop.32+0xc30>
 80033b2:	bf00      	nop
 80033b4:	10000000 	.word	0x10000000
 80033b8:	45fa0000 	.word	0x45fa0000
 80033bc:	39cde32e 	.word	0x39cde32e
 80033c0:	38d1b717 	.word	0x38d1b717
 80033c4:	c0c90fdb 	.word	0xc0c90fdb
 80033c8:	39156592 	.word	0x39156592
 80033cc:	3ea8f5c3 	.word	0x3ea8f5c3
 80033d0:	20000054 	.word	0x20000054
 80033d4:	10000c08 	.word	0x10000c08
 80033d8:	f8d4 3c40 	ldr.w	r3, [r4, #3136]	; 0xc40
 80033dc:	f8df a44c 	ldr.w	sl, [pc, #1100]	; 800382c <make_sound.constprop.32+0xbe0>
 80033e0:	f8d4 2c3c 	ldr.w	r2, [r4, #3132]	; 0xc3c
 80033e4:	ee07 3a10 	vmov	s14, r3
 80033e8:	f60a 4728 	addw	r7, sl, #3112	; 0xc28
 80033ec:	ed97 6a09 	vldr	s12, [r7, #36]	; 0x24
 80033f0:	edd7 6a07 	vldr	s13, [r7, #28]
 80033f4:	edd7 7a02 	vldr	s15, [r7, #8]
 80033f8:	eeb8 7a47 	vcvt.f32.u32	s14, s14
 80033fc:	3301      	adds	r3, #1
 80033fe:	eee6 6a07 	vfma.f32	s13, s12, s14
 8003402:	4293      	cmp	r3, r2
 8003404:	f8c4 3c40 	str.w	r3, [r4, #3136]	; 0xc40
 8003408:	ee66 6aa7 	vmul.f32	s13, s13, s15
 800340c:	edc7 6a0a 	vstr	s13, [r7, #40]	; 0x28
 8003410:	f081 8681 	bcs.w	8005116 <make_sound.constprop.32+0x24ca>
 8003414:	f8d4 3c6c 	ldr.w	r3, [r4, #3180]	; 0xc6c
 8003418:	f8df b410 	ldr.w	fp, [pc, #1040]	; 800382c <make_sound.constprop.32+0xbe0>
 800341c:	f8d4 2c68 	ldr.w	r2, [r4, #3176]	; 0xc68
 8003420:	ee06 3a10 	vmov	s12, r3
 8003424:	f60b 4a54 	addw	sl, fp, #3156	; 0xc54
 8003428:	edda 5a09 	vldr	s11, [sl, #36]	; 0x24
 800342c:	edda 7a07 	vldr	s15, [sl, #28]
 8003430:	ed9a 7a02 	vldr	s14, [sl, #8]
 8003434:	eeb8 6a46 	vcvt.f32.u32	s12, s12
 8003438:	eef7 4a00 	vmov.f32	s9, #112	; 0x70
 800343c:	eee5 7a86 	vfma.f32	s15, s11, s12
 8003440:	3301      	adds	r3, #1
 8003442:	f60b 37e8 	addw	r7, fp, #3048	; 0xbe8
 8003446:	ee76 6aa4 	vadd.f32	s13, s13, s9
 800344a:	ee67 7a87 	vmul.f32	s15, s15, s14
 800344e:	ee69 4aa6 	vmul.f32	s9, s19, s13
 8003452:	4293      	cmp	r3, r2
 8003454:	f8c4 3c6c 	str.w	r3, [r4, #3180]	; 0xc6c
 8003458:	edca 7a0a 	vstr	s15, [sl, #40]	; 0x28
 800345c:	edc7 4a02 	vstr	s9, [r7, #8]
 8003460:	f081 86e7 	bcs.w	8005232 <make_sound.constprop.32+0x25e6>
 8003464:	eeb7 7a00 	vmov.f32	s14, #112	; 0x70
 8003468:	ee37 7a87 	vadd.f32	s14, s15, s14
 800346c:	edd4 7a48 	vldr	s15, [r4, #288]	; 0x120
 8003470:	f8df a3d8 	ldr.w	sl, [pc, #984]	; 800384c <make_sound.constprop.32+0xc00>
 8003474:	ee69 9a87 	vmul.f32	s19, s19, s14
 8003478:	eef5 7ac0 	vcmpe.f32	s15, #0.0
 800347c:	eef1 fa10 	vmrs	APSR_nzcv, fpscr
 8003480:	edca 9a02 	vstr	s19, [sl, #8]
 8003484:	d50d      	bpl.n	80034a2 <make_sound.constprop.32+0x856>
 8003486:	ee77 7a88 	vadd.f32	s15, s15, s16
 800348a:	eef5 7ac0 	vcmpe.f32	s15, #0.0
 800348e:	eef1 fa10 	vmrs	APSR_nzcv, fpscr
 8003492:	d4f8      	bmi.n	8003486 <make_sound.constprop.32+0x83a>
 8003494:	eef4 7ac8 	vcmpe.f32	s15, s16
 8003498:	eef1 fa10 	vmrs	APSR_nzcv, fpscr
 800349c:	db06      	blt.n	80034ac <make_sound.constprop.32+0x860>
 800349e:	ee77 7ac8 	vsub.f32	s15, s15, s16
 80034a2:	eef4 7ac8 	vcmpe.f32	s15, s16
 80034a6:	eef1 fa10 	vmrs	APSR_nzcv, fpscr
 80034aa:	daf8      	bge.n	800349e <make_sound.constprop.32+0x852>
 80034ac:	ed94 5a47 	vldr	s10, [r4, #284]	; 0x11c
 80034b0:	ed9f 7add 	vldr	s14, [pc, #884]	; 8003828 <make_sound.constprop.32+0xbdc>
 80034b4:	4bdd      	ldr	r3, [pc, #884]	; (800382c <make_sound.constprop.32+0xbe0>)
 80034b6:	eeb4 5ac7 	vcmpe.f32	s10, s14
 80034ba:	eef1 fa10 	vmrs	APSR_nzcv, fpscr
 80034be:	f101 849d 	bmi.w	8004dfc <make_sound.constprop.32+0x21b0>
 80034c2:	ed9f 7adb 	vldr	s14, [pc, #876]	; 8003830 <make_sound.constprop.32+0xbe4>
 80034c6:	ed83 7a49 	vstr	s14, [r3, #292]	; 0x124
 80034ca:	eef4 7ac7 	vcmpe.f32	s15, s14
 80034ce:	eef1 fa10 	vmrs	APSR_nzcv, fpscr
 80034d2:	f101 84a9 	bmi.w	8004e28 <make_sound.constprop.32+0x21dc>
 80034d6:	eddf 5ad7 	vldr	s11, [pc, #860]	; 8003834 <make_sound.constprop.32+0xbe8>
 80034da:	ed94 6a45 	vldr	s12, [r4, #276]	; 0x114
 80034de:	eef0 6a00 	vmov.f32	s13, #0
 80034e2:	eee7 5aa6 	vfma.f32	s11, s15, s13
 80034e6:	ee78 6a47 	vsub.f32	s13, s16, s14
 80034ea:	ee35 7ac7 	vsub.f32	s14, s11, s14
 80034ee:	ee27 7a06 	vmul.f32	s14, s14, s12
 80034f2:	eec7 6a26 	vdiv.f32	s13, s14, s13
 80034f6:	ed9f 6ad0 	vldr	s12, [pc, #832]	; 8003838 <make_sound.constprop.32+0xbec>
 80034fa:	ed97 7a03 	vldr	s14, [r7, #12]
 80034fe:	edc4 6a4c 	vstr	s13, [r4, #304]	; 0x130
 8003502:	eee5 7a06 	vfma.f32	s15, s10, s12
 8003506:	eeb5 7ac0 	vcmpe.f32	s14, #0.0
 800350a:	eef1 fa10 	vmrs	APSR_nzcv, fpscr
 800350e:	edc4 7a48 	vstr	s15, [r4, #288]	; 0x120
 8003512:	d508      	bpl.n	8003526 <make_sound.constprop.32+0x8da>
 8003514:	ee37 7a08 	vadd.f32	s14, s14, s16
 8003518:	eeb5 7ac0 	vcmpe.f32	s14, #0.0
 800351c:	eef1 fa10 	vmrs	APSR_nzcv, fpscr
 8003520:	d4f8      	bmi.n	8003514 <make_sound.constprop.32+0x8c8>
 8003522:	ed87 7a03 	vstr	s14, [r7, #12]
 8003526:	eeb4 7ac8 	vcmpe.f32	s14, s16
 800352a:	eef1 fa10 	vmrs	APSR_nzcv, fpscr
 800352e:	db08      	blt.n	8003542 <make_sound.constprop.32+0x8f6>
 8003530:	ee37 7a48 	vsub.f32	s14, s14, s16
 8003534:	eeb4 7ac8 	vcmpe.f32	s14, s16
 8003538:	eef1 fa10 	vmrs	APSR_nzcv, fpscr
 800353c:	daf8      	bge.n	8003530 <make_sound.constprop.32+0x8e4>
 800353e:	ed87 7a03 	vstr	s14, [r7, #12]
 8003542:	eddf 7ab9 	vldr	s15, [pc, #740]	; 8003828 <make_sound.constprop.32+0xbdc>
 8003546:	eef4 4ae7 	vcmpe.f32	s9, s15
 800354a:	eef1 fa10 	vmrs	APSR_nzcv, fpscr
 800354e:	f142 8048 	bpl.w	80055e2 <make_sound.constprop.32+0x2996>
 8003552:	eddf 7aba 	vldr	s15, [pc, #744]	; 800383c <make_sound.constprop.32+0xbf0>
 8003556:	ed9f 6aba 	vldr	s12, [pc, #744]	; 8003840 <make_sound.constprop.32+0xbf4>
 800355a:	ee64 7aa7 	vmul.f32	s15, s9, s15
 800355e:	eef4 7ac6 	vcmpe.f32	s15, s12
 8003562:	eef1 fa10 	vmrs	APSR_nzcv, fpscr
 8003566:	f202 803e 	bhi.w	80055e6 <make_sound.constprop.32+0x299a>
 800356a:	eef0 7a46 	vmov.f32	s15, s12
 800356e:	eeb4 7ae7 	vcmpe.f32	s14, s15
 8003572:	eef1 fa10 	vmrs	APSR_nzcv, fpscr
 8003576:	ed87 6a04 	vstr	s12, [r7, #16]
 800357a:	f102 803c 	bmi.w	80055f6 <make_sound.constprop.32+0x29aa>
 800357e:	ed9f 5aad 	vldr	s10, [pc, #692]	; 8003834 <make_sound.constprop.32+0xbe8>
 8003582:	edd7 5a00 	vldr	s11, [r7]
 8003586:	eeb0 6a00 	vmov.f32	s12, #0
 800358a:	eea7 5a06 	vfma.f32	s10, s14, s12
 800358e:	ee38 6a67 	vsub.f32	s12, s16, s15
 8003592:	ee75 7a67 	vsub.f32	s15, s10, s15
 8003596:	ee67 7aa5 	vmul.f32	s15, s15, s11
 800359a:	ee87 6a86 	vdiv.f32	s12, s15, s12
 800359e:	eddf 5aa6 	vldr	s11, [pc, #664]	; 8003838 <make_sound.constprop.32+0xbec>
 80035a2:	edda 7a03 	vldr	s15, [sl, #12]
 80035a6:	ed87 6a07 	vstr	s12, [r7, #28]
 80035aa:	eea4 7aa5 	vfma.f32	s14, s9, s11
 80035ae:	eef5 7ac0 	vcmpe.f32	s15, #0.0
 80035b2:	eef1 fa10 	vmrs	APSR_nzcv, fpscr
 80035b6:	ee76 6a86 	vadd.f32	s13, s13, s12
 80035ba:	ed87 7a03 	vstr	s14, [r7, #12]
 80035be:	d508      	bpl.n	80035d2 <make_sound.constprop.32+0x986>
 80035c0:	ee77 7a88 	vadd.f32	s15, s15, s16
 80035c4:	eef5 7ac0 	vcmpe.f32	s15, #0.0
 80035c8:	eef1 fa10 	vmrs	APSR_nzcv, fpscr
 80035cc:	d4f8      	bmi.n	80035c0 <make_sound.constprop.32+0x974>
 80035ce:	edca 7a03 	vstr	s15, [sl, #12]
 80035d2:	eef4 7ac8 	vcmpe.f32	s15, s16
 80035d6:	eef1 fa10 	vmrs	APSR_nzcv, fpscr
 80035da:	db08      	blt.n	80035ee <make_sound.constprop.32+0x9a2>
 80035dc:	ee77 7ac8 	vsub.f32	s15, s15, s16
 80035e0:	eef4 7ac8 	vcmpe.f32	s15, s16
 80035e4:	eef1 fa10 	vmrs	APSR_nzcv, fpscr
 80035e8:	daf8      	bge.n	80035dc <make_sound.constprop.32+0x990>
 80035ea:	edca 7a03 	vstr	s15, [sl, #12]
 80035ee:	ed9f 7a8e 	vldr	s14, [pc, #568]	; 8003828 <make_sound.constprop.32+0xbdc>
 80035f2:	eef4 9ac7 	vcmpe.f32	s19, s14
 80035f6:	eef1 fa10 	vmrs	APSR_nzcv, fpscr
 80035fa:	f141 86ee 	bpl.w	80053da <make_sound.constprop.32+0x278e>
 80035fe:	ed9f 7a8f 	vldr	s14, [pc, #572]	; 800383c <make_sound.constprop.32+0xbf0>
 8003602:	ed9f 6a8f 	vldr	s12, [pc, #572]	; 8003840 <make_sound.constprop.32+0xbf4>
 8003606:	ee29 7a87 	vmul.f32	s14, s19, s14
 800360a:	eeb4 7ac6 	vcmpe.f32	s14, s12
 800360e:	eef1 fa10 	vmrs	APSR_nzcv, fpscr
 8003612:	f201 86e4 	bhi.w	80053de <make_sound.constprop.32+0x2792>
 8003616:	eeb0 7a46 	vmov.f32	s14, s12
 800361a:	eef4 7ac7 	vcmpe.f32	s15, s14
 800361e:	eef1 fa10 	vmrs	APSR_nzcv, fpscr
 8003622:	ed8a 6a04 	vstr	s12, [sl, #16]
 8003626:	f101 86e2 	bmi.w	80053ee <make_sound.constprop.32+0x27a2>
 800362a:	ed9f 5a82 	vldr	s10, [pc, #520]	; 8003834 <make_sound.constprop.32+0xbe8>
 800362e:	edda 5a00 	vldr	s11, [sl]
 8003632:	eeb0 6a00 	vmov.f32	s12, #0
 8003636:	eea7 5a86 	vfma.f32	s10, s15, s12
 800363a:	ee38 6a47 	vsub.f32	s12, s16, s14
 800363e:	ee35 7a47 	vsub.f32	s14, s10, s14
 8003642:	ee27 7a25 	vmul.f32	s14, s14, s11
 8003646:	ee87 7a06 	vdiv.f32	s14, s14, s12
 800364a:	ed9f 6a7b 	vldr	s12, [pc, #492]	; 8003838 <make_sound.constprop.32+0xbec>
 800364e:	eddf 8a7d 	vldr	s17, [pc, #500]	; 8003844 <make_sound.constprop.32+0xbf8>
 8003652:	ed8a 7a07 	vstr	s14, [sl, #28]
 8003656:	eee9 7a86 	vfma.f32	s15, s19, s12
 800365a:	ee76 6a87 	vadd.f32	s13, s13, s14
 800365e:	edca 7a03 	vstr	s15, [sl, #12]
 8003662:	ee26 9aa8 	vmul.f32	s18, s13, s17
 8003666:	e109      	b.n	800387c <make_sound.constprop.32+0xc30>
 8003668:	ed94 0a48 	vldr	s0, [r4, #288]	; 0x120
 800366c:	eeb5 0ac0 	vcmpe.f32	s0, #0.0
 8003670:	eef1 fa10 	vmrs	APSR_nzcv, fpscr
 8003674:	d508      	bpl.n	8003688 <make_sound.constprop.32+0xa3c>
 8003676:	ee30 0a08 	vadd.f32	s0, s0, s16
 800367a:	eeb5 0ac0 	vcmpe.f32	s0, #0.0
 800367e:	eef1 fa10 	vmrs	APSR_nzcv, fpscr
 8003682:	d4f8      	bmi.n	8003676 <make_sound.constprop.32+0xa2a>
 8003684:	ed84 0a48 	vstr	s0, [r4, #288]	; 0x120
 8003688:	eeb4 0ac8 	vcmpe.f32	s0, s16
 800368c:	eef1 fa10 	vmrs	APSR_nzcv, fpscr
 8003690:	db08      	blt.n	80036a4 <make_sound.constprop.32+0xa58>
 8003692:	ee30 0a48 	vsub.f32	s0, s0, s16
 8003696:	eeb4 0ac8 	vcmpe.f32	s0, s16
 800369a:	eef1 fa10 	vmrs	APSR_nzcv, fpscr
 800369e:	daf8      	bge.n	8003692 <make_sound.constprop.32+0xa46>
 80036a0:	ed84 0a48 	vstr	s0, [r4, #288]	; 0x120
 80036a4:	f00a feb2 	bl	800e40c <sinf>
 80036a8:	edd4 7a45 	vldr	s15, [r4, #276]	; 0x114
 80036ac:	ed94 7a48 	vldr	s14, [r4, #288]	; 0x120
 80036b0:	ed94 6a47 	vldr	s12, [r4, #284]	; 0x11c
 80036b4:	eddf 6a60 	vldr	s13, [pc, #384]	; 8003838 <make_sound.constprop.32+0xbec>
 80036b8:	ee60 7a27 	vmul.f32	s15, s0, s15
 80036bc:	eea6 7a26 	vfma.f32	s14, s12, s13
 80036c0:	ee60 7a27 	vmul.f32	s15, s0, s15
 80036c4:	ed84 7a48 	vstr	s14, [r4, #288]	; 0x120
 80036c8:	ee60 7a27 	vmul.f32	s15, s0, s15
 80036cc:	ee60 7a27 	vmul.f32	s15, s0, s15
 80036d0:	ee20 9a27 	vmul.f32	s18, s0, s15
 80036d4:	ed84 9a4c 	vstr	s18, [r4, #304]	; 0x130
 80036d8:	e0d0      	b.n	800387c <make_sound.constprop.32+0xc30>
 80036da:	ed94 7a48 	vldr	s14, [r4, #288]	; 0x120
 80036de:	4f5a      	ldr	r7, [pc, #360]	; (8003848 <make_sound.constprop.32+0xbfc>)
 80036e0:	eef7 4a08 	vmov.f32	s9, #120	; 0x78
 80036e4:	ee69 4aa4 	vmul.f32	s9, s19, s9
 80036e8:	eeb5 7ac0 	vcmpe.f32	s14, #0.0
 80036ec:	eef1 fa10 	vmrs	APSR_nzcv, fpscr
 80036f0:	edc7 4a02 	vstr	s9, [r7, #8]
 80036f4:	d50d      	bpl.n	8003712 <make_sound.constprop.32+0xac6>
 80036f6:	ee37 7a08 	vadd.f32	s14, s14, s16
 80036fa:	eeb5 7ac0 	vcmpe.f32	s14, #0.0
 80036fe:	eef1 fa10 	vmrs	APSR_nzcv, fpscr
 8003702:	d4f8      	bmi.n	80036f6 <make_sound.constprop.32+0xaaa>
 8003704:	eeb4 7ac8 	vcmpe.f32	s14, s16
 8003708:	eef1 fa10 	vmrs	APSR_nzcv, fpscr
 800370c:	db06      	blt.n	800371c <make_sound.constprop.32+0xad0>
 800370e:	ee37 7a48 	vsub.f32	s14, s14, s16
 8003712:	eeb4 7ac8 	vcmpe.f32	s14, s16
 8003716:	eef1 fa10 	vmrs	APSR_nzcv, fpscr
 800371a:	daf8      	bge.n	800370e <make_sound.constprop.32+0xac2>
 800371c:	eddf 7a42 	vldr	s15, [pc, #264]	; 8003828 <make_sound.constprop.32+0xbdc>
 8003720:	eef4 9ae7 	vcmpe.f32	s19, s15
 8003724:	eef1 fa10 	vmrs	APSR_nzcv, fpscr
 8003728:	f101 83b0 	bmi.w	8004e8c <make_sound.constprop.32+0x2240>
 800372c:	eddf 7a40 	vldr	s15, [pc, #256]	; 8003830 <make_sound.constprop.32+0xbe4>
 8003730:	edc4 7a49 	vstr	s15, [r4, #292]	; 0x124
 8003734:	eeb4 7ae7 	vcmpe.f32	s14, s15
 8003738:	eef1 fa10 	vmrs	APSR_nzcv, fpscr
 800373c:	f101 83bc 	bmi.w	8004eb8 <make_sound.constprop.32+0x226c>
 8003740:	eddf 5a3c 	vldr	s11, [pc, #240]	; 8003834 <make_sound.constprop.32+0xbe8>
 8003744:	ed94 6a45 	vldr	s12, [r4, #276]	; 0x114
 8003748:	eef0 6a00 	vmov.f32	s13, #0
 800374c:	eee7 5a26 	vfma.f32	s11, s14, s13
 8003750:	ee78 6a67 	vsub.f32	s13, s16, s15
 8003754:	ee75 7ae7 	vsub.f32	s15, s11, s15
 8003758:	ee67 7a86 	vmul.f32	s15, s15, s12
 800375c:	eec7 6aa6 	vdiv.f32	s13, s15, s13
 8003760:	ed9f 6a35 	vldr	s12, [pc, #212]	; 8003838 <make_sound.constprop.32+0xbec>
 8003764:	edd7 7a03 	vldr	s15, [r7, #12]
 8003768:	edc4 6a4c 	vstr	s13, [r4, #304]	; 0x130
 800376c:	eea9 7a86 	vfma.f32	s14, s19, s12
 8003770:	eef5 7ac0 	vcmpe.f32	s15, #0.0
 8003774:	eef1 fa10 	vmrs	APSR_nzcv, fpscr
 8003778:	ed84 7a48 	vstr	s14, [r4, #288]	; 0x120
 800377c:	d508      	bpl.n	8003790 <make_sound.constprop.32+0xb44>
 800377e:	ee77 7a88 	vadd.f32	s15, s15, s16
 8003782:	eef5 7ac0 	vcmpe.f32	s15, #0.0
 8003786:	eef1 fa10 	vmrs	APSR_nzcv, fpscr
 800378a:	d4f8      	bmi.n	800377e <make_sound.constprop.32+0xb32>
 800378c:	edc7 7a03 	vstr	s15, [r7, #12]
 8003790:	eef4 7ac8 	vcmpe.f32	s15, s16
 8003794:	eef1 fa10 	vmrs	APSR_nzcv, fpscr
 8003798:	db08      	blt.n	80037ac <make_sound.constprop.32+0xb60>
 800379a:	ee77 7ac8 	vsub.f32	s15, s15, s16
 800379e:	eef4 7ac8 	vcmpe.f32	s15, s16
 80037a2:	eef1 fa10 	vmrs	APSR_nzcv, fpscr
 80037a6:	daf8      	bge.n	800379a <make_sound.constprop.32+0xb4e>
 80037a8:	edc7 7a03 	vstr	s15, [r7, #12]
 80037ac:	ed9f 7a1e 	vldr	s14, [pc, #120]	; 8003828 <make_sound.constprop.32+0xbdc>
 80037b0:	eef4 4ac7 	vcmpe.f32	s9, s14
 80037b4:	eef1 fa10 	vmrs	APSR_nzcv, fpscr
 80037b8:	f141 8627 	bpl.w	800540a <make_sound.constprop.32+0x27be>
 80037bc:	ed9f 7a1f 	vldr	s14, [pc, #124]	; 800383c <make_sound.constprop.32+0xbf0>
 80037c0:	ed9f 6a1f 	vldr	s12, [pc, #124]	; 8003840 <make_sound.constprop.32+0xbf4>
 80037c4:	ee24 7a87 	vmul.f32	s14, s9, s14
 80037c8:	eeb4 7ac6 	vcmpe.f32	s14, s12
 80037cc:	eef1 fa10 	vmrs	APSR_nzcv, fpscr
 80037d0:	f201 861d 	bhi.w	800540e <make_sound.constprop.32+0x27c2>
 80037d4:	eeb0 7a46 	vmov.f32	s14, s12
 80037d8:	eef4 7ac7 	vcmpe.f32	s15, s14
 80037dc:	eef1 fa10 	vmrs	APSR_nzcv, fpscr
 80037e0:	ed87 6a04 	vstr	s12, [r7, #16]
 80037e4:	f101 861b 	bmi.w	800541e <make_sound.constprop.32+0x27d2>
 80037e8:	ed9f 5a12 	vldr	s10, [pc, #72]	; 8003834 <make_sound.constprop.32+0xbe8>
 80037ec:	edd7 5a00 	vldr	s11, [r7]
 80037f0:	eeb0 6a00 	vmov.f32	s12, #0
 80037f4:	eea7 5a86 	vfma.f32	s10, s15, s12
 80037f8:	ee38 6a47 	vsub.f32	s12, s16, s14
 80037fc:	ee35 7a47 	vsub.f32	s14, s10, s14
 8003800:	ee27 7a25 	vmul.f32	s14, s14, s11
 8003804:	ee87 7a06 	vdiv.f32	s14, s14, s12
 8003808:	ed9f 6a0b 	vldr	s12, [pc, #44]	; 8003838 <make_sound.constprop.32+0xbec>
 800380c:	ed87 7a07 	vstr	s14, [r7, #28]
 8003810:	eee4 7a86 	vfma.f32	s15, s9, s12
 8003814:	ee36 7a87 	vadd.f32	s14, s13, s14
 8003818:	eef6 8a00 	vmov.f32	s17, #96	; 0x60
 800381c:	ee27 9a28 	vmul.f32	s18, s14, s17
 8003820:	edc7 7a03 	vstr	s15, [r7, #12]
 8003824:	e02a      	b.n	800387c <make_sound.constprop.32+0xc30>
 8003826:	bf00      	nop
 8003828:	45fa0000 	.word	0x45fa0000
 800382c:	10000000 	.word	0x10000000
 8003830:	40490fdb 	.word	0x40490fdb
 8003834:	c0c90fdb 	.word	0xc0c90fdb
 8003838:	39156592 	.word	0x39156592
 800383c:	39cde32e 	.word	0x39cde32e
 8003840:	38d1b717 	.word	0x38d1b717
 8003844:	3ea8f5c3 	.word	0x3ea8f5c3
 8003848:	10000be8 	.word	0x10000be8
 800384c:	10000c08 	.word	0x10000c08
 8003850:	3fcccccd 	.word	0x3fcccccd
 8003854:	bf4ccccd 	.word	0xbf4ccccd
 8003858:	edd4 8a45 	vldrmi	s17, [r4, #276]	; 0x114
 800385c:	f00c fc5a 	blpl	8010114 <rand>
 8003860:	ee07 0a90 	vmov	s15, r0
 8003864:	eeb8 7ae7 	vcvt.f32.s32	s14, s15
 8003868:	ed5f 6a07 	vldr	s13, [pc, #-28]	; 8003850 <make_sound.constprop.32+0xc04>
 800386c:	ed5f 7a07 	vldr	s15, [pc, #-28]	; 8003854 <make_sound.constprop.32+0xc08>
 8003870:	ee27 7a0a 	vmul.f32	s14, s14, s20
 8003874:	eee7 7a26 	vfma.f32	s15, s14, s13
 8003878:	ee28 9aa7 	vmul.f32	s18, s17, s15
 800387c:	f8d4 20c0 	ldr.w	r2, [r4, #192]	; 0xc0
 8003880:	f8d4 10bc 	ldr.w	r1, [r4, #188]	; 0xbc
 8003884:	4bc3      	ldr	r3, [pc, #780]	; (8003b94 <make_sound.constprop.32+0xf48>)
 8003886:	3201      	adds	r2, #1
 8003888:	2901      	cmp	r1, #1
 800388a:	f8c4 20c0 	str.w	r2, [r4, #192]	; 0xc0
 800388e:	edd3 9a2b 	vldr	s19, [r3, #172]	; 0xac
 8003892:	f001 80c2 	beq.w	8004a1a <make_sound.constprop.32+0x1dce>
 8003896:	2903      	cmp	r1, #3
 8003898:	f001 80af 	beq.w	80049fa <make_sound.constprop.32+0x1dae>
 800389c:	2900      	cmp	r1, #0
 800389e:	f001 808d 	beq.w	80049bc <make_sound.constprop.32+0x1d70>
 80038a2:	edd5 7a4b 	vldr	s15, [r5, #300]	; 0x12c
 80038a6:	edc4 9a2c 	vstr	s19, [r4, #176]	; 0xb0
 80038aa:	eef5 7ac0 	vcmpe.f32	s15, #0.0
 80038ae:	eef1 fa10 	vmrs	APSR_nzcv, fpscr
 80038b2:	d508      	bpl.n	80038c6 <make_sound.constprop.32+0xc7a>
 80038b4:	ee77 7a88 	vadd.f32	s15, s15, s16
 80038b8:	eef5 7ac0 	vcmpe.f32	s15, #0.0
 80038bc:	eef1 fa10 	vmrs	APSR_nzcv, fpscr
 80038c0:	d4f8      	bmi.n	80038b4 <make_sound.constprop.32+0xc68>
 80038c2:	edc5 7a4b 	vstr	s15, [r5, #300]	; 0x12c
 80038c6:	eef4 7ac8 	vcmpe.f32	s15, s16
 80038ca:	eef1 fa10 	vmrs	APSR_nzcv, fpscr
 80038ce:	db08      	blt.n	80038e2 <make_sound.constprop.32+0xc96>
 80038d0:	ee77 7ac8 	vsub.f32	s15, s15, s16
 80038d4:	eef4 7ac8 	vcmpe.f32	s15, s16
 80038d8:	eef1 fa10 	vmrs	APSR_nzcv, fpscr
 80038dc:	daf8      	bge.n	80038d0 <make_sound.constprop.32+0xc84>
 80038de:	edc5 7a4b 	vstr	s15, [r5, #300]	; 0x12c
 80038e2:	ed9f 0aad 	vldr	s0, [pc, #692]	; 8003b98 <make_sound.constprop.32+0xf4c>
 80038e6:	ed95 ba48 	vldr	s22, [r5, #288]	; 0x120
 80038ea:	ee27 0a80 	vmul.f32	s0, s15, s0
 80038ee:	f00a fcdf 	bl	800e2b0 <lrintf>
 80038f2:	eb08 0080 	add.w	r0, r8, r0, lsl #2
 80038f6:	ed90 7a00 	vldr	s14, [r0]
 80038fa:	edd5 6a4b 	vldr	s13, [r5, #300]	; 0x12c
 80038fe:	edd5 5a4a 	vldr	s11, [r5, #296]	; 0x128
 8003902:	ed9f 6aa6 	vldr	s12, [pc, #664]	; 8003b9c <make_sound.constprop.32+0xf50>
 8003906:	edd4 8a3c 	vldr	s17, [r4, #240]	; 0xf0
 800390a:	f8d4 10c0 	ldr.w	r1, [r4, #192]	; 0xc0
 800390e:	6b22      	ldr	r2, [r4, #48]	; 0x30
 8003910:	4ba0      	ldr	r3, [pc, #640]	; (8003b94 <make_sound.constprop.32+0xf48>)
 8003912:	ee2b 7a07 	vmul.f32	s14, s22, s14
 8003916:	eef7 7a00 	vmov.f32	s15, #112	; 0x70
 800391a:	ee77 7a27 	vadd.f32	s15, s14, s15
 800391e:	eee5 6a86 	vfma.f32	s13, s11, s12
 8003922:	4291      	cmp	r1, r2
 8003924:	ee67 9aa9 	vmul.f32	s19, s15, s19
 8003928:	ed85 7a4f 	vstr	s14, [r5, #316]	; 0x13c
 800392c:	ee69 8aa8 	vmul.f32	s17, s19, s17
 8003930:	edc5 9a50 	vstr	s19, [r5, #320]	; 0x140
 8003934:	ee68 8a89 	vmul.f32	s17, s17, s18
 8003938:	edc5 6a4b 	vstr	s13, [r5, #300]	; 0x12c
 800393c:	f081 801d 	bcs.w	800497a <make_sound.constprop.32+0x1d2e>
 8003940:	f894 30c4 	ldrb.w	r3, [r4, #196]	; 0xc4
 8003944:	b943      	cbnz	r3, 8003958 <make_sound.constprop.32+0xd0c>
 8003946:	ed95 9a51 	vldr	s18, [r5, #324]	; 0x144
 800394a:	4b95      	ldr	r3, [pc, #596]	; (8003ba0 <make_sound.constprop.32+0xf54>)
 800394c:	eeb5 9a40 	vcmp.f32	s18, #0.0
 8003950:	eef1 fa10 	vmrs	APSR_nzcv, fpscr
 8003954:	f041 807b 	bne.w	8004a4e <make_sound.constprop.32+0x1e02>
 8003958:	ed95 9a59 	vldr	s18, [r5, #356]	; 0x164
 800395c:	4b90      	ldr	r3, [pc, #576]	; (8003ba0 <make_sound.constprop.32+0xf54>)
 800395e:	eeb5 9a40 	vcmp.f32	s18, #0.0
 8003962:	eef1 fa10 	vmrs	APSR_nzcv, fpscr
 8003966:	f040 87b1 	bne.w	80048cc <make_sound.constprop.32+0x1c80>
 800396a:	488e      	ldr	r0, [pc, #568]	; (8003ba4 <make_sound.constprop.32+0xf58>)
 800396c:	eeb0 0a68 	vmov.f32	s0, s17
 8003970:	f00a f98e 	bl	800dc90 <SVF_calcSample>
 8003974:	488c      	ldr	r0, [pc, #560]	; (8003ba8 <make_sound.constprop.32+0xf5c>)
 8003976:	eeb0 9a40 	vmov.f32	s18, s0
 800397a:	eeb0 0a68 	vmov.f32	s0, s17
 800397e:	f00a f987 	bl	800dc90 <SVF_calcSample>
 8003982:	f895 31a4 	ldrb.w	r3, [r5, #420]	; 0x1a4
 8003986:	ee39 0a00 	vadd.f32	s0, s18, s0
 800398a:	eef6 8a00 	vmov.f32	s17, #96	; 0x60
 800398e:	ee60 8a28 	vmul.f32	s17, s0, s17
 8003992:	2b00      	cmp	r3, #0
 8003994:	f040 871b 	bne.w	80047ce <make_sound.constprop.32+0x1b82>
 8003998:	f895 31a5 	ldrb.w	r3, [r5, #421]	; 0x1a5
 800399c:	2b00      	cmp	r3, #0
 800399e:	f040 8670 	bne.w	8004682 <make_sound.constprop.32+0x1a36>
 80039a2:	f895 31a6 	ldrb.w	r3, [r5, #422]	; 0x1a6
 80039a6:	2b00      	cmp	r3, #0
 80039a8:	f040 86ff 	bne.w	80047aa <make_sound.constprop.32+0x1b5e>
 80039ac:	eeb0 9a68 	vmov.f32	s18, s17
 80039b0:	eef7 7a00 	vmov.f32	s15, #112	; 0x70
 80039b4:	eeb4 9ae7 	vcmpe.f32	s18, s15
 80039b8:	eef1 fa10 	vmrs	APSR_nzcv, fpscr
 80039bc:	f340 8587 	ble.w	80044ce <make_sound.constprop.32+0x1882>
 80039c0:	f647 72ff 	movw	r2, #32767	; 0x7fff
 80039c4:	eef7 7a00 	vmov.f32	s15, #112	; 0x70
 80039c8:	eef4 8ae7 	vcmpe.f32	s17, s15
 80039cc:	eef1 fa10 	vmrs	APSR_nzcv, fpscr
 80039d0:	f340 8569 	ble.w	80044a6 <make_sound.constprop.32+0x185a>
 80039d4:	f647 73ff 	movw	r3, #32767	; 0x7fff
 80039d8:	f826 2c04 	strh.w	r2, [r6, #-4]
 80039dc:	f826 3c02 	strh.w	r3, [r6, #-2]
 80039e0:	3604      	adds	r6, #4
 80039e2:	454e      	cmp	r6, r9
 80039e4:	f47f a944 	bne.w	8002c70 <make_sound.constprop.32+0x24>
 80039e8:	b005      	add	sp, #20
 80039ea:	ecbd 8b0e 	vpop	{d8-d14}
 80039ee:	e8bd 8ff0 	ldmia.w	sp!, {r4, r5, r6, r7, r8, r9, sl, fp, pc}
 80039f2:	eddf 7a6e 	vldr	s15, [pc, #440]	; 8003bac <make_sound.constprop.32+0xf60>
 80039f6:	eef4 9ae7 	vcmpe.f32	s19, s15
 80039fa:	eef1 fa10 	vmrs	APSR_nzcv, fpscr
 80039fe:	f102 812e 	bmi.w	8005c5e <make_sound.constprop.32+0x3012>
 8003a02:	eddf 7a6b 	vldr	s15, [pc, #428]	; 8003bb0 <make_sound.constprop.32+0xf64>
 8003a06:	ed94 7a48 	vldr	s14, [r4, #288]	; 0x120
 8003a0a:	eef4 9ae7 	vcmpe.f32	s19, s15
 8003a0e:	eef1 fa10 	vmrs	APSR_nzcv, fpscr
 8003a12:	eeb5 7ac0 	vcmpe.f32	s14, #0.0
 8003a16:	d405      	bmi.n	8003a24 <make_sound.constprop.32+0xdd8>
 8003a18:	f001 b998 	b.w	8004d4c <make_sound.constprop.32+0x2100>
 8003a1c:	ee37 7a08 	vadd.f32	s14, s14, s16
 8003a20:	eeb5 7ac0 	vcmpe.f32	s14, #0.0
 8003a24:	eef1 fa10 	vmrs	APSR_nzcv, fpscr
 8003a28:	d4f8      	bmi.n	8003a1c <make_sound.constprop.32+0xdd0>
 8003a2a:	eeb4 7ac8 	vcmpe.f32	s14, s16
 8003a2e:	eef1 fa10 	vmrs	APSR_nzcv, fpscr
 8003a32:	eef0 7a47 	vmov.f32	s15, s14
 8003a36:	db06      	blt.n	8003a46 <make_sound.constprop.32+0xdfa>
 8003a38:	ee77 7ac8 	vsub.f32	s15, s15, s16
 8003a3c:	eef4 7ac8 	vcmpe.f32	s15, s16
 8003a40:	eef1 fa10 	vmrs	APSR_nzcv, fpscr
 8003a44:	daf8      	bge.n	8003a38 <make_sound.constprop.32+0xdec>
 8003a46:	ed9f 7a5b 	vldr	s14, [pc, #364]	; 8003bb4 <make_sound.constprop.32+0xf68>
 8003a4a:	edd4 8a45 	vldr	s17, [r4, #276]	; 0x114
 8003a4e:	eef4 7ac7 	vcmpe.f32	s15, s14
 8003a52:	eef1 fa10 	vmrs	APSR_nzcv, fpscr
 8003a56:	ee87 7a87 	vdiv.f32	s14, s15, s14
 8003a5a:	f102 813c 	bmi.w	8005cd6 <make_sound.constprop.32+0x308a>
 8003a5e:	eef0 6a00 	vmov.f32	s13, #0
 8003a62:	eeb6 6a00 	vmov.f32	s12, #96	; 0x60
 8003a66:	ee37 7a66 	vsub.f32	s14, s14, s13
 8003a6a:	ee68 8a86 	vmul.f32	s17, s17, s12
 8003a6e:	ee28 9a87 	vmul.f32	s18, s17, s14
 8003a72:	ed9f 7a4a 	vldr	s14, [pc, #296]	; 8003b9c <make_sound.constprop.32+0xf50>
 8003a76:	ed84 9a4c 	vstr	s18, [r4, #304]	; 0x130
 8003a7a:	eee9 7a87 	vfma.f32	s15, s19, s14
 8003a7e:	edc4 7a48 	vstr	s15, [r4, #288]	; 0x120
 8003a82:	e6fb      	b.n	800387c <make_sound.constprop.32+0xc30>
 8003a84:	ed94 7a48 	vldr	s14, [r4, #288]	; 0x120
 8003a88:	eeb5 7ac0 	vcmpe.f32	s14, #0.0
 8003a8c:	eef1 fa10 	vmrs	APSR_nzcv, fpscr
 8003a90:	d506      	bpl.n	8003aa0 <make_sound.constprop.32+0xe54>
 8003a92:	ee37 7a08 	vadd.f32	s14, s14, s16
 8003a96:	eeb5 7ac0 	vcmpe.f32	s14, #0.0
 8003a9a:	eef1 fa10 	vmrs	APSR_nzcv, fpscr
 8003a9e:	d4f8      	bmi.n	8003a92 <make_sound.constprop.32+0xe46>
 8003aa0:	eeb4 7ac8 	vcmpe.f32	s14, s16
 8003aa4:	eef1 fa10 	vmrs	APSR_nzcv, fpscr
 8003aa8:	eef0 7a47 	vmov.f32	s15, s14
 8003aac:	db06      	blt.n	8003abc <make_sound.constprop.32+0xe70>
 8003aae:	ee77 7ac8 	vsub.f32	s15, s15, s16
 8003ab2:	eef4 7ac8 	vcmpe.f32	s15, s16
 8003ab6:	eef1 fa10 	vmrs	APSR_nzcv, fpscr
 8003aba:	daf8      	bge.n	8003aae <make_sound.constprop.32+0xe62>
 8003abc:	ed9f 7a3e 	vldr	s14, [pc, #248]	; 8003bb8 <make_sound.constprop.32+0xf6c>
 8003ac0:	eef4 9ac7 	vcmpe.f32	s19, s14
 8003ac4:	eef1 fa10 	vmrs	APSR_nzcv, fpscr
 8003ac8:	f101 8279 	bmi.w	8004fbe <make_sound.constprop.32+0x2372>
 8003acc:	ed9f 7a39 	vldr	s14, [pc, #228]	; 8003bb4 <make_sound.constprop.32+0xf68>
 8003ad0:	ed84 7a49 	vstr	s14, [r4, #292]	; 0x124
 8003ad4:	eef4 7ac7 	vcmpe.f32	s15, s14
 8003ad8:	eef1 fa10 	vmrs	APSR_nzcv, fpscr
 8003adc:	f101 8285 	bmi.w	8004fea <make_sound.constprop.32+0x239e>
 8003ae0:	eddf 5a36 	vldr	s11, [pc, #216]	; 8003bbc <make_sound.constprop.32+0xf70>
 8003ae4:	ed94 6a45 	vldr	s12, [r4, #276]	; 0x114
 8003ae8:	eef0 6a00 	vmov.f32	s13, #0
 8003aec:	eee7 5aa6 	vfma.f32	s11, s15, s13
 8003af0:	ee78 6a47 	vsub.f32	s13, s16, s14
 8003af4:	ee35 7ac7 	vsub.f32	s14, s11, s14
 8003af8:	ee27 7a06 	vmul.f32	s14, s14, s12
 8003afc:	ee87 7a26 	vdiv.f32	s14, s14, s13
 8003b00:	eddf 6a26 	vldr	s13, [pc, #152]	; 8003b9c <make_sound.constprop.32+0xf50>
 8003b04:	eddf 8a2e 	vldr	s17, [pc, #184]	; 8003bc0 <make_sound.constprop.32+0xf74>
 8003b08:	ed84 7a4c 	vstr	s14, [r4, #304]	; 0x130
 8003b0c:	eee9 7aa6 	vfma.f32	s15, s19, s13
 8003b10:	ee27 9a28 	vmul.f32	s18, s14, s17
 8003b14:	edc4 7a48 	vstr	s15, [r4, #288]	; 0x120
 8003b18:	e6b0      	b.n	800387c <make_sound.constprop.32+0xc30>
 8003b1a:	edd4 7a48 	vldr	s15, [r4, #288]	; 0x120
 8003b1e:	eef5 7ac0 	vcmpe.f32	s15, #0.0
 8003b22:	eef1 fa10 	vmrs	APSR_nzcv, fpscr
 8003b26:	d508      	bpl.n	8003b3a <make_sound.constprop.32+0xeee>
 8003b28:	ee77 7a88 	vadd.f32	s15, s15, s16
 8003b2c:	eef5 7ac0 	vcmpe.f32	s15, #0.0
 8003b30:	eef1 fa10 	vmrs	APSR_nzcv, fpscr
 8003b34:	d4f8      	bmi.n	8003b28 <make_sound.constprop.32+0xedc>
 8003b36:	edc4 7a48 	vstr	s15, [r4, #288]	; 0x120
 8003b3a:	eef4 7ac8 	vcmpe.f32	s15, s16
 8003b3e:	eef1 fa10 	vmrs	APSR_nzcv, fpscr
 8003b42:	db08      	blt.n	8003b56 <make_sound.constprop.32+0xf0a>
 8003b44:	ee77 7ac8 	vsub.f32	s15, s15, s16
 8003b48:	eef4 7ac8 	vcmpe.f32	s15, s16
 8003b4c:	eef1 fa10 	vmrs	APSR_nzcv, fpscr
 8003b50:	daf8      	bge.n	8003b44 <make_sound.constprop.32+0xef8>
 8003b52:	edc4 7a48 	vstr	s15, [r4, #288]	; 0x120
 8003b56:	ed9f 0a10 	vldr	s0, [pc, #64]	; 8003b98 <make_sound.constprop.32+0xf4c>
 8003b5a:	edd4 9a45 	vldr	s19, [r4, #276]	; 0x114
 8003b5e:	eddf 8a18 	vldr	s17, [pc, #96]	; 8003bc0 <make_sound.constprop.32+0xf74>
 8003b62:	ee27 0a80 	vmul.f32	s0, s15, s0
 8003b66:	f00a fba3 	bl	800e2b0 <lrintf>
 8003b6a:	ed94 7a48 	vldr	s14, [r4, #288]	; 0x120
 8003b6e:	ed94 6a47 	vldr	s12, [r4, #284]	; 0x11c
 8003b72:	eddf 6a0a 	vldr	s13, [pc, #40]	; 8003b9c <make_sound.constprop.32+0xf50>
 8003b76:	eb08 0080 	add.w	r0, r8, r0, lsl #2
 8003b7a:	edd0 7a00 	vldr	s15, [r0]
 8003b7e:	eea6 7a26 	vfma.f32	s14, s12, s13
 8003b82:	ee69 7aa7 	vmul.f32	s15, s19, s15
 8003b86:	ed84 7a48 	vstr	s14, [r4, #288]	; 0x120
 8003b8a:	edc4 7a4c 	vstr	s15, [r4, #304]	; 0x130
 8003b8e:	ee27 9aa8 	vmul.f32	s18, s15, s17
 8003b92:	e673      	b.n	800387c <make_sound.constprop.32+0xc30>
 8003b94:	10000000 	.word	0x10000000
 8003b98:	4322f983 	.word	0x4322f983
 8003b9c:	39156592 	.word	0x39156592
 8003ba0:	100010f8 	.word	0x100010f8
 8003ba4:	100000c8 	.word	0x100000c8
 8003ba8:	1000127c 	.word	0x1000127c
 8003bac:	43480000 	.word	0x43480000
 8003bb0:	44160000 	.word	0x44160000
 8003bb4:	40490fdb 	.word	0x40490fdb
 8003bb8:	45fa0000 	.word	0x45fa0000
 8003bbc:	c0c90fdb 	.word	0xc0c90fdb
 8003bc0:	3f4ccccd 	.word	0x3f4ccccd
 8003bc4:	3f9837b5 	.word	0x3f9837b5
 8003bc8:	ed1f 4a02 	vldr	s8, [pc, #-8]	; 8003bc4 <make_sound.constprop.32+0xf78>
 8003bcc:	edd4 7a48 	vldr	s15, [r4, #288]	; 0x120
 8003bd0:	4fdb      	ldr	r7, [pc, #876]	; (8003f40 <make_sound.constprop.32+0x12f4>)
 8003bd2:	eef7 4a08 	vmov.f32	s9, #120	; 0x78
 8003bd6:	ee29 4a84 	vmul.f32	s8, s19, s8
 8003bda:	ee69 4aa4 	vmul.f32	s9, s19, s9
 8003bde:	eef5 7ac0 	vcmpe.f32	s15, #0.0
 8003be2:	f107 0a20 	add.w	sl, r7, #32
 8003be6:	eef1 fa10 	vmrs	APSR_nzcv, fpscr
 8003bea:	ed87 4a02 	vstr	s8, [r7, #8]
 8003bee:	edca 4a02 	vstr	s9, [sl, #8]
 8003bf2:	d50d      	bpl.n	8003c10 <make_sound.constprop.32+0xfc4>
 8003bf4:	ee77 7a88 	vadd.f32	s15, s15, s16
 8003bf8:	eef5 7ac0 	vcmpe.f32	s15, #0.0
 8003bfc:	eef1 fa10 	vmrs	APSR_nzcv, fpscr
 8003c00:	d4f8      	bmi.n	8003bf4 <make_sound.constprop.32+0xfa8>
 8003c02:	eef4 7ac8 	vcmpe.f32	s15, s16
 8003c06:	eef1 fa10 	vmrs	APSR_nzcv, fpscr
 8003c0a:	db06      	blt.n	8003c1a <make_sound.constprop.32+0xfce>
 8003c0c:	ee77 7ac8 	vsub.f32	s15, s15, s16
 8003c10:	eef4 7ac8 	vcmpe.f32	s15, s16
 8003c14:	eef1 fa10 	vmrs	APSR_nzcv, fpscr
 8003c18:	daf8      	bge.n	8003c0c <make_sound.constprop.32+0xfc0>
 8003c1a:	ed9f 7aca 	vldr	s14, [pc, #808]	; 8003f44 <make_sound.constprop.32+0x12f8>
 8003c1e:	eef4 9ac7 	vcmpe.f32	s19, s14
 8003c22:	eef1 fa10 	vmrs	APSR_nzcv, fpscr
 8003c26:	f101 8209 	bmi.w	800503c <make_sound.constprop.32+0x23f0>
 8003c2a:	ed9f 7ac7 	vldr	s14, [pc, #796]	; 8003f48 <make_sound.constprop.32+0x12fc>
 8003c2e:	ed84 7a49 	vstr	s14, [r4, #292]	; 0x124
 8003c32:	eef4 7ac7 	vcmpe.f32	s15, s14
 8003c36:	eef1 fa10 	vmrs	APSR_nzcv, fpscr
 8003c3a:	f101 8215 	bmi.w	8005068 <make_sound.constprop.32+0x241c>
 8003c3e:	eddf 5ac3 	vldr	s11, [pc, #780]	; 8003f4c <make_sound.constprop.32+0x1300>
 8003c42:	ed94 6a45 	vldr	s12, [r4, #276]	; 0x114
 8003c46:	eef0 6a00 	vmov.f32	s13, #0
 8003c4a:	eee7 5aa6 	vfma.f32	s11, s15, s13
 8003c4e:	ee78 6a47 	vsub.f32	s13, s16, s14
 8003c52:	ee35 7ac7 	vsub.f32	s14, s11, s14
 8003c56:	ee27 7a06 	vmul.f32	s14, s14, s12
 8003c5a:	eec7 6a26 	vdiv.f32	s13, s14, s13
 8003c5e:	ed9f 6abc 	vldr	s12, [pc, #752]	; 8003f50 <make_sound.constprop.32+0x1304>
 8003c62:	ed97 7a03 	vldr	s14, [r7, #12]
 8003c66:	edc4 6a4c 	vstr	s13, [r4, #304]	; 0x130
 8003c6a:	eee9 7a86 	vfma.f32	s15, s19, s12
 8003c6e:	eeb5 7ac0 	vcmpe.f32	s14, #0.0
 8003c72:	eef1 fa10 	vmrs	APSR_nzcv, fpscr
 8003c76:	edc4 7a48 	vstr	s15, [r4, #288]	; 0x120
 8003c7a:	d508      	bpl.n	8003c8e <make_sound.constprop.32+0x1042>
 8003c7c:	ee37 7a08 	vadd.f32	s14, s14, s16
 8003c80:	eeb5 7ac0 	vcmpe.f32	s14, #0.0
 8003c84:	eef1 fa10 	vmrs	APSR_nzcv, fpscr
 8003c88:	d4f8      	bmi.n	8003c7c <make_sound.constprop.32+0x1030>
 8003c8a:	ed87 7a03 	vstr	s14, [r7, #12]
 8003c8e:	eeb4 7ac8 	vcmpe.f32	s14, s16
 8003c92:	eef1 fa10 	vmrs	APSR_nzcv, fpscr
 8003c96:	db08      	blt.n	8003caa <make_sound.constprop.32+0x105e>
 8003c98:	ee37 7a48 	vsub.f32	s14, s14, s16
 8003c9c:	eeb4 7ac8 	vcmpe.f32	s14, s16
 8003ca0:	eef1 fa10 	vmrs	APSR_nzcv, fpscr
 8003ca4:	daf8      	bge.n	8003c98 <make_sound.constprop.32+0x104c>
 8003ca6:	ed87 7a03 	vstr	s14, [r7, #12]
 8003caa:	eddf 7aa6 	vldr	s15, [pc, #664]	; 8003f44 <make_sound.constprop.32+0x12f8>
 8003cae:	eeb4 4ae7 	vcmpe.f32	s8, s15
 8003cb2:	eef1 fa10 	vmrs	APSR_nzcv, fpscr
 8003cb6:	f141 83c0 	bpl.w	800543a <make_sound.constprop.32+0x27ee>
 8003cba:	eddf 7aa6 	vldr	s15, [pc, #664]	; 8003f54 <make_sound.constprop.32+0x1308>
 8003cbe:	ed9f 6aa6 	vldr	s12, [pc, #664]	; 8003f58 <make_sound.constprop.32+0x130c>
 8003cc2:	ee64 7a27 	vmul.f32	s15, s8, s15
 8003cc6:	eef4 7ac6 	vcmpe.f32	s15, s12
 8003cca:	eef1 fa10 	vmrs	APSR_nzcv, fpscr
 8003cce:	f201 83b6 	bhi.w	800543e <make_sound.constprop.32+0x27f2>
 8003cd2:	eef0 7a46 	vmov.f32	s15, s12
 8003cd6:	eeb4 7ae7 	vcmpe.f32	s14, s15
 8003cda:	eef1 fa10 	vmrs	APSR_nzcv, fpscr
 8003cde:	ed87 6a04 	vstr	s12, [r7, #16]
 8003ce2:	f101 83b4 	bmi.w	800544e <make_sound.constprop.32+0x2802>
 8003ce6:	ed9f 5a99 	vldr	s10, [pc, #612]	; 8003f4c <make_sound.constprop.32+0x1300>
 8003cea:	edd7 5a00 	vldr	s11, [r7]
 8003cee:	eeb0 6a00 	vmov.f32	s12, #0
 8003cf2:	eea7 5a06 	vfma.f32	s10, s14, s12
 8003cf6:	ee38 6a67 	vsub.f32	s12, s16, s15
 8003cfa:	ee75 7a67 	vsub.f32	s15, s10, s15
 8003cfe:	ee67 7aa5 	vmul.f32	s15, s15, s11
 8003d02:	ee87 6a86 	vdiv.f32	s12, s15, s12
 8003d06:	eddf 5a92 	vldr	s11, [pc, #584]	; 8003f50 <make_sound.constprop.32+0x1304>
 8003d0a:	edda 7a03 	vldr	s15, [sl, #12]
 8003d0e:	ed87 6a07 	vstr	s12, [r7, #28]
 8003d12:	eea4 7a25 	vfma.f32	s14, s8, s11
 8003d16:	eef5 7ac0 	vcmpe.f32	s15, #0.0
 8003d1a:	eef1 fa10 	vmrs	APSR_nzcv, fpscr
 8003d1e:	ee76 6a86 	vadd.f32	s13, s13, s12
 8003d22:	ed87 7a03 	vstr	s14, [r7, #12]
 8003d26:	d508      	bpl.n	8003d3a <make_sound.constprop.32+0x10ee>
 8003d28:	ee77 7a88 	vadd.f32	s15, s15, s16
 8003d2c:	eef5 7ac0 	vcmpe.f32	s15, #0.0
 8003d30:	eef1 fa10 	vmrs	APSR_nzcv, fpscr
 8003d34:	d4f8      	bmi.n	8003d28 <make_sound.constprop.32+0x10dc>
 8003d36:	edca 7a03 	vstr	s15, [sl, #12]
 8003d3a:	eef4 7ac8 	vcmpe.f32	s15, s16
 8003d3e:	eef1 fa10 	vmrs	APSR_nzcv, fpscr
 8003d42:	f6ff aaf9 	blt.w	8003338 <make_sound.constprop.32+0x6ec>
 8003d46:	ee77 7ac8 	vsub.f32	s15, s15, s16
 8003d4a:	eef4 7ac8 	vcmpe.f32	s15, s16
 8003d4e:	eef1 fa10 	vmrs	APSR_nzcv, fpscr
 8003d52:	daf8      	bge.n	8003d46 <make_sound.constprop.32+0x10fa>
 8003d54:	f7ff baee 	b.w	8003334 <make_sound.constprop.32+0x6e8>
 8003d58:	ed9f 4a80 	vldr	s8, [pc, #512]	; 8003f5c <make_sound.constprop.32+0x1310>
 8003d5c:	edd4 7a48 	vldr	s15, [r4, #288]	; 0x120
 8003d60:	4f77      	ldr	r7, [pc, #476]	; (8003f40 <make_sound.constprop.32+0x12f4>)
 8003d62:	eef7 4a08 	vmov.f32	s9, #120	; 0x78
 8003d66:	ee29 4a84 	vmul.f32	s8, s19, s8
 8003d6a:	ee69 4aa4 	vmul.f32	s9, s19, s9
 8003d6e:	eef5 7ac0 	vcmpe.f32	s15, #0.0
 8003d72:	f107 0a20 	add.w	sl, r7, #32
 8003d76:	eef1 fa10 	vmrs	APSR_nzcv, fpscr
 8003d7a:	ed87 4a02 	vstr	s8, [r7, #8]
 8003d7e:	edca 4a02 	vstr	s9, [sl, #8]
 8003d82:	d50d      	bpl.n	8003da0 <make_sound.constprop.32+0x1154>
 8003d84:	ee77 7a88 	vadd.f32	s15, s15, s16
 8003d88:	eef5 7ac0 	vcmpe.f32	s15, #0.0
 8003d8c:	eef1 fa10 	vmrs	APSR_nzcv, fpscr
 8003d90:	d4f8      	bmi.n	8003d84 <make_sound.constprop.32+0x1138>
 8003d92:	eef4 7ac8 	vcmpe.f32	s15, s16
 8003d96:	eef1 fa10 	vmrs	APSR_nzcv, fpscr
 8003d9a:	db06      	blt.n	8003daa <make_sound.constprop.32+0x115e>
 8003d9c:	ee77 7ac8 	vsub.f32	s15, s15, s16
 8003da0:	eef4 7ac8 	vcmpe.f32	s15, s16
 8003da4:	eef1 fa10 	vmrs	APSR_nzcv, fpscr
 8003da8:	daf8      	bge.n	8003d9c <make_sound.constprop.32+0x1150>
 8003daa:	ed9f 7a66 	vldr	s14, [pc, #408]	; 8003f44 <make_sound.constprop.32+0x12f8>
 8003dae:	eef4 9ac7 	vcmpe.f32	s19, s14
 8003db2:	eef1 fa10 	vmrs	APSR_nzcv, fpscr
 8003db6:	f101 8045 	bmi.w	8004e44 <make_sound.constprop.32+0x21f8>
 8003dba:	ed9f 7a63 	vldr	s14, [pc, #396]	; 8003f48 <make_sound.constprop.32+0x12fc>
 8003dbe:	ed84 7a49 	vstr	s14, [r4, #292]	; 0x124
 8003dc2:	eef4 7ac7 	vcmpe.f32	s15, s14
 8003dc6:	eef1 fa10 	vmrs	APSR_nzcv, fpscr
 8003dca:	f101 8051 	bmi.w	8004e70 <make_sound.constprop.32+0x2224>
 8003dce:	eddf 5a5f 	vldr	s11, [pc, #380]	; 8003f4c <make_sound.constprop.32+0x1300>
 8003dd2:	ed94 6a45 	vldr	s12, [r4, #276]	; 0x114
 8003dd6:	eef0 6a00 	vmov.f32	s13, #0
 8003dda:	eee7 5aa6 	vfma.f32	s11, s15, s13
 8003dde:	ee78 6a47 	vsub.f32	s13, s16, s14
 8003de2:	ee35 7ac7 	vsub.f32	s14, s11, s14
 8003de6:	ee27 7a06 	vmul.f32	s14, s14, s12
 8003dea:	eec7 6a26 	vdiv.f32	s13, s14, s13
 8003dee:	ed9f 6a58 	vldr	s12, [pc, #352]	; 8003f50 <make_sound.constprop.32+0x1304>
 8003df2:	ed97 7a03 	vldr	s14, [r7, #12]
 8003df6:	edc4 6a4c 	vstr	s13, [r4, #304]	; 0x130
 8003dfa:	eee9 7a86 	vfma.f32	s15, s19, s12
 8003dfe:	eeb5 7ac0 	vcmpe.f32	s14, #0.0
 8003e02:	eef1 fa10 	vmrs	APSR_nzcv, fpscr
 8003e06:	edc4 7a48 	vstr	s15, [r4, #288]	; 0x120
 8003e0a:	d508      	bpl.n	8003e1e <make_sound.constprop.32+0x11d2>
 8003e0c:	ee37 7a08 	vadd.f32	s14, s14, s16
 8003e10:	eeb5 7ac0 	vcmpe.f32	s14, #0.0
 8003e14:	eef1 fa10 	vmrs	APSR_nzcv, fpscr
 8003e18:	d4f8      	bmi.n	8003e0c <make_sound.constprop.32+0x11c0>
 8003e1a:	ed87 7a03 	vstr	s14, [r7, #12]
 8003e1e:	eeb4 7ac8 	vcmpe.f32	s14, s16
 8003e22:	eef1 fa10 	vmrs	APSR_nzcv, fpscr
 8003e26:	db08      	blt.n	8003e3a <make_sound.constprop.32+0x11ee>
 8003e28:	ee37 7a48 	vsub.f32	s14, s14, s16
 8003e2c:	eeb4 7ac8 	vcmpe.f32	s14, s16
 8003e30:	eef1 fa10 	vmrs	APSR_nzcv, fpscr
 8003e34:	daf8      	bge.n	8003e28 <make_sound.constprop.32+0x11dc>
 8003e36:	ed87 7a03 	vstr	s14, [r7, #12]
 8003e3a:	eddf 7a42 	vldr	s15, [pc, #264]	; 8003f44 <make_sound.constprop.32+0x12f8>
 8003e3e:	eeb4 4ae7 	vcmpe.f32	s8, s15
 8003e42:	eef1 fa10 	vmrs	APSR_nzcv, fpscr
 8003e46:	f141 846a 	bpl.w	800571e <make_sound.constprop.32+0x2ad2>
 8003e4a:	eddf 7a42 	vldr	s15, [pc, #264]	; 8003f54 <make_sound.constprop.32+0x1308>
 8003e4e:	ed9f 6a42 	vldr	s12, [pc, #264]	; 8003f58 <make_sound.constprop.32+0x130c>
 8003e52:	ee64 7a27 	vmul.f32	s15, s8, s15
 8003e56:	eef4 7ac6 	vcmpe.f32	s15, s12
 8003e5a:	eef1 fa10 	vmrs	APSR_nzcv, fpscr
 8003e5e:	f201 8460 	bhi.w	8005722 <make_sound.constprop.32+0x2ad6>
 8003e62:	eef0 7a46 	vmov.f32	s15, s12
 8003e66:	eeb4 7ae7 	vcmpe.f32	s14, s15
 8003e6a:	eef1 fa10 	vmrs	APSR_nzcv, fpscr
 8003e6e:	ed87 6a04 	vstr	s12, [r7, #16]
 8003e72:	f101 845e 	bmi.w	8005732 <make_sound.constprop.32+0x2ae6>
 8003e76:	ed9f 5a35 	vldr	s10, [pc, #212]	; 8003f4c <make_sound.constprop.32+0x1300>
 8003e7a:	edd7 5a00 	vldr	s11, [r7]
 8003e7e:	eeb0 6a00 	vmov.f32	s12, #0
 8003e82:	eea7 5a06 	vfma.f32	s10, s14, s12
 8003e86:	ee38 6a67 	vsub.f32	s12, s16, s15
 8003e8a:	ee75 7a67 	vsub.f32	s15, s10, s15
 8003e8e:	ee67 7aa5 	vmul.f32	s15, s15, s11
 8003e92:	ee87 6a86 	vdiv.f32	s12, s15, s12
 8003e96:	eddf 5a2e 	vldr	s11, [pc, #184]	; 8003f50 <make_sound.constprop.32+0x1304>
 8003e9a:	edda 7a03 	vldr	s15, [sl, #12]
 8003e9e:	ed87 6a07 	vstr	s12, [r7, #28]
 8003ea2:	eea4 7a25 	vfma.f32	s14, s8, s11
 8003ea6:	eef5 7ac0 	vcmpe.f32	s15, #0.0
 8003eaa:	eef1 fa10 	vmrs	APSR_nzcv, fpscr
 8003eae:	ee76 6a86 	vadd.f32	s13, s13, s12
 8003eb2:	ed87 7a03 	vstr	s14, [r7, #12]
 8003eb6:	d508      	bpl.n	8003eca <make_sound.constprop.32+0x127e>
 8003eb8:	ee77 7a88 	vadd.f32	s15, s15, s16
 8003ebc:	eef5 7ac0 	vcmpe.f32	s15, #0.0
 8003ec0:	eef1 fa10 	vmrs	APSR_nzcv, fpscr
 8003ec4:	d4f8      	bmi.n	8003eb8 <make_sound.constprop.32+0x126c>
 8003ec6:	edca 7a03 	vstr	s15, [sl, #12]
 8003eca:	eef4 7ac8 	vcmpe.f32	s15, s16
 8003ece:	eef1 fa10 	vmrs	APSR_nzcv, fpscr
 8003ed2:	db08      	blt.n	8003ee6 <make_sound.constprop.32+0x129a>
 8003ed4:	ee77 7ac8 	vsub.f32	s15, s15, s16
 8003ed8:	eef4 7ac8 	vcmpe.f32	s15, s16
 8003edc:	eef1 fa10 	vmrs	APSR_nzcv, fpscr
 8003ee0:	daf8      	bge.n	8003ed4 <make_sound.constprop.32+0x1288>
 8003ee2:	edca 7a03 	vstr	s15, [sl, #12]
 8003ee6:	ed9f 7a17 	vldr	s14, [pc, #92]	; 8003f44 <make_sound.constprop.32+0x12f8>
 8003eea:	eef4 4ac7 	vcmpe.f32	s9, s14
 8003eee:	eef1 fa10 	vmrs	APSR_nzcv, fpscr
 8003ef2:	f141 842c 	bpl.w	800574e <make_sound.constprop.32+0x2b02>
 8003ef6:	ed9f 7a17 	vldr	s14, [pc, #92]	; 8003f54 <make_sound.constprop.32+0x1308>
 8003efa:	ed9f 6a17 	vldr	s12, [pc, #92]	; 8003f58 <make_sound.constprop.32+0x130c>
 8003efe:	ee24 7a87 	vmul.f32	s14, s9, s14
 8003f02:	eeb4 7ac6 	vcmpe.f32	s14, s12
 8003f06:	eef1 fa10 	vmrs	APSR_nzcv, fpscr
 8003f0a:	f201 8422 	bhi.w	8005752 <make_sound.constprop.32+0x2b06>
 8003f0e:	eeb0 7a46 	vmov.f32	s14, s12
 8003f12:	ed8a 6a04 	vstr	s12, [sl, #16]
 8003f16:	eef4 7ac7 	vcmpe.f32	s15, s14
 8003f1a:	eef1 fa10 	vmrs	APSR_nzcv, fpscr
 8003f1e:	f57f aa29 	bpl.w	8003374 <make_sound.constprop.32+0x728>
 8003f22:	eeb8 6a00 	vmov.f32	s12, #128	; 0x80
 8003f26:	ee86 7a07 	vdiv.f32	s14, s12, s14
 8003f2a:	eeb7 6a00 	vmov.f32	s12, #112	; 0x70
 8003f2e:	eea7 6a27 	vfma.f32	s12, s14, s15
 8003f32:	ed9a 7a00 	vldr	s14, [sl]
 8003f36:	ee26 7a07 	vmul.f32	s14, s12, s14
 8003f3a:	f7ff ba2b 	b.w	8003394 <make_sound.constprop.32+0x748>
 8003f3e:	bf00      	nop
 8003f40:	10000be8 	.word	0x10000be8
 8003f44:	45fa0000 	.word	0x45fa0000
 8003f48:	40490fdb 	.word	0x40490fdb
 8003f4c:	c0c90fdb 	.word	0xc0c90fdb
 8003f50:	39156592 	.word	0x39156592
 8003f54:	39cde32e 	.word	0x39cde32e
 8003f58:	38d1b717 	.word	0x38d1b717
 8003f5c:	3fa147ae 	.word	0x3fa147ae
 8003f60:	4899      	ldr	r0, [pc, #612]	; (80041c8 <make_sound.constprop.32+0x157c>)
 8003f62:	ed9f 6a9a 	vldr	s12, [pc, #616]	; 80041cc <make_sound.constprop.32+0x1580>
 8003f66:	eddf 5a9a 	vldr	s11, [pc, #616]	; 80041d0 <make_sound.constprop.32+0x1584>
 8003f6a:	eddf 4a9a 	vldr	s9, [pc, #616]	; 80041d4 <make_sound.constprop.32+0x1588>
 8003f6e:	ed9f 5a9a 	vldr	s10, [pc, #616]	; 80041d8 <make_sound.constprop.32+0x158c>
 8003f72:	f100 0128 	add.w	r1, r0, #40	; 0x28
 8003f76:	2201      	movs	r2, #1
 8003f78:	ee07 2a90 	vmov	s15, r2
 8003f7c:	eef8 6ae7 	vcvt.f32.s32	s13, s15
 8003f80:	ee69 7aa6 	vmul.f32	s15, s19, s13
 8003f84:	eef4 7ae5 	vcmpe.f32	s15, s11
 8003f88:	eef1 fa10 	vmrs	APSR_nzcv, fpscr
 8003f8c:	d529      	bpl.n	8003fe2 <make_sound.constprop.32+0x1396>
 8003f8e:	3104      	adds	r1, #4
 8003f90:	edd1 7a00 	vldr	s15, [r1]
 8003f94:	eef4 7ac8 	vcmpe.f32	s15, s16
 8003f98:	eef1 fa10 	vmrs	APSR_nzcv, fpscr
 8003f9c:	db08      	blt.n	8003fb0 <make_sound.constprop.32+0x1364>
 8003f9e:	ee77 7ac8 	vsub.f32	s15, s15, s16
 8003fa2:	eef4 7ac8 	vcmpe.f32	s15, s16
 8003fa6:	eef1 fa10 	vmrs	APSR_nzcv, fpscr
 8003faa:	daf8      	bge.n	8003f9e <make_sound.constprop.32+0x1352>
 8003fac:	edc1 7a00 	vstr	s15, [r1]
 8003fb0:	ee27 7aa4 	vmul.f32	s14, s15, s9
 8003fb4:	ee66 6a85 	vmul.f32	s13, s13, s10
 8003fb8:	eebc 7ac7 	vcvt.u32.f32	s14, s14
 8003fbc:	eee9 7aa6 	vfma.f32	s15, s19, s13
 8003fc0:	3201      	adds	r2, #1
 8003fc2:	2a0b      	cmp	r2, #11
 8003fc4:	ed8d 7a01 	vstr	s14, [sp, #4]
 8003fc8:	f8bd 3004 	ldrh.w	r3, [sp, #4]
 8003fcc:	ecf0 6a01 	vldmia	r0!, {s13}
 8003fd0:	edc1 7a00 	vstr	s15, [r1]
 8003fd4:	eb08 0383 	add.w	r3, r8, r3, lsl #2
 8003fd8:	ed93 7a00 	vldr	s14, [r3]
 8003fdc:	eea6 6a87 	vfma.f32	s12, s13, s14
 8003fe0:	d1ca      	bne.n	8003f78 <make_sound.constprop.32+0x132c>
 8003fe2:	edd4 7a11 	vldr	s15, [r4, #68]	; 0x44
 8003fe6:	edd4 8a45 	vldr	s17, [r4, #276]	; 0x114
 8003fea:	ee26 6a27 	vmul.f32	s12, s12, s15
 8003fee:	ee26 9a28 	vmul.f32	s18, s12, s17
 8003ff2:	ed84 9a4c 	vstr	s18, [r4, #304]	; 0x130
 8003ff6:	e441      	b.n	800387c <make_sound.constprop.32+0xc30>
 8003ff8:	f8df a1f8 	ldr.w	sl, [pc, #504]	; 80041f4 <make_sound.constprop.32+0x15a8>
 8003ffc:	f894 3be4 	ldrb.w	r3, [r4, #3044]	; 0xbe4
 8004000:	edca 9a03 	vstr	s19, [sl, #12]
 8004004:	ed9a 9a05 	vldr	s18, [sl, #20]
 8004008:	ed9a ca07 	vldr	s24, [sl, #28]
 800400c:	ed9a 5a08 	vldr	s10, [sl, #32]
 8004010:	edda 6a09 	vldr	s13, [sl, #36]	; 0x24
 8004014:	edda ba0a 	vldr	s23, [sl, #40]	; 0x28
 8004018:	edda 8a0b 	vldr	s17, [sl, #44]	; 0x2c
 800401c:	f8d4 2bdc 	ldr.w	r2, [r4, #3036]	; 0xbdc
 8004020:	f8d4 bbe0 	ldr.w	fp, [r4, #3040]	; 0xbe0
 8004024:	2b00      	cmp	r3, #0
 8004026:	f040 8783 	bne.w	8004f30 <make_sound.constprop.32+0x22e4>
 800402a:	eddf 7a6c 	vldr	s15, [pc, #432]	; 80041dc <make_sound.constprop.32+0x1590>
 800402e:	ed9a 7a04 	vldr	s14, [sl, #16]
 8004032:	eec9 9aa7 	vdiv.f32	s19, s19, s15
 8004036:	eddf 7a6a 	vldr	s15, [pc, #424]	; 80041e0 <make_sound.constprop.32+0x1594>
 800403a:	eeb7 6a00 	vmov.f32	s12, #112	; 0x70
 800403e:	ee77 5a06 	vadd.f32	s11, s14, s12
 8004042:	eef4 9ae7 	vcmpe.f32	s19, s15
 8004046:	eeb6 7a00 	vmov.f32	s14, #96	; 0x60
 800404a:	eef1 fa10 	vmrs	APSR_nzcv, fpscr
 800404e:	ee36 6a45 	vsub.f32	s12, s12, s10
 8004052:	ee25 7a87 	vmul.f32	s14, s11, s14
 8004056:	f100 87ae 	bmi.w	8004fb6 <make_sound.constprop.32+0x236a>
 800405a:	eef6 7a00 	vmov.f32	s15, #96	; 0x60
 800405e:	eef4 9a67 	vcmp.f32	s19, s15
 8004062:	eef1 fa10 	vmrs	APSR_nzcv, fpscr
 8004066:	bfc8      	it	gt
 8004068:	eef0 9a67 	vmovgt.f32	s19, s15
 800406c:	eeb4 5a47 	vcmp.f32	s10, s14
 8004070:	eef1 fa10 	vmrs	APSR_nzcv, fpscr
 8004074:	bfc8      	it	gt
 8004076:	eeb0 7a45 	vmovgt.f32	s14, s10
 800407a:	eeb4 7a46 	vcmp.f32	s14, s12
 800407e:	eef1 fa10 	vmrs	APSR_nzcv, fpscr
 8004082:	ee79 9ac5 	vsub.f32	s19, s19, s10
 8004086:	eddf 7a57 	vldr	s15, [pc, #348]	; 80041e4 <make_sound.constprop.32+0x1598>
 800408a:	bfc8      	it	gt
 800408c:	eeb0 7a46 	vmovgt.f32	s14, s12
 8004090:	ee37 7a66 	vsub.f32	s14, s14, s13
 8004094:	ee75 9a29 	vadd.f32	s19, s10, s19
 8004098:	eeb4 9ae7 	vcmpe.f32	s18, s15
 800409c:	eef1 fa10 	vmrs	APSR_nzcv, fpscr
 80040a0:	ee36 ba87 	vadd.f32	s22, s13, s14
 80040a4:	ee39 ca8c 	vadd.f32	s24, s19, s24
 80040a8:	f2c1 81df 	blt.w	800546a <make_sound.constprop.32+0x281e>
 80040ac:	ee79 7a67 	vsub.f32	s15, s18, s15
 80040b0:	ee69 caa7 	vmul.f32	s25, s19, s15
 80040b4:	ee3c ca6c 	vsub.f32	s24, s24, s25
 80040b8:	f1bb 0f00 	cmp.w	fp, #0
 80040bc:	f041 8384 	bne.w	80057c8 <make_sound.constprop.32+0x2b7c>
 80040c0:	eeb4 bacc 	vcmpe.f32	s22, s24
 80040c4:	eef1 fa10 	vmrs	APSR_nzcv, fpscr
 80040c8:	f242 800f 	bls.w	80060ea <make_sound.constprop.32+0x349e>
 80040cc:	eef7 7a00 	vmov.f32	s15, #112	; 0x70
 80040d0:	eeb4 cae7 	vcmpe.f32	s24, s15
 80040d4:	eef1 fa10 	vmrs	APSR_nzcv, fpscr
 80040d8:	db3b      	blt.n	8004152 <make_sound.constprop.32+0x1506>
 80040da:	4f43      	ldr	r7, [pc, #268]	; (80041e8 <make_sound.constprop.32+0x159c>)
 80040dc:	4b43      	ldr	r3, [pc, #268]	; (80041ec <make_sound.constprop.32+0x15a0>)
 80040de:	ea4f 0b82 	mov.w	fp, r2, lsl #2
 80040e2:	eef7 6a00 	vmov.f32	s13, #112	; 0x70
 80040e6:	ee7c 6a66 	vsub.f32	s13, s24, s13
 80040ea:	eddf 7a41 	vldr	s15, [pc, #260]	; 80041f0 <make_sound.constprop.32+0x15a4>
 80040ee:	9302      	str	r3, [sp, #8]
 80040f0:	ee7c 6aa6 	vadd.f32	s13, s25, s13
 80040f4:	eeb6 0a00 	vmov.f32	s0, #96	; 0x60
 80040f8:	ee66 6aa7 	vmul.f32	s13, s13, s15
 80040fc:	9201      	str	r2, [sp, #4]
 80040fe:	eec6 baa9 	vdiv.f32	s23, s13, s19
 8004102:	ee3b 0ac0 	vsub.f32	s0, s23, s0
 8004106:	f00a f8d3 	bl	800e2b0 <lrintf>
 800410a:	ee07 0a90 	vmov	s15, r0
 800410e:	eef8 6ae7 	vcvt.f32.s32	s13, s15
 8004112:	f000 003f 	and.w	r0, r0, #63	; 0x3f
 8004116:	ee7b 6ae6 	vsub.f32	s13, s23, s13
 800411a:	9a01      	ldr	r2, [sp, #4]
 800411c:	9b02      	ldr	r3, [sp, #8]
 800411e:	eb07 07c0 	add.w	r7, r7, r0, lsl #3
 8004122:	ed97 7a01 	vldr	s14, [r7, #4]
 8004126:	edd7 7a00 	vldr	s15, [r7]
 800412a:	eee6 7a87 	vfma.f32	s15, s13, s14
 800412e:	eb03 010b 	add.w	r1, r3, fp
 8004132:	3040      	adds	r0, #64	; 0x40
 8004134:	ed91 7a00 	vldr	s14, [r1]
 8004138:	ee77 7a27 	vadd.f32	s15, s14, s15
 800413c:	f5b0 5f90 	cmp.w	r0, #4608	; 0x1200
 8004140:	f507 7700 	add.w	r7, r7, #512	; 0x200
 8004144:	f10b 0b04 	add.w	fp, fp, #4
 8004148:	edc1 7a00 	vstr	s15, [r1]
 800414c:	dbe9      	blt.n	8004122 <make_sound.constprop.32+0x14d6>
 800414e:	eef6 ba00 	vmov.f32	s23, #96	; 0x60
 8004152:	eeb4 baec 	vcmpe.f32	s22, s25
 8004156:	eef1 fa10 	vmrs	APSR_nzcv, fpscr
 800415a:	f241 865f 	bls.w	8005e1c <make_sound.constprop.32+0x31d0>
 800415e:	f04f 0b00 	mov.w	fp, #0
 8004162:	ed8a 9a06 	vstr	s18, [sl, #24]
 8004166:	f102 0310 	add.w	r3, r2, #16
 800416a:	eb0a 0383 	add.w	r3, sl, r3, lsl #2
 800416e:	edd3 7a00 	vldr	s15, [r3]
 8004172:	ed9a 9a01 	vldr	s18, [sl, #4]
 8004176:	4f1f      	ldr	r7, [pc, #124]	; (80041f4 <make_sound.constprop.32+0x15a8>)
 8004178:	ee77 7aab 	vadd.f32	s15, s15, s23
 800417c:	eb0a 0182 	add.w	r1, sl, r2, lsl #2
 8004180:	edc3 7a00 	vstr	s15, [r3]
 8004184:	edd1 7a0c 	vldr	s15, [r1, #48]	; 0x30
 8004188:	ee77 7ae8 	vsub.f32	s15, s15, s17
 800418c:	eeb6 7a00 	vmov.f32	s14, #96	; 0x60
 8004190:	eee7 8a87 	vfma.f32	s17, s15, s14
 8004194:	3201      	adds	r2, #1
 8004196:	f5b2 7f80 	cmp.w	r2, #256	; 0x100
 800419a:	ee28 9a89 	vmul.f32	s18, s17, s18
 800419e:	ed8a 9a00 	vstr	s18, [sl]
 80041a2:	f001 85ce 	beq.w	8005d42 <make_sound.constprop.32+0x30f6>
 80041a6:	edca ca07 	vstr	s25, [sl, #28]
 80041aa:	edca 9a08 	vstr	s19, [sl, #32]
 80041ae:	ed8a ba09 	vstr	s22, [sl, #36]	; 0x24
 80041b2:	edca ba0a 	vstr	s23, [sl, #40]	; 0x28
 80041b6:	edca 8a0b 	vstr	s17, [sl, #44]	; 0x2c
 80041ba:	f8c4 2bdc 	str.w	r2, [r4, #3036]	; 0xbdc
 80041be:	f8c4 bbe0 	str.w	fp, [r4, #3040]	; 0xbe0
 80041c2:	f7ff bb5b 	b.w	800387c <make_sound.constprop.32+0xc30>
 80041c6:	bf00      	nop
 80041c8:	10000048 	.word	0x10000048
 80041cc:	00000000 	.word	0x00000000
 80041d0:	46ac4400 	.word	0x46ac4400
 80041d4:	4322f983 	.word	0x4322f983
 80041d8:	39156592 	.word	0x39156592
 80041dc:	472c4400 	.word	0x472c4400
 80041e0:	3727c5ac 	.word	0x3727c5ac
 80041e4:	1e3ce508 	.word	0x1e3ce508
 80041e8:	08010508 	.word	0x08010508
 80041ec:	100006bc 	.word	0x100006bc
 80041f0:	42800000 	.word	0x42800000
 80041f4:	1000068c 	.word	0x1000068c
 80041f8:	f894 2688 	ldrb.w	r2, [r4, #1672]	; 0x688
 80041fc:	f8d4 1680 	ldr.w	r1, [r4, #1664]	; 0x680
 8004200:	edc4 9a50 	vstr	s19, [r4, #320]	; 0x140
 8004204:	4bbc      	ldr	r3, [pc, #752]	; (80044f8 <make_sound.constprop.32+0x18ac>)
 8004206:	ed94 9a52 	vldr	s18, [r4, #328]	; 0x148
 800420a:	edd4 ca54 	vldr	s25, [r4, #336]	; 0x150
 800420e:	edd4 5a55 	vldr	s11, [r4, #340]	; 0x154
 8004212:	ed94 ba56 	vldr	s22, [r4, #344]	; 0x158
 8004216:	edd4 8a57 	vldr	s17, [r4, #348]	; 0x15c
 800421a:	9101      	str	r1, [sp, #4]
 800421c:	f8d4 b684 	ldr.w	fp, [r4, #1668]	; 0x684
 8004220:	2a00      	cmp	r2, #0
 8004222:	f040 8657 	bne.w	8004ed4 <make_sound.constprop.32+0x2288>
 8004226:	eddf 7ab5 	vldr	s15, [pc, #724]	; 80044fc <make_sound.constprop.32+0x18b0>
 800422a:	ed93 7a51 	vldr	s14, [r3, #324]	; 0x144
 800422e:	eec9 9aa7 	vdiv.f32	s19, s19, s15
 8004232:	eef7 6a00 	vmov.f32	s13, #112	; 0x70
 8004236:	ee37 6a26 	vadd.f32	s12, s14, s13
 800423a:	eeb6 7a00 	vmov.f32	s14, #96	; 0x60
 800423e:	ee76 6ae5 	vsub.f32	s13, s13, s11
 8004242:	ee26 7a07 	vmul.f32	s14, s12, s14
 8004246:	eddf 7aae 	vldr	s15, [pc, #696]	; 8004500 <make_sound.constprop.32+0x18b4>
 800424a:	eef4 9ae7 	vcmpe.f32	s19, s15
 800424e:	eef1 fa10 	vmrs	APSR_nzcv, fpscr
 8004252:	f101 81c2 	bmi.w	80055da <make_sound.constprop.32+0x298e>
 8004256:	eef6 7a00 	vmov.f32	s15, #96	; 0x60
 800425a:	eef4 9a67 	vcmp.f32	s19, s15
 800425e:	eef1 fa10 	vmrs	APSR_nzcv, fpscr
 8004262:	bfc8      	it	gt
 8004264:	eef0 9a67 	vmovgt.f32	s19, s15
 8004268:	eef4 5a47 	vcmp.f32	s11, s14
 800426c:	eef1 fa10 	vmrs	APSR_nzcv, fpscr
 8004270:	bfc8      	it	gt
 8004272:	eeb0 7a65 	vmovgt.f32	s14, s11
 8004276:	eeb4 7a66 	vcmp.f32	s14, s13
 800427a:	eef1 fa10 	vmrs	APSR_nzcv, fpscr
 800427e:	bfc8      	it	gt
 8004280:	eeb0 7a66 	vmovgt.f32	s14, s13
 8004284:	ee37 7a4b 	vsub.f32	s14, s14, s22
 8004288:	ee79 9ae5 	vsub.f32	s19, s19, s11
 800428c:	ee3b ba07 	vadd.f32	s22, s22, s14
 8004290:	ed9f 7a9c 	vldr	s14, [pc, #624]	; 8004504 <make_sound.constprop.32+0x18b8>
 8004294:	ee75 9aa9 	vadd.f32	s19, s11, s19
 8004298:	eeb4 9ac7 	vcmpe.f32	s18, s14
 800429c:	eef7 7a00 	vmov.f32	s15, #112	; 0x70
 80042a0:	eef1 fa10 	vmrs	APSR_nzcv, fpscr
 80042a4:	ee79 caac 	vadd.f32	s25, s19, s25
 80042a8:	ee77 bacb 	vsub.f32	s23, s15, s22
 80042ac:	f2c1 8131 	blt.w	8005512 <make_sound.constprop.32+0x28c6>
 80042b0:	ee39 7a47 	vsub.f32	s14, s18, s14
 80042b4:	ee29 ca87 	vmul.f32	s24, s19, s14
 80042b8:	ee7c cacc 	vsub.f32	s25, s25, s24
 80042bc:	f1bb 0f00 	cmp.w	fp, #0
 80042c0:	f041 82e8 	bne.w	8005894 <make_sound.constprop.32+0x2c48>
 80042c4:	ee8c da8b 	vdiv.f32	s26, s25, s22
 80042c8:	eeb4 baec 	vcmpe.f32	s22, s25
 80042cc:	eeb6 ea00 	vmov.f32	s28, #96	; 0x60
 80042d0:	eef1 fa10 	vmrs	APSR_nzcv, fpscr
 80042d4:	ee3d da4e 	vsub.f32	s26, s26, s28
 80042d8:	f241 874a 	bls.w	8006170 <make_sound.constprop.32+0x3524>
 80042dc:	eef4 cae7 	vcmpe.f32	s25, s15
 80042e0:	eef1 fa10 	vmrs	APSR_nzcv, fpscr
 80042e4:	f2c1 8672 	blt.w	8005fcc <make_sound.constprop.32+0x3380>
 80042e8:	9b01      	ldr	r3, [sp, #4]
 80042ea:	4f87      	ldr	r7, [pc, #540]	; (8004508 <make_sound.constprop.32+0x18bc>)
 80042ec:	f8df a230 	ldr.w	sl, [pc, #560]	; 8004520 <make_sound.constprop.32+0x18d4>
 80042f0:	ea4f 0b83 	mov.w	fp, r3, lsl #2
 80042f4:	eef7 7a00 	vmov.f32	s15, #112	; 0x70
 80042f8:	ee7c cae7 	vsub.f32	s25, s25, s15
 80042fc:	ed9f 7a83 	vldr	s14, [pc, #524]	; 800450c <make_sound.constprop.32+0x18c0>
 8004300:	ee7c 6a2c 	vadd.f32	s13, s24, s25
 8004304:	ee8c 6a8b 	vdiv.f32	s12, s25, s22
 8004308:	ee66 ca87 	vmul.f32	s25, s13, s14
 800430c:	eec7 6a8b 	vdiv.f32	s13, s15, s22
 8004310:	eecc caa9 	vdiv.f32	s25, s25, s19
 8004314:	eec7 7aab 	vdiv.f32	s15, s15, s23
 8004318:	eeb6 da00 	vmov.f32	s26, #96	; 0x60
 800431c:	ee3c 0acd 	vsub.f32	s0, s25, s26
 8004320:	ee76 daa7 	vadd.f32	s27, s13, s15
 8004324:	ee36 da4d 	vsub.f32	s26, s12, s26
 8004328:	f009 ffc2 	bl	800e2b0 <lrintf>
 800432c:	ee07 0a90 	vmov	s15, r0
 8004330:	eef8 7ae7 	vcvt.f32.s32	s15, s15
 8004334:	f000 003f 	and.w	r0, r0, #63	; 0x3f
 8004338:	ee69 6aad 	vmul.f32	s13, s19, s27
 800433c:	ee7c cae7 	vsub.f32	s25, s25, s15
 8004340:	eb07 0780 	add.w	r7, r7, r0, lsl #2
 8004344:	465a      	mov	r2, fp
 8004346:	edd7 7a00 	vldr	s15, [r7]
 800434a:	ed97 7a01 	vldr	s14, [r7, #4]
 800434e:	ee37 7a67 	vsub.f32	s14, s14, s15
 8004352:	eb0a 0302 	add.w	r3, sl, r2
 8004356:	eeec 7a87 	vfma.f32	s15, s25, s14
 800435a:	3040      	adds	r0, #64	; 0x40
 800435c:	f5b0 5f8e 	cmp.w	r0, #4544	; 0x11c0
 8004360:	ed93 7a00 	vldr	s14, [r3]
 8004364:	eea6 7aa7 	vfma.f32	s14, s13, s15
 8004368:	f507 7780 	add.w	r7, r7, #256	; 0x100
 800436c:	f102 0204 	add.w	r2, r2, #4
 8004370:	ed83 7a00 	vstr	s14, [r3]
 8004374:	dbe7      	blt.n	8004346 <make_sound.constprop.32+0x16fa>
 8004376:	eddf 6a65 	vldr	s13, [pc, #404]	; 800450c <make_sound.constprop.32+0x18c0>
 800437a:	ee6c 6a26 	vmul.f32	s13, s24, s13
 800437e:	eeb6 ea00 	vmov.f32	s28, #96	; 0x60
 8004382:	eec6 caa9 	vdiv.f32	s25, s13, s19
 8004386:	ee3c eace 	vsub.f32	s28, s25, s28
 800438a:	eefe 7a00 	vmov.f32	s15, #224	; 0xe0
 800438e:	eeb0 0a4e 	vmov.f32	s0, s28
 8004392:	ee37 dacd 	vsub.f32	s26, s15, s26
 8004396:	f009 ff8b 	bl	800e2b0 <lrintf>
 800439a:	ee07 0a90 	vmov	s15, r0
 800439e:	eef8 6ae7 	vcvt.f32.s32	s13, s15
 80043a2:	4f5b      	ldr	r7, [pc, #364]	; (8004510 <make_sound.constprop.32+0x18c4>)
 80043a4:	f000 003f 	and.w	r0, r0, #63	; 0x3f
 80043a8:	ee7c 6ae6 	vsub.f32	s13, s25, s13
 80043ac:	eb07 07c0 	add.w	r7, r7, r0, lsl #3
 80043b0:	465a      	mov	r2, fp
 80043b2:	edd7 7a01 	vldr	s15, [r7, #4]
 80043b6:	ed97 7a00 	vldr	s14, [r7]
 80043ba:	eea6 7aa7 	vfma.f32	s14, s13, s15
 80043be:	eb0a 0302 	add.w	r3, sl, r2
 80043c2:	3040      	adds	r0, #64	; 0x40
 80043c4:	edd3 7a00 	vldr	s15, [r3]
 80043c8:	eeed 7a07 	vfma.f32	s15, s26, s14
 80043cc:	f5b0 5f90 	cmp.w	r0, #4608	; 0x1200
 80043d0:	f507 7700 	add.w	r7, r7, #512	; 0x200
 80043d4:	f102 0204 	add.w	r2, r2, #4
 80043d8:	edc3 7a00 	vstr	s15, [r3]
 80043dc:	dbe9      	blt.n	80043b2 <make_sound.constprop.32+0x1766>
 80043de:	eeb4 bacc 	vcmpe.f32	s22, s24
 80043e2:	eef1 fa10 	vmrs	APSR_nzcv, fpscr
 80043e6:	f241 84d4 	bls.w	8005d92 <make_sound.constprop.32+0x3146>
 80043ea:	ee8c da0b 	vdiv.f32	s26, s24, s22
 80043ee:	f04f 0b00 	mov.w	fp, #0
 80043f2:	eef6 7a00 	vmov.f32	s15, #96	; 0x60
 80043f6:	ee3d da67 	vsub.f32	s26, s26, s15
 80043fa:	ed84 9a53 	vstr	s18, [r4, #332]	; 0x14c
 80043fe:	9901      	ldr	r1, [sp, #4]
 8004400:	ed94 9a4e 	vldr	s18, [r4, #312]	; 0x138
 8004404:	4f3c      	ldr	r7, [pc, #240]	; (80044f8 <make_sound.constprop.32+0x18ac>)
 8004406:	eb04 0381 	add.w	r3, r4, r1, lsl #2
 800440a:	edd3 7a5c 	vldr	s15, [r3, #368]	; 0x170
 800440e:	ee37 da8d 	vadd.f32	s26, s15, s26
 8004412:	edd3 7a58 	vldr	s15, [r3, #352]	; 0x160
 8004416:	ed83 da5c 	vstr	s26, [r3, #368]	; 0x170
 800441a:	ee77 7ae8 	vsub.f32	s15, s15, s17
 800441e:	eeb6 7a00 	vmov.f32	s14, #96	; 0x60
 8004422:	eee7 8a87 	vfma.f32	s17, s15, s14
 8004426:	460b      	mov	r3, r1
 8004428:	3301      	adds	r3, #1
 800442a:	f5b3 7f80 	cmp.w	r3, #256	; 0x100
 800442e:	ee28 9a89 	vmul.f32	s18, s17, s18
 8004432:	ed84 9a4d 	vstr	s18, [r4, #308]	; 0x134
 8004436:	f001 8498 	beq.w	8005d6a <make_sound.constprop.32+0x311e>
 800443a:	ed84 ca54 	vstr	s24, [r4, #336]	; 0x150
 800443e:	edc4 9a55 	vstr	s19, [r4, #340]	; 0x154
 8004442:	ed84 ba56 	vstr	s22, [r4, #344]	; 0x158
 8004446:	edc4 8a57 	vstr	s17, [r4, #348]	; 0x15c
 800444a:	f8c4 3680 	str.w	r3, [r4, #1664]	; 0x680
 800444e:	f8c4 b684 	str.w	fp, [r4, #1668]	; 0x684
 8004452:	f7ff ba13 	b.w	800387c <make_sound.constprop.32+0xc30>
 8004456:	ed94 0a48 	vldr	s0, [r4, #288]	; 0x120
 800445a:	eeb4 0ac8 	vcmpe.f32	s0, s16
 800445e:	eef1 fa10 	vmrs	APSR_nzcv, fpscr
 8004462:	db08      	blt.n	8004476 <make_sound.constprop.32+0x182a>
 8004464:	ee30 0a48 	vsub.f32	s0, s0, s16
 8004468:	eeb4 0ac8 	vcmpe.f32	s0, s16
 800446c:	eef1 fa10 	vmrs	APSR_nzcv, fpscr
 8004470:	daf8      	bge.n	8004464 <make_sound.constprop.32+0x1818>
 8004472:	ed84 0a48 	vstr	s0, [r4, #288]	; 0x120
 8004476:	f009 ffc9 	bl	800e40c <sinf>
 800447a:	ed94 7a48 	vldr	s14, [r4, #288]	; 0x120
 800447e:	ed94 6a47 	vldr	s12, [r4, #284]	; 0x11c
 8004482:	eddf 6a24 	vldr	s13, [pc, #144]	; 8004514 <make_sound.constprop.32+0x18c8>
 8004486:	edd4 7a45 	vldr	s15, [r4, #276]	; 0x114
 800448a:	eddf 8a23 	vldr	s17, [pc, #140]	; 8004518 <make_sound.constprop.32+0x18cc>
 800448e:	eea6 7a26 	vfma.f32	s14, s12, s13
 8004492:	ee20 0a27 	vmul.f32	s0, s0, s15
 8004496:	ed84 7a48 	vstr	s14, [r4, #288]	; 0x120
 800449a:	ed84 0a4c 	vstr	s0, [r4, #304]	; 0x130
 800449e:	ee20 9a28 	vmul.f32	s18, s0, s17
 80044a2:	f7ff b9eb 	b.w	800387c <make_sound.constprop.32+0xc30>
 80044a6:	eeff 7a00 	vmov.f32	s15, #240	; 0xf0
 80044aa:	eef4 8ae7 	vcmpe.f32	s17, s15
 80044ae:	eef1 fa10 	vmrs	APSR_nzcv, fpscr
 80044b2:	f100 827f 	bmi.w	80049b4 <make_sound.constprop.32+0x1d68>
 80044b6:	eddf 7a19 	vldr	s15, [pc, #100]	; 800451c <make_sound.constprop.32+0x18d0>
 80044ba:	ee68 8aa7 	vmul.f32	s17, s17, s15
 80044be:	eefd 8ae8 	vcvt.s32.f32	s17, s17
 80044c2:	edcd 8a01 	vstr	s17, [sp, #4]
 80044c6:	f8bd 3004 	ldrh.w	r3, [sp, #4]
 80044ca:	f7ff ba85 	b.w	80039d8 <make_sound.constprop.32+0xd8c>
 80044ce:	eeff 7a00 	vmov.f32	s15, #240	; 0xf0
 80044d2:	eeb4 9ae7 	vcmpe.f32	s18, s15
 80044d6:	eef1 fa10 	vmrs	APSR_nzcv, fpscr
 80044da:	f100 8267 	bmi.w	80049ac <make_sound.constprop.32+0x1d60>
 80044de:	eddf 7a0f 	vldr	s15, [pc, #60]	; 800451c <make_sound.constprop.32+0x18d0>
 80044e2:	ee29 9a27 	vmul.f32	s18, s18, s15
 80044e6:	eebd 9ac9 	vcvt.s32.f32	s18, s18
 80044ea:	ed8d 9a01 	vstr	s18, [sp, #4]
 80044ee:	f8bd 2004 	ldrh.w	r2, [sp, #4]
 80044f2:	f7ff ba67 	b.w	80039c4 <make_sound.constprop.32+0xd78>
 80044f6:	bf00      	nop
 80044f8:	10000000 	.word	0x10000000
 80044fc:	472c4400 	.word	0x472c4400
 8004500:	3727c5ac 	.word	0x3727c5ac
 8004504:	1e3ce508 	.word	0x1e3ce508
 8004508:	08019510 	.word	0x08019510
 800450c:	42800000 	.word	0x42800000
 8004510:	08010508 	.word	0x08010508
 8004514:	39156592 	.word	0x39156592
 8004518:	3f4ccccd 	.word	0x3f4ccccd
 800451c:	46fffe00 	.word	0x46fffe00
 8004520:	10000160 	.word	0x10000160
 8004524:	f891 302c 	ldrb.w	r3, [r1, #44]	; 0x2c
 8004528:	2b00      	cmp	r3, #0
 800452a:	f000 8363 	beq.w	8004bf4 <make_sound.constprop.32+0x1fa8>
 800452e:	f894 303f 	ldrb.w	r3, [r4, #63]	; 0x3f
 8004532:	4aca      	ldr	r2, [pc, #808]	; (800485c <make_sound.constprop.32+0x1c10>)
 8004534:	b913      	cbnz	r3, 800453c <make_sound.constprop.32+0x18f0>
 8004536:	f892 3041 	ldrb.w	r3, [r2, #65]	; 0x41
 800453a:	b3bb      	cbz	r3, 80045ac <make_sound.constprop.32+0x1960>
 800453c:	f009 fb46 	bl	800dbcc <seq_sequence_new>
 8004540:	4fc7      	ldr	r7, [pc, #796]	; (8004860 <make_sound.constprop.32+0x1c14>)
 8004542:	eddf 9ac8 	vldr	s19, [pc, #800]	; 8004864 <make_sound.constprop.32+0x1c18>
 8004546:	ed9f 9ac8 	vldr	s18, [pc, #800]	; 8004868 <make_sound.constprop.32+0x1c1c>
 800454a:	2300      	movs	r3, #0
 800454c:	f04f 527e 	mov.w	r2, #1065353216	; 0x3f800000
 8004550:	2100      	movs	r1, #0
 8004552:	ee08 3a90 	vmov	s17, r3
 8004556:	6763      	str	r3, [r4, #116]	; 0x74
 8004558:	6723      	str	r3, [r4, #112]	; 0x70
 800455a:	f107 0a2c 	add.w	sl, r7, #44	; 0x2c
 800455e:	f107 0b24 	add.w	fp, r7, #36	; 0x24
 8004562:	f884 1041 	strb.w	r1, [r4, #65]	; 0x41
 8004566:	64a2      	str	r2, [r4, #72]	; 0x48
 8004568:	6462      	str	r2, [r4, #68]	; 0x44
 800456a:	f00b fdd3 	bl	8010114 <rand>
 800456e:	ee07 0a90 	vmov	s15, r0
 8004572:	eef8 7ae7 	vcvt.f32.s32	s15, s15
 8004576:	eeb0 7a49 	vmov.f32	s14, s18
 800457a:	ee67 7a8a 	vmul.f32	s15, s15, s20
 800457e:	ecea 8a01 	vstmia	sl!, {s17}
 8004582:	eea7 7aa9 	vfma.f32	s14, s15, s19
 8004586:	4bb5      	ldr	r3, [pc, #724]	; (800485c <make_sound.constprop.32+0x1c10>)
 8004588:	eca7 7a01 	vstmia	r7!, {s14}
 800458c:	eef0 7a47 	vmov.f32	s15, s14
 8004590:	ed94 7a11 	vldr	s14, [r4, #68]	; 0x44
 8004594:	ee77 7a87 	vadd.f32	s15, s15, s14
 8004598:	455f      	cmp	r7, fp
 800459a:	edc4 7a11 	vstr	s15, [r4, #68]	; 0x44
 800459e:	d1e4      	bne.n	800456a <make_sound.constprop.32+0x191e>
 80045a0:	eeb7 7a00 	vmov.f32	s14, #112	; 0x70
 80045a4:	eec7 7a27 	vdiv.f32	s15, s14, s15
 80045a8:	edc3 7a11 	vstr	s15, [r3, #68]	; 0x44
 80045ac:	f894 3042 	ldrb.w	r3, [r4, #66]	; 0x42
 80045b0:	4faa      	ldr	r7, [pc, #680]	; (800485c <make_sound.constprop.32+0x1c10>)
 80045b2:	b1bb      	cbz	r3, 80045e4 <make_sound.constprop.32+0x1998>
 80045b4:	f00b fdae 	bl	8010114 <rand>
 80045b8:	ee07 0a90 	vmov	s15, r0
 80045bc:	eef8 7ae7 	vcvt.f32.s32	s15, s15
 80045c0:	ed9f 7aaa 	vldr	s14, [pc, #680]	; 800486c <make_sound.constprop.32+0x1c20>
 80045c4:	ee67 7a8a 	vmul.f32	s15, s15, s20
 80045c8:	eeb0 0a6a 	vmov.f32	s0, s21
 80045cc:	eea7 0a87 	vfma.f32	s0, s15, s14
 80045d0:	f009 feb4 	bl	800e33c <rintf>
 80045d4:	eeb5 0a40 	vcmp.f32	s0, #0.0
 80045d8:	eef1 fa10 	vmrs	APSR_nzcv, fpscr
 80045dc:	f04f 0300 	mov.w	r3, #0
 80045e0:	f000 83a3 	beq.w	8004d2a <make_sound.constprop.32+0x20de>
 80045e4:	2300      	movs	r3, #0
 80045e6:	f8d4 109c 	ldr.w	r1, [r4, #156]	; 0x9c
 80045ea:	f8c4 10b8 	str.w	r1, [r4, #184]	; 0xb8
 80045ee:	f04f 527e 	mov.w	r2, #1065353216	; 0x3f800000
 80045f2:	f8c4 30c0 	str.w	r3, [r4, #192]	; 0xc0
 80045f6:	f8c4 30bc 	str.w	r3, [r4, #188]	; 0xbc
 80045fa:	f8c4 20b4 	str.w	r2, [r4, #180]	; 0xb4
 80045fe:	f894 30c4 	ldrb.w	r3, [r4, #196]	; 0xc4
 8004602:	2b00      	cmp	r3, #0
 8004604:	f040 82d3 	bne.w	8004bae <make_sound.constprop.32+0x1f62>
 8004608:	f894 303e 	ldrb.w	r3, [r4, #62]	; 0x3e
 800460c:	4893      	ldr	r0, [pc, #588]	; (800485c <make_sound.constprop.32+0x1c10>)
 800460e:	2b00      	cmp	r3, #0
 8004610:	f040 8293 	bne.w	8004b3a <make_sound.constprop.32+0x1eee>
 8004614:	f994 30e8 	ldrsb.w	r3, [r4, #232]	; 0xe8
 8004618:	2b01      	cmp	r3, #1
 800461a:	f000 82ae 	beq.w	8004b7a <make_sound.constprop.32+0x1f2e>
 800461e:	2b02      	cmp	r3, #2
 8004620:	f000 831c 	beq.w	8004c5c <make_sound.constprop.32+0x2010>
 8004624:	f894 202c 	ldrb.w	r2, [r4, #44]	; 0x2c
 8004628:	4b91      	ldr	r3, [pc, #580]	; (8004870 <make_sound.constprop.32+0x1c24>)
 800462a:	5ca2      	ldrb	r2, [r4, r2]
 800462c:	4f8b      	ldr	r7, [pc, #556]	; (800485c <make_sound.constprop.32+0x1c10>)
 800462e:	eb03 0382 	add.w	r3, r3, r2, lsl #2
 8004632:	681b      	ldr	r3, [r3, #0]
 8004634:	f8c4 30ec 	str.w	r3, [r4, #236]	; 0xec
 8004638:	f00b fd6c 	bl	8010114 <rand>
 800463c:	ee07 0a90 	vmov	s15, r0
 8004640:	eef8 7ae7 	vcvt.f32.s32	s15, s15
 8004644:	f894 302c 	ldrb.w	r3, [r4, #44]	; 0x2c
 8004648:	6a62      	ldr	r2, [r4, #36]	; 0x24
 800464a:	62a2      	str	r2, [r4, #40]	; 0x28
 800464c:	ee67 7a8a 	vmul.f32	s15, s15, s20
 8004650:	eeb0 7a6a 	vmov.f32	s14, s21
 8004654:	eea7 7aaa 	vfma.f32	s14, s15, s21
 8004658:	3301      	adds	r3, #1
 800465a:	b2db      	uxtb	r3, r3
 800465c:	edd4 7a40 	vldr	s15, [r4, #256]	; 0x100
 8004660:	ed84 7a3c 	vstr	s14, [r4, #240]	; 0xf0
 8004664:	2b0f      	cmp	r3, #15
 8004666:	eef5 7ac0 	vcmpe.f32	s15, #0.0
 800466a:	bf88      	it	hi
 800466c:	2300      	movhi	r3, #0
 800466e:	eef1 fa10 	vmrs	APSR_nzcv, fpscr
 8004672:	f887 302c 	strb.w	r3, [r7, #44]	; 0x2c
 8004676:	f53e ab0a 	bmi.w	8002c8e <make_sound.constprop.32+0x42>
 800467a:	eeb0 7a67 	vmov.f32	s14, s15
 800467e:	f7fe bb11 	b.w	8002ca4 <make_sound.constprop.32+0x58>
 8004682:	4f7c      	ldr	r7, [pc, #496]	; (8004874 <make_sound.constprop.32+0x1c28>)
 8004684:	4b7c      	ldr	r3, [pc, #496]	; (8004878 <make_sound.constprop.32+0x1c2c>)
 8004686:	f8df a23c 	ldr.w	sl, [pc, #572]	; 80048c4 <make_sound.constprop.32+0x1c78>
 800468a:	ed9f 7a8f 	vldr	s14, [pc, #572]	; 80048c8 <make_sound.constprop.32+0x1c7c>
 800468e:	ed97 0a00 	vldr	s0, [r7]
 8004692:	ed93 9a00 	vldr	s18, [r3]
 8004696:	edda 7a00 	vldr	s15, [sl]
 800469a:	ee20 0a07 	vmul.f32	s0, s0, s14
 800469e:	ee39 9a67 	vsub.f32	s18, s18, s15
 80046a2:	f009 fe05 	bl	800e2b0 <lrintf>
 80046a6:	eb08 0080 	add.w	r0, r8, r0, lsl #2
 80046aa:	edd0 6a00 	vldr	s13, [r0]
 80046ae:	ed9a 7a00 	vldr	s14, [sl]
 80046b2:	4b72      	ldr	r3, [pc, #456]	; (800487c <make_sound.constprop.32+0x1c30>)
 80046b4:	4a72      	ldr	r2, [pc, #456]	; (8004880 <make_sound.constprop.32+0x1c34>)
 80046b6:	ed93 6a00 	vldr	s12, [r3]
 80046ba:	4b72      	ldr	r3, [pc, #456]	; (8004884 <make_sound.constprop.32+0x1c38>)
 80046bc:	ed92 2a00 	vldr	s4, [r2]
 80046c0:	ed93 3a00 	vldr	s6, [r3]
 80046c4:	4b70      	ldr	r3, [pc, #448]	; (8004888 <make_sound.constprop.32+0x1c3c>)
 80046c6:	edd7 5a00 	vldr	s11, [r7]
 80046ca:	edd3 4a00 	vldr	s9, [r3]
 80046ce:	ed93 5a01 	vldr	s10, [r3, #4]
 80046d2:	ed93 4a05 	vldr	s8, [r3, #20]
 80046d6:	496d      	ldr	r1, [pc, #436]	; (800488c <make_sound.constprop.32+0x1c40>)
 80046d8:	eef7 7a00 	vmov.f32	s15, #112	; 0x70
 80046dc:	ee76 6aa7 	vadd.f32	s13, s13, s15
 80046e0:	eef6 7a00 	vmov.f32	s15, #96	; 0x60
 80046e4:	ee66 7aa7 	vmul.f32	s15, s13, s15
 80046e8:	eef7 3a00 	vmov.f32	s7, #112	; 0x70
 80046ec:	eea9 7a27 	vfma.f32	s14, s18, s15
 80046f0:	ee75 6a86 	vadd.f32	s13, s11, s12
 80046f4:	ee73 7ac7 	vsub.f32	s15, s7, s14
 80046f8:	ee37 7a23 	vadd.f32	s14, s14, s7
 80046fc:	edd3 5a02 	vldr	s11, [r3, #8]
 8004700:	ed93 6a03 	vldr	s12, [r3, #12]
 8004704:	edd1 2a00 	vldr	s5, [r1]
 8004708:	4961      	ldr	r1, [pc, #388]	; (8004890 <make_sound.constprop.32+0x1c44>)
 800470a:	eec7 7a87 	vdiv.f32	s15, s15, s14
 800470e:	eeb0 7a68 	vmov.f32	s14, s17
 8004712:	eea2 7a03 	vfma.f32	s14, s4, s6
 8004716:	eef4 6ac8 	vcmpe.f32	s13, s16
 800471a:	eee7 4a67 	vfms.f32	s9, s14, s15
 800471e:	eeb0 3a47 	vmov.f32	s6, s14
 8004722:	eeb0 7a45 	vmov.f32	s14, s10
 8004726:	eea4 7ae7 	vfms.f32	s14, s9, s15
 800472a:	eef1 fa10 	vmrs	APSR_nzcv, fpscr
 800472e:	eee7 5a67 	vfms.f32	s11, s14, s15
 8004732:	bfa8      	it	ge
 8004734:	ee76 6ac8 	vsubge.f32	s13, s13, s16
 8004738:	eea7 3aa4 	vfma.f32	s6, s15, s9
 800473c:	eee7 4a87 	vfma.f32	s9, s15, s14
 8004740:	eea7 7aa5 	vfma.f32	s14, s15, s11
 8004744:	eea5 6ae7 	vfms.f32	s12, s11, s15
 8004748:	edc7 6a00 	vstr	s13, [r7]
 800474c:	edd3 6a04 	vldr	s13, [r3, #16]
 8004750:	ed83 3a00 	vstr	s6, [r3]
 8004754:	eeb0 5a47 	vmov.f32	s10, s14
 8004758:	eeb0 7a66 	vmov.f32	s14, s13
 800475c:	eea6 7a67 	vfms.f32	s14, s12, s15
 8004760:	eef0 6a44 	vmov.f32	s13, s8
 8004764:	eee7 6a67 	vfms.f32	s13, s14, s15
 8004768:	ee73 3ae2 	vsub.f32	s7, s7, s5
 800476c:	eee7 5a86 	vfma.f32	s11, s15, s12
 8004770:	ee66 2aa2 	vmul.f32	s5, s13, s5
 8004774:	eea7 6a87 	vfma.f32	s12, s15, s14
 8004778:	eea7 7aa6 	vfma.f32	s14, s15, s13
 800477c:	eee8 2aa3 	vfma.f32	s5, s17, s7
 8004780:	edc3 4a01 	vstr	s9, [r3, #4]
 8004784:	ed83 5a02 	vstr	s10, [r3, #8]
 8004788:	edc3 5a03 	vstr	s11, [r3, #12]
 800478c:	ed83 6a04 	vstr	s12, [r3, #16]
 8004790:	ed83 7a05 	vstr	s14, [r3, #20]
 8004794:	f895 31a6 	ldrb.w	r3, [r5, #422]	; 0x1a6
 8004798:	edc1 7a00 	vstr	s15, [r1]
 800479c:	eef0 8a62 	vmov.f32	s17, s5
 80047a0:	edc2 6a00 	vstr	s13, [r2]
 80047a4:	2b00      	cmp	r3, #0
 80047a6:	f43f a901 	beq.w	80039ac <make_sound.constprop.32+0xd60>
 80047aa:	483a      	ldr	r0, [pc, #232]	; (8004894 <make_sound.constprop.32+0x1c48>)
 80047ac:	493a      	ldr	r1, [pc, #232]	; (8004898 <make_sound.constprop.32+0x1c4c>)
 80047ae:	eeb0 0a68 	vmov.f32	s0, s17
 80047b2:	f009 fc63 	bl	800e07c <mono_chorus_compute>
 80047b6:	4839      	ldr	r0, [pc, #228]	; (800489c <make_sound.constprop.32+0x1c50>)
 80047b8:	4939      	ldr	r1, [pc, #228]	; (80048a0 <make_sound.constprop.32+0x1c54>)
 80047ba:	eeb0 9a40 	vmov.f32	s18, s0
 80047be:	eeb0 0a68 	vmov.f32	s0, s17
 80047c2:	f009 fc5b 	bl	800e07c <mono_chorus_compute>
 80047c6:	eef0 8a40 	vmov.f32	s17, s0
 80047ca:	f7ff b8f1 	b.w	80039b0 <make_sound.constprop.32+0xd64>
 80047ce:	4a35      	ldr	r2, [pc, #212]	; (80048a4 <make_sound.constprop.32+0x1c58>)
 80047d0:	4835      	ldr	r0, [pc, #212]	; (80048a8 <make_sound.constprop.32+0x1c5c>)
 80047d2:	ed92 7a00 	vldr	s14, [r2]
 80047d6:	6803      	ldr	r3, [r0, #0]
 80047d8:	eddf 7a24 	vldr	s15, [pc, #144]	; 800486c <make_sound.constprop.32+0x1c20>
 80047dc:	ed93 6a00 	vldr	s12, [r3]
 80047e0:	eddf 6a32 	vldr	s13, [pc, #200]	; 80048ac <make_sound.constprop.32+0x1c60>
 80047e4:	4932      	ldr	r1, [pc, #200]	; (80048b0 <make_sound.constprop.32+0x1c64>)
 80047e6:	ee67 7a27 	vmul.f32	s15, s14, s15
 80047ea:	ed91 7a00 	vldr	s14, [r1]
 80047ee:	eee6 7a26 	vfma.f32	s15, s12, s13
 80047f2:	eeb0 6a68 	vmov.f32	s12, s17
 80047f6:	eea7 6a87 	vfma.f32	s12, s15, s14
 80047fa:	eef7 6a00 	vmov.f32	s13, #112	; 0x70
 80047fe:	eeb4 6ae6 	vcmpe.f32	s12, s13
 8004802:	eef1 fa10 	vmrs	APSR_nzcv, fpscr
 8004806:	eeb0 7a46 	vmov.f32	s14, s12
 800480a:	edc2 7a00 	vstr	s15, [r2]
 800480e:	f340 80c3 	ble.w	8004998 <make_sound.constprop.32+0x1d4c>
 8004812:	eeb0 7a66 	vmov.f32	s14, s13
 8004816:	4f27      	ldr	r7, [pc, #156]	; (80048b4 <make_sound.constprop.32+0x1c68>)
 8004818:	4927      	ldr	r1, [pc, #156]	; (80048b8 <make_sound.constprop.32+0x1c6c>)
 800481a:	683a      	ldr	r2, [r7, #0]
 800481c:	f8df c09c 	ldr.w	ip, [pc, #156]	; 80048bc <make_sound.constprop.32+0x1c70>
 8004820:	eca2 7a01 	vstmia	r2!, {s14}
 8004824:	3304      	adds	r3, #4
 8004826:	ebc1 0a02 	rsb	sl, r1, r2
 800482a:	603a      	str	r2, [r7, #0]
 800482c:	4a23      	ldr	r2, [pc, #140]	; (80048bc <make_sound.constprop.32+0x1c70>)
 800482e:	6003      	str	r3, [r0, #0]
 8004830:	45e2      	cmp	sl, ip
 8004832:	eba3 0301 	sub.w	r3, r3, r1
 8004836:	bfc8      	it	gt
 8004838:	6039      	strgt	r1, [r7, #0]
 800483a:	4293      	cmp	r3, r2
 800483c:	4b20      	ldr	r3, [pc, #128]	; (80048c0 <make_sound.constprop.32+0x1c74>)
 800483e:	bfc8      	it	gt
 8004840:	6001      	strgt	r1, [r0, #0]
 8004842:	edd3 6a00 	vldr	s13, [r3]
 8004846:	eef7 7a00 	vmov.f32	s15, #112	; 0x70
 800484a:	ee77 7ae6 	vsub.f32	s15, s15, s13
 800484e:	468e      	mov	lr, r1
 8004850:	ee68 8aa7 	vmul.f32	s17, s17, s15
 8004854:	eee7 8a26 	vfma.f32	s17, s14, s13
 8004858:	f7ff b89e 	b.w	8003998 <make_sound.constprop.32+0xd4c>
 800485c:	10000000 	.word	0x10000000
 8004860:	1000004c 	.word	0x1000004c
 8004864:	3f7a9fbf 	.word	0x3f7a9fbf
 8004868:	3a83126f 	.word	0x3a83126f
 800486c:	3f19999a 	.word	0x3f19999a
 8004870:	0801dc14 	.word	0x0801dc14
 8004874:	2001f0d4 	.word	0x2001f0d4
 8004878:	2001f0cc 	.word	0x2001f0cc
 800487c:	2001f0f0 	.word	0x2001f0f0
 8004880:	2001f0f4 	.word	0x2001f0f4
 8004884:	2001f100 	.word	0x2001f100
 8004888:	2001f0d8 	.word	0x2001f0d8
 800488c:	20001bf4 	.word	0x20001bf4
 8004890:	2001f0c8 	.word	0x2001f0c8
 8004894:	100012a0 	.word	0x100012a0
 8004898:	10002898 	.word	0x10002898
 800489c:	100028a8 	.word	0x100028a8
 80048a0:	10003ea0 	.word	0x10003ea0
 80048a4:	20001bf0 	.word	0x20001bf0
 80048a8:	2001f0fc 	.word	0x2001f0fc
 80048ac:	3ecccccc 	.word	0x3ecccccc
 80048b0:	20000050 	.word	0x20000050
 80048b4:	2001f0c4 	.word	0x2001f0c4
 80048b8:	20001bf8 	.word	0x20001bf8
 80048bc:	0001d4bf 	.word	0x0001d4bf
 80048c0:	20000058 	.word	0x20000058
 80048c4:	2001f0f8 	.word	0x2001f0f8
 80048c8:	4322f983 	.word	0x4322f983
 80048cc:	edd3 7a5c 	vldr	s15, [r3, #368]	; 0x170
 80048d0:	eef5 7ac0 	vcmpe.f32	s15, #0.0
 80048d4:	eef1 fa10 	vmrs	APSR_nzcv, fpscr
 80048d8:	d508      	bpl.n	80048ec <make_sound.constprop.32+0x1ca0>
 80048da:	ee77 7a88 	vadd.f32	s15, s15, s16
 80048de:	eef5 7ac0 	vcmpe.f32	s15, #0.0
 80048e2:	eef1 fa10 	vmrs	APSR_nzcv, fpscr
 80048e6:	d4f8      	bmi.n	80048da <make_sound.constprop.32+0x1c8e>
 80048e8:	edc5 7a5c 	vstr	s15, [r5, #368]	; 0x170
 80048ec:	eef4 7ac8 	vcmpe.f32	s15, s16
 80048f0:	eef1 fa10 	vmrs	APSR_nzcv, fpscr
 80048f4:	db08      	blt.n	8004908 <make_sound.constprop.32+0x1cbc>
 80048f6:	ee77 7ac8 	vsub.f32	s15, s15, s16
 80048fa:	eef4 7ac8 	vcmpe.f32	s15, s16
 80048fe:	eef1 fa10 	vmrs	APSR_nzcv, fpscr
 8004902:	daf8      	bge.n	80048f6 <make_sound.constprop.32+0x1caa>
 8004904:	edc5 7a5c 	vstr	s15, [r5, #368]	; 0x170
 8004908:	ed1f 0a11 	vldr	s0, [pc, #-68]	; 80048c8 <make_sound.constprop.32+0x1c7c>
 800490c:	ee27 0a80 	vmul.f32	s0, s15, s0
 8004910:	f009 fcce 	bl	800e2b0 <lrintf>
 8004914:	eb08 0080 	add.w	r0, r8, r0, lsl #2
 8004918:	edd0 7a00 	vldr	s15, [r0]
 800491c:	4bc1      	ldr	r3, [pc, #772]	; (8004c24 <make_sound.constprop.32+0x1fd8>)
 800491e:	edd5 5a5c 	vldr	s11, [r5, #368]	; 0x170
 8004922:	ed95 4a5b 	vldr	s8, [r5, #364]	; 0x16c
 8004926:	eddf 4ac0 	vldr	s9, [pc, #768]	; 8004c28 <make_sound.constprop.32+0x1fdc>
 800492a:	ed93 6a00 	vldr	s12, [r3]
 800492e:	ed9f 5abf 	vldr	s10, [pc, #764]	; 8004c2c <make_sound.constprop.32+0x1fe0>
 8004932:	eeb7 7a00 	vmov.f32	s14, #112	; 0x70
 8004936:	eef6 6a00 	vmov.f32	s13, #96	; 0x60
 800493a:	ee77 7a87 	vadd.f32	s15, s15, s14
 800493e:	ee29 9a26 	vmul.f32	s18, s18, s13
 8004942:	eee4 5a24 	vfma.f32	s11, s8, s9
 8004946:	ee69 7a27 	vmul.f32	s15, s18, s15
 800494a:	edc5 5a5c 	vstr	s11, [r5, #368]	; 0x170
 800494e:	ee37 7a87 	vadd.f32	s14, s15, s14
 8004952:	edc5 7a60 	vstr	s15, [r5, #384]	; 0x180
 8004956:	ee67 7a06 	vmul.f32	s15, s14, s12
 800495a:	eef4 7ac5 	vcmpe.f32	s15, s10
 800495e:	eef1 fa10 	vmrs	APSR_nzcv, fpscr
 8004962:	f340 80cb 	ble.w	8004afc <make_sound.constprop.32+0x1eb0>
 8004966:	ed9f 7ab2 	vldr	s14, [pc, #712]	; 8004c30 <make_sound.constprop.32+0x1fe4>
 800496a:	eddf 7ab2 	vldr	s15, [pc, #712]	; 8004c34 <make_sound.constprop.32+0x1fe8>
 800496e:	edc5 7a62 	vstr	s15, [r5, #392]	; 0x188
 8004972:	ed85 7a63 	vstr	s14, [r5, #396]	; 0x18c
 8004976:	f7fe bff8 	b.w	800396a <make_sound.constprop.32+0xd1e>
 800497a:	2200      	movs	r2, #0
 800497c:	f8d3 00a8 	ldr.w	r0, [r3, #168]	; 0xa8
 8004980:	f8c3 20b4 	str.w	r2, [r3, #180]	; 0xb4
 8004984:	2100      	movs	r1, #0
 8004986:	2203      	movs	r2, #3
 8004988:	f8c3 00b8 	str.w	r0, [r3, #184]	; 0xb8
 800498c:	f8c3 10c0 	str.w	r1, [r3, #192]	; 0xc0
 8004990:	f8c3 20bc 	str.w	r2, [r3, #188]	; 0xbc
 8004994:	f7fe bfd4 	b.w	8003940 <make_sound.constprop.32+0xcf4>
 8004998:	eeff 7a00 	vmov.f32	s15, #240	; 0xf0
 800499c:	eeb4 6a67 	vcmp.f32	s12, s15
 80049a0:	eef1 fa10 	vmrs	APSR_nzcv, fpscr
 80049a4:	bf48      	it	mi
 80049a6:	eeb0 7a67 	vmovmi.f32	s14, s15
 80049aa:	e734      	b.n	8004816 <make_sound.constprop.32+0x1bca>
 80049ac:	f248 0201 	movw	r2, #32769	; 0x8001
 80049b0:	f7ff b808 	b.w	80039c4 <make_sound.constprop.32+0xd78>
 80049b4:	f248 0301 	movw	r3, #32769	; 0x8001
 80049b8:	f7ff b80e 	b.w	80039d8 <make_sound.constprop.32+0xd8c>
 80049bc:	ed93 7a2e 	vldr	s14, [r3, #184]	; 0xb8
 80049c0:	edd3 7a2d 	vldr	s15, [r3, #180]	; 0xb4
 80049c4:	ee79 9a87 	vadd.f32	s19, s19, s14
 80049c8:	eef4 9ae7 	vcmpe.f32	s19, s15
 80049cc:	eef1 fa10 	vmrs	APSR_nzcv, fpscr
 80049d0:	edc3 9a2b 	vstr	s19, [r3, #172]	; 0xac
 80049d4:	f6fe af65 	blt.w	80038a2 <make_sound.constprop.32+0xc56>
 80049d8:	f8d3 00a0 	ldr.w	r0, [r3, #160]	; 0xa0
 80049dc:	f8d3 10a4 	ldr.w	r1, [r3, #164]	; 0xa4
 80049e0:	edc3 7a2b 	vstr	s15, [r3, #172]	; 0xac
 80049e4:	2201      	movs	r2, #1
 80049e6:	eef0 9a67 	vmov.f32	s19, s15
 80049ea:	f8c3 00b8 	str.w	r0, [r3, #184]	; 0xb8
 80049ee:	f8c3 10b4 	str.w	r1, [r3, #180]	; 0xb4
 80049f2:	f8c3 20bc 	str.w	r2, [r3, #188]	; 0xbc
 80049f6:	f7fe bf54 	b.w	80038a2 <make_sound.constprop.32+0xc56>
 80049fa:	edd3 7a2a 	vldr	s15, [r3, #168]	; 0xa8
 80049fe:	ed9f 7a8e 	vldr	s14, [pc, #568]	; 8004c38 <make_sound.constprop.32+0x1fec>
 8004a02:	ee79 9ae7 	vsub.f32	s19, s19, s15
 8004a06:	eef4 9ac7 	vcmpe.f32	s19, s14
 8004a0a:	eef1 fa10 	vmrs	APSR_nzcv, fpscr
 8004a0e:	f240 8100 	bls.w	8004c12 <make_sound.constprop.32+0x1fc6>
 8004a12:	edc3 9a2b 	vstr	s19, [r3, #172]	; 0xac
 8004a16:	f7fe bf44 	b.w	80038a2 <make_sound.constprop.32+0xc56>
 8004a1a:	ed93 7a28 	vldr	s14, [r3, #160]	; 0xa0
 8004a1e:	edd3 7a29 	vldr	s15, [r3, #164]	; 0xa4
 8004a22:	ee79 9ac7 	vsub.f32	s19, s19, s14
 8004a26:	eef4 9ae7 	vcmpe.f32	s19, s15
 8004a2a:	eef1 fa10 	vmrs	APSR_nzcv, fpscr
 8004a2e:	edc3 9a2b 	vstr	s19, [r3, #172]	; 0xac
 8004a32:	f63e af36 	bhi.w	80038a2 <make_sound.constprop.32+0xc56>
 8004a36:	2100      	movs	r1, #0
 8004a38:	2202      	movs	r2, #2
 8004a3a:	edc3 7a2b 	vstr	s15, [r3, #172]	; 0xac
 8004a3e:	eef0 9a67 	vmov.f32	s19, s15
 8004a42:	f8c3 10b8 	str.w	r1, [r3, #184]	; 0xb8
 8004a46:	f8c3 20bc 	str.w	r2, [r3, #188]	; 0xbc
 8004a4a:	f7fe bf2a 	b.w	80038a2 <make_sound.constprop.32+0xc56>
 8004a4e:	edd3 7a54 	vldr	s15, [r3, #336]	; 0x150
 8004a52:	eef5 7ac0 	vcmpe.f32	s15, #0.0
 8004a56:	eef1 fa10 	vmrs	APSR_nzcv, fpscr
 8004a5a:	d508      	bpl.n	8004a6e <make_sound.constprop.32+0x1e22>
 8004a5c:	ee77 7a88 	vadd.f32	s15, s15, s16
 8004a60:	eef5 7ac0 	vcmpe.f32	s15, #0.0
 8004a64:	eef1 fa10 	vmrs	APSR_nzcv, fpscr
 8004a68:	d4f8      	bmi.n	8004a5c <make_sound.constprop.32+0x1e10>
 8004a6a:	edc5 7a54 	vstr	s15, [r5, #336]	; 0x150
 8004a6e:	eef4 7ac8 	vcmpe.f32	s15, s16
 8004a72:	eef1 fa10 	vmrs	APSR_nzcv, fpscr
 8004a76:	db08      	blt.n	8004a8a <make_sound.constprop.32+0x1e3e>
 8004a78:	ee77 7ac8 	vsub.f32	s15, s15, s16
 8004a7c:	eef4 7ac8 	vcmpe.f32	s15, s16
 8004a80:	eef1 fa10 	vmrs	APSR_nzcv, fpscr
 8004a84:	daf8      	bge.n	8004a78 <make_sound.constprop.32+0x1e2c>
 8004a86:	edc5 7a54 	vstr	s15, [r5, #336]	; 0x150
 8004a8a:	ed9f 0a6c 	vldr	s0, [pc, #432]	; 8004c3c <make_sound.constprop.32+0x1ff0>
 8004a8e:	ee27 0a80 	vmul.f32	s0, s15, s0
 8004a92:	f009 fc0d 	bl	800e2b0 <lrintf>
 8004a96:	eb08 0080 	add.w	r0, r8, r0, lsl #2
 8004a9a:	edd0 7a00 	vldr	s15, [r0]
 8004a9e:	4b68      	ldr	r3, [pc, #416]	; (8004c40 <make_sound.constprop.32+0x1ff4>)
 8004aa0:	edd5 5a54 	vldr	s11, [r5, #336]	; 0x150
 8004aa4:	ed95 4a53 	vldr	s8, [r5, #332]	; 0x14c
 8004aa8:	eddf 4a5f 	vldr	s9, [pc, #380]	; 8004c28 <make_sound.constprop.32+0x1fdc>
 8004aac:	ed93 6a00 	vldr	s12, [r3]
 8004ab0:	ed9f 5a5e 	vldr	s10, [pc, #376]	; 8004c2c <make_sound.constprop.32+0x1fe0>
 8004ab4:	eeb7 7a00 	vmov.f32	s14, #112	; 0x70
 8004ab8:	eef6 6a00 	vmov.f32	s13, #96	; 0x60
 8004abc:	ee77 7a87 	vadd.f32	s15, s15, s14
 8004ac0:	ee29 9a26 	vmul.f32	s18, s18, s13
 8004ac4:	eee4 5a24 	vfma.f32	s11, s8, s9
 8004ac8:	ee69 7a27 	vmul.f32	s15, s18, s15
 8004acc:	edc5 5a54 	vstr	s11, [r5, #336]	; 0x150
 8004ad0:	ee37 7a87 	vadd.f32	s14, s15, s14
 8004ad4:	edc5 7a58 	vstr	s15, [r5, #352]	; 0x160
 8004ad8:	ee67 7a06 	vmul.f32	s15, s14, s12
 8004adc:	eef4 7ac5 	vcmpe.f32	s15, s10
 8004ae0:	eef1 fa10 	vmrs	APSR_nzcv, fpscr
 8004ae4:	f340 8102 	ble.w	8004cec <make_sound.constprop.32+0x20a0>
 8004ae8:	ed9f 7a51 	vldr	s14, [pc, #324]	; 8004c30 <make_sound.constprop.32+0x1fe4>
 8004aec:	eddf 7a51 	vldr	s15, [pc, #324]	; 8004c34 <make_sound.constprop.32+0x1fe8>
 8004af0:	edc4 7a33 	vstr	s15, [r4, #204]	; 0xcc
 8004af4:	ed84 7a34 	vstr	s14, [r4, #208]	; 0xd0
 8004af8:	f7fe bf2e 	b.w	8003958 <make_sound.constprop.32+0xd0c>
 8004afc:	ee67 7aa6 	vmul.f32	s15, s15, s13
 8004b00:	eddf 5a50 	vldr	s11, [pc, #320]	; 8004c44 <make_sound.constprop.32+0x1ff8>
 8004b04:	ee67 5aa5 	vmul.f32	s11, s15, s11
 8004b08:	eeb9 7a04 	vmov.f32	s14, #148	; 0x94
 8004b0c:	ee35 6aa5 	vadd.f32	s12, s11, s11
 8004b10:	ee65 6aa5 	vmul.f32	s13, s11, s11
 8004b14:	eea5 7a86 	vfma.f32	s14, s11, s12
 8004b18:	eeb0 6a47 	vmov.f32	s12, s14
 8004b1c:	ee25 7aa6 	vmul.f32	s14, s11, s13
 8004b20:	eefa 6a0e 	vmov.f32	s13, #174	; 0xae
 8004b24:	eea5 7aa6 	vfma.f32	s14, s11, s13
 8004b28:	eef0 6a47 	vmov.f32	s13, s14
 8004b2c:	eeb0 7a08 	vmov.f32	s14, #8
 8004b30:	ee26 7a07 	vmul.f32	s14, s12, s14
 8004b34:	ee86 7a87 	vdiv.f32	s14, s13, s14
 8004b38:	e719      	b.n	800496e <make_sound.constprop.32+0x1d22>
 8004b3a:	f890 203d 	ldrb.w	r2, [r0, #61]	; 0x3d
 8004b3e:	b25f      	sxtb	r7, r3
 8004b40:	4413      	add	r3, r2
 8004b42:	f880 303d 	strb.w	r3, [r0, #61]	; 0x3d
 8004b46:	1e41      	subs	r1, r0, #1
 8004b48:	b2bf      	uxth	r7, r7
 8004b4a:	300f      	adds	r0, #15
 8004b4c:	f811 3f01 	ldrb.w	r3, [r1, #1]!
 8004b50:	443b      	add	r3, r7
 8004b52:	b29b      	uxth	r3, r3
 8004b54:	b21a      	sxth	r2, r3
 8004b56:	2a6a      	cmp	r2, #106	; 0x6a
 8004b58:	dd1f      	ble.n	8004b9a <make_sound.constprop.32+0x1f4e>
 8004b5a:	3b0c      	subs	r3, #12
 8004b5c:	b29a      	uxth	r2, r3
 8004b5e:	2a6a      	cmp	r2, #106	; 0x6a
 8004b60:	b293      	uxth	r3, r2
 8004b62:	d8fa      	bhi.n	8004b5a <make_sound.constprop.32+0x1f0e>
 8004b64:	4281      	cmp	r1, r0
 8004b66:	700b      	strb	r3, [r1, #0]
 8004b68:	d1f0      	bne.n	8004b4c <make_sound.constprop.32+0x1f00>
 8004b6a:	2300      	movs	r3, #0
 8004b6c:	f884 303e 	strb.w	r3, [r4, #62]	; 0x3e
 8004b70:	f994 30e8 	ldrsb.w	r3, [r4, #232]	; 0xe8
 8004b74:	2b01      	cmp	r3, #1
 8004b76:	f47f ad52 	bne.w	800461e <make_sound.constprop.32+0x19d2>
 8004b7a:	f00b facb 	bl	8010114 <rand>
 8004b7e:	4b32      	ldr	r3, [pc, #200]	; (8004c48 <make_sound.constprop.32+0x1ffc>)
 8004b80:	4003      	ands	r3, r0
 8004b82:	2b00      	cmp	r3, #0
 8004b84:	f2c1 80a1 	blt.w	8005cca <make_sound.constprop.32+0x307e>
 8004b88:	2b03      	cmp	r3, #3
 8004b8a:	f200 85e9 	bhi.w	8005760 <make_sound.constprop.32+0x2b14>
 8004b8e:	e8df f013 	tbh	[pc, r3, lsl #1]
 8004b92:	05e4      	.short	0x05e4
 8004b94:	081e082c 	.word	0x081e082c
 8004b98:	0825      	.short	0x0825
 8004b9a:	2a00      	cmp	r2, #0
 8004b9c:	dae2      	bge.n	8004b64 <make_sound.constprop.32+0x1f18>
 8004b9e:	330c      	adds	r3, #12
 8004ba0:	b29b      	uxth	r3, r3
 8004ba2:	041a      	lsls	r2, r3, #16
 8004ba4:	d4fb      	bmi.n	8004b9e <make_sound.constprop.32+0x1f52>
 8004ba6:	4281      	cmp	r1, r0
 8004ba8:	700b      	strb	r3, [r1, #0]
 8004baa:	d1cf      	bne.n	8004b4c <make_sound.constprop.32+0x1f00>
 8004bac:	e7dd      	b.n	8004b6a <make_sound.constprop.32+0x1f1e>
 8004bae:	f00b fab1 	bl	8010114 <rand>
 8004bb2:	ee07 0a90 	vmov	s15, r0
 8004bb6:	eddf 0a20 	vldr	s1, [pc, #128]	; 8004c38 <make_sound.constprop.32+0x1fec>
 8004bba:	ed9f 0a24 	vldr	s0, [pc, #144]	; 8004c4c <make_sound.constprop.32+0x2000>
 8004bbe:	eef8 7ae7 	vcvt.f32.s32	s15, s15
 8004bc2:	eee7 0a8a 	vfma.f32	s1, s15, s20
 8004bc6:	f009 fc5f 	bl	800e488 <powf>
 8004bca:	ed9f 6a21 	vldr	s12, [pc, #132]	; 8004c50 <make_sound.constprop.32+0x2004>
 8004bce:	eddf 7a17 	vldr	s15, [pc, #92]	; 8004c2c <make_sound.constprop.32+0x1fe0>
 8004bd2:	ee20 0a06 	vmul.f32	s0, s0, s12
 8004bd6:	eeb4 0ae7 	vcmpe.f32	s0, s15
 8004bda:	eef1 fa10 	vmrs	APSR_nzcv, fpscr
 8004bde:	f340 83db 	ble.w	8005398 <make_sound.constprop.32+0x274c>
 8004be2:	eddf 7a13 	vldr	s15, [pc, #76]	; 8004c30 <make_sound.constprop.32+0x1fe4>
 8004be6:	ed9f 6a13 	vldr	s12, [pc, #76]	; 8004c34 <make_sound.constprop.32+0x1fe8>
 8004bea:	ed84 6a33 	vstr	s12, [r4, #204]	; 0xcc
 8004bee:	edc4 7a34 	vstr	s15, [r4, #208]	; 0xd0
 8004bf2:	e509      	b.n	8004608 <make_sound.constprop.32+0x19bc>
 8004bf4:	4b17      	ldr	r3, [pc, #92]	; (8004c54 <make_sound.constprop.32+0x2008>)
 8004bf6:	781b      	ldrb	r3, [r3, #0]
 8004bf8:	2b00      	cmp	r3, #0
 8004bfa:	f43f ac98 	beq.w	800452e <make_sound.constprop.32+0x18e2>
 8004bfe:	4b16      	ldr	r3, [pc, #88]	; (8004c58 <make_sound.constprop.32+0x200c>)
 8004c00:	781b      	ldrb	r3, [r3, #0]
 8004c02:	2b00      	cmp	r3, #0
 8004c04:	f47f ac93 	bne.w	800452e <make_sound.constprop.32+0x18e2>
 8004c08:	f004 fef2 	bl	80099f0 <MagicPatch.part.2.lto_priv.141>
 8004c0c:	f008 fd76 	bl	800d6fc <MagicFX.part.1.lto_priv.142>
 8004c10:	e48d      	b.n	800452e <make_sound.constprop.32+0x18e2>
 8004c12:	2204      	movs	r2, #4
 8004c14:	eef0 9a47 	vmov.f32	s19, s14
 8004c18:	ed83 7a2b 	vstr	s14, [r3, #172]	; 0xac
 8004c1c:	f8c3 20bc 	str.w	r2, [r3, #188]	; 0xbc
 8004c20:	f7fe be3f 	b.w	80038a2 <make_sound.constprop.32+0xc56>
 8004c24:	2001f0c0 	.word	0x2001f0c0
 8004c28:	39156592 	.word	0x39156592
 8004c2c:	3f733333 	.word	0x3f733333
 8004c30:	413a1203 	.word	0x413a1203
 8004c34:	3ef33333 	.word	0x3ef33333
 8004c38:	00000000 	.word	0x00000000
 8004c3c:	4322f983 	.word	0x4322f983
 8004c40:	2001f0d0 	.word	0x2001f0d0
 8004c44:	40490fdb 	.word	0x40490fdb
 8004c48:	80000003 	.word	0x80000003
 8004c4c:	41055555 	.word	0x41055555
 8004c50:	3c5ee95c 	.word	0x3c5ee95c
 8004c54:	2000004c 	.word	0x2000004c
 8004c58:	2001f104 	.word	0x2001f104
 8004c5c:	f00b fa5a 	bl	8010114 <rand>
 8004c60:	4be9      	ldr	r3, [pc, #932]	; (8005008 <make_sound.constprop.32+0x23bc>)
 8004c62:	4003      	ands	r3, r0
 8004c64:	2b00      	cmp	r3, #0
 8004c66:	f2c1 8053 	blt.w	8005d10 <make_sound.constprop.32+0x30c4>
 8004c6a:	b2db      	uxtb	r3, r3
 8004c6c:	f1a3 010a 	sub.w	r1, r3, #10
 8004c70:	2901      	cmp	r1, #1
 8004c72:	f884 30e9 	strb.w	r3, [r4, #233]	; 0xe9
 8004c76:	4ae5      	ldr	r2, [pc, #916]	; (800500c <make_sound.constprop.32+0x23c0>)
 8004c78:	f240 8576 	bls.w	8005768 <make_sound.constprop.32+0x2b1c>
 8004c7c:	2b04      	cmp	r3, #4
 8004c7e:	f47f acd1 	bne.w	8004624 <make_sound.constprop.32+0x19d8>
 8004c82:	2300      	movs	r3, #0
 8004c84:	f04f 517e 	mov.w	r1, #1065353216	; 0x3f800000
 8004c88:	eddf 9ae1 	vldr	s19, [pc, #900]	; 8005010 <make_sound.constprop.32+0x23c4>
 8004c8c:	ed9f 9ae1 	vldr	s18, [pc, #900]	; 8005014 <make_sound.constprop.32+0x23c8>
 8004c90:	6753      	str	r3, [r2, #116]	; 0x74
 8004c92:	ee08 3a90 	vmov	s17, r3
 8004c96:	6713      	str	r3, [r2, #112]	; 0x70
 8004c98:	6491      	str	r1, [r2, #72]	; 0x48
 8004c9a:	6451      	str	r1, [r2, #68]	; 0x44
 8004c9c:	f102 074c 	add.w	r7, r2, #76	; 0x4c
 8004ca0:	f102 0a78 	add.w	sl, r2, #120	; 0x78
 8004ca4:	f102 0b70 	add.w	fp, r2, #112	; 0x70
 8004ca8:	f00b fa34 	bl	8010114 <rand>
 8004cac:	ee07 0a90 	vmov	s15, r0
 8004cb0:	eef8 7ae7 	vcvt.f32.s32	s15, s15
 8004cb4:	eeb0 7a49 	vmov.f32	s14, s18
 8004cb8:	ee67 7a8a 	vmul.f32	s15, s15, s20
 8004cbc:	ecea 8a01 	vstmia	sl!, {s17}
 8004cc0:	eea7 7aa9 	vfma.f32	s14, s15, s19
 8004cc4:	4bd1      	ldr	r3, [pc, #836]	; (800500c <make_sound.constprop.32+0x23c0>)
 8004cc6:	eca7 7a01 	vstmia	r7!, {s14}
 8004cca:	eef0 7a47 	vmov.f32	s15, s14
 8004cce:	ed94 7a11 	vldr	s14, [r4, #68]	; 0x44
 8004cd2:	ee77 7a87 	vadd.f32	s15, s15, s14
 8004cd6:	455f      	cmp	r7, fp
 8004cd8:	edc4 7a11 	vstr	s15, [r4, #68]	; 0x44
 8004cdc:	d1e4      	bne.n	8004ca8 <make_sound.constprop.32+0x205c>
 8004cde:	eeb7 7a00 	vmov.f32	s14, #112	; 0x70
 8004ce2:	eec7 7a27 	vdiv.f32	s15, s14, s15
 8004ce6:	edc3 7a11 	vstr	s15, [r3, #68]	; 0x44
 8004cea:	e49b      	b.n	8004624 <make_sound.constprop.32+0x19d8>
 8004cec:	ee67 7aa6 	vmul.f32	s15, s15, s13
 8004cf0:	eddf 5ad1 	vldr	s11, [pc, #836]	; 8005038 <make_sound.constprop.32+0x23ec>
 8004cf4:	ee67 5aa5 	vmul.f32	s11, s15, s11
 8004cf8:	eeb9 7a04 	vmov.f32	s14, #148	; 0x94
 8004cfc:	ee35 6aa5 	vadd.f32	s12, s11, s11
 8004d00:	ee65 6aa5 	vmul.f32	s13, s11, s11
 8004d04:	eea5 7a86 	vfma.f32	s14, s11, s12
 8004d08:	eeb0 6a47 	vmov.f32	s12, s14
 8004d0c:	ee25 7aa6 	vmul.f32	s14, s11, s13
 8004d10:	eefa 6a0e 	vmov.f32	s13, #174	; 0xae
 8004d14:	eea5 7aa6 	vfma.f32	s14, s11, s13
 8004d18:	eef0 6a47 	vmov.f32	s13, s14
 8004d1c:	eeb0 7a08 	vmov.f32	s14, #8
 8004d20:	ee26 7a07 	vmul.f32	s14, s12, s14
 8004d24:	ee86 7a87 	vdiv.f32	s14, s13, s14
 8004d28:	e6e2      	b.n	8004af0 <make_sound.constprop.32+0x1ea4>
 8004d2a:	f8d7 10a8 	ldr.w	r1, [r7, #168]	; 0xa8
 8004d2e:	f8c7 30b4 	str.w	r3, [r7, #180]	; 0xb4
 8004d32:	2200      	movs	r2, #0
 8004d34:	2303      	movs	r3, #3
 8004d36:	f8c7 10b8 	str.w	r1, [r7, #184]	; 0xb8
 8004d3a:	f8c7 20c0 	str.w	r2, [r7, #192]	; 0xc0
 8004d3e:	f8c7 30bc 	str.w	r3, [r7, #188]	; 0xbc
 8004d42:	e45c      	b.n	80045fe <make_sound.constprop.32+0x19b2>
 8004d44:	ee37 7a08 	vadd.f32	s14, s14, s16
 8004d48:	eeb5 7ac0 	vcmpe.f32	s14, #0.0
 8004d4c:	eef1 fa10 	vmrs	APSR_nzcv, fpscr
 8004d50:	d4f8      	bmi.n	8004d44 <make_sound.constprop.32+0x20f8>
 8004d52:	eeb4 7ac8 	vcmpe.f32	s14, s16
 8004d56:	eef1 fa10 	vmrs	APSR_nzcv, fpscr
 8004d5a:	eef0 7a47 	vmov.f32	s15, s14
 8004d5e:	db06      	blt.n	8004d6e <make_sound.constprop.32+0x2122>
 8004d60:	ee77 7ac8 	vsub.f32	s15, s15, s16
 8004d64:	eef4 7ac8 	vcmpe.f32	s15, s16
 8004d68:	eef1 fa10 	vmrs	APSR_nzcv, fpscr
 8004d6c:	daf8      	bge.n	8004d60 <make_sound.constprop.32+0x2114>
 8004d6e:	ed9f 7ab2 	vldr	s14, [pc, #712]	; 8005038 <make_sound.constprop.32+0x23ec>
 8004d72:	eef4 7ac7 	vcmpe.f32	s15, s14
 8004d76:	eef1 fa10 	vmrs	APSR_nzcv, fpscr
 8004d7a:	f100 87b4 	bmi.w	8005ce6 <make_sound.constprop.32+0x309a>
 8004d7e:	eddf 6aa6 	vldr	s13, [pc, #664]	; 8005018 <make_sound.constprop.32+0x23cc>
 8004d82:	edd4 8a45 	vldr	s17, [r4, #276]	; 0x114
 8004d86:	eeb8 7a08 	vmov.f32	s14, #136	; 0x88
 8004d8a:	eea7 7aa6 	vfma.f32	s14, s15, s13
 8004d8e:	ee27 9a28 	vmul.f32	s18, s14, s17
 8004d92:	f7fe be6e 	b.w	8003a72 <make_sound.constprop.32+0xe26>
 8004d96:	eec9 7aa7 	vdiv.f32	s15, s19, s15
 8004d9a:	ed9f 7aa0 	vldr	s14, [pc, #640]	; 800501c <make_sound.constprop.32+0x23d0>
 8004d9e:	eef4 7ac7 	vcmpe.f32	s15, s14
 8004da2:	eef1 fa10 	vmrs	APSR_nzcv, fpscr
 8004da6:	f140 869c 	bpl.w	8005ae2 <make_sound.constprop.32+0x2e96>
 8004daa:	2300      	movs	r3, #0
 8004dac:	f88a 3548 	strb.w	r3, [sl, #1352]	; 0x548
 8004db0:	eef6 ba00 	vmov.f32	s23, #96	; 0x60
 8004db4:	eddf 6a99 	vldr	s13, [pc, #612]	; 800501c <make_sound.constprop.32+0x23d0>
 8004db8:	eef4 7ae6 	vcmpe.f32	s15, s13
 8004dbc:	eef1 fa10 	vmrs	APSR_nzcv, fpscr
 8004dc0:	f57d afd8 	bpl.w	8002d74 <make_sound.constprop.32+0x128>
 8004dc4:	eef0 7a66 	vmov.f32	s15, s13
 8004dc8:	f7fd bfdd 	b.w	8002d86 <make_sound.constprop.32+0x13a>
 8004dcc:	ed9f 7a9a 	vldr	s14, [pc, #616]	; 8005038 <make_sound.constprop.32+0x23ec>
 8004dd0:	ed83 7a49 	vstr	s14, [r3, #292]	; 0x124
 8004dd4:	eef4 7ac7 	vcmpe.f32	s15, s14
 8004dd8:	eef1 fa10 	vmrs	APSR_nzcv, fpscr
 8004ddc:	f57e aa20 	bpl.w	8003220 <make_sound.constprop.32+0x5d4>
 8004de0:	eef8 6a00 	vmov.f32	s13, #128	; 0x80
 8004de4:	ee86 7a87 	vdiv.f32	s14, s13, s14
 8004de8:	eef7 6a00 	vmov.f32	s13, #112	; 0x70
 8004dec:	eee7 6a87 	vfma.f32	s13, s15, s14
 8004df0:	ed94 7a45 	vldr	s14, [r4, #276]	; 0x114
 8004df4:	ee66 6a87 	vmul.f32	s13, s13, s14
 8004df8:	f7fe ba22 	b.w	8003240 <make_sound.constprop.32+0x5f4>
 8004dfc:	ed9f 7a8b 	vldr	s14, [pc, #556]	; 800502c <make_sound.constprop.32+0x23e0>
 8004e00:	eddf 6a8b 	vldr	s13, [pc, #556]	; 8005030 <make_sound.constprop.32+0x23e4>
 8004e04:	ee25 7a07 	vmul.f32	s14, s10, s14
 8004e08:	eeb4 7ae6 	vcmpe.f32	s14, s13
 8004e0c:	eef1 fa10 	vmrs	APSR_nzcv, fpscr
 8004e10:	f63e ab59 	bhi.w	80034c6 <make_sound.constprop.32+0x87a>
 8004e14:	eeb0 7a66 	vmov.f32	s14, s13
 8004e18:	eef4 7ac7 	vcmpe.f32	s15, s14
 8004e1c:	eef1 fa10 	vmrs	APSR_nzcv, fpscr
 8004e20:	edc3 6a49 	vstr	s13, [r3, #292]	; 0x124
 8004e24:	f57e ab57 	bpl.w	80034d6 <make_sound.constprop.32+0x88a>
 8004e28:	eef8 6a00 	vmov.f32	s13, #128	; 0x80
 8004e2c:	ee86 7a87 	vdiv.f32	s14, s13, s14
 8004e30:	eef7 6a00 	vmov.f32	s13, #112	; 0x70
 8004e34:	eee7 6a87 	vfma.f32	s13, s15, s14
 8004e38:	ed94 7a45 	vldr	s14, [r4, #276]	; 0x114
 8004e3c:	ee66 6a87 	vmul.f32	s13, s13, s14
 8004e40:	f7fe bb59 	b.w	80034f6 <make_sound.constprop.32+0x8aa>
 8004e44:	ed9f 7a79 	vldr	s14, [pc, #484]	; 800502c <make_sound.constprop.32+0x23e0>
 8004e48:	eddf 6a79 	vldr	s13, [pc, #484]	; 8005030 <make_sound.constprop.32+0x23e4>
 8004e4c:	ee29 7a87 	vmul.f32	s14, s19, s14
 8004e50:	eeb4 7ae6 	vcmpe.f32	s14, s13
 8004e54:	eef1 fa10 	vmrs	APSR_nzcv, fpscr
 8004e58:	f63e afb1 	bhi.w	8003dbe <make_sound.constprop.32+0x1172>
 8004e5c:	eeb0 7a66 	vmov.f32	s14, s13
 8004e60:	eef4 7ac7 	vcmpe.f32	s15, s14
 8004e64:	eef1 fa10 	vmrs	APSR_nzcv, fpscr
 8004e68:	edc4 6a49 	vstr	s13, [r4, #292]	; 0x124
 8004e6c:	f57e afaf 	bpl.w	8003dce <make_sound.constprop.32+0x1182>
 8004e70:	eef8 6a00 	vmov.f32	s13, #128	; 0x80
 8004e74:	ee86 7a87 	vdiv.f32	s14, s13, s14
 8004e78:	eef7 6a00 	vmov.f32	s13, #112	; 0x70
 8004e7c:	eee7 6a27 	vfma.f32	s13, s14, s15
 8004e80:	ed94 7a45 	vldr	s14, [r4, #276]	; 0x114
 8004e84:	ee66 6a87 	vmul.f32	s13, s13, s14
 8004e88:	f7fe bfb1 	b.w	8003dee <make_sound.constprop.32+0x11a2>
 8004e8c:	eddf 7a67 	vldr	s15, [pc, #412]	; 800502c <make_sound.constprop.32+0x23e0>
 8004e90:	eddf 6a67 	vldr	s13, [pc, #412]	; 8005030 <make_sound.constprop.32+0x23e4>
 8004e94:	ee69 7aa7 	vmul.f32	s15, s19, s15
 8004e98:	eef4 7ae6 	vcmpe.f32	s15, s13
 8004e9c:	eef1 fa10 	vmrs	APSR_nzcv, fpscr
 8004ea0:	f63e ac46 	bhi.w	8003730 <make_sound.constprop.32+0xae4>
 8004ea4:	eef0 7a66 	vmov.f32	s15, s13
 8004ea8:	eeb4 7ae7 	vcmpe.f32	s14, s15
 8004eac:	eef1 fa10 	vmrs	APSR_nzcv, fpscr
 8004eb0:	edc4 6a49 	vstr	s13, [r4, #292]	; 0x124
 8004eb4:	f57e ac44 	bpl.w	8003740 <make_sound.constprop.32+0xaf4>
 8004eb8:	eef8 6a00 	vmov.f32	s13, #128	; 0x80
 8004ebc:	eec6 7aa7 	vdiv.f32	s15, s13, s15
 8004ec0:	eef7 6a00 	vmov.f32	s13, #112	; 0x70
 8004ec4:	eee7 6a27 	vfma.f32	s13, s14, s15
 8004ec8:	edd4 7a45 	vldr	s15, [r4, #276]	; 0x114
 8004ecc:	ee66 6aa7 	vmul.f32	s13, s13, s15
 8004ed0:	f7fe bc46 	b.w	8003760 <make_sound.constprop.32+0xb14>
 8004ed4:	eddf 7a52 	vldr	s15, [pc, #328]	; 8005020 <make_sound.constprop.32+0x23d4>
 8004ed8:	eddf 5a50 	vldr	s11, [pc, #320]	; 800501c <make_sound.constprop.32+0x23d0>
 8004edc:	eec9 9aa7 	vdiv.f32	s19, s19, s15
 8004ee0:	eef4 9ae5 	vcmpe.f32	s19, s11
 8004ee4:	eef1 fa10 	vmrs	APSR_nzcv, fpscr
 8004ee8:	f140 84ac 	bpl.w	8005844 <make_sound.constprop.32+0x2bf8>
 8004eec:	ed93 ba51 	vldr	s22, [r3, #324]	; 0x144
 8004ef0:	eef7 7a00 	vmov.f32	s15, #112	; 0x70
 8004ef4:	ee3b ba27 	vadd.f32	s22, s22, s15
 8004ef8:	eef6 7a00 	vmov.f32	s15, #96	; 0x60
 8004efc:	ee2b ba27 	vmul.f32	s22, s22, s15
 8004f00:	eeb4 bae5 	vcmpe.f32	s22, s11
 8004f04:	eef1 fa10 	vmrs	APSR_nzcv, fpscr
 8004f08:	eeb0 7a4b 	vmov.f32	s14, s22
 8004f0c:	f100 86f7 	bmi.w	8005cfe <make_sound.constprop.32+0x30b2>
 8004f10:	eddf 7a44 	vldr	s15, [pc, #272]	; 8005024 <make_sound.constprop.32+0x23d8>
 8004f14:	eeb4 bae7 	vcmpe.f32	s22, s15
 8004f18:	eef1 fa10 	vmrs	APSR_nzcv, fpscr
 8004f1c:	f340 86f3 	ble.w	8005d06 <make_sound.constprop.32+0x30ba>
 8004f20:	eef6 ca00 	vmov.f32	s25, #96	; 0x60
 8004f24:	eeb0 ba67 	vmov.f32	s22, s15
 8004f28:	ee67 caac 	vmul.f32	s25, s15, s25
 8004f2c:	f000 bcaa 	b.w	8005884 <make_sound.constprop.32+0x2c38>
 8004f30:	eddf 7a3b 	vldr	s15, [pc, #236]	; 8005020 <make_sound.constprop.32+0x23d4>
 8004f34:	ed9f 5a39 	vldr	s10, [pc, #228]	; 800501c <make_sound.constprop.32+0x23d0>
 8004f38:	eec9 9aa7 	vdiv.f32	s19, s19, s15
 8004f3c:	eef4 9ac5 	vcmpe.f32	s19, s10
 8004f40:	eef1 fa10 	vmrs	APSR_nzcv, fpscr
 8004f44:	f100 8415 	bmi.w	8005772 <make_sound.constprop.32+0x2b26>
 8004f48:	eef6 7a00 	vmov.f32	s15, #96	; 0x60
 8004f4c:	eef4 9ae7 	vcmpe.f32	s19, s15
 8004f50:	eef1 fa10 	vmrs	APSR_nzcv, fpscr
 8004f54:	f341 827f 	ble.w	8006456 <make_sound.constprop.32+0x380a>
 8004f58:	ed9a 6a04 	vldr	s12, [sl, #16]
 8004f5c:	eeb7 7a00 	vmov.f32	s14, #112	; 0x70
 8004f60:	ee36 6a07 	vadd.f32	s12, s12, s14
 8004f64:	ee26 6a27 	vmul.f32	s12, s12, s15
 8004f68:	eeb4 6ae7 	vcmpe.f32	s12, s15
 8004f6c:	eef1 fa10 	vmrs	APSR_nzcv, fpscr
 8004f70:	f101 809d 	bmi.w	80060ae <make_sound.constprop.32+0x3462>
 8004f74:	eef0 6a67 	vmov.f32	s13, s15
 8004f78:	eeb0 7a46 	vmov.f32	s14, s12
 8004f7c:	eeb0 5a67 	vmov.f32	s10, s15
 8004f80:	eeb4 6ae6 	vcmpe.f32	s12, s13
 8004f84:	eef1 fa10 	vmrs	APSR_nzcv, fpscr
 8004f88:	eef0 7a66 	vmov.f32	s15, s13
 8004f8c:	dc01      	bgt.n	8004f92 <make_sound.constprop.32+0x2346>
 8004f8e:	eef0 6a46 	vmov.f32	s13, s12
 8004f92:	eeb0 6a67 	vmov.f32	s12, s15
 8004f96:	eddf 7a21 	vldr	s15, [pc, #132]	; 800501c <make_sound.constprop.32+0x23d0>
 8004f9a:	ed9f ca23 	vldr	s24, [pc, #140]	; 8005028 <make_sound.constprop.32+0x23dc>
 8004f9e:	eef4 9ae7 	vcmpe.f32	s19, s15
 8004fa2:	f04f 0b00 	mov.w	fp, #0
 8004fa6:	eef1 fa10 	vmrs	APSR_nzcv, fpscr
 8004faa:	f884 bbe4 	strb.w	fp, [r4, #3044]	; 0xbe4
 8004fae:	eef6 ba00 	vmov.f32	s23, #96	; 0x60
 8004fb2:	f57f a852 	bpl.w	800405a <make_sound.constprop.32+0x140e>
 8004fb6:	eef0 9a67 	vmov.f32	s19, s15
 8004fba:	f7ff b857 	b.w	800406c <make_sound.constprop.32+0x1420>
 8004fbe:	ed9f 7a1b 	vldr	s14, [pc, #108]	; 800502c <make_sound.constprop.32+0x23e0>
 8004fc2:	eddf 6a1b 	vldr	s13, [pc, #108]	; 8005030 <make_sound.constprop.32+0x23e4>
 8004fc6:	ee29 7a87 	vmul.f32	s14, s19, s14
 8004fca:	eeb4 7ae6 	vcmpe.f32	s14, s13
 8004fce:	eef1 fa10 	vmrs	APSR_nzcv, fpscr
 8004fd2:	f63e ad7d 	bhi.w	8003ad0 <make_sound.constprop.32+0xe84>
 8004fd6:	eeb0 7a66 	vmov.f32	s14, s13
 8004fda:	eef4 7ac7 	vcmpe.f32	s15, s14
 8004fde:	eef1 fa10 	vmrs	APSR_nzcv, fpscr
 8004fe2:	edc4 6a49 	vstr	s13, [r4, #292]	; 0x124
 8004fe6:	f57e ad7b 	bpl.w	8003ae0 <make_sound.constprop.32+0xe94>
 8004fea:	eef8 6a00 	vmov.f32	s13, #128	; 0x80
 8004fee:	ee86 7a87 	vdiv.f32	s14, s13, s14
 8004ff2:	eeb7 9a00 	vmov.f32	s18, #112	; 0x70
 8004ff6:	eea7 9a87 	vfma.f32	s18, s15, s14
 8004ffa:	ed94 7a45 	vldr	s14, [r4, #276]	; 0x114
 8004ffe:	ee29 7a07 	vmul.f32	s14, s18, s14
 8005002:	f7fe bd7d 	b.w	8003b00 <make_sound.constprop.32+0xeb4>
 8005006:	bf00      	nop
 8005008:	8000000f 	.word	0x8000000f
 800500c:	10000000 	.word	0x10000000
 8005010:	3f7a9fbf 	.word	0x3f7a9fbf
 8005014:	3a83126f 	.word	0x3a83126f
 8005018:	3f22f983 	.word	0x3f22f983
 800501c:	3727c5ac 	.word	0x3727c5ac
 8005020:	472c4400 	.word	0x472c4400
 8005024:	3f7fff58 	.word	0x3f7fff58
 8005028:	00000000 	.word	0x00000000
 800502c:	39cde32e 	.word	0x39cde32e
 8005030:	38d1b717 	.word	0x38d1b717
 8005034:	46ac4400 	.word	0x46ac4400
 8005038:	40490fdb 	.word	0x40490fdb
 800503c:	ed1f 7a05 	vldr	s14, [pc, #-20]	; 800502c <make_sound.constprop.32+0x23e0>
 8005040:	ed5f 6a05 	vldr	s13, [pc, #-20]	; 8005030 <make_sound.constprop.32+0x23e4>
 8005044:	ee29 7a87 	vmul.f32	s14, s19, s14
 8005048:	eeb4 7ae6 	vcmpe.f32	s14, s13
 800504c:	eef1 fa10 	vmrs	APSR_nzcv, fpscr
 8005050:	f63e aded 	bhi.w	8003c2e <make_sound.constprop.32+0xfe2>
 8005054:	eeb0 7a66 	vmov.f32	s14, s13
 8005058:	eef4 7ac7 	vcmpe.f32	s15, s14
 800505c:	eef1 fa10 	vmrs	APSR_nzcv, fpscr
 8005060:	edc4 6a49 	vstr	s13, [r4, #292]	; 0x124
 8005064:	f57e adeb 	bpl.w	8003c3e <make_sound.constprop.32+0xff2>
 8005068:	eef8 6a00 	vmov.f32	s13, #128	; 0x80
 800506c:	ee86 7a87 	vdiv.f32	s14, s13, s14
 8005070:	eef7 6a00 	vmov.f32	s13, #112	; 0x70
 8005074:	eee7 6a87 	vfma.f32	s13, s15, s14
 8005078:	ed94 7a45 	vldr	s14, [r4, #276]	; 0x114
 800507c:	ee66 6a87 	vmul.f32	s13, s13, s14
 8005080:	f7fe bded 	b.w	8003c5e <make_sound.constprop.32+0x1012>
 8005084:	ed5f 7a15 	vldr	s15, [pc, #-84]	; 8005034 <make_sound.constprop.32+0x23e8>
 8005088:	edd7 8a00 	vldr	s17, [r7]
 800508c:	ed97 9a01 	vldr	s18, [r7, #4]
 8005090:	6a3b      	ldr	r3, [r7, #32]
 8005092:	61fb      	str	r3, [r7, #28]
 8005094:	eec7 8aa8 	vdiv.f32	s17, s15, s17
 8005098:	2200      	movs	r2, #0
 800509a:	f8ca 2c6c 	str.w	r2, [sl, #3180]	; 0xc6c
 800509e:	ee87 9a89 	vdiv.f32	s18, s15, s18
 80050a2:	edc7 8a03 	vstr	s17, [r7, #12]
 80050a6:	ed87 9a04 	vstr	s18, [r7, #16]
 80050aa:	f00b f833 	bl	8010114 <rand>
 80050ae:	ee07 0a90 	vmov	s15, r0
 80050b2:	eef8 7ae7 	vcvt.f32.s32	s15, s15
 80050b6:	ee39 9a68 	vsub.f32	s18, s18, s17
 80050ba:	ee67 7a8a 	vmul.f32	s15, s15, s20
 80050be:	eee7 8a89 	vfma.f32	s17, s15, s18
 80050c2:	eefc 8ae8 	vcvt.u32.f32	s17, s17
 80050c6:	ee18 3a90 	vmov	r3, s17
 80050ca:	f8ca 3c68 	str.w	r3, [sl, #3176]	; 0xc68
 80050ce:	f00b f821 	bl	8010114 <rand>
 80050d2:	ee07 0a90 	vmov	s15, r0
 80050d6:	eeb8 7ae7 	vcvt.f32.s32	s14, s15
 80050da:	eef0 6a00 	vmov.f32	s13, #0
 80050de:	ee27 7a0a 	vmul.f32	s14, s14, s20
 80050e2:	eeff 7a00 	vmov.f32	s15, #240	; 0xf0
 80050e6:	eee7 7a26 	vfma.f32	s15, s14, s13
 80050ea:	f8da 3c68 	ldr.w	r3, [sl, #3176]	; 0xc68
 80050ee:	ed97 6a07 	vldr	s12, [r7, #28]
 80050f2:	edc7 7a08 	vstr	s15, [r7, #32]
 80050f6:	ee07 3a10 	vmov	s14, r3
 80050fa:	ee37 6ac6 	vsub.f32	s12, s15, s12
 80050fe:	eeb8 7a47 	vcvt.f32.u32	s14, s14
 8005102:	eddb 5a00 	vldr	s11, [fp]
 8005106:	edd7 6a0a 	vldr	s13, [r7, #40]	; 0x28
 800510a:	eec6 7a07 	vdiv.f32	s15, s12, s14
 800510e:	edc7 7a09 	vstr	s15, [r7, #36]	; 0x24
 8005112:	f7fe b815 	b.w	8003140 <make_sound.constprop.32+0x4f4>
 8005116:	ed5f 7a39 	vldr	s15, [pc, #-228]	; 8005034 <make_sound.constprop.32+0x23e8>
 800511a:	edd7 8a00 	vldr	s17, [r7]
 800511e:	ed97 9a01 	vldr	s18, [r7, #4]
 8005122:	6a3b      	ldr	r3, [r7, #32]
 8005124:	61fb      	str	r3, [r7, #28]
 8005126:	eec7 8aa8 	vdiv.f32	s17, s15, s17
 800512a:	2200      	movs	r2, #0
 800512c:	f8ca 2c40 	str.w	r2, [sl, #3136]	; 0xc40
 8005130:	ee87 9a89 	vdiv.f32	s18, s15, s18
 8005134:	edc7 8a03 	vstr	s17, [r7, #12]
 8005138:	ed87 9a04 	vstr	s18, [r7, #16]
 800513c:	f00a ffea 	bl	8010114 <rand>
 8005140:	ee07 0a90 	vmov	s15, r0
 8005144:	eef8 7ae7 	vcvt.f32.s32	s15, s15
 8005148:	ee39 9a68 	vsub.f32	s18, s18, s17
 800514c:	ee67 7a8a 	vmul.f32	s15, s15, s20
 8005150:	eee7 8a89 	vfma.f32	s17, s15, s18
 8005154:	eefc 8ae8 	vcvt.u32.f32	s17, s17
 8005158:	ee18 3a90 	vmov	r3, s17
 800515c:	f8ca 3c3c 	str.w	r3, [sl, #3132]	; 0xc3c
 8005160:	f00a ffd8 	bl	8010114 <rand>
 8005164:	ee07 0a90 	vmov	s15, r0
 8005168:	eeb8 7ae7 	vcvt.f32.s32	s14, s15
 800516c:	eef0 6a00 	vmov.f32	s13, #0
 8005170:	ee27 7a0a 	vmul.f32	s14, s14, s20
 8005174:	eeff 7a00 	vmov.f32	s15, #240	; 0xf0
 8005178:	eee7 7a26 	vfma.f32	s15, s14, s13
 800517c:	f8da 3c3c 	ldr.w	r3, [sl, #3132]	; 0xc3c
 8005180:	ed97 6a07 	vldr	s12, [r7, #28]
 8005184:	edc7 7a08 	vstr	s15, [r7, #32]
 8005188:	ee07 3a10 	vmov	s14, r3
 800518c:	ee37 6ac6 	vsub.f32	s12, s15, s12
 8005190:	eeb8 7a47 	vcvt.f32.u32	s14, s14
 8005194:	edd7 6a0a 	vldr	s13, [r7, #40]	; 0x28
 8005198:	eec6 7a07 	vdiv.f32	s15, s12, s14
 800519c:	edc7 7a09 	vstr	s15, [r7, #36]	; 0x24
 80051a0:	f7fe b938 	b.w	8003414 <make_sound.constprop.32+0x7c8>
 80051a4:	ed5f 7a5d 	vldr	s15, [pc, #-372]	; 8005034 <make_sound.constprop.32+0x23e8>
 80051a8:	edd7 8a00 	vldr	s17, [r7]
 80051ac:	ed97 9a01 	vldr	s18, [r7, #4]
 80051b0:	6a3b      	ldr	r3, [r7, #32]
 80051b2:	61fb      	str	r3, [r7, #28]
 80051b4:	eec7 8aa8 	vdiv.f32	s17, s15, s17
 80051b8:	2200      	movs	r2, #0
 80051ba:	f8ca 2c40 	str.w	r2, [sl, #3136]	; 0xc40
 80051be:	ee87 9a89 	vdiv.f32	s18, s15, s18
 80051c2:	edc7 8a03 	vstr	s17, [r7, #12]
 80051c6:	ed87 9a04 	vstr	s18, [r7, #16]
 80051ca:	f00a ffa3 	bl	8010114 <rand>
 80051ce:	ee07 0a90 	vmov	s15, r0
 80051d2:	eef8 7ae7 	vcvt.f32.s32	s15, s15
 80051d6:	ee39 9a68 	vsub.f32	s18, s18, s17
 80051da:	ee67 7a8a 	vmul.f32	s15, s15, s20
 80051de:	eee7 8a89 	vfma.f32	s17, s15, s18
 80051e2:	eefc 8ae8 	vcvt.u32.f32	s17, s17
 80051e6:	ee18 3a90 	vmov	r3, s17
 80051ea:	f8ca 3c3c 	str.w	r3, [sl, #3132]	; 0xc3c
 80051ee:	f00a ff91 	bl	8010114 <rand>
 80051f2:	ee07 0a90 	vmov	s15, r0
 80051f6:	eeb8 7ae7 	vcvt.f32.s32	s14, s15
 80051fa:	eef0 6a00 	vmov.f32	s13, #0
 80051fe:	ee27 7a0a 	vmul.f32	s14, s14, s20
 8005202:	eeff 7a00 	vmov.f32	s15, #240	; 0xf0
 8005206:	eee7 7a26 	vfma.f32	s15, s14, s13
 800520a:	f8da 3c3c 	ldr.w	r3, [sl, #3132]	; 0xc3c
 800520e:	ed97 6a07 	vldr	s12, [r7, #28]
 8005212:	edc7 7a08 	vstr	s15, [r7, #32]
 8005216:	ee06 3a90 	vmov	s13, r3
 800521a:	ee37 6ac6 	vsub.f32	s12, s15, s12
 800521e:	eef8 6a66 	vcvt.f32.u32	s13, s13
 8005222:	ed97 7a0a 	vldr	s14, [r7, #40]	; 0x28
 8005226:	eec6 7a26 	vdiv.f32	s15, s12, s13
 800522a:	edc7 7a09 	vstr	s15, [r7, #36]	; 0x24
 800522e:	f7fd bf5b 	b.w	80030e8 <make_sound.constprop.32+0x49c>
 8005232:	ed5f 7a80 	vldr	s15, [pc, #-512]	; 8005034 <make_sound.constprop.32+0x23e8>
 8005236:	edda 8a00 	vldr	s17, [sl]
 800523a:	ed9a 9a01 	vldr	s18, [sl, #4]
 800523e:	f8da 3020 	ldr.w	r3, [sl, #32]
 8005242:	f8ca 301c 	str.w	r3, [sl, #28]
 8005246:	eec7 8aa8 	vdiv.f32	s17, s15, s17
 800524a:	2200      	movs	r2, #0
 800524c:	f8cb 2c6c 	str.w	r2, [fp, #3180]	; 0xc6c
 8005250:	ee87 9a89 	vdiv.f32	s18, s15, s18
 8005254:	edca 8a03 	vstr	s17, [sl, #12]
 8005258:	ed8a 9a04 	vstr	s18, [sl, #16]
 800525c:	f00a ff5a 	bl	8010114 <rand>
 8005260:	ee07 0a90 	vmov	s15, r0
 8005264:	eef8 7ae7 	vcvt.f32.s32	s15, s15
 8005268:	ee39 9a68 	vsub.f32	s18, s18, s17
 800526c:	ee67 7a8a 	vmul.f32	s15, s15, s20
 8005270:	eee7 8a89 	vfma.f32	s17, s15, s18
 8005274:	eefc 8ae8 	vcvt.u32.f32	s17, s17
 8005278:	ee18 3a90 	vmov	r3, s17
 800527c:	f8cb 3c68 	str.w	r3, [fp, #3176]	; 0xc68
 8005280:	f00a ff48 	bl	8010114 <rand>
 8005284:	ee07 0a90 	vmov	s15, r0
 8005288:	eef8 7ae7 	vcvt.f32.s32	s15, s15
 800528c:	eef0 6a00 	vmov.f32	s13, #0
 8005290:	ee67 7a8a 	vmul.f32	s15, s15, s20
 8005294:	eebf 7a00 	vmov.f32	s14, #240	; 0xf0
 8005298:	eea7 7aa6 	vfma.f32	s14, s15, s13
 800529c:	f8db 3c68 	ldr.w	r3, [fp, #3176]	; 0xc68
 80052a0:	ed9a 6a07 	vldr	s12, [sl, #28]
 80052a4:	ed8a 7a08 	vstr	s14, [sl, #32]
 80052a8:	ee06 3a90 	vmov	s13, r3
 80052ac:	ee37 6a46 	vsub.f32	s12, s14, s12
 80052b0:	eef8 6a66 	vcvt.f32.u32	s13, s13
 80052b4:	edda 7a0a 	vldr	s15, [sl, #40]	; 0x28
 80052b8:	edd7 4a02 	vldr	s9, [r7, #8]
 80052bc:	ee86 7a26 	vdiv.f32	s14, s12, s13
 80052c0:	ed8a 7a09 	vstr	s14, [sl, #36]	; 0x24
 80052c4:	f7fe b8ce 	b.w	8003464 <make_sound.constprop.32+0x818>
 80052c8:	ed5f 7aa6 	vldr	s15, [pc, #-664]	; 8005034 <make_sound.constprop.32+0x23e8>
 80052cc:	edda 8a00 	vldr	s17, [sl]
 80052d0:	ed9a 9a01 	vldr	s18, [sl, #4]
 80052d4:	f8da 3020 	ldr.w	r3, [sl, #32]
 80052d8:	9101      	str	r1, [sp, #4]
 80052da:	eec7 8aa8 	vdiv.f32	s17, s15, s17
 80052de:	2200      	movs	r2, #0
 80052e0:	f8c1 2c98 	str.w	r2, [r1, #3224]	; 0xc98
 80052e4:	f8ca 301c 	str.w	r3, [sl, #28]
 80052e8:	ee87 9a89 	vdiv.f32	s18, s15, s18
 80052ec:	edca 8a03 	vstr	s17, [sl, #12]
 80052f0:	ed8a 9a04 	vstr	s18, [sl, #16]
 80052f4:	f00a ff0e 	bl	8010114 <rand>
 80052f8:	ee07 0a90 	vmov	s15, r0
 80052fc:	eef8 7ae7 	vcvt.f32.s32	s15, s15
 8005300:	ee39 9a68 	vsub.f32	s18, s18, s17
 8005304:	ee67 7a8a 	vmul.f32	s15, s15, s20
 8005308:	9901      	ldr	r1, [sp, #4]
 800530a:	eee7 8a89 	vfma.f32	s17, s15, s18
 800530e:	eefc 8ae8 	vcvt.u32.f32	s17, s17
 8005312:	ee18 3a90 	vmov	r3, s17
 8005316:	f8c1 3c94 	str.w	r3, [r1, #3220]	; 0xc94
 800531a:	f00a fefb 	bl	8010114 <rand>
 800531e:	ee07 0a90 	vmov	s15, r0
 8005322:	eef8 7ae7 	vcvt.f32.s32	s15, s15
 8005326:	9901      	ldr	r1, [sp, #4]
 8005328:	ed9a 6a07 	vldr	s12, [sl, #28]
 800532c:	f8d1 3c94 	ldr.w	r3, [r1, #3220]	; 0xc94
 8005330:	eddb 5a00 	vldr	s11, [fp]
 8005334:	ed97 4a02 	vldr	s8, [r7, #8]
 8005338:	ee67 7a8a 	vmul.f32	s15, s15, s20
 800533c:	eef0 6a00 	vmov.f32	s13, #0
 8005340:	eebf 7a00 	vmov.f32	s14, #240	; 0xf0
 8005344:	eea7 7aa6 	vfma.f32	s14, s15, s13
 8005348:	ee06 3a90 	vmov	s13, r3
 800534c:	ee37 6a46 	vsub.f32	s12, s14, s12
 8005350:	eef8 6a66 	vcvt.f32.u32	s13, s13
 8005354:	ed8a 7a08 	vstr	s14, [sl, #32]
 8005358:	ee86 7a26 	vdiv.f32	s14, s12, s13
 800535c:	edda 7a0a 	vldr	s15, [sl, #40]	; 0x28
 8005360:	ed8a 7a09 	vstr	s14, [sl, #36]	; 0x24
 8005364:	f7fd bf15 	b.w	8003192 <make_sound.constprop.32+0x546>
 8005368:	ed1f 7acd 	vldr	s14, [pc, #-820]	; 8005038 <make_sound.constprop.32+0x23ec>
 800536c:	ed8a 7a04 	vstr	s14, [sl, #16]
 8005370:	eef4 7ac7 	vcmpe.f32	s15, s14
 8005374:	eef1 fa10 	vmrs	APSR_nzcv, fpscr
 8005378:	f57d affc 	bpl.w	8003374 <make_sound.constprop.32+0x728>
 800537c:	eeb8 6a00 	vmov.f32	s12, #128	; 0x80
 8005380:	ee86 7a07 	vdiv.f32	s14, s12, s14
 8005384:	eeb7 6a00 	vmov.f32	s12, #112	; 0x70
 8005388:	eea7 6a87 	vfma.f32	s12, s15, s14
 800538c:	ed9a 7a00 	vldr	s14, [sl]
 8005390:	ee26 7a07 	vmul.f32	s14, s12, s14
 8005394:	f7fd bffe 	b.w	8003394 <make_sound.constprop.32+0x748>
 8005398:	eeb6 6a00 	vmov.f32	s12, #96	; 0x60
 800539c:	ee20 6a06 	vmul.f32	s12, s0, s12
 80053a0:	ed5f 5adb 	vldr	s11, [pc, #-876]	; 8005038 <make_sound.constprop.32+0x23ec>
 80053a4:	ee66 5a25 	vmul.f32	s11, s12, s11
 80053a8:	eef9 7a04 	vmov.f32	s15, #148	; 0x94
 80053ac:	ee75 6aa5 	vadd.f32	s13, s11, s11
 80053b0:	ee25 7aa5 	vmul.f32	s14, s11, s11
 80053b4:	eee5 7aa6 	vfma.f32	s15, s11, s13
 80053b8:	eef0 6a67 	vmov.f32	s13, s15
 80053bc:	ee65 7a87 	vmul.f32	s15, s11, s14
 80053c0:	eeba 7a0e 	vmov.f32	s14, #174	; 0xae
 80053c4:	eee5 7a87 	vfma.f32	s15, s11, s14
 80053c8:	eeb0 7a67 	vmov.f32	s14, s15
 80053cc:	eef0 7a08 	vmov.f32	s15, #8
 80053d0:	ee66 7aa7 	vmul.f32	s15, s13, s15
 80053d4:	eec7 7a27 	vdiv.f32	s15, s14, s15
 80053d8:	e407      	b.n	8004bea <make_sound.constprop.32+0x1f9e>
 80053da:	ed1f 7ae9 	vldr	s14, [pc, #-932]	; 8005038 <make_sound.constprop.32+0x23ec>
 80053de:	ed8a 7a04 	vstr	s14, [sl, #16]
 80053e2:	eef4 7ac7 	vcmpe.f32	s15, s14
 80053e6:	eef1 fa10 	vmrs	APSR_nzcv, fpscr
 80053ea:	f57e a91e 	bpl.w	800362a <make_sound.constprop.32+0x9de>
 80053ee:	eeb8 6a00 	vmov.f32	s12, #128	; 0x80
 80053f2:	ee86 7a07 	vdiv.f32	s14, s12, s14
 80053f6:	eeb7 6a00 	vmov.f32	s12, #112	; 0x70
 80053fa:	eea7 6a87 	vfma.f32	s12, s15, s14
 80053fe:	ed9a 7a00 	vldr	s14, [sl]
 8005402:	ee26 7a07 	vmul.f32	s14, s12, s14
 8005406:	f7fe b920 	b.w	800364a <make_sound.constprop.32+0x9fe>
 800540a:	ed1f 7af5 	vldr	s14, [pc, #-980]	; 8005038 <make_sound.constprop.32+0x23ec>
 800540e:	ed87 7a04 	vstr	s14, [r7, #16]
 8005412:	eef4 7ac7 	vcmpe.f32	s15, s14
 8005416:	eef1 fa10 	vmrs	APSR_nzcv, fpscr
 800541a:	f57e a9e5 	bpl.w	80037e8 <make_sound.constprop.32+0xb9c>
 800541e:	eeb8 6a00 	vmov.f32	s12, #128	; 0x80
 8005422:	ee86 7a07 	vdiv.f32	s14, s12, s14
 8005426:	eeb7 6a00 	vmov.f32	s12, #112	; 0x70
 800542a:	eea7 6a87 	vfma.f32	s12, s15, s14
 800542e:	ed97 7a00 	vldr	s14, [r7]
 8005432:	ee26 7a07 	vmul.f32	s14, s12, s14
 8005436:	f7fe b9e7 	b.w	8003808 <make_sound.constprop.32+0xbbc>
 800543a:	eddf 7ad9 	vldr	s15, [pc, #868]	; 80057a0 <make_sound.constprop.32+0x2b54>
 800543e:	edc7 7a04 	vstr	s15, [r7, #16]
 8005442:	eeb4 7ae7 	vcmpe.f32	s14, s15
 8005446:	eef1 fa10 	vmrs	APSR_nzcv, fpscr
 800544a:	f57e ac4c 	bpl.w	8003ce6 <make_sound.constprop.32+0x109a>
 800544e:	eeb8 6a00 	vmov.f32	s12, #128	; 0x80
 8005452:	eec6 7a27 	vdiv.f32	s15, s12, s15
 8005456:	eeb7 6a00 	vmov.f32	s12, #112	; 0x70
 800545a:	eea7 6a87 	vfma.f32	s12, s15, s14
 800545e:	edd7 7a00 	vldr	s15, [r7]
 8005462:	ee26 6a27 	vmul.f32	s12, s12, s15
 8005466:	f7fe bc4e 	b.w	8003d06 <make_sound.constprop.32+0x10ba>
 800546a:	f1bb 0f00 	cmp.w	fp, #0
 800546e:	f040 8357 	bne.w	8005b20 <make_sound.constprop.32+0x2ed4>
 8005472:	eeb4 bacc 	vcmpe.f32	s22, s24
 8005476:	eef1 fa10 	vmrs	APSR_nzcv, fpscr
 800547a:	f240 871f 	bls.w	80062bc <make_sound.constprop.32+0x3670>
 800547e:	465b      	mov	r3, fp
 8005480:	eef7 ca00 	vmov.f32	s25, #112	; 0x70
 8005484:	eeb4 caec 	vcmpe.f32	s24, s25
 8005488:	eef1 fa10 	vmrs	APSR_nzcv, fpscr
 800548c:	f2c0 8600 	blt.w	8006090 <make_sound.constprop.32+0x3444>
 8005490:	ee7c ca6c 	vsub.f32	s25, s24, s25
 8005494:	eddf 6ac3 	vldr	s13, [pc, #780]	; 80057a4 <make_sound.constprop.32+0x2b58>
 8005498:	eddf 7ac3 	vldr	s15, [pc, #780]	; 80057a8 <make_sound.constprop.32+0x2b5c>
 800549c:	4bc3      	ldr	r3, [pc, #780]	; (80057ac <make_sound.constprop.32+0x2b60>)
 800549e:	9202      	str	r2, [sp, #8]
 80054a0:	ee6c 6aa6 	vmul.f32	s13, s25, s13
 80054a4:	ee8c 7aa9 	vdiv.f32	s14, s25, s19
 80054a8:	9301      	str	r3, [sp, #4]
 80054aa:	4fc1      	ldr	r7, [pc, #772]	; (80057b0 <make_sound.constprop.32+0x2b64>)
 80054ac:	ee86 9aa9 	vdiv.f32	s18, s13, s19
 80054b0:	ee77 7a27 	vadd.f32	s15, s14, s15
 80054b4:	eeb6 0a00 	vmov.f32	s0, #96	; 0x60
 80054b8:	ee39 0a40 	vsub.f32	s0, s18, s0
 80054bc:	edca 7a06 	vstr	s15, [sl, #24]
 80054c0:	f008 fef6 	bl	800e2b0 <lrintf>
 80054c4:	ee07 0a90 	vmov	s15, r0
 80054c8:	eef8 6ae7 	vcvt.f32.s32	s13, s15
 80054cc:	9a02      	ldr	r2, [sp, #8]
 80054ce:	9b01      	ldr	r3, [sp, #4]
 80054d0:	f000 003f 	and.w	r0, r0, #63	; 0x3f
 80054d4:	ee79 6a66 	vsub.f32	s13, s18, s13
 80054d8:	eb07 07c0 	add.w	r7, r7, r0, lsl #3
 80054dc:	0091      	lsls	r1, r2, #2
 80054de:	ed97 7a01 	vldr	s14, [r7, #4]
 80054e2:	edd7 7a00 	vldr	s15, [r7]
 80054e6:	eee6 7a87 	vfma.f32	s15, s13, s14
 80054ea:	eb03 0e01 	add.w	lr, r3, r1
 80054ee:	3040      	adds	r0, #64	; 0x40
 80054f0:	ed9e 7a00 	vldr	s14, [lr]
 80054f4:	ee77 7a27 	vadd.f32	s15, s14, s15
 80054f8:	f5b0 5f90 	cmp.w	r0, #4608	; 0x1200
 80054fc:	f507 7700 	add.w	r7, r7, #512	; 0x200
 8005500:	f101 0104 	add.w	r1, r1, #4
 8005504:	edce 7a00 	vstr	s15, [lr]
 8005508:	dbe9      	blt.n	80054de <make_sound.constprop.32+0x2892>
 800550a:	eef6 ba00 	vmov.f32	s23, #96	; 0x60
 800550e:	f7fe be2a 	b.w	8004166 <make_sound.constprop.32+0x151a>
 8005512:	f1bb 0f00 	cmp.w	fp, #0
 8005516:	f040 828b 	bne.w	8005a30 <make_sound.constprop.32+0x2de4>
 800551a:	ee8c da8b 	vdiv.f32	s26, s25, s22
 800551e:	eeb4 baec 	vcmpe.f32	s22, s25
 8005522:	eef6 6a00 	vmov.f32	s13, #96	; 0x60
 8005526:	eef1 fa10 	vmrs	APSR_nzcv, fpscr
 800552a:	ee3d da66 	vsub.f32	s26, s26, s13
 800552e:	f240 8681 	bls.w	8006234 <make_sound.constprop.32+0x35e8>
 8005532:	465b      	mov	r3, fp
 8005534:	eef7 7a00 	vmov.f32	s15, #112	; 0x70
 8005538:	eef4 cae7 	vcmpe.f32	s25, s15
 800553c:	eef1 fa10 	vmrs	APSR_nzcv, fpscr
 8005540:	f2c0 859e 	blt.w	8006080 <make_sound.constprop.32+0x3434>
 8005544:	ee3c cae7 	vsub.f32	s24, s25, s15
 8005548:	ed9f 6a96 	vldr	s12, [pc, #600]	; 80057a4 <make_sound.constprop.32+0x2b58>
 800554c:	ed9f 7a96 	vldr	s14, [pc, #600]	; 80057a8 <make_sound.constprop.32+0x2b5c>
 8005550:	4f98      	ldr	r7, [pc, #608]	; (80057b4 <make_sound.constprop.32+0x2b68>)
 8005552:	f8df a26c 	ldr.w	sl, [pc, #620]	; 80057c0 <make_sound.constprop.32+0x2b74>
 8005556:	ee2c 6a06 	vmul.f32	s12, s24, s12
 800555a:	eecc 6a29 	vdiv.f32	s13, s24, s19
 800555e:	eec6 ca29 	vdiv.f32	s25, s12, s19
 8005562:	eec7 baab 	vdiv.f32	s23, s15, s23
 8005566:	ee8c da0b 	vdiv.f32	s26, s24, s22
 800556a:	eec7 7a8b 	vdiv.f32	s15, s15, s22
 800556e:	eeb6 6a00 	vmov.f32	s12, #96	; 0x60
 8005572:	ee36 7a87 	vadd.f32	s14, s13, s14
 8005576:	ee3c 0ac6 	vsub.f32	s0, s25, s12
 800557a:	ee37 9aab 	vadd.f32	s18, s15, s23
 800557e:	ee3d da46 	vsub.f32	s26, s26, s12
 8005582:	ed84 7a53 	vstr	s14, [r4, #332]	; 0x14c
 8005586:	f008 fe93 	bl	800e2b0 <lrintf>
 800558a:	ee07 0a90 	vmov	s15, r0
 800558e:	eeb8 6ae7 	vcvt.f32.s32	s12, s15
 8005592:	9b01      	ldr	r3, [sp, #4]
 8005594:	f000 003f 	and.w	r0, r0, #63	; 0x3f
 8005598:	ee29 7a89 	vmul.f32	s14, s19, s18
 800559c:	ee3c 6ac6 	vsub.f32	s12, s25, s12
 80055a0:	eb07 0780 	add.w	r7, r7, r0, lsl #2
 80055a4:	009a      	lsls	r2, r3, #2
 80055a6:	edd7 7a00 	vldr	s15, [r7]
 80055aa:	edd7 6a01 	vldr	s13, [r7, #4]
 80055ae:	ee76 6ae7 	vsub.f32	s13, s13, s15
 80055b2:	eb0a 0302 	add.w	r3, sl, r2
 80055b6:	eee6 7a26 	vfma.f32	s15, s12, s13
 80055ba:	3040      	adds	r0, #64	; 0x40
 80055bc:	f5b0 5f8e 	cmp.w	r0, #4544	; 0x11c0
 80055c0:	edd3 6a00 	vldr	s13, [r3]
 80055c4:	eee7 6a27 	vfma.f32	s13, s14, s15
 80055c8:	f507 7780 	add.w	r7, r7, #256	; 0x100
 80055cc:	f102 0204 	add.w	r2, r2, #4
 80055d0:	edc3 6a00 	vstr	s13, [r3]
 80055d4:	dbe7      	blt.n	80055a6 <make_sound.constprop.32+0x295a>
 80055d6:	f7fe bf12 	b.w	80043fe <make_sound.constprop.32+0x17b2>
 80055da:	eef0 9a67 	vmov.f32	s19, s15
 80055de:	f7fe be43 	b.w	8004268 <make_sound.constprop.32+0x161c>
 80055e2:	eddf 7a6f 	vldr	s15, [pc, #444]	; 80057a0 <make_sound.constprop.32+0x2b54>
 80055e6:	edc7 7a04 	vstr	s15, [r7, #16]
 80055ea:	eeb4 7ae7 	vcmpe.f32	s14, s15
 80055ee:	eef1 fa10 	vmrs	APSR_nzcv, fpscr
 80055f2:	f57d afc4 	bpl.w	800357e <make_sound.constprop.32+0x932>
 80055f6:	eeb8 6a00 	vmov.f32	s12, #128	; 0x80
 80055fa:	eec6 7a27 	vdiv.f32	s15, s12, s15
 80055fe:	eeb7 6a00 	vmov.f32	s12, #112	; 0x70
 8005602:	eea7 6a27 	vfma.f32	s12, s14, s15
 8005606:	edd7 7a00 	vldr	s15, [r7]
 800560a:	ee26 6a27 	vmul.f32	s12, s12, s15
 800560e:	f7fd bfc6 	b.w	800359e <make_sound.constprop.32+0x952>
 8005612:	eeb7 ba00 	vmov.f32	s22, #112	; 0x70
 8005616:	eef4 bacb 	vcmpe.f32	s23, s22
 800561a:	eef1 fa10 	vmrs	APSR_nzcv, fpscr
 800561e:	f2c0 82d0 	blt.w	8005bc2 <make_sound.constprop.32+0x2f76>
 8005622:	ee3b bacb 	vsub.f32	s22, s23, s22
 8005626:	eddf 6a5f 	vldr	s13, [pc, #380]	; 80057a4 <make_sound.constprop.32+0x2b58>
 800562a:	9201      	str	r2, [sp, #4]
 800562c:	ee6b 6a26 	vmul.f32	s13, s22, s13
 8005630:	eecb 7a29 	vdiv.f32	s15, s22, s19
 8005634:	4f5e      	ldr	r7, [pc, #376]	; (80057b0 <make_sound.constprop.32+0x2b64>)
 8005636:	f8df b18c 	ldr.w	fp, [pc, #396]	; 80057c4 <make_sound.constprop.32+0x2b78>
 800563a:	ee86 9aa9 	vdiv.f32	s18, s13, s19
 800563e:	ee37 6a86 	vadd.f32	s12, s15, s12
 8005642:	eeb6 0a00 	vmov.f32	s0, #96	; 0x60
 8005646:	ee39 0a40 	vsub.f32	s0, s18, s0
 800564a:	ed8a 6a05 	vstr	s12, [sl, #20]
 800564e:	f008 fe2f 	bl	800e2b0 <lrintf>
 8005652:	ee07 0a90 	vmov	s15, r0
 8005656:	eef8 6ae7 	vcvt.f32.s32	s13, s15
 800565a:	9a01      	ldr	r2, [sp, #4]
 800565c:	f000 003f 	and.w	r0, r0, #63	; 0x3f
 8005660:	ee79 6a66 	vsub.f32	s13, s18, s13
 8005664:	eb07 07c0 	add.w	r7, r7, r0, lsl #3
 8005668:	0093      	lsls	r3, r2, #2
 800566a:	ed97 7a01 	vldr	s14, [r7, #4]
 800566e:	edd7 7a00 	vldr	s15, [r7]
 8005672:	eee6 7a87 	vfma.f32	s15, s13, s14
 8005676:	eb0b 0103 	add.w	r1, fp, r3
 800567a:	3040      	adds	r0, #64	; 0x40
 800567c:	ed91 7a00 	vldr	s14, [r1]
 8005680:	ee77 7a27 	vadd.f32	s15, s14, s15
 8005684:	f5b0 5f90 	cmp.w	r0, #4608	; 0x1200
 8005688:	f507 7700 	add.w	r7, r7, #512	; 0x200
 800568c:	f103 0304 	add.w	r3, r3, #4
 8005690:	edc1 7a00 	vstr	s15, [r1]
 8005694:	dbe9      	blt.n	800566a <make_sound.constprop.32+0x2a1e>
 8005696:	f102 030c 	add.w	r3, r2, #12
 800569a:	eb0a 0383 	add.w	r3, sl, r3, lsl #2
 800569e:	eef6 6a00 	vmov.f32	s13, #96	; 0x60
 80056a2:	ed93 7a01 	vldr	s14, [r3, #4]
 80056a6:	ed9a 9a01 	vldr	s18, [sl, #4]
 80056aa:	4f43      	ldr	r7, [pc, #268]	; (80057b8 <make_sound.constprop.32+0x2b6c>)
 80056ac:	ee76 7acb 	vsub.f32	s15, s13, s22
 80056b0:	eb0a 0182 	add.w	r1, sl, r2, lsl #2
 80056b4:	ee77 7a27 	vadd.f32	s15, s14, s15
 80056b8:	3201      	adds	r2, #1
 80056ba:	edc3 7a01 	vstr	s15, [r3, #4]
 80056be:	edd1 7a09 	vldr	s15, [r1, #36]	; 0x24
 80056c2:	ee77 7ae8 	vsub.f32	s15, s15, s17
 80056c6:	f5b2 7f80 	cmp.w	r2, #256	; 0x100
 80056ca:	eee7 8aa6 	vfma.f32	s17, s15, s13
 80056ce:	ee28 9a89 	vmul.f32	s18, s17, s18
 80056d2:	ed8a 9a00 	vstr	s18, [sl]
 80056d6:	f000 8321 	beq.w	8005d1c <make_sound.constprop.32+0x30d0>
 80056da:	ed8a ba06 	vstr	s22, [sl, #24]
 80056de:	edca 9a07 	vstr	s19, [sl, #28]
 80056e2:	edca 8a08 	vstr	s17, [sl, #32]
 80056e6:	f8ca 2544 	str.w	r2, [sl, #1348]	; 0x544
 80056ea:	f7fe b8c7 	b.w	800387c <make_sound.constprop.32+0xc30>
 80056ee:	eddf 7a2c 	vldr	s15, [pc, #176]	; 80057a0 <make_sound.constprop.32+0x2b54>
 80056f2:	edc7 7a04 	vstr	s15, [r7, #16]
 80056f6:	eeb4 7ae7 	vcmpe.f32	s14, s15
 80056fa:	eef1 fa10 	vmrs	APSR_nzcv, fpscr
 80056fe:	f57d ade3 	bpl.w	80032c8 <make_sound.constprop.32+0x67c>
 8005702:	eeb8 6a00 	vmov.f32	s12, #128	; 0x80
 8005706:	eec6 7a27 	vdiv.f32	s15, s12, s15
 800570a:	eeb7 6a00 	vmov.f32	s12, #112	; 0x70
 800570e:	eea7 6a27 	vfma.f32	s12, s14, s15
 8005712:	edd7 7a00 	vldr	s15, [r7]
 8005716:	ee26 6a27 	vmul.f32	s12, s12, s15
 800571a:	f7fd bde5 	b.w	80032e8 <make_sound.constprop.32+0x69c>
 800571e:	eddf 7a20 	vldr	s15, [pc, #128]	; 80057a0 <make_sound.constprop.32+0x2b54>
 8005722:	edc7 7a04 	vstr	s15, [r7, #16]
 8005726:	eeb4 7ae7 	vcmpe.f32	s14, s15
 800572a:	eef1 fa10 	vmrs	APSR_nzcv, fpscr
 800572e:	f57e aba2 	bpl.w	8003e76 <make_sound.constprop.32+0x122a>
 8005732:	eeb8 6a00 	vmov.f32	s12, #128	; 0x80
 8005736:	eec6 7a27 	vdiv.f32	s15, s12, s15
 800573a:	eeb7 6a00 	vmov.f32	s12, #112	; 0x70
 800573e:	eea7 6a27 	vfma.f32	s12, s14, s15
 8005742:	edd7 7a00 	vldr	s15, [r7]
 8005746:	ee26 6a27 	vmul.f32	s12, s12, s15
 800574a:	f7fe bba4 	b.w	8003e96 <make_sound.constprop.32+0x124a>
 800574e:	ed9f 7a14 	vldr	s14, [pc, #80]	; 80057a0 <make_sound.constprop.32+0x2b54>
 8005752:	ed8a 7a04 	vstr	s14, [sl, #16]
 8005756:	f7fe bbde 	b.w	8003f16 <make_sound.constprop.32+0x12ca>
 800575a:	2309      	movs	r3, #9
 800575c:	f884 30e9 	strb.w	r3, [r4, #233]	; 0xe9
 8005760:	f994 30e8 	ldrsb.w	r3, [r4, #232]	; 0xe8
 8005764:	f7fe bf5b 	b.w	800461e <make_sound.constprop.32+0x19d2>
 8005768:	230c      	movs	r3, #12
 800576a:	f882 30e9 	strb.w	r3, [r2, #233]	; 0xe9
 800576e:	f7fe bf59 	b.w	8004624 <make_sound.constprop.32+0x19d8>
 8005772:	ed9a 6a04 	vldr	s12, [sl, #16]
 8005776:	eef7 7a00 	vmov.f32	s15, #112	; 0x70
 800577a:	ee36 6a27 	vadd.f32	s12, s12, s15
 800577e:	eef6 7a00 	vmov.f32	s15, #96	; 0x60
 8005782:	ee26 6a27 	vmul.f32	s12, s12, s15
 8005786:	eeb4 6ac5 	vcmpe.f32	s12, s10
 800578a:	eef1 fa10 	vmrs	APSR_nzcv, fpscr
 800578e:	eeb0 7a46 	vmov.f32	s14, s12
 8005792:	f100 8494 	bmi.w	80060be <make_sound.constprop.32+0x3472>
 8005796:	eddf 6a09 	vldr	s13, [pc, #36]	; 80057bc <make_sound.constprop.32+0x2b70>
 800579a:	f7ff bbf1 	b.w	8004f80 <make_sound.constprop.32+0x2334>
 800579e:	bf00      	nop
 80057a0:	40490fdb 	.word	0x40490fdb
 80057a4:	42800000 	.word	0x42800000
 80057a8:	1e3ce508 	.word	0x1e3ce508
 80057ac:	100006bc 	.word	0x100006bc
 80057b0:	08010508 	.word	0x08010508
 80057b4:	08019510 	.word	0x08019510
 80057b8:	10000ccc 	.word	0x10000ccc
 80057bc:	3f7fff58 	.word	0x3f7fff58
 80057c0:	10000160 	.word	0x10000160
 80057c4:	10000cf0 	.word	0x10000cf0
 80057c8:	eef7 7a00 	vmov.f32	s15, #112	; 0x70
 80057cc:	eeb4 cae7 	vcmpe.f32	s24, s15
 80057d0:	eef1 fa10 	vmrs	APSR_nzcv, fpscr
 80057d4:	f280 8382 	bge.w	8005edc <make_sound.constprop.32+0x3290>
 80057d8:	4fca      	ldr	r7, [pc, #808]	; (8005b04 <make_sound.constprop.32+0x2eb8>)
 80057da:	4bcb      	ldr	r3, [pc, #812]	; (8005b08 <make_sound.constprop.32+0x2ebc>)
 80057dc:	ea4f 0b82 	mov.w	fp, r2, lsl #2
 80057e0:	eddf 6ace 	vldr	s13, [pc, #824]	; 8005b1c <make_sound.constprop.32+0x2ed0>
 80057e4:	9302      	str	r3, [sp, #8]
 80057e6:	ee6c 6aa6 	vmul.f32	s13, s25, s13
 80057ea:	eeb6 0a00 	vmov.f32	s0, #96	; 0x60
 80057ee:	eec6 baa9 	vdiv.f32	s23, s13, s19
 80057f2:	9201      	str	r2, [sp, #4]
 80057f4:	ee3b 0ac0 	vsub.f32	s0, s23, s0
 80057f8:	f008 fd5a 	bl	800e2b0 <lrintf>
 80057fc:	ee07 0a90 	vmov	s15, r0
 8005800:	eef8 6ae7 	vcvt.f32.s32	s13, s15
 8005804:	f000 003f 	and.w	r0, r0, #63	; 0x3f
 8005808:	ee7b 6ae6 	vsub.f32	s13, s23, s13
 800580c:	9a01      	ldr	r2, [sp, #4]
 800580e:	9b02      	ldr	r3, [sp, #8]
 8005810:	eb07 07c0 	add.w	r7, r7, r0, lsl #3
 8005814:	ed97 7a01 	vldr	s14, [r7, #4]
 8005818:	edd7 7a00 	vldr	s15, [r7]
 800581c:	eee6 7a87 	vfma.f32	s15, s13, s14
 8005820:	eb03 010b 	add.w	r1, r3, fp
 8005824:	3040      	adds	r0, #64	; 0x40
 8005826:	ed91 7a00 	vldr	s14, [r1]
 800582a:	ee77 7a27 	vadd.f32	s15, s14, s15
 800582e:	f5b0 5f90 	cmp.w	r0, #4608	; 0x1200
 8005832:	f507 7700 	add.w	r7, r7, #512	; 0x200
 8005836:	f10b 0b04 	add.w	fp, fp, #4
 800583a:	edc1 7a00 	vstr	s15, [r1]
 800583e:	dbe9      	blt.n	8005814 <make_sound.constprop.32+0x2bc8>
 8005840:	f7fe bc85 	b.w	800414e <make_sound.constprop.32+0x1502>
 8005844:	eeb6 7a00 	vmov.f32	s14, #96	; 0x60
 8005848:	eef4 9ac7 	vcmpe.f32	s19, s14
 800584c:	eef1 fa10 	vmrs	APSR_nzcv, fpscr
 8005850:	f340 85ea 	ble.w	8006428 <make_sound.constprop.32+0x37dc>
 8005854:	ed93 ba51 	vldr	s22, [r3, #324]	; 0x144
 8005858:	eef7 7a00 	vmov.f32	s15, #112	; 0x70
 800585c:	ee3b ba27 	vadd.f32	s22, s22, s15
 8005860:	eef0 7a47 	vmov.f32	s15, s14
 8005864:	ee2b ba07 	vmul.f32	s22, s22, s14
 8005868:	eef0 5a67 	vmov.f32	s11, s15
 800586c:	eeb4 bac7 	vcmpe.f32	s22, s14
 8005870:	eef1 fa10 	vmrs	APSR_nzcv, fpscr
 8005874:	eeb0 7a4b 	vmov.f32	s14, s22
 8005878:	f57f ab4c 	bpl.w	8004f14 <make_sound.constprop.32+0x22c8>
 800587c:	eeb0 ba67 	vmov.f32	s22, s15
 8005880:	eef5 ca00 	vmov.f32	s25, #80	; 0x50
 8005884:	f04f 0b00 	mov.w	fp, #0
 8005888:	eef0 6a67 	vmov.f32	s13, s15
 800588c:	f884 b688 	strb.w	fp, [r4, #1672]	; 0x688
 8005890:	f7fe bcd9 	b.w	8004246 <make_sound.constprop.32+0x15fa>
 8005894:	eef4 cae7 	vcmpe.f32	s25, s15
 8005898:	eef1 fa10 	vmrs	APSR_nzcv, fpscr
 800589c:	f2c0 83a5 	blt.w	8005fea <make_sound.constprop.32+0x339e>
 80058a0:	ee7c dae7 	vsub.f32	s27, s25, s15
 80058a4:	ed9f 7a9d 	vldr	s14, [pc, #628]	; 8005b1c <make_sound.constprop.32+0x2ed0>
 80058a8:	9b01      	ldr	r3, [sp, #4]
 80058aa:	4f98      	ldr	r7, [pc, #608]	; (8005b0c <make_sound.constprop.32+0x2ec0>)
 80058ac:	f8df a260 	ldr.w	sl, [pc, #608]	; 8005b10 <make_sound.constprop.32+0x2ec4>
 80058b0:	ee7c ea2d 	vadd.f32	s29, s24, s27
 80058b4:	ee8d da8b 	vdiv.f32	s26, s27, s22
 80058b8:	ea4f 0b83 	mov.w	fp, r3, lsl #2
 80058bc:	f8cd b008 	str.w	fp, [sp, #8]
 80058c0:	ee6e ea87 	vmul.f32	s29, s29, s14
 80058c4:	ee87 ea8b 	vdiv.f32	s28, s15, s22
 80058c8:	eece eaa9 	vdiv.f32	s29, s29, s19
 80058cc:	eec7 caab 	vdiv.f32	s25, s15, s23
 80058d0:	eeb6 7a00 	vmov.f32	s14, #96	; 0x60
 80058d4:	ee3e 0ac7 	vsub.f32	s0, s29, s14
 80058d8:	ee3d da47 	vsub.f32	s26, s26, s14
 80058dc:	f008 fce8 	bl	800e2b0 <lrintf>
 80058e0:	ee07 0a90 	vmov	s15, r0
 80058e4:	ee7e ca2c 	vadd.f32	s25, s28, s25
 80058e8:	eef8 7ae7 	vcvt.f32.s32	s15, s15
 80058ec:	f000 003f 	and.w	r0, r0, #63	; 0x3f
 80058f0:	ee69 caac 	vmul.f32	s25, s19, s25
 80058f4:	ee7e eae7 	vsub.f32	s29, s29, s15
 80058f8:	9902      	ldr	r1, [sp, #8]
 80058fa:	eb07 0280 	add.w	r2, r7, r0, lsl #2
 80058fe:	46de      	mov	lr, fp
 8005900:	edd2 7a00 	vldr	s15, [r2]
 8005904:	ed92 7a01 	vldr	s14, [r2, #4]
 8005908:	ee37 7a67 	vsub.f32	s14, s14, s15
 800590c:	eb0a 030e 	add.w	r3, sl, lr
 8005910:	eeee 7a87 	vfma.f32	s15, s29, s14
 8005914:	3040      	adds	r0, #64	; 0x40
 8005916:	f5b0 5f8e 	cmp.w	r0, #4544	; 0x11c0
 800591a:	ed93 7a00 	vldr	s14, [r3]
 800591e:	eeac 7aa7 	vfma.f32	s14, s25, s15
 8005922:	f502 7280 	add.w	r2, r2, #256	; 0x100
 8005926:	f10e 0e04 	add.w	lr, lr, #4
 800592a:	ed83 7a00 	vstr	s14, [r3]
 800592e:	dbe7      	blt.n	8005900 <make_sound.constprop.32+0x2cb4>
 8005930:	eeb4 baed 	vcmpe.f32	s22, s27
 8005934:	eef1 fa10 	vmrs	APSR_nzcv, fpscr
 8005938:	f63e ad1d 	bhi.w	8004376 <make_sound.constprop.32+0x172a>
 800593c:	ee7d dacb 	vsub.f32	s27, s27, s22
 8005940:	ed9f 7a76 	vldr	s14, [pc, #472]	; 8005b1c <make_sound.constprop.32+0x2ed0>
 8005944:	9102      	str	r1, [sp, #8]
 8005946:	ee7c 6a2d 	vadd.f32	s13, s24, s27
 800594a:	eeff 7a00 	vmov.f32	s15, #240	; 0xf0
 800594e:	ee26 7a87 	vmul.f32	s14, s13, s14
 8005952:	eecd 6aab 	vdiv.f32	s13, s27, s23
 8005956:	eec7 da29 	vdiv.f32	s27, s14, s19
 800595a:	eec7 7aab 	vdiv.f32	s15, s15, s23
 800595e:	eeb6 da00 	vmov.f32	s26, #96	; 0x60
 8005962:	ee3d 0acd 	vsub.f32	s0, s27, s26
 8005966:	ee37 eace 	vsub.f32	s28, s15, s28
 800596a:	ee3d da66 	vsub.f32	s26, s26, s13
 800596e:	f008 fc9f 	bl	800e2b0 <lrintf>
 8005972:	ee07 0a90 	vmov	s15, r0
 8005976:	eef8 7ae7 	vcvt.f32.s32	s15, s15
 800597a:	f000 003f 	and.w	r0, r0, #63	; 0x3f
 800597e:	ee29 ea8e 	vmul.f32	s28, s19, s28
 8005982:	ee7d dae7 	vsub.f32	s27, s27, s15
 8005986:	9902      	ldr	r1, [sp, #8]
 8005988:	eb07 0280 	add.w	r2, r7, r0, lsl #2
 800598c:	edd2 7a00 	vldr	s15, [r2]
 8005990:	ed92 7a01 	vldr	s14, [r2, #4]
 8005994:	ee37 7a67 	vsub.f32	s14, s14, s15
 8005998:	eb0a 0301 	add.w	r3, sl, r1
 800599c:	eeed 7a87 	vfma.f32	s15, s27, s14
 80059a0:	3040      	adds	r0, #64	; 0x40
 80059a2:	f5b0 5f8e 	cmp.w	r0, #4544	; 0x11c0
 80059a6:	ed93 7a00 	vldr	s14, [r3]
 80059aa:	eeae 7a27 	vfma.f32	s14, s28, s15
 80059ae:	f502 7280 	add.w	r2, r2, #256	; 0x100
 80059b2:	f101 0104 	add.w	r1, r1, #4
 80059b6:	ed83 7a00 	vstr	s14, [r3]
 80059ba:	dbe7      	blt.n	800598c <make_sound.constprop.32+0x2d40>
 80059bc:	e32b      	b.n	8006016 <make_sound.constprop.32+0x33ca>
 80059be:	4f51      	ldr	r7, [pc, #324]	; (8005b04 <make_sound.constprop.32+0x2eb8>)
 80059c0:	f8df b150 	ldr.w	fp, [pc, #336]	; 8005b14 <make_sound.constprop.32+0x2ec8>
 80059c4:	0093      	lsls	r3, r2, #2
 80059c6:	eddf 6a55 	vldr	s13, [pc, #340]	; 8005b1c <make_sound.constprop.32+0x2ed0>
 80059ca:	9302      	str	r3, [sp, #8]
 80059cc:	ee6b 6a26 	vmul.f32	s13, s22, s13
 80059d0:	eeb6 0a00 	vmov.f32	s0, #96	; 0x60
 80059d4:	ee86 caa9 	vdiv.f32	s24, s13, s19
 80059d8:	9201      	str	r2, [sp, #4]
 80059da:	ee3c 0a40 	vsub.f32	s0, s24, s0
 80059de:	f008 fc67 	bl	800e2b0 <lrintf>
 80059e2:	ee07 0a90 	vmov	s15, r0
 80059e6:	eef8 6ae7 	vcvt.f32.s32	s13, s15
 80059ea:	f000 003f 	and.w	r0, r0, #63	; 0x3f
 80059ee:	ee7c 6a66 	vsub.f32	s13, s24, s13
 80059f2:	9b02      	ldr	r3, [sp, #8]
 80059f4:	9a01      	ldr	r2, [sp, #4]
 80059f6:	eb07 07c0 	add.w	r7, r7, r0, lsl #3
 80059fa:	edd7 7a01 	vldr	s15, [r7, #4]
 80059fe:	ed97 7a00 	vldr	s14, [r7]
 8005a02:	f8df e114 	ldr.w	lr, [pc, #276]	; 8005b18 <make_sound.constprop.32+0x2ecc>
 8005a06:	eea6 7aa7 	vfma.f32	s14, s13, s15
 8005a0a:	eb0b 0103 	add.w	r1, fp, r3
 8005a0e:	3040      	adds	r0, #64	; 0x40
 8005a10:	edd1 7a00 	vldr	s15, [r1]
 8005a14:	eeeb 7a87 	vfma.f32	s15, s23, s14
 8005a18:	f5b0 5f90 	cmp.w	r0, #4608	; 0x1200
 8005a1c:	f507 7700 	add.w	r7, r7, #512	; 0x200
 8005a20:	f103 0304 	add.w	r3, r3, #4
 8005a24:	edc1 7a00 	vstr	s15, [r1]
 8005a28:	dbe7      	blt.n	80059fa <make_sound.constprop.32+0x2dae>
 8005a2a:	ed8e 9a05 	vstr	s18, [lr, #20]
 8005a2e:	e632      	b.n	8005696 <make_sound.constprop.32+0x2a4a>
 8005a30:	eef4 cae7 	vcmpe.f32	s25, s15
 8005a34:	eef1 fa10 	vmrs	APSR_nzcv, fpscr
 8005a38:	f2c0 822b 	blt.w	8005e92 <make_sound.constprop.32+0x3246>
 8005a3c:	ee3c cae7 	vsub.f32	s24, s25, s15
 8005a40:	eddf ca36 	vldr	s25, [pc, #216]	; 8005b1c <make_sound.constprop.32+0x2ed0>
 8005a44:	9b01      	ldr	r3, [sp, #4]
 8005a46:	4f31      	ldr	r7, [pc, #196]	; (8005b0c <make_sound.constprop.32+0x2ec0>)
 8005a48:	f8df a0c4 	ldr.w	sl, [pc, #196]	; 8005b10 <make_sound.constprop.32+0x2ec4>
 8005a4c:	ee6c ca2c 	vmul.f32	s25, s24, s25
 8005a50:	eecc 6a29 	vdiv.f32	s13, s24, s19
 8005a54:	ea4f 0b83 	mov.w	fp, r3, lsl #2
 8005a58:	eecc caa9 	vdiv.f32	s25, s25, s19
 8005a5c:	ee87 9a8b 	vdiv.f32	s18, s15, s22
 8005a60:	ee8c da0b 	vdiv.f32	s26, s24, s22
 8005a64:	eec7 7aab 	vdiv.f32	s15, s15, s23
 8005a68:	eeb6 6a00 	vmov.f32	s12, #96	; 0x60
 8005a6c:	ee36 7a87 	vadd.f32	s14, s13, s14
 8005a70:	ee3c 0ac6 	vsub.f32	s0, s25, s12
 8005a74:	ee79 da27 	vadd.f32	s27, s18, s15
 8005a78:	ee3d da46 	vsub.f32	s26, s26, s12
 8005a7c:	ed84 7a53 	vstr	s14, [r4, #332]	; 0x14c
 8005a80:	f008 fc16 	bl	800e2b0 <lrintf>
 8005a84:	ee07 0a90 	vmov	s15, r0
 8005a88:	eef8 6ae7 	vcvt.f32.s32	s13, s15
 8005a8c:	f000 003f 	and.w	r0, r0, #63	; 0x3f
 8005a90:	ee29 6aad 	vmul.f32	s12, s19, s27
 8005a94:	ee7c 6ae6 	vsub.f32	s13, s25, s13
 8005a98:	eb07 0280 	add.w	r2, r7, r0, lsl #2
 8005a9c:	4659      	mov	r1, fp
 8005a9e:	edd2 7a00 	vldr	s15, [r2]
 8005aa2:	ed92 7a01 	vldr	s14, [r2, #4]
 8005aa6:	ee37 7a67 	vsub.f32	s14, s14, s15
 8005aaa:	eb0a 0301 	add.w	r3, sl, r1
 8005aae:	eee6 7a87 	vfma.f32	s15, s13, s14
 8005ab2:	3040      	adds	r0, #64	; 0x40
 8005ab4:	f5b0 5f8e 	cmp.w	r0, #4544	; 0x11c0
 8005ab8:	ed93 7a00 	vldr	s14, [r3]
 8005abc:	eea6 7a27 	vfma.f32	s14, s12, s15
 8005ac0:	f502 7280 	add.w	r2, r2, #256	; 0x100
 8005ac4:	f101 0104 	add.w	r1, r1, #4
 8005ac8:	ed83 7a00 	vstr	s14, [r3]
 8005acc:	dbe7      	blt.n	8005a9e <make_sound.constprop.32+0x2e52>
 8005ace:	eeb4 bacc 	vcmpe.f32	s22, s24
 8005ad2:	eef1 fa10 	vmrs	APSR_nzcv, fpscr
 8005ad6:	f240 842b 	bls.w	8006330 <make_sound.constprop.32+0x36e4>
 8005ada:	f04f 0b00 	mov.w	fp, #0
 8005ade:	f7fe bc8e 	b.w	80043fe <make_sound.constprop.32+0x17b2>
 8005ae2:	eeb6 7a00 	vmov.f32	s14, #96	; 0x60
 8005ae6:	eef4 7ac7 	vcmpe.f32	s15, s14
 8005aea:	eef1 fa10 	vmrs	APSR_nzcv, fpscr
 8005aee:	f04f 0300 	mov.w	r3, #0
 8005af2:	bfd8      	it	le
 8005af4:	eeb0 7a67 	vmovle.f32	s14, s15
 8005af8:	f88a 3548 	strb.w	r3, [sl, #1352]	; 0x548
 8005afc:	eef6 ba00 	vmov.f32	s23, #96	; 0x60
 8005b00:	f7ff b958 	b.w	8004db4 <make_sound.constprop.32+0x2168>
 8005b04:	08010508 	.word	0x08010508
 8005b08:	100006bc 	.word	0x100006bc
 8005b0c:	08019510 	.word	0x08019510
 8005b10:	10000160 	.word	0x10000160
 8005b14:	10000cf0 	.word	0x10000cf0
 8005b18:	10000ccc 	.word	0x10000ccc
 8005b1c:	42800000 	.word	0x42800000
 8005b20:	eef7 ca00 	vmov.f32	s25, #112	; 0x70
 8005b24:	eeb4 caec 	vcmpe.f32	s24, s25
 8005b28:	eef1 fa10 	vmrs	APSR_nzcv, fpscr
 8005b2c:	f2c0 82b8 	blt.w	80060a0 <make_sound.constprop.32+0x3454>
 8005b30:	ee7c ca6c 	vsub.f32	s25, s24, s25
 8005b34:	ed5f 6a07 	vldr	s13, [pc, #-28]	; 8005b1c <make_sound.constprop.32+0x2ed0>
 8005b38:	4bdd      	ldr	r3, [pc, #884]	; (8005eb0 <make_sound.constprop.32+0x3264>)
 8005b3a:	9302      	str	r3, [sp, #8]
 8005b3c:	ee6c 6aa6 	vmul.f32	s13, s25, s13
 8005b40:	ee8c 7aa9 	vdiv.f32	s14, s25, s19
 8005b44:	ea4f 0b82 	mov.w	fp, r2, lsl #2
 8005b48:	9201      	str	r2, [sp, #4]
 8005b4a:	4fda      	ldr	r7, [pc, #872]	; (8005eb4 <make_sound.constprop.32+0x3268>)
 8005b4c:	ee86 9aa9 	vdiv.f32	s18, s13, s19
 8005b50:	ee77 7a27 	vadd.f32	s15, s14, s15
 8005b54:	eeb6 0a00 	vmov.f32	s0, #96	; 0x60
 8005b58:	ee39 0a40 	vsub.f32	s0, s18, s0
 8005b5c:	edca 7a06 	vstr	s15, [sl, #24]
 8005b60:	f008 fba6 	bl	800e2b0 <lrintf>
 8005b64:	ee07 0a90 	vmov	s15, r0
 8005b68:	eef8 6ae7 	vcvt.f32.s32	s13, s15
 8005b6c:	f000 003f 	and.w	r0, r0, #63	; 0x3f
 8005b70:	ee79 6a66 	vsub.f32	s13, s18, s13
 8005b74:	9a01      	ldr	r2, [sp, #4]
 8005b76:	9b02      	ldr	r3, [sp, #8]
 8005b78:	eb07 01c0 	add.w	r1, r7, r0, lsl #3
 8005b7c:	46de      	mov	lr, fp
 8005b7e:	ed91 7a01 	vldr	s14, [r1, #4]
 8005b82:	edd1 7a00 	vldr	s15, [r1]
 8005b86:	eee6 7a87 	vfma.f32	s15, s13, s14
 8005b8a:	eb03 0c0e 	add.w	ip, r3, lr
 8005b8e:	3040      	adds	r0, #64	; 0x40
 8005b90:	ed9c 7a00 	vldr	s14, [ip]
 8005b94:	ee77 7a27 	vadd.f32	s15, s14, s15
 8005b98:	f5b0 5f90 	cmp.w	r0, #4608	; 0x1200
 8005b9c:	f501 7100 	add.w	r1, r1, #512	; 0x200
 8005ba0:	f10e 0e04 	add.w	lr, lr, #4
 8005ba4:	edcc 7a00 	vstr	s15, [ip]
 8005ba8:	dbe9      	blt.n	8005b7e <make_sound.constprop.32+0x2f32>
 8005baa:	eeb4 baec 	vcmpe.f32	s22, s25
 8005bae:	eef1 fa10 	vmrs	APSR_nzcv, fpscr
 8005bb2:	f240 83fd 	bls.w	80063b0 <make_sound.constprop.32+0x3764>
 8005bb6:	eef6 ba00 	vmov.f32	s23, #96	; 0x60
 8005bba:	f04f 0b00 	mov.w	fp, #0
 8005bbe:	f7fe bad2 	b.w	8004166 <make_sound.constprop.32+0x151a>
 8005bc2:	2300      	movs	r3, #0
 8005bc4:	eeb0 ba6b 	vmov.f32	s22, s23
 8005bc8:	f8ca 3014 	str.w	r3, [sl, #20]
 8005bcc:	e563      	b.n	8005696 <make_sound.constprop.32+0x2a4a>
 8005bce:	230b      	movs	r3, #11
 8005bd0:	f884 30e9 	strb.w	r3, [r4, #233]	; 0xe9
 8005bd4:	f994 30e8 	ldrsb.w	r3, [r4, #232]	; 0xe8
 8005bd8:	f7fe bd21 	b.w	800461e <make_sound.constprop.32+0x19d2>
 8005bdc:	220c      	movs	r2, #12
 8005bde:	f994 30e8 	ldrsb.w	r3, [r4, #232]	; 0xe8
 8005be2:	f884 20e9 	strb.w	r2, [r4, #233]	; 0xe9
 8005be6:	f7fe bd1a 	b.w	800461e <make_sound.constprop.32+0x19d2>
 8005bea:	2300      	movs	r3, #0
 8005bec:	4fb2      	ldr	r7, [pc, #712]	; (8005eb8 <make_sound.constprop.32+0x326c>)
 8005bee:	eddf 9ab3 	vldr	s19, [pc, #716]	; 8005ebc <make_sound.constprop.32+0x3270>
 8005bf2:	ed9f 9ab3 	vldr	s18, [pc, #716]	; 8005ec0 <make_sound.constprop.32+0x3274>
 8005bf6:	6763      	str	r3, [r4, #116]	; 0x74
 8005bf8:	f04f 527e 	mov.w	r2, #1065353216	; 0x3f800000
 8005bfc:	ee08 3a90 	vmov	s17, r3
 8005c00:	6723      	str	r3, [r4, #112]	; 0x70
 8005c02:	f107 0a2c 	add.w	sl, r7, #44	; 0x2c
 8005c06:	f107 0b24 	add.w	fp, r7, #36	; 0x24
 8005c0a:	64a2      	str	r2, [r4, #72]	; 0x48
 8005c0c:	6462      	str	r2, [r4, #68]	; 0x44
 8005c0e:	f00a fa81 	bl	8010114 <rand>
 8005c12:	ee07 0a90 	vmov	s15, r0
 8005c16:	eef8 7ae7 	vcvt.f32.s32	s15, s15
 8005c1a:	eeb0 7a49 	vmov.f32	s14, s18
 8005c1e:	ee67 7a8a 	vmul.f32	s15, s15, s20
 8005c22:	ecea 8a01 	vstmia	sl!, {s17}
 8005c26:	eea7 7aa9 	vfma.f32	s14, s15, s19
 8005c2a:	4aa6      	ldr	r2, [pc, #664]	; (8005ec4 <make_sound.constprop.32+0x3278>)
 8005c2c:	eca7 7a01 	vstmia	r7!, {s14}
 8005c30:	eef0 7a47 	vmov.f32	s15, s14
 8005c34:	ed94 7a11 	vldr	s14, [r4, #68]	; 0x44
 8005c38:	ee77 7a87 	vadd.f32	s15, s15, s14
 8005c3c:	455f      	cmp	r7, fp
 8005c3e:	edc4 7a11 	vstr	s15, [r4, #68]	; 0x44
 8005c42:	d1e4      	bne.n	8005c0e <make_sound.constprop.32+0x2fc2>
 8005c44:	eeb7 7a00 	vmov.f32	s14, #112	; 0x70
 8005c48:	eec7 7a27 	vdiv.f32	s15, s14, s15
 8005c4c:	2304      	movs	r3, #4
 8005c4e:	f882 30e9 	strb.w	r3, [r2, #233]	; 0xe9
 8005c52:	f992 30e8 	ldrsb.w	r3, [r2, #232]	; 0xe8
 8005c56:	edc2 7a11 	vstr	s15, [r2, #68]	; 0x44
 8005c5a:	f7fe bce0 	b.w	800461e <make_sound.constprop.32+0x19d2>
 8005c5e:	ed94 7a48 	vldr	s14, [r4, #288]	; 0x120
 8005c62:	eeb5 7ac0 	vcmpe.f32	s14, #0.0
 8005c66:	eef1 fa10 	vmrs	APSR_nzcv, fpscr
 8005c6a:	d506      	bpl.n	8005c7a <make_sound.constprop.32+0x302e>
 8005c6c:	ee37 7a08 	vadd.f32	s14, s14, s16
 8005c70:	eeb5 7ac0 	vcmpe.f32	s14, #0.0
 8005c74:	eef1 fa10 	vmrs	APSR_nzcv, fpscr
 8005c78:	d4f8      	bmi.n	8005c6c <make_sound.constprop.32+0x3020>
 8005c7a:	eeb4 7ac8 	vcmpe.f32	s14, s16
 8005c7e:	eef1 fa10 	vmrs	APSR_nzcv, fpscr
 8005c82:	eef0 7a47 	vmov.f32	s15, s14
 8005c86:	db06      	blt.n	8005c96 <make_sound.constprop.32+0x304a>
 8005c88:	ee77 7ac8 	vsub.f32	s15, s15, s16
 8005c8c:	eef4 7ac8 	vcmpe.f32	s15, s16
 8005c90:	eef1 fa10 	vmrs	APSR_nzcv, fpscr
 8005c94:	daf8      	bge.n	8005c88 <make_sound.constprop.32+0x303c>
 8005c96:	ed9f 7a8c 	vldr	s14, [pc, #560]	; 8005ec8 <make_sound.constprop.32+0x327c>
 8005c9a:	eef4 7ac7 	vcmpe.f32	s15, s14
 8005c9e:	eef1 fa10 	vmrs	APSR_nzcv, fpscr
 8005ca2:	ee87 7a87 	vdiv.f32	s14, s15, s14
 8005ca6:	f100 8210 	bmi.w	80060ca <make_sound.constprop.32+0x347e>
 8005caa:	eef0 6a00 	vmov.f32	s13, #0
 8005cae:	ee37 7a66 	vsub.f32	s14, s14, s13
 8005cb2:	edd4 6a45 	vldr	s13, [r4, #276]	; 0x114
 8005cb6:	ee67 6a26 	vmul.f32	s13, s14, s13
 8005cba:	eefe 8a00 	vmov.f32	s17, #224	; 0xe0
 8005cbe:	ee27 7a26 	vmul.f32	s14, s14, s13
 8005cc2:	ee27 9a28 	vmul.f32	s18, s14, s17
 8005cc6:	f7fd bed4 	b.w	8003a72 <make_sound.constprop.32+0xe26>
 8005cca:	3b01      	subs	r3, #1
 8005ccc:	f063 0303 	orn	r3, r3, #3
 8005cd0:	3301      	adds	r3, #1
 8005cd2:	f7fe bf59 	b.w	8004b88 <make_sound.constprop.32+0x1f3c>
 8005cd6:	eef6 6a00 	vmov.f32	s13, #96	; 0x60
 8005cda:	ee68 8aa6 	vmul.f32	s17, s17, s13
 8005cde:	ee28 9a87 	vmul.f32	s18, s17, s14
 8005ce2:	f7fd bec6 	b.w	8003a72 <make_sound.constprop.32+0xe26>
 8005ce6:	eddf 6a79 	vldr	s13, [pc, #484]	; 8005ecc <make_sound.constprop.32+0x3280>
 8005cea:	edd4 8a45 	vldr	s17, [r4, #276]	; 0x114
 8005cee:	eeb7 7a00 	vmov.f32	s14, #112	; 0x70
 8005cf2:	eea7 7aa6 	vfma.f32	s14, s15, s13
 8005cf6:	ee27 9a28 	vmul.f32	s18, s14, s17
 8005cfa:	f7fd beba 	b.w	8003a72 <make_sound.constprop.32+0xe26>
 8005cfe:	eddf 7a74 	vldr	s15, [pc, #464]	; 8005ed0 <make_sound.constprop.32+0x3284>
 8005d02:	eeb0 ba65 	vmov.f32	s22, s11
 8005d06:	eef6 ca00 	vmov.f32	s25, #96	; 0x60
 8005d0a:	ee6b ca2c 	vmul.f32	s25, s22, s25
 8005d0e:	e5b9      	b.n	8005884 <make_sound.constprop.32+0x2c38>
 8005d10:	3b01      	subs	r3, #1
 8005d12:	f063 030f 	orn	r3, r3, #15
 8005d16:	3301      	adds	r3, #1
 8005d18:	f7fe bfa7 	b.w	8004c6a <make_sound.constprop.32+0x201e>
 8005d1c:	f207 4124 	addw	r1, r7, #1060	; 0x424
 8005d20:	f44f 7290 	mov.w	r2, #288	; 0x120
 8005d24:	f107 0024 	add.w	r0, r7, #36	; 0x24
 8005d28:	f7fa fefe 	bl	8000b28 <memcpy>
 8005d2c:	f44f 6280 	mov.w	r2, #1024	; 0x400
 8005d30:	f507 70a2 	add.w	r0, r7, #324	; 0x144
 8005d34:	2100      	movs	r1, #0
 8005d36:	f00a f991 	bl	801005c <memset>
 8005d3a:	ed97 9a00 	vldr	s18, [r7]
 8005d3e:	2200      	movs	r2, #0
 8005d40:	e4cb      	b.n	80056da <make_sound.constprop.32+0x2a8e>
 8005d42:	f507 6186 	add.w	r1, r7, #1072	; 0x430
 8005d46:	f44f 7290 	mov.w	r2, #288	; 0x120
 8005d4a:	f107 0030 	add.w	r0, r7, #48	; 0x30
 8005d4e:	f7fa feeb 	bl	8000b28 <memcpy>
 8005d52:	f44f 6280 	mov.w	r2, #1024	; 0x400
 8005d56:	f507 70a8 	add.w	r0, r7, #336	; 0x150
 8005d5a:	2100      	movs	r1, #0
 8005d5c:	f00a f97e 	bl	801005c <memset>
 8005d60:	ed97 9a00 	vldr	s18, [r7]
 8005d64:	2200      	movs	r2, #0
 8005d66:	f7fe ba1e 	b.w	80041a6 <make_sound.constprop.32+0x155a>
 8005d6a:	f507 61ac 	add.w	r1, r7, #1376	; 0x560
 8005d6e:	f44f 7290 	mov.w	r2, #288	; 0x120
 8005d72:	f507 70b0 	add.w	r0, r7, #352	; 0x160
 8005d76:	f7fa fed7 	bl	8000b28 <memcpy>
 8005d7a:	f507 7020 	add.w	r0, r7, #640	; 0x280
 8005d7e:	2100      	movs	r1, #0
 8005d80:	f44f 6280 	mov.w	r2, #1024	; 0x400
 8005d84:	f00a f96a 	bl	801005c <memset>
 8005d88:	ed97 9a4d 	vldr	s18, [r7, #308]	; 0x134
 8005d8c:	2300      	movs	r3, #0
 8005d8e:	f7fe bb54 	b.w	800443a <make_sound.constprop.32+0x17ee>
 8005d92:	ee3c 7a4b 	vsub.f32	s14, s24, s22
 8005d96:	eddf ca50 	vldr	s25, [pc, #320]	; 8005ed8 <make_sound.constprop.32+0x328c>
 8005d9a:	4f4e      	ldr	r7, [pc, #312]	; (8005ed4 <make_sound.constprop.32+0x3288>)
 8005d9c:	ee67 ca2c 	vmul.f32	s25, s14, s25
 8005da0:	eeff 6a00 	vmov.f32	s13, #240	; 0xf0
 8005da4:	eecc caa9 	vdiv.f32	s25, s25, s19
 8005da8:	eef7 7a00 	vmov.f32	s15, #112	; 0x70
 8005dac:	ee87 7a2b 	vdiv.f32	s14, s14, s23
 8005db0:	eec6 6aab 	vdiv.f32	s13, s13, s23
 8005db4:	eec7 7a8b 	vdiv.f32	s15, s15, s22
 8005db8:	eeb6 da00 	vmov.f32	s26, #96	; 0x60
 8005dbc:	ee3c 0acd 	vsub.f32	s0, s25, s26
 8005dc0:	ee76 bae7 	vsub.f32	s23, s13, s15
 8005dc4:	ee3d da47 	vsub.f32	s26, s26, s14
 8005dc8:	f008 fa72 	bl	800e2b0 <lrintf>
 8005dcc:	ee07 0a90 	vmov	s15, r0
 8005dd0:	eef8 7ae7 	vcvt.f32.s32	s15, s15
 8005dd4:	f000 003f 	and.w	r0, r0, #63	; 0x3f
 8005dd8:	ee69 6aab 	vmul.f32	s13, s19, s23
 8005ddc:	ee7c cae7 	vsub.f32	s25, s25, s15
 8005de0:	eb07 0780 	add.w	r7, r7, r0, lsl #2
 8005de4:	edd7 7a00 	vldr	s15, [r7]
 8005de8:	ed97 7a01 	vldr	s14, [r7, #4]
 8005dec:	ee37 7a67 	vsub.f32	s14, s14, s15
 8005df0:	eb0a 030b 	add.w	r3, sl, fp
 8005df4:	eeec 7a87 	vfma.f32	s15, s25, s14
 8005df8:	3040      	adds	r0, #64	; 0x40
 8005dfa:	f5b0 5f8e 	cmp.w	r0, #4544	; 0x11c0
 8005dfe:	ed93 7a00 	vldr	s14, [r3]
 8005e02:	eea6 7aa7 	vfma.f32	s14, s13, s15
 8005e06:	f507 7780 	add.w	r7, r7, #256	; 0x100
 8005e0a:	f10b 0b04 	add.w	fp, fp, #4
 8005e0e:	ed83 7a00 	vstr	s14, [r3]
 8005e12:	dbe7      	blt.n	8005de4 <make_sound.constprop.32+0x3198>
 8005e14:	f04f 0b01 	mov.w	fp, #1
 8005e18:	f7fe baef 	b.w	80043fa <make_sound.constprop.32+0x17ae>
 8005e1c:	eddf 7a2e 	vldr	s15, [pc, #184]	; 8005ed8 <make_sound.constprop.32+0x328c>
 8005e20:	4b23      	ldr	r3, [pc, #140]	; (8005eb0 <make_sound.constprop.32+0x3264>)
 8005e22:	9202      	str	r2, [sp, #8]
 8005e24:	ee7c 6acb 	vsub.f32	s13, s25, s22
 8005e28:	eeb6 0a00 	vmov.f32	s0, #96	; 0x60
 8005e2c:	ee66 6aa7 	vmul.f32	s13, s13, s15
 8005e30:	9301      	str	r3, [sp, #4]
 8005e32:	eec6 baa9 	vdiv.f32	s23, s13, s19
 8005e36:	4f1f      	ldr	r7, [pc, #124]	; (8005eb4 <make_sound.constprop.32+0x3268>)
 8005e38:	ee3b 0ac0 	vsub.f32	s0, s23, s0
 8005e3c:	f008 fa38 	bl	800e2b0 <lrintf>
 8005e40:	ee07 0a90 	vmov	s15, r0
 8005e44:	eef8 6ae7 	vcvt.f32.s32	s13, s15
 8005e48:	9a02      	ldr	r2, [sp, #8]
 8005e4a:	9b01      	ldr	r3, [sp, #4]
 8005e4c:	f000 003f 	and.w	r0, r0, #63	; 0x3f
 8005e50:	ee7b 6ae6 	vsub.f32	s13, s23, s13
 8005e54:	eb07 07c0 	add.w	r7, r7, r0, lsl #3
 8005e58:	0091      	lsls	r1, r2, #2
 8005e5a:	ed97 7a01 	vldr	s14, [r7, #4]
 8005e5e:	edd7 7a00 	vldr	s15, [r7]
 8005e62:	eee6 7a87 	vfma.f32	s15, s13, s14
 8005e66:	eb03 0e01 	add.w	lr, r3, r1
 8005e6a:	3040      	adds	r0, #64	; 0x40
 8005e6c:	ed9e 7a00 	vldr	s14, [lr]
 8005e70:	ee77 7a67 	vsub.f32	s15, s14, s15
 8005e74:	f5b0 5f90 	cmp.w	r0, #4608	; 0x1200
 8005e78:	f507 7700 	add.w	r7, r7, #512	; 0x200
 8005e7c:	f101 0104 	add.w	r1, r1, #4
 8005e80:	edce 7a00 	vstr	s15, [lr]
 8005e84:	dbe9      	blt.n	8005e5a <make_sound.constprop.32+0x320e>
 8005e86:	eefe ba00 	vmov.f32	s23, #224	; 0xe0
 8005e8a:	f04f 0b01 	mov.w	fp, #1
 8005e8e:	f7fe b968 	b.w	8004162 <make_sound.constprop.32+0x1516>
 8005e92:	ee3c dacb 	vsub.f32	s26, s25, s22
 8005e96:	2300      	movs	r3, #0
 8005e98:	eecd ba2b 	vdiv.f32	s23, s26, s23
 8005e9c:	f8c4 314c 	str.w	r3, [r4, #332]	; 0x14c
 8005ea0:	eeb6 da00 	vmov.f32	s26, #96	; 0x60
 8005ea4:	eeb0 ca6c 	vmov.f32	s24, s25
 8005ea8:	ee3d da6b 	vsub.f32	s26, s26, s23
 8005eac:	f7fe baa7 	b.w	80043fe <make_sound.constprop.32+0x17b2>
 8005eb0:	100006bc 	.word	0x100006bc
 8005eb4:	08010508 	.word	0x08010508
 8005eb8:	1000004c 	.word	0x1000004c
 8005ebc:	3f7a9fbf 	.word	0x3f7a9fbf
 8005ec0:	3a83126f 	.word	0x3a83126f
 8005ec4:	10000000 	.word	0x10000000
 8005ec8:	40490fdb 	.word	0x40490fdb
 8005ecc:	bf22f983 	.word	0xbf22f983
 8005ed0:	3f7fff58 	.word	0x3f7fff58
 8005ed4:	08019510 	.word	0x08019510
 8005ed8:	42800000 	.word	0x42800000
 8005edc:	ee3c ca67 	vsub.f32	s24, s24, s15
 8005ee0:	ed5f 7a03 	vldr	s15, [pc, #-12]	; 8005ed8 <make_sound.constprop.32+0x328c>
 8005ee4:	4bcd      	ldr	r3, [pc, #820]	; (800621c <make_sound.constprop.32+0x35d0>)
 8005ee6:	9303      	str	r3, [sp, #12]
 8005ee8:	ee7c 6a8c 	vadd.f32	s13, s25, s24
 8005eec:	eeb6 0a00 	vmov.f32	s0, #96	; 0x60
 8005ef0:	ee66 6aa7 	vmul.f32	s13, s13, s15
 8005ef4:	ea4f 0b82 	mov.w	fp, r2, lsl #2
 8005ef8:	eec6 baa9 	vdiv.f32	s23, s13, s19
 8005efc:	9202      	str	r2, [sp, #8]
 8005efe:	f8cd b004 	str.w	fp, [sp, #4]
 8005f02:	4fc7      	ldr	r7, [pc, #796]	; (8006220 <make_sound.constprop.32+0x35d4>)
 8005f04:	ee3b 0ac0 	vsub.f32	s0, s23, s0
 8005f08:	f008 f9d2 	bl	800e2b0 <lrintf>
 8005f0c:	ee07 0a90 	vmov	s15, r0
 8005f10:	eef8 6ae7 	vcvt.f32.s32	s13, s15
 8005f14:	f000 003f 	and.w	r0, r0, #63	; 0x3f
 8005f18:	ee7b 6ae6 	vsub.f32	s13, s23, s13
 8005f1c:	9a02      	ldr	r2, [sp, #8]
 8005f1e:	9b03      	ldr	r3, [sp, #12]
 8005f20:	eb07 01c0 	add.w	r1, r7, r0, lsl #3
 8005f24:	46de      	mov	lr, fp
 8005f26:	ed91 7a01 	vldr	s14, [r1, #4]
 8005f2a:	edd1 7a00 	vldr	s15, [r1]
 8005f2e:	eee6 7a87 	vfma.f32	s15, s13, s14
 8005f32:	eb03 0c0e 	add.w	ip, r3, lr
 8005f36:	3040      	adds	r0, #64	; 0x40
 8005f38:	ed9c 7a00 	vldr	s14, [ip]
 8005f3c:	ee77 7a27 	vadd.f32	s15, s14, s15
 8005f40:	f5b0 5f90 	cmp.w	r0, #4608	; 0x1200
 8005f44:	f501 7100 	add.w	r1, r1, #512	; 0x200
 8005f48:	f10e 0e04 	add.w	lr, lr, #4
 8005f4c:	edcc 7a00 	vstr	s15, [ip]
 8005f50:	dbe9      	blt.n	8005f26 <make_sound.constprop.32+0x32da>
 8005f52:	eeb4 bacc 	vcmpe.f32	s22, s24
 8005f56:	eef1 fa10 	vmrs	APSR_nzcv, fpscr
 8005f5a:	f63e a8f8 	bhi.w	800414e <make_sound.constprop.32+0x1502>
 8005f5e:	ee7c ba4b 	vsub.f32	s23, s24, s22
 8005f62:	eddf 7ab3 	vldr	s15, [pc, #716]	; 8006230 <make_sound.constprop.32+0x35e4>
 8005f66:	9303      	str	r3, [sp, #12]
 8005f68:	ee7c baab 	vadd.f32	s23, s25, s23
 8005f6c:	eeb6 0a00 	vmov.f32	s0, #96	; 0x60
 8005f70:	ee6b baa7 	vmul.f32	s23, s23, s15
 8005f74:	9202      	str	r2, [sp, #8]
 8005f76:	eecb baa9 	vdiv.f32	s23, s23, s19
 8005f7a:	ee3b 0ac0 	vsub.f32	s0, s23, s0
 8005f7e:	f008 f997 	bl	800e2b0 <lrintf>
 8005f82:	ee07 0a90 	vmov	s15, r0
 8005f86:	eef8 7ae7 	vcvt.f32.s32	s15, s15
 8005f8a:	f000 003f 	and.w	r0, r0, #63	; 0x3f
 8005f8e:	ee7b bae7 	vsub.f32	s23, s23, s15
 8005f92:	9a02      	ldr	r2, [sp, #8]
 8005f94:	f8dd e004 	ldr.w	lr, [sp, #4]
 8005f98:	9b03      	ldr	r3, [sp, #12]
 8005f9a:	eb07 01c0 	add.w	r1, r7, r0, lsl #3
 8005f9e:	ed91 7a01 	vldr	s14, [r1, #4]
 8005fa2:	edd1 7a00 	vldr	s15, [r1]
 8005fa6:	eeeb 7a87 	vfma.f32	s15, s23, s14
 8005faa:	eb03 0c0e 	add.w	ip, r3, lr
 8005fae:	3040      	adds	r0, #64	; 0x40
 8005fb0:	ed9c 7a00 	vldr	s14, [ip]
 8005fb4:	ee77 7a67 	vsub.f32	s15, s14, s15
 8005fb8:	f5b0 5f90 	cmp.w	r0, #4608	; 0x1200
 8005fbc:	f501 7100 	add.w	r1, r1, #512	; 0x200
 8005fc0:	f10e 0e04 	add.w	lr, lr, #4
 8005fc4:	edcc 7a00 	vstr	s15, [ip]
 8005fc8:	dbe9      	blt.n	8005f9e <make_sound.constprop.32+0x3352>
 8005fca:	e409      	b.n	80057e0 <make_sound.constprop.32+0x2b94>
 8005fcc:	eddf 6a98 	vldr	s13, [pc, #608]	; 8006230 <make_sound.constprop.32+0x35e4>
 8005fd0:	9b01      	ldr	r3, [sp, #4]
 8005fd2:	f8df a258 	ldr.w	sl, [pc, #600]	; 800622c <make_sound.constprop.32+0x35e0>
 8005fd6:	ee6c 6a26 	vmul.f32	s13, s24, s13
 8005fda:	ea4f 0b83 	mov.w	fp, r3, lsl #2
 8005fde:	eec6 caa9 	vdiv.f32	s25, s13, s19
 8005fe2:	ee3c eace 	vsub.f32	s28, s25, s28
 8005fe6:	f7fe b9d0 	b.w	800438a <make_sound.constprop.32+0x173e>
 8005fea:	ee3c 7acb 	vsub.f32	s14, s25, s22
 8005fee:	eec7 ca8b 	vdiv.f32	s25, s15, s22
 8005ff2:	9b01      	ldr	r3, [sp, #4]
 8005ff4:	4f8b      	ldr	r7, [pc, #556]	; (8006224 <make_sound.constprop.32+0x35d8>)
 8005ff6:	f8df a234 	ldr.w	sl, [pc, #564]	; 800622c <make_sound.constprop.32+0x35e0>
 8005ffa:	ea4f 0b83 	mov.w	fp, r3, lsl #2
 8005ffe:	eec7 7aab 	vdiv.f32	s15, s15, s23
 8006002:	ee87 7a2b 	vdiv.f32	s14, s14, s23
 8006006:	ee7c caa7 	vadd.f32	s25, s25, s15
 800600a:	eeb6 da00 	vmov.f32	s26, #96	; 0x60
 800600e:	ee3d da47 	vsub.f32	s26, s26, s14
 8006012:	ee69 caac 	vmul.f32	s25, s19, s25
 8006016:	eddf da86 	vldr	s27, [pc, #536]	; 8006230 <make_sound.constprop.32+0x35e4>
 800601a:	ee6c da2d 	vmul.f32	s27, s24, s27
 800601e:	eeb6 ea00 	vmov.f32	s28, #96	; 0x60
 8006022:	eecd daa9 	vdiv.f32	s27, s27, s19
 8006026:	ee3d eace 	vsub.f32	s28, s27, s28
 800602a:	eeb0 0a4e 	vmov.f32	s0, s28
 800602e:	f008 f93f 	bl	800e2b0 <lrintf>
 8006032:	ee07 0a90 	vmov	s15, r0
 8006036:	eef8 6ae7 	vcvt.f32.s32	s13, s15
 800603a:	f000 003f 	and.w	r0, r0, #63	; 0x3f
 800603e:	ee7d 6ae6 	vsub.f32	s13, s27, s13
 8006042:	eb07 0780 	add.w	r7, r7, r0, lsl #2
 8006046:	465a      	mov	r2, fp
 8006048:	edd7 7a00 	vldr	s15, [r7]
 800604c:	ed97 7a01 	vldr	s14, [r7, #4]
 8006050:	ee37 7a67 	vsub.f32	s14, s14, s15
 8006054:	eb0a 0302 	add.w	r3, sl, r2
 8006058:	eee6 7a87 	vfma.f32	s15, s13, s14
 800605c:	3040      	adds	r0, #64	; 0x40
 800605e:	f5b0 5f8e 	cmp.w	r0, #4544	; 0x11c0
 8006062:	ed93 7a00 	vldr	s14, [r3]
 8006066:	eeac 7aa7 	vfma.f32	s14, s25, s15
 800606a:	f507 7780 	add.w	r7, r7, #256	; 0x100
 800606e:	f102 0204 	add.w	r2, r2, #4
 8006072:	ed83 7a00 	vstr	s14, [r3]
 8006076:	dbe7      	blt.n	8006048 <make_sound.constprop.32+0x33fc>
 8006078:	eef0 ca6d 	vmov.f32	s25, s27
 800607c:	f7fe b985 	b.w	800438a <make_sound.constprop.32+0x173e>
 8006080:	2200      	movs	r2, #0
 8006082:	eeb0 ca6c 	vmov.f32	s24, s25
 8006086:	469b      	mov	fp, r3
 8006088:	f8c4 214c 	str.w	r2, [r4, #332]	; 0x14c
 800608c:	f7fe b9b7 	b.w	80043fe <make_sound.constprop.32+0x17b2>
 8006090:	2100      	movs	r1, #0
 8006092:	eef0 ca4c 	vmov.f32	s25, s24
 8006096:	469b      	mov	fp, r3
 8006098:	f8ca 1018 	str.w	r1, [sl, #24]
 800609c:	f7fe b863 	b.w	8004166 <make_sound.constprop.32+0x151a>
 80060a0:	2300      	movs	r3, #0
 80060a2:	eef0 ca4c 	vmov.f32	s25, s24
 80060a6:	f8ca 3018 	str.w	r3, [sl, #24]
 80060aa:	f7fe b85c 	b.w	8004166 <make_sound.constprop.32+0x151a>
 80060ae:	eeb0 7a46 	vmov.f32	s14, s12
 80060b2:	eeb0 5a67 	vmov.f32	s10, s15
 80060b6:	eef0 6a67 	vmov.f32	s13, s15
 80060ba:	f7fe bf6a 	b.w	8004f92 <make_sound.constprop.32+0x2346>
 80060be:	eef0 6a45 	vmov.f32	s13, s10
 80060c2:	eddf 7a59 	vldr	s15, [pc, #356]	; 8006228 <make_sound.constprop.32+0x35dc>
 80060c6:	f7fe bf64 	b.w	8004f92 <make_sound.constprop.32+0x2346>
 80060ca:	edd4 8a45 	vldr	s17, [r4, #276]	; 0x114
 80060ce:	eef6 6a00 	vmov.f32	s13, #96	; 0x60
 80060d2:	ee68 8aa6 	vmul.f32	s17, s17, s13
 80060d6:	ee68 8a87 	vmul.f32	s17, s17, s14
 80060da:	ee27 9a28 	vmul.f32	s18, s14, s17
 80060de:	f7fd bcc8 	b.w	8003a72 <make_sound.constprop.32+0xe26>
 80060e2:	eeb0 7a67 	vmov.f32	s14, s15
 80060e6:	f7fc bf37 	b.w	8002f58 <make_sound.constprop.32+0x30c>
 80060ea:	ee7c ba4b 	vsub.f32	s23, s24, s22
 80060ee:	eddf 7a50 	vldr	s15, [pc, #320]	; 8006230 <make_sound.constprop.32+0x35e4>
 80060f2:	4b4a      	ldr	r3, [pc, #296]	; (800621c <make_sound.constprop.32+0x35d0>)
 80060f4:	9302      	str	r3, [sp, #8]
 80060f6:	ee7c baab 	vadd.f32	s23, s25, s23
 80060fa:	eeb6 0a00 	vmov.f32	s0, #96	; 0x60
 80060fe:	ee6b baa7 	vmul.f32	s23, s23, s15
 8006102:	ea4f 0b82 	mov.w	fp, r2, lsl #2
 8006106:	eecb baa9 	vdiv.f32	s23, s23, s19
 800610a:	9201      	str	r2, [sp, #4]
 800610c:	4f44      	ldr	r7, [pc, #272]	; (8006220 <make_sound.constprop.32+0x35d4>)
 800610e:	ee3b 0ac0 	vsub.f32	s0, s23, s0
 8006112:	f008 f8cd 	bl	800e2b0 <lrintf>
 8006116:	ee07 0a90 	vmov	s15, r0
 800611a:	eef8 7ae7 	vcvt.f32.s32	s15, s15
 800611e:	f000 003f 	and.w	r0, r0, #63	; 0x3f
 8006122:	ee7b bae7 	vsub.f32	s23, s23, s15
 8006126:	9a01      	ldr	r2, [sp, #4]
 8006128:	9b02      	ldr	r3, [sp, #8]
 800612a:	eb07 01c0 	add.w	r1, r7, r0, lsl #3
 800612e:	46de      	mov	lr, fp
 8006130:	ed91 7a01 	vldr	s14, [r1, #4]
 8006134:	edd1 7a00 	vldr	s15, [r1]
 8006138:	eeeb 7a87 	vfma.f32	s15, s23, s14
 800613c:	eb03 0c0e 	add.w	ip, r3, lr
 8006140:	3040      	adds	r0, #64	; 0x40
 8006142:	ed9c 7a00 	vldr	s14, [ip]
 8006146:	ee77 7a67 	vsub.f32	s15, s14, s15
 800614a:	f5b0 5f90 	cmp.w	r0, #4608	; 0x1200
 800614e:	f501 7100 	add.w	r1, r1, #512	; 0x200
 8006152:	f10e 0e04 	add.w	lr, lr, #4
 8006156:	edcc 7a00 	vstr	s15, [ip]
 800615a:	dbe9      	blt.n	8006130 <make_sound.constprop.32+0x34e4>
 800615c:	eef7 7a00 	vmov.f32	s15, #112	; 0x70
 8006160:	eeb4 cae7 	vcmpe.f32	s24, s15
 8006164:	eef1 fa10 	vmrs	APSR_nzcv, fpscr
 8006168:	f6bd afbb 	bge.w	80040e2 <make_sound.constprop.32+0x1496>
 800616c:	f7ff bb38 	b.w	80057e0 <make_sound.constprop.32+0x2b94>
 8006170:	ee3c 7acb 	vsub.f32	s14, s25, s22
 8006174:	eddf 6a2e 	vldr	s13, [pc, #184]	; 8006230 <make_sound.constprop.32+0x35e4>
 8006178:	9b01      	ldr	r3, [sp, #4]
 800617a:	4f2a      	ldr	r7, [pc, #168]	; (8006224 <make_sound.constprop.32+0x35d8>)
 800617c:	f8df a0ac 	ldr.w	sl, [pc, #172]	; 800622c <make_sound.constprop.32+0x35e0>
 8006180:	ee7c ea07 	vadd.f32	s29, s24, s14
 8006184:	eebf 6a00 	vmov.f32	s12, #240	; 0xf0
 8006188:	ee6e eaa6 	vmul.f32	s29, s29, s13
 800618c:	eec7 7a8b 	vdiv.f32	s15, s15, s22
 8006190:	ea4f 0b83 	mov.w	fp, r3, lsl #2
 8006194:	eece eaa9 	vdiv.f32	s29, s29, s19
 8006198:	eec6 6a2b 	vdiv.f32	s13, s12, s23
 800619c:	ee87 7a2b 	vdiv.f32	s14, s14, s23
 80061a0:	ee3e 0ace 	vsub.f32	s0, s29, s28
 80061a4:	ee76 dae7 	vsub.f32	s27, s13, s15
 80061a8:	ee3e da47 	vsub.f32	s26, s28, s14
 80061ac:	f008 f880 	bl	800e2b0 <lrintf>
 80061b0:	ee07 0a90 	vmov	s15, r0
 80061b4:	eef8 7ae7 	vcvt.f32.s32	s15, s15
 80061b8:	f000 003f 	and.w	r0, r0, #63	; 0x3f
 80061bc:	ee69 daad 	vmul.f32	s27, s19, s27
 80061c0:	ee7e eae7 	vsub.f32	s29, s29, s15
 80061c4:	eb07 0280 	add.w	r2, r7, r0, lsl #2
 80061c8:	4659      	mov	r1, fp
 80061ca:	edd2 7a00 	vldr	s15, [r2]
 80061ce:	ed92 7a01 	vldr	s14, [r2, #4]
 80061d2:	ee37 7a67 	vsub.f32	s14, s14, s15
 80061d6:	eb0a 0301 	add.w	r3, sl, r1
 80061da:	eeee 7a87 	vfma.f32	s15, s29, s14
 80061de:	3040      	adds	r0, #64	; 0x40
 80061e0:	f5b0 5f8e 	cmp.w	r0, #4544	; 0x11c0
 80061e4:	ed93 7a00 	vldr	s14, [r3]
 80061e8:	eead 7aa7 	vfma.f32	s14, s27, s15
 80061ec:	f502 7280 	add.w	r2, r2, #256	; 0x100
 80061f0:	f101 0104 	add.w	r1, r1, #4
 80061f4:	ed83 7a00 	vstr	s14, [r3]
 80061f8:	dbe7      	blt.n	80061ca <make_sound.constprop.32+0x357e>
 80061fa:	eef7 7a00 	vmov.f32	s15, #112	; 0x70
 80061fe:	eef4 cae7 	vcmpe.f32	s25, s15
 8006202:	eef1 fa10 	vmrs	APSR_nzcv, fpscr
 8006206:	f6be a875 	bge.w	80042f4 <make_sound.constprop.32+0x16a8>
 800620a:	eec7 ca8b 	vdiv.f32	s25, s15, s22
 800620e:	eec7 7aab 	vdiv.f32	s15, s15, s23
 8006212:	ee7c caa7 	vadd.f32	s25, s25, s15
 8006216:	ee69 caac 	vmul.f32	s25, s19, s25
 800621a:	e6fc      	b.n	8006016 <make_sound.constprop.32+0x33ca>
 800621c:	100006bc 	.word	0x100006bc
 8006220:	08010508 	.word	0x08010508
 8006224:	08019510 	.word	0x08019510
 8006228:	3f7fff58 	.word	0x3f7fff58
 800622c:	10000160 	.word	0x10000160
 8006230:	42800000 	.word	0x42800000
 8006234:	ee3c 7acb 	vsub.f32	s14, s25, s22
 8006238:	ed1f ca03 	vldr	s24, [pc, #-12]	; 8006230 <make_sound.constprop.32+0x35e4>
 800623c:	4f91      	ldr	r7, [pc, #580]	; (8006484 <make_sound.constprop.32+0x3838>)
 800623e:	f8df a258 	ldr.w	sl, [pc, #600]	; 8006498 <make_sound.constprop.32+0x384c>
 8006242:	ee27 ca0c 	vmul.f32	s24, s14, s24
 8006246:	eebf 9a00 	vmov.f32	s18, #240	; 0xf0
 800624a:	ee8c ca29 	vdiv.f32	s24, s24, s19
 800624e:	eec7 7a8b 	vdiv.f32	s15, s15, s22
 8006252:	ee87 7a2b 	vdiv.f32	s14, s14, s23
 8006256:	ee89 9a2b 	vdiv.f32	s18, s18, s23
 800625a:	ee3c 0a66 	vsub.f32	s0, s24, s13
 800625e:	ee39 9a67 	vsub.f32	s18, s18, s15
 8006262:	ee36 dac7 	vsub.f32	s26, s13, s14
 8006266:	f008 f823 	bl	800e2b0 <lrintf>
 800626a:	ee07 0a90 	vmov	s15, r0
 800626e:	eeb8 7ae7 	vcvt.f32.s32	s14, s15
 8006272:	9b01      	ldr	r3, [sp, #4]
 8006274:	f000 003f 	and.w	r0, r0, #63	; 0x3f
 8006278:	ee69 7a89 	vmul.f32	s15, s19, s18
 800627c:	ee3c ca47 	vsub.f32	s24, s24, s14
 8006280:	eb07 0780 	add.w	r7, r7, r0, lsl #2
 8006284:	009a      	lsls	r2, r3, #2
 8006286:	ed97 7a00 	vldr	s14, [r7]
 800628a:	edd7 6a01 	vldr	s13, [r7, #4]
 800628e:	ee76 6ac7 	vsub.f32	s13, s13, s14
 8006292:	eb0a 0302 	add.w	r3, sl, r2
 8006296:	eeac 7a26 	vfma.f32	s14, s24, s13
 800629a:	3040      	adds	r0, #64	; 0x40
 800629c:	f5b0 5f8e 	cmp.w	r0, #4544	; 0x11c0
 80062a0:	edd3 6a00 	vldr	s13, [r3]
 80062a4:	eee7 6a87 	vfma.f32	s13, s15, s14
 80062a8:	f507 7780 	add.w	r7, r7, #256	; 0x100
 80062ac:	f102 0204 	add.w	r2, r2, #4
 80062b0:	edc3 6a00 	vstr	s13, [r3]
 80062b4:	dbe7      	blt.n	8006286 <make_sound.constprop.32+0x363a>
 80062b6:	2301      	movs	r3, #1
 80062b8:	f7ff b93c 	b.w	8005534 <make_sound.constprop.32+0x28e8>
 80062bc:	eddf 7a72 	vldr	s15, [pc, #456]	; 8006488 <make_sound.constprop.32+0x383c>
 80062c0:	4b72      	ldr	r3, [pc, #456]	; (800648c <make_sound.constprop.32+0x3840>)
 80062c2:	9202      	str	r2, [sp, #8]
 80062c4:	ee3c 9a4b 	vsub.f32	s18, s24, s22
 80062c8:	eeb6 0a00 	vmov.f32	s0, #96	; 0x60
 80062cc:	ee29 9a27 	vmul.f32	s18, s18, s15
 80062d0:	9301      	str	r3, [sp, #4]
 80062d2:	ee89 9a29 	vdiv.f32	s18, s18, s19
 80062d6:	4f6e      	ldr	r7, [pc, #440]	; (8006490 <make_sound.constprop.32+0x3844>)
 80062d8:	ee39 0a40 	vsub.f32	s0, s18, s0
 80062dc:	f007 ffe8 	bl	800e2b0 <lrintf>
 80062e0:	ee07 0a90 	vmov	s15, r0
 80062e4:	eef8 7ae7 	vcvt.f32.s32	s15, s15
 80062e8:	9a02      	ldr	r2, [sp, #8]
 80062ea:	9b01      	ldr	r3, [sp, #4]
 80062ec:	f000 003f 	and.w	r0, r0, #63	; 0x3f
 80062f0:	ee39 9a67 	vsub.f32	s18, s18, s15
 80062f4:	eb07 07c0 	add.w	r7, r7, r0, lsl #3
 80062f8:	0091      	lsls	r1, r2, #2
 80062fa:	ed97 7a01 	vldr	s14, [r7, #4]
 80062fe:	edd7 7a00 	vldr	s15, [r7]
 8006302:	eee9 7a07 	vfma.f32	s15, s18, s14
 8006306:	eb03 0e01 	add.w	lr, r3, r1
 800630a:	3040      	adds	r0, #64	; 0x40
 800630c:	ed9e 7a00 	vldr	s14, [lr]
 8006310:	ee77 7a67 	vsub.f32	s15, s14, s15
 8006314:	f5b0 5f90 	cmp.w	r0, #4608	; 0x1200
 8006318:	f507 7700 	add.w	r7, r7, #512	; 0x200
 800631c:	f101 0104 	add.w	r1, r1, #4
 8006320:	edce 7a00 	vstr	s15, [lr]
 8006324:	dbe9      	blt.n	80062fa <make_sound.constprop.32+0x36ae>
 8006326:	eefe ba00 	vmov.f32	s23, #224	; 0xe0
 800632a:	2301      	movs	r3, #1
 800632c:	f7ff b8a8 	b.w	8005480 <make_sound.constprop.32+0x2834>
 8006330:	ee3c 7a4b 	vsub.f32	s14, s24, s22
 8006334:	eddf ca54 	vldr	s25, [pc, #336]	; 8006488 <make_sound.constprop.32+0x383c>
 8006338:	ee67 ca2c 	vmul.f32	s25, s14, s25
 800633c:	ee87 7a2b 	vdiv.f32	s14, s14, s23
 8006340:	eecc caa9 	vdiv.f32	s25, s25, s19
 8006344:	eeff 7a00 	vmov.f32	s15, #240	; 0xf0
 8006348:	eec7 baab 	vdiv.f32	s23, s15, s23
 800634c:	eeb6 da00 	vmov.f32	s26, #96	; 0x60
 8006350:	ee3c 0acd 	vsub.f32	s0, s25, s26
 8006354:	ee3d da47 	vsub.f32	s26, s26, s14
 8006358:	f007 ffaa 	bl	800e2b0 <lrintf>
 800635c:	ee07 0a90 	vmov	s15, r0
 8006360:	ee3b 9ac9 	vsub.f32	s18, s23, s18
 8006364:	eef8 7ae7 	vcvt.f32.s32	s15, s15
 8006368:	f000 003f 	and.w	r0, r0, #63	; 0x3f
 800636c:	ee29 9a89 	vmul.f32	s18, s19, s18
 8006370:	ee7c cae7 	vsub.f32	s25, s25, s15
 8006374:	eb07 0780 	add.w	r7, r7, r0, lsl #2
 8006378:	edd7 7a00 	vldr	s15, [r7]
 800637c:	ed97 7a01 	vldr	s14, [r7, #4]
 8006380:	ee37 7a67 	vsub.f32	s14, s14, s15
 8006384:	eb0a 030b 	add.w	r3, sl, fp
 8006388:	eeec 7a87 	vfma.f32	s15, s25, s14
 800638c:	3040      	adds	r0, #64	; 0x40
 800638e:	f5b0 5f8e 	cmp.w	r0, #4544	; 0x11c0
 8006392:	ed93 7a00 	vldr	s14, [r3]
 8006396:	eea9 7a27 	vfma.f32	s14, s18, s15
 800639a:	f507 7780 	add.w	r7, r7, #256	; 0x100
 800639e:	f10b 0b04 	add.w	fp, fp, #4
 80063a2:	ed83 7a00 	vstr	s14, [r3]
 80063a6:	dbe7      	blt.n	8006378 <make_sound.constprop.32+0x372c>
 80063a8:	f04f 0b01 	mov.w	fp, #1
 80063ac:	f7fe b827 	b.w	80043fe <make_sound.constprop.32+0x17b2>
 80063b0:	eddf 7a35 	vldr	s15, [pc, #212]	; 8006488 <make_sound.constprop.32+0x383c>
 80063b4:	9302      	str	r3, [sp, #8]
 80063b6:	ee3c 9acb 	vsub.f32	s18, s25, s22
 80063ba:	eeb6 0a00 	vmov.f32	s0, #96	; 0x60
 80063be:	ee29 9a27 	vmul.f32	s18, s18, s15
 80063c2:	9201      	str	r2, [sp, #4]
 80063c4:	ee89 9a29 	vdiv.f32	s18, s18, s19
 80063c8:	ee39 0a40 	vsub.f32	s0, s18, s0
 80063cc:	f007 ff70 	bl	800e2b0 <lrintf>
 80063d0:	ee07 0a90 	vmov	s15, r0
 80063d4:	eef8 7ae7 	vcvt.f32.s32	s15, s15
 80063d8:	f000 003f 	and.w	r0, r0, #63	; 0x3f
 80063dc:	ee39 9a67 	vsub.f32	s18, s18, s15
 80063e0:	9a01      	ldr	r2, [sp, #4]
 80063e2:	9b02      	ldr	r3, [sp, #8]
 80063e4:	eb07 07c0 	add.w	r7, r7, r0, lsl #3
 80063e8:	ed97 7a01 	vldr	s14, [r7, #4]
 80063ec:	edd7 7a00 	vldr	s15, [r7]
 80063f0:	eee9 7a07 	vfma.f32	s15, s18, s14
 80063f4:	eb03 010b 	add.w	r1, r3, fp
 80063f8:	3040      	adds	r0, #64	; 0x40
 80063fa:	ed91 7a00 	vldr	s14, [r1]
 80063fe:	ee77 7a67 	vsub.f32	s15, s14, s15
 8006402:	f5b0 5f90 	cmp.w	r0, #4608	; 0x1200
 8006406:	f507 7700 	add.w	r7, r7, #512	; 0x200
 800640a:	f10b 0b04 	add.w	fp, fp, #4
 800640e:	edc1 7a00 	vstr	s15, [r1]
 8006412:	dbe9      	blt.n	80063e8 <make_sound.constprop.32+0x379c>
 8006414:	eefe ba00 	vmov.f32	s23, #224	; 0xe0
 8006418:	f04f 0b01 	mov.w	fp, #1
 800641c:	f7fd bea3 	b.w	8004166 <make_sound.constprop.32+0x151a>
 8006420:	ed9f 9a1c 	vldr	s18, [pc, #112]	; 8006494 <make_sound.constprop.32+0x3848>
 8006424:	f7fd ba2a 	b.w	800387c <make_sound.constprop.32+0xc30>
 8006428:	edd3 6a51 	vldr	s13, [r3, #324]	; 0x144
 800642c:	eef7 7a00 	vmov.f32	s15, #112	; 0x70
 8006430:	ee76 6aa7 	vadd.f32	s13, s13, s15
 8006434:	eef0 5a69 	vmov.f32	s11, s19
 8006438:	ee26 7a87 	vmul.f32	s14, s13, s14
 800643c:	ee77 7ae9 	vsub.f32	s15, s15, s19
 8006440:	eef4 9ac7 	vcmpe.f32	s19, s14
 8006444:	eef1 fa10 	vmrs	APSR_nzcv, fpscr
 8006448:	bfd4      	ite	le
 800644a:	eeb0 ba47 	vmovle.f32	s22, s14
 800644e:	eeb0 ba69 	vmovgt.f32	s22, s19
 8006452:	f7fe bd5f 	b.w	8004f14 <make_sound.constprop.32+0x22c8>
 8006456:	ed9a 7a04 	vldr	s14, [sl, #16]
 800645a:	eef7 6a00 	vmov.f32	s13, #112	; 0x70
 800645e:	ee37 7a26 	vadd.f32	s14, s14, s13
 8006462:	eeb0 5a69 	vmov.f32	s10, s19
 8006466:	ee27 7a27 	vmul.f32	s14, s14, s15
 800646a:	ee76 6ae9 	vsub.f32	s13, s13, s19
 800646e:	eef4 9ac7 	vcmpe.f32	s19, s14
 8006472:	eef1 fa10 	vmrs	APSR_nzcv, fpscr
 8006476:	bfd4      	ite	le
 8006478:	eeb0 6a47 	vmovle.f32	s12, s14
 800647c:	eeb0 6a69 	vmovgt.f32	s12, s19
 8006480:	f7fe bd7e 	b.w	8004f80 <make_sound.constprop.32+0x2334>
 8006484:	08019510 	.word	0x08019510
 8006488:	42800000 	.word	0x42800000
 800648c:	100006bc 	.word	0x100006bc
 8006490:	08010508 	.word	0x08010508
 8006494:	00000000 	.word	0x00000000
 8006498:	10000160 	.word	0x10000160

0800649c <USBH_MIDI_Process.lto_priv.167>:
USBH_MIDI_Process.lto_priv.167():
 800649c:	e92d 4ff0 	stmdb	sp!, {r4, r5, r6, r7, r8, r9, sl, fp, lr}
 80064a0:	f8d0 25c4 	ldr.w	r2, [r0, #1476]	; 0x5c4
 80064a4:	69d5      	ldr	r5, [r2, #28]
 80064a6:	ed2d 8b04 	vpush	{d8-d9}
 80064aa:	782b      	ldrb	r3, [r5, #0]
 80064ac:	2b01      	cmp	r3, #1
 80064ae:	b083      	sub	sp, #12
 80064b0:	4604      	mov	r4, r0
 80064b2:	d024      	beq.n	80064fe <USBH_MIDI_Process.lto_priv.167+0x62>
 80064b4:	d31d      	bcc.n	80064f2 <USBH_MIDI_Process.lto_priv.167+0x56>
 80064b6:	2b02      	cmp	r3, #2
 80064b8:	d005      	beq.n	80064c6 <USBH_MIDI_Process.lto_priv.167+0x2a>
 80064ba:	2001      	movs	r0, #1
 80064bc:	b003      	add	sp, #12
 80064be:	ecbd 8b04 	vpop	{d8-d9}
 80064c2:	e8bd 8ff0 	ldmia.w	sp!, {r4, r5, r6, r7, r8, r9, sl, fp, pc}
 80064c6:	7882      	ldrb	r2, [r0, #2]
 80064c8:	2a01      	cmp	r2, #1
 80064ca:	d05e      	beq.n	800658a <USBH_MIDI_Process.lto_priv.167+0xee>
 80064cc:	2a02      	cmp	r2, #2
 80064ce:	d1f4      	bne.n	80064ba <USBH_MIDI_Process.lto_priv.167+0x1e>
 80064d0:	7e03      	ldrb	r3, [r0, #24]
 80064d2:	3b01      	subs	r3, #1
 80064d4:	2b0a      	cmp	r3, #10
 80064d6:	d8f0      	bhi.n	80064ba <USBH_MIDI_Process.lto_priv.167+0x1e>
 80064d8:	e8df f013 	tbh	[pc, r3, lsl #1]
 80064dc:	01b0022b 	.word	0x01b0022b
 80064e0:	02540263 	.word	0x02540263
 80064e4:	01ca01e6 	.word	0x01ca01e6
 80064e8:	012d013e 	.word	0x012d013e
 80064ec:	01190166 	.word	0x01190166
 80064f0:	01a0      	.short	0x01a0
 80064f2:	2000      	movs	r0, #0
 80064f4:	b003      	add	sp, #12
 80064f6:	ecbd 8b04 	vpop	{d8-d9}
 80064fa:	e8bd 8ff0 	ldmia.w	sp!, {r4, r5, r6, r7, r8, r9, sl, fp, pc}
 80064fe:	7e29      	ldrb	r1, [r5, #24]
 8006500:	2901      	cmp	r1, #1
 8006502:	d04d      	beq.n	80065a0 <USBH_MIDI_Process.lto_priv.167+0x104>
 8006504:	2902      	cmp	r1, #2
 8006506:	d10e      	bne.n	8006526 <USBH_MIDI_Process.lto_priv.167+0x8a>
 8006508:	78a9      	ldrb	r1, [r5, #2]
 800650a:	f8d0 0610 	ldr.w	r0, [r0, #1552]	; 0x610
 800650e:	eb01 0181 	add.w	r1, r1, r1, lsl #2
 8006512:	eb00 01c1 	add.w	r1, r0, r1, lsl #3
 8006516:	f891 1054 	ldrb.w	r1, [r1, #84]	; 0x54
 800651a:	2901      	cmp	r1, #1
 800651c:	f000 826c 	beq.w	80069f8 <USBH_MIDI_Process.lto_priv.167+0x55c>
 8006520:	2902      	cmp	r1, #2
 8006522:	f000 80f1 	beq.w	8006708 <USBH_MIDI_Process.lto_priv.167+0x26c>
 8006526:	462e      	mov	r6, r5
 8006528:	7e73      	ldrb	r3, [r6, #25]
 800652a:	2b03      	cmp	r3, #3
 800652c:	f000 8085 	beq.w	800663a <USBH_MIDI_Process.lto_priv.167+0x19e>
 8006530:	2b04      	cmp	r3, #4
 8006532:	d1c2      	bne.n	80064ba <USBH_MIDI_Process.lto_priv.167+0x1e>
 8006534:	7873      	ldrb	r3, [r6, #1]
 8006536:	f8d4 2610 	ldr.w	r2, [r4, #1552]	; 0x610
 800653a:	eb03 0383 	add.w	r3, r3, r3, lsl #2
 800653e:	eb02 03c3 	add.w	r3, r2, r3, lsl #3
 8006542:	f893 0054 	ldrb.w	r0, [r3, #84]	; 0x54
 8006546:	2801      	cmp	r0, #1
 8006548:	d1b7      	bne.n	80064ba <USBH_MIDI_Process.lto_priv.167+0x1e>
 800654a:	f8b3 2044 	ldrh.w	r2, [r3, #68]	; 0x44
 800654e:	8af3      	ldrh	r3, [r6, #22]
 8006550:	1a9b      	subs	r3, r3, r2
 8006552:	2b00      	cmp	r3, #0
 8006554:	dd03      	ble.n	800655e <USBH_MIDI_Process.lto_priv.167+0xc2>
 8006556:	8931      	ldrh	r1, [r6, #8]
 8006558:	4291      	cmp	r1, r2
 800655a:	f0c0 8269 	bcc.w	8006a30 <USBH_MIDI_Process.lto_priv.167+0x594>
 800655e:	4fd0      	ldr	r7, [pc, #832]	; (80068a0 <USBH_MIDI_Process.lto_priv.167+0x404>)
 8006560:	783a      	ldrb	r2, [r7, #0]
 8006562:	f8d7 35c4 	ldr.w	r3, [r7, #1476]	; 0x5c4
 8006566:	2100      	movs	r1, #0
 8006568:	2a0a      	cmp	r2, #10
 800656a:	69db      	ldr	r3, [r3, #28]
 800656c:	7671      	strb	r1, [r6, #25]
 800656e:	f000 827c 	beq.w	8006a6a <USBH_MIDI_Process.lto_priv.167+0x5ce>
 8006572:	781a      	ldrb	r2, [r3, #0]
 8006574:	2a01      	cmp	r2, #1
 8006576:	d8a0      	bhi.n	80064ba <USBH_MIDI_Process.lto_priv.167+0x1e>
 8006578:	4aca      	ldr	r2, [pc, #808]	; (80068a4 <USBH_MIDI_Process.lto_priv.167+0x408>)
 800657a:	611a      	str	r2, [r3, #16]
 800657c:	2140      	movs	r1, #64	; 0x40
 800657e:	2001      	movs	r0, #1
 8006580:	2203      	movs	r2, #3
 8006582:	82d9      	strh	r1, [r3, #22]
 8006584:	7018      	strb	r0, [r3, #0]
 8006586:	765a      	strb	r2, [r3, #25]
 8006588:	e798      	b.n	80064bc <USBH_MIDI_Process.lto_priv.167+0x20>
 800658a:	2100      	movs	r1, #0
 800658c:	7403      	strb	r3, [r0, #16]
 800658e:	7442      	strb	r2, [r0, #17]
 8006590:	7602      	strb	r2, [r0, #24]
 8006592:	7083      	strb	r3, [r0, #2]
 8006594:	8241      	strh	r1, [r0, #18]
 8006596:	8281      	strh	r1, [r0, #20]
 8006598:	82c1      	strh	r1, [r0, #22]
 800659a:	6081      	str	r1, [r0, #8]
 800659c:	8181      	strh	r1, [r0, #12]
 800659e:	e78c      	b.n	80064ba <USBH_MIDI_Process.lto_priv.167+0x1e>
 80065a0:	8aae      	ldrh	r6, [r5, #20]
 80065a2:	88ef      	ldrh	r7, [r5, #6]
 80065a4:	78a8      	ldrb	r0, [r5, #2]
 80065a6:	f8d4 2610 	ldr.w	r2, [r4, #1552]	; 0x610
 80065aa:	42be      	cmp	r6, r7
 80065ac:	d879      	bhi.n	80066a2 <USBH_MIDI_Process.lto_priv.167+0x206>
 80065ae:	0083      	lsls	r3, r0, #2
 80065b0:	1819      	adds	r1, r3, r0
 80065b2:	eb02 01c1 	add.w	r1, r2, r1, lsl #3
 80065b6:	f101 0c30 	add.w	ip, r1, #48	; 0x30
 80065ba:	f891 9049 	ldrb.w	r9, [r1, #73]	; 0x49
 80065be:	68ef      	ldr	r7, [r5, #12]
 80065c0:	f894 e21d 	ldrb.w	lr, [r4, #541]	; 0x21d
 80065c4:	f101 0838 	add.w	r8, r1, #56	; 0x38
 80065c8:	f04f 0a00 	mov.w	sl, #0
 80065cc:	2102      	movs	r1, #2
 80065ce:	f88c a003 	strb.w	sl, [ip, #3]
 80065d2:	f88c 1007 	strb.w	r1, [ip, #7]
 80065d6:	f888 1002 	strb.w	r1, [r8, #2]
 80065da:	f1b9 0f00 	cmp.w	r9, #0
 80065de:	d101      	bne.n	80065e4 <USBH_MIDI_Process.lto_priv.167+0x148>
 80065e0:	f888 9002 	strb.w	r9, [r8, #2]
 80065e4:	1819      	adds	r1, r3, r0
 80065e6:	eb02 01c1 	add.w	r1, r2, r1, lsl #3
 80065ea:	f891 c054 	ldrb.w	ip, [r1, #84]	; 0x54
 80065ee:	f1bc 0f02 	cmp.w	ip, #2
 80065f2:	d005      	beq.n	8006600 <USBH_MIDI_Process.lto_priv.167+0x164>
 80065f4:	fabe fe8e 	clz	lr, lr
 80065f8:	ea4f 1e5e 	mov.w	lr, lr, lsr #5
 80065fc:	f881 e035 	strb.w	lr, [r1, #53]	; 0x35
 8006600:	4403      	add	r3, r0
 8006602:	00db      	lsls	r3, r3, #3
 8006604:	18d1      	adds	r1, r2, r3
 8006606:	f101 0c50 	add.w	ip, r1, #80	; 0x50
 800660a:	f04f 0e00 	mov.w	lr, #0
 800660e:	63cf      	str	r7, [r1, #60]	; 0x3c
 8006610:	640e      	str	r6, [r1, #64]	; 0x40
 8006612:	f881 0031 	strb.w	r0, [r1, #49]	; 0x31
 8006616:	f8c1 e044 	str.w	lr, [r1, #68]	; 0x44
 800661a:	3330      	adds	r3, #48	; 0x30
 800661c:	f881 e054 	strb.w	lr, [r1, #84]	; 0x54
 8006620:	6810      	ldr	r0, [r2, #0]
 8006622:	f88c e005 	strb.w	lr, [ip, #5]
 8006626:	18d1      	adds	r1, r2, r3
 8006628:	7c12      	ldrb	r2, [r2, #16]
 800662a:	f005 fe8d 	bl	800c348 <USB_HC_StartXfer>
 800662e:	f8d4 25c4 	ldr.w	r2, [r4, #1476]	; 0x5c4
 8006632:	2302      	movs	r3, #2
 8006634:	69d6      	ldr	r6, [r2, #28]
 8006636:	762b      	strb	r3, [r5, #24]
 8006638:	e776      	b.n	8006528 <USBH_MIDI_Process.lto_priv.167+0x8c>
 800663a:	7870      	ldrb	r0, [r6, #1]
 800663c:	f8d4 3610 	ldr.w	r3, [r4, #1552]	; 0x610
 8006640:	f8d6 e010 	ldr.w	lr, [r6, #16]
 8006644:	8937      	ldrh	r7, [r6, #8]
 8006646:	0081      	lsls	r1, r0, #2
 8006648:	180a      	adds	r2, r1, r0
 800664a:	eb03 02c2 	add.w	r2, r3, r2, lsl #3
 800664e:	f102 0430 	add.w	r4, r2, #48	; 0x30
 8006652:	f892 c048 	ldrb.w	ip, [r2, #72]	; 0x48
 8006656:	f102 0538 	add.w	r5, r2, #56	; 0x38
 800665a:	f04f 0801 	mov.w	r8, #1
 800665e:	2202      	movs	r2, #2
 8006660:	f884 8003 	strb.w	r8, [r4, #3]
 8006664:	71e2      	strb	r2, [r4, #7]
 8006666:	70aa      	strb	r2, [r5, #2]
 8006668:	f1bc 0f00 	cmp.w	ip, #0
 800666c:	d101      	bne.n	8006672 <USBH_MIDI_Process.lto_priv.167+0x1d6>
 800666e:	f885 c002 	strb.w	ip, [r5, #2]
 8006672:	4401      	add	r1, r0
 8006674:	00c9      	lsls	r1, r1, #3
 8006676:	185a      	adds	r2, r3, r1
 8006678:	2400      	movs	r4, #0
 800667a:	f882 0031 	strb.w	r0, [r2, #49]	; 0x31
 800667e:	3130      	adds	r1, #48	; 0x30
 8006680:	f8c2 e03c 	str.w	lr, [r2, #60]	; 0x3c
 8006684:	6417      	str	r7, [r2, #64]	; 0x40
 8006686:	f882 4054 	strb.w	r4, [r2, #84]	; 0x54
 800668a:	6454      	str	r4, [r2, #68]	; 0x44
 800668c:	4419      	add	r1, r3
 800668e:	f882 4055 	strb.w	r4, [r2, #85]	; 0x55
 8006692:	6818      	ldr	r0, [r3, #0]
 8006694:	7c1a      	ldrb	r2, [r3, #16]
 8006696:	f005 fe57 	bl	800c348 <USB_HC_StartXfer>
 800669a:	2304      	movs	r3, #4
 800669c:	7673      	strb	r3, [r6, #25]
 800669e:	2001      	movs	r0, #1
 80066a0:	e70c      	b.n	80064bc <USBH_MIDI_Process.lto_priv.167+0x20>
 80066a2:	0083      	lsls	r3, r0, #2
 80066a4:	1819      	adds	r1, r3, r0
 80066a6:	eb02 01c1 	add.w	r1, r2, r1, lsl #3
 80066aa:	f101 0c30 	add.w	ip, r1, #48	; 0x30
 80066ae:	f891 9049 	ldrb.w	r9, [r1, #73]	; 0x49
 80066b2:	68ee      	ldr	r6, [r5, #12]
 80066b4:	f894 e21d 	ldrb.w	lr, [r4, #541]	; 0x21d
 80066b8:	f101 0838 	add.w	r8, r1, #56	; 0x38
 80066bc:	f04f 0a00 	mov.w	sl, #0
 80066c0:	2102      	movs	r1, #2
 80066c2:	f88c a003 	strb.w	sl, [ip, #3]
 80066c6:	f88c 1007 	strb.w	r1, [ip, #7]
 80066ca:	f888 1002 	strb.w	r1, [r8, #2]
 80066ce:	f1b9 0f00 	cmp.w	r9, #0
 80066d2:	d101      	bne.n	80066d8 <USBH_MIDI_Process.lto_priv.167+0x23c>
 80066d4:	f888 9002 	strb.w	r9, [r8, #2]
 80066d8:	1819      	adds	r1, r3, r0
 80066da:	eb02 01c1 	add.w	r1, r2, r1, lsl #3
 80066de:	f891 c054 	ldrb.w	ip, [r1, #84]	; 0x54
 80066e2:	f1bc 0f02 	cmp.w	ip, #2
 80066e6:	d005      	beq.n	80066f4 <USBH_MIDI_Process.lto_priv.167+0x258>
 80066e8:	fabe fe8e 	clz	lr, lr
 80066ec:	ea4f 1e5e 	mov.w	lr, lr, lsr #5
 80066f0:	f881 e035 	strb.w	lr, [r1, #53]	; 0x35
 80066f4:	4403      	add	r3, r0
 80066f6:	00db      	lsls	r3, r3, #3
 80066f8:	18d1      	adds	r1, r2, r3
 80066fa:	f101 0c50 	add.w	ip, r1, #80	; 0x50
 80066fe:	f04f 0e00 	mov.w	lr, #0
 8006702:	63ce      	str	r6, [r1, #60]	; 0x3c
 8006704:	640f      	str	r7, [r1, #64]	; 0x40
 8006706:	e784      	b.n	8006612 <USBH_MIDI_Process.lto_priv.167+0x176>
 8006708:	762b      	strb	r3, [r5, #24]
 800670a:	462e      	mov	r6, r5
 800670c:	e70c      	b.n	8006528 <USBH_MIDI_Process.lto_priv.167+0x8c>
 800670e:	7943      	ldrb	r3, [r0, #5]
 8006710:	f8d0 2610 	ldr.w	r2, [r0, #1552]	; 0x610
 8006714:	eb03 0383 	add.w	r3, r3, r3, lsl #2
 8006718:	eb02 03c3 	add.w	r3, r2, r3, lsl #3
 800671c:	f893 3054 	ldrb.w	r3, [r3, #84]	; 0x54
 8006720:	2b01      	cmp	r3, #1
 8006722:	d013      	beq.n	800674c <USBH_MIDI_Process.lto_priv.167+0x2b0>
 8006724:	2b02      	cmp	r3, #2
 8006726:	f000 8139 	beq.w	800699c <USBH_MIDI_Process.lto_priv.167+0x500>
 800672a:	2b04      	cmp	r3, #4
 800672c:	f47f aec5 	bne.w	80064ba <USBH_MIDI_Process.lto_priv.167+0x1e>
 8006730:	230b      	movs	r3, #11
 8006732:	7623      	strb	r3, [r4, #24]
 8006734:	e6c1      	b.n	80064ba <USBH_MIDI_Process.lto_priv.167+0x1e>
 8006736:	7903      	ldrb	r3, [r0, #4]
 8006738:	f8d0 2610 	ldr.w	r2, [r0, #1552]	; 0x610
 800673c:	eb03 0383 	add.w	r3, r3, r3, lsl #2
 8006740:	eb02 03c3 	add.w	r3, r2, r3, lsl #3
 8006744:	f893 3054 	ldrb.w	r3, [r3, #84]	; 0x54
 8006748:	2b01      	cmp	r3, #1
 800674a:	d1ee      	bne.n	800672a <USBH_MIDI_Process.lto_priv.167+0x28e>
 800674c:	2300      	movs	r3, #0
 800674e:	2001      	movs	r0, #1
 8006750:	70a0      	strb	r0, [r4, #2]
 8006752:	7623      	strb	r3, [r4, #24]
 8006754:	702b      	strb	r3, [r5, #0]
 8006756:	e6b1      	b.n	80064bc <USBH_MIDI_Process.lto_priv.167+0x20>
 8006758:	7906      	ldrb	r6, [r0, #4]
 800675a:	f8d0 5610 	ldr.w	r5, [r0, #1552]	; 0x610
 800675e:	eb06 0286 	add.w	r2, r6, r6, lsl #2
 8006762:	00d2      	lsls	r2, r2, #3
 8006764:	18a9      	adds	r1, r5, r2
 8006766:	2300      	movs	r3, #0
 8006768:	f101 0750 	add.w	r7, r1, #80	; 0x50
 800676c:	f04f 0901 	mov.w	r9, #1
 8006770:	f04f 0802 	mov.w	r8, #2
 8006774:	f881 3037 	strb.w	r3, [r1, #55]	; 0x37
 8006778:	f881 9033 	strb.w	r9, [r1, #51]	; 0x33
 800677c:	f881 803a 	strb.w	r8, [r1, #58]	; 0x3a
 8006780:	f881 6031 	strb.w	r6, [r1, #49]	; 0x31
 8006784:	3230      	adds	r2, #48	; 0x30
 8006786:	63cb      	str	r3, [r1, #60]	; 0x3c
 8006788:	640b      	str	r3, [r1, #64]	; 0x40
 800678a:	f881 3054 	strb.w	r3, [r1, #84]	; 0x54
 800678e:	644b      	str	r3, [r1, #68]	; 0x44
 8006790:	6828      	ldr	r0, [r5, #0]
 8006792:	717b      	strb	r3, [r7, #5]
 8006794:	18a9      	adds	r1, r5, r2
 8006796:	7c2a      	ldrb	r2, [r5, #16]
 8006798:	f005 fdd6 	bl	800c348 <USB_HC_StartXfer>
 800679c:	f8d4 3608 	ldr.w	r3, [r4, #1544]	; 0x608
 80067a0:	81e3      	strh	r3, [r4, #14]
 80067a2:	2308      	movs	r3, #8
 80067a4:	7623      	strb	r3, [r4, #24]
 80067a6:	e688      	b.n	80064ba <USBH_MIDI_Process.lto_priv.167+0x1e>
 80067a8:	7940      	ldrb	r0, [r0, #5]
 80067aa:	f8d4 5610 	ldr.w	r5, [r4, #1552]	; 0x610
 80067ae:	f894 121d 	ldrb.w	r1, [r4, #541]	; 0x21d
 80067b2:	0083      	lsls	r3, r0, #2
 80067b4:	181a      	adds	r2, r3, r0
 80067b6:	eb05 02c2 	add.w	r2, r5, r2, lsl #3
 80067ba:	f04f 0c02 	mov.w	ip, #2
 80067be:	f892 e054 	ldrb.w	lr, [r2, #84]	; 0x54
 80067c2:	f882 c03a 	strb.w	ip, [r2, #58]	; 0x3a
 80067c6:	2700      	movs	r7, #0
 80067c8:	f04f 0801 	mov.w	r8, #1
 80067cc:	45e6      	cmp	lr, ip
 80067ce:	f102 0630 	add.w	r6, r2, #48	; 0x30
 80067d2:	f882 7033 	strb.w	r7, [r2, #51]	; 0x33
 80067d6:	f882 7037 	strb.w	r7, [r2, #55]	; 0x37
 80067da:	f882 8049 	strb.w	r8, [r2, #73]	; 0x49
 80067de:	d003      	beq.n	80067e8 <USBH_MIDI_Process.lto_priv.167+0x34c>
 80067e0:	fab1 f281 	clz	r2, r1
 80067e4:	0952      	lsrs	r2, r2, #5
 80067e6:	7172      	strb	r2, [r6, #5]
 80067e8:	4403      	add	r3, r0
 80067ea:	00db      	lsls	r3, r3, #3
 80067ec:	18e9      	adds	r1, r5, r3
 80067ee:	f101 0650 	add.w	r6, r1, #80	; 0x50
 80067f2:	2200      	movs	r2, #0
 80067f4:	f881 0031 	strb.w	r0, [r1, #49]	; 0x31
 80067f8:	3330      	adds	r3, #48	; 0x30
 80067fa:	63ca      	str	r2, [r1, #60]	; 0x3c
 80067fc:	640a      	str	r2, [r1, #64]	; 0x40
 80067fe:	f881 2054 	strb.w	r2, [r1, #84]	; 0x54
 8006802:	644a      	str	r2, [r1, #68]	; 0x44
 8006804:	6828      	ldr	r0, [r5, #0]
 8006806:	7172      	strb	r2, [r6, #5]
 8006808:	18e9      	adds	r1, r5, r3
 800680a:	7c2a      	ldrb	r2, [r5, #16]
 800680c:	f005 fd9c 	bl	800c348 <USB_HC_StartXfer>
 8006810:	f8d4 3608 	ldr.w	r3, [r4, #1544]	; 0x608
 8006814:	81e3      	strh	r3, [r4, #14]
 8006816:	230a      	movs	r3, #10
 8006818:	7623      	strb	r3, [r4, #24]
 800681a:	e64e      	b.n	80064ba <USBH_MIDI_Process.lto_priv.167+0x1e>
 800681c:	7e43      	ldrb	r3, [r0, #25]
 800681e:	3301      	adds	r3, #1
 8006820:	b2db      	uxtb	r3, r3
 8006822:	2b02      	cmp	r3, #2
 8006824:	7643      	strb	r3, [r0, #25]
 8006826:	f240 810d 	bls.w	8006a44 <USBH_MIDI_Process.lto_priv.167+0x5a8>
 800682a:	f8d0 3614 	ldr.w	r3, [r0, #1556]	; 0x614
 800682e:	2106      	movs	r1, #6
 8006830:	4798      	blx	r3
 8006832:	2300      	movs	r3, #0
 8006834:	7663      	strb	r3, [r4, #25]
 8006836:	2301      	movs	r3, #1
 8006838:	70a3      	strb	r3, [r4, #2]
 800683a:	e63e      	b.n	80064ba <USBH_MIDI_Process.lto_priv.167+0x1e>
 800683c:	7943      	ldrb	r3, [r0, #5]
 800683e:	f8d0 2610 	ldr.w	r2, [r0, #1552]	; 0x610
 8006842:	eb03 0383 	add.w	r3, r3, r3, lsl #2
 8006846:	eb02 03c3 	add.w	r3, r2, r3, lsl #3
 800684a:	f893 3054 	ldrb.w	r3, [r3, #84]	; 0x54
 800684e:	2b01      	cmp	r3, #1
 8006850:	f47f af6b 	bne.w	800672a <USBH_MIDI_Process.lto_priv.167+0x28e>
 8006854:	7c03      	ldrb	r3, [r0, #16]
 8006856:	8ac2      	ldrh	r2, [r0, #22]
 8006858:	f023 037f 	bic.w	r3, r3, #127	; 0x7f
 800685c:	b2db      	uxtb	r3, r3
 800685e:	2a00      	cmp	r2, #0
 8006860:	f001 816c 	beq.w	8007b3c <USBH_MIDI_Process.lto_priv.167+0x16a0>
 8006864:	2b00      	cmp	r3, #0
 8006866:	f041 8170 	bne.w	8007b4a <USBH_MIDI_Process.lto_priv.167+0x16ae>
 800686a:	2305      	movs	r3, #5
 800686c:	7623      	strb	r3, [r4, #24]
 800686e:	e624      	b.n	80064ba <USBH_MIDI_Process.lto_priv.167+0x1e>
 8006870:	7943      	ldrb	r3, [r0, #5]
 8006872:	f8d0 2610 	ldr.w	r2, [r0, #1552]	; 0x610
 8006876:	eb03 0383 	add.w	r3, r3, r3, lsl #2
 800687a:	eb02 03c3 	add.w	r3, r2, r3, lsl #3
 800687e:	f893 3054 	ldrb.w	r3, [r3, #84]	; 0x54
 8006882:	2b01      	cmp	r3, #1
 8006884:	f001 815d 	beq.w	8007b42 <USBH_MIDI_Process.lto_priv.167+0x16a6>
 8006888:	2b05      	cmp	r3, #5
 800688a:	f000 80d8 	beq.w	8006a3e <USBH_MIDI_Process.lto_priv.167+0x5a2>
 800688e:	2b02      	cmp	r3, #2
 8006890:	d0eb      	beq.n	800686a <USBH_MIDI_Process.lto_priv.167+0x3ce>
 8006892:	2b04      	cmp	r3, #4
 8006894:	f47f ae11 	bne.w	80064ba <USBH_MIDI_Process.lto_priv.167+0x1e>
 8006898:	230b      	movs	r3, #11
 800689a:	7603      	strb	r3, [r0, #24]
 800689c:	e7cb      	b.n	8006836 <USBH_MIDI_Process.lto_priv.167+0x39a>
 800689e:	bf00      	nop
 80068a0:	2001f118 	.word	0x2001f118
 80068a4:	200008d0 	.word	0x200008d0
 80068a8:	7940      	ldrb	r0, [r0, #5]
 80068aa:	f8d4 5610 	ldr.w	r5, [r4, #1552]	; 0x610
 80068ae:	89a6      	ldrh	r6, [r4, #12]
 80068b0:	68a7      	ldr	r7, [r4, #8]
 80068b2:	f894 e21d 	ldrb.w	lr, [r4, #541]	; 0x21d
 80068b6:	0083      	lsls	r3, r0, #2
 80068b8:	1819      	adds	r1, r3, r0
 80068ba:	eb05 01c1 	add.w	r1, r5, r1, lsl #3
 80068be:	f04f 0800 	mov.w	r8, #0
 80068c2:	2202      	movs	r2, #2
 80068c4:	f881 8033 	strb.w	r8, [r1, #51]	; 0x33
 80068c8:	f881 8037 	strb.w	r8, [r1, #55]	; 0x37
 80068cc:	f881 203a 	strb.w	r2, [r1, #58]	; 0x3a
 80068d0:	2e00      	cmp	r6, #0
 80068d2:	f040 80a7 	bne.w	8006a24 <USBH_MIDI_Process.lto_priv.167+0x588>
 80068d6:	f04f 0c01 	mov.w	ip, #1
 80068da:	f881 c049 	strb.w	ip, [r1, #73]	; 0x49
 80068de:	1819      	adds	r1, r3, r0
 80068e0:	eb05 01c1 	add.w	r1, r5, r1, lsl #3
 80068e4:	f891 c054 	ldrb.w	ip, [r1, #84]	; 0x54
 80068e8:	f881 203a 	strb.w	r2, [r1, #58]	; 0x3a
 80068ec:	f1bc 0f02 	cmp.w	ip, #2
 80068f0:	d004      	beq.n	80068fc <USBH_MIDI_Process.lto_priv.167+0x460>
 80068f2:	fabe f28e 	clz	r2, lr
 80068f6:	0952      	lsrs	r2, r2, #5
 80068f8:	f881 2035 	strb.w	r2, [r1, #53]	; 0x35
 80068fc:	4403      	add	r3, r0
 80068fe:	00db      	lsls	r3, r3, #3
 8006900:	18ea      	adds	r2, r5, r3
 8006902:	f04f 0e00 	mov.w	lr, #0
 8006906:	3330      	adds	r3, #48	; 0x30
 8006908:	f882 0031 	strb.w	r0, [r2, #49]	; 0x31
 800690c:	63d7      	str	r7, [r2, #60]	; 0x3c
 800690e:	6416      	str	r6, [r2, #64]	; 0x40
 8006910:	f882 e054 	strb.w	lr, [r2, #84]	; 0x54
 8006914:	f8c2 e044 	str.w	lr, [r2, #68]	; 0x44
 8006918:	18e9      	adds	r1, r5, r3
 800691a:	f882 e055 	strb.w	lr, [r2, #85]	; 0x55
 800691e:	6828      	ldr	r0, [r5, #0]
 8006920:	7c2a      	ldrb	r2, [r5, #16]
 8006922:	f005 fd11 	bl	800c348 <USB_HC_StartXfer>
 8006926:	f8d4 3608 	ldr.w	r3, [r4, #1544]	; 0x608
 800692a:	81e3      	strh	r3, [r4, #14]
 800692c:	2306      	movs	r3, #6
 800692e:	7623      	strb	r3, [r4, #24]
 8006930:	e5c3      	b.n	80064ba <USBH_MIDI_Process.lto_priv.167+0x1e>
 8006932:	7946      	ldrb	r6, [r0, #5]
 8006934:	f8d0 5610 	ldr.w	r5, [r0, #1552]	; 0x610
 8006938:	eb06 0386 	add.w	r3, r6, r6, lsl #2
 800693c:	00db      	lsls	r3, r3, #3
 800693e:	18e9      	adds	r1, r5, r3
 8006940:	2200      	movs	r2, #0
 8006942:	f101 0750 	add.w	r7, r1, #80	; 0x50
 8006946:	f04f 0a03 	mov.w	sl, #3
 800694a:	f881 2033 	strb.w	r2, [r1, #51]	; 0x33
 800694e:	f881 2037 	strb.w	r2, [r1, #55]	; 0x37
 8006952:	f881 a03a 	strb.w	sl, [r1, #58]	; 0x3a
 8006956:	f881 6031 	strb.w	r6, [r1, #49]	; 0x31
 800695a:	3330      	adds	r3, #48	; 0x30
 800695c:	f100 0910 	add.w	r9, r0, #16
 8006960:	f04f 0808 	mov.w	r8, #8
 8006964:	f881 2054 	strb.w	r2, [r1, #84]	; 0x54
 8006968:	644a      	str	r2, [r1, #68]	; 0x44
 800696a:	f8c1 903c 	str.w	r9, [r1, #60]	; 0x3c
 800696e:	f8c1 8040 	str.w	r8, [r1, #64]	; 0x40
 8006972:	6828      	ldr	r0, [r5, #0]
 8006974:	717a      	strb	r2, [r7, #5]
 8006976:	18e9      	adds	r1, r5, r3
 8006978:	7c2a      	ldrb	r2, [r5, #16]
 800697a:	f005 fce5 	bl	800c348 <USB_HC_StartXfer>
 800697e:	2302      	movs	r3, #2
 8006980:	7623      	strb	r3, [r4, #24]
 8006982:	e59a      	b.n	80064ba <USBH_MIDI_Process.lto_priv.167+0x1e>
 8006984:	7903      	ldrb	r3, [r0, #4]
 8006986:	f8d0 2610 	ldr.w	r2, [r0, #1552]	; 0x610
 800698a:	eb03 0383 	add.w	r3, r3, r3, lsl #2
 800698e:	eb02 03c3 	add.w	r3, r2, r3, lsl #3
 8006992:	f893 3054 	ldrb.w	r3, [r3, #84]	; 0x54
 8006996:	2b01      	cmp	r3, #1
 8006998:	f47f aec7 	bne.w	800672a <USBH_MIDI_Process.lto_priv.167+0x28e>
 800699c:	2309      	movs	r3, #9
 800699e:	7623      	strb	r3, [r4, #24]
 80069a0:	e58b      	b.n	80064ba <USBH_MIDI_Process.lto_priv.167+0x1e>
 80069a2:	7907      	ldrb	r7, [r0, #4]
 80069a4:	f8d0 3608 	ldr.w	r3, [r0, #1544]	; 0x608
 80069a8:	f8d0 5610 	ldr.w	r5, [r0, #1552]	; 0x610
 80069ac:	81c3      	strh	r3, [r0, #14]
 80069ae:	eb07 0387 	add.w	r3, r7, r7, lsl #2
 80069b2:	00db      	lsls	r3, r3, #3
 80069b4:	18ea      	adds	r2, r5, r3
 80069b6:	8981      	ldrh	r1, [r0, #12]
 80069b8:	f8d0 a008 	ldr.w	sl, [r0, #8]
 80069bc:	f882 7031 	strb.w	r7, [r2, #49]	; 0x31
 80069c0:	2000      	movs	r0, #0
 80069c2:	f04f 0b01 	mov.w	fp, #1
 80069c6:	f04f 0902 	mov.w	r9, #2
 80069ca:	3330      	adds	r3, #48	; 0x30
 80069cc:	f882 b033 	strb.w	fp, [r2, #51]	; 0x33
 80069d0:	f882 0037 	strb.w	r0, [r2, #55]	; 0x37
 80069d4:	f882 903a 	strb.w	r9, [r2, #58]	; 0x3a
 80069d8:	6411      	str	r1, [r2, #64]	; 0x40
 80069da:	f882 0054 	strb.w	r0, [r2, #84]	; 0x54
 80069de:	6450      	str	r0, [r2, #68]	; 0x44
 80069e0:	f882 0055 	strb.w	r0, [r2, #85]	; 0x55
 80069e4:	f8c2 a03c 	str.w	sl, [r2, #60]	; 0x3c
 80069e8:	18e9      	adds	r1, r5, r3
 80069ea:	6828      	ldr	r0, [r5, #0]
 80069ec:	7c2a      	ldrb	r2, [r5, #16]
 80069ee:	f005 fcab 	bl	800c348 <USB_HC_StartXfer>
 80069f2:	2304      	movs	r3, #4
 80069f4:	7623      	strb	r3, [r4, #24]
 80069f6:	e560      	b.n	80064ba <USBH_MIDI_Process.lto_priv.167+0x1e>
 80069f8:	8aab      	ldrh	r3, [r5, #20]
 80069fa:	88ee      	ldrh	r6, [r5, #6]
 80069fc:	42b3      	cmp	r3, r6
 80069fe:	d90b      	bls.n	8006a18 <USBH_MIDI_Process.lto_priv.167+0x57c>
 8006a00:	68e8      	ldr	r0, [r5, #12]
 8006a02:	1b9b      	subs	r3, r3, r6
 8006a04:	b29b      	uxth	r3, r3
 8006a06:	4430      	add	r0, r6
 8006a08:	82ab      	strh	r3, [r5, #20]
 8006a0a:	60e8      	str	r0, [r5, #12]
 8006a0c:	2b00      	cmp	r3, #0
 8006a0e:	f001 80a8 	beq.w	8007b62 <USBH_MIDI_Process.lto_priv.167+0x16c6>
 8006a12:	7629      	strb	r1, [r5, #24]
 8006a14:	69d6      	ldr	r6, [r2, #28]
 8006a16:	e587      	b.n	8006528 <USBH_MIDI_Process.lto_priv.167+0x8c>
 8006a18:	2300      	movs	r3, #0
 8006a1a:	82ab      	strh	r3, [r5, #20]
 8006a1c:	462e      	mov	r6, r5
 8006a1e:	2300      	movs	r3, #0
 8006a20:	762b      	strb	r3, [r5, #24]
 8006a22:	e581      	b.n	8006528 <USBH_MIDI_Process.lto_priv.167+0x8c>
 8006a24:	f891 2049 	ldrb.w	r2, [r1, #73]	; 0x49
 8006a28:	2a00      	cmp	r2, #0
 8006a2a:	bf18      	it	ne
 8006a2c:	2202      	movne	r2, #2
 8006a2e:	e756      	b.n	80068de <USBH_MIDI_Process.lto_priv.167+0x442>
 8006a30:	6931      	ldr	r1, [r6, #16]
 8006a32:	82f3      	strh	r3, [r6, #22]
 8006a34:	440a      	add	r2, r1
 8006a36:	2303      	movs	r3, #3
 8006a38:	6132      	str	r2, [r6, #16]
 8006a3a:	7673      	strb	r3, [r6, #25]
 8006a3c:	e53e      	b.n	80064bc <USBH_MIDI_Process.lto_priv.167+0x20>
 8006a3e:	230c      	movs	r3, #12
 8006a40:	7603      	strb	r3, [r0, #24]
 8006a42:	e53a      	b.n	80064ba <USBH_MIDI_Process.lto_priv.167+0x1e>
 8006a44:	f8d0 5610 	ldr.w	r5, [r0, #1552]	; 0x610
 8006a48:	f895 3288 	ldrb.w	r3, [r5, #648]	; 0x288
 8006a4c:	2b01      	cmp	r3, #1
 8006a4e:	d008      	beq.n	8006a62 <USBH_MIDI_Process.lto_priv.167+0x5c6>
 8006a50:	2301      	movs	r3, #1
 8006a52:	f885 3288 	strb.w	r3, [r5, #648]	; 0x288
 8006a56:	6828      	ldr	r0, [r5, #0]
 8006a58:	f005 faa8 	bl	800bfac <USB_StopHost>
 8006a5c:	2300      	movs	r3, #0
 8006a5e:	f885 3288 	strb.w	r3, [r5, #648]	; 0x288
 8006a62:	2301      	movs	r3, #1
 8006a64:	7623      	strb	r3, [r4, #24]
 8006a66:	70a3      	strb	r3, [r4, #2]
 8006a68:	e527      	b.n	80064ba <USBH_MIDI_Process.lto_priv.167+0x1e>
 8006a6a:	785a      	ldrb	r2, [r3, #1]
 8006a6c:	f8d7 1610 	ldr.w	r1, [r7, #1552]	; 0x610
 8006a70:	eb02 0282 	add.w	r2, r2, r2, lsl #2
 8006a74:	eb01 02c2 	add.w	r2, r1, r2, lsl #3
 8006a78:	f8b2 8044 	ldrh.w	r8, [r2, #68]	; 0x44
 8006a7c:	ea5f 0898 	movs.w	r8, r8, lsr #2
 8006a80:	f43f ad77 	beq.w	8006572 <USBH_MIDI_Process.lto_priv.167+0xd6>
 8006a84:	4be2      	ldr	r3, [pc, #904]	; (8006e10 <USBH_MIDI_Process.lto_priv.167+0x974>)
 8006a86:	4ce3      	ldr	r4, [pc, #908]	; (8006e14 <USBH_MIDI_Process.lto_priv.167+0x978>)
 8006a88:	68da      	ldr	r2, [r3, #12]
 8006a8a:	ed9f 8ae3 	vldr	s16, [pc, #908]	; 8006e18 <USBH_MIDI_Process.lto_priv.167+0x97c>
 8006a8e:	6953      	ldr	r3, [r2, #20]
 8006a90:	4ee2      	ldr	r6, [pc, #904]	; (8006e1c <USBH_MIDI_Process.lto_priv.167+0x980>)
 8006a92:	4de3      	ldr	r5, [pc, #908]	; (8006e20 <USBH_MIDI_Process.lto_priv.167+0x984>)
 8006a94:	f108 38ff 	add.w	r8, r8, #4294967295
 8006a98:	fa1f f888 	uxth.w	r8, r8
 8006a9c:	f108 0801 	add.w	r8, r8, #1
 8006aa0:	f483 4300 	eor.w	r3, r3, #32768	; 0x8000
 8006aa4:	6153      	str	r3, [r2, #20]
 8006aa6:	eb04 0888 	add.w	r8, r4, r8, lsl #2
 8006aaa:	e002      	b.n	8006ab2 <USBH_MIDI_Process.lto_priv.167+0x616>
 8006aac:	45a0      	cmp	r8, r4
 8006aae:	f001 8040 	beq.w	8007b32 <USBH_MIDI_Process.lto_priv.167+0x1696>
 8006ab2:	7863      	ldrb	r3, [r4, #1]
 8006ab4:	78e1      	ldrb	r1, [r4, #3]
 8006ab6:	78a2      	ldrb	r2, [r4, #2]
 8006ab8:	f003 03f0 	and.w	r3, r3, #240	; 0xf0
 8006abc:	2bb0      	cmp	r3, #176	; 0xb0
 8006abe:	ee07 1a90 	vmov	s15, r1
 8006ac2:	f104 0404 	add.w	r4, r4, #4
 8006ac6:	d1f1      	bne.n	8006aac <USBH_MIDI_Process.lto_priv.167+0x610>
 8006ac8:	3a02      	subs	r2, #2
 8006aca:	2a75      	cmp	r2, #117	; 0x75
 8006acc:	d8ee      	bhi.n	8006aac <USBH_MIDI_Process.lto_priv.167+0x610>
 8006ace:	a301      	add	r3, pc, #4	; (adr r3, 8006ad4 <USBH_MIDI_Process.lto_priv.167+0x638>)
 8006ad0:	f853 f022 	ldr.w	pc, [r3, r2, lsl #2]
 8006ad4:	080072f5 	.word	0x080072f5
 8006ad8:	080072c1 	.word	0x080072c1
 8006adc:	080072a1 	.word	0x080072a1
 8006ae0:	0800726d 	.word	0x0800726d
 8006ae4:	0800710b 	.word	0x0800710b
 8006ae8:	08006aad 	.word	0x08006aad
 8006aec:	0800708f 	.word	0x0800708f
 8006af0:	08006cd9 	.word	0x08006cd9
 8006af4:	08006aad 	.word	0x08006aad
 8006af8:	08006aad 	.word	0x08006aad
 8006afc:	08006d05 	.word	0x08006d05
 8006b00:	08006ffd 	.word	0x08006ffd
 8006b04:	08006fc7 	.word	0x08006fc7
 8006b08:	0800707f 	.word	0x0800707f
 8006b0c:	0800706b 	.word	0x0800706b
 8006b10:	08007057 	.word	0x08007057
 8006b14:	0800702b 	.word	0x0800702b
 8006b18:	08006eed 	.word	0x08006eed
 8006b1c:	08006ed3 	.word	0x08006ed3
 8006b20:	08006eb9 	.word	0x08006eb9
 8006b24:	08006e8d 	.word	0x08006e8d
 8006b28:	08006f07 	.word	0x08006f07
 8006b2c:	08006e7f 	.word	0x08006e7f
 8006b30:	08006e6b 	.word	0x08006e6b
 8006b34:	08006e5d 	.word	0x08006e5d
 8006b38:	08006e03 	.word	0x08006e03
 8006b3c:	08006ddd 	.word	0x08006ddd
 8006b40:	08006deb 	.word	0x08006deb
 8006b44:	08006db7 	.word	0x08006db7
 8006b48:	08006d69 	.word	0x08006d69
 8006b4c:	08006aad 	.word	0x08006aad
 8006b50:	08006d51 	.word	0x08006d51
 8006b54:	08006d39 	.word	0x08006d39
 8006b58:	08006d21 	.word	0x08006d21
 8006b5c:	08006faf 	.word	0x08006faf
 8006b60:	08006f15 	.word	0x08006f15
 8006b64:	08006cc3 	.word	0x08006cc3
 8006b68:	08006cad 	.word	0x08006cad
 8006b6c:	08007af5 	.word	0x08007af5
 8006b70:	08007a21 	.word	0x08007a21
 8006b74:	080079ef 	.word	0x080079ef
 8006b78:	080079c5 	.word	0x080079c5
 8006b7c:	08006aad 	.word	0x08006aad
 8006b80:	08006aad 	.word	0x08006aad
 8006b84:	08006aad 	.word	0x08006aad
 8006b88:	08006aad 	.word	0x08006aad
 8006b8c:	08006aad 	.word	0x08006aad
 8006b90:	08006aad 	.word	0x08006aad
 8006b94:	08007993 	.word	0x08007993
 8006b98:	08007981 	.word	0x08007981
 8006b9c:	08007957 	.word	0x08007957
 8006ba0:	080078d9 	.word	0x080078d9
 8006ba4:	08006cd9 	.word	0x08006cd9
 8006ba8:	08007895 	.word	0x08007895
 8006bac:	08007879 	.word	0x08007879
 8006bb0:	08007867 	.word	0x08007867
 8006bb4:	08007851 	.word	0x08007851
 8006bb8:	0800782f 	.word	0x0800782f
 8006bbc:	080077f9 	.word	0x080077f9
 8006bc0:	080077af 	.word	0x080077af
 8006bc4:	08007795 	.word	0x08007795
 8006bc8:	08007755 	.word	0x08007755
 8006bcc:	08006aad 	.word	0x08006aad
 8006bd0:	0800773f 	.word	0x0800773f
 8006bd4:	08007729 	.word	0x08007729
 8006bd8:	0800770b 	.word	0x0800770b
 8006bdc:	08006aad 	.word	0x08006aad
 8006be0:	08006aad 	.word	0x08006aad
 8006be4:	08006aad 	.word	0x08006aad
 8006be8:	08006aad 	.word	0x08006aad
 8006bec:	08006aad 	.word	0x08006aad
 8006bf0:	08006aad 	.word	0x08006aad
 8006bf4:	08006aad 	.word	0x08006aad
 8006bf8:	08006aad 	.word	0x08006aad
 8006bfc:	080076e9 	.word	0x080076e9
 8006c00:	080076c5 	.word	0x080076c5
 8006c04:	08006aad 	.word	0x08006aad
 8006c08:	08006aad 	.word	0x08006aad
 8006c0c:	08006aad 	.word	0x08006aad
 8006c10:	08006cc3 	.word	0x08006cc3
 8006c14:	08006cad 	.word	0x08006cad
 8006c18:	08006aad 	.word	0x08006aad
 8006c1c:	08006aad 	.word	0x08006aad
 8006c20:	080075c3 	.word	0x080075c3
 8006c24:	080075a1 	.word	0x080075a1
 8006c28:	0800757f 	.word	0x0800757f
 8006c2c:	0800755d 	.word	0x0800755d
 8006c30:	0800754b 	.word	0x0800754b
 8006c34:	080074cd 	.word	0x080074cd
 8006c38:	080074a1 	.word	0x080074a1
 8006c3c:	08007483 	.word	0x08007483
 8006c40:	08007467 	.word	0x08007467
 8006c44:	08007449 	.word	0x08007449
 8006c48:	0800742b 	.word	0x0800742b
 8006c4c:	0800740d 	.word	0x0800740d
 8006c50:	080073ef 	.word	0x080073ef
 8006c54:	08006aad 	.word	0x08006aad
 8006c58:	08006aad 	.word	0x08006aad
 8006c5c:	08006aad 	.word	0x08006aad
 8006c60:	08006aad 	.word	0x08006aad
 8006c64:	080073bf 	.word	0x080073bf
 8006c68:	080073a5 	.word	0x080073a5
 8006c6c:	08006aad 	.word	0x08006aad
 8006c70:	0800738f 	.word	0x0800738f
 8006c74:	08007379 	.word	0x08007379
 8006c78:	08006aad 	.word	0x08006aad
 8006c7c:	08007353 	.word	0x08007353
 8006c80:	0800732d 	.word	0x0800732d
 8006c84:	08007307 	.word	0x08007307
 8006c88:	08006aad 	.word	0x08006aad
 8006c8c:	08006aad 	.word	0x08006aad
 8006c90:	08006aad 	.word	0x08006aad
 8006c94:	08006aad 	.word	0x08006aad
 8006c98:	08006aad 	.word	0x08006aad
 8006c9c:	08006aad 	.word	0x08006aad
 8006ca0:	080075e5 	.word	0x080075e5
 8006ca4:	0800760b 	.word	0x0800760b
 8006ca8:	080078b3 	.word	0x080078b3
 8006cac:	eef8 7ae7 	vcvt.f32.s32	s15, s15
 8006cb0:	eef4 7a48 	vcmp.f32	s15, s16
 8006cb4:	eef1 fa10 	vmrs	APSR_nzcv, fpscr
 8006cb8:	f47f aef8 	bne.w	8006aac <USBH_MIDI_Process.lto_priv.167+0x610>
 8006cbc:	f002 fe98 	bl	80099f0 <MagicPatch.part.2.lto_priv.141>
 8006cc0:	e6f4      	b.n	8006aac <USBH_MIDI_Process.lto_priv.167+0x610>
 8006cc2:	eef8 7ae7 	vcvt.f32.s32	s15, s15
 8006cc6:	eef4 7a48 	vcmp.f32	s15, s16
 8006cca:	eef1 fa10 	vmrs	APSR_nzcv, fpscr
 8006cce:	f47f aeed 	bne.w	8006aac <USBH_MIDI_Process.lto_priv.167+0x610>
 8006cd2:	f006 fd13 	bl	800d6fc <MagicFX.part.1.lto_priv.142>
 8006cd6:	e6e9      	b.n	8006aac <USBH_MIDI_Process.lto_priv.167+0x610>
 8006cd8:	eef8 7ae7 	vcvt.f32.s32	s15, s15
 8006cdc:	eeb7 7a00 	vmov.f32	s14, #112	; 0x70
 8006ce0:	eec7 7a88 	vdiv.f32	s15, s15, s16
 8006ce4:	4b4f      	ldr	r3, [pc, #316]	; (8006e24 <USBH_MIDI_Process.lto_priv.167+0x988>)
 8006ce6:	eddf 6a50 	vldr	s13, [pc, #320]	; 8006e28 <USBH_MIDI_Process.lto_priv.167+0x98c>
 8006cea:	ee77 7a67 	vsub.f32	s15, s14, s15
 8006cee:	eef4 7ae6 	vcmpe.f32	s15, s13
 8006cf2:	eef1 fa10 	vmrs	APSR_nzcv, fpscr
 8006cf6:	edc3 7a03 	vstr	s15, [r3, #12]
 8006cfa:	f57f aed7 	bpl.w	8006aac <USBH_MIDI_Process.lto_priv.167+0x610>
 8006cfe:	4a4b      	ldr	r2, [pc, #300]	; (8006e2c <USBH_MIDI_Process.lto_priv.167+0x990>)
 8006d00:	60da      	str	r2, [r3, #12]
 8006d02:	e6d3      	b.n	8006aac <USBH_MIDI_Process.lto_priv.167+0x610>
 8006d04:	eef8 7ae7 	vcvt.f32.s32	s15, s15
 8006d08:	eeb1 7a08 	vmov.f32	s14, #24
 8006d0c:	eec7 7a88 	vdiv.f32	s15, s15, s16
 8006d10:	4b44      	ldr	r3, [pc, #272]	; (8006e24 <USBH_MIDI_Process.lto_priv.167+0x988>)
 8006d12:	ee67 7aa7 	vmul.f32	s15, s15, s15
 8006d16:	ee67 7a87 	vmul.f32	s15, s15, s14
 8006d1a:	edc3 7a06 	vstr	s15, [r3, #24]
 8006d1e:	e6c5      	b.n	8006aac <USBH_MIDI_Process.lto_priv.167+0x610>
 8006d20:	eef8 7ae7 	vcvt.f32.s32	s15, s15
 8006d24:	eef4 7a48 	vcmp.f32	s15, s16
 8006d28:	eef1 fa10 	vmrs	APSR_nzcv, fpscr
 8006d2c:	f47f aebe 	bne.w	8006aac <USBH_MIDI_Process.lto_priv.167+0x610>
 8006d30:	4b3f      	ldr	r3, [pc, #252]	; (8006e30 <USBH_MIDI_Process.lto_priv.167+0x994>)
 8006d32:	22f9      	movs	r2, #249	; 0xf9
 8006d34:	729a      	strb	r2, [r3, #10]
 8006d36:	e6b9      	b.n	8006aac <USBH_MIDI_Process.lto_priv.167+0x610>
 8006d38:	eef8 7ae7 	vcvt.f32.s32	s15, s15
 8006d3c:	eef4 7a48 	vcmp.f32	s15, s16
 8006d40:	eef1 fa10 	vmrs	APSR_nzcv, fpscr
 8006d44:	f47f aeb2 	bne.w	8006aac <USBH_MIDI_Process.lto_priv.167+0x610>
 8006d48:	4b39      	ldr	r3, [pc, #228]	; (8006e30 <USBH_MIDI_Process.lto_priv.167+0x994>)
 8006d4a:	2202      	movs	r2, #2
 8006d4c:	729a      	strb	r2, [r3, #10]
 8006d4e:	e6ad      	b.n	8006aac <USBH_MIDI_Process.lto_priv.167+0x610>
 8006d50:	eef8 7ae7 	vcvt.f32.s32	s15, s15
 8006d54:	eef4 7a48 	vcmp.f32	s15, s16
 8006d58:	eef1 fa10 	vmrs	APSR_nzcv, fpscr
 8006d5c:	f47f aea6 	bne.w	8006aac <USBH_MIDI_Process.lto_priv.167+0x610>
 8006d60:	4b33      	ldr	r3, [pc, #204]	; (8006e30 <USBH_MIDI_Process.lto_priv.167+0x994>)
 8006d62:	22fe      	movs	r2, #254	; 0xfe
 8006d64:	729a      	strb	r2, [r3, #10]
 8006d66:	e6a1      	b.n	8006aac <USBH_MIDI_Process.lto_priv.167+0x610>
 8006d68:	2900      	cmp	r1, #0
 8006d6a:	f000 8701 	beq.w	8007b70 <USBH_MIDI_Process.lto_priv.167+0x16d4>
 8006d6e:	297f      	cmp	r1, #127	; 0x7f
 8006d70:	f47f ae9c 	bne.w	8006aac <USBH_MIDI_Process.lto_priv.167+0x610>
 8006d74:	f8df c0dc 	ldr.w	ip, [pc, #220]	; 8006e54 <USBH_MIDI_Process.lto_priv.167+0x9b8>
 8006d78:	f8df e0dc 	ldr.w	lr, [pc, #220]	; 8006e58 <USBH_MIDI_Process.lto_priv.167+0x9bc>
 8006d7c:	482d      	ldr	r0, [pc, #180]	; (8006e34 <USBH_MIDI_Process.lto_priv.167+0x998>)
 8006d7e:	492e      	ldr	r1, [pc, #184]	; (8006e38 <USBH_MIDI_Process.lto_priv.167+0x99c>)
 8006d80:	4a2e      	ldr	r2, [pc, #184]	; (8006e3c <USBH_MIDI_Process.lto_priv.167+0x9a0>)
 8006d82:	4b2f      	ldr	r3, [pc, #188]	; (8006e40 <USBH_MIDI_Process.lto_priv.167+0x9a4>)
 8006d84:	f8dc 9004 	ldr.w	r9, [ip, #4]
 8006d88:	f8de b004 	ldr.w	fp, [lr, #4]
 8006d8c:	f8cc 9000 	str.w	r9, [ip]
 8006d90:	f8d0 a004 	ldr.w	sl, [r0, #4]
 8006d94:	f8d1 9008 	ldr.w	r9, [r1, #8]
 8006d98:	f8d2 c008 	ldr.w	ip, [r2, #8]
 8006d9c:	f8ce b000 	str.w	fp, [lr]
 8006da0:	f8d3 e008 	ldr.w	lr, [r3, #8]
 8006da4:	f8c0 a000 	str.w	sl, [r0]
 8006da8:	f8c1 9004 	str.w	r9, [r1, #4]
 8006dac:	f8c2 c004 	str.w	ip, [r2, #4]
 8006db0:	f8c3 e004 	str.w	lr, [r3, #4]
 8006db4:	e67a      	b.n	8006aac <USBH_MIDI_Process.lto_priv.167+0x610>
 8006db6:	2900      	cmp	r1, #0
 8006db8:	f000 870e 	beq.w	8007bd8 <USBH_MIDI_Process.lto_priv.167+0x173c>
 8006dbc:	297f      	cmp	r1, #127	; 0x7f
 8006dbe:	f47f ae75 	bne.w	8006aac <USBH_MIDI_Process.lto_priv.167+0x610>
 8006dc2:	ed96 0a01 	vldr	s0, [r6, #4]
 8006dc6:	f007 fa23 	bl	800e210 <fabsf>
 8006dca:	ed86 0a01 	vstr	s0, [r6, #4]
 8006dce:	ed95 0a01 	vldr	s0, [r5, #4]
 8006dd2:	f007 fa1d 	bl	800e210 <fabsf>
 8006dd6:	ed85 0a01 	vstr	s0, [r5, #4]
 8006dda:	e667      	b.n	8006aac <USBH_MIDI_Process.lto_priv.167+0x610>
 8006ddc:	293f      	cmp	r1, #63	; 0x3f
 8006dde:	4b19      	ldr	r3, [pc, #100]	; (8006e44 <USBH_MIDI_Process.lto_priv.167+0x9a8>)
 8006de0:	bf8c      	ite	hi
 8006de2:	2201      	movhi	r2, #1
 8006de4:	2200      	movls	r2, #0
 8006de6:	701a      	strb	r2, [r3, #0]
 8006de8:	e660      	b.n	8006aac <USBH_MIDI_Process.lto_priv.167+0x610>
 8006dea:	2900      	cmp	r1, #0
 8006dec:	f000 8706 	beq.w	8007bfc <USBH_MIDI_Process.lto_priv.167+0x1760>
 8006df0:	297f      	cmp	r1, #127	; 0x7f
 8006df2:	f47f ae5b 	bne.w	8006aac <USBH_MIDI_Process.lto_priv.167+0x610>
 8006df6:	4914      	ldr	r1, [pc, #80]	; (8006e48 <USBH_MIDI_Process.lto_priv.167+0x9ac>)
 8006df8:	4a14      	ldr	r2, [pc, #80]	; (8006e4c <USBH_MIDI_Process.lto_priv.167+0x9b0>)
 8006dfa:	23ff      	movs	r3, #255	; 0xff
 8006dfc:	700b      	strb	r3, [r1, #0]
 8006dfe:	7013      	strb	r3, [r2, #0]
 8006e00:	e654      	b.n	8006aac <USBH_MIDI_Process.lto_priv.167+0x610>
 8006e02:	293f      	cmp	r1, #63	; 0x3f
 8006e04:	4b12      	ldr	r3, [pc, #72]	; (8006e50 <USBH_MIDI_Process.lto_priv.167+0x9b4>)
 8006e06:	bf8c      	ite	hi
 8006e08:	2201      	movhi	r2, #1
 8006e0a:	2200      	movls	r2, #0
 8006e0c:	701a      	strb	r2, [r3, #0]
 8006e0e:	e64d      	b.n	8006aac <USBH_MIDI_Process.lto_priv.167+0x610>
 8006e10:	20000064 	.word	0x20000064
 8006e14:	200008d0 	.word	0x200008d0
 8006e18:	42fe0000 	.word	0x42fe0000
 8006e1c:	100028a8 	.word	0x100028a8
 8006e20:	100012a0 	.word	0x100012a0
 8006e24:	100000c8 	.word	0x100000c8
 8006e28:	3c23d70a 	.word	0x3c23d70a
 8006e2c:	3c23d70a 	.word	0x3c23d70a
 8006e30:	10000034 	.word	0x10000034
 8006e34:	10000c08 	.word	0x10000c08
 8006e38:	10000ccc 	.word	0x10000ccc
 8006e3c:	1000068c 	.word	0x1000068c
 8006e40:	10000134 	.word	0x10000134
 8006e44:	1000129e 	.word	0x1000129e
 8006e48:	10002894 	.word	0x10002894
 8006e4c:	10003e9c 	.word	0x10003e9c
 8006e50:	100000c4 	.word	0x100000c4
 8006e54:	10000114 	.word	0x10000114
 8006e58:	10000be8 	.word	0x10000be8
 8006e5c:	293f      	cmp	r1, #63	; 0x3f
 8006e5e:	4bd2      	ldr	r3, [pc, #840]	; (80071a8 <USBH_MIDI_Process.lto_priv.167+0xd0c>)
 8006e60:	bf8c      	ite	hi
 8006e62:	2201      	movhi	r2, #1
 8006e64:	2200      	movls	r2, #0
 8006e66:	72da      	strb	r2, [r3, #11]
 8006e68:	e620      	b.n	8006aac <USBH_MIDI_Process.lto_priv.167+0x610>
 8006e6a:	2900      	cmp	r1, #0
 8006e6c:	f000 86ad 	beq.w	8007bca <USBH_MIDI_Process.lto_priv.167+0x172e>
 8006e70:	297f      	cmp	r1, #127	; 0x7f
 8006e72:	f47f ae1b 	bne.w	8006aac <USBH_MIDI_Process.lto_priv.167+0x610>
 8006e76:	4bcc      	ldr	r3, [pc, #816]	; (80071a8 <USBH_MIDI_Process.lto_priv.167+0xd0c>)
 8006e78:	2201      	movs	r2, #1
 8006e7a:	739a      	strb	r2, [r3, #14]
 8006e7c:	e616      	b.n	8006aac <USBH_MIDI_Process.lto_priv.167+0x610>
 8006e7e:	293f      	cmp	r1, #63	; 0x3f
 8006e80:	4bca      	ldr	r3, [pc, #808]	; (80071ac <USBH_MIDI_Process.lto_priv.167+0xd10>)
 8006e82:	bf8c      	ite	hi
 8006e84:	2201      	movhi	r2, #1
 8006e86:	2200      	movls	r2, #0
 8006e88:	701a      	strb	r2, [r3, #0]
 8006e8a:	e60f      	b.n	8006aac <USBH_MIDI_Process.lto_priv.167+0x610>
 8006e8c:	eef8 7ae7 	vcvt.f32.s32	s15, s15
 8006e90:	ed9f 6ac7 	vldr	s12, [pc, #796]	; 80071b0 <USBH_MIDI_Process.lto_priv.167+0xd14>
 8006e94:	ed9f 7ac7 	vldr	s14, [pc, #796]	; 80071b4 <USBH_MIDI_Process.lto_priv.167+0xd18>
 8006e98:	4bc7      	ldr	r3, [pc, #796]	; (80071b8 <USBH_MIDI_Process.lto_priv.167+0xd1c>)
 8006e9a:	4ac8      	ldr	r2, [pc, #800]	; (80071bc <USBH_MIDI_Process.lto_priv.167+0xd20>)
 8006e9c:	edd3 6a01 	vldr	s13, [r3, #4]
 8006ea0:	4bc7      	ldr	r3, [pc, #796]	; (80071c0 <USBH_MIDI_Process.lto_priv.167+0xd24>)
 8006ea2:	eea7 7a86 	vfma.f32	s14, s15, s12
 8006ea6:	eef0 7a47 	vmov.f32	s15, s14
 8006eaa:	ee27 7a26 	vmul.f32	s14, s14, s13
 8006eae:	edc2 7a00 	vstr	s15, [r2]
 8006eb2:	ed83 7a01 	vstr	s14, [r3, #4]
 8006eb6:	e5f9      	b.n	8006aac <USBH_MIDI_Process.lto_priv.167+0x610>
 8006eb8:	eef8 7ae7 	vcvt.f32.s32	s15, s15
 8006ebc:	ed9f 7ac1 	vldr	s14, [pc, #772]	; 80071c4 <USBH_MIDI_Process.lto_priv.167+0xd28>
 8006ec0:	ee67 7a87 	vmul.f32	s15, s15, s14
 8006ec4:	eec7 7a88 	vdiv.f32	s15, s15, s16
 8006ec8:	edc5 7a01 	vstr	s15, [r5, #4]
 8006ecc:	edc6 7a01 	vstr	s15, [r6, #4]
 8006ed0:	e5ec      	b.n	8006aac <USBH_MIDI_Process.lto_priv.167+0x610>
 8006ed2:	eef8 7ae7 	vcvt.f32.s32	s15, s15
 8006ed6:	ed9f 7abc 	vldr	s14, [pc, #752]	; 80071c8 <USBH_MIDI_Process.lto_priv.167+0xd2c>
 8006eda:	4ab7      	ldr	r2, [pc, #732]	; (80071b8 <USBH_MIDI_Process.lto_priv.167+0xd1c>)
 8006edc:	4bb8      	ldr	r3, [pc, #736]	; (80071c0 <USBH_MIDI_Process.lto_priv.167+0xd24>)
 8006ede:	ee67 7a87 	vmul.f32	s15, s15, s14
 8006ee2:	edc2 7a00 	vstr	s15, [r2]
 8006ee6:	edc3 7a00 	vstr	s15, [r3]
 8006eea:	e5df      	b.n	8006aac <USBH_MIDI_Process.lto_priv.167+0x610>
 8006eec:	eef8 7ae7 	vcvt.f32.s32	s15, s15
 8006ef0:	ed9f 7ab6 	vldr	s14, [pc, #728]	; 80071cc <USBH_MIDI_Process.lto_priv.167+0xd30>
 8006ef4:	4ab6      	ldr	r2, [pc, #728]	; (80071d0 <USBH_MIDI_Process.lto_priv.167+0xd34>)
 8006ef6:	4bb7      	ldr	r3, [pc, #732]	; (80071d4 <USBH_MIDI_Process.lto_priv.167+0xd38>)
 8006ef8:	ee67 7a87 	vmul.f32	s15, s15, s14
 8006efc:	edc2 7a00 	vstr	s15, [r2]
 8006f00:	edc3 7a00 	vstr	s15, [r3]
 8006f04:	e5d2      	b.n	8006aac <USBH_MIDI_Process.lto_priv.167+0x610>
 8006f06:	293f      	cmp	r1, #63	; 0x3f
 8006f08:	4bb3      	ldr	r3, [pc, #716]	; (80071d8 <USBH_MIDI_Process.lto_priv.167+0xd3c>)
 8006f0a:	bf8c      	ite	hi
 8006f0c:	2201      	movhi	r2, #1
 8006f0e:	2200      	movls	r2, #0
 8006f10:	701a      	strb	r2, [r3, #0]
 8006f12:	e5cb      	b.n	8006aac <USBH_MIDI_Process.lto_priv.167+0x610>
 8006f14:	297f      	cmp	r1, #127	; 0x7f
 8006f16:	f47f adc9 	bne.w	8006aac <USBH_MIDI_Process.lto_priv.167+0x610>
 8006f1a:	f8df a2b8 	ldr.w	sl, [pc, #696]	; 80071d4 <USBH_MIDI_Process.lto_priv.167+0xd38>
 8006f1e:	f8df 92b0 	ldr.w	r9, [pc, #688]	; 80071d0 <USBH_MIDI_Process.lto_priv.167+0xd34>
 8006f22:	49ae      	ldr	r1, [pc, #696]	; (80071dc <USBH_MIDI_Process.lto_priv.167+0xd40>)
 8006f24:	f8df e298 	ldr.w	lr, [pc, #664]	; 80071c0 <USBH_MIDI_Process.lto_priv.167+0xd24>
 8006f28:	f8df c28c 	ldr.w	ip, [pc, #652]	; 80071b8 <USBH_MIDI_Process.lto_priv.167+0xd1c>
 8006f2c:	f8ca 1000 	str.w	r1, [sl]
 8006f30:	ed9f 7aab 	vldr	s14, [pc, #684]	; 80071e0 <USBH_MIDI_Process.lto_priv.167+0xd44>
 8006f34:	f8c9 1000 	str.w	r1, [r9]
 8006f38:	2101      	movs	r1, #1
 8006f3a:	4baa      	ldr	r3, [pc, #680]	; (80071e4 <USBH_MIDI_Process.lto_priv.167+0xd48>)
 8006f3c:	4aaa      	ldr	r2, [pc, #680]	; (80071e8 <USBH_MIDI_Process.lto_priv.167+0xd4c>)
 8006f3e:	f88a 1004 	strb.w	r1, [sl, #4]
 8006f42:	f889 1004 	strb.w	r1, [r9, #4]
 8006f46:	eddf 7aa9 	vldr	s15, [pc, #676]	; 80071ec <USBH_MIDI_Process.lto_priv.167+0xd50>
 8006f4a:	f8df b314 	ldr.w	fp, [pc, #788]	; 8007260 <USBH_MIDI_Process.lto_priv.167+0xdc4>
 8006f4e:	49a8      	ldr	r1, [pc, #672]	; (80071f0 <USBH_MIDI_Process.lto_priv.167+0xd54>)
 8006f50:	606b      	str	r3, [r5, #4]
 8006f52:	f5aa 50af 	sub.w	r0, sl, #5600	; 0x15e0
 8006f56:	f8df a264 	ldr.w	sl, [pc, #612]	; 80071bc <USBH_MIDI_Process.lto_priv.167+0xd20>
 8006f5a:	6073      	str	r3, [r6, #4]
 8006f5c:	ed8c 7a01 	vstr	s14, [ip, #4]
 8006f60:	f04f 537c 	mov.w	r3, #1056964608	; 0x3f000000
 8006f64:	f8cc b008 	str.w	fp, [ip, #8]
 8006f68:	f8cc 2000 	str.w	r2, [ip]
 8006f6c:	f8ce 2000 	str.w	r2, [lr]
 8006f70:	f240 5c77 	movw	ip, #1399	; 0x577
 8006f74:	f8ce 1004 	str.w	r1, [lr, #4]
 8006f78:	f04f 5b7e 	mov.w	fp, #1065353216	; 0x3f800000
 8006f7c:	2100      	movs	r1, #0
 8006f7e:	f44f 52af 	mov.w	r2, #5600	; 0x15e0
 8006f82:	edce 7a02 	vstr	s15, [lr, #8]
 8006f86:	f8ca b000 	str.w	fp, [sl]
 8006f8a:	60ab      	str	r3, [r5, #8]
 8006f8c:	602b      	str	r3, [r5, #0]
 8006f8e:	60b3      	str	r3, [r6, #8]
 8006f90:	6033      	str	r3, [r6, #0]
 8006f92:	f8c5 c00c 	str.w	ip, [r5, #12]
 8006f96:	f8c6 c00c 	str.w	ip, [r6, #12]
 8006f9a:	f009 f85f 	bl	801005c <memset>
 8006f9e:	f5a9 50af 	sub.w	r0, r9, #5600	; 0x15e0
 8006fa2:	2100      	movs	r1, #0
 8006fa4:	f44f 52af 	mov.w	r2, #5600	; 0x15e0
 8006fa8:	f009 f858 	bl	801005c <memset>
 8006fac:	e57e      	b.n	8006aac <USBH_MIDI_Process.lto_priv.167+0x610>
 8006fae:	eef8 7ae7 	vcvt.f32.s32	s15, s15
 8006fb2:	eef4 7a48 	vcmp.f32	s15, s16
 8006fb6:	eef1 fa10 	vmrs	APSR_nzcv, fpscr
 8006fba:	f47f ad77 	bne.w	8006aac <USBH_MIDI_Process.lto_priv.167+0x610>
 8006fbe:	4b7a      	ldr	r3, [pc, #488]	; (80071a8 <USBH_MIDI_Process.lto_priv.167+0xd0c>)
 8006fc0:	2207      	movs	r2, #7
 8006fc2:	729a      	strb	r2, [r3, #10]
 8006fc4:	e572      	b.n	8006aac <USBH_MIDI_Process.lto_priv.167+0x610>
 8006fc6:	eef8 7ae7 	vcvt.f32.s32	s15, s15
 8006fca:	ed9f 7a8a 	vldr	s14, [pc, #552]	; 80071f4 <USBH_MIDI_Process.lto_priv.167+0xd58>
 8006fce:	ed9f 0a8a 	vldr	s0, [pc, #552]	; 80071f8 <USBH_MIDI_Process.lto_priv.167+0xd5c>
 8006fd2:	eea7 0a87 	vfma.f32	s0, s15, s14
 8006fd6:	f007 f96b 	bl	800e2b0 <lrintf>
 8006fda:	4b88      	ldr	r3, [pc, #544]	; (80071fc <USBH_MIDI_Process.lto_priv.167+0xd60>)
 8006fdc:	4a88      	ldr	r2, [pc, #544]	; (8007200 <USBH_MIDI_Process.lto_priv.167+0xd64>)
 8006fde:	681b      	ldr	r3, [r3, #0]
 8006fe0:	4988      	ldr	r1, [pc, #544]	; (8007204 <USBH_MIDI_Process.lto_priv.167+0xd68>)
 8006fe2:	eba3 0380 	sub.w	r3, r3, r0, lsl #2
 8006fe6:	4293      	cmp	r3, r2
 8006fe8:	bf36      	itet	cc
 8006fea:	f503 33ea 	addcc.w	r3, r3, #119808	; 0x1d400
 8006fee:	4a86      	ldrcs	r2, [pc, #536]	; (8007208 <USBH_MIDI_Process.lto_priv.167+0xd6c>)
 8006ff0:	4a85      	ldrcc	r2, [pc, #532]	; (8007208 <USBH_MIDI_Process.lto_priv.167+0xd6c>)
 8006ff2:	6008      	str	r0, [r1, #0]
 8006ff4:	bf38      	it	cc
 8006ff6:	33bc      	addcc	r3, #188	; 0xbc
 8006ff8:	6013      	str	r3, [r2, #0]
 8006ffa:	e557      	b.n	8006aac <USBH_MIDI_Process.lto_priv.167+0x610>
 8006ffc:	ed9f 7a83 	vldr	s14, [pc, #524]	; 800720c <USBH_MIDI_Process.lto_priv.167+0xd70>
 8007000:	4b83      	ldr	r3, [pc, #524]	; (8007210 <USBH_MIDI_Process.lto_priv.167+0xd74>)
 8007002:	f8df e260 	ldr.w	lr, [pc, #608]	; 8007264 <USBH_MIDI_Process.lto_priv.167+0xdc8>
 8007006:	681b      	ldr	r3, [r3, #0]
 8007008:	eef8 7ae7 	vcvt.f32.s32	s15, s15
 800700c:	69da      	ldr	r2, [r3, #28]
 800700e:	ee67 7a87 	vmul.f32	s15, s15, s14
 8007012:	2094      	movs	r0, #148	; 0x94
 8007014:	eefc 7ae7 	vcvt.u32.f32	s15, s15
 8007018:	edcd 7a01 	vstr	s15, [sp, #4]
 800701c:	f89d 3004 	ldrb.w	r3, [sp, #4]
 8007020:	f88e 3000 	strb.w	r3, [lr]
 8007024:	4619      	mov	r1, r3
 8007026:	4790      	blx	r2
 8007028:	e540      	b.n	8006aac <USBH_MIDI_Process.lto_priv.167+0x610>
 800702a:	eef8 7ae7 	vcvt.f32.s32	s15, s15
 800702e:	ed9f 6a79 	vldr	s12, [pc, #484]	; 8007214 <USBH_MIDI_Process.lto_priv.167+0xd78>
 8007032:	ed9f 7a79 	vldr	s14, [pc, #484]	; 8007218 <USBH_MIDI_Process.lto_priv.167+0xd7c>
 8007036:	4b61      	ldr	r3, [pc, #388]	; (80071bc <USBH_MIDI_Process.lto_priv.167+0xd20>)
 8007038:	4a5f      	ldr	r2, [pc, #380]	; (80071b8 <USBH_MIDI_Process.lto_priv.167+0xd1c>)
 800703a:	edd3 6a00 	vldr	s13, [r3]
 800703e:	4b60      	ldr	r3, [pc, #384]	; (80071c0 <USBH_MIDI_Process.lto_priv.167+0xd24>)
 8007040:	eea7 7a86 	vfma.f32	s14, s15, s12
 8007044:	eef0 7a47 	vmov.f32	s15, s14
 8007048:	ee27 7a26 	vmul.f32	s14, s14, s13
 800704c:	edc2 7a01 	vstr	s15, [r2, #4]
 8007050:	ed83 7a01 	vstr	s14, [r3, #4]
 8007054:	e52a      	b.n	8006aac <USBH_MIDI_Process.lto_priv.167+0x610>
 8007056:	eef8 7ae7 	vcvt.f32.s32	s15, s15
 800705a:	ed9f 7a70 	vldr	s14, [pc, #448]	; 800721c <USBH_MIDI_Process.lto_priv.167+0xd80>
 800705e:	4b70      	ldr	r3, [pc, #448]	; (8007220 <USBH_MIDI_Process.lto_priv.167+0xd84>)
 8007060:	ee67 7a87 	vmul.f32	s15, s15, s14
 8007064:	edc3 7a02 	vstr	s15, [r3, #8]
 8007068:	e520      	b.n	8006aac <USBH_MIDI_Process.lto_priv.167+0x610>
 800706a:	eef8 7ae7 	vcvt.f32.s32	s15, s15
 800706e:	ed9f 7a6d 	vldr	s14, [pc, #436]	; 8007224 <USBH_MIDI_Process.lto_priv.167+0xd88>
 8007072:	4b6b      	ldr	r3, [pc, #428]	; (8007220 <USBH_MIDI_Process.lto_priv.167+0xd84>)
 8007074:	ee67 7a87 	vmul.f32	s15, s15, s14
 8007078:	edc3 7a00 	vstr	s15, [r3]
 800707c:	e516      	b.n	8006aac <USBH_MIDI_Process.lto_priv.167+0x610>
 800707e:	eef8 7ae7 	vcvt.f32.s32	s15, s15
 8007082:	4b69      	ldr	r3, [pc, #420]	; (8007228 <USBH_MIDI_Process.lto_priv.167+0xd8c>)
 8007084:	eec7 7a88 	vdiv.f32	s15, s15, s16
 8007088:	edc3 7a00 	vstr	s15, [r3]
 800708c:	e50e      	b.n	8006aac <USBH_MIDI_Process.lto_priv.167+0x610>
 800708e:	eef8 0ae7 	vcvt.f32.s32	s1, s15
 8007092:	ed9f 0a66 	vldr	s0, [pc, #408]	; 800722c <USBH_MIDI_Process.lto_priv.167+0xd90>
 8007096:	eec0 0a88 	vdiv.f32	s1, s1, s16
 800709a:	f007 f9f5 	bl	800e488 <powf>
 800709e:	4a64      	ldr	r2, [pc, #400]	; (8007230 <USBH_MIDI_Process.lto_priv.167+0xd94>)
 80070a0:	4b64      	ldr	r3, [pc, #400]	; (8007234 <USBH_MIDI_Process.lto_priv.167+0xd98>)
 80070a2:	eddf 7a65 	vldr	s15, [pc, #404]	; 8007238 <USBH_MIDI_Process.lto_priv.167+0xd9c>
 80070a6:	ed9f 7a65 	vldr	s14, [pc, #404]	; 800723c <USBH_MIDI_Process.lto_priv.167+0xda0>
 80070aa:	ed9f 5a46 	vldr	s10, [pc, #280]	; 80071c4 <USBH_MIDI_Process.lto_priv.167+0xd28>
 80070ae:	eddf 5a64 	vldr	s11, [pc, #400]	; 8007240 <USBH_MIDI_Process.lto_priv.167+0xda4>
 80070b2:	ee20 0a27 	vmul.f32	s0, s0, s15
 80070b6:	eef6 6a00 	vmov.f32	s13, #96	; 0x60
 80070ba:	eec0 7a07 	vdiv.f32	s15, s0, s14
 80070be:	eeb9 6a04 	vmov.f32	s12, #148	; 0x94
 80070c2:	eef4 7a45 	vcmp.f32	s15, s10
 80070c6:	eef1 fa10 	vmrs	APSR_nzcv, fpscr
 80070ca:	edc2 7a00 	vstr	s15, [r2]
 80070ce:	bfc8      	it	gt
 80070d0:	eef0 7a45 	vmovgt.f32	s15, s10
 80070d4:	ee67 7aa6 	vmul.f32	s15, s15, s13
 80070d8:	eeba 5a0e 	vmov.f32	s10, #174	; 0xae
 80070dc:	ee67 5aa5 	vmul.f32	s11, s15, s11
 80070e0:	eeb0 7a08 	vmov.f32	s14, #8
 80070e4:	ee75 4aa5 	vadd.f32	s9, s11, s11
 80070e8:	ee65 6aa5 	vmul.f32	s13, s11, s11
 80070ec:	eea5 6aa4 	vfma.f32	s12, s11, s9
 80070f0:	ee65 6aa6 	vmul.f32	s13, s11, s13
 80070f4:	ee26 7a07 	vmul.f32	s14, s12, s14
 80070f8:	eee5 6a85 	vfma.f32	s13, s11, s10
 80070fc:	edc3 7a01 	vstr	s15, [r3, #4]
 8007100:	eec6 7a87 	vdiv.f32	s15, s13, s14
 8007104:	edc3 7a02 	vstr	s15, [r3, #8]
 8007108:	e4d0      	b.n	8006aac <USBH_MIDI_Process.lto_priv.167+0x610>
 800710a:	eef8 7ae7 	vcvt.f32.s32	s15, s15
 800710e:	ed9f 0a4d 	vldr	s0, [pc, #308]	; 8007244 <USBH_MIDI_Process.lto_priv.167+0xda8>
 8007112:	ee27 0a80 	vmul.f32	s0, s15, s0
 8007116:	f007 f911 	bl	800e33c <rintf>
 800711a:	eebc 0ac0 	vcvt.u32.f32	s0, s0
 800711e:	4a4a      	ldr	r2, [pc, #296]	; (8007248 <USBH_MIDI_Process.lto_priv.167+0xdac>)
 8007120:	ed8d 0a01 	vstr	s0, [sp, #4]
 8007124:	f89d 3004 	ldrb.w	r3, [sp, #4]
 8007128:	7013      	strb	r3, [r2, #0]
 800712a:	2b04      	cmp	r3, #4
 800712c:	f43f acbe 	beq.w	8006aac <USBH_MIDI_Process.lto_priv.167+0x610>
 8007130:	f8df a128 	ldr.w	sl, [pc, #296]	; 800725c <USBH_MIDI_Process.lto_priv.167+0xdc0>
 8007134:	4b45      	ldr	r3, [pc, #276]	; (800724c <USBH_MIDI_Process.lto_priv.167+0xdb0>)
 8007136:	eddf 9a46 	vldr	s19, [pc, #280]	; 8007250 <USBH_MIDI_Process.lto_priv.167+0xdb4>
 800713a:	ed9f 9a46 	vldr	s18, [pc, #280]	; 8007254 <USBH_MIDI_Process.lto_priv.167+0xdb8>
 800713e:	eddf 8a46 	vldr	s17, [pc, #280]	; 8007258 <USBH_MIDI_Process.lto_priv.167+0xdbc>
 8007142:	2200      	movs	r2, #0
 8007144:	46d3      	mov	fp, sl
 8007146:	605a      	str	r2, [r3, #4]
 8007148:	4699      	mov	r9, r3
 800714a:	f04f 537e 	mov.w	r3, #1065353216	; 0x3f800000
 800714e:	f84b 3b08 	str.w	r3, [fp], #8
 8007152:	f849 2b08 	str.w	r2, [r9], #8
 8007156:	f8ca 3004 	str.w	r3, [sl, #4]
 800715a:	f10a 022c 	add.w	r2, sl, #44	; 0x2c
 800715e:	9201      	str	r2, [sp, #4]
 8007160:	f008 ffd8 	bl	8010114 <rand>
 8007164:	ee07 0a90 	vmov	s15, r0
 8007168:	eef8 7ae7 	vcvt.f32.s32	s15, s15
 800716c:	eeb0 7a68 	vmov.f32	s14, s17
 8007170:	ee67 7aa9 	vmul.f32	s15, s15, s19
 8007174:	9a01      	ldr	r2, [sp, #4]
 8007176:	4b39      	ldr	r3, [pc, #228]	; (800725c <USBH_MIDI_Process.lto_priv.167+0xdc0>)
 8007178:	eea7 7a89 	vfma.f32	s14, s15, s18
 800717c:	2100      	movs	r1, #0
 800717e:	f849 1b04 	str.w	r1, [r9], #4
 8007182:	ecab 7a01 	vstmia	fp!, {s14}
 8007186:	eef0 7a47 	vmov.f32	s15, s14
 800718a:	ed9a 7a00 	vldr	s14, [sl]
 800718e:	ee77 7a87 	vadd.f32	s15, s15, s14
 8007192:	4593      	cmp	fp, r2
 8007194:	edca 7a00 	vstr	s15, [sl]
 8007198:	d1e1      	bne.n	800715e <USBH_MIDI_Process.lto_priv.167+0xcc2>
 800719a:	eeb7 7a00 	vmov.f32	s14, #112	; 0x70
 800719e:	eec7 7a27 	vdiv.f32	s15, s14, s15
 80071a2:	edc3 7a00 	vstr	s15, [r3]
 80071a6:	e481      	b.n	8006aac <USBH_MIDI_Process.lto_priv.167+0x610>
 80071a8:	10000034 	.word	0x10000034
 80071ac:	1000129d 	.word	0x1000129d
 80071b0:	3be836d4 	.word	0x3be836d4
 80071b4:	3dcccccd 	.word	0x3dcccccd
 80071b8:	10002898 	.word	0x10002898
 80071bc:	20001940 	.word	0x20001940
 80071c0:	10003ea0 	.word	0x10003ea0
 80071c4:	3f733333 	.word	0x3f733333
 80071c8:	3f8c7f66 	.word	0x3f8c7f66
 80071cc:	40b060c2 	.word	0x40b060c2
 80071d0:	10002890 	.word	0x10002890
 80071d4:	10003e98 	.word	0x10003e98
 80071d8:	1000129c 	.word	0x1000129c
 80071dc:	43700000 	.word	0x43700000
 80071e0:	3de147ae 	.word	0x3de147ae
 80071e4:	be4ccccd 	.word	0xbe4ccccd
 80071e8:	42480000 	.word	0x42480000
 80071ec:	00000000 	.word	0x00000000
 80071f0:	3df5c28f 	.word	0x3df5c28f
 80071f4:	436a3e7d 	.word	0x436a3e7d
 80071f8:	437a0000 	.word	0x437a0000
 80071fc:	2001f0c4 	.word	0x2001f0c4
 8007200:	20001bf8 	.word	0x20001bf8
 8007204:	20001944 	.word	0x20001944
 8007208:	2001f0fc 	.word	0x2001f0fc
 800720c:	3f499326 	.word	0x3f499326
 8007210:	20001be8 	.word	0x20001be8
 8007214:	3d61c387 	.word	0x3d61c387
 8007218:	3ca3d70a 	.word	0x3ca3d70a
 800721c:	3dc18306 	.word	0x3dc18306
 8007220:	100000f4 	.word	0x100000f4
 8007224:	3b810204 	.word	0x3b810204
 8007228:	20000050 	.word	0x20000050
 800722c:	42c80000 	.word	0x42c80000
 8007230:	2001f0d0 	.word	0x2001f0d0
 8007234:	100000c8 	.word	0x100000c8
 8007238:	42a00000 	.word	0x42a00000
 800723c:	472c4400 	.word	0x472c4400
 8007240:	40490fdb 	.word	0x40490fdb
 8007244:	3df1e3c8 	.word	0x3df1e3c8
 8007248:	100000e9 	.word	0x100000e9
 800724c:	10000070 	.word	0x10000070
 8007250:	30000000 	.word	0x30000000
 8007254:	3f7a9fbf 	.word	0x3f7a9fbf
 8007258:	3a83126f 	.word	0x3a83126f
 800725c:	10000044 	.word	0x10000044
 8007260:	3fc90fdb 	.word	0x3fc90fdb
 8007264:	2000005c 	.word	0x2000005c
 8007268:	3de1c387 	.word	0x3de1c387
 800726c:	eef8 7ae7 	vcvt.f32.s32	s15, s15
 8007270:	ed1f 0a03 	vldr	s0, [pc, #-12]	; 8007268 <USBH_MIDI_Process.lto_priv.167+0xdcc>
 8007274:	ee27 0a80 	vmul.f32	s0, s15, s0
 8007278:	f007 f860 	bl	800e33c <rintf>
 800727c:	eebc 0ac0 	vcvt.u32.f32	s0, s0
 8007280:	4aeb      	ldr	r2, [pc, #940]	; (8007630 <USBH_MIDI_Process.lto_priv.167+0x1194>)
 8007282:	ed8d 0a01 	vstr	s0, [sp, #4]
 8007286:	f89d 3004 	ldrb.w	r3, [sp, #4]
 800728a:	7013      	strb	r3, [r2, #0]
 800728c:	2b0e      	cmp	r3, #14
 800728e:	bf96      	itet	ls
 8007290:	49e8      	ldrls	r1, [pc, #928]	; (8007634 <USBH_MIDI_Process.lto_priv.167+0x1198>)
 8007292:	4be9      	ldrhi	r3, [pc, #932]	; (8007638 <USBH_MIDI_Process.lto_priv.167+0x119c>)
 8007294:	f851 3023 	ldrls.w	r3, [r1, r3, lsl #2]
 8007298:	6053      	str	r3, [r2, #4]
 800729a:	2301      	movs	r3, #1
 800729c:	7353      	strb	r3, [r2, #13]
 800729e:	e405      	b.n	8006aac <USBH_MIDI_Process.lto_priv.167+0x610>
 80072a0:	eef8 7ae7 	vcvt.f32.s32	s15, s15
 80072a4:	ed9f 7ae5 	vldr	s14, [pc, #916]	; 800763c <USBH_MIDI_Process.lto_priv.167+0x11a0>
 80072a8:	4ae1      	ldr	r2, [pc, #900]	; (8007630 <USBH_MIDI_Process.lto_priv.167+0x1194>)
 80072aa:	ee67 7a87 	vmul.f32	s15, s15, s14
 80072ae:	2101      	movs	r1, #1
 80072b0:	eefc 7ae7 	vcvt.u32.f32	s15, s15
 80072b4:	7351      	strb	r1, [r2, #13]
 80072b6:	ee17 3a90 	vmov	r3, s15
 80072ba:	7213      	strb	r3, [r2, #8]
 80072bc:	f7ff bbf6 	b.w	8006aac <USBH_MIDI_Process.lto_priv.167+0x610>
 80072c0:	eef8 7ae7 	vcvt.f32.s32	s15, s15
 80072c4:	ed9f 7ade 	vldr	s14, [pc, #888]	; 8007640 <USBH_MIDI_Process.lto_priv.167+0x11a4>
 80072c8:	ed9f 0ade 	vldr	s0, [pc, #888]	; 8007644 <USBH_MIDI_Process.lto_priv.167+0x11a8>
 80072cc:	f8df 93f0 	ldr.w	r9, [pc, #1008]	; 80076c0 <USBH_MIDI_Process.lto_priv.167+0x1224>
 80072d0:	ee27 7a87 	vmul.f32	s14, s15, s14
 80072d4:	eef3 7a04 	vmov.f32	s15, #52	; 0x34
 80072d8:	ee87 7a08 	vdiv.f32	s14, s14, s16
 80072dc:	ee77 7a27 	vadd.f32	s15, s14, s15
 80072e0:	ee80 0a27 	vdiv.f32	s0, s0, s15
 80072e4:	edc9 7a08 	vstr	s15, [r9, #32]
 80072e8:	f006 ffe2 	bl	800e2b0 <lrintf>
 80072ec:	f8c9 0024 	str.w	r0, [r9, #36]	; 0x24
 80072f0:	f7ff bbdc 	b.w	8006aac <USBH_MIDI_Process.lto_priv.167+0x610>
 80072f4:	eef8 7ae7 	vcvt.f32.s32	s15, s15
 80072f8:	4bd3      	ldr	r3, [pc, #844]	; (8007648 <USBH_MIDI_Process.lto_priv.167+0x11ac>)
 80072fa:	eec7 7a88 	vdiv.f32	s15, s15, s16
 80072fe:	edc3 7a00 	vstr	s15, [r3]
 8007302:	f7ff bbd3 	b.w	8006aac <USBH_MIDI_Process.lto_priv.167+0x610>
 8007306:	eef8 7ae7 	vcvt.f32.s32	s15, s15
 800730a:	eef4 7a48 	vcmp.f32	s15, s16
 800730e:	eef1 fa10 	vmrs	APSR_nzcv, fpscr
 8007312:	f47f abcb 	bne.w	8006aac <USBH_MIDI_Process.lto_priv.167+0x610>
 8007316:	4bcd      	ldr	r3, [pc, #820]	; (800764c <USBH_MIDI_Process.lto_priv.167+0x11b0>)
 8007318:	eddf 7acd 	vldr	s15, [pc, #820]	; 8007650 <USBH_MIDI_Process.lto_priv.167+0x11b4>
 800731c:	ed93 7a06 	vldr	s14, [r3, #24]
 8007320:	ee67 7a27 	vmul.f32	s15, s14, s15
 8007324:	edc3 7a06 	vstr	s15, [r3, #24]
 8007328:	f7ff bbc0 	b.w	8006aac <USBH_MIDI_Process.lto_priv.167+0x610>
 800732c:	eef8 7ae7 	vcvt.f32.s32	s15, s15
 8007330:	eef4 7a48 	vcmp.f32	s15, s16
 8007334:	eef1 fa10 	vmrs	APSR_nzcv, fpscr
 8007338:	f47f abb8 	bne.w	8006aac <USBH_MIDI_Process.lto_priv.167+0x610>
 800733c:	4bc5      	ldr	r3, [pc, #788]	; (8007654 <USBH_MIDI_Process.lto_priv.167+0x11b8>)
 800733e:	eddf 7ac4 	vldr	s15, [pc, #784]	; 8007650 <USBH_MIDI_Process.lto_priv.167+0x11b4>
 8007342:	ed93 7a06 	vldr	s14, [r3, #24]
 8007346:	ee67 7a27 	vmul.f32	s15, s14, s15
 800734a:	edc3 7a06 	vstr	s15, [r3, #24]
 800734e:	f7ff bbad 	b.w	8006aac <USBH_MIDI_Process.lto_priv.167+0x610>
 8007352:	eef8 7ae7 	vcvt.f32.s32	s15, s15
 8007356:	eef4 7a48 	vcmp.f32	s15, s16
 800735a:	eef1 fa10 	vmrs	APSR_nzcv, fpscr
 800735e:	f47f aba5 	bne.w	8006aac <USBH_MIDI_Process.lto_priv.167+0x610>
 8007362:	4bbd      	ldr	r3, [pc, #756]	; (8007658 <USBH_MIDI_Process.lto_priv.167+0x11bc>)
 8007364:	eddf 7aba 	vldr	s15, [pc, #744]	; 8007650 <USBH_MIDI_Process.lto_priv.167+0x11b4>
 8007368:	ed93 7a06 	vldr	s14, [r3, #24]
 800736c:	ee67 7a27 	vmul.f32	s15, s14, s15
 8007370:	edc3 7a06 	vstr	s15, [r3, #24]
 8007374:	f7ff bb9a 	b.w	8006aac <USBH_MIDI_Process.lto_priv.167+0x610>
 8007378:	eef8 7ae7 	vcvt.f32.s32	s15, s15
 800737c:	ed9f 7ab7 	vldr	s14, [pc, #732]	; 800765c <USBH_MIDI_Process.lto_priv.167+0x11c0>
 8007380:	4bb7      	ldr	r3, [pc, #732]	; (8007660 <USBH_MIDI_Process.lto_priv.167+0x11c4>)
 8007382:	ee67 7a87 	vmul.f32	s15, s15, s14
 8007386:	edc3 7a02 	vstr	s15, [r3, #8]
 800738a:	f7ff bb8f 	b.w	8006aac <USBH_MIDI_Process.lto_priv.167+0x610>
 800738e:	eef8 7ae7 	vcvt.f32.s32	s15, s15
 8007392:	ed9f 7ab4 	vldr	s14, [pc, #720]	; 8007664 <USBH_MIDI_Process.lto_priv.167+0x11c8>
 8007396:	4bb2      	ldr	r3, [pc, #712]	; (8007660 <USBH_MIDI_Process.lto_priv.167+0x11c4>)
 8007398:	ee67 7a87 	vmul.f32	s15, s15, s14
 800739c:	edc3 7a00 	vstr	s15, [r3]
 80073a0:	f7ff bb84 	b.w	8006aac <USBH_MIDI_Process.lto_priv.167+0x610>
 80073a4:	eef8 7ae7 	vcvt.f32.s32	s15, s15
 80073a8:	ed9f 7aaf 	vldr	s14, [pc, #700]	; 8007668 <USBH_MIDI_Process.lto_priv.167+0x11cc>
 80073ac:	4baf      	ldr	r3, [pc, #700]	; (800766c <USBH_MIDI_Process.lto_priv.167+0x11d0>)
 80073ae:	ee67 7a87 	vmul.f32	s15, s15, s14
 80073b2:	eec7 7a88 	vdiv.f32	s15, s15, s16
 80073b6:	edc3 7a00 	vstr	s15, [r3]
 80073ba:	f7ff bb77 	b.w	8006aac <USBH_MIDI_Process.lto_priv.167+0x610>
 80073be:	eef8 7ae7 	vcvt.f32.s32	s15, s15
 80073c2:	eddf 5aab 	vldr	s11, [pc, #684]	; 8007670 <USBH_MIDI_Process.lto_priv.167+0x11d4>
 80073c6:	ed9f 6aab 	vldr	s12, [pc, #684]	; 8007674 <USBH_MIDI_Process.lto_priv.167+0x11d8>
 80073ca:	eddf 6aab 	vldr	s13, [pc, #684]	; 8007678 <USBH_MIDI_Process.lto_priv.167+0x11dc>
 80073ce:	ed9f 7aab 	vldr	s14, [pc, #684]	; 800767c <USBH_MIDI_Process.lto_priv.167+0x11e0>
 80073d2:	4aab      	ldr	r2, [pc, #684]	; (8007680 <USBH_MIDI_Process.lto_priv.167+0x11e4>)
 80073d4:	4bab      	ldr	r3, [pc, #684]	; (8007684 <USBH_MIDI_Process.lto_priv.167+0x11e8>)
 80073d6:	eea7 6aa5 	vfma.f32	s12, s15, s11
 80073da:	ee66 7a26 	vmul.f32	s15, s12, s13
 80073de:	ed82 6a00 	vstr	s12, [r2]
 80073e2:	eec7 7a87 	vdiv.f32	s15, s15, s14
 80073e6:	edc3 7a00 	vstr	s15, [r3]
 80073ea:	f7ff bb5f 	b.w	8006aac <USBH_MIDI_Process.lto_priv.167+0x610>
 80073ee:	eef8 7ae7 	vcvt.f32.s32	s15, s15
 80073f2:	ed9f 7aa5 	vldr	s14, [pc, #660]	; 8007688 <USBH_MIDI_Process.lto_priv.167+0x11ec>
 80073f6:	4b95      	ldr	r3, [pc, #596]	; (800764c <USBH_MIDI_Process.lto_priv.167+0x11b0>)
 80073f8:	ee67 7a87 	vmul.f32	s15, s15, s14
 80073fc:	eec7 7a88 	vdiv.f32	s15, s15, s16
 8007400:	ee67 7aa7 	vmul.f32	s15, s15, s15
 8007404:	edc3 7a05 	vstr	s15, [r3, #20]
 8007408:	f7ff bb50 	b.w	8006aac <USBH_MIDI_Process.lto_priv.167+0x610>
 800740c:	eef8 7ae7 	vcvt.f32.s32	s15, s15
 8007410:	ed9f 7a9d 	vldr	s14, [pc, #628]	; 8007688 <USBH_MIDI_Process.lto_priv.167+0x11ec>
 8007414:	4b8f      	ldr	r3, [pc, #572]	; (8007654 <USBH_MIDI_Process.lto_priv.167+0x11b8>)
 8007416:	ee67 7a87 	vmul.f32	s15, s15, s14
 800741a:	eec7 7a88 	vdiv.f32	s15, s15, s16
 800741e:	ee67 7aa7 	vmul.f32	s15, s15, s15
 8007422:	edc3 7a05 	vstr	s15, [r3, #20]
 8007426:	f7ff bb41 	b.w	8006aac <USBH_MIDI_Process.lto_priv.167+0x610>
 800742a:	eef8 7ae7 	vcvt.f32.s32	s15, s15
 800742e:	ed9f 7a96 	vldr	s14, [pc, #600]	; 8007688 <USBH_MIDI_Process.lto_priv.167+0x11ec>
 8007432:	4b89      	ldr	r3, [pc, #548]	; (8007658 <USBH_MIDI_Process.lto_priv.167+0x11bc>)
 8007434:	ee67 7a87 	vmul.f32	s15, s15, s14
 8007438:	eec7 7a88 	vdiv.f32	s15, s15, s16
 800743c:	ee67 7aa7 	vmul.f32	s15, s15, s15
 8007440:	edc3 7a05 	vstr	s15, [r3, #20]
 8007444:	f7ff bb32 	b.w	8006aac <USBH_MIDI_Process.lto_priv.167+0x610>
 8007448:	eef8 7ae7 	vcvt.f32.s32	s15, s15
 800744c:	ed9f 7a8e 	vldr	s14, [pc, #568]	; 8007688 <USBH_MIDI_Process.lto_priv.167+0x11ec>
 8007450:	4b8e      	ldr	r3, [pc, #568]	; (800768c <USBH_MIDI_Process.lto_priv.167+0x11f0>)
 8007452:	ee67 7a87 	vmul.f32	s15, s15, s14
 8007456:	eec7 7a88 	vdiv.f32	s15, s15, s16
 800745a:	ee67 7aa7 	vmul.f32	s15, s15, s15
 800745e:	edc3 7a05 	vstr	s15, [r3, #20]
 8007462:	f7ff bb23 	b.w	8006aac <USBH_MIDI_Process.lto_priv.167+0x610>
 8007466:	eb01 0381 	add.w	r3, r1, r1, lsl #2
 800746a:	ee07 3a90 	vmov	s15, r3
 800746e:	eeb8 0ae7 	vcvt.f32.s32	s0, s15
 8007472:	ee80 0a08 	vdiv.f32	s0, s0, s16
 8007476:	f006 ff1b 	bl	800e2b0 <lrintf>
 800747a:	4b85      	ldr	r3, [pc, #532]	; (8007690 <USBH_MIDI_Process.lto_priv.167+0x11f4>)
 800747c:	7018      	strb	r0, [r3, #0]
 800747e:	f7ff bb15 	b.w	8006aac <USBH_MIDI_Process.lto_priv.167+0x610>
 8007482:	eef8 7ae7 	vcvt.f32.s32	s15, s15
 8007486:	eeb1 7a08 	vmov.f32	s14, #24
 800748a:	eec7 7a88 	vdiv.f32	s15, s15, s16
 800748e:	4b80      	ldr	r3, [pc, #512]	; (8007690 <USBH_MIDI_Process.lto_priv.167+0x11f4>)
 8007490:	ee67 7aa7 	vmul.f32	s15, s15, s15
 8007494:	ee67 7a87 	vmul.f32	s15, s15, s14
 8007498:	edc3 7a06 	vstr	s15, [r3, #24]
 800749c:	f7ff bb06 	b.w	8006aac <USBH_MIDI_Process.lto_priv.167+0x610>
 80074a0:	eef8 7ae7 	vcvt.f32.s32	s15, s15
 80074a4:	eeb7 7a00 	vmov.f32	s14, #112	; 0x70
 80074a8:	eec7 7a88 	vdiv.f32	s15, s15, s16
 80074ac:	4b78      	ldr	r3, [pc, #480]	; (8007690 <USBH_MIDI_Process.lto_priv.167+0x11f4>)
 80074ae:	eddf 6a79 	vldr	s13, [pc, #484]	; 8007694 <USBH_MIDI_Process.lto_priv.167+0x11f8>
 80074b2:	ee77 7a67 	vsub.f32	s15, s14, s15
 80074b6:	eef4 7ae6 	vcmpe.f32	s15, s13
 80074ba:	eef1 fa10 	vmrs	APSR_nzcv, fpscr
 80074be:	bf54      	ite	pl
 80074c0:	edc3 7a03 	vstrpl	s15, [r3, #12]
 80074c4:	edc3 6a03 	vstrmi	s13, [r3, #12]
 80074c8:	f7ff baf0 	b.w	8006aac <USBH_MIDI_Process.lto_priv.167+0x610>
 80074cc:	eef8 0ae7 	vcvt.f32.s32	s1, s15
 80074d0:	ed9f 0a71 	vldr	s0, [pc, #452]	; 8007698 <USBH_MIDI_Process.lto_priv.167+0x11fc>
 80074d4:	eec0 0a88 	vdiv.f32	s1, s1, s16
 80074d8:	f006 ffd6 	bl	800e488 <powf>
 80074dc:	4a6f      	ldr	r2, [pc, #444]	; (800769c <USBH_MIDI_Process.lto_priv.167+0x1200>)
 80074de:	4b6c      	ldr	r3, [pc, #432]	; (8007690 <USBH_MIDI_Process.lto_priv.167+0x11f4>)
 80074e0:	eddf 7a6f 	vldr	s15, [pc, #444]	; 80076a0 <USBH_MIDI_Process.lto_priv.167+0x1204>
 80074e4:	ed9f 7a65 	vldr	s14, [pc, #404]	; 800767c <USBH_MIDI_Process.lto_priv.167+0x11e0>
 80074e8:	ed9f 5a6e 	vldr	s10, [pc, #440]	; 80076a4 <USBH_MIDI_Process.lto_priv.167+0x1208>
 80074ec:	eddf 5a6e 	vldr	s11, [pc, #440]	; 80076a8 <USBH_MIDI_Process.lto_priv.167+0x120c>
 80074f0:	ee20 0a27 	vmul.f32	s0, s0, s15
 80074f4:	eef6 6a00 	vmov.f32	s13, #96	; 0x60
 80074f8:	eec0 7a07 	vdiv.f32	s15, s0, s14
 80074fc:	eeb9 6a04 	vmov.f32	s12, #148	; 0x94
 8007500:	eef4 7a45 	vcmp.f32	s15, s10
 8007504:	eef1 fa10 	vmrs	APSR_nzcv, fpscr
 8007508:	edc2 7a00 	vstr	s15, [r2]
 800750c:	bfc8      	it	gt
 800750e:	eef0 7a45 	vmovgt.f32	s15, s10
 8007512:	ee67 7aa6 	vmul.f32	s15, s15, s13
 8007516:	eeba 5a0e 	vmov.f32	s10, #174	; 0xae
 800751a:	ee67 5aa5 	vmul.f32	s11, s15, s11
 800751e:	eeb0 7a08 	vmov.f32	s14, #8
 8007522:	ee75 4aa5 	vadd.f32	s9, s11, s11
 8007526:	ee65 6aa5 	vmul.f32	s13, s11, s11
 800752a:	eea5 6aa4 	vfma.f32	s12, s11, s9
 800752e:	ee65 6aa6 	vmul.f32	s13, s11, s13
 8007532:	ee26 7a07 	vmul.f32	s14, s12, s14
 8007536:	eee5 6a85 	vfma.f32	s13, s11, s10
 800753a:	edc3 7a01 	vstr	s15, [r3, #4]
 800753e:	eec6 7a87 	vdiv.f32	s15, s13, s14
 8007542:	edc3 7a02 	vstr	s15, [r3, #8]
 8007546:	f7ff bab1 	b.w	8006aac <USBH_MIDI_Process.lto_priv.167+0x610>
 800754a:	eef8 7ae7 	vcvt.f32.s32	s15, s15
 800754e:	4b57      	ldr	r3, [pc, #348]	; (80076ac <USBH_MIDI_Process.lto_priv.167+0x1210>)
 8007550:	eec7 7a88 	vdiv.f32	s15, s15, s16
 8007554:	edc3 7a00 	vstr	s15, [r3]
 8007558:	f7ff baa8 	b.w	8006aac <USBH_MIDI_Process.lto_priv.167+0x610>
 800755c:	eef8 0ae7 	vcvt.f32.s32	s1, s15
 8007560:	ed9f 0a53 	vldr	s0, [pc, #332]	; 80076b0 <USBH_MIDI_Process.lto_priv.167+0x1214>
 8007564:	eec0 0a88 	vdiv.f32	s1, s1, s16
 8007568:	f006 ff8e 	bl	800e488 <powf>
 800756c:	4b37      	ldr	r3, [pc, #220]	; (800764c <USBH_MIDI_Process.lto_priv.167+0x11b0>)
 800756e:	eddf 7a51 	vldr	s15, [pc, #324]	; 80076b4 <USBH_MIDI_Process.lto_priv.167+0x1218>
 8007572:	ee20 0a27 	vmul.f32	s0, s0, s15
 8007576:	ed83 0a06 	vstr	s0, [r3, #24]
 800757a:	f7ff ba97 	b.w	8006aac <USBH_MIDI_Process.lto_priv.167+0x610>
 800757e:	eef8 0ae7 	vcvt.f32.s32	s1, s15
 8007582:	ed9f 0a4b 	vldr	s0, [pc, #300]	; 80076b0 <USBH_MIDI_Process.lto_priv.167+0x1214>
 8007586:	eec0 0a88 	vdiv.f32	s1, s1, s16
 800758a:	f006 ff7d 	bl	800e488 <powf>
 800758e:	4b31      	ldr	r3, [pc, #196]	; (8007654 <USBH_MIDI_Process.lto_priv.167+0x11b8>)
 8007590:	eddf 7a48 	vldr	s15, [pc, #288]	; 80076b4 <USBH_MIDI_Process.lto_priv.167+0x1218>
 8007594:	ee20 0a27 	vmul.f32	s0, s0, s15
 8007598:	ed83 0a06 	vstr	s0, [r3, #24]
 800759c:	f7ff ba86 	b.w	8006aac <USBH_MIDI_Process.lto_priv.167+0x610>
 80075a0:	eef8 0ae7 	vcvt.f32.s32	s1, s15
 80075a4:	ed9f 0a42 	vldr	s0, [pc, #264]	; 80076b0 <USBH_MIDI_Process.lto_priv.167+0x1214>
 80075a8:	eec0 0a88 	vdiv.f32	s1, s1, s16
 80075ac:	f006 ff6c 	bl	800e488 <powf>
 80075b0:	4b29      	ldr	r3, [pc, #164]	; (8007658 <USBH_MIDI_Process.lto_priv.167+0x11bc>)
 80075b2:	eddf 7a40 	vldr	s15, [pc, #256]	; 80076b4 <USBH_MIDI_Process.lto_priv.167+0x1218>
 80075b6:	ee20 0a27 	vmul.f32	s0, s0, s15
 80075ba:	ed83 0a06 	vstr	s0, [r3, #24]
 80075be:	f7ff ba75 	b.w	8006aac <USBH_MIDI_Process.lto_priv.167+0x610>
 80075c2:	eef8 0ae7 	vcvt.f32.s32	s1, s15
 80075c6:	ed9f 0a3c 	vldr	s0, [pc, #240]	; 80076b8 <USBH_MIDI_Process.lto_priv.167+0x121c>
 80075ca:	eec0 0a88 	vdiv.f32	s1, s1, s16
 80075ce:	f006 ff5b 	bl	800e488 <powf>
 80075d2:	4b2e      	ldr	r3, [pc, #184]	; (800768c <USBH_MIDI_Process.lto_priv.167+0x11f0>)
 80075d4:	eef6 7a00 	vmov.f32	s15, #96	; 0x60
 80075d8:	ee20 0a27 	vmul.f32	s0, s0, s15
 80075dc:	ed83 0a02 	vstr	s0, [r3, #8]
 80075e0:	f7ff ba64 	b.w	8006aac <USBH_MIDI_Process.lto_priv.167+0x610>
 80075e4:	eef8 7ae7 	vcvt.f32.s32	s15, s15
 80075e8:	eef4 7a48 	vcmp.f32	s15, s16
 80075ec:	eef1 fa10 	vmrs	APSR_nzcv, fpscr
 80075f0:	f47f aa5c 	bne.w	8006aac <USBH_MIDI_Process.lto_priv.167+0x610>
 80075f4:	4b18      	ldr	r3, [pc, #96]	; (8007658 <USBH_MIDI_Process.lto_priv.167+0x11bc>)
 80075f6:	eddf 7a31 	vldr	s15, [pc, #196]	; 80076bc <USBH_MIDI_Process.lto_priv.167+0x1220>
 80075fa:	ed93 7a06 	vldr	s14, [r3, #24]
 80075fe:	ee67 7a27 	vmul.f32	s15, s14, s15
 8007602:	edc3 7a06 	vstr	s15, [r3, #24]
 8007606:	f7ff ba51 	b.w	8006aac <USBH_MIDI_Process.lto_priv.167+0x610>
 800760a:	eef8 7ae7 	vcvt.f32.s32	s15, s15
 800760e:	eef4 7a48 	vcmp.f32	s15, s16
 8007612:	eef1 fa10 	vmrs	APSR_nzcv, fpscr
 8007616:	f47f aa49 	bne.w	8006aac <USBH_MIDI_Process.lto_priv.167+0x610>
 800761a:	4b0e      	ldr	r3, [pc, #56]	; (8007654 <USBH_MIDI_Process.lto_priv.167+0x11b8>)
 800761c:	eddf 7a27 	vldr	s15, [pc, #156]	; 80076bc <USBH_MIDI_Process.lto_priv.167+0x1220>
 8007620:	ed93 7a06 	vldr	s14, [r3, #24]
 8007624:	ee67 7a27 	vmul.f32	s15, s14, s15
 8007628:	edc3 7a06 	vstr	s15, [r3, #24]
 800762c:	f7ff ba3e 	b.w	8006aac <USBH_MIDI_Process.lto_priv.167+0x610>
 8007630:	10000034 	.word	0x10000034
 8007634:	0801ee08 	.word	0x0801ee08
 8007638:	0801edd4 	.word	0x0801edd4
 800763c:	3d810204 	.word	0x3d810204
 8007640:	43fa0000 	.word	0x43fa0000
 8007644:	4a217fc0 	.word	0x4a217fc0
 8007648:	20000058 	.word	0x20000058
 800764c:	10000cac 	.word	0x10000cac
 8007650:	3f8147ae 	.word	0x3f8147ae
 8007654:	10000c08 	.word	0x10000c08
 8007658:	10000be8 	.word	0x10000be8
 800765c:	3dc18306 	.word	0x3dc18306
 8007660:	1000125c 	.word	0x1000125c
 8007664:	3e810204 	.word	0x3e810204
 8007668:	3f7fbe77 	.word	0x3f7fbe77
 800766c:	2001f100 	.word	0x2001f100
 8007670:	3d611e66 	.word	0x3d611e66
 8007674:	3ca3d70a 	.word	0x3ca3d70a
 8007678:	40c90fdb 	.word	0x40c90fdb
 800767c:	472c4400 	.word	0x472c4400
 8007680:	20001bec 	.word	0x20001bec
 8007684:	2001f0f0 	.word	0x2001f0f0
 8007688:	3fb33333 	.word	0x3fb33333
 800768c:	10000114 	.word	0x10000114
 8007690:	1000127c 	.word	0x1000127c
 8007694:	3c23d70a 	.word	0x3c23d70a
 8007698:	42c80000 	.word	0x42c80000
 800769c:	2001f0c0 	.word	0x2001f0c0
 80076a0:	42a00000 	.word	0x42a00000
 80076a4:	3f733333 	.word	0x3f733333
 80076a8:	40490fdb 	.word	0x40490fdb
 80076ac:	20001bf4 	.word	0x20001bf4
 80076b0:	43200000 	.word	0x43200000
 80076b4:	3e4ccccd 	.word	0x3e4ccccd
 80076b8:	467a0000 	.word	0x467a0000
 80076bc:	3f7d70a4 	.word	0x3f7d70a4
 80076c0:	10000000 	.word	0x10000000
 80076c4:	eef8 7ae7 	vcvt.f32.s32	s15, s15
 80076c8:	eef4 7a48 	vcmp.f32	s15, s16
 80076cc:	eef1 fa10 	vmrs	APSR_nzcv, fpscr
 80076d0:	f47f a9ec 	bne.w	8006aac <USBH_MIDI_Process.lto_priv.167+0x610>
 80076d4:	4be2      	ldr	r3, [pc, #904]	; (8007a60 <USBH_MIDI_Process.lto_priv.167+0x15c4>)
 80076d6:	f993 2000 	ldrsb.w	r2, [r3]
 80076da:	2a00      	cmp	r2, #0
 80076dc:	f000 8244 	beq.w	8007b68 <USBH_MIDI_Process.lto_priv.167+0x16cc>
 80076e0:	2200      	movs	r2, #0
 80076e2:	701a      	strb	r2, [r3, #0]
 80076e4:	f7ff b9e2 	b.w	8006aac <USBH_MIDI_Process.lto_priv.167+0x610>
 80076e8:	eef8 7ae7 	vcvt.f32.s32	s15, s15
 80076ec:	eef4 7a48 	vcmp.f32	s15, s16
 80076f0:	eef1 fa10 	vmrs	APSR_nzcv, fpscr
 80076f4:	f47f a9da 	bne.w	8006aac <USBH_MIDI_Process.lto_priv.167+0x610>
 80076f8:	4bd9      	ldr	r3, [pc, #868]	; (8007a60 <USBH_MIDI_Process.lto_priv.167+0x15c4>)
 80076fa:	f993 2000 	ldrsb.w	r2, [r3]
 80076fe:	2a00      	cmp	r2, #0
 8007700:	d1ee      	bne.n	80076e0 <USBH_MIDI_Process.lto_priv.167+0x1244>
 8007702:	2201      	movs	r2, #1
 8007704:	701a      	strb	r2, [r3, #0]
 8007706:	f7ff b9d1 	b.w	8006aac <USBH_MIDI_Process.lto_priv.167+0x610>
 800770a:	eef8 7ae7 	vcvt.f32.s32	s15, s15
 800770e:	eef4 7a48 	vcmp.f32	s15, s16
 8007712:	eef1 fa10 	vmrs	APSR_nzcv, fpscr
 8007716:	f47f a9c9 	bne.w	8006aac <USBH_MIDI_Process.lto_priv.167+0x610>
 800771a:	4ad2      	ldr	r2, [pc, #840]	; (8007a64 <USBH_MIDI_Process.lto_priv.167+0x15c8>)
 800771c:	7813      	ldrb	r3, [r2, #0]
 800771e:	f083 0301 	eor.w	r3, r3, #1
 8007722:	7013      	strb	r3, [r2, #0]
 8007724:	f7ff b9c2 	b.w	8006aac <USBH_MIDI_Process.lto_priv.167+0x610>
 8007728:	eef8 7ae7 	vcvt.f32.s32	s15, s15
 800772c:	ed9f 7ace 	vldr	s14, [pc, #824]	; 8007a68 <USBH_MIDI_Process.lto_priv.167+0x15cc>
 8007730:	4bce      	ldr	r3, [pc, #824]	; (8007a6c <USBH_MIDI_Process.lto_priv.167+0x15d0>)
 8007732:	ee67 7a87 	vmul.f32	s15, s15, s14
 8007736:	edc3 7a02 	vstr	s15, [r3, #8]
 800773a:	f7ff b9b7 	b.w	8006aac <USBH_MIDI_Process.lto_priv.167+0x610>
 800773e:	eef8 7ae7 	vcvt.f32.s32	s15, s15
 8007742:	ed9f 7acb 	vldr	s14, [pc, #812]	; 8007a70 <USBH_MIDI_Process.lto_priv.167+0x15d4>
 8007746:	4bc9      	ldr	r3, [pc, #804]	; (8007a6c <USBH_MIDI_Process.lto_priv.167+0x15d0>)
 8007748:	ee67 7a87 	vmul.f32	s15, s15, s14
 800774c:	edc3 7a00 	vstr	s15, [r3]
 8007750:	f7ff b9ac 	b.w	8006aac <USBH_MIDI_Process.lto_priv.167+0x610>
 8007754:	eef8 7ae7 	vcvt.f32.s32	s15, s15
 8007758:	eeb1 7a04 	vmov.f32	s14, #20
 800775c:	ee67 7a87 	vmul.f32	s15, s15, s14
 8007760:	f8df c388 	ldr.w	ip, [pc, #904]	; 8007aec <USBH_MIDI_Process.lto_priv.167+0x1650>
 8007764:	f8df e388 	ldr.w	lr, [pc, #904]	; 8007af0 <USBH_MIDI_Process.lto_priv.167+0x1654>
 8007768:	48c2      	ldr	r0, [pc, #776]	; (8007a74 <USBH_MIDI_Process.lto_priv.167+0x15d8>)
 800776a:	49c3      	ldr	r1, [pc, #780]	; (8007a78 <USBH_MIDI_Process.lto_priv.167+0x15dc>)
 800776c:	4ac3      	ldr	r2, [pc, #780]	; (8007a7c <USBH_MIDI_Process.lto_priv.167+0x15e0>)
 800776e:	4bc4      	ldr	r3, [pc, #784]	; (8007a80 <USBH_MIDI_Process.lto_priv.167+0x15e4>)
 8007770:	eec7 7a88 	vdiv.f32	s15, s15, s16
 8007774:	ee67 7aa7 	vmul.f32	s15, s15, s15
 8007778:	edcc 7a00 	vstr	s15, [ip]
 800777c:	edce 7a00 	vstr	s15, [lr]
 8007780:	edc0 7a00 	vstr	s15, [r0]
 8007784:	edc1 7a01 	vstr	s15, [r1, #4]
 8007788:	edc2 7a01 	vstr	s15, [r2, #4]
 800778c:	edc3 7a01 	vstr	s15, [r3, #4]
 8007790:	f7ff b98c 	b.w	8006aac <USBH_MIDI_Process.lto_priv.167+0x610>
 8007794:	eef8 0ae7 	vcvt.f32.s32	s1, s15
 8007798:	ed9f 0aba 	vldr	s0, [pc, #744]	; 8007a84 <USBH_MIDI_Process.lto_priv.167+0x15e8>
 800779c:	eec0 0a88 	vdiv.f32	s1, s1, s16
 80077a0:	f006 fe72 	bl	800e488 <powf>
 80077a4:	4bb8      	ldr	r3, [pc, #736]	; (8007a88 <USBH_MIDI_Process.lto_priv.167+0x15ec>)
 80077a6:	ed83 0a00 	vstr	s0, [r3]
 80077aa:	f7ff b97f 	b.w	8006aac <USBH_MIDI_Process.lto_priv.167+0x610>
 80077ae:	eb01 03c1 	add.w	r3, r1, r1, lsl #3
 80077b2:	eb01 0343 	add.w	r3, r1, r3, lsl #1
 80077b6:	ee07 3a90 	vmov	s15, r3
 80077ba:	eef8 7ae7 	vcvt.f32.s32	s15, s15
 80077be:	4bb3      	ldr	r3, [pc, #716]	; (8007a8c <USBH_MIDI_Process.lto_priv.167+0x15f0>)
 80077c0:	ed9f 6ab3 	vldr	s12, [pc, #716]	; 8007a90 <USBH_MIDI_Process.lto_priv.167+0x15f4>
 80077c4:	ed93 7a01 	vldr	s14, [r3, #4]
 80077c8:	49b2      	ldr	r1, [pc, #712]	; (8007a94 <USBH_MIDI_Process.lto_priv.167+0x15f8>)
 80077ca:	4ab3      	ldr	r2, [pc, #716]	; (8007a98 <USBH_MIDI_Process.lto_priv.167+0x15fc>)
 80077cc:	eec7 6a88 	vdiv.f32	s13, s15, s16
 80077d0:	eef7 7a00 	vmov.f32	s15, #112	; 0x70
 80077d4:	ee76 7aa7 	vadd.f32	s15, s13, s15
 80077d8:	ee67 7a87 	vmul.f32	s15, s15, s14
 80077dc:	eef4 7ac6 	vcmpe.f32	s15, s12
 80077e0:	eef1 fa10 	vmrs	APSR_nzcv, fpscr
 80077e4:	f300 81b5 	bgt.w	8007b52 <USBH_MIDI_Process.lto_priv.167+0x16b6>
 80077e8:	edc3 7a00 	vstr	s15, [r3]
 80077ec:	edc1 7a00 	vstr	s15, [r1]
 80077f0:	edc2 7a00 	vstr	s15, [r2]
 80077f4:	f7ff b95a 	b.w	8006aac <USBH_MIDI_Process.lto_priv.167+0x610>
 80077f8:	9101      	str	r1, [sp, #4]
 80077fa:	f8bd 2004 	ldrh.w	r2, [sp, #4]
 80077fe:	ed9f 7aa7 	vldr	s14, [pc, #668]	; 8007a9c <USBH_MIDI_Process.lto_priv.167+0x1600>
 8007802:	49a4      	ldr	r1, [pc, #656]	; (8007a94 <USBH_MIDI_Process.lto_priv.167+0x15f8>)
 8007804:	2332      	movs	r3, #50	; 0x32
 8007806:	fb12 f303 	smulbb	r3, r2, r3
 800780a:	ee07 3a90 	vmov	s15, r3
 800780e:	eef8 7ae7 	vcvt.f32.s32	s15, s15
 8007812:	4aa1      	ldr	r2, [pc, #644]	; (8007a98 <USBH_MIDI_Process.lto_priv.167+0x15fc>)
 8007814:	4b9d      	ldr	r3, [pc, #628]	; (8007a8c <USBH_MIDI_Process.lto_priv.167+0x15f0>)
 8007816:	eec7 7a88 	vdiv.f32	s15, s15, s16
 800781a:	ee77 7a87 	vadd.f32	s15, s15, s14
 800781e:	edc1 7a01 	vstr	s15, [r1, #4]
 8007822:	edc2 7a01 	vstr	s15, [r2, #4]
 8007826:	edc3 7a01 	vstr	s15, [r3, #4]
 800782a:	f7ff b93f 	b.w	8006aac <USBH_MIDI_Process.lto_priv.167+0x610>
 800782e:	eef8 7ae7 	vcvt.f32.s32	s15, s15
 8007832:	4998      	ldr	r1, [pc, #608]	; (8007a94 <USBH_MIDI_Process.lto_priv.167+0x15f8>)
 8007834:	4a98      	ldr	r2, [pc, #608]	; (8007a98 <USBH_MIDI_Process.lto_priv.167+0x15fc>)
 8007836:	4b95      	ldr	r3, [pc, #596]	; (8007a8c <USBH_MIDI_Process.lto_priv.167+0x15f0>)
 8007838:	eec7 7a88 	vdiv.f32	s15, s15, s16
 800783c:	ee67 7aa7 	vmul.f32	s15, s15, s15
 8007840:	edc1 7a02 	vstr	s15, [r1, #8]
 8007844:	edc2 7a02 	vstr	s15, [r2, #8]
 8007848:	edc3 7a02 	vstr	s15, [r3, #8]
 800784c:	f7ff b92e 	b.w	8006aac <USBH_MIDI_Process.lto_priv.167+0x610>
 8007850:	eef8 7ae7 	vcvt.f32.s32	s15, s15
 8007854:	ed9f 7a84 	vldr	s14, [pc, #528]	; 8007a68 <USBH_MIDI_Process.lto_priv.167+0x15cc>
 8007858:	4b91      	ldr	r3, [pc, #580]	; (8007aa0 <USBH_MIDI_Process.lto_priv.167+0x1604>)
 800785a:	ee67 7a87 	vmul.f32	s15, s15, s14
 800785e:	edc3 7a02 	vstr	s15, [r3, #8]
 8007862:	f7ff b923 	b.w	8006aac <USBH_MIDI_Process.lto_priv.167+0x610>
 8007866:	eef8 7ae7 	vcvt.f32.s32	s15, s15
 800786a:	4b8d      	ldr	r3, [pc, #564]	; (8007aa0 <USBH_MIDI_Process.lto_priv.167+0x1604>)
 800786c:	eec7 7a88 	vdiv.f32	s15, s15, s16
 8007870:	edc3 7a00 	vstr	s15, [r3]
 8007874:	f7ff b91a 	b.w	8006aac <USBH_MIDI_Process.lto_priv.167+0x610>
 8007878:	eb01 0381 	add.w	r3, r1, r1, lsl #2
 800787c:	ee07 3a90 	vmov	s15, r3
 8007880:	eeb8 0ae7 	vcvt.f32.s32	s0, s15
 8007884:	ee80 0a08 	vdiv.f32	s0, s0, s16
 8007888:	f006 fd12 	bl	800e2b0 <lrintf>
 800788c:	4b85      	ldr	r3, [pc, #532]	; (8007aa4 <USBH_MIDI_Process.lto_priv.167+0x1608>)
 800788e:	7018      	strb	r0, [r3, #0]
 8007890:	f7ff b90c 	b.w	8006aac <USBH_MIDI_Process.lto_priv.167+0x610>
 8007894:	eef8 7ae7 	vcvt.f32.s32	s15, s15
 8007898:	eeb1 7a08 	vmov.f32	s14, #24
 800789c:	eec7 7a88 	vdiv.f32	s15, s15, s16
 80078a0:	4b80      	ldr	r3, [pc, #512]	; (8007aa4 <USBH_MIDI_Process.lto_priv.167+0x1608>)
 80078a2:	ee67 7aa7 	vmul.f32	s15, s15, s15
 80078a6:	ee67 7a87 	vmul.f32	s15, s15, s14
 80078aa:	edc3 7a06 	vstr	s15, [r3, #24]
 80078ae:	f7ff b8fd 	b.w	8006aac <USBH_MIDI_Process.lto_priv.167+0x610>
 80078b2:	eef8 7ae7 	vcvt.f32.s32	s15, s15
 80078b6:	eef4 7a48 	vcmp.f32	s15, s16
 80078ba:	eef1 fa10 	vmrs	APSR_nzcv, fpscr
 80078be:	f47f a8f5 	bne.w	8006aac <USBH_MIDI_Process.lto_priv.167+0x610>
 80078c2:	4b79      	ldr	r3, [pc, #484]	; (8007aa8 <USBH_MIDI_Process.lto_priv.167+0x160c>)
 80078c4:	eddf 7a79 	vldr	s15, [pc, #484]	; 8007aac <USBH_MIDI_Process.lto_priv.167+0x1610>
 80078c8:	ed93 7a06 	vldr	s14, [r3, #24]
 80078cc:	ee67 7a27 	vmul.f32	s15, s14, s15
 80078d0:	edc3 7a06 	vstr	s15, [r3, #24]
 80078d4:	f7ff b8ea 	b.w	8006aac <USBH_MIDI_Process.lto_priv.167+0x610>
 80078d8:	eef8 0ae7 	vcvt.f32.s32	s1, s15
 80078dc:	ed9f 0a74 	vldr	s0, [pc, #464]	; 8007ab0 <USBH_MIDI_Process.lto_priv.167+0x1614>
 80078e0:	eec0 0a88 	vdiv.f32	s1, s1, s16
 80078e4:	f006 fdd0 	bl	800e488 <powf>
 80078e8:	4a72      	ldr	r2, [pc, #456]	; (8007ab4 <USBH_MIDI_Process.lto_priv.167+0x1618>)
 80078ea:	4b6e      	ldr	r3, [pc, #440]	; (8007aa4 <USBH_MIDI_Process.lto_priv.167+0x1608>)
 80078ec:	eddf 7a72 	vldr	s15, [pc, #456]	; 8007ab8 <USBH_MIDI_Process.lto_priv.167+0x161c>
 80078f0:	ed9f 7a72 	vldr	s14, [pc, #456]	; 8007abc <USBH_MIDI_Process.lto_priv.167+0x1620>
 80078f4:	ed9f 5a72 	vldr	s10, [pc, #456]	; 8007ac0 <USBH_MIDI_Process.lto_priv.167+0x1624>
 80078f8:	eddf 5a72 	vldr	s11, [pc, #456]	; 8007ac4 <USBH_MIDI_Process.lto_priv.167+0x1628>
 80078fc:	ee20 0a27 	vmul.f32	s0, s0, s15
 8007900:	eef6 6a00 	vmov.f32	s13, #96	; 0x60
 8007904:	eec0 7a07 	vdiv.f32	s15, s0, s14
 8007908:	eeb9 6a04 	vmov.f32	s12, #148	; 0x94
 800790c:	eef4 7a45 	vcmp.f32	s15, s10
 8007910:	eef1 fa10 	vmrs	APSR_nzcv, fpscr
 8007914:	edc2 7a00 	vstr	s15, [r2]
 8007918:	bfc8      	it	gt
 800791a:	eef0 7a45 	vmovgt.f32	s15, s10
 800791e:	ee67 7aa6 	vmul.f32	s15, s15, s13
 8007922:	eeba 5a0e 	vmov.f32	s10, #174	; 0xae
 8007926:	ee67 5aa5 	vmul.f32	s11, s15, s11
 800792a:	eeb0 7a08 	vmov.f32	s14, #8
 800792e:	ee75 4aa5 	vadd.f32	s9, s11, s11
 8007932:	ee65 6aa5 	vmul.f32	s13, s11, s11
 8007936:	eea5 6aa4 	vfma.f32	s12, s11, s9
 800793a:	ee65 6aa6 	vmul.f32	s13, s11, s13
 800793e:	ee26 7a07 	vmul.f32	s14, s12, s14
 8007942:	eee5 6a85 	vfma.f32	s13, s11, s10
 8007946:	edc3 7a01 	vstr	s15, [r3, #4]
 800794a:	eec6 7a87 	vdiv.f32	s15, s13, s14
 800794e:	edc3 7a02 	vstr	s15, [r3, #8]
 8007952:	f7ff b8ab 	b.w	8006aac <USBH_MIDI_Process.lto_priv.167+0x610>
 8007956:	eefa 7aef 	vcvt.f32.s32	s15, s15, #1
 800795a:	ed9f 6a5b 	vldr	s12, [pc, #364]	; 8007ac8 <USBH_MIDI_Process.lto_priv.167+0x162c>
 800795e:	4b5b      	ldr	r3, [pc, #364]	; (8007acc <USBH_MIDI_Process.lto_priv.167+0x1630>)
 8007960:	eddf 6a56 	vldr	s13, [pc, #344]	; 8007abc <USBH_MIDI_Process.lto_priv.167+0x1620>
 8007964:	ed93 7a02 	vldr	s14, [r3, #8]
 8007968:	eec7 7a88 	vdiv.f32	s15, s15, s16
 800796c:	ee77 7a86 	vadd.f32	s15, s15, s12
 8007970:	ee67 7aa6 	vmul.f32	s15, s15, s13
 8007974:	eec7 7a27 	vdiv.f32	s15, s14, s15
 8007978:	edc3 7a03 	vstr	s15, [r3, #12]
 800797c:	f7ff b896 	b.w	8006aac <USBH_MIDI_Process.lto_priv.167+0x610>
 8007980:	eef8 7ae7 	vcvt.f32.s32	s15, s15
 8007984:	4b51      	ldr	r3, [pc, #324]	; (8007acc <USBH_MIDI_Process.lto_priv.167+0x1630>)
 8007986:	eec7 7a88 	vdiv.f32	s15, s15, s16
 800798a:	edc3 7a02 	vstr	s15, [r3, #8]
 800798e:	f7ff b88d 	b.w	8006aac <USBH_MIDI_Process.lto_priv.167+0x610>
 8007992:	ed9f 7a4f 	vldr	s14, [pc, #316]	; 8007ad0 <USBH_MIDI_Process.lto_priv.167+0x1634>
 8007996:	ed9f 6a4c 	vldr	s12, [pc, #304]	; 8007ac8 <USBH_MIDI_Process.lto_priv.167+0x162c>
 800799a:	eddf 6a48 	vldr	s13, [pc, #288]	; 8007abc <USBH_MIDI_Process.lto_priv.167+0x1620>
 800799e:	4b4b      	ldr	r3, [pc, #300]	; (8007acc <USBH_MIDI_Process.lto_priv.167+0x1630>)
 80079a0:	eef8 7ae7 	vcvt.f32.s32	s15, s15
 80079a4:	ee67 7a87 	vmul.f32	s15, s15, s14
 80079a8:	eeb7 7a00 	vmov.f32	s14, #112	; 0x70
 80079ac:	eec7 7a88 	vdiv.f32	s15, s15, s16
 80079b0:	ee77 7a86 	vadd.f32	s15, s15, s12
 80079b4:	ee67 7aa6 	vmul.f32	s15, s15, s13
 80079b8:	eec7 7a27 	vdiv.f32	s15, s14, s15
 80079bc:	edc3 7a01 	vstr	s15, [r3, #4]
 80079c0:	f7ff b874 	b.w	8006aac <USBH_MIDI_Process.lto_priv.167+0x610>
 80079c4:	eef8 7ae7 	vcvt.f32.s32	s15, s15
 80079c8:	ed9f 6a3f 	vldr	s12, [pc, #252]	; 8007ac8 <USBH_MIDI_Process.lto_priv.167+0x162c>
 80079cc:	eddf 6a3b 	vldr	s13, [pc, #236]	; 8007abc <USBH_MIDI_Process.lto_priv.167+0x1620>
 80079d0:	4b3e      	ldr	r3, [pc, #248]	; (8007acc <USBH_MIDI_Process.lto_priv.167+0x1630>)
 80079d2:	eec7 7a88 	vdiv.f32	s15, s15, s16
 80079d6:	eeb7 7a00 	vmov.f32	s14, #112	; 0x70
 80079da:	ee77 7a86 	vadd.f32	s15, s15, s12
 80079de:	ee67 7aa6 	vmul.f32	s15, s15, s13
 80079e2:	eec7 7a27 	vdiv.f32	s15, s14, s15
 80079e6:	edc3 7a00 	vstr	s15, [r3]
 80079ea:	f7ff b85f 	b.w	8006aac <USBH_MIDI_Process.lto_priv.167+0x610>
 80079ee:	ed9f 7a39 	vldr	s14, [pc, #228]	; 8007ad4 <USBH_MIDI_Process.lto_priv.167+0x1638>
 80079f2:	4b39      	ldr	r3, [pc, #228]	; (8007ad8 <USBH_MIDI_Process.lto_priv.167+0x163c>)
 80079f4:	eddf 6a29 	vldr	s13, [pc, #164]	; 8007a9c <USBH_MIDI_Process.lto_priv.167+0x1600>
 80079f8:	eef8 7ae7 	vcvt.f32.s32	s15, s15
 80079fc:	ee67 7a87 	vmul.f32	s15, s15, s14
 8007a00:	ed93 7a09 	vldr	s14, [r3, #36]	; 0x24
 8007a04:	eec7 7a88 	vdiv.f32	s15, s15, s16
 8007a08:	eeb8 7ac7 	vcvt.f32.s32	s14, s14
 8007a0c:	ee77 7aa6 	vadd.f32	s15, s15, s13
 8007a10:	ee67 7a27 	vmul.f32	s15, s14, s15
 8007a14:	eefc 7ae7 	vcvt.u32.f32	s15, s15
 8007a18:	edc3 7a0c 	vstr	s15, [r3, #48]	; 0x30
 8007a1c:	f7ff b846 	b.w	8006aac <USBH_MIDI_Process.lto_priv.167+0x610>
 8007a20:	eef8 7ae7 	vcvt.f32.s32	s15, s15
 8007a24:	eef4 7a48 	vcmp.f32	s15, s16
 8007a28:	eef1 fa10 	vmrs	APSR_nzcv, fpscr
 8007a2c:	f47f a83e 	bne.w	8006aac <USBH_MIDI_Process.lto_priv.167+0x610>
 8007a30:	4b2a      	ldr	r3, [pc, #168]	; (8007adc <USBH_MIDI_Process.lto_priv.167+0x1640>)
 8007a32:	681a      	ldr	r2, [r3, #0]
 8007a34:	f247 511b 	movw	r1, #29979	; 0x751b
 8007a38:	428a      	cmp	r2, r1
 8007a3a:	bf9c      	itt	ls
 8007a3c:	3214      	addls	r2, #20
 8007a3e:	601a      	strls	r2, [r3, #0]
 8007a40:	4a27      	ldr	r2, [pc, #156]	; (8007ae0 <USBH_MIDI_Process.lto_priv.167+0x1644>)
 8007a42:	6819      	ldr	r1, [r3, #0]
 8007a44:	6813      	ldr	r3, [r2, #0]
 8007a46:	4a27      	ldr	r2, [pc, #156]	; (8007ae4 <USBH_MIDI_Process.lto_priv.167+0x1648>)
 8007a48:	eba3 0381 	sub.w	r3, r3, r1, lsl #2
 8007a4c:	4293      	cmp	r3, r2
 8007a4e:	bf37      	itett	cc
 8007a50:	f503 33ea 	addcc.w	r3, r3, #119808	; 0x1d400
 8007a54:	4a24      	ldrcs	r2, [pc, #144]	; (8007ae8 <USBH_MIDI_Process.lto_priv.167+0x164c>)
 8007a56:	4a24      	ldrcc	r2, [pc, #144]	; (8007ae8 <USBH_MIDI_Process.lto_priv.167+0x164c>)
 8007a58:	33bc      	addcc	r3, #188	; 0xbc
 8007a5a:	6013      	str	r3, [r2, #0]
 8007a5c:	f7ff b826 	b.w	8006aac <USBH_MIDI_Process.lto_priv.167+0x610>
 8007a60:	100000e8 	.word	0x100000e8
 8007a64:	2000004c 	.word	0x2000004c
 8007a68:	3dc18306 	.word	0x3dc18306
 8007a6c:	1000123c 	.word	0x1000123c
 8007a70:	3e810204 	.word	0x3e810204
 8007a74:	10000c08 	.word	0x10000c08
 8007a78:	10000ccc 	.word	0x10000ccc
 8007a7c:	1000068c 	.word	0x1000068c
 8007a80:	10000134 	.word	0x10000134
 8007a84:	45bb8000 	.word	0x45bb8000
 8007a88:	20000054 	.word	0x20000054
 8007a8c:	10000c28 	.word	0x10000c28
 8007a90:	461c4000 	.word	0x461c4000
 8007a94:	10000c80 	.word	0x10000c80
 8007a98:	10000c54 	.word	0x10000c54
 8007a9c:	3dcccccd 	.word	0x3dcccccd
 8007aa0:	10001218 	.word	0x10001218
 8007aa4:	100000c8 	.word	0x100000c8
 8007aa8:	10000cac 	.word	0x10000cac
 8007aac:	3f7d70a4 	.word	0x3f7d70a4
 8007ab0:	42c80000 	.word	0x42c80000
 8007ab4:	2001f0d0 	.word	0x2001f0d0
 8007ab8:	42a00000 	.word	0x42a00000
 8007abc:	472c4400 	.word	0x472c4400
 8007ac0:	3f733333 	.word	0x3f733333
 8007ac4:	40490fdb 	.word	0x40490fdb
 8007ac8:	38d1b717 	.word	0x38d1b717
 8007acc:	1000009c 	.word	0x1000009c
 8007ad0:	3e4ccccd 	.word	0x3e4ccccd
 8007ad4:	3f4ccccc 	.word	0x3f4ccccc
 8007ad8:	10000000 	.word	0x10000000
 8007adc:	20001944 	.word	0x20001944
 8007ae0:	2001f0c4 	.word	0x2001f0c4
 8007ae4:	20001bf8 	.word	0x20001bf8
 8007ae8:	2001f0fc 	.word	0x2001f0fc
 8007aec:	10000114 	.word	0x10000114
 8007af0:	10000be8 	.word	0x10000be8
 8007af4:	eef8 7ae7 	vcvt.f32.s32	s15, s15
 8007af8:	eef4 7a48 	vcmp.f32	s15, s16
 8007afc:	eef1 fa10 	vmrs	APSR_nzcv, fpscr
 8007b00:	f47e afd4 	bne.w	8006aac <USBH_MIDI_Process.lto_priv.167+0x610>
 8007b04:	4b41      	ldr	r3, [pc, #260]	; (8007c0c <USBH_MIDI_Process.lto_priv.167+0x1770>)
 8007b06:	681a      	ldr	r2, [r3, #0]
 8007b08:	f5b2 7f87 	cmp.w	r2, #270	; 0x10e
 8007b0c:	bf84      	itt	hi
 8007b0e:	3a14      	subhi	r2, #20
 8007b10:	601a      	strhi	r2, [r3, #0]
 8007b12:	4a3f      	ldr	r2, [pc, #252]	; (8007c10 <USBH_MIDI_Process.lto_priv.167+0x1774>)
 8007b14:	6819      	ldr	r1, [r3, #0]
 8007b16:	6813      	ldr	r3, [r2, #0]
 8007b18:	4a3e      	ldr	r2, [pc, #248]	; (8007c14 <USBH_MIDI_Process.lto_priv.167+0x1778>)
 8007b1a:	eba3 0381 	sub.w	r3, r3, r1, lsl #2
 8007b1e:	4293      	cmp	r3, r2
 8007b20:	bf37      	itett	cc
 8007b22:	f503 33ea 	addcc.w	r3, r3, #119808	; 0x1d400
 8007b26:	4a3c      	ldrcs	r2, [pc, #240]	; (8007c18 <USBH_MIDI_Process.lto_priv.167+0x177c>)
 8007b28:	4a3b      	ldrcc	r2, [pc, #236]	; (8007c18 <USBH_MIDI_Process.lto_priv.167+0x177c>)
 8007b2a:	33bc      	addcc	r3, #188	; 0xbc
 8007b2c:	6013      	str	r3, [r2, #0]
 8007b2e:	f7fe bfbd 	b.w	8006aac <USBH_MIDI_Process.lto_priv.167+0x610>
 8007b32:	f8d7 35c4 	ldr.w	r3, [r7, #1476]	; 0x5c4
 8007b36:	69db      	ldr	r3, [r3, #28]
 8007b38:	f7fe bd1b 	b.w	8006572 <USBH_MIDI_Process.lto_priv.167+0xd6>
 8007b3c:	2b00      	cmp	r3, #0
 8007b3e:	f47e af2d 	bne.w	800699c <USBH_MIDI_Process.lto_priv.167+0x500>
 8007b42:	2307      	movs	r3, #7
 8007b44:	7623      	strb	r3, [r4, #24]
 8007b46:	f7fe bcb8 	b.w	80064ba <USBH_MIDI_Process.lto_priv.167+0x1e>
 8007b4a:	2303      	movs	r3, #3
 8007b4c:	7603      	strb	r3, [r0, #24]
 8007b4e:	f7fe bcb4 	b.w	80064ba <USBH_MIDI_Process.lto_priv.167+0x1e>
 8007b52:	ed83 6a00 	vstr	s12, [r3]
 8007b56:	ed81 6a00 	vstr	s12, [r1]
 8007b5a:	ed82 6a00 	vstr	s12, [r2]
 8007b5e:	f7fe bfa5 	b.w	8006aac <USBH_MIDI_Process.lto_priv.167+0x610>
 8007b62:	69d6      	ldr	r6, [r2, #28]
 8007b64:	f7fe bf5b 	b.w	8006a1e <USBH_MIDI_Process.lto_priv.167+0x582>
 8007b68:	2202      	movs	r2, #2
 8007b6a:	701a      	strb	r2, [r3, #0]
 8007b6c:	f7fe bf9e 	b.w	8006aac <USBH_MIDI_Process.lto_priv.167+0x610>
 8007b70:	f8df c0c0 	ldr.w	ip, [pc, #192]	; 8007c34 <USBH_MIDI_Process.lto_priv.167+0x1798>
 8007b74:	f8df 90c0 	ldr.w	r9, [pc, #192]	; 8007c38 <USBH_MIDI_Process.lto_priv.167+0x179c>
 8007b78:	f8df e0c0 	ldr.w	lr, [pc, #192]	; 8007c3c <USBH_MIDI_Process.lto_priv.167+0x17a0>
 8007b7c:	4827      	ldr	r0, [pc, #156]	; (8007c1c <USBH_MIDI_Process.lto_priv.167+0x1780>)
 8007b7e:	4928      	ldr	r1, [pc, #160]	; (8007c20 <USBH_MIDI_Process.lto_priv.167+0x1784>)
 8007b80:	4a28      	ldr	r2, [pc, #160]	; (8007c24 <USBH_MIDI_Process.lto_priv.167+0x1788>)
 8007b82:	eddc 7a00 	vldr	s15, [ip]
 8007b86:	f8d9 a000 	ldr.w	sl, [r9]
 8007b8a:	f8c9 a004 	str.w	sl, [r9, #4]
 8007b8e:	2300      	movs	r3, #0
 8007b90:	f8de b000 	ldr.w	fp, [lr]
 8007b94:	f8d0 a004 	ldr.w	sl, [r0, #4]
 8007b98:	f8c9 3000 	str.w	r3, [r9]
 8007b9c:	edcc 7a01 	vstr	s15, [ip, #4]
 8007ba0:	f8d1 9004 	ldr.w	r9, [r1, #4]
 8007ba4:	f8cc 3000 	str.w	r3, [ip]
 8007ba8:	f8d2 c004 	ldr.w	ip, [r2, #4]
 8007bac:	f8ce b004 	str.w	fp, [lr, #4]
 8007bb0:	f8ce 3000 	str.w	r3, [lr]
 8007bb4:	f8c0 a008 	str.w	sl, [r0, #8]
 8007bb8:	6043      	str	r3, [r0, #4]
 8007bba:	f8c1 9008 	str.w	r9, [r1, #8]
 8007bbe:	604b      	str	r3, [r1, #4]
 8007bc0:	6053      	str	r3, [r2, #4]
 8007bc2:	f8c2 c008 	str.w	ip, [r2, #8]
 8007bc6:	f7fe bf71 	b.w	8006aac <USBH_MIDI_Process.lto_priv.167+0x610>
 8007bca:	4b17      	ldr	r3, [pc, #92]	; (8007c28 <USBH_MIDI_Process.lto_priv.167+0x178c>)
 8007bcc:	9101      	str	r1, [sp, #4]
 8007bce:	f89d 2004 	ldrb.w	r2, [sp, #4]
 8007bd2:	739a      	strb	r2, [r3, #14]
 8007bd4:	f7fe bf6a 	b.w	8006aac <USBH_MIDI_Process.lto_priv.167+0x610>
 8007bd8:	ed96 0a01 	vldr	s0, [r6, #4]
 8007bdc:	f006 fb18 	bl	800e210 <fabsf>
 8007be0:	eef1 7a40 	vneg.f32	s15, s0
 8007be4:	ed95 0a01 	vldr	s0, [r5, #4]
 8007be8:	edc6 7a01 	vstr	s15, [r6, #4]
 8007bec:	f006 fb10 	bl	800e210 <fabsf>
 8007bf0:	eeb1 0a40 	vneg.f32	s0, s0
 8007bf4:	ed85 0a01 	vstr	s0, [r5, #4]
 8007bf8:	f7fe bf58 	b.w	8006aac <USBH_MIDI_Process.lto_priv.167+0x610>
 8007bfc:	490b      	ldr	r1, [pc, #44]	; (8007c2c <USBH_MIDI_Process.lto_priv.167+0x1790>)
 8007bfe:	4a0c      	ldr	r2, [pc, #48]	; (8007c30 <USBH_MIDI_Process.lto_priv.167+0x1794>)
 8007c00:	2301      	movs	r3, #1
 8007c02:	700b      	strb	r3, [r1, #0]
 8007c04:	7013      	strb	r3, [r2, #0]
 8007c06:	f7fe bf51 	b.w	8006aac <USBH_MIDI_Process.lto_priv.167+0x610>
 8007c0a:	bf00      	nop
 8007c0c:	20001944 	.word	0x20001944
 8007c10:	2001f0c4 	.word	0x2001f0c4
 8007c14:	20001bf8 	.word	0x20001bf8
 8007c18:	2001f0fc 	.word	0x2001f0fc
 8007c1c:	10000ccc 	.word	0x10000ccc
 8007c20:	1000068c 	.word	0x1000068c
 8007c24:	10000134 	.word	0x10000134
 8007c28:	10000034 	.word	0x10000034
 8007c2c:	10002894 	.word	0x10002894
 8007c30:	10003e9c 	.word	0x10003e9c
 8007c34:	10000be8 	.word	0x10000be8
 8007c38:	10000114 	.word	0x10000114
 8007c3c:	10000c08 	.word	0x10000c08

08007c40 <HAL_DMA_IRQHandler>:
HAL_DMA_IRQHandler():
 8007c40:	4ab1      	ldr	r2, [pc, #708]	; (8007f08 <HAL_DMA_IRQHandler+0x2c8>)
 8007c42:	6803      	ldr	r3, [r0, #0]
 8007c44:	4293      	cmp	r3, r2
 8007c46:	b570      	push	{r4, r5, r6, lr}
 8007c48:	4604      	mov	r4, r0
 8007c4a:	f240 80b6 	bls.w	8007dba <HAL_DMA_IRQHandler+0x17a>
 8007c4e:	49af      	ldr	r1, [pc, #700]	; (8007f0c <HAL_DMA_IRQHandler+0x2cc>)
 8007c50:	f852 0c54 	ldr.w	r0, [r2, #-84]
 8007c54:	3a58      	subs	r2, #88	; 0x58
 8007c56:	428b      	cmp	r3, r1
 8007c58:	f000 80e5 	beq.w	8007e26 <HAL_DMA_IRQHandler+0x1e6>
 8007c5c:	3118      	adds	r1, #24
 8007c5e:	428b      	cmp	r3, r1
 8007c60:	f000 84bb 	beq.w	80085da <HAL_DMA_IRQHandler+0x99a>
 8007c64:	3118      	adds	r1, #24
 8007c66:	428b      	cmp	r3, r1
 8007c68:	f000 8591 	beq.w	800878e <HAL_DMA_IRQHandler+0xb4e>
 8007c6c:	0186      	lsls	r6, r0, #6
 8007c6e:	f100 8166 	bmi.w	8007f3e <HAL_DMA_IRQHandler+0x2fe>
 8007c72:	6851      	ldr	r1, [r2, #4]
 8007c74:	f44f 0280 	mov.w	r2, #4194304	; 0x400000
 8007c78:	420a      	tst	r2, r1
 8007c7a:	d02a      	beq.n	8007cd2 <HAL_DMA_IRQHandler+0x92>
 8007c7c:	695a      	ldr	r2, [r3, #20]
 8007c7e:	0612      	lsls	r2, r2, #24
 8007c80:	d523      	bpl.n	8007cca <HAL_DMA_IRQHandler+0x8a>
 8007c82:	695a      	ldr	r2, [r3, #20]
 8007c84:	49a1      	ldr	r1, [pc, #644]	; (8007f0c <HAL_DMA_IRQHandler+0x2cc>)
 8007c86:	f022 0280 	bic.w	r2, r2, #128	; 0x80
 8007c8a:	428b      	cmp	r3, r1
 8007c8c:	615a      	str	r2, [r3, #20]
 8007c8e:	f000 8611 	beq.w	80088b4 <HAL_DMA_IRQHandler+0xc74>
 8007c92:	4a9f      	ldr	r2, [pc, #636]	; (8007f10 <HAL_DMA_IRQHandler+0x2d0>)
 8007c94:	4293      	cmp	r3, r2
 8007c96:	f000 8591 	beq.w	80087bc <HAL_DMA_IRQHandler+0xb7c>
 8007c9a:	499e      	ldr	r1, [pc, #632]	; (8007f14 <HAL_DMA_IRQHandler+0x2d4>)
 8007c9c:	428b      	cmp	r3, r1
 8007c9e:	bf0c      	ite	eq
 8007ca0:	f44f 3180 	moveq.w	r1, #65536	; 0x10000
 8007ca4:	f44f 0180 	movne.w	r1, #4194304	; 0x400000
 8007ca8:	4a9b      	ldr	r2, [pc, #620]	; (8007f18 <HAL_DMA_IRQHandler+0x2d8>)
 8007caa:	60d1      	str	r1, [r2, #12]
 8007cac:	6ce2      	ldr	r2, [r4, #76]	; 0x4c
 8007cae:	6ca1      	ldr	r1, [r4, #72]	; 0x48
 8007cb0:	f042 0202 	orr.w	r2, r2, #2
 8007cb4:	2004      	movs	r0, #4
 8007cb6:	2500      	movs	r5, #0
 8007cb8:	64e2      	str	r2, [r4, #76]	; 0x4c
 8007cba:	f884 5034 	strb.w	r5, [r4, #52]	; 0x34
 8007cbe:	f884 0035 	strb.w	r0, [r4, #53]	; 0x35
 8007cc2:	b111      	cbz	r1, 8007cca <HAL_DMA_IRQHandler+0x8a>
 8007cc4:	4620      	mov	r0, r4
 8007cc6:	4788      	blx	r1
 8007cc8:	6823      	ldr	r3, [r4, #0]
 8007cca:	4a8f      	ldr	r2, [pc, #572]	; (8007f08 <HAL_DMA_IRQHandler+0x2c8>)
 8007ccc:	4293      	cmp	r3, r2
 8007cce:	f240 8218 	bls.w	8008102 <HAL_DMA_IRQHandler+0x4c2>
 8007cd2:	4a8e      	ldr	r2, [pc, #568]	; (8007f0c <HAL_DMA_IRQHandler+0x2cc>)
 8007cd4:	4990      	ldr	r1, [pc, #576]	; (8007f18 <HAL_DMA_IRQHandler+0x2d8>)
 8007cd6:	4293      	cmp	r3, r2
 8007cd8:	6849      	ldr	r1, [r1, #4]
 8007cda:	f000 85e5 	beq.w	80088a8 <HAL_DMA_IRQHandler+0xc68>
 8007cde:	4a8c      	ldr	r2, [pc, #560]	; (8007f10 <HAL_DMA_IRQHandler+0x2d0>)
 8007ce0:	4293      	cmp	r3, r2
 8007ce2:	f000 848b 	beq.w	80085fc <HAL_DMA_IRQHandler+0x9bc>
 8007ce6:	3218      	adds	r2, #24
 8007ce8:	4293      	cmp	r3, r2
 8007cea:	bf0c      	ite	eq
 8007cec:	f44f 2280 	moveq.w	r2, #262144	; 0x40000
 8007cf0:	f04f 7280 	movne.w	r2, #16777216	; 0x1000000
 8007cf4:	420a      	tst	r2, r1
 8007cf6:	d02e      	beq.n	8007d56 <HAL_DMA_IRQHandler+0x116>
 8007cf8:	681a      	ldr	r2, [r3, #0]
 8007cfa:	0790      	lsls	r0, r2, #30
 8007cfc:	d527      	bpl.n	8007d4e <HAL_DMA_IRQHandler+0x10e>
 8007cfe:	681a      	ldr	r2, [r3, #0]
 8007d00:	4981      	ldr	r1, [pc, #516]	; (8007f08 <HAL_DMA_IRQHandler+0x2c8>)
 8007d02:	f022 0202 	bic.w	r2, r2, #2
 8007d06:	428b      	cmp	r3, r1
 8007d08:	601a      	str	r2, [r3, #0]
 8007d0a:	f240 8258 	bls.w	80081be <HAL_DMA_IRQHandler+0x57e>
 8007d0e:	4a7f      	ldr	r2, [pc, #508]	; (8007f0c <HAL_DMA_IRQHandler+0x2cc>)
 8007d10:	4293      	cmp	r3, r2
 8007d12:	f000 8481 	beq.w	8008618 <HAL_DMA_IRQHandler+0x9d8>
 8007d16:	3218      	adds	r2, #24
 8007d18:	4293      	cmp	r3, r2
 8007d1a:	f000 8547 	beq.w	80087ac <HAL_DMA_IRQHandler+0xb6c>
 8007d1e:	3148      	adds	r1, #72	; 0x48
 8007d20:	428b      	cmp	r3, r1
 8007d22:	bf0c      	ite	eq
 8007d24:	f44f 2180 	moveq.w	r1, #262144	; 0x40000
 8007d28:	f04f 7180 	movne.w	r1, #16777216	; 0x1000000
 8007d2c:	4a7a      	ldr	r2, [pc, #488]	; (8007f18 <HAL_DMA_IRQHandler+0x2d8>)
 8007d2e:	60d1      	str	r1, [r2, #12]
 8007d30:	6ce2      	ldr	r2, [r4, #76]	; 0x4c
 8007d32:	6ca1      	ldr	r1, [r4, #72]	; 0x48
 8007d34:	f042 0204 	orr.w	r2, r2, #4
 8007d38:	2004      	movs	r0, #4
 8007d3a:	2500      	movs	r5, #0
 8007d3c:	64e2      	str	r2, [r4, #76]	; 0x4c
 8007d3e:	f884 5034 	strb.w	r5, [r4, #52]	; 0x34
 8007d42:	f884 0035 	strb.w	r0, [r4, #53]	; 0x35
 8007d46:	b111      	cbz	r1, 8007d4e <HAL_DMA_IRQHandler+0x10e>
 8007d48:	4620      	mov	r0, r4
 8007d4a:	4788      	blx	r1
 8007d4c:	6823      	ldr	r3, [r4, #0]
 8007d4e:	4a6e      	ldr	r2, [pc, #440]	; (8007f08 <HAL_DMA_IRQHandler+0x2c8>)
 8007d50:	4293      	cmp	r3, r2
 8007d52:	f240 8218 	bls.w	8008186 <HAL_DMA_IRQHandler+0x546>
 8007d56:	4a6d      	ldr	r2, [pc, #436]	; (8007f0c <HAL_DMA_IRQHandler+0x2cc>)
 8007d58:	496f      	ldr	r1, [pc, #444]	; (8007f18 <HAL_DMA_IRQHandler+0x2d8>)
 8007d5a:	4293      	cmp	r3, r2
 8007d5c:	6849      	ldr	r1, [r1, #4]
 8007d5e:	f000 85a6 	beq.w	80088ae <HAL_DMA_IRQHandler+0xc6e>
 8007d62:	4a6b      	ldr	r2, [pc, #428]	; (8007f10 <HAL_DMA_IRQHandler+0x2d0>)
 8007d64:	4293      	cmp	r3, r2
 8007d66:	f000 8445 	beq.w	80085f4 <HAL_DMA_IRQHandler+0x9b4>
 8007d6a:	3218      	adds	r2, #24
 8007d6c:	4293      	cmp	r3, r2
 8007d6e:	bf0c      	ite	eq
 8007d70:	f44f 1280 	moveq.w	r2, #1048576	; 0x100000
 8007d74:	f04f 6280 	movne.w	r2, #67108864	; 0x4000000
 8007d78:	420a      	tst	r2, r1
 8007d7a:	f000 82b1 	beq.w	80082e0 <HAL_DMA_IRQHandler+0x6a0>
 8007d7e:	681a      	ldr	r2, [r3, #0]
 8007d80:	0711      	lsls	r1, r2, #28
 8007d82:	f140 82aa 	bpl.w	80082da <HAL_DMA_IRQHandler+0x69a>
 8007d86:	681a      	ldr	r2, [r3, #0]
 8007d88:	0352      	lsls	r2, r2, #13
 8007d8a:	f140 82e6 	bpl.w	800835a <HAL_DMA_IRQHandler+0x71a>
 8007d8e:	4a5e      	ldr	r2, [pc, #376]	; (8007f08 <HAL_DMA_IRQHandler+0x2c8>)
 8007d90:	4293      	cmp	r3, r2
 8007d92:	f240 8327 	bls.w	80083e4 <HAL_DMA_IRQHandler+0x7a4>
 8007d96:	3218      	adds	r2, #24
 8007d98:	4293      	cmp	r3, r2
 8007d9a:	f000 8456 	beq.w	800864a <HAL_DMA_IRQHandler+0xa0a>
 8007d9e:	3218      	adds	r2, #24
 8007da0:	4293      	cmp	r3, r2
 8007da2:	f000 853b 	beq.w	800881c <HAL_DMA_IRQHandler+0xbdc>
 8007da6:	495b      	ldr	r1, [pc, #364]	; (8007f14 <HAL_DMA_IRQHandler+0x2d4>)
 8007da8:	428b      	cmp	r3, r1
 8007daa:	bf0c      	ite	eq
 8007dac:	f44f 1180 	moveq.w	r1, #1048576	; 0x100000
 8007db0:	f04f 6180 	movne.w	r1, #67108864	; 0x4000000
 8007db4:	4a58      	ldr	r2, [pc, #352]	; (8007f18 <HAL_DMA_IRQHandler+0x2d8>)
 8007db6:	60d1      	str	r1, [r2, #12]
 8007db8:	e32d      	b.n	8008416 <HAL_DMA_IRQHandler+0x7d6>
 8007dba:	4a58      	ldr	r2, [pc, #352]	; (8007f1c <HAL_DMA_IRQHandler+0x2dc>)
 8007dbc:	4293      	cmp	r3, r2
 8007dbe:	d916      	bls.n	8007dee <HAL_DMA_IRQHandler+0x1ae>
 8007dc0:	4957      	ldr	r1, [pc, #348]	; (8007f20 <HAL_DMA_IRQHandler+0x2e0>)
 8007dc2:	f8d2 0348 	ldr.w	r0, [r2, #840]	; 0x348
 8007dc6:	f502 7252 	add.w	r2, r2, #840	; 0x348
 8007dca:	428b      	cmp	r3, r1
 8007dcc:	f000 80b4 	beq.w	8007f38 <HAL_DMA_IRQHandler+0x2f8>
 8007dd0:	3118      	adds	r1, #24
 8007dd2:	428b      	cmp	r3, r1
 8007dd4:	f000 84b7 	beq.w	8008746 <HAL_DMA_IRQHandler+0xb06>
 8007dd8:	3118      	adds	r1, #24
 8007dda:	428b      	cmp	r3, r1
 8007ddc:	f000 84df 	beq.w	800879e <HAL_DMA_IRQHandler+0xb5e>
 8007de0:	0185      	lsls	r5, r0, #6
 8007de2:	f100 80ac 	bmi.w	8007f3e <HAL_DMA_IRQHandler+0x2fe>
 8007de6:	6812      	ldr	r2, [r2, #0]
 8007de8:	f44f 0180 	mov.w	r1, #4194304	; 0x400000
 8007dec:	e169      	b.n	80080c2 <HAL_DMA_IRQHandler+0x482>
 8007dee:	4a4d      	ldr	r2, [pc, #308]	; (8007f24 <HAL_DMA_IRQHandler+0x2e4>)
 8007df0:	4293      	cmp	r3, r2
 8007df2:	d91e      	bls.n	8007e32 <HAL_DMA_IRQHandler+0x1f2>
 8007df4:	494c      	ldr	r1, [pc, #304]	; (8007f28 <HAL_DMA_IRQHandler+0x2e8>)
 8007df6:	f852 0c54 	ldr.w	r0, [r2, #-84]
 8007dfa:	3a58      	subs	r2, #88	; 0x58
 8007dfc:	428b      	cmp	r3, r1
 8007dfe:	f000 8450 	beq.w	80086a2 <HAL_DMA_IRQHandler+0xa62>
 8007e02:	3118      	adds	r1, #24
 8007e04:	428b      	cmp	r3, r1
 8007e06:	f000 8425 	beq.w	8008654 <HAL_DMA_IRQHandler+0xa14>
 8007e0a:	3118      	adds	r1, #24
 8007e0c:	428b      	cmp	r3, r1
 8007e0e:	f000 8518 	beq.w	8008842 <HAL_DMA_IRQHandler+0xc02>
 8007e12:	0180      	lsls	r0, r0, #6
 8007e14:	f100 8093 	bmi.w	8007f3e <HAL_DMA_IRQHandler+0x2fe>
 8007e18:	6852      	ldr	r2, [r2, #4]
 8007e1a:	f44f 0180 	mov.w	r1, #4194304	; 0x400000
 8007e1e:	4211      	tst	r1, r2
 8007e20:	f040 8151 	bne.w	80080c6 <HAL_DMA_IRQHandler+0x486>
 8007e24:	e185      	b.n	8008132 <HAL_DMA_IRQHandler+0x4f2>
 8007e26:	0701      	lsls	r1, r0, #28
 8007e28:	f100 8089 	bmi.w	8007f3e <HAL_DMA_IRQHandler+0x2fe>
 8007e2c:	6851      	ldr	r1, [r2, #4]
 8007e2e:	4a3f      	ldr	r2, [pc, #252]	; (8007f2c <HAL_DMA_IRQHandler+0x2ec>)
 8007e30:	e722      	b.n	8007c78 <HAL_DMA_IRQHandler+0x38>
 8007e32:	493f      	ldr	r1, [pc, #252]	; (8007f30 <HAL_DMA_IRQHandler+0x2f0>)
 8007e34:	4a3f      	ldr	r2, [pc, #252]	; (8007f34 <HAL_DMA_IRQHandler+0x2f4>)
 8007e36:	428b      	cmp	r3, r1
 8007e38:	6810      	ldr	r0, [r2, #0]
 8007e3a:	f000 8424 	beq.w	8008686 <HAL_DMA_IRQHandler+0xa46>
 8007e3e:	3118      	adds	r1, #24
 8007e40:	428b      	cmp	r3, r1
 8007e42:	f000 83fa 	beq.w	800863a <HAL_DMA_IRQHandler+0x9fa>
 8007e46:	3118      	adds	r1, #24
 8007e48:	428b      	cmp	r3, r1
 8007e4a:	f000 84cd 	beq.w	80087e8 <HAL_DMA_IRQHandler+0xba8>
 8007e4e:	0185      	lsls	r5, r0, #6
 8007e50:	d475      	bmi.n	8007f3e <HAL_DMA_IRQHandler+0x2fe>
 8007e52:	6812      	ldr	r2, [r2, #0]
 8007e54:	f44f 0180 	mov.w	r1, #4194304	; 0x400000
 8007e58:	4211      	tst	r1, r2
 8007e5a:	f040 8134 	bne.w	80080c6 <HAL_DMA_IRQHandler+0x486>
 8007e5e:	4934      	ldr	r1, [pc, #208]	; (8007f30 <HAL_DMA_IRQHandler+0x2f0>)
 8007e60:	4a34      	ldr	r2, [pc, #208]	; (8007f34 <HAL_DMA_IRQHandler+0x2f4>)
 8007e62:	428b      	cmp	r3, r1
 8007e64:	6812      	ldr	r2, [r2, #0]
 8007e66:	f000 8415 	beq.w	8008694 <HAL_DMA_IRQHandler+0xa54>
 8007e6a:	3118      	adds	r1, #24
 8007e6c:	428b      	cmp	r3, r1
 8007e6e:	f000 83e1 	beq.w	8008634 <HAL_DMA_IRQHandler+0x9f4>
 8007e72:	3118      	adds	r1, #24
 8007e74:	428b      	cmp	r3, r1
 8007e76:	bf0c      	ite	eq
 8007e78:	f44f 2180 	moveq.w	r1, #262144	; 0x40000
 8007e7c:	f04f 7180 	movne.w	r1, #16777216	; 0x1000000
 8007e80:	4211      	tst	r1, r2
 8007e82:	f47f af39 	bne.w	8007cf8 <HAL_DMA_IRQHandler+0xb8>
 8007e86:	492a      	ldr	r1, [pc, #168]	; (8007f30 <HAL_DMA_IRQHandler+0x2f0>)
 8007e88:	4a2a      	ldr	r2, [pc, #168]	; (8007f34 <HAL_DMA_IRQHandler+0x2f4>)
 8007e8a:	428b      	cmp	r3, r1
 8007e8c:	6812      	ldr	r2, [r2, #0]
 8007e8e:	f000 840f 	beq.w	80086b0 <HAL_DMA_IRQHandler+0xa70>
 8007e92:	3118      	adds	r1, #24
 8007e94:	428b      	cmp	r3, r1
 8007e96:	f000 83ca 	beq.w	800862e <HAL_DMA_IRQHandler+0x9ee>
 8007e9a:	3118      	adds	r1, #24
 8007e9c:	428b      	cmp	r3, r1
 8007e9e:	bf0c      	ite	eq
 8007ea0:	f44f 1180 	moveq.w	r1, #1048576	; 0x100000
 8007ea4:	f04f 6180 	movne.w	r1, #67108864	; 0x4000000
 8007ea8:	4211      	tst	r1, r2
 8007eaa:	f47f af68 	bne.w	8007d7e <HAL_DMA_IRQHandler+0x13e>
 8007eae:	4920      	ldr	r1, [pc, #128]	; (8007f30 <HAL_DMA_IRQHandler+0x2f0>)
 8007eb0:	4a20      	ldr	r2, [pc, #128]	; (8007f34 <HAL_DMA_IRQHandler+0x2f4>)
 8007eb2:	428b      	cmp	r3, r1
 8007eb4:	6812      	ldr	r2, [r2, #0]
 8007eb6:	f040 81a3 	bne.w	8008200 <HAL_DMA_IRQHandler+0x5c0>
 8007eba:	2120      	movs	r1, #32
 8007ebc:	4211      	tst	r1, r2
 8007ebe:	bf14      	ite	ne
 8007ec0:	2201      	movne	r2, #1
 8007ec2:	2200      	moveq	r2, #0
 8007ec4:	2a00      	cmp	r2, #0
 8007ec6:	f000 81e6 	beq.w	8008296 <HAL_DMA_IRQHandler+0x656>
 8007eca:	681a      	ldr	r2, [r3, #0]
 8007ecc:	06d1      	lsls	r1, r2, #27
 8007ece:	f140 81e2 	bpl.w	8008296 <HAL_DMA_IRQHandler+0x656>
 8007ed2:	681a      	ldr	r2, [r3, #0]
 8007ed4:	0352      	lsls	r2, r2, #13
 8007ed6:	f140 8224 	bpl.w	8008322 <HAL_DMA_IRQHandler+0x6e2>
 8007eda:	4a0b      	ldr	r2, [pc, #44]	; (8007f08 <HAL_DMA_IRQHandler+0x2c8>)
 8007edc:	4293      	cmp	r3, r2
 8007ede:	f240 81b9 	bls.w	8008254 <HAL_DMA_IRQHandler+0x614>
 8007ee2:	3218      	adds	r2, #24
 8007ee4:	4293      	cmp	r3, r2
 8007ee6:	f000 839e 	beq.w	8008626 <HAL_DMA_IRQHandler+0x9e6>
 8007eea:	3218      	adds	r2, #24
 8007eec:	4293      	cmp	r3, r2
 8007eee:	f000 8474 	beq.w	80087da <HAL_DMA_IRQHandler+0xb9a>
 8007ef2:	4908      	ldr	r1, [pc, #32]	; (8007f14 <HAL_DMA_IRQHandler+0x2d4>)
 8007ef4:	428b      	cmp	r3, r1
 8007ef6:	bf0c      	ite	eq
 8007ef8:	f44f 1100 	moveq.w	r1, #2097152	; 0x200000
 8007efc:	f04f 6100 	movne.w	r1, #134217728	; 0x8000000
 8007f00:	4a05      	ldr	r2, [pc, #20]	; (8007f18 <HAL_DMA_IRQHandler+0x2d8>)
 8007f02:	60d1      	str	r1, [r2, #12]
 8007f04:	e1bf      	b.n	8008286 <HAL_DMA_IRQHandler+0x646>
 8007f06:	bf00      	nop
 8007f08:	40026458 	.word	0x40026458
 8007f0c:	40026470 	.word	0x40026470
 8007f10:	40026488 	.word	0x40026488
 8007f14:	400264a0 	.word	0x400264a0
 8007f18:	40026400 	.word	0x40026400
 8007f1c:	400260b8 	.word	0x400260b8
 8007f20:	40026410 	.word	0x40026410
 8007f24:	40026058 	.word	0x40026058
 8007f28:	40026070 	.word	0x40026070
 8007f2c:	00800001 	.word	0x00800001
 8007f30:	40026010 	.word	0x40026010
 8007f34:	40026000 	.word	0x40026000
 8007f38:	0700      	lsls	r0, r0, #28
 8007f3a:	f140 80c0 	bpl.w	80080be <HAL_DMA_IRQHandler+0x47e>
 8007f3e:	681a      	ldr	r2, [r3, #0]
 8007f40:	0755      	lsls	r5, r2, #29
 8007f42:	d526      	bpl.n	8007f92 <HAL_DMA_IRQHandler+0x352>
 8007f44:	681a      	ldr	r2, [r3, #0]
 8007f46:	49b4      	ldr	r1, [pc, #720]	; (8008218 <HAL_DMA_IRQHandler+0x5d8>)
 8007f48:	f022 0204 	bic.w	r2, r2, #4
 8007f4c:	428b      	cmp	r3, r1
 8007f4e:	601a      	str	r2, [r3, #0]
 8007f50:	d95d      	bls.n	800800e <HAL_DMA_IRQHandler+0x3ce>
 8007f52:	4ab2      	ldr	r2, [pc, #712]	; (800821c <HAL_DMA_IRQHandler+0x5dc>)
 8007f54:	4293      	cmp	r3, r2
 8007f56:	f000 835d 	beq.w	8008614 <HAL_DMA_IRQHandler+0x9d4>
 8007f5a:	3218      	adds	r2, #24
 8007f5c:	4293      	cmp	r3, r2
 8007f5e:	f000 8429 	beq.w	80087b4 <HAL_DMA_IRQHandler+0xb74>
 8007f62:	48af      	ldr	r0, [pc, #700]	; (8008220 <HAL_DMA_IRQHandler+0x5e0>)
 8007f64:	4283      	cmp	r3, r0
 8007f66:	bf14      	ite	ne
 8007f68:	f04f 7000 	movne.w	r0, #33554432	; 0x2000000
 8007f6c:	f44f 2000 	moveq.w	r0, #524288	; 0x80000
 8007f70:	49ac      	ldr	r1, [pc, #688]	; (8008224 <HAL_DMA_IRQHandler+0x5e4>)
 8007f72:	6ca2      	ldr	r2, [r4, #72]	; 0x48
 8007f74:	60c8      	str	r0, [r1, #12]
 8007f76:	6ce1      	ldr	r1, [r4, #76]	; 0x4c
 8007f78:	2004      	movs	r0, #4
 8007f7a:	f041 0101 	orr.w	r1, r1, #1
 8007f7e:	2500      	movs	r5, #0
 8007f80:	64e1      	str	r1, [r4, #76]	; 0x4c
 8007f82:	f884 5034 	strb.w	r5, [r4, #52]	; 0x34
 8007f86:	f884 0035 	strb.w	r0, [r4, #53]	; 0x35
 8007f8a:	b12a      	cbz	r2, 8007f98 <HAL_DMA_IRQHandler+0x358>
 8007f8c:	4620      	mov	r0, r4
 8007f8e:	4790      	blx	r2
 8007f90:	6823      	ldr	r3, [r4, #0]
 8007f92:	4aa1      	ldr	r2, [pc, #644]	; (8008218 <HAL_DMA_IRQHandler+0x5d8>)
 8007f94:	4293      	cmp	r3, r2
 8007f96:	d911      	bls.n	8007fbc <HAL_DMA_IRQHandler+0x37c>
 8007f98:	4aa0      	ldr	r2, [pc, #640]	; (800821c <HAL_DMA_IRQHandler+0x5dc>)
 8007f9a:	49a2      	ldr	r1, [pc, #648]	; (8008224 <HAL_DMA_IRQHandler+0x5e4>)
 8007f9c:	4293      	cmp	r3, r2
 8007f9e:	6849      	ldr	r1, [r1, #4]
 8007fa0:	f43f af45 	beq.w	8007e2e <HAL_DMA_IRQHandler+0x1ee>
 8007fa4:	4aa0      	ldr	r2, [pc, #640]	; (8008228 <HAL_DMA_IRQHandler+0x5e8>)
 8007fa6:	4293      	cmp	r3, r2
 8007fa8:	f000 831e 	beq.w	80085e8 <HAL_DMA_IRQHandler+0x9a8>
 8007fac:	3218      	adds	r2, #24
 8007fae:	4293      	cmp	r3, r2
 8007fb0:	bf0c      	ite	eq
 8007fb2:	f44f 3280 	moveq.w	r2, #65536	; 0x10000
 8007fb6:	f44f 0280 	movne.w	r2, #4194304	; 0x400000
 8007fba:	e65d      	b.n	8007c78 <HAL_DMA_IRQHandler+0x38>
 8007fbc:	4a9b      	ldr	r2, [pc, #620]	; (800822c <HAL_DMA_IRQHandler+0x5ec>)
 8007fbe:	4293      	cmp	r3, r2
 8007fc0:	d910      	bls.n	8007fe4 <HAL_DMA_IRQHandler+0x3a4>
 8007fc2:	499b      	ldr	r1, [pc, #620]	; (8008230 <HAL_DMA_IRQHandler+0x5f0>)
 8007fc4:	4a97      	ldr	r2, [pc, #604]	; (8008224 <HAL_DMA_IRQHandler+0x5e4>)
 8007fc6:	428b      	cmp	r3, r1
 8007fc8:	6812      	ldr	r2, [r2, #0]
 8007fca:	d079      	beq.n	80080c0 <HAL_DMA_IRQHandler+0x480>
 8007fcc:	3118      	adds	r1, #24
 8007fce:	428b      	cmp	r3, r1
 8007fd0:	f000 8318 	beq.w	8008604 <HAL_DMA_IRQHandler+0x9c4>
 8007fd4:	3118      	adds	r1, #24
 8007fd6:	428b      	cmp	r3, r1
 8007fd8:	bf0c      	ite	eq
 8007fda:	f44f 3180 	moveq.w	r1, #65536	; 0x10000
 8007fde:	f44f 0180 	movne.w	r1, #4194304	; 0x400000
 8007fe2:	e06e      	b.n	80080c2 <HAL_DMA_IRQHandler+0x482>
 8007fe4:	4a93      	ldr	r2, [pc, #588]	; (8008234 <HAL_DMA_IRQHandler+0x5f4>)
 8007fe6:	4293      	cmp	r3, r2
 8007fe8:	d957      	bls.n	800809a <HAL_DMA_IRQHandler+0x45a>
 8007fea:	4993      	ldr	r1, [pc, #588]	; (8008238 <HAL_DMA_IRQHandler+0x5f8>)
 8007fec:	4a93      	ldr	r2, [pc, #588]	; (800823c <HAL_DMA_IRQHandler+0x5fc>)
 8007fee:	428b      	cmp	r3, r1
 8007ff0:	6852      	ldr	r2, [r2, #4]
 8007ff2:	f000 835a 	beq.w	80086aa <HAL_DMA_IRQHandler+0xa6a>
 8007ff6:	3118      	adds	r1, #24
 8007ff8:	428b      	cmp	r3, r1
 8007ffa:	f000 8332 	beq.w	8008662 <HAL_DMA_IRQHandler+0xa22>
 8007ffe:	3118      	adds	r1, #24
 8008000:	428b      	cmp	r3, r1
 8008002:	bf0c      	ite	eq
 8008004:	f44f 3180 	moveq.w	r1, #65536	; 0x10000
 8008008:	f44f 0180 	movne.w	r1, #4194304	; 0x400000
 800800c:	e707      	b.n	8007e1e <HAL_DMA_IRQHandler+0x1de>
 800800e:	4a87      	ldr	r2, [pc, #540]	; (800822c <HAL_DMA_IRQHandler+0x5ec>)
 8008010:	4293      	cmp	r3, r2
 8008012:	d91f      	bls.n	8008054 <HAL_DMA_IRQHandler+0x414>
 8008014:	f502 7256 	add.w	r2, r2, #856	; 0x358
 8008018:	4293      	cmp	r3, r2
 800801a:	f000 8302 	beq.w	8008622 <HAL_DMA_IRQHandler+0x9e2>
 800801e:	3218      	adds	r2, #24
 8008020:	4293      	cmp	r3, r2
 8008022:	f000 83ce 	beq.w	80087c2 <HAL_DMA_IRQHandler+0xb82>
 8008026:	4886      	ldr	r0, [pc, #536]	; (8008240 <HAL_DMA_IRQHandler+0x600>)
 8008028:	4283      	cmp	r3, r0
 800802a:	bf14      	ite	ne
 800802c:	f04f 7000 	movne.w	r0, #33554432	; 0x2000000
 8008030:	f44f 2000 	moveq.w	r0, #524288	; 0x80000
 8008034:	497b      	ldr	r1, [pc, #492]	; (8008224 <HAL_DMA_IRQHandler+0x5e4>)
 8008036:	6ca2      	ldr	r2, [r4, #72]	; 0x48
 8008038:	6088      	str	r0, [r1, #8]
 800803a:	6ce1      	ldr	r1, [r4, #76]	; 0x4c
 800803c:	2004      	movs	r0, #4
 800803e:	f041 0101 	orr.w	r1, r1, #1
 8008042:	2500      	movs	r5, #0
 8008044:	64e1      	str	r1, [r4, #76]	; 0x4c
 8008046:	f884 5034 	strb.w	r5, [r4, #52]	; 0x34
 800804a:	f884 0035 	strb.w	r0, [r4, #53]	; 0x35
 800804e:	2a00      	cmp	r2, #0
 8008050:	d19c      	bne.n	8007f8c <HAL_DMA_IRQHandler+0x34c>
 8008052:	e7b6      	b.n	8007fc2 <HAL_DMA_IRQHandler+0x382>
 8008054:	4a77      	ldr	r2, [pc, #476]	; (8008234 <HAL_DMA_IRQHandler+0x5f4>)
 8008056:	4293      	cmp	r3, r2
 8008058:	f200 829f 	bhi.w	800859a <HAL_DMA_IRQHandler+0x95a>
 800805c:	4a79      	ldr	r2, [pc, #484]	; (8008244 <HAL_DMA_IRQHandler+0x604>)
 800805e:	4293      	cmp	r3, r2
 8008060:	f000 837d 	beq.w	800875e <HAL_DMA_IRQHandler+0xb1e>
 8008064:	3218      	adds	r2, #24
 8008066:	4293      	cmp	r3, r2
 8008068:	f000 83d1 	beq.w	800880e <HAL_DMA_IRQHandler+0xbce>
 800806c:	4876      	ldr	r0, [pc, #472]	; (8008248 <HAL_DMA_IRQHandler+0x608>)
 800806e:	4283      	cmp	r3, r0
 8008070:	bf14      	ite	ne
 8008072:	f04f 7000 	movne.w	r0, #33554432	; 0x2000000
 8008076:	f44f 2000 	moveq.w	r0, #524288	; 0x80000
 800807a:	4970      	ldr	r1, [pc, #448]	; (800823c <HAL_DMA_IRQHandler+0x5fc>)
 800807c:	6ca2      	ldr	r2, [r4, #72]	; 0x48
 800807e:	6088      	str	r0, [r1, #8]
 8008080:	6ce1      	ldr	r1, [r4, #76]	; 0x4c
 8008082:	2004      	movs	r0, #4
 8008084:	f041 0101 	orr.w	r1, r1, #1
 8008088:	2500      	movs	r5, #0
 800808a:	64e1      	str	r1, [r4, #76]	; 0x4c
 800808c:	f884 5034 	strb.w	r5, [r4, #52]	; 0x34
 8008090:	f884 0035 	strb.w	r0, [r4, #53]	; 0x35
 8008094:	2a00      	cmp	r2, #0
 8008096:	f47f af79 	bne.w	8007f8c <HAL_DMA_IRQHandler+0x34c>
 800809a:	496a      	ldr	r1, [pc, #424]	; (8008244 <HAL_DMA_IRQHandler+0x604>)
 800809c:	4a67      	ldr	r2, [pc, #412]	; (800823c <HAL_DMA_IRQHandler+0x5fc>)
 800809e:	428b      	cmp	r3, r1
 80080a0:	6812      	ldr	r2, [r2, #0]
 80080a2:	f000 82f4 	beq.w	800868e <HAL_DMA_IRQHandler+0xa4e>
 80080a6:	3118      	adds	r1, #24
 80080a8:	428b      	cmp	r3, r1
 80080aa:	f000 82cc 	beq.w	8008646 <HAL_DMA_IRQHandler+0xa06>
 80080ae:	3118      	adds	r1, #24
 80080b0:	428b      	cmp	r3, r1
 80080b2:	bf0c      	ite	eq
 80080b4:	f44f 3180 	moveq.w	r1, #65536	; 0x10000
 80080b8:	f44f 0180 	movne.w	r1, #4194304	; 0x400000
 80080bc:	e6cc      	b.n	8007e58 <HAL_DMA_IRQHandler+0x218>
 80080be:	6812      	ldr	r2, [r2, #0]
 80080c0:	4962      	ldr	r1, [pc, #392]	; (800824c <HAL_DMA_IRQHandler+0x60c>)
 80080c2:	4211      	tst	r1, r2
 80080c4:	d020      	beq.n	8008108 <HAL_DMA_IRQHandler+0x4c8>
 80080c6:	695a      	ldr	r2, [r3, #20]
 80080c8:	0611      	lsls	r1, r2, #24
 80080ca:	f57f adfe 	bpl.w	8007cca <HAL_DMA_IRQHandler+0x8a>
 80080ce:	695a      	ldr	r2, [r3, #20]
 80080d0:	4956      	ldr	r1, [pc, #344]	; (800822c <HAL_DMA_IRQHandler+0x5ec>)
 80080d2:	f022 0280 	bic.w	r2, r2, #128	; 0x80
 80080d6:	428b      	cmp	r3, r1
 80080d8:	615a      	str	r2, [r3, #20]
 80080da:	f240 81bd 	bls.w	8008458 <HAL_DMA_IRQHandler+0x818>
 80080de:	4a54      	ldr	r2, [pc, #336]	; (8008230 <HAL_DMA_IRQHandler+0x5f0>)
 80080e0:	4293      	cmp	r3, r2
 80080e2:	f000 8336 	beq.w	8008752 <HAL_DMA_IRQHandler+0xb12>
 80080e6:	3218      	adds	r2, #24
 80080e8:	4293      	cmp	r3, r2
 80080ea:	f000 8370 	beq.w	80087ce <HAL_DMA_IRQHandler+0xb8e>
 80080ee:	4954      	ldr	r1, [pc, #336]	; (8008240 <HAL_DMA_IRQHandler+0x600>)
 80080f0:	428b      	cmp	r3, r1
 80080f2:	bf0c      	ite	eq
 80080f4:	f44f 3180 	moveq.w	r1, #65536	; 0x10000
 80080f8:	f44f 0180 	movne.w	r1, #4194304	; 0x400000
 80080fc:	4a49      	ldr	r2, [pc, #292]	; (8008224 <HAL_DMA_IRQHandler+0x5e4>)
 80080fe:	6091      	str	r1, [r2, #8]
 8008100:	e5d4      	b.n	8007cac <HAL_DMA_IRQHandler+0x6c>
 8008102:	4a4a      	ldr	r2, [pc, #296]	; (800822c <HAL_DMA_IRQHandler+0x5ec>)
 8008104:	4293      	cmp	r3, r2
 8008106:	d910      	bls.n	800812a <HAL_DMA_IRQHandler+0x4ea>
 8008108:	4949      	ldr	r1, [pc, #292]	; (8008230 <HAL_DMA_IRQHandler+0x5f0>)
 800810a:	4a46      	ldr	r2, [pc, #280]	; (8008224 <HAL_DMA_IRQHandler+0x5e4>)
 800810c:	428b      	cmp	r3, r1
 800810e:	6812      	ldr	r2, [r2, #0]
 8008110:	d024      	beq.n	800815c <HAL_DMA_IRQHandler+0x51c>
 8008112:	3118      	adds	r1, #24
 8008114:	428b      	cmp	r3, r1
 8008116:	f000 827a 	beq.w	800860e <HAL_DMA_IRQHandler+0x9ce>
 800811a:	3118      	adds	r1, #24
 800811c:	428b      	cmp	r3, r1
 800811e:	bf0c      	ite	eq
 8008120:	f44f 2180 	moveq.w	r1, #262144	; 0x40000
 8008124:	f04f 7180 	movne.w	r1, #16777216	; 0x1000000
 8008128:	e019      	b.n	800815e <HAL_DMA_IRQHandler+0x51e>
 800812a:	4a42      	ldr	r2, [pc, #264]	; (8008234 <HAL_DMA_IRQHandler+0x5f4>)
 800812c:	4293      	cmp	r3, r2
 800812e:	f67f ae96 	bls.w	8007e5e <HAL_DMA_IRQHandler+0x21e>
 8008132:	4941      	ldr	r1, [pc, #260]	; (8008238 <HAL_DMA_IRQHandler+0x5f8>)
 8008134:	4a41      	ldr	r2, [pc, #260]	; (800823c <HAL_DMA_IRQHandler+0x5fc>)
 8008136:	428b      	cmp	r3, r1
 8008138:	6852      	ldr	r2, [r2, #4]
 800813a:	f000 82ae 	beq.w	800869a <HAL_DMA_IRQHandler+0xa5a>
 800813e:	3118      	adds	r1, #24
 8008140:	428b      	cmp	r3, r1
 8008142:	f000 8294 	beq.w	800866e <HAL_DMA_IRQHandler+0xa2e>
 8008146:	3118      	adds	r1, #24
 8008148:	428b      	cmp	r3, r1
 800814a:	bf0c      	ite	eq
 800814c:	f44f 2180 	moveq.w	r1, #262144	; 0x40000
 8008150:	f04f 7180 	movne.w	r1, #16777216	; 0x1000000
 8008154:	4211      	tst	r1, r2
 8008156:	f47f adcf 	bne.w	8007cf8 <HAL_DMA_IRQHandler+0xb8>
 800815a:	e01b      	b.n	8008194 <HAL_DMA_IRQHandler+0x554>
 800815c:	493c      	ldr	r1, [pc, #240]	; (8008250 <HAL_DMA_IRQHandler+0x610>)
 800815e:	4211      	tst	r1, r2
 8008160:	f47f adca 	bne.w	8007cf8 <HAL_DMA_IRQHandler+0xb8>
 8008164:	4932      	ldr	r1, [pc, #200]	; (8008230 <HAL_DMA_IRQHandler+0x5f0>)
 8008166:	4a2f      	ldr	r2, [pc, #188]	; (8008224 <HAL_DMA_IRQHandler+0x5e4>)
 8008168:	428b      	cmp	r3, r1
 800816a:	6812      	ldr	r2, [r2, #0]
 800816c:	d03e      	beq.n	80081ec <HAL_DMA_IRQHandler+0x5ac>
 800816e:	3118      	adds	r1, #24
 8008170:	428b      	cmp	r3, r1
 8008172:	f000 8249 	beq.w	8008608 <HAL_DMA_IRQHandler+0x9c8>
 8008176:	3118      	adds	r1, #24
 8008178:	428b      	cmp	r3, r1
 800817a:	bf0c      	ite	eq
 800817c:	f44f 1180 	moveq.w	r1, #1048576	; 0x100000
 8008180:	f04f 6180 	movne.w	r1, #67108864	; 0x4000000
 8008184:	e033      	b.n	80081ee <HAL_DMA_IRQHandler+0x5ae>
 8008186:	4a29      	ldr	r2, [pc, #164]	; (800822c <HAL_DMA_IRQHandler+0x5ec>)
 8008188:	4293      	cmp	r3, r2
 800818a:	d8eb      	bhi.n	8008164 <HAL_DMA_IRQHandler+0x524>
 800818c:	4a29      	ldr	r2, [pc, #164]	; (8008234 <HAL_DMA_IRQHandler+0x5f4>)
 800818e:	4293      	cmp	r3, r2
 8008190:	f67f ae79 	bls.w	8007e86 <HAL_DMA_IRQHandler+0x246>
 8008194:	4928      	ldr	r1, [pc, #160]	; (8008238 <HAL_DMA_IRQHandler+0x5f8>)
 8008196:	4a29      	ldr	r2, [pc, #164]	; (800823c <HAL_DMA_IRQHandler+0x5fc>)
 8008198:	428b      	cmp	r3, r1
 800819a:	6852      	ldr	r2, [r2, #4]
 800819c:	f000 827f 	beq.w	800869e <HAL_DMA_IRQHandler+0xa5e>
 80081a0:	3118      	adds	r1, #24
 80081a2:	428b      	cmp	r3, r1
 80081a4:	f000 8260 	beq.w	8008668 <HAL_DMA_IRQHandler+0xa28>
 80081a8:	3118      	adds	r1, #24
 80081aa:	428b      	cmp	r3, r1
 80081ac:	bf0c      	ite	eq
 80081ae:	f44f 1180 	moveq.w	r1, #1048576	; 0x100000
 80081b2:	f04f 6180 	movne.w	r1, #67108864	; 0x4000000
 80081b6:	4211      	tst	r1, r2
 80081b8:	f47f ade1 	bne.w	8007d7e <HAL_DMA_IRQHandler+0x13e>
 80081bc:	e0aa      	b.n	8008314 <HAL_DMA_IRQHandler+0x6d4>
 80081be:	4a1b      	ldr	r2, [pc, #108]	; (800822c <HAL_DMA_IRQHandler+0x5ec>)
 80081c0:	4293      	cmp	r3, r2
 80081c2:	f240 8134 	bls.w	800842e <HAL_DMA_IRQHandler+0x7ee>
 80081c6:	f502 7256 	add.w	r2, r2, #856	; 0x358
 80081ca:	4293      	cmp	r3, r2
 80081cc:	f000 8227 	beq.w	800861e <HAL_DMA_IRQHandler+0x9de>
 80081d0:	3218      	adds	r2, #24
 80081d2:	4293      	cmp	r3, r2
 80081d4:	f000 82f8 	beq.w	80087c8 <HAL_DMA_IRQHandler+0xb88>
 80081d8:	4919      	ldr	r1, [pc, #100]	; (8008240 <HAL_DMA_IRQHandler+0x600>)
 80081da:	428b      	cmp	r3, r1
 80081dc:	bf0c      	ite	eq
 80081de:	f44f 2180 	moveq.w	r1, #262144	; 0x40000
 80081e2:	f04f 7180 	movne.w	r1, #16777216	; 0x1000000
 80081e6:	4a0f      	ldr	r2, [pc, #60]	; (8008224 <HAL_DMA_IRQHandler+0x5e4>)
 80081e8:	6091      	str	r1, [r2, #8]
 80081ea:	e5a1      	b.n	8007d30 <HAL_DMA_IRQHandler+0xf0>
 80081ec:	2110      	movs	r1, #16
 80081ee:	4211      	tst	r1, r2
 80081f0:	f47f adc5 	bne.w	8007d7e <HAL_DMA_IRQHandler+0x13e>
 80081f4:	490e      	ldr	r1, [pc, #56]	; (8008230 <HAL_DMA_IRQHandler+0x5f0>)
 80081f6:	4a0b      	ldr	r2, [pc, #44]	; (8008224 <HAL_DMA_IRQHandler+0x5e4>)
 80081f8:	428b      	cmp	r3, r1
 80081fa:	6812      	ldr	r2, [r2, #0]
 80081fc:	f43f ae5d 	beq.w	8007eba <HAL_DMA_IRQHandler+0x27a>
 8008200:	3118      	adds	r1, #24
 8008202:	428b      	cmp	r3, r1
 8008204:	f000 8257 	beq.w	80086b6 <HAL_DMA_IRQHandler+0xa76>
 8008208:	3118      	adds	r1, #24
 800820a:	428b      	cmp	r3, r1
 800820c:	bf0c      	ite	eq
 800820e:	f44f 1100 	moveq.w	r1, #2097152	; 0x200000
 8008212:	f04f 6100 	movne.w	r1, #134217728	; 0x8000000
 8008216:	e651      	b.n	8007ebc <HAL_DMA_IRQHandler+0x27c>
 8008218:	40026458 	.word	0x40026458
 800821c:	40026470 	.word	0x40026470
 8008220:	400264a0 	.word	0x400264a0
 8008224:	40026400 	.word	0x40026400
 8008228:	40026488 	.word	0x40026488
 800822c:	400260b8 	.word	0x400260b8
 8008230:	40026410 	.word	0x40026410
 8008234:	40026058 	.word	0x40026058
 8008238:	40026070 	.word	0x40026070
 800823c:	40026000 	.word	0x40026000
 8008240:	40026440 	.word	0x40026440
 8008244:	40026010 	.word	0x40026010
 8008248:	40026040 	.word	0x40026040
 800824c:	00800001 	.word	0x00800001
 8008250:	00800004 	.word	0x00800004
 8008254:	4aba      	ldr	r2, [pc, #744]	; (8008540 <HAL_DMA_IRQHandler+0x900>)
 8008256:	4293      	cmp	r3, r2
 8008258:	f200 8113 	bhi.w	8008482 <HAL_DMA_IRQHandler+0x842>
 800825c:	4ab9      	ldr	r2, [pc, #740]	; (8008544 <HAL_DMA_IRQHandler+0x904>)
 800825e:	4293      	cmp	r3, r2
 8008260:	f240 822d 	bls.w	80086be <HAL_DMA_IRQHandler+0xa7e>
 8008264:	3218      	adds	r2, #24
 8008266:	4293      	cmp	r3, r2
 8008268:	f000 82b5 	beq.w	80087d6 <HAL_DMA_IRQHandler+0xb96>
 800826c:	3218      	adds	r2, #24
 800826e:	4293      	cmp	r3, r2
 8008270:	f000 8311 	beq.w	8008896 <HAL_DMA_IRQHandler+0xc56>
 8008274:	49b4      	ldr	r1, [pc, #720]	; (8008548 <HAL_DMA_IRQHandler+0x908>)
 8008276:	428b      	cmp	r3, r1
 8008278:	bf0c      	ite	eq
 800827a:	f44f 1100 	moveq.w	r1, #2097152	; 0x200000
 800827e:	f04f 6100 	movne.w	r1, #134217728	; 0x8000000
 8008282:	4ab2      	ldr	r2, [pc, #712]	; (800854c <HAL_DMA_IRQHandler+0x90c>)
 8008284:	60d1      	str	r1, [r2, #12]
 8008286:	681a      	ldr	r2, [r3, #0]
 8008288:	0316      	lsls	r6, r2, #12
 800828a:	f100 81f3 	bmi.w	8008674 <HAL_DMA_IRQHandler+0xa34>
 800828e:	6c63      	ldr	r3, [r4, #68]	; 0x44
 8008290:	2b00      	cmp	r3, #0
 8008292:	f040 80a3 	bne.w	80083dc <HAL_DMA_IRQHandler+0x79c>
 8008296:	bd70      	pop	{r4, r5, r6, pc}
 8008298:	4aa9      	ldr	r2, [pc, #676]	; (8008540 <HAL_DMA_IRQHandler+0x900>)
 800829a:	4293      	cmp	r3, r2
 800829c:	f200 816a 	bhi.w	8008574 <HAL_DMA_IRQHandler+0x934>
 80082a0:	4aa8      	ldr	r2, [pc, #672]	; (8008544 <HAL_DMA_IRQHandler+0x904>)
 80082a2:	4293      	cmp	r3, r2
 80082a4:	f240 822d 	bls.w	8008702 <HAL_DMA_IRQHandler+0xac2>
 80082a8:	3218      	adds	r2, #24
 80082aa:	4293      	cmp	r3, r2
 80082ac:	f000 82b2 	beq.w	8008814 <HAL_DMA_IRQHandler+0xbd4>
 80082b0:	3218      	adds	r2, #24
 80082b2:	4293      	cmp	r3, r2
 80082b4:	f000 82f5 	beq.w	80088a2 <HAL_DMA_IRQHandler+0xc62>
 80082b8:	49a3      	ldr	r1, [pc, #652]	; (8008548 <HAL_DMA_IRQHandler+0x908>)
 80082ba:	428b      	cmp	r3, r1
 80082bc:	bf0c      	ite	eq
 80082be:	f44f 1180 	moveq.w	r1, #1048576	; 0x100000
 80082c2:	f04f 6180 	movne.w	r1, #67108864	; 0x4000000
 80082c6:	4aa1      	ldr	r2, [pc, #644]	; (800854c <HAL_DMA_IRQHandler+0x90c>)
 80082c8:	60d1      	str	r1, [r2, #12]
 80082ca:	2231      	movs	r2, #49	; 0x31
 80082cc:	f884 2035 	strb.w	r2, [r4, #53]	; 0x35
 80082d0:	6c22      	ldr	r2, [r4, #64]	; 0x40
 80082d2:	b112      	cbz	r2, 80082da <HAL_DMA_IRQHandler+0x69a>
 80082d4:	4620      	mov	r0, r4
 80082d6:	4790      	blx	r2
 80082d8:	6823      	ldr	r3, [r4, #0]
 80082da:	4a9d      	ldr	r2, [pc, #628]	; (8008550 <HAL_DMA_IRQHandler+0x910>)
 80082dc:	4293      	cmp	r3, r2
 80082de:	d911      	bls.n	8008304 <HAL_DMA_IRQHandler+0x6c4>
 80082e0:	4a9c      	ldr	r2, [pc, #624]	; (8008554 <HAL_DMA_IRQHandler+0x914>)
 80082e2:	499d      	ldr	r1, [pc, #628]	; (8008558 <HAL_DMA_IRQHandler+0x918>)
 80082e4:	4293      	cmp	r3, r2
 80082e6:	6849      	ldr	r1, [r1, #4]
 80082e8:	f000 82e7 	beq.w	80088ba <HAL_DMA_IRQHandler+0xc7a>
 80082ec:	4a9b      	ldr	r2, [pc, #620]	; (800855c <HAL_DMA_IRQHandler+0x91c>)
 80082ee:	4293      	cmp	r3, r2
 80082f0:	f000 817d 	beq.w	80085ee <HAL_DMA_IRQHandler+0x9ae>
 80082f4:	3218      	adds	r2, #24
 80082f6:	4293      	cmp	r3, r2
 80082f8:	bf0c      	ite	eq
 80082fa:	f44f 1200 	moveq.w	r2, #2097152	; 0x200000
 80082fe:	f04f 6200 	movne.w	r2, #134217728	; 0x8000000
 8008302:	e5db      	b.n	8007ebc <HAL_DMA_IRQHandler+0x27c>
 8008304:	4a8e      	ldr	r2, [pc, #568]	; (8008540 <HAL_DMA_IRQHandler+0x900>)
 8008306:	4293      	cmp	r3, r2
 8008308:	f63f af74 	bhi.w	80081f4 <HAL_DMA_IRQHandler+0x5b4>
 800830c:	4a8d      	ldr	r2, [pc, #564]	; (8008544 <HAL_DMA_IRQHandler+0x904>)
 800830e:	4293      	cmp	r3, r2
 8008310:	f67f adcd 	bls.w	8007eae <HAL_DMA_IRQHandler+0x26e>
 8008314:	4992      	ldr	r1, [pc, #584]	; (8008560 <HAL_DMA_IRQHandler+0x920>)
 8008316:	4a8d      	ldr	r2, [pc, #564]	; (800854c <HAL_DMA_IRQHandler+0x90c>)
 8008318:	428b      	cmp	r3, r1
 800831a:	6852      	ldr	r2, [r2, #4]
 800831c:	f47f af70 	bne.w	8008200 <HAL_DMA_IRQHandler+0x5c0>
 8008320:	e5cb      	b.n	8007eba <HAL_DMA_IRQHandler+0x27a>
 8008322:	681a      	ldr	r2, [r3, #0]
 8008324:	05d0      	lsls	r0, r2, #23
 8008326:	d403      	bmi.n	8008330 <HAL_DMA_IRQHandler+0x6f0>
 8008328:	681a      	ldr	r2, [r3, #0]
 800832a:	f022 0210 	bic.w	r2, r2, #16
 800832e:	601a      	str	r2, [r3, #0]
 8008330:	4a87      	ldr	r2, [pc, #540]	; (8008550 <HAL_DMA_IRQHandler+0x910>)
 8008332:	4293      	cmp	r3, r2
 8008334:	d92d      	bls.n	8008392 <HAL_DMA_IRQHandler+0x752>
 8008336:	4a87      	ldr	r2, [pc, #540]	; (8008554 <HAL_DMA_IRQHandler+0x914>)
 8008338:	4293      	cmp	r3, r2
 800833a:	f000 8176 	beq.w	800862a <HAL_DMA_IRQHandler+0x9ea>
 800833e:	3218      	adds	r2, #24
 8008340:	4293      	cmp	r3, r2
 8008342:	f000 824e 	beq.w	80087e2 <HAL_DMA_IRQHandler+0xba2>
 8008346:	3218      	adds	r2, #24
 8008348:	4293      	cmp	r3, r2
 800834a:	bf0c      	ite	eq
 800834c:	f44f 1300 	moveq.w	r3, #2097152	; 0x200000
 8008350:	f04f 6300 	movne.w	r3, #134217728	; 0x8000000
 8008354:	4a80      	ldr	r2, [pc, #512]	; (8008558 <HAL_DMA_IRQHandler+0x918>)
 8008356:	60d3      	str	r3, [r2, #12]
 8008358:	e034      	b.n	80083c4 <HAL_DMA_IRQHandler+0x784>
 800835a:	681a      	ldr	r2, [r3, #0]
 800835c:	05d0      	lsls	r0, r2, #23
 800835e:	d403      	bmi.n	8008368 <HAL_DMA_IRQHandler+0x728>
 8008360:	681a      	ldr	r2, [r3, #0]
 8008362:	f022 0208 	bic.w	r2, r2, #8
 8008366:	601a      	str	r2, [r3, #0]
 8008368:	4a79      	ldr	r2, [pc, #484]	; (8008550 <HAL_DMA_IRQHandler+0x910>)
 800836a:	4293      	cmp	r3, r2
 800836c:	d994      	bls.n	8008298 <HAL_DMA_IRQHandler+0x658>
 800836e:	4a79      	ldr	r2, [pc, #484]	; (8008554 <HAL_DMA_IRQHandler+0x914>)
 8008370:	4293      	cmp	r3, r2
 8008372:	f000 816d 	beq.w	8008650 <HAL_DMA_IRQHandler+0xa10>
 8008376:	3218      	adds	r2, #24
 8008378:	4293      	cmp	r3, r2
 800837a:	f000 8253 	beq.w	8008824 <HAL_DMA_IRQHandler+0xbe4>
 800837e:	4979      	ldr	r1, [pc, #484]	; (8008564 <HAL_DMA_IRQHandler+0x924>)
 8008380:	428b      	cmp	r3, r1
 8008382:	bf0c      	ite	eq
 8008384:	f44f 1180 	moveq.w	r1, #1048576	; 0x100000
 8008388:	f04f 6180 	movne.w	r1, #67108864	; 0x4000000
 800838c:	4a72      	ldr	r2, [pc, #456]	; (8008558 <HAL_DMA_IRQHandler+0x918>)
 800838e:	60d1      	str	r1, [r2, #12]
 8008390:	e79b      	b.n	80082ca <HAL_DMA_IRQHandler+0x68a>
 8008392:	4a6b      	ldr	r2, [pc, #428]	; (8008540 <HAL_DMA_IRQHandler+0x900>)
 8008394:	4293      	cmp	r3, r2
 8008396:	f200 8087 	bhi.w	80084a8 <HAL_DMA_IRQHandler+0x868>
 800839a:	4a6a      	ldr	r2, [pc, #424]	; (8008544 <HAL_DMA_IRQHandler+0x904>)
 800839c:	4293      	cmp	r3, r2
 800839e:	f240 819f 	bls.w	80086e0 <HAL_DMA_IRQHandler+0xaa0>
 80083a2:	3218      	adds	r2, #24
 80083a4:	4293      	cmp	r3, r2
 80083a6:	f000 8214 	beq.w	80087d2 <HAL_DMA_IRQHandler+0xb92>
 80083aa:	3218      	adds	r2, #24
 80083ac:	4293      	cmp	r3, r2
 80083ae:	f000 826f 	beq.w	8008890 <HAL_DMA_IRQHandler+0xc50>
 80083b2:	3218      	adds	r2, #24
 80083b4:	4293      	cmp	r3, r2
 80083b6:	bf0c      	ite	eq
 80083b8:	f44f 1300 	moveq.w	r3, #2097152	; 0x200000
 80083bc:	f04f 6300 	movne.w	r3, #134217728	; 0x8000000
 80083c0:	4a62      	ldr	r2, [pc, #392]	; (800854c <HAL_DMA_IRQHandler+0x90c>)
 80083c2:	60d3      	str	r3, [r2, #12]
 80083c4:	6ce2      	ldr	r2, [r4, #76]	; 0x4c
 80083c6:	6be3      	ldr	r3, [r4, #60]	; 0x3c
 80083c8:	64e2      	str	r2, [r4, #76]	; 0x4c
 80083ca:	2111      	movs	r1, #17
 80083cc:	2200      	movs	r2, #0
 80083ce:	f884 1035 	strb.w	r1, [r4, #53]	; 0x35
 80083d2:	f884 2034 	strb.w	r2, [r4, #52]	; 0x34
 80083d6:	2b00      	cmp	r3, #0
 80083d8:	f43f af5d 	beq.w	8008296 <HAL_DMA_IRQHandler+0x656>
 80083dc:	4620      	mov	r0, r4
 80083de:	e8bd 4070 	ldmia.w	sp!, {r4, r5, r6, lr}
 80083e2:	4718      	bx	r3
 80083e4:	4a56      	ldr	r2, [pc, #344]	; (8008540 <HAL_DMA_IRQHandler+0x900>)
 80083e6:	4293      	cmp	r3, r2
 80083e8:	f200 8096 	bhi.w	8008518 <HAL_DMA_IRQHandler+0x8d8>
 80083ec:	4a55      	ldr	r2, [pc, #340]	; (8008544 <HAL_DMA_IRQHandler+0x904>)
 80083ee:	4293      	cmp	r3, r2
 80083f0:	f240 8198 	bls.w	8008724 <HAL_DMA_IRQHandler+0xae4>
 80083f4:	3218      	adds	r2, #24
 80083f6:	4293      	cmp	r3, r2
 80083f8:	f000 820e 	beq.w	8008818 <HAL_DMA_IRQHandler+0xbd8>
 80083fc:	3218      	adds	r2, #24
 80083fe:	4293      	cmp	r3, r2
 8008400:	f000 824c 	beq.w	800889c <HAL_DMA_IRQHandler+0xc5c>
 8008404:	4950      	ldr	r1, [pc, #320]	; (8008548 <HAL_DMA_IRQHandler+0x908>)
 8008406:	428b      	cmp	r3, r1
 8008408:	bf0c      	ite	eq
 800840a:	f44f 1180 	moveq.w	r1, #1048576	; 0x100000
 800840e:	f04f 6180 	movne.w	r1, #67108864	; 0x4000000
 8008412:	4a4e      	ldr	r2, [pc, #312]	; (800854c <HAL_DMA_IRQHandler+0x90c>)
 8008414:	60d1      	str	r1, [r2, #12]
 8008416:	681a      	ldr	r2, [r3, #0]
 8008418:	0316      	lsls	r6, r2, #12
 800841a:	f57f af56 	bpl.w	80082ca <HAL_DMA_IRQHandler+0x68a>
 800841e:	681a      	ldr	r2, [r3, #0]
 8008420:	0315      	lsls	r5, r2, #12
 8008422:	f57f af55 	bpl.w	80082d0 <HAL_DMA_IRQHandler+0x690>
 8008426:	2241      	movs	r2, #65	; 0x41
 8008428:	f884 2035 	strb.w	r2, [r4, #53]	; 0x35
 800842c:	e750      	b.n	80082d0 <HAL_DMA_IRQHandler+0x690>
 800842e:	4a45      	ldr	r2, [pc, #276]	; (8008544 <HAL_DMA_IRQHandler+0x904>)
 8008430:	4293      	cmp	r3, r2
 8008432:	d95f      	bls.n	80084f4 <HAL_DMA_IRQHandler+0x8b4>
 8008434:	3218      	adds	r2, #24
 8008436:	4293      	cmp	r3, r2
 8008438:	f000 81a3 	beq.w	8008782 <HAL_DMA_IRQHandler+0xb42>
 800843c:	3218      	adds	r2, #24
 800843e:	4293      	cmp	r3, r2
 8008440:	f000 8207 	beq.w	8008852 <HAL_DMA_IRQHandler+0xc12>
 8008444:	4940      	ldr	r1, [pc, #256]	; (8008548 <HAL_DMA_IRQHandler+0x908>)
 8008446:	428b      	cmp	r3, r1
 8008448:	bf0c      	ite	eq
 800844a:	f44f 2180 	moveq.w	r1, #262144	; 0x40000
 800844e:	f04f 7180 	movne.w	r1, #16777216	; 0x1000000
 8008452:	4a3e      	ldr	r2, [pc, #248]	; (800854c <HAL_DMA_IRQHandler+0x90c>)
 8008454:	60d1      	str	r1, [r2, #12]
 8008456:	e46b      	b.n	8007d30 <HAL_DMA_IRQHandler+0xf0>
 8008458:	4a3a      	ldr	r2, [pc, #232]	; (8008544 <HAL_DMA_IRQHandler+0x904>)
 800845a:	4293      	cmp	r3, r2
 800845c:	d937      	bls.n	80084ce <HAL_DMA_IRQHandler+0x88e>
 800845e:	3218      	adds	r2, #24
 8008460:	4293      	cmp	r3, r2
 8008462:	f000 818a 	beq.w	800877a <HAL_DMA_IRQHandler+0xb3a>
 8008466:	3218      	adds	r2, #24
 8008468:	4293      	cmp	r3, r2
 800846a:	f000 81fb 	beq.w	8008864 <HAL_DMA_IRQHandler+0xc24>
 800846e:	4936      	ldr	r1, [pc, #216]	; (8008548 <HAL_DMA_IRQHandler+0x908>)
 8008470:	428b      	cmp	r3, r1
 8008472:	bf0c      	ite	eq
 8008474:	f44f 3180 	moveq.w	r1, #65536	; 0x10000
 8008478:	f44f 0180 	movne.w	r1, #4194304	; 0x400000
 800847c:	4a33      	ldr	r2, [pc, #204]	; (800854c <HAL_DMA_IRQHandler+0x90c>)
 800847e:	60d1      	str	r1, [r2, #12]
 8008480:	e414      	b.n	8007cac <HAL_DMA_IRQHandler+0x6c>
 8008482:	f502 7256 	add.w	r2, r2, #856	; 0x358
 8008486:	4293      	cmp	r3, r2
 8008488:	f000 8167 	beq.w	800875a <HAL_DMA_IRQHandler+0xb1a>
 800848c:	3218      	adds	r2, #24
 800848e:	4293      	cmp	r3, r2
 8008490:	f000 81b2 	beq.w	80087f8 <HAL_DMA_IRQHandler+0xbb8>
 8008494:	4934      	ldr	r1, [pc, #208]	; (8008568 <HAL_DMA_IRQHandler+0x928>)
 8008496:	428b      	cmp	r3, r1
 8008498:	bf0c      	ite	eq
 800849a:	f44f 1100 	moveq.w	r1, #2097152	; 0x200000
 800849e:	f04f 6100 	movne.w	r1, #134217728	; 0x8000000
 80084a2:	4a2d      	ldr	r2, [pc, #180]	; (8008558 <HAL_DMA_IRQHandler+0x918>)
 80084a4:	6091      	str	r1, [r2, #8]
 80084a6:	e6ee      	b.n	8008286 <HAL_DMA_IRQHandler+0x646>
 80084a8:	f502 7256 	add.w	r2, r2, #856	; 0x358
 80084ac:	4293      	cmp	r3, r2
 80084ae:	f000 8152 	beq.w	8008756 <HAL_DMA_IRQHandler+0xb16>
 80084b2:	3218      	adds	r2, #24
 80084b4:	4293      	cmp	r3, r2
 80084b6:	f000 81a2 	beq.w	80087fe <HAL_DMA_IRQHandler+0xbbe>
 80084ba:	3218      	adds	r2, #24
 80084bc:	4293      	cmp	r3, r2
 80084be:	bf0c      	ite	eq
 80084c0:	f44f 1300 	moveq.w	r3, #2097152	; 0x200000
 80084c4:	f04f 6300 	movne.w	r3, #134217728	; 0x8000000
 80084c8:	4a23      	ldr	r2, [pc, #140]	; (8008558 <HAL_DMA_IRQHandler+0x918>)
 80084ca:	6093      	str	r3, [r2, #8]
 80084cc:	e77a      	b.n	80083c4 <HAL_DMA_IRQHandler+0x784>
 80084ce:	4a27      	ldr	r2, [pc, #156]	; (800856c <HAL_DMA_IRQHandler+0x92c>)
 80084d0:	4293      	cmp	r3, r2
 80084d2:	f000 8146 	beq.w	8008762 <HAL_DMA_IRQHandler+0xb22>
 80084d6:	3218      	adds	r2, #24
 80084d8:	4293      	cmp	r3, r2
 80084da:	f000 8193 	beq.w	8008804 <HAL_DMA_IRQHandler+0xbc4>
 80084de:	4924      	ldr	r1, [pc, #144]	; (8008570 <HAL_DMA_IRQHandler+0x930>)
 80084e0:	428b      	cmp	r3, r1
 80084e2:	bf0c      	ite	eq
 80084e4:	f44f 3180 	moveq.w	r1, #65536	; 0x10000
 80084e8:	f44f 0180 	movne.w	r1, #4194304	; 0x400000
 80084ec:	4a17      	ldr	r2, [pc, #92]	; (800854c <HAL_DMA_IRQHandler+0x90c>)
 80084ee:	6091      	str	r1, [r2, #8]
 80084f0:	f7ff bbdc 	b.w	8007cac <HAL_DMA_IRQHandler+0x6c>
 80084f4:	4a1d      	ldr	r2, [pc, #116]	; (800856c <HAL_DMA_IRQHandler+0x92c>)
 80084f6:	4293      	cmp	r3, r2
 80084f8:	f000 8135 	beq.w	8008766 <HAL_DMA_IRQHandler+0xb26>
 80084fc:	3218      	adds	r2, #24
 80084fe:	4293      	cmp	r3, r2
 8008500:	f000 8182 	beq.w	8008808 <HAL_DMA_IRQHandler+0xbc8>
 8008504:	491a      	ldr	r1, [pc, #104]	; (8008570 <HAL_DMA_IRQHandler+0x930>)
 8008506:	428b      	cmp	r3, r1
 8008508:	bf0c      	ite	eq
 800850a:	f44f 2180 	moveq.w	r1, #262144	; 0x40000
 800850e:	f04f 7180 	movne.w	r1, #16777216	; 0x1000000
 8008512:	4a0e      	ldr	r2, [pc, #56]	; (800854c <HAL_DMA_IRQHandler+0x90c>)
 8008514:	6091      	str	r1, [r2, #8]
 8008516:	e40b      	b.n	8007d30 <HAL_DMA_IRQHandler+0xf0>
 8008518:	f502 7256 	add.w	r2, r2, #856	; 0x358
 800851c:	4293      	cmp	r3, r2
 800851e:	f000 812a 	beq.w	8008776 <HAL_DMA_IRQHandler+0xb36>
 8008522:	3218      	adds	r2, #24
 8008524:	4293      	cmp	r3, r2
 8008526:	f000 8183 	beq.w	8008830 <HAL_DMA_IRQHandler+0xbf0>
 800852a:	490f      	ldr	r1, [pc, #60]	; (8008568 <HAL_DMA_IRQHandler+0x928>)
 800852c:	428b      	cmp	r3, r1
 800852e:	bf0c      	ite	eq
 8008530:	f44f 1180 	moveq.w	r1, #1048576	; 0x100000
 8008534:	f04f 6180 	movne.w	r1, #67108864	; 0x4000000
 8008538:	4a07      	ldr	r2, [pc, #28]	; (8008558 <HAL_DMA_IRQHandler+0x918>)
 800853a:	6091      	str	r1, [r2, #8]
 800853c:	e76b      	b.n	8008416 <HAL_DMA_IRQHandler+0x7d6>
 800853e:	bf00      	nop
 8008540:	400260b8 	.word	0x400260b8
 8008544:	40026058 	.word	0x40026058
 8008548:	400260a0 	.word	0x400260a0
 800854c:	40026000 	.word	0x40026000
 8008550:	40026458 	.word	0x40026458
 8008554:	40026470 	.word	0x40026470
 8008558:	40026400 	.word	0x40026400
 800855c:	40026488 	.word	0x40026488
 8008560:	40026070 	.word	0x40026070
 8008564:	400264a0 	.word	0x400264a0
 8008568:	40026440 	.word	0x40026440
 800856c:	40026010 	.word	0x40026010
 8008570:	40026040 	.word	0x40026040
 8008574:	f502 7256 	add.w	r2, r2, #856	; 0x358
 8008578:	4293      	cmp	r3, r2
 800857a:	f000 80fa 	beq.w	8008772 <HAL_DMA_IRQHandler+0xb32>
 800857e:	3218      	adds	r2, #24
 8008580:	4293      	cmp	r3, r2
 8008582:	f000 8152 	beq.w	800882a <HAL_DMA_IRQHandler+0xbea>
 8008586:	49ba      	ldr	r1, [pc, #744]	; (8008870 <HAL_DMA_IRQHandler+0xc30>)
 8008588:	428b      	cmp	r3, r1
 800858a:	bf0c      	ite	eq
 800858c:	f44f 1180 	moveq.w	r1, #1048576	; 0x100000
 8008590:	f04f 6180 	movne.w	r1, #67108864	; 0x4000000
 8008594:	4ab7      	ldr	r2, [pc, #732]	; (8008874 <HAL_DMA_IRQHandler+0xc34>)
 8008596:	6091      	str	r1, [r2, #8]
 8008598:	e697      	b.n	80082ca <HAL_DMA_IRQHandler+0x68a>
 800859a:	3218      	adds	r2, #24
 800859c:	4293      	cmp	r3, r2
 800859e:	f000 80ee 	beq.w	800877e <HAL_DMA_IRQHandler+0xb3e>
 80085a2:	3218      	adds	r2, #24
 80085a4:	4293      	cmp	r3, r2
 80085a6:	f000 815f 	beq.w	8008868 <HAL_DMA_IRQHandler+0xc28>
 80085aa:	48b3      	ldr	r0, [pc, #716]	; (8008878 <HAL_DMA_IRQHandler+0xc38>)
 80085ac:	4283      	cmp	r3, r0
 80085ae:	bf14      	ite	ne
 80085b0:	f04f 7000 	movne.w	r0, #33554432	; 0x2000000
 80085b4:	f44f 2000 	moveq.w	r0, #524288	; 0x80000
 80085b8:	49b0      	ldr	r1, [pc, #704]	; (800887c <HAL_DMA_IRQHandler+0xc3c>)
 80085ba:	6ca2      	ldr	r2, [r4, #72]	; 0x48
 80085bc:	60c8      	str	r0, [r1, #12]
 80085be:	6ce1      	ldr	r1, [r4, #76]	; 0x4c
 80085c0:	2004      	movs	r0, #4
 80085c2:	f041 0101 	orr.w	r1, r1, #1
 80085c6:	2500      	movs	r5, #0
 80085c8:	64e1      	str	r1, [r4, #76]	; 0x4c
 80085ca:	f884 5034 	strb.w	r5, [r4, #52]	; 0x34
 80085ce:	f884 0035 	strb.w	r0, [r4, #53]	; 0x35
 80085d2:	2a00      	cmp	r2, #0
 80085d4:	f47f acda 	bne.w	8007f8c <HAL_DMA_IRQHandler+0x34c>
 80085d8:	e507      	b.n	8007fea <HAL_DMA_IRQHandler+0x3aa>
 80085da:	0580      	lsls	r0, r0, #22
 80085dc:	f53f acaf 	bmi.w	8007f3e <HAL_DMA_IRQHandler+0x2fe>
 80085e0:	6851      	ldr	r1, [r2, #4]
 80085e2:	2240      	movs	r2, #64	; 0x40
 80085e4:	f7ff bb48 	b.w	8007c78 <HAL_DMA_IRQHandler+0x38>
 80085e8:	2240      	movs	r2, #64	; 0x40
 80085ea:	f7ff bb45 	b.w	8007c78 <HAL_DMA_IRQHandler+0x38>
 80085ee:	f44f 6200 	mov.w	r2, #2048	; 0x800
 80085f2:	e463      	b.n	8007ebc <HAL_DMA_IRQHandler+0x27c>
 80085f4:	f44f 6280 	mov.w	r2, #1024	; 0x400
 80085f8:	f7ff bbbe 	b.w	8007d78 <HAL_DMA_IRQHandler+0x138>
 80085fc:	f44f 7280 	mov.w	r2, #256	; 0x100
 8008600:	f7ff bb78 	b.w	8007cf4 <HAL_DMA_IRQHandler+0xb4>
 8008604:	2140      	movs	r1, #64	; 0x40
 8008606:	e55c      	b.n	80080c2 <HAL_DMA_IRQHandler+0x482>
 8008608:	f44f 6180 	mov.w	r1, #1024	; 0x400
 800860c:	e5ef      	b.n	80081ee <HAL_DMA_IRQHandler+0x5ae>
 800860e:	f44f 7180 	mov.w	r1, #256	; 0x100
 8008612:	e5a4      	b.n	800815e <HAL_DMA_IRQHandler+0x51e>
 8008614:	2008      	movs	r0, #8
 8008616:	e4ab      	b.n	8007f70 <HAL_DMA_IRQHandler+0x330>
 8008618:	4999      	ldr	r1, [pc, #612]	; (8008880 <HAL_DMA_IRQHandler+0xc40>)
 800861a:	f7ff bb87 	b.w	8007d2c <HAL_DMA_IRQHandler+0xec>
 800861e:	4998      	ldr	r1, [pc, #608]	; (8008880 <HAL_DMA_IRQHandler+0xc40>)
 8008620:	e5e1      	b.n	80081e6 <HAL_DMA_IRQHandler+0x5a6>
 8008622:	2008      	movs	r0, #8
 8008624:	e506      	b.n	8008034 <HAL_DMA_IRQHandler+0x3f4>
 8008626:	2120      	movs	r1, #32
 8008628:	e46a      	b.n	8007f00 <HAL_DMA_IRQHandler+0x2c0>
 800862a:	2320      	movs	r3, #32
 800862c:	e692      	b.n	8008354 <HAL_DMA_IRQHandler+0x714>
 800862e:	f44f 6180 	mov.w	r1, #1024	; 0x400
 8008632:	e439      	b.n	8007ea8 <HAL_DMA_IRQHandler+0x268>
 8008634:	f44f 7180 	mov.w	r1, #256	; 0x100
 8008638:	e422      	b.n	8007e80 <HAL_DMA_IRQHandler+0x240>
 800863a:	0581      	lsls	r1, r0, #22
 800863c:	f53f ac7f 	bmi.w	8007f3e <HAL_DMA_IRQHandler+0x2fe>
 8008640:	6812      	ldr	r2, [r2, #0]
 8008642:	2140      	movs	r1, #64	; 0x40
 8008644:	e408      	b.n	8007e58 <HAL_DMA_IRQHandler+0x218>
 8008646:	2140      	movs	r1, #64	; 0x40
 8008648:	e406      	b.n	8007e58 <HAL_DMA_IRQHandler+0x218>
 800864a:	2110      	movs	r1, #16
 800864c:	f7ff bbb2 	b.w	8007db4 <HAL_DMA_IRQHandler+0x174>
 8008650:	2110      	movs	r1, #16
 8008652:	e69b      	b.n	800838c <HAL_DMA_IRQHandler+0x74c>
 8008654:	0585      	lsls	r5, r0, #22
 8008656:	f53f ac72 	bmi.w	8007f3e <HAL_DMA_IRQHandler+0x2fe>
 800865a:	6852      	ldr	r2, [r2, #4]
 800865c:	2140      	movs	r1, #64	; 0x40
 800865e:	f7ff bbde 	b.w	8007e1e <HAL_DMA_IRQHandler+0x1de>
 8008662:	2140      	movs	r1, #64	; 0x40
 8008664:	f7ff bbdb 	b.w	8007e1e <HAL_DMA_IRQHandler+0x1de>
 8008668:	f44f 6180 	mov.w	r1, #1024	; 0x400
 800866c:	e5a3      	b.n	80081b6 <HAL_DMA_IRQHandler+0x576>
 800866e:	f44f 7180 	mov.w	r1, #256	; 0x100
 8008672:	e56f      	b.n	8008154 <HAL_DMA_IRQHandler+0x514>
 8008674:	681b      	ldr	r3, [r3, #0]
 8008676:	031d      	lsls	r5, r3, #12
 8008678:	f57f ae0d 	bpl.w	8008296 <HAL_DMA_IRQHandler+0x656>
 800867c:	6be3      	ldr	r3, [r4, #60]	; 0x3c
 800867e:	2b00      	cmp	r3, #0
 8008680:	f47f aeac 	bne.w	80083dc <HAL_DMA_IRQHandler+0x79c>
 8008684:	e607      	b.n	8008296 <HAL_DMA_IRQHandler+0x656>
 8008686:	0706      	lsls	r6, r0, #28
 8008688:	f53f ac59 	bmi.w	8007f3e <HAL_DMA_IRQHandler+0x2fe>
 800868c:	6812      	ldr	r2, [r2, #0]
 800868e:	497d      	ldr	r1, [pc, #500]	; (8008884 <HAL_DMA_IRQHandler+0xc44>)
 8008690:	f7ff bbe2 	b.w	8007e58 <HAL_DMA_IRQHandler+0x218>
 8008694:	497a      	ldr	r1, [pc, #488]	; (8008880 <HAL_DMA_IRQHandler+0xc40>)
 8008696:	f7ff bbf3 	b.w	8007e80 <HAL_DMA_IRQHandler+0x240>
 800869a:	4979      	ldr	r1, [pc, #484]	; (8008880 <HAL_DMA_IRQHandler+0xc40>)
 800869c:	e55a      	b.n	8008154 <HAL_DMA_IRQHandler+0x514>
 800869e:	2110      	movs	r1, #16
 80086a0:	e589      	b.n	80081b6 <HAL_DMA_IRQHandler+0x576>
 80086a2:	0706      	lsls	r6, r0, #28
 80086a4:	f53f ac4b 	bmi.w	8007f3e <HAL_DMA_IRQHandler+0x2fe>
 80086a8:	6852      	ldr	r2, [r2, #4]
 80086aa:	4976      	ldr	r1, [pc, #472]	; (8008884 <HAL_DMA_IRQHandler+0xc44>)
 80086ac:	f7ff bbb7 	b.w	8007e1e <HAL_DMA_IRQHandler+0x1de>
 80086b0:	2110      	movs	r1, #16
 80086b2:	f7ff bbf9 	b.w	8007ea8 <HAL_DMA_IRQHandler+0x268>
 80086b6:	f44f 6100 	mov.w	r1, #2048	; 0x800
 80086ba:	f7ff bbff 	b.w	8007ebc <HAL_DMA_IRQHandler+0x27c>
 80086be:	4a72      	ldr	r2, [pc, #456]	; (8008888 <HAL_DMA_IRQHandler+0xc48>)
 80086c0:	4293      	cmp	r3, r2
 80086c2:	d054      	beq.n	800876e <HAL_DMA_IRQHandler+0xb2e>
 80086c4:	3218      	adds	r2, #24
 80086c6:	4293      	cmp	r3, r2
 80086c8:	f000 80b8 	beq.w	800883c <HAL_DMA_IRQHandler+0xbfc>
 80086cc:	496f      	ldr	r1, [pc, #444]	; (800888c <HAL_DMA_IRQHandler+0xc4c>)
 80086ce:	428b      	cmp	r3, r1
 80086d0:	bf0c      	ite	eq
 80086d2:	f44f 1100 	moveq.w	r1, #2097152	; 0x200000
 80086d6:	f04f 6100 	movne.w	r1, #134217728	; 0x8000000
 80086da:	4a68      	ldr	r2, [pc, #416]	; (800887c <HAL_DMA_IRQHandler+0xc3c>)
 80086dc:	6091      	str	r1, [r2, #8]
 80086de:	e5d2      	b.n	8008286 <HAL_DMA_IRQHandler+0x646>
 80086e0:	4a69      	ldr	r2, [pc, #420]	; (8008888 <HAL_DMA_IRQHandler+0xc48>)
 80086e2:	4293      	cmp	r3, r2
 80086e4:	d041      	beq.n	800876a <HAL_DMA_IRQHandler+0xb2a>
 80086e6:	3218      	adds	r2, #24
 80086e8:	4293      	cmp	r3, r2
 80086ea:	f000 80a4 	beq.w	8008836 <HAL_DMA_IRQHandler+0xbf6>
 80086ee:	3218      	adds	r2, #24
 80086f0:	4293      	cmp	r3, r2
 80086f2:	bf0c      	ite	eq
 80086f4:	f44f 1300 	moveq.w	r3, #2097152	; 0x200000
 80086f8:	f04f 6300 	movne.w	r3, #134217728	; 0x8000000
 80086fc:	4a5f      	ldr	r2, [pc, #380]	; (800887c <HAL_DMA_IRQHandler+0xc3c>)
 80086fe:	6093      	str	r3, [r2, #8]
 8008700:	e660      	b.n	80083c4 <HAL_DMA_IRQHandler+0x784>
 8008702:	4a61      	ldr	r2, [pc, #388]	; (8008888 <HAL_DMA_IRQHandler+0xc48>)
 8008704:	4293      	cmp	r3, r2
 8008706:	d03e      	beq.n	8008786 <HAL_DMA_IRQHandler+0xb46>
 8008708:	3218      	adds	r2, #24
 800870a:	4293      	cmp	r3, r2
 800870c:	f000 80a4 	beq.w	8008858 <HAL_DMA_IRQHandler+0xc18>
 8008710:	495e      	ldr	r1, [pc, #376]	; (800888c <HAL_DMA_IRQHandler+0xc4c>)
 8008712:	428b      	cmp	r3, r1
 8008714:	bf0c      	ite	eq
 8008716:	f44f 1180 	moveq.w	r1, #1048576	; 0x100000
 800871a:	f04f 6180 	movne.w	r1, #67108864	; 0x4000000
 800871e:	4a57      	ldr	r2, [pc, #348]	; (800887c <HAL_DMA_IRQHandler+0xc3c>)
 8008720:	6091      	str	r1, [r2, #8]
 8008722:	e5d2      	b.n	80082ca <HAL_DMA_IRQHandler+0x68a>
 8008724:	4a58      	ldr	r2, [pc, #352]	; (8008888 <HAL_DMA_IRQHandler+0xc48>)
 8008726:	4293      	cmp	r3, r2
 8008728:	d02f      	beq.n	800878a <HAL_DMA_IRQHandler+0xb4a>
 800872a:	3218      	adds	r2, #24
 800872c:	4293      	cmp	r3, r2
 800872e:	f000 8096 	beq.w	800885e <HAL_DMA_IRQHandler+0xc1e>
 8008732:	4956      	ldr	r1, [pc, #344]	; (800888c <HAL_DMA_IRQHandler+0xc4c>)
 8008734:	428b      	cmp	r3, r1
 8008736:	bf0c      	ite	eq
 8008738:	f44f 1180 	moveq.w	r1, #1048576	; 0x100000
 800873c:	f04f 6180 	movne.w	r1, #67108864	; 0x4000000
 8008740:	4a4e      	ldr	r2, [pc, #312]	; (800887c <HAL_DMA_IRQHandler+0xc3c>)
 8008742:	6091      	str	r1, [r2, #8]
 8008744:	e667      	b.n	8008416 <HAL_DMA_IRQHandler+0x7d6>
 8008746:	0581      	lsls	r1, r0, #22
 8008748:	f53f abf9 	bmi.w	8007f3e <HAL_DMA_IRQHandler+0x2fe>
 800874c:	6812      	ldr	r2, [r2, #0]
 800874e:	2140      	movs	r1, #64	; 0x40
 8008750:	e4b7      	b.n	80080c2 <HAL_DMA_IRQHandler+0x482>
 8008752:	494c      	ldr	r1, [pc, #304]	; (8008884 <HAL_DMA_IRQHandler+0xc44>)
 8008754:	e4d2      	b.n	80080fc <HAL_DMA_IRQHandler+0x4bc>
 8008756:	2320      	movs	r3, #32
 8008758:	e6b6      	b.n	80084c8 <HAL_DMA_IRQHandler+0x888>
 800875a:	2120      	movs	r1, #32
 800875c:	e6a1      	b.n	80084a2 <HAL_DMA_IRQHandler+0x862>
 800875e:	2008      	movs	r0, #8
 8008760:	e48b      	b.n	800807a <HAL_DMA_IRQHandler+0x43a>
 8008762:	4948      	ldr	r1, [pc, #288]	; (8008884 <HAL_DMA_IRQHandler+0xc44>)
 8008764:	e6c2      	b.n	80084ec <HAL_DMA_IRQHandler+0x8ac>
 8008766:	4946      	ldr	r1, [pc, #280]	; (8008880 <HAL_DMA_IRQHandler+0xc40>)
 8008768:	e6d3      	b.n	8008512 <HAL_DMA_IRQHandler+0x8d2>
 800876a:	2320      	movs	r3, #32
 800876c:	e7c6      	b.n	80086fc <HAL_DMA_IRQHandler+0xabc>
 800876e:	2120      	movs	r1, #32
 8008770:	e7b3      	b.n	80086da <HAL_DMA_IRQHandler+0xa9a>
 8008772:	2110      	movs	r1, #16
 8008774:	e70e      	b.n	8008594 <HAL_DMA_IRQHandler+0x954>
 8008776:	2110      	movs	r1, #16
 8008778:	e6de      	b.n	8008538 <HAL_DMA_IRQHandler+0x8f8>
 800877a:	4942      	ldr	r1, [pc, #264]	; (8008884 <HAL_DMA_IRQHandler+0xc44>)
 800877c:	e67e      	b.n	800847c <HAL_DMA_IRQHandler+0x83c>
 800877e:	2008      	movs	r0, #8
 8008780:	e71a      	b.n	80085b8 <HAL_DMA_IRQHandler+0x978>
 8008782:	493f      	ldr	r1, [pc, #252]	; (8008880 <HAL_DMA_IRQHandler+0xc40>)
 8008784:	e665      	b.n	8008452 <HAL_DMA_IRQHandler+0x812>
 8008786:	2110      	movs	r1, #16
 8008788:	e7c9      	b.n	800871e <HAL_DMA_IRQHandler+0xade>
 800878a:	2110      	movs	r1, #16
 800878c:	e7d8      	b.n	8008740 <HAL_DMA_IRQHandler+0xb00>
 800878e:	0305      	lsls	r5, r0, #12
 8008790:	f53f abd5 	bmi.w	8007f3e <HAL_DMA_IRQHandler+0x2fe>
 8008794:	6851      	ldr	r1, [r2, #4]
 8008796:	f44f 3280 	mov.w	r2, #65536	; 0x10000
 800879a:	f7ff ba6d 	b.w	8007c78 <HAL_DMA_IRQHandler+0x38>
 800879e:	0306      	lsls	r6, r0, #12
 80087a0:	f53f abcd 	bmi.w	8007f3e <HAL_DMA_IRQHandler+0x2fe>
 80087a4:	6812      	ldr	r2, [r2, #0]
 80087a6:	f44f 3180 	mov.w	r1, #65536	; 0x10000
 80087aa:	e48a      	b.n	80080c2 <HAL_DMA_IRQHandler+0x482>
 80087ac:	f44f 7180 	mov.w	r1, #256	; 0x100
 80087b0:	f7ff babc 	b.w	8007d2c <HAL_DMA_IRQHandler+0xec>
 80087b4:	f44f 7000 	mov.w	r0, #512	; 0x200
 80087b8:	f7ff bbda 	b.w	8007f70 <HAL_DMA_IRQHandler+0x330>
 80087bc:	2140      	movs	r1, #64	; 0x40
 80087be:	f7ff ba73 	b.w	8007ca8 <HAL_DMA_IRQHandler+0x68>
 80087c2:	f44f 7000 	mov.w	r0, #512	; 0x200
 80087c6:	e435      	b.n	8008034 <HAL_DMA_IRQHandler+0x3f4>
 80087c8:	f44f 7180 	mov.w	r1, #256	; 0x100
 80087cc:	e50b      	b.n	80081e6 <HAL_DMA_IRQHandler+0x5a6>
 80087ce:	2140      	movs	r1, #64	; 0x40
 80087d0:	e494      	b.n	80080fc <HAL_DMA_IRQHandler+0x4bc>
 80087d2:	2320      	movs	r3, #32
 80087d4:	e5f4      	b.n	80083c0 <HAL_DMA_IRQHandler+0x780>
 80087d6:	2120      	movs	r1, #32
 80087d8:	e553      	b.n	8008282 <HAL_DMA_IRQHandler+0x642>
 80087da:	f44f 6100 	mov.w	r1, #2048	; 0x800
 80087de:	f7ff bb8f 	b.w	8007f00 <HAL_DMA_IRQHandler+0x2c0>
 80087e2:	f44f 6300 	mov.w	r3, #2048	; 0x800
 80087e6:	e5b5      	b.n	8008354 <HAL_DMA_IRQHandler+0x714>
 80087e8:	0300      	lsls	r0, r0, #12
 80087ea:	f53f aba8 	bmi.w	8007f3e <HAL_DMA_IRQHandler+0x2fe>
 80087ee:	6812      	ldr	r2, [r2, #0]
 80087f0:	f44f 3180 	mov.w	r1, #65536	; 0x10000
 80087f4:	f7ff bb30 	b.w	8007e58 <HAL_DMA_IRQHandler+0x218>
 80087f8:	f44f 6100 	mov.w	r1, #2048	; 0x800
 80087fc:	e651      	b.n	80084a2 <HAL_DMA_IRQHandler+0x862>
 80087fe:	f44f 6300 	mov.w	r3, #2048	; 0x800
 8008802:	e661      	b.n	80084c8 <HAL_DMA_IRQHandler+0x888>
 8008804:	2140      	movs	r1, #64	; 0x40
 8008806:	e671      	b.n	80084ec <HAL_DMA_IRQHandler+0x8ac>
 8008808:	f44f 7180 	mov.w	r1, #256	; 0x100
 800880c:	e681      	b.n	8008512 <HAL_DMA_IRQHandler+0x8d2>
 800880e:	f44f 7000 	mov.w	r0, #512	; 0x200
 8008812:	e432      	b.n	800807a <HAL_DMA_IRQHandler+0x43a>
 8008814:	2110      	movs	r1, #16
 8008816:	e556      	b.n	80082c6 <HAL_DMA_IRQHandler+0x686>
 8008818:	2110      	movs	r1, #16
 800881a:	e5fa      	b.n	8008412 <HAL_DMA_IRQHandler+0x7d2>
 800881c:	f44f 6180 	mov.w	r1, #1024	; 0x400
 8008820:	f7ff bac8 	b.w	8007db4 <HAL_DMA_IRQHandler+0x174>
 8008824:	f44f 6180 	mov.w	r1, #1024	; 0x400
 8008828:	e5b0      	b.n	800838c <HAL_DMA_IRQHandler+0x74c>
 800882a:	f44f 6180 	mov.w	r1, #1024	; 0x400
 800882e:	e6b1      	b.n	8008594 <HAL_DMA_IRQHandler+0x954>
 8008830:	f44f 6180 	mov.w	r1, #1024	; 0x400
 8008834:	e680      	b.n	8008538 <HAL_DMA_IRQHandler+0x8f8>
 8008836:	f44f 6300 	mov.w	r3, #2048	; 0x800
 800883a:	e75f      	b.n	80086fc <HAL_DMA_IRQHandler+0xabc>
 800883c:	f44f 6100 	mov.w	r1, #2048	; 0x800
 8008840:	e74b      	b.n	80086da <HAL_DMA_IRQHandler+0xa9a>
 8008842:	0301      	lsls	r1, r0, #12
 8008844:	f53f ab7b 	bmi.w	8007f3e <HAL_DMA_IRQHandler+0x2fe>
 8008848:	6852      	ldr	r2, [r2, #4]
 800884a:	f44f 3180 	mov.w	r1, #65536	; 0x10000
 800884e:	f7ff bae6 	b.w	8007e1e <HAL_DMA_IRQHandler+0x1de>
 8008852:	f44f 7180 	mov.w	r1, #256	; 0x100
 8008856:	e5fc      	b.n	8008452 <HAL_DMA_IRQHandler+0x812>
 8008858:	f44f 6180 	mov.w	r1, #1024	; 0x400
 800885c:	e75f      	b.n	800871e <HAL_DMA_IRQHandler+0xade>
 800885e:	f44f 6180 	mov.w	r1, #1024	; 0x400
 8008862:	e76d      	b.n	8008740 <HAL_DMA_IRQHandler+0xb00>
 8008864:	2140      	movs	r1, #64	; 0x40
 8008866:	e609      	b.n	800847c <HAL_DMA_IRQHandler+0x83c>
 8008868:	f44f 7000 	mov.w	r0, #512	; 0x200
 800886c:	e6a4      	b.n	80085b8 <HAL_DMA_IRQHandler+0x978>
 800886e:	bf00      	nop
 8008870:	40026440 	.word	0x40026440
 8008874:	40026400 	.word	0x40026400
 8008878:	400260a0 	.word	0x400260a0
 800887c:	40026000 	.word	0x40026000
 8008880:	00800004 	.word	0x00800004
 8008884:	00800001 	.word	0x00800001
 8008888:	40026010 	.word	0x40026010
 800888c:	40026040 	.word	0x40026040
 8008890:	f44f 6300 	mov.w	r3, #2048	; 0x800
 8008894:	e594      	b.n	80083c0 <HAL_DMA_IRQHandler+0x780>
 8008896:	f44f 6100 	mov.w	r1, #2048	; 0x800
 800889a:	e4f2      	b.n	8008282 <HAL_DMA_IRQHandler+0x642>
 800889c:	f44f 6180 	mov.w	r1, #1024	; 0x400
 80088a0:	e5b7      	b.n	8008412 <HAL_DMA_IRQHandler+0x7d2>
 80088a2:	f44f 6180 	mov.w	r1, #1024	; 0x400
 80088a6:	e50e      	b.n	80082c6 <HAL_DMA_IRQHandler+0x686>
 80088a8:	4a05      	ldr	r2, [pc, #20]	; (80088c0 <HAL_DMA_IRQHandler+0xc80>)
 80088aa:	f7ff ba23 	b.w	8007cf4 <HAL_DMA_IRQHandler+0xb4>
 80088ae:	2210      	movs	r2, #16
 80088b0:	f7ff ba62 	b.w	8007d78 <HAL_DMA_IRQHandler+0x138>
 80088b4:	4903      	ldr	r1, [pc, #12]	; (80088c4 <HAL_DMA_IRQHandler+0xc84>)
 80088b6:	f7ff b9f7 	b.w	8007ca8 <HAL_DMA_IRQHandler+0x68>
 80088ba:	2220      	movs	r2, #32
 80088bc:	f7ff bafe 	b.w	8007ebc <HAL_DMA_IRQHandler+0x27c>
 80088c0:	00800004 	.word	0x00800004
 80088c4:	00800001 	.word	0x00800001

080088c8 <cs43l22_Init>:
cs43l22_Init():
 80088c8:	e92d 47f0 	stmdb	sp!, {r4, r5, r6, r7, r8, r9, sl, lr}
 80088cc:	4c3e      	ldr	r4, [pc, #248]	; (80089c8 <cs43l22_Init+0x100>)
 80088ce:	f8df e0fc 	ldr.w	lr, [pc, #252]	; 80089cc <cs43l22_Init+0x104>
 80088d2:	6b23      	ldr	r3, [r4, #48]	; 0x30
 80088d4:	f043 0308 	orr.w	r3, r3, #8
 80088d8:	4605      	mov	r5, r0
 80088da:	460e      	mov	r6, r1
 80088dc:	6323      	str	r3, [r4, #48]	; 0x30
 80088de:	b084      	sub	sp, #16
 80088e0:	4617      	mov	r7, r2
 80088e2:	2400      	movs	r4, #0
 80088e4:	2101      	movs	r1, #1
 80088e6:	f04f 0c03 	mov.w	ip, #3
 80088ea:	2002      	movs	r0, #2
 80088ec:	3401      	adds	r4, #1
 80088ee:	fa01 f304 	lsl.w	r3, r1, r4
 80088f2:	2c10      	cmp	r4, #16
 80088f4:	f003 0210 	and.w	r2, r3, #16
 80088f8:	d02c      	beq.n	8008954 <cs43l22_Init+0x8c>
 80088fa:	4293      	cmp	r3, r2
 80088fc:	d1f6      	bne.n	80088ec <cs43l22_Init+0x24>
 80088fe:	ea4f 0944 	mov.w	r9, r4, lsl #1
 8008902:	f8de 8000 	ldr.w	r8, [lr]
 8008906:	fa0c f209 	lsl.w	r2, ip, r9
 800890a:	43d2      	mvns	r2, r2
 800890c:	ea02 0a08 	and.w	sl, r2, r8
 8008910:	fa01 f809 	lsl.w	r8, r1, r9
 8008914:	ea4a 0808 	orr.w	r8, sl, r8
 8008918:	f8ce 8000 	str.w	r8, [lr]
 800891c:	f8de 8008 	ldr.w	r8, [lr, #8]
 8008920:	fa00 f909 	lsl.w	r9, r0, r9
 8008924:	ea02 0808 	and.w	r8, r2, r8
 8008928:	ea48 0809 	orr.w	r8, r8, r9
 800892c:	f8ce 8008 	str.w	r8, [lr, #8]
 8008930:	f8de 8004 	ldr.w	r8, [lr, #4]
 8008934:	ea28 0303 	bic.w	r3, r8, r3
 8008938:	f8ce 3004 	str.w	r3, [lr, #4]
 800893c:	f8de 300c 	ldr.w	r3, [lr, #12]
 8008940:	3401      	adds	r4, #1
 8008942:	401a      	ands	r2, r3
 8008944:	2c10      	cmp	r4, #16
 8008946:	fa01 f304 	lsl.w	r3, r1, r4
 800894a:	f8ce 200c 	str.w	r2, [lr, #12]
 800894e:	f003 0210 	and.w	r2, r3, #16
 8008952:	d1d2      	bne.n	80088fa <cs43l22_Init+0x32>
 8008954:	f004 fda4 	bl	800d4a0 <I2Cx_Init.lto_priv.174>
 8008958:	4b1c      	ldr	r3, [pc, #112]	; (80089cc <cs43l22_Init+0x104>)
 800895a:	4a1d      	ldr	r2, [pc, #116]	; (80089d0 <cs43l22_Init+0x108>)
 800895c:	835c      	strh	r4, [r3, #26]
 800895e:	6810      	ldr	r0, [r2, #0]
 8008960:	6813      	ldr	r3, [r2, #0]
 8008962:	491b      	ldr	r1, [pc, #108]	; (80089d0 <cs43l22_Init+0x108>)
 8008964:	1a1b      	subs	r3, r3, r0
 8008966:	2b05      	cmp	r3, #5
 8008968:	d3fa      	bcc.n	8008960 <cs43l22_Init+0x98>
 800896a:	4b18      	ldr	r3, [pc, #96]	; (80089cc <cs43l22_Init+0x104>)
 800896c:	2010      	movs	r0, #16
 800896e:	8318      	strh	r0, [r3, #24]
 8008970:	6809      	ldr	r1, [r1, #0]
 8008972:	6813      	ldr	r3, [r2, #0]
 8008974:	1a5b      	subs	r3, r3, r1
 8008976:	2b05      	cmp	r3, #5
 8008978:	d3fb      	bcc.n	8008972 <cs43l22_Init+0xaa>
 800897a:	4c16      	ldr	r4, [pc, #88]	; (80089d4 <cs43l22_Init+0x10c>)
 800897c:	f894 3035 	ldrb.w	r3, [r4, #53]	; 0x35
 8008980:	2201      	movs	r2, #1
 8008982:	b2db      	uxtb	r3, r3
 8008984:	4293      	cmp	r3, r2
 8008986:	f88d 2003 	strb.w	r2, [sp, #3]
 800898a:	fa5f f885 	uxtb.w	r8, r5
 800898e:	6822      	ldr	r2, [r4, #0]
 8008990:	f000 81ab 	beq.w	8008cea <cs43l22_Init+0x422>
 8008994:	2302      	movs	r3, #2
 8008996:	f884 3035 	strb.w	r3, [r4, #53]	; 0x35
 800899a:	6813      	ldr	r3, [r2, #0]
 800899c:	f023 0301 	bic.w	r3, r3, #1
 80089a0:	6013      	str	r3, [r2, #0]
 80089a2:	2300      	movs	r3, #0
 80089a4:	f884 3036 	strb.w	r3, [r4, #54]	; 0x36
 80089a8:	f884 3034 	strb.w	r3, [r4, #52]	; 0x34
 80089ac:	f884 3035 	strb.w	r3, [r4, #53]	; 0x35
 80089b0:	f004 fd76 	bl	800d4a0 <I2Cx_Init.lto_priv.174>
 80089b4:	1e73      	subs	r3, r6, #1
 80089b6:	2b03      	cmp	r3, #3
 80089b8:	d80e      	bhi.n	80089d8 <cs43l22_Init+0x110>
 80089ba:	e8df f013 	tbh	[pc, r3, lsl #1]
 80089be:	016c      	.short	0x016c
 80089c0:	01640168 	.word	0x01640168
 80089c4:	000d      	.short	0x000d
 80089c6:	bf00      	nop
 80089c8:	40023800 	.word	0x40023800
 80089cc:	40020c00 	.word	0x40020c00
 80089d0:	2001f734 	.word	0x2001f734
 80089d4:	2001f738 	.word	0x2001f738
 80089d8:	4bd7      	ldr	r3, [pc, #860]	; (8008d38 <cs43l22_Init+0x470>)
 80089da:	2205      	movs	r2, #5
 80089dc:	701a      	strb	r2, [r3, #0]
 80089de:	781a      	ldrb	r2, [r3, #0]
 80089e0:	f894 3035 	ldrb.w	r3, [r4, #53]	; 0x35
 80089e4:	f8df 9354 	ldr.w	r9, [pc, #852]	; 8008d3c <cs43l22_Init+0x474>
 80089e8:	f88d 2004 	strb.w	r2, [sp, #4]
 80089ec:	b2db      	uxtb	r3, r3
 80089ee:	2b01      	cmp	r3, #1
 80089f0:	f8d9 2000 	ldr.w	r2, [r9]
 80089f4:	f000 8153 	beq.w	8008c9e <cs43l22_Init+0x3d6>
 80089f8:	2302      	movs	r3, #2
 80089fa:	f884 3035 	strb.w	r3, [r4, #53]	; 0x35
 80089fe:	6813      	ldr	r3, [r2, #0]
 8008a00:	f023 0301 	bic.w	r3, r3, #1
 8008a04:	6013      	str	r3, [r2, #0]
 8008a06:	2300      	movs	r3, #0
 8008a08:	f884 3036 	strb.w	r3, [r4, #54]	; 0x36
 8008a0c:	f884 3034 	strb.w	r3, [r4, #52]	; 0x34
 8008a10:	f884 3035 	strb.w	r3, [r4, #53]	; 0x35
 8008a14:	f004 fd44 	bl	800d4a0 <I2Cx_Init.lto_priv.174>
 8008a18:	f894 3035 	ldrb.w	r3, [r4, #53]	; 0x35
 8008a1c:	f8df 931c 	ldr.w	r9, [pc, #796]	; 8008d3c <cs43l22_Init+0x474>
 8008a20:	b2db      	uxtb	r3, r3
 8008a22:	2281      	movs	r2, #129	; 0x81
 8008a24:	2b01      	cmp	r3, #1
 8008a26:	f88d 2005 	strb.w	r2, [sp, #5]
 8008a2a:	f8d9 2000 	ldr.w	r2, [r9]
 8008a2e:	f000 828f 	beq.w	8008f50 <cs43l22_Init+0x688>
 8008a32:	2302      	movs	r3, #2
 8008a34:	f884 3035 	strb.w	r3, [r4, #53]	; 0x35
 8008a38:	6813      	ldr	r3, [r2, #0]
 8008a3a:	f023 0301 	bic.w	r3, r3, #1
 8008a3e:	6013      	str	r3, [r2, #0]
 8008a40:	2300      	movs	r3, #0
 8008a42:	f884 3036 	strb.w	r3, [r4, #54]	; 0x36
 8008a46:	f884 3034 	strb.w	r3, [r4, #52]	; 0x34
 8008a4a:	f884 3035 	strb.w	r3, [r4, #53]	; 0x35
 8008a4e:	f004 fd27 	bl	800d4a0 <I2Cx_Init.lto_priv.174>
 8008a52:	f894 3035 	ldrb.w	r3, [r4, #53]	; 0x35
 8008a56:	f8df 92e4 	ldr.w	r9, [pc, #740]	; 8008d3c <cs43l22_Init+0x474>
 8008a5a:	b2db      	uxtb	r3, r3
 8008a5c:	2204      	movs	r2, #4
 8008a5e:	2b01      	cmp	r3, #1
 8008a60:	f88d 2006 	strb.w	r2, [sp, #6]
 8008a64:	f8d9 2000 	ldr.w	r2, [r9]
 8008a68:	f000 824b 	beq.w	8008f02 <cs43l22_Init+0x63a>
 8008a6c:	2302      	movs	r3, #2
 8008a6e:	f884 3035 	strb.w	r3, [r4, #53]	; 0x35
 8008a72:	6813      	ldr	r3, [r2, #0]
 8008a74:	f023 0301 	bic.w	r3, r3, #1
 8008a78:	6013      	str	r3, [r2, #0]
 8008a7a:	2300      	movs	r3, #0
 8008a7c:	f884 3036 	strb.w	r3, [r4, #54]	; 0x36
 8008a80:	f884 3034 	strb.w	r3, [r4, #52]	; 0x34
 8008a84:	f884 3035 	strb.w	r3, [r4, #53]	; 0x35
 8008a88:	f004 fd0a 	bl	800d4a0 <I2Cx_Init.lto_priv.174>
 8008a8c:	4628      	mov	r0, r5
 8008a8e:	4639      	mov	r1, r7
 8008a90:	f000 fe1e 	bl	80096d0 <cs43l22_SetVolume>
 8008a94:	2e02      	cmp	r6, #2
 8008a96:	4605      	mov	r5, r0
 8008a98:	d050      	beq.n	8008b3c <cs43l22_Init+0x274>
 8008a9a:	f894 3035 	ldrb.w	r3, [r4, #53]	; 0x35
 8008a9e:	4ea7      	ldr	r6, [pc, #668]	; (8008d3c <cs43l22_Init+0x474>)
 8008aa0:	b2db      	uxtb	r3, r3
 8008aa2:	2206      	movs	r2, #6
 8008aa4:	2b01      	cmp	r3, #1
 8008aa6:	f88d 2007 	strb.w	r2, [sp, #7]
 8008aaa:	6832      	ldr	r2, [r6, #0]
 8008aac:	f000 82bf 	beq.w	800902e <cs43l22_Init+0x766>
 8008ab0:	2302      	movs	r3, #2
 8008ab2:	f884 3035 	strb.w	r3, [r4, #53]	; 0x35
 8008ab6:	6813      	ldr	r3, [r2, #0]
 8008ab8:	f023 0301 	bic.w	r3, r3, #1
 8008abc:	6013      	str	r3, [r2, #0]
 8008abe:	2300      	movs	r3, #0
 8008ac0:	f884 3036 	strb.w	r3, [r4, #54]	; 0x36
 8008ac4:	f884 3034 	strb.w	r3, [r4, #52]	; 0x34
 8008ac8:	f884 3035 	strb.w	r3, [r4, #53]	; 0x35
 8008acc:	f004 fce8 	bl	800d4a0 <I2Cx_Init.lto_priv.174>
 8008ad0:	f894 3035 	ldrb.w	r3, [r4, #53]	; 0x35
 8008ad4:	4e99      	ldr	r6, [pc, #612]	; (8008d3c <cs43l22_Init+0x474>)
 8008ad6:	b2db      	uxtb	r3, r3
 8008ad8:	2200      	movs	r2, #0
 8008ada:	2b01      	cmp	r3, #1
 8008adc:	f88d 2008 	strb.w	r2, [sp, #8]
 8008ae0:	6832      	ldr	r2, [r6, #0]
 8008ae2:	f000 8280 	beq.w	8008fe6 <cs43l22_Init+0x71e>
 8008ae6:	2302      	movs	r3, #2
 8008ae8:	f884 3035 	strb.w	r3, [r4, #53]	; 0x35
 8008aec:	6813      	ldr	r3, [r2, #0]
 8008aee:	f023 0301 	bic.w	r3, r3, #1
 8008af2:	6013      	str	r3, [r2, #0]
 8008af4:	2300      	movs	r3, #0
 8008af6:	f884 3036 	strb.w	r3, [r4, #54]	; 0x36
 8008afa:	f884 3034 	strb.w	r3, [r4, #52]	; 0x34
 8008afe:	f884 3035 	strb.w	r3, [r4, #53]	; 0x35
 8008b02:	f004 fccd 	bl	800d4a0 <I2Cx_Init.lto_priv.174>
 8008b06:	f894 3035 	ldrb.w	r3, [r4, #53]	; 0x35
 8008b0a:	4e8c      	ldr	r6, [pc, #560]	; (8008d3c <cs43l22_Init+0x474>)
 8008b0c:	b2db      	uxtb	r3, r3
 8008b0e:	2200      	movs	r2, #0
 8008b10:	2b01      	cmp	r3, #1
 8008b12:	f88d 2009 	strb.w	r2, [sp, #9]
 8008b16:	6832      	ldr	r2, [r6, #0]
 8008b18:	f000 8240 	beq.w	8008f9c <cs43l22_Init+0x6d4>
 8008b1c:	2302      	movs	r3, #2
 8008b1e:	f884 3035 	strb.w	r3, [r4, #53]	; 0x35
 8008b22:	6813      	ldr	r3, [r2, #0]
 8008b24:	f023 0301 	bic.w	r3, r3, #1
 8008b28:	6013      	str	r3, [r2, #0]
 8008b2a:	2300      	movs	r3, #0
 8008b2c:	f884 3036 	strb.w	r3, [r4, #54]	; 0x36
 8008b30:	f884 3034 	strb.w	r3, [r4, #52]	; 0x34
 8008b34:	f884 3035 	strb.w	r3, [r4, #53]	; 0x35
 8008b38:	f004 fcb2 	bl	800d4a0 <I2Cx_Init.lto_priv.174>
 8008b3c:	f894 3035 	ldrb.w	r3, [r4, #53]	; 0x35
 8008b40:	4e7e      	ldr	r6, [pc, #504]	; (8008d3c <cs43l22_Init+0x474>)
 8008b42:	b2db      	uxtb	r3, r3
 8008b44:	2200      	movs	r2, #0
 8008b46:	2b01      	cmp	r3, #1
 8008b48:	f88d 200a 	strb.w	r2, [sp, #10]
 8008b4c:	6832      	ldr	r2, [r6, #0]
 8008b4e:	f000 81b2 	beq.w	8008eb6 <cs43l22_Init+0x5ee>
 8008b52:	2302      	movs	r3, #2
 8008b54:	f884 3035 	strb.w	r3, [r4, #53]	; 0x35
 8008b58:	6813      	ldr	r3, [r2, #0]
 8008b5a:	f023 0301 	bic.w	r3, r3, #1
 8008b5e:	6013      	str	r3, [r2, #0]
 8008b60:	2300      	movs	r3, #0
 8008b62:	f884 3036 	strb.w	r3, [r4, #54]	; 0x36
 8008b66:	f884 3034 	strb.w	r3, [r4, #52]	; 0x34
 8008b6a:	f884 3035 	strb.w	r3, [r4, #53]	; 0x35
 8008b6e:	f004 fc97 	bl	800d4a0 <I2Cx_Init.lto_priv.174>
 8008b72:	f894 3035 	ldrb.w	r3, [r4, #53]	; 0x35
 8008b76:	4e71      	ldr	r6, [pc, #452]	; (8008d3c <cs43l22_Init+0x474>)
 8008b78:	b2db      	uxtb	r3, r3
 8008b7a:	2204      	movs	r2, #4
 8008b7c:	2b01      	cmp	r3, #1
 8008b7e:	f88d 200b 	strb.w	r2, [sp, #11]
 8008b82:	6832      	ldr	r2, [r6, #0]
 8008b84:	f000 8171 	beq.w	8008e6a <cs43l22_Init+0x5a2>
 8008b88:	2302      	movs	r3, #2
 8008b8a:	f884 3035 	strb.w	r3, [r4, #53]	; 0x35
 8008b8e:	6813      	ldr	r3, [r2, #0]
 8008b90:	f023 0301 	bic.w	r3, r3, #1
 8008b94:	6013      	str	r3, [r2, #0]
 8008b96:	2300      	movs	r3, #0
 8008b98:	f884 3036 	strb.w	r3, [r4, #54]	; 0x36
 8008b9c:	f884 3034 	strb.w	r3, [r4, #52]	; 0x34
 8008ba0:	f884 3035 	strb.w	r3, [r4, #53]	; 0x35
 8008ba4:	f004 fc7c 	bl	800d4a0 <I2Cx_Init.lto_priv.174>
 8008ba8:	f894 3035 	ldrb.w	r3, [r4, #53]	; 0x35
 8008bac:	4e63      	ldr	r6, [pc, #396]	; (8008d3c <cs43l22_Init+0x474>)
 8008bae:	b2db      	uxtb	r3, r3
 8008bb0:	2200      	movs	r2, #0
 8008bb2:	2b01      	cmp	r3, #1
 8008bb4:	f88d 200c 	strb.w	r2, [sp, #12]
 8008bb8:	6832      	ldr	r2, [r6, #0]
 8008bba:	f000 8131 	beq.w	8008e20 <cs43l22_Init+0x558>
 8008bbe:	2302      	movs	r3, #2
 8008bc0:	f884 3035 	strb.w	r3, [r4, #53]	; 0x35
 8008bc4:	6813      	ldr	r3, [r2, #0]
 8008bc6:	f023 0301 	bic.w	r3, r3, #1
 8008bca:	6013      	str	r3, [r2, #0]
 8008bcc:	2300      	movs	r3, #0
 8008bce:	f884 3036 	strb.w	r3, [r4, #54]	; 0x36
 8008bd2:	f884 3034 	strb.w	r3, [r4, #52]	; 0x34
 8008bd6:	f884 3035 	strb.w	r3, [r4, #53]	; 0x35
 8008bda:	f004 fc61 	bl	800d4a0 <I2Cx_Init.lto_priv.174>
 8008bde:	f894 3035 	ldrb.w	r3, [r4, #53]	; 0x35
 8008be2:	4e56      	ldr	r6, [pc, #344]	; (8008d3c <cs43l22_Init+0x474>)
 8008be4:	b2db      	uxtb	r3, r3
 8008be6:	220f      	movs	r2, #15
 8008be8:	2b01      	cmp	r3, #1
 8008bea:	f88d 200d 	strb.w	r2, [sp, #13]
 8008bee:	6832      	ldr	r2, [r6, #0]
 8008bf0:	f000 80f0 	beq.w	8008dd4 <cs43l22_Init+0x50c>
 8008bf4:	2302      	movs	r3, #2
 8008bf6:	f884 3035 	strb.w	r3, [r4, #53]	; 0x35
 8008bfa:	6813      	ldr	r3, [r2, #0]
 8008bfc:	f023 0301 	bic.w	r3, r3, #1
 8008c00:	6013      	str	r3, [r2, #0]
 8008c02:	2300      	movs	r3, #0
 8008c04:	f884 3036 	strb.w	r3, [r4, #54]	; 0x36
 8008c08:	f884 3034 	strb.w	r3, [r4, #52]	; 0x34
 8008c0c:	f884 3035 	strb.w	r3, [r4, #53]	; 0x35
 8008c10:	f004 fc46 	bl	800d4a0 <I2Cx_Init.lto_priv.174>
 8008c14:	f894 3035 	ldrb.w	r3, [r4, #53]	; 0x35
 8008c18:	4e48      	ldr	r6, [pc, #288]	; (8008d3c <cs43l22_Init+0x474>)
 8008c1a:	b2db      	uxtb	r3, r3
 8008c1c:	220a      	movs	r2, #10
 8008c1e:	2b01      	cmp	r3, #1
 8008c20:	f88d 200e 	strb.w	r2, [sp, #14]
 8008c24:	6832      	ldr	r2, [r6, #0]
 8008c26:	f000 80af 	beq.w	8008d88 <cs43l22_Init+0x4c0>
 8008c2a:	2302      	movs	r3, #2
 8008c2c:	f884 3035 	strb.w	r3, [r4, #53]	; 0x35
 8008c30:	6813      	ldr	r3, [r2, #0]
 8008c32:	f023 0301 	bic.w	r3, r3, #1
 8008c36:	6013      	str	r3, [r2, #0]
 8008c38:	2300      	movs	r3, #0
 8008c3a:	f884 3036 	strb.w	r3, [r4, #54]	; 0x36
 8008c3e:	f884 3034 	strb.w	r3, [r4, #52]	; 0x34
 8008c42:	f884 3035 	strb.w	r3, [r4, #53]	; 0x35
 8008c46:	f004 fc2b 	bl	800d4a0 <I2Cx_Init.lto_priv.174>
 8008c4a:	f894 3035 	ldrb.w	r3, [r4, #53]	; 0x35
 8008c4e:	4e3b      	ldr	r6, [pc, #236]	; (8008d3c <cs43l22_Init+0x474>)
 8008c50:	b2db      	uxtb	r3, r3
 8008c52:	220a      	movs	r2, #10
 8008c54:	2b01      	cmp	r3, #1
 8008c56:	f88d 200f 	strb.w	r2, [sp, #15]
 8008c5a:	6832      	ldr	r2, [r6, #0]
 8008c5c:	d070      	beq.n	8008d40 <cs43l22_Init+0x478>
 8008c5e:	2302      	movs	r3, #2
 8008c60:	f884 3035 	strb.w	r3, [r4, #53]	; 0x35
 8008c64:	6813      	ldr	r3, [r2, #0]
 8008c66:	f023 0301 	bic.w	r3, r3, #1
 8008c6a:	6013      	str	r3, [r2, #0]
 8008c6c:	2300      	movs	r3, #0
 8008c6e:	f884 3036 	strb.w	r3, [r4, #54]	; 0x36
 8008c72:	f884 3034 	strb.w	r3, [r4, #52]	; 0x34
 8008c76:	f884 3035 	strb.w	r3, [r4, #53]	; 0x35
 8008c7a:	f004 fc11 	bl	800d4a0 <I2Cx_Init.lto_priv.174>
 8008c7e:	4628      	mov	r0, r5
 8008c80:	b004      	add	sp, #16
 8008c82:	e8bd 87f0 	ldmia.w	sp!, {r4, r5, r6, r7, r8, r9, sl, pc}
 8008c86:	4b2c      	ldr	r3, [pc, #176]	; (8008d38 <cs43l22_Init+0x470>)
 8008c88:	22aa      	movs	r2, #170	; 0xaa
 8008c8a:	701a      	strb	r2, [r3, #0]
 8008c8c:	e6a7      	b.n	80089de <cs43l22_Init+0x116>
 8008c8e:	4b2a      	ldr	r3, [pc, #168]	; (8008d38 <cs43l22_Init+0x470>)
 8008c90:	22af      	movs	r2, #175	; 0xaf
 8008c92:	701a      	strb	r2, [r3, #0]
 8008c94:	e6a3      	b.n	80089de <cs43l22_Init+0x116>
 8008c96:	4b28      	ldr	r3, [pc, #160]	; (8008d38 <cs43l22_Init+0x470>)
 8008c98:	22fa      	movs	r2, #250	; 0xfa
 8008c9a:	701a      	strb	r2, [r3, #0]
 8008c9c:	e69f      	b.n	80089de <cs43l22_Init+0x116>
 8008c9e:	6991      	ldr	r1, [r2, #24]
 8008ca0:	f011 0e02 	ands.w	lr, r1, #2
 8008ca4:	f47f aea8 	bne.w	80089f8 <cs43l22_Init+0x130>
 8008ca8:	f899 1034 	ldrb.w	r1, [r9, #52]	; 0x34
 8008cac:	2901      	cmp	r1, #1
 8008cae:	f43f aea3 	beq.w	80089f8 <cs43l22_Init+0x130>
 8008cb2:	f04f 0c32 	mov.w	ip, #50	; 0x32
 8008cb6:	4640      	mov	r0, r8
 8008cb8:	2104      	movs	r1, #4
 8008cba:	f44f 5280 	mov.w	r2, #4096	; 0x1000
 8008cbe:	f889 c035 	strb.w	ip, [r9, #53]	; 0x35
 8008cc2:	f889 3034 	strb.w	r3, [r9, #52]	; 0x34
 8008cc6:	f889 e036 	strb.w	lr, [r9, #54]	; 0x36
 8008cca:	f004 fb1d 	bl	800d308 <I2C_RequestMemoryWrite.constprop.63>
 8008cce:	2800      	cmp	r0, #0
 8008cd0:	f040 81d7 	bne.w	8009082 <cs43l22_Init+0x7ba>
 8008cd4:	a801      	add	r0, sp, #4
 8008cd6:	f44f 5180 	mov.w	r1, #4096	; 0x1000
 8008cda:	f004 fb83 	bl	800d3e4 <HAL_I2C_Mem_Write.part.16.constprop.60>
 8008cde:	2800      	cmp	r0, #0
 8008ce0:	f43f ae9a 	beq.w	8008a18 <cs43l22_Init+0x150>
 8008ce4:	f8d9 2000 	ldr.w	r2, [r9]
 8008ce8:	e686      	b.n	80089f8 <cs43l22_Init+0x130>
 8008cea:	6991      	ldr	r1, [r2, #24]
 8008cec:	f011 0e02 	ands.w	lr, r1, #2
 8008cf0:	f47f ae50 	bne.w	8008994 <cs43l22_Init+0xcc>
 8008cf4:	f894 1034 	ldrb.w	r1, [r4, #52]	; 0x34
 8008cf8:	2901      	cmp	r1, #1
 8008cfa:	f43f ae4b 	beq.w	8008994 <cs43l22_Init+0xcc>
 8008cfe:	f04f 0c32 	mov.w	ip, #50	; 0x32
 8008d02:	4640      	mov	r0, r8
 8008d04:	2102      	movs	r1, #2
 8008d06:	f44f 5280 	mov.w	r2, #4096	; 0x1000
 8008d0a:	f884 c035 	strb.w	ip, [r4, #53]	; 0x35
 8008d0e:	f884 3034 	strb.w	r3, [r4, #52]	; 0x34
 8008d12:	f884 e036 	strb.w	lr, [r4, #54]	; 0x36
 8008d16:	f004 faf7 	bl	800d308 <I2C_RequestMemoryWrite.constprop.63>
 8008d1a:	2800      	cmp	r0, #0
 8008d1c:	f040 81bb 	bne.w	8009096 <cs43l22_Init+0x7ce>
 8008d20:	f10d 0003 	add.w	r0, sp, #3
 8008d24:	f44f 5180 	mov.w	r1, #4096	; 0x1000
 8008d28:	f004 fb5c 	bl	800d3e4 <HAL_I2C_Mem_Write.part.16.constprop.60>
 8008d2c:	2800      	cmp	r0, #0
 8008d2e:	f43f ae41 	beq.w	80089b4 <cs43l22_Init+0xec>
 8008d32:	6822      	ldr	r2, [r4, #0]
 8008d34:	e62e      	b.n	8008994 <cs43l22_Init+0xcc>
 8008d36:	bf00      	nop
 8008d38:	2001f105 	.word	0x2001f105
 8008d3c:	2001f738 	.word	0x2001f738
 8008d40:	6991      	ldr	r1, [r2, #24]
 8008d42:	f011 0702 	ands.w	r7, r1, #2
 8008d46:	d18a      	bne.n	8008c5e <cs43l22_Init+0x396>
 8008d48:	f896 1034 	ldrb.w	r1, [r6, #52]	; 0x34
 8008d4c:	2901      	cmp	r1, #1
 8008d4e:	d086      	beq.n	8008c5e <cs43l22_Init+0x396>
 8008d50:	f04f 0e32 	mov.w	lr, #50	; 0x32
 8008d54:	4640      	mov	r0, r8
 8008d56:	211b      	movs	r1, #27
 8008d58:	f44f 5280 	mov.w	r2, #4096	; 0x1000
 8008d5c:	f886 e035 	strb.w	lr, [r6, #53]	; 0x35
 8008d60:	f886 3034 	strb.w	r3, [r6, #52]	; 0x34
 8008d64:	f886 7036 	strb.w	r7, [r6, #54]	; 0x36
 8008d68:	f004 face 	bl	800d308 <I2C_RequestMemoryWrite.constprop.63>
 8008d6c:	2800      	cmp	r0, #0
 8008d6e:	f040 819a 	bne.w	80090a6 <cs43l22_Init+0x7de>
 8008d72:	f10d 000f 	add.w	r0, sp, #15
 8008d76:	f44f 5180 	mov.w	r1, #4096	; 0x1000
 8008d7a:	f004 fb33 	bl	800d3e4 <HAL_I2C_Mem_Write.part.16.constprop.60>
 8008d7e:	2800      	cmp	r0, #0
 8008d80:	f43f af7d 	beq.w	8008c7e <cs43l22_Init+0x3b6>
 8008d84:	6832      	ldr	r2, [r6, #0]
 8008d86:	e76a      	b.n	8008c5e <cs43l22_Init+0x396>
 8008d88:	6991      	ldr	r1, [r2, #24]
 8008d8a:	f011 0702 	ands.w	r7, r1, #2
 8008d8e:	f47f af4c 	bne.w	8008c2a <cs43l22_Init+0x362>
 8008d92:	f896 1034 	ldrb.w	r1, [r6, #52]	; 0x34
 8008d96:	2901      	cmp	r1, #1
 8008d98:	f43f af47 	beq.w	8008c2a <cs43l22_Init+0x362>
 8008d9c:	f04f 0e32 	mov.w	lr, #50	; 0x32
 8008da0:	4640      	mov	r0, r8
 8008da2:	211a      	movs	r1, #26
 8008da4:	f44f 5280 	mov.w	r2, #4096	; 0x1000
 8008da8:	f886 e035 	strb.w	lr, [r6, #53]	; 0x35
 8008dac:	f886 3034 	strb.w	r3, [r6, #52]	; 0x34
 8008db0:	f886 7036 	strb.w	r7, [r6, #54]	; 0x36
 8008db4:	f004 faa8 	bl	800d308 <I2C_RequestMemoryWrite.constprop.63>
 8008db8:	2800      	cmp	r0, #0
 8008dba:	f040 8170 	bne.w	800909e <cs43l22_Init+0x7d6>
 8008dbe:	f10d 000e 	add.w	r0, sp, #14
 8008dc2:	f44f 5180 	mov.w	r1, #4096	; 0x1000
 8008dc6:	f004 fb0d 	bl	800d3e4 <HAL_I2C_Mem_Write.part.16.constprop.60>
 8008dca:	2800      	cmp	r0, #0
 8008dcc:	f43f af3d 	beq.w	8008c4a <cs43l22_Init+0x382>
 8008dd0:	6832      	ldr	r2, [r6, #0]
 8008dd2:	e72a      	b.n	8008c2a <cs43l22_Init+0x362>
 8008dd4:	6991      	ldr	r1, [r2, #24]
 8008dd6:	f011 0702 	ands.w	r7, r1, #2
 8008dda:	f47f af0b 	bne.w	8008bf4 <cs43l22_Init+0x32c>
 8008dde:	f896 1034 	ldrb.w	r1, [r6, #52]	; 0x34
 8008de2:	2901      	cmp	r1, #1
 8008de4:	f43f af06 	beq.w	8008bf4 <cs43l22_Init+0x32c>
 8008de8:	f04f 0e32 	mov.w	lr, #50	; 0x32
 8008dec:	4640      	mov	r0, r8
 8008dee:	211f      	movs	r1, #31
 8008df0:	f44f 5280 	mov.w	r2, #4096	; 0x1000
 8008df4:	f886 e035 	strb.w	lr, [r6, #53]	; 0x35
 8008df8:	f886 3034 	strb.w	r3, [r6, #52]	; 0x34
 8008dfc:	f886 7036 	strb.w	r7, [r6, #54]	; 0x36
 8008e00:	f004 fa82 	bl	800d308 <I2C_RequestMemoryWrite.constprop.63>
 8008e04:	2800      	cmp	r0, #0
 8008e06:	f040 815e 	bne.w	80090c6 <cs43l22_Init+0x7fe>
 8008e0a:	f10d 000d 	add.w	r0, sp, #13
 8008e0e:	f44f 5180 	mov.w	r1, #4096	; 0x1000
 8008e12:	f004 fae7 	bl	800d3e4 <HAL_I2C_Mem_Write.part.16.constprop.60>
 8008e16:	2800      	cmp	r0, #0
 8008e18:	f43f aefc 	beq.w	8008c14 <cs43l22_Init+0x34c>
 8008e1c:	6832      	ldr	r2, [r6, #0]
 8008e1e:	e6e9      	b.n	8008bf4 <cs43l22_Init+0x32c>
 8008e20:	6991      	ldr	r1, [r2, #24]
 8008e22:	f011 0702 	ands.w	r7, r1, #2
 8008e26:	f47f aeca 	bne.w	8008bbe <cs43l22_Init+0x2f6>
 8008e2a:	f896 1034 	ldrb.w	r1, [r6, #52]	; 0x34
 8008e2e:	2901      	cmp	r1, #1
 8008e30:	f43f aec5 	beq.w	8008bbe <cs43l22_Init+0x2f6>
 8008e34:	f04f 0e32 	mov.w	lr, #50	; 0x32
 8008e38:	4640      	mov	r0, r8
 8008e3a:	2127      	movs	r1, #39	; 0x27
 8008e3c:	f44f 5280 	mov.w	r2, #4096	; 0x1000
 8008e40:	f886 e035 	strb.w	lr, [r6, #53]	; 0x35
 8008e44:	f886 3034 	strb.w	r3, [r6, #52]	; 0x34
 8008e48:	f886 7036 	strb.w	r7, [r6, #54]	; 0x36
 8008e4c:	f004 fa5c 	bl	800d308 <I2C_RequestMemoryWrite.constprop.63>
 8008e50:	2800      	cmp	r0, #0
 8008e52:	f040 8134 	bne.w	80090be <cs43l22_Init+0x7f6>
 8008e56:	a803      	add	r0, sp, #12
 8008e58:	f44f 5180 	mov.w	r1, #4096	; 0x1000
 8008e5c:	f004 fac2 	bl	800d3e4 <HAL_I2C_Mem_Write.part.16.constprop.60>
 8008e60:	2800      	cmp	r0, #0
 8008e62:	f43f aebc 	beq.w	8008bde <cs43l22_Init+0x316>
 8008e66:	6832      	ldr	r2, [r6, #0]
 8008e68:	e6a9      	b.n	8008bbe <cs43l22_Init+0x2f6>
 8008e6a:	6991      	ldr	r1, [r2, #24]
 8008e6c:	f011 0702 	ands.w	r7, r1, #2
 8008e70:	f47f ae8a 	bne.w	8008b88 <cs43l22_Init+0x2c0>
 8008e74:	f896 1034 	ldrb.w	r1, [r6, #52]	; 0x34
 8008e78:	2901      	cmp	r1, #1
 8008e7a:	f43f ae85 	beq.w	8008b88 <cs43l22_Init+0x2c0>
 8008e7e:	f04f 0e32 	mov.w	lr, #50	; 0x32
 8008e82:	4640      	mov	r0, r8
 8008e84:	210e      	movs	r1, #14
 8008e86:	f44f 5280 	mov.w	r2, #4096	; 0x1000
 8008e8a:	f886 e035 	strb.w	lr, [r6, #53]	; 0x35
 8008e8e:	f886 3034 	strb.w	r3, [r6, #52]	; 0x34
 8008e92:	f886 7036 	strb.w	r7, [r6, #54]	; 0x36
 8008e96:	f004 fa37 	bl	800d308 <I2C_RequestMemoryWrite.constprop.63>
 8008e9a:	2800      	cmp	r0, #0
 8008e9c:	f040 810b 	bne.w	80090b6 <cs43l22_Init+0x7ee>
 8008ea0:	f10d 000b 	add.w	r0, sp, #11
 8008ea4:	f44f 5180 	mov.w	r1, #4096	; 0x1000
 8008ea8:	f004 fa9c 	bl	800d3e4 <HAL_I2C_Mem_Write.part.16.constprop.60>
 8008eac:	2800      	cmp	r0, #0
 8008eae:	f43f ae7b 	beq.w	8008ba8 <cs43l22_Init+0x2e0>
 8008eb2:	6832      	ldr	r2, [r6, #0]
 8008eb4:	e668      	b.n	8008b88 <cs43l22_Init+0x2c0>
 8008eb6:	6991      	ldr	r1, [r2, #24]
 8008eb8:	f011 0702 	ands.w	r7, r1, #2
 8008ebc:	f47f ae49 	bne.w	8008b52 <cs43l22_Init+0x28a>
 8008ec0:	f896 1034 	ldrb.w	r1, [r6, #52]	; 0x34
 8008ec4:	2901      	cmp	r1, #1
 8008ec6:	f43f ae44 	beq.w	8008b52 <cs43l22_Init+0x28a>
 8008eca:	f04f 0e32 	mov.w	lr, #50	; 0x32
 8008ece:	4640      	mov	r0, r8
 8008ed0:	210a      	movs	r1, #10
 8008ed2:	f44f 5280 	mov.w	r2, #4096	; 0x1000
 8008ed6:	f886 e035 	strb.w	lr, [r6, #53]	; 0x35
 8008eda:	f886 3034 	strb.w	r3, [r6, #52]	; 0x34
 8008ede:	f886 7036 	strb.w	r7, [r6, #54]	; 0x36
 8008ee2:	f004 fa11 	bl	800d308 <I2C_RequestMemoryWrite.constprop.63>
 8008ee6:	2800      	cmp	r0, #0
 8008ee8:	f040 80e1 	bne.w	80090ae <cs43l22_Init+0x7e6>
 8008eec:	f10d 000a 	add.w	r0, sp, #10
 8008ef0:	f44f 5180 	mov.w	r1, #4096	; 0x1000
 8008ef4:	f004 fa76 	bl	800d3e4 <HAL_I2C_Mem_Write.part.16.constprop.60>
 8008ef8:	2800      	cmp	r0, #0
 8008efa:	f43f ae3a 	beq.w	8008b72 <cs43l22_Init+0x2aa>
 8008efe:	6832      	ldr	r2, [r6, #0]
 8008f00:	e627      	b.n	8008b52 <cs43l22_Init+0x28a>
 8008f02:	6991      	ldr	r1, [r2, #24]
 8008f04:	f011 0e02 	ands.w	lr, r1, #2
 8008f08:	f47f adb0 	bne.w	8008a6c <cs43l22_Init+0x1a4>
 8008f0c:	f899 1034 	ldrb.w	r1, [r9, #52]	; 0x34
 8008f10:	2901      	cmp	r1, #1
 8008f12:	f43f adab 	beq.w	8008a6c <cs43l22_Init+0x1a4>
 8008f16:	f04f 0c32 	mov.w	ip, #50	; 0x32
 8008f1a:	4640      	mov	r0, r8
 8008f1c:	2106      	movs	r1, #6
 8008f1e:	f44f 5280 	mov.w	r2, #4096	; 0x1000
 8008f22:	f889 c035 	strb.w	ip, [r9, #53]	; 0x35
 8008f26:	f889 3034 	strb.w	r3, [r9, #52]	; 0x34
 8008f2a:	f889 e036 	strb.w	lr, [r9, #54]	; 0x36
 8008f2e:	f004 f9eb 	bl	800d308 <I2C_RequestMemoryWrite.constprop.63>
 8008f32:	2800      	cmp	r0, #0
 8008f34:	f040 80aa 	bne.w	800908c <cs43l22_Init+0x7c4>
 8008f38:	f10d 0006 	add.w	r0, sp, #6
 8008f3c:	f44f 5180 	mov.w	r1, #4096	; 0x1000
 8008f40:	f004 fa50 	bl	800d3e4 <HAL_I2C_Mem_Write.part.16.constprop.60>
 8008f44:	2800      	cmp	r0, #0
 8008f46:	f43f ada1 	beq.w	8008a8c <cs43l22_Init+0x1c4>
 8008f4a:	f8d9 2000 	ldr.w	r2, [r9]
 8008f4e:	e58d      	b.n	8008a6c <cs43l22_Init+0x1a4>
 8008f50:	6991      	ldr	r1, [r2, #24]
 8008f52:	f011 0e02 	ands.w	lr, r1, #2
 8008f56:	f47f ad6c 	bne.w	8008a32 <cs43l22_Init+0x16a>
 8008f5a:	f899 1034 	ldrb.w	r1, [r9, #52]	; 0x34
 8008f5e:	2901      	cmp	r1, #1
 8008f60:	f43f ad67 	beq.w	8008a32 <cs43l22_Init+0x16a>
 8008f64:	f04f 0c32 	mov.w	ip, #50	; 0x32
 8008f68:	4640      	mov	r0, r8
 8008f6a:	2105      	movs	r1, #5
 8008f6c:	f44f 5280 	mov.w	r2, #4096	; 0x1000
 8008f70:	f889 c035 	strb.w	ip, [r9, #53]	; 0x35
 8008f74:	f889 3034 	strb.w	r3, [r9, #52]	; 0x34
 8008f78:	f889 e036 	strb.w	lr, [r9, #54]	; 0x36
 8008f7c:	f004 f9c4 	bl	800d308 <I2C_RequestMemoryWrite.constprop.63>
 8008f80:	2800      	cmp	r0, #0
 8008f82:	d179      	bne.n	8009078 <cs43l22_Init+0x7b0>
 8008f84:	f10d 0005 	add.w	r0, sp, #5
 8008f88:	f44f 5180 	mov.w	r1, #4096	; 0x1000
 8008f8c:	f004 fa2a 	bl	800d3e4 <HAL_I2C_Mem_Write.part.16.constprop.60>
 8008f90:	2800      	cmp	r0, #0
 8008f92:	f43f ad5e 	beq.w	8008a52 <cs43l22_Init+0x18a>
 8008f96:	f8d9 2000 	ldr.w	r2, [r9]
 8008f9a:	e54a      	b.n	8008a32 <cs43l22_Init+0x16a>
 8008f9c:	6991      	ldr	r1, [r2, #24]
 8008f9e:	f011 0702 	ands.w	r7, r1, #2
 8008fa2:	f47f adbb 	bne.w	8008b1c <cs43l22_Init+0x254>
 8008fa6:	f896 1034 	ldrb.w	r1, [r6, #52]	; 0x34
 8008faa:	2901      	cmp	r1, #1
 8008fac:	f43f adb6 	beq.w	8008b1c <cs43l22_Init+0x254>
 8008fb0:	f04f 0e32 	mov.w	lr, #50	; 0x32
 8008fb4:	4640      	mov	r0, r8
 8008fb6:	2125      	movs	r1, #37	; 0x25
 8008fb8:	f44f 5280 	mov.w	r2, #4096	; 0x1000
 8008fbc:	f886 e035 	strb.w	lr, [r6, #53]	; 0x35
 8008fc0:	f886 3034 	strb.w	r3, [r6, #52]	; 0x34
 8008fc4:	f886 7036 	strb.w	r7, [r6, #54]	; 0x36
 8008fc8:	f004 f99e 	bl	800d308 <I2C_RequestMemoryWrite.constprop.63>
 8008fcc:	2800      	cmp	r0, #0
 8008fce:	d17e      	bne.n	80090ce <cs43l22_Init+0x806>
 8008fd0:	f10d 0009 	add.w	r0, sp, #9
 8008fd4:	f44f 5180 	mov.w	r1, #4096	; 0x1000
 8008fd8:	f004 fa04 	bl	800d3e4 <HAL_I2C_Mem_Write.part.16.constprop.60>
 8008fdc:	2800      	cmp	r0, #0
 8008fde:	f43f adad 	beq.w	8008b3c <cs43l22_Init+0x274>
 8008fe2:	6832      	ldr	r2, [r6, #0]
 8008fe4:	e59a      	b.n	8008b1c <cs43l22_Init+0x254>
 8008fe6:	6991      	ldr	r1, [r2, #24]
 8008fe8:	f011 0702 	ands.w	r7, r1, #2
 8008fec:	f47f ad7b 	bne.w	8008ae6 <cs43l22_Init+0x21e>
 8008ff0:	f896 1034 	ldrb.w	r1, [r6, #52]	; 0x34
 8008ff4:	2901      	cmp	r1, #1
 8008ff6:	f43f ad76 	beq.w	8008ae6 <cs43l22_Init+0x21e>
 8008ffa:	f04f 0e32 	mov.w	lr, #50	; 0x32
 8008ffe:	4640      	mov	r0, r8
 8009000:	2124      	movs	r1, #36	; 0x24
 8009002:	f44f 5280 	mov.w	r2, #4096	; 0x1000
 8009006:	f886 e035 	strb.w	lr, [r6, #53]	; 0x35
 800900a:	f886 3034 	strb.w	r3, [r6, #52]	; 0x34
 800900e:	f886 7036 	strb.w	r7, [r6, #54]	; 0x36
 8009012:	f004 f979 	bl	800d308 <I2C_RequestMemoryWrite.constprop.63>
 8009016:	2800      	cmp	r0, #0
 8009018:	d161      	bne.n	80090de <cs43l22_Init+0x816>
 800901a:	a802      	add	r0, sp, #8
 800901c:	f44f 5180 	mov.w	r1, #4096	; 0x1000
 8009020:	f004 f9e0 	bl	800d3e4 <HAL_I2C_Mem_Write.part.16.constprop.60>
 8009024:	2800      	cmp	r0, #0
 8009026:	f43f ad6e 	beq.w	8008b06 <cs43l22_Init+0x23e>
 800902a:	6832      	ldr	r2, [r6, #0]
 800902c:	e55b      	b.n	8008ae6 <cs43l22_Init+0x21e>
 800902e:	6991      	ldr	r1, [r2, #24]
 8009030:	f011 0702 	ands.w	r7, r1, #2
 8009034:	f47f ad3c 	bne.w	8008ab0 <cs43l22_Init+0x1e8>
 8009038:	f896 1034 	ldrb.w	r1, [r6, #52]	; 0x34
 800903c:	2901      	cmp	r1, #1
 800903e:	f43f ad37 	beq.w	8008ab0 <cs43l22_Init+0x1e8>
 8009042:	f04f 0e32 	mov.w	lr, #50	; 0x32
 8009046:	4640      	mov	r0, r8
 8009048:	210f      	movs	r1, #15
 800904a:	f44f 5280 	mov.w	r2, #4096	; 0x1000
 800904e:	f886 e035 	strb.w	lr, [r6, #53]	; 0x35
 8009052:	f886 3034 	strb.w	r3, [r6, #52]	; 0x34
 8009056:	f886 7036 	strb.w	r7, [r6, #54]	; 0x36
 800905a:	f004 f955 	bl	800d308 <I2C_RequestMemoryWrite.constprop.63>
 800905e:	2800      	cmp	r0, #0
 8009060:	d139      	bne.n	80090d6 <cs43l22_Init+0x80e>
 8009062:	f10d 0007 	add.w	r0, sp, #7
 8009066:	f44f 5180 	mov.w	r1, #4096	; 0x1000
 800906a:	f004 f9bb 	bl	800d3e4 <HAL_I2C_Mem_Write.part.16.constprop.60>
 800906e:	2800      	cmp	r0, #0
 8009070:	f43f ad2e 	beq.w	8008ad0 <cs43l22_Init+0x208>
 8009074:	6832      	ldr	r2, [r6, #0]
 8009076:	e51b      	b.n	8008ab0 <cs43l22_Init+0x1e8>
 8009078:	f899 3036 	ldrb.w	r3, [r9, #54]	; 0x36
 800907c:	f8d9 2000 	ldr.w	r2, [r9]
 8009080:	e4d7      	b.n	8008a32 <cs43l22_Init+0x16a>
 8009082:	f899 3036 	ldrb.w	r3, [r9, #54]	; 0x36
 8009086:	f8d9 2000 	ldr.w	r2, [r9]
 800908a:	e4b5      	b.n	80089f8 <cs43l22_Init+0x130>
 800908c:	f899 3036 	ldrb.w	r3, [r9, #54]	; 0x36
 8009090:	f8d9 2000 	ldr.w	r2, [r9]
 8009094:	e4ea      	b.n	8008a6c <cs43l22_Init+0x1a4>
 8009096:	f894 3036 	ldrb.w	r3, [r4, #54]	; 0x36
 800909a:	6822      	ldr	r2, [r4, #0]
 800909c:	e47a      	b.n	8008994 <cs43l22_Init+0xcc>
 800909e:	f896 3036 	ldrb.w	r3, [r6, #54]	; 0x36
 80090a2:	6832      	ldr	r2, [r6, #0]
 80090a4:	e5c1      	b.n	8008c2a <cs43l22_Init+0x362>
 80090a6:	f896 3036 	ldrb.w	r3, [r6, #54]	; 0x36
 80090aa:	6832      	ldr	r2, [r6, #0]
 80090ac:	e5d7      	b.n	8008c5e <cs43l22_Init+0x396>
 80090ae:	f896 3036 	ldrb.w	r3, [r6, #54]	; 0x36
 80090b2:	6832      	ldr	r2, [r6, #0]
 80090b4:	e54d      	b.n	8008b52 <cs43l22_Init+0x28a>
 80090b6:	f896 3036 	ldrb.w	r3, [r6, #54]	; 0x36
 80090ba:	6832      	ldr	r2, [r6, #0]
 80090bc:	e564      	b.n	8008b88 <cs43l22_Init+0x2c0>
 80090be:	f896 3036 	ldrb.w	r3, [r6, #54]	; 0x36
 80090c2:	6832      	ldr	r2, [r6, #0]
 80090c4:	e57b      	b.n	8008bbe <cs43l22_Init+0x2f6>
 80090c6:	f896 3036 	ldrb.w	r3, [r6, #54]	; 0x36
 80090ca:	6832      	ldr	r2, [r6, #0]
 80090cc:	e592      	b.n	8008bf4 <cs43l22_Init+0x32c>
 80090ce:	f896 3036 	ldrb.w	r3, [r6, #54]	; 0x36
 80090d2:	6832      	ldr	r2, [r6, #0]
 80090d4:	e522      	b.n	8008b1c <cs43l22_Init+0x254>
 80090d6:	f896 3036 	ldrb.w	r3, [r6, #54]	; 0x36
 80090da:	6832      	ldr	r2, [r6, #0]
 80090dc:	e4e8      	b.n	8008ab0 <cs43l22_Init+0x1e8>
 80090de:	f896 3036 	ldrb.w	r3, [r6, #54]	; 0x36
 80090e2:	6832      	ldr	r2, [r6, #0]
 80090e4:	e4ff      	b.n	8008ae6 <cs43l22_Init+0x21e>
$t():
 80090e6:	bf00      	nop

080090e8 <cs43l22_ReadID>:
cs43l22_ReadID():
 80090e8:	498d      	ldr	r1, [pc, #564]	; (8009320 <cs43l22_ReadID+0x238>)
 80090ea:	4a8e      	ldr	r2, [pc, #568]	; (8009324 <cs43l22_ReadID+0x23c>)
 80090ec:	6b0b      	ldr	r3, [r1, #48]	; 0x30
 80090ee:	f043 0308 	orr.w	r3, r3, #8
 80090f2:	e92d 41f0 	stmdb	sp!, {r4, r5, r6, r7, r8, lr}
 80090f6:	4605      	mov	r5, r0
 80090f8:	630b      	str	r3, [r1, #48]	; 0x30
 80090fa:	2400      	movs	r4, #0
 80090fc:	2001      	movs	r0, #1
 80090fe:	f04f 0e03 	mov.w	lr, #3
 8009102:	2702      	movs	r7, #2
 8009104:	3401      	adds	r4, #1
 8009106:	fa00 f304 	lsl.w	r3, r0, r4
 800910a:	2c10      	cmp	r4, #16
 800910c:	f003 0110 	and.w	r1, r3, #16
 8009110:	d023      	beq.n	800915a <cs43l22_ReadID+0x72>
 8009112:	428b      	cmp	r3, r1
 8009114:	d1f6      	bne.n	8009104 <cs43l22_ReadID+0x1c>
 8009116:	ea4f 0c44 	mov.w	ip, r4, lsl #1
 800911a:	6816      	ldr	r6, [r2, #0]
 800911c:	fa0e f10c 	lsl.w	r1, lr, ip
 8009120:	43c9      	mvns	r1, r1
 8009122:	ea01 0806 	and.w	r8, r1, r6
 8009126:	fa00 f60c 	lsl.w	r6, r0, ip
 800912a:	ea48 0606 	orr.w	r6, r8, r6
 800912e:	6016      	str	r6, [r2, #0]
 8009130:	6896      	ldr	r6, [r2, #8]
 8009132:	fa07 fc0c 	lsl.w	ip, r7, ip
 8009136:	400e      	ands	r6, r1
 8009138:	ea46 060c 	orr.w	r6, r6, ip
 800913c:	6096      	str	r6, [r2, #8]
 800913e:	6856      	ldr	r6, [r2, #4]
 8009140:	ea26 0303 	bic.w	r3, r6, r3
 8009144:	6053      	str	r3, [r2, #4]
 8009146:	68d3      	ldr	r3, [r2, #12]
 8009148:	3401      	adds	r4, #1
 800914a:	4019      	ands	r1, r3
 800914c:	2c10      	cmp	r4, #16
 800914e:	fa00 f304 	lsl.w	r3, r0, r4
 8009152:	60d1      	str	r1, [r2, #12]
 8009154:	f003 0110 	and.w	r1, r3, #16
 8009158:	d1db      	bne.n	8009112 <cs43l22_ReadID+0x2a>
 800915a:	f004 f9a1 	bl	800d4a0 <I2Cx_Init.lto_priv.174>
 800915e:	4b71      	ldr	r3, [pc, #452]	; (8009324 <cs43l22_ReadID+0x23c>)
 8009160:	4a71      	ldr	r2, [pc, #452]	; (8009328 <cs43l22_ReadID+0x240>)
 8009162:	835c      	strh	r4, [r3, #26]
 8009164:	6810      	ldr	r0, [r2, #0]
 8009166:	6813      	ldr	r3, [r2, #0]
 8009168:	496f      	ldr	r1, [pc, #444]	; (8009328 <cs43l22_ReadID+0x240>)
 800916a:	1a1b      	subs	r3, r3, r0
 800916c:	2b05      	cmp	r3, #5
 800916e:	d3fa      	bcc.n	8009166 <cs43l22_ReadID+0x7e>
 8009170:	4b6c      	ldr	r3, [pc, #432]	; (8009324 <cs43l22_ReadID+0x23c>)
 8009172:	2010      	movs	r0, #16
 8009174:	8318      	strh	r0, [r3, #24]
 8009176:	6809      	ldr	r1, [r1, #0]
 8009178:	6813      	ldr	r3, [r2, #0]
 800917a:	486b      	ldr	r0, [pc, #428]	; (8009328 <cs43l22_ReadID+0x240>)
 800917c:	1a5b      	subs	r3, r3, r1
 800917e:	2b05      	cmp	r3, #5
 8009180:	d3fa      	bcc.n	8009178 <cs43l22_ReadID+0x90>
 8009182:	4b6a      	ldr	r3, [pc, #424]	; (800932c <cs43l22_ReadID+0x244>)
 8009184:	f893 1035 	ldrb.w	r1, [r3, #53]	; 0x35
 8009188:	681c      	ldr	r4, [r3, #0]
 800918a:	b2c9      	uxtb	r1, r1
 800918c:	2901      	cmp	r1, #1
 800918e:	d013      	beq.n	80091b8 <cs43l22_ReadID+0xd0>
 8009190:	2500      	movs	r5, #0
 8009192:	2202      	movs	r2, #2
 8009194:	f883 2035 	strb.w	r2, [r3, #53]	; 0x35
 8009198:	6822      	ldr	r2, [r4, #0]
 800919a:	f022 0201 	bic.w	r2, r2, #1
 800919e:	6022      	str	r2, [r4, #0]
 80091a0:	2200      	movs	r2, #0
 80091a2:	f883 2036 	strb.w	r2, [r3, #54]	; 0x36
 80091a6:	f883 2034 	strb.w	r2, [r3, #52]	; 0x34
 80091aa:	f883 2035 	strb.w	r2, [r3, #53]	; 0x35
 80091ae:	f004 f977 	bl	800d4a0 <I2Cx_Init.lto_priv.174>
 80091b2:	4628      	mov	r0, r5
 80091b4:	e8bd 81f0 	ldmia.w	sp!, {r4, r5, r6, r7, r8, pc}
 80091b8:	69a6      	ldr	r6, [r4, #24]
 80091ba:	f016 0602 	ands.w	r6, r6, #2
 80091be:	d1e7      	bne.n	8009190 <cs43l22_ReadID+0xa8>
 80091c0:	f893 7034 	ldrb.w	r7, [r3, #52]	; 0x34
 80091c4:	2f01      	cmp	r7, #1
 80091c6:	d0e3      	beq.n	8009190 <cs43l22_ReadID+0xa8>
 80091c8:	2742      	movs	r7, #66	; 0x42
 80091ca:	f883 7035 	strb.w	r7, [r3, #53]	; 0x35
 80091ce:	f883 6036 	strb.w	r6, [r3, #54]	; 0x36
 80091d2:	6826      	ldr	r6, [r4, #0]
 80091d4:	f883 1034 	strb.w	r1, [r3, #52]	; 0x34
 80091d8:	f446 6180 	orr.w	r1, r6, #1024	; 0x400
 80091dc:	6021      	str	r1, [r4, #0]
 80091de:	6821      	ldr	r1, [r4, #0]
 80091e0:	f441 7180 	orr.w	r1, r1, #256	; 0x100
 80091e4:	6021      	str	r1, [r4, #0]
 80091e6:	6800      	ldr	r0, [r0, #0]
 80091e8:	6961      	ldr	r1, [r4, #20]
 80091ea:	07cf      	lsls	r7, r1, #31
 80091ec:	d40a      	bmi.n	8009204 <cs43l22_ReadID+0x11c>
 80091ee:	6811      	ldr	r1, [r2, #0]
 80091f0:	1a09      	subs	r1, r1, r0
 80091f2:	f5b1 5f80 	cmp.w	r1, #4096	; 0x1000
 80091f6:	d9f7      	bls.n	80091e8 <cs43l22_ReadID+0x100>
 80091f8:	2201      	movs	r2, #1
 80091fa:	f883 2035 	strb.w	r2, [r3, #53]	; 0x35
 80091fe:	f893 2036 	ldrb.w	r2, [r3, #54]	; 0x36
 8009202:	e7c5      	b.n	8009190 <cs43l22_ReadID+0xa8>
 8009204:	b2ed      	uxtb	r5, r5
 8009206:	f005 01fe 	and.w	r1, r5, #254	; 0xfe
 800920a:	6121      	str	r1, [r4, #16]
 800920c:	6810      	ldr	r0, [r2, #0]
 800920e:	6961      	ldr	r1, [r4, #20]
 8009210:	0789      	lsls	r1, r1, #30
 8009212:	d41b      	bmi.n	800924c <cs43l22_ReadID+0x164>
 8009214:	6961      	ldr	r1, [r4, #20]
 8009216:	054e      	lsls	r6, r1, #21
 8009218:	d408      	bmi.n	800922c <cs43l22_ReadID+0x144>
 800921a:	6811      	ldr	r1, [r2, #0]
 800921c:	1a09      	subs	r1, r1, r0
 800921e:	f5b1 5f80 	cmp.w	r1, #4096	; 0x1000
 8009222:	d9f4      	bls.n	800920e <cs43l22_ReadID+0x126>
 8009224:	2201      	movs	r2, #1
 8009226:	f883 2035 	strb.w	r2, [r3, #53]	; 0x35
 800922a:	e00c      	b.n	8009246 <cs43l22_ReadID+0x15e>
 800922c:	6822      	ldr	r2, [r4, #0]
 800922e:	f46f 6580 	mvn.w	r5, #1024	; 0x400
 8009232:	f442 7200 	orr.w	r2, r2, #512	; 0x200
 8009236:	2004      	movs	r0, #4
 8009238:	2101      	movs	r1, #1
 800923a:	6022      	str	r2, [r4, #0]
 800923c:	6165      	str	r5, [r4, #20]
 800923e:	f883 0036 	strb.w	r0, [r3, #54]	; 0x36
 8009242:	f883 1035 	strb.w	r1, [r3, #53]	; 0x35
 8009246:	f893 2036 	ldrb.w	r2, [r3, #54]	; 0x36
 800924a:	e7d8      	b.n	80091fe <cs43l22_ReadID+0x116>
 800924c:	6961      	ldr	r1, [r4, #20]
 800924e:	69a1      	ldr	r1, [r4, #24]
 8009250:	6810      	ldr	r0, [r2, #0]
 8009252:	6961      	ldr	r1, [r4, #20]
 8009254:	060f      	lsls	r7, r1, #24
 8009256:	d405      	bmi.n	8009264 <cs43l22_ReadID+0x17c>
 8009258:	6811      	ldr	r1, [r2, #0]
 800925a:	1a09      	subs	r1, r1, r0
 800925c:	f5b1 5f80 	cmp.w	r1, #4096	; 0x1000
 8009260:	d9f7      	bls.n	8009252 <cs43l22_ReadID+0x16a>
 8009262:	e7c9      	b.n	80091f8 <cs43l22_ReadID+0x110>
 8009264:	2101      	movs	r1, #1
 8009266:	6121      	str	r1, [r4, #16]
 8009268:	6810      	ldr	r0, [r2, #0]
 800926a:	6961      	ldr	r1, [r4, #20]
 800926c:	060e      	lsls	r6, r1, #24
 800926e:	d405      	bmi.n	800927c <cs43l22_ReadID+0x194>
 8009270:	6811      	ldr	r1, [r2, #0]
 8009272:	1a09      	subs	r1, r1, r0
 8009274:	f5b1 5f80 	cmp.w	r1, #4096	; 0x1000
 8009278:	d9f7      	bls.n	800926a <cs43l22_ReadID+0x182>
 800927a:	e7bd      	b.n	80091f8 <cs43l22_ReadID+0x110>
 800927c:	6821      	ldr	r1, [r4, #0]
 800927e:	f441 7180 	orr.w	r1, r1, #256	; 0x100
 8009282:	6021      	str	r1, [r4, #0]
 8009284:	6810      	ldr	r0, [r2, #0]
 8009286:	6961      	ldr	r1, [r4, #20]
 8009288:	07c9      	lsls	r1, r1, #31
 800928a:	d405      	bmi.n	8009298 <cs43l22_ReadID+0x1b0>
 800928c:	6811      	ldr	r1, [r2, #0]
 800928e:	1a09      	subs	r1, r1, r0
 8009290:	f5b1 5f80 	cmp.w	r1, #4096	; 0x1000
 8009294:	d9f7      	bls.n	8009286 <cs43l22_ReadID+0x19e>
 8009296:	e7af      	b.n	80091f8 <cs43l22_ReadID+0x110>
 8009298:	f045 0501 	orr.w	r5, r5, #1
 800929c:	6125      	str	r5, [r4, #16]
 800929e:	6810      	ldr	r0, [r2, #0]
 80092a0:	6965      	ldr	r5, [r4, #20]
 80092a2:	43ed      	mvns	r5, r5
 80092a4:	f015 0502 	ands.w	r5, r5, #2
 80092a8:	d008      	beq.n	80092bc <cs43l22_ReadID+0x1d4>
 80092aa:	6961      	ldr	r1, [r4, #20]
 80092ac:	054f      	lsls	r7, r1, #21
 80092ae:	d4bd      	bmi.n	800922c <cs43l22_ReadID+0x144>
 80092b0:	6811      	ldr	r1, [r2, #0]
 80092b2:	1a09      	subs	r1, r1, r0
 80092b4:	f5b1 5f80 	cmp.w	r1, #4096	; 0x1000
 80092b8:	d9f2      	bls.n	80092a0 <cs43l22_ReadID+0x1b8>
 80092ba:	e7b3      	b.n	8009224 <cs43l22_ReadID+0x13c>
 80092bc:	6821      	ldr	r1, [r4, #0]
 80092be:	f421 6180 	bic.w	r1, r1, #1024	; 0x400
 80092c2:	6021      	str	r1, [r4, #0]
 80092c4:	6961      	ldr	r1, [r4, #20]
 80092c6:	69a1      	ldr	r1, [r4, #24]
 80092c8:	6821      	ldr	r1, [r4, #0]
 80092ca:	f441 7100 	orr.w	r1, r1, #512	; 0x200
 80092ce:	6021      	str	r1, [r4, #0]
 80092d0:	6810      	ldr	r0, [r2, #0]
 80092d2:	6961      	ldr	r1, [r4, #20]
 80092d4:	064e      	lsls	r6, r1, #25
 80092d6:	d408      	bmi.n	80092ea <cs43l22_ReadID+0x202>
 80092d8:	6811      	ldr	r1, [r2, #0]
 80092da:	1a09      	subs	r1, r1, r0
 80092dc:	f5b1 5f80 	cmp.w	r1, #4096	; 0x1000
 80092e0:	d9f7      	bls.n	80092d2 <cs43l22_ReadID+0x1ea>
 80092e2:	2201      	movs	r2, #1
 80092e4:	f883 2035 	strb.w	r2, [r3, #53]	; 0x35
 80092e8:	e753      	b.n	8009192 <cs43l22_ReadID+0xaa>
 80092ea:	6925      	ldr	r5, [r4, #16]
 80092ec:	6821      	ldr	r1, [r4, #0]
 80092ee:	f421 6100 	bic.w	r1, r1, #2048	; 0x800
 80092f2:	6021      	str	r1, [r4, #0]
 80092f4:	6810      	ldr	r0, [r2, #0]
 80092f6:	69a1      	ldr	r1, [r4, #24]
 80092f8:	0789      	lsls	r1, r1, #30
 80092fa:	d509      	bpl.n	8009310 <cs43l22_ReadID+0x228>
 80092fc:	6811      	ldr	r1, [r2, #0]
 80092fe:	1a09      	subs	r1, r1, r0
 8009300:	f5b1 5f80 	cmp.w	r1, #4096	; 0x1000
 8009304:	d9f7      	bls.n	80092f6 <cs43l22_ReadID+0x20e>
 8009306:	2201      	movs	r2, #1
 8009308:	b2ed      	uxtb	r5, r5
 800930a:	f883 2035 	strb.w	r2, [r3, #53]	; 0x35
 800930e:	e740      	b.n	8009192 <cs43l22_ReadID+0xaa>
 8009310:	2101      	movs	r1, #1
 8009312:	2200      	movs	r2, #0
 8009314:	b2ed      	uxtb	r5, r5
 8009316:	f883 1035 	strb.w	r1, [r3, #53]	; 0x35
 800931a:	f883 2034 	strb.w	r2, [r3, #52]	; 0x34
 800931e:	e748      	b.n	80091b2 <cs43l22_ReadID+0xca>
 8009320:	40023800 	.word	0x40023800
 8009324:	40020c00 	.word	0x40020c00
 8009328:	2001f734 	.word	0x2001f734
 800932c:	2001f738 	.word	0x2001f738

08009330 <cs43l22_SetFrequency>:
cs43l22_SetFrequency():
 8009330:	2000      	movs	r0, #0
 8009332:	4770      	bx	lr

08009334 <cs43l22_SetOutputMode>:
cs43l22_SetOutputMode():
 8009334:	b570      	push	{r4, r5, r6, lr}
 8009336:	3901      	subs	r1, #1
 8009338:	b082      	sub	sp, #8
 800933a:	4ca9      	ldr	r4, [pc, #676]	; (80095e0 <cs43l22_SetOutputMode+0x2ac>)
 800933c:	2903      	cmp	r1, #3
 800933e:	f200 8084 	bhi.w	800944a <cs43l22_SetOutputMode+0x116>
 8009342:	e8df f001 	tbb	[pc, r1]
 8009346:	4262      	.short	0x4262
 8009348:	0222      	.short	0x0222
 800934a:	f894 3035 	ldrb.w	r3, [r4, #53]	; 0x35
 800934e:	b2db      	uxtb	r3, r3
 8009350:	2205      	movs	r2, #5
 8009352:	2b01      	cmp	r3, #1
 8009354:	f88d 2006 	strb.w	r2, [sp, #6]
 8009358:	6822      	ldr	r2, [r4, #0]
 800935a:	f000 810f 	beq.w	800957c <cs43l22_SetOutputMode+0x248>
 800935e:	2302      	movs	r3, #2
 8009360:	f884 3035 	strb.w	r3, [r4, #53]	; 0x35
 8009364:	6813      	ldr	r3, [r2, #0]
 8009366:	f023 0301 	bic.w	r3, r3, #1
 800936a:	6013      	str	r3, [r2, #0]
 800936c:	2300      	movs	r3, #0
 800936e:	f884 3036 	strb.w	r3, [r4, #54]	; 0x36
 8009372:	f884 3034 	strb.w	r3, [r4, #52]	; 0x34
 8009376:	f884 3035 	strb.w	r3, [r4, #53]	; 0x35
 800937a:	f004 f891 	bl	800d4a0 <I2Cx_Init.lto_priv.174>
 800937e:	4b99      	ldr	r3, [pc, #612]	; (80095e4 <cs43l22_SetOutputMode+0x2b0>)
 8009380:	2205      	movs	r2, #5
 8009382:	2000      	movs	r0, #0
 8009384:	701a      	strb	r2, [r3, #0]
 8009386:	b002      	add	sp, #8
 8009388:	bd70      	pop	{r4, r5, r6, pc}
 800938a:	f894 3035 	ldrb.w	r3, [r4, #53]	; 0x35
 800938e:	b2db      	uxtb	r3, r3
 8009390:	22aa      	movs	r2, #170	; 0xaa
 8009392:	2b01      	cmp	r3, #1
 8009394:	f88d 2005 	strb.w	r2, [sp, #5]
 8009398:	6822      	ldr	r2, [r4, #0]
 800939a:	f000 8084 	beq.w	80094a6 <cs43l22_SetOutputMode+0x172>
 800939e:	2302      	movs	r3, #2
 80093a0:	f884 3035 	strb.w	r3, [r4, #53]	; 0x35
 80093a4:	6813      	ldr	r3, [r2, #0]
 80093a6:	f023 0301 	bic.w	r3, r3, #1
 80093aa:	6013      	str	r3, [r2, #0]
 80093ac:	2300      	movs	r3, #0
 80093ae:	f884 3036 	strb.w	r3, [r4, #54]	; 0x36
 80093b2:	f884 3034 	strb.w	r3, [r4, #52]	; 0x34
 80093b6:	f884 3035 	strb.w	r3, [r4, #53]	; 0x35
 80093ba:	f004 f871 	bl	800d4a0 <I2Cx_Init.lto_priv.174>
 80093be:	4b89      	ldr	r3, [pc, #548]	; (80095e4 <cs43l22_SetOutputMode+0x2b0>)
 80093c0:	22aa      	movs	r2, #170	; 0xaa
 80093c2:	2000      	movs	r0, #0
 80093c4:	701a      	strb	r2, [r3, #0]
 80093c6:	b002      	add	sp, #8
 80093c8:	bd70      	pop	{r4, r5, r6, pc}
 80093ca:	f894 3035 	ldrb.w	r3, [r4, #53]	; 0x35
 80093ce:	b2db      	uxtb	r3, r3
 80093d0:	22af      	movs	r2, #175	; 0xaf
 80093d2:	2b01      	cmp	r3, #1
 80093d4:	f88d 2004 	strb.w	r2, [sp, #4]
 80093d8:	6822      	ldr	r2, [r4, #0]
 80093da:	f000 8088 	beq.w	80094ee <cs43l22_SetOutputMode+0x1ba>
 80093de:	2302      	movs	r3, #2
 80093e0:	f884 3035 	strb.w	r3, [r4, #53]	; 0x35
 80093e4:	6813      	ldr	r3, [r2, #0]
 80093e6:	f023 0301 	bic.w	r3, r3, #1
 80093ea:	6013      	str	r3, [r2, #0]
 80093ec:	2300      	movs	r3, #0
 80093ee:	f884 3036 	strb.w	r3, [r4, #54]	; 0x36
 80093f2:	f884 3034 	strb.w	r3, [r4, #52]	; 0x34
 80093f6:	f884 3035 	strb.w	r3, [r4, #53]	; 0x35
 80093fa:	f004 f851 	bl	800d4a0 <I2Cx_Init.lto_priv.174>
 80093fe:	4b79      	ldr	r3, [pc, #484]	; (80095e4 <cs43l22_SetOutputMode+0x2b0>)
 8009400:	22af      	movs	r2, #175	; 0xaf
 8009402:	2000      	movs	r0, #0
 8009404:	701a      	strb	r2, [r3, #0]
 8009406:	b002      	add	sp, #8
 8009408:	bd70      	pop	{r4, r5, r6, pc}
 800940a:	f894 3035 	ldrb.w	r3, [r4, #53]	; 0x35
 800940e:	b2db      	uxtb	r3, r3
 8009410:	22fa      	movs	r2, #250	; 0xfa
 8009412:	2b01      	cmp	r3, #1
 8009414:	f88d 2003 	strb.w	r2, [sp, #3]
 8009418:	6822      	ldr	r2, [r4, #0]
 800941a:	f000 808b 	beq.w	8009534 <cs43l22_SetOutputMode+0x200>
 800941e:	2302      	movs	r3, #2
 8009420:	f884 3035 	strb.w	r3, [r4, #53]	; 0x35
 8009424:	6813      	ldr	r3, [r2, #0]
 8009426:	f023 0301 	bic.w	r3, r3, #1
 800942a:	6013      	str	r3, [r2, #0]
 800942c:	2300      	movs	r3, #0
 800942e:	f884 3036 	strb.w	r3, [r4, #54]	; 0x36
 8009432:	f884 3034 	strb.w	r3, [r4, #52]	; 0x34
 8009436:	f884 3035 	strb.w	r3, [r4, #53]	; 0x35
 800943a:	f004 f831 	bl	800d4a0 <I2Cx_Init.lto_priv.174>
 800943e:	4b69      	ldr	r3, [pc, #420]	; (80095e4 <cs43l22_SetOutputMode+0x2b0>)
 8009440:	22fa      	movs	r2, #250	; 0xfa
 8009442:	2000      	movs	r0, #0
 8009444:	701a      	strb	r2, [r3, #0]
 8009446:	b002      	add	sp, #8
 8009448:	bd70      	pop	{r4, r5, r6, pc}
 800944a:	f894 3035 	ldrb.w	r3, [r4, #53]	; 0x35
 800944e:	b2db      	uxtb	r3, r3
 8009450:	2205      	movs	r2, #5
 8009452:	2b01      	cmp	r3, #1
 8009454:	f88d 2007 	strb.w	r2, [sp, #7]
 8009458:	6822      	ldr	r2, [r4, #0]
 800945a:	d180      	bne.n	800935e <cs43l22_SetOutputMode+0x2a>
 800945c:	6991      	ldr	r1, [r2, #24]
 800945e:	f011 0502 	ands.w	r5, r1, #2
 8009462:	f47f af7c 	bne.w	800935e <cs43l22_SetOutputMode+0x2a>
 8009466:	f894 1034 	ldrb.w	r1, [r4, #52]	; 0x34
 800946a:	2901      	cmp	r1, #1
 800946c:	f43f af77 	beq.w	800935e <cs43l22_SetOutputMode+0x2a>
 8009470:	2632      	movs	r6, #50	; 0x32
 8009472:	b2c0      	uxtb	r0, r0
 8009474:	2104      	movs	r1, #4
 8009476:	f44f 5280 	mov.w	r2, #4096	; 0x1000
 800947a:	f884 6035 	strb.w	r6, [r4, #53]	; 0x35
 800947e:	f884 3034 	strb.w	r3, [r4, #52]	; 0x34
 8009482:	f884 5036 	strb.w	r5, [r4, #54]	; 0x36
 8009486:	f003 ff3f 	bl	800d308 <I2C_RequestMemoryWrite.constprop.63>
 800948a:	2800      	cmp	r0, #0
 800948c:	f040 8098 	bne.w	80095c0 <cs43l22_SetOutputMode+0x28c>
 8009490:	f10d 0007 	add.w	r0, sp, #7
 8009494:	f44f 5180 	mov.w	r1, #4096	; 0x1000
 8009498:	f003 ffa4 	bl	800d3e4 <HAL_I2C_Mem_Write.part.16.constprop.60>
 800949c:	2800      	cmp	r0, #0
 800949e:	f43f af6e 	beq.w	800937e <cs43l22_SetOutputMode+0x4a>
 80094a2:	6822      	ldr	r2, [r4, #0]
 80094a4:	e75b      	b.n	800935e <cs43l22_SetOutputMode+0x2a>
 80094a6:	6991      	ldr	r1, [r2, #24]
 80094a8:	f011 0502 	ands.w	r5, r1, #2
 80094ac:	f47f af77 	bne.w	800939e <cs43l22_SetOutputMode+0x6a>
 80094b0:	f894 1034 	ldrb.w	r1, [r4, #52]	; 0x34
 80094b4:	2901      	cmp	r1, #1
 80094b6:	f43f af72 	beq.w	800939e <cs43l22_SetOutputMode+0x6a>
 80094ba:	2632      	movs	r6, #50	; 0x32
 80094bc:	b2c0      	uxtb	r0, r0
 80094be:	2104      	movs	r1, #4
 80094c0:	f44f 5280 	mov.w	r2, #4096	; 0x1000
 80094c4:	f884 6035 	strb.w	r6, [r4, #53]	; 0x35
 80094c8:	f884 3034 	strb.w	r3, [r4, #52]	; 0x34
 80094cc:	f884 5036 	strb.w	r5, [r4, #54]	; 0x36
 80094d0:	f003 ff1a 	bl	800d308 <I2C_RequestMemoryWrite.constprop.63>
 80094d4:	2800      	cmp	r0, #0
 80094d6:	d177      	bne.n	80095c8 <cs43l22_SetOutputMode+0x294>
 80094d8:	f10d 0005 	add.w	r0, sp, #5
 80094dc:	f44f 5180 	mov.w	r1, #4096	; 0x1000
 80094e0:	f003 ff80 	bl	800d3e4 <HAL_I2C_Mem_Write.part.16.constprop.60>
 80094e4:	2800      	cmp	r0, #0
 80094e6:	f43f af6a 	beq.w	80093be <cs43l22_SetOutputMode+0x8a>
 80094ea:	6822      	ldr	r2, [r4, #0]
 80094ec:	e757      	b.n	800939e <cs43l22_SetOutputMode+0x6a>
 80094ee:	6991      	ldr	r1, [r2, #24]
 80094f0:	f011 0502 	ands.w	r5, r1, #2
 80094f4:	f47f af73 	bne.w	80093de <cs43l22_SetOutputMode+0xaa>
 80094f8:	f894 1034 	ldrb.w	r1, [r4, #52]	; 0x34
 80094fc:	2901      	cmp	r1, #1
 80094fe:	f43f af6e 	beq.w	80093de <cs43l22_SetOutputMode+0xaa>
 8009502:	2632      	movs	r6, #50	; 0x32
 8009504:	b2c0      	uxtb	r0, r0
 8009506:	2104      	movs	r1, #4
 8009508:	f44f 5280 	mov.w	r2, #4096	; 0x1000
 800950c:	f884 6035 	strb.w	r6, [r4, #53]	; 0x35
 8009510:	f884 3034 	strb.w	r3, [r4, #52]	; 0x34
 8009514:	f884 5036 	strb.w	r5, [r4, #54]	; 0x36
 8009518:	f003 fef6 	bl	800d308 <I2C_RequestMemoryWrite.constprop.63>
 800951c:	2800      	cmp	r0, #0
 800951e:	d157      	bne.n	80095d0 <cs43l22_SetOutputMode+0x29c>
 8009520:	a801      	add	r0, sp, #4
 8009522:	f44f 5180 	mov.w	r1, #4096	; 0x1000
 8009526:	f003 ff5d 	bl	800d3e4 <HAL_I2C_Mem_Write.part.16.constprop.60>
 800952a:	2800      	cmp	r0, #0
 800952c:	f43f af67 	beq.w	80093fe <cs43l22_SetOutputMode+0xca>
 8009530:	6822      	ldr	r2, [r4, #0]
 8009532:	e754      	b.n	80093de <cs43l22_SetOutputMode+0xaa>
 8009534:	6991      	ldr	r1, [r2, #24]
 8009536:	f011 0502 	ands.w	r5, r1, #2
 800953a:	f47f af70 	bne.w	800941e <cs43l22_SetOutputMode+0xea>
 800953e:	f894 1034 	ldrb.w	r1, [r4, #52]	; 0x34
 8009542:	2901      	cmp	r1, #1
 8009544:	f43f af6b 	beq.w	800941e <cs43l22_SetOutputMode+0xea>
 8009548:	2632      	movs	r6, #50	; 0x32
 800954a:	b2c0      	uxtb	r0, r0
 800954c:	2104      	movs	r1, #4
 800954e:	f44f 5280 	mov.w	r2, #4096	; 0x1000
 8009552:	f884 6035 	strb.w	r6, [r4, #53]	; 0x35
 8009556:	f884 3034 	strb.w	r3, [r4, #52]	; 0x34
 800955a:	f884 5036 	strb.w	r5, [r4, #54]	; 0x36
 800955e:	f003 fed3 	bl	800d308 <I2C_RequestMemoryWrite.constprop.63>
 8009562:	2800      	cmp	r0, #0
 8009564:	d138      	bne.n	80095d8 <cs43l22_SetOutputMode+0x2a4>
 8009566:	f10d 0003 	add.w	r0, sp, #3
 800956a:	f44f 5180 	mov.w	r1, #4096	; 0x1000
 800956e:	f003 ff39 	bl	800d3e4 <HAL_I2C_Mem_Write.part.16.constprop.60>
 8009572:	2800      	cmp	r0, #0
 8009574:	f43f af63 	beq.w	800943e <cs43l22_SetOutputMode+0x10a>
 8009578:	6822      	ldr	r2, [r4, #0]
 800957a:	e750      	b.n	800941e <cs43l22_SetOutputMode+0xea>
 800957c:	6991      	ldr	r1, [r2, #24]
 800957e:	f011 0502 	ands.w	r5, r1, #2
 8009582:	f47f aeec 	bne.w	800935e <cs43l22_SetOutputMode+0x2a>
 8009586:	f894 1034 	ldrb.w	r1, [r4, #52]	; 0x34
 800958a:	2901      	cmp	r1, #1
 800958c:	f43f aee7 	beq.w	800935e <cs43l22_SetOutputMode+0x2a>
 8009590:	2632      	movs	r6, #50	; 0x32
 8009592:	b2c0      	uxtb	r0, r0
 8009594:	2104      	movs	r1, #4
 8009596:	f44f 5280 	mov.w	r2, #4096	; 0x1000
 800959a:	f884 6035 	strb.w	r6, [r4, #53]	; 0x35
 800959e:	f884 3034 	strb.w	r3, [r4, #52]	; 0x34
 80095a2:	f884 5036 	strb.w	r5, [r4, #54]	; 0x36
 80095a6:	f003 feaf 	bl	800d308 <I2C_RequestMemoryWrite.constprop.63>
 80095aa:	b948      	cbnz	r0, 80095c0 <cs43l22_SetOutputMode+0x28c>
 80095ac:	f10d 0006 	add.w	r0, sp, #6
 80095b0:	f44f 5180 	mov.w	r1, #4096	; 0x1000
 80095b4:	f003 ff16 	bl	800d3e4 <HAL_I2C_Mem_Write.part.16.constprop.60>
 80095b8:	2800      	cmp	r0, #0
 80095ba:	f43f aee0 	beq.w	800937e <cs43l22_SetOutputMode+0x4a>
 80095be:	e770      	b.n	80094a2 <cs43l22_SetOutputMode+0x16e>
 80095c0:	f894 3036 	ldrb.w	r3, [r4, #54]	; 0x36
 80095c4:	6822      	ldr	r2, [r4, #0]
 80095c6:	e6ca      	b.n	800935e <cs43l22_SetOutputMode+0x2a>
 80095c8:	f894 3036 	ldrb.w	r3, [r4, #54]	; 0x36
 80095cc:	6822      	ldr	r2, [r4, #0]
 80095ce:	e6e6      	b.n	800939e <cs43l22_SetOutputMode+0x6a>
 80095d0:	f894 3036 	ldrb.w	r3, [r4, #54]	; 0x36
 80095d4:	6822      	ldr	r2, [r4, #0]
 80095d6:	e702      	b.n	80093de <cs43l22_SetOutputMode+0xaa>
 80095d8:	f894 3036 	ldrb.w	r3, [r4, #54]	; 0x36
 80095dc:	6822      	ldr	r2, [r4, #0]
 80095de:	e71e      	b.n	800941e <cs43l22_SetOutputMode+0xea>
 80095e0:	2001f738 	.word	0x2001f738
 80095e4:	2001f105 	.word	0x2001f105

080095e8 <cs43l22_SetMute>:
cs43l22_SetMute():
 80095e8:	b570      	push	{r4, r5, r6, lr}
 80095ea:	2901      	cmp	r1, #1
 80095ec:	b082      	sub	sp, #8
 80095ee:	d01d      	beq.n	800962c <cs43l22_SetMute+0x44>
 80095f0:	4b35      	ldr	r3, [pc, #212]	; (80096c8 <cs43l22_SetMute+0xe0>)
 80095f2:	4c36      	ldr	r4, [pc, #216]	; (80096cc <cs43l22_SetMute+0xe4>)
 80095f4:	781a      	ldrb	r2, [r3, #0]
 80095f6:	f894 3035 	ldrb.w	r3, [r4, #53]	; 0x35
 80095fa:	f88d 2007 	strb.w	r2, [sp, #7]
 80095fe:	b2db      	uxtb	r3, r3
 8009600:	2b01      	cmp	r3, #1
 8009602:	6822      	ldr	r2, [r4, #0]
 8009604:	d03b      	beq.n	800967e <cs43l22_SetMute+0x96>
 8009606:	2302      	movs	r3, #2
 8009608:	f884 3035 	strb.w	r3, [r4, #53]	; 0x35
 800960c:	6813      	ldr	r3, [r2, #0]
 800960e:	f023 0301 	bic.w	r3, r3, #1
 8009612:	6013      	str	r3, [r2, #0]
 8009614:	2300      	movs	r3, #0
 8009616:	f884 3036 	strb.w	r3, [r4, #54]	; 0x36
 800961a:	f884 3034 	strb.w	r3, [r4, #52]	; 0x34
 800961e:	f884 3035 	strb.w	r3, [r4, #53]	; 0x35
 8009622:	f003 ff3d 	bl	800d4a0 <I2Cx_Init.lto_priv.174>
 8009626:	2000      	movs	r0, #0
 8009628:	b002      	add	sp, #8
 800962a:	bd70      	pop	{r4, r5, r6, pc}
 800962c:	4c27      	ldr	r4, [pc, #156]	; (80096cc <cs43l22_SetMute+0xe4>)
 800962e:	f894 3035 	ldrb.w	r3, [r4, #53]	; 0x35
 8009632:	b2db      	uxtb	r3, r3
 8009634:	22ff      	movs	r2, #255	; 0xff
 8009636:	2b01      	cmp	r3, #1
 8009638:	f88d 2006 	strb.w	r2, [sp, #6]
 800963c:	6822      	ldr	r2, [r4, #0]
 800963e:	d1e2      	bne.n	8009606 <cs43l22_SetMute+0x1e>
 8009640:	6991      	ldr	r1, [r2, #24]
 8009642:	f011 0502 	ands.w	r5, r1, #2
 8009646:	d1de      	bne.n	8009606 <cs43l22_SetMute+0x1e>
 8009648:	f894 1034 	ldrb.w	r1, [r4, #52]	; 0x34
 800964c:	2901      	cmp	r1, #1
 800964e:	d0da      	beq.n	8009606 <cs43l22_SetMute+0x1e>
 8009650:	2632      	movs	r6, #50	; 0x32
 8009652:	b2c0      	uxtb	r0, r0
 8009654:	2104      	movs	r1, #4
 8009656:	f44f 5280 	mov.w	r2, #4096	; 0x1000
 800965a:	f884 6035 	strb.w	r6, [r4, #53]	; 0x35
 800965e:	f884 3034 	strb.w	r3, [r4, #52]	; 0x34
 8009662:	f884 5036 	strb.w	r5, [r4, #54]	; 0x36
 8009666:	f003 fe4f 	bl	800d308 <I2C_RequestMemoryWrite.constprop.63>
 800966a:	bb40      	cbnz	r0, 80096be <cs43l22_SetMute+0xd6>
 800966c:	f10d 0006 	add.w	r0, sp, #6
 8009670:	f44f 5180 	mov.w	r1, #4096	; 0x1000
 8009674:	f003 feb6 	bl	800d3e4 <HAL_I2C_Mem_Write.part.16.constprop.60>
 8009678:	2800      	cmp	r0, #0
 800967a:	d0d4      	beq.n	8009626 <cs43l22_SetMute+0x3e>
 800967c:	e01d      	b.n	80096ba <cs43l22_SetMute+0xd2>
 800967e:	6991      	ldr	r1, [r2, #24]
 8009680:	f011 0502 	ands.w	r5, r1, #2
 8009684:	d1bf      	bne.n	8009606 <cs43l22_SetMute+0x1e>
 8009686:	f894 1034 	ldrb.w	r1, [r4, #52]	; 0x34
 800968a:	2901      	cmp	r1, #1
 800968c:	d0bb      	beq.n	8009606 <cs43l22_SetMute+0x1e>
 800968e:	2632      	movs	r6, #50	; 0x32
 8009690:	b2c0      	uxtb	r0, r0
 8009692:	2104      	movs	r1, #4
 8009694:	f44f 5280 	mov.w	r2, #4096	; 0x1000
 8009698:	f884 6035 	strb.w	r6, [r4, #53]	; 0x35
 800969c:	f884 3034 	strb.w	r3, [r4, #52]	; 0x34
 80096a0:	f884 5036 	strb.w	r5, [r4, #54]	; 0x36
 80096a4:	f003 fe30 	bl	800d308 <I2C_RequestMemoryWrite.constprop.63>
 80096a8:	b948      	cbnz	r0, 80096be <cs43l22_SetMute+0xd6>
 80096aa:	f10d 0007 	add.w	r0, sp, #7
 80096ae:	f44f 5180 	mov.w	r1, #4096	; 0x1000
 80096b2:	f003 fe97 	bl	800d3e4 <HAL_I2C_Mem_Write.part.16.constprop.60>
 80096b6:	2800      	cmp	r0, #0
 80096b8:	d0b5      	beq.n	8009626 <cs43l22_SetMute+0x3e>
 80096ba:	6822      	ldr	r2, [r4, #0]
 80096bc:	e7a3      	b.n	8009606 <cs43l22_SetMute+0x1e>
 80096be:	f894 3036 	ldrb.w	r3, [r4, #54]	; 0x36
 80096c2:	6822      	ldr	r2, [r4, #0]
 80096c4:	e79f      	b.n	8009606 <cs43l22_SetMute+0x1e>
 80096c6:	bf00      	nop
 80096c8:	2001f105 	.word	0x2001f105
 80096cc:	2001f738 	.word	0x2001f738

080096d0 <cs43l22_SetVolume>:
cs43l22_SetVolume():
 80096d0:	b5f0      	push	{r4, r5, r6, r7, lr}
 80096d2:	2964      	cmp	r1, #100	; 0x64
 80096d4:	b083      	sub	sp, #12
 80096d6:	d83f      	bhi.n	8009758 <cs43l22_SetVolume+0x88>
 80096d8:	4c7e      	ldr	r4, [pc, #504]	; (80098d4 <cs43l22_SetVolume+0x204>)
 80096da:	ebc1 2101 	rsb	r1, r1, r1, lsl #8
 80096de:	fb84 3401 	smull	r3, r4, r4, r1
 80096e2:	17c9      	asrs	r1, r1, #31
 80096e4:	ebc1 1464 	rsb	r4, r1, r4, asr #5
 80096e8:	3419      	adds	r4, #25
 80096ea:	b2e4      	uxtb	r4, r4
 80096ec:	4d7a      	ldr	r5, [pc, #488]	; (80098d8 <cs43l22_SetVolume+0x208>)
 80096ee:	f88d 4006 	strb.w	r4, [sp, #6]
 80096f2:	f895 3035 	ldrb.w	r3, [r5, #53]	; 0x35
 80096f6:	682a      	ldr	r2, [r5, #0]
 80096f8:	b2db      	uxtb	r3, r3
 80096fa:	2b01      	cmp	r3, #1
 80096fc:	b2c6      	uxtb	r6, r0
 80096fe:	d075      	beq.n	80097ec <cs43l22_SetVolume+0x11c>
 8009700:	2302      	movs	r3, #2
 8009702:	f885 3035 	strb.w	r3, [r5, #53]	; 0x35
 8009706:	6813      	ldr	r3, [r2, #0]
 8009708:	f023 0301 	bic.w	r3, r3, #1
 800970c:	6013      	str	r3, [r2, #0]
 800970e:	2300      	movs	r3, #0
 8009710:	f885 3036 	strb.w	r3, [r5, #54]	; 0x36
 8009714:	f885 3034 	strb.w	r3, [r5, #52]	; 0x34
 8009718:	f885 3035 	strb.w	r3, [r5, #53]	; 0x35
 800971c:	f003 fec0 	bl	800d4a0 <I2Cx_Init.lto_priv.174>
 8009720:	f895 3035 	ldrb.w	r3, [r5, #53]	; 0x35
 8009724:	f88d 4007 	strb.w	r4, [sp, #7]
 8009728:	b2db      	uxtb	r3, r3
 800972a:	4c6b      	ldr	r4, [pc, #428]	; (80098d8 <cs43l22_SetVolume+0x208>)
 800972c:	2b01      	cmp	r3, #1
 800972e:	6822      	ldr	r2, [r4, #0]
 8009730:	d07f      	beq.n	8009832 <cs43l22_SetVolume+0x162>
 8009732:	2302      	movs	r3, #2
 8009734:	f885 3035 	strb.w	r3, [r5, #53]	; 0x35
 8009738:	6813      	ldr	r3, [r2, #0]
 800973a:	f023 0301 	bic.w	r3, r3, #1
 800973e:	6013      	str	r3, [r2, #0]
 8009740:	2300      	movs	r3, #0
 8009742:	f885 3036 	strb.w	r3, [r5, #54]	; 0x36
 8009746:	f885 3034 	strb.w	r3, [r5, #52]	; 0x34
 800974a:	f885 3035 	strb.w	r3, [r5, #53]	; 0x35
 800974e:	f003 fea7 	bl	800d4a0 <I2Cx_Init.lto_priv.174>
 8009752:	2000      	movs	r0, #0
 8009754:	b003      	add	sp, #12
 8009756:	bdf0      	pop	{r4, r5, r6, r7, pc}
 8009758:	29e6      	cmp	r1, #230	; 0xe6
 800975a:	d945      	bls.n	80097e8 <cs43l22_SetVolume+0x118>
 800975c:	4d5e      	ldr	r5, [pc, #376]	; (80098d8 <cs43l22_SetVolume+0x208>)
 800975e:	f895 3035 	ldrb.w	r3, [r5, #53]	; 0x35
 8009762:	b2db      	uxtb	r3, r3
 8009764:	227d      	movs	r2, #125	; 0x7d
 8009766:	2b01      	cmp	r3, #1
 8009768:	f88d 2004 	strb.w	r2, [sp, #4]
 800976c:	b2c6      	uxtb	r6, r0
 800976e:	682a      	ldr	r2, [r5, #0]
 8009770:	f000 8082 	beq.w	8009878 <cs43l22_SetVolume+0x1a8>
 8009774:	2302      	movs	r3, #2
 8009776:	f885 3035 	strb.w	r3, [r5, #53]	; 0x35
 800977a:	6813      	ldr	r3, [r2, #0]
 800977c:	f023 0301 	bic.w	r3, r3, #1
 8009780:	6013      	str	r3, [r2, #0]
 8009782:	2300      	movs	r3, #0
 8009784:	f885 3036 	strb.w	r3, [r5, #54]	; 0x36
 8009788:	f885 3034 	strb.w	r3, [r5, #52]	; 0x34
 800978c:	f885 3035 	strb.w	r3, [r5, #53]	; 0x35
 8009790:	f003 fe86 	bl	800d4a0 <I2Cx_Init.lto_priv.174>
 8009794:	f895 3035 	ldrb.w	r3, [r5, #53]	; 0x35
 8009798:	4c4f      	ldr	r4, [pc, #316]	; (80098d8 <cs43l22_SetVolume+0x208>)
 800979a:	b2db      	uxtb	r3, r3
 800979c:	227d      	movs	r2, #125	; 0x7d
 800979e:	2b01      	cmp	r3, #1
 80097a0:	f88d 2005 	strb.w	r2, [sp, #5]
 80097a4:	6822      	ldr	r2, [r4, #0]
 80097a6:	d1c4      	bne.n	8009732 <cs43l22_SetVolume+0x62>
 80097a8:	6991      	ldr	r1, [r2, #24]
 80097aa:	f011 0702 	ands.w	r7, r1, #2
 80097ae:	d1c0      	bne.n	8009732 <cs43l22_SetVolume+0x62>
 80097b0:	f894 1034 	ldrb.w	r1, [r4, #52]	; 0x34
 80097b4:	2901      	cmp	r1, #1
 80097b6:	d0bc      	beq.n	8009732 <cs43l22_SetVolume+0x62>
 80097b8:	4630      	mov	r0, r6
 80097ba:	2121      	movs	r1, #33	; 0x21
 80097bc:	2632      	movs	r6, #50	; 0x32
 80097be:	f44f 5280 	mov.w	r2, #4096	; 0x1000
 80097c2:	f884 6035 	strb.w	r6, [r4, #53]	; 0x35
 80097c6:	f884 3034 	strb.w	r3, [r4, #52]	; 0x34
 80097ca:	f884 7036 	strb.w	r7, [r4, #54]	; 0x36
 80097ce:	f003 fd9b 	bl	800d308 <I2C_RequestMemoryWrite.constprop.63>
 80097d2:	2800      	cmp	r0, #0
 80097d4:	d172      	bne.n	80098bc <cs43l22_SetVolume+0x1ec>
 80097d6:	f10d 0005 	add.w	r0, sp, #5
 80097da:	f44f 5180 	mov.w	r1, #4096	; 0x1000
 80097de:	f003 fe01 	bl	800d3e4 <HAL_I2C_Mem_Write.part.16.constprop.60>
 80097e2:	2800      	cmp	r0, #0
 80097e4:	d0b5      	beq.n	8009752 <cs43l22_SetVolume+0x82>
 80097e6:	e045      	b.n	8009874 <cs43l22_SetVolume+0x1a4>
 80097e8:	247d      	movs	r4, #125	; 0x7d
 80097ea:	e77f      	b.n	80096ec <cs43l22_SetVolume+0x1c>
 80097ec:	6991      	ldr	r1, [r2, #24]
 80097ee:	f011 0702 	ands.w	r7, r1, #2
 80097f2:	d185      	bne.n	8009700 <cs43l22_SetVolume+0x30>
 80097f4:	f895 1034 	ldrb.w	r1, [r5, #52]	; 0x34
 80097f8:	2901      	cmp	r1, #1
 80097fa:	d081      	beq.n	8009700 <cs43l22_SetVolume+0x30>
 80097fc:	f04f 0e32 	mov.w	lr, #50	; 0x32
 8009800:	4630      	mov	r0, r6
 8009802:	2120      	movs	r1, #32
 8009804:	f44f 5280 	mov.w	r2, #4096	; 0x1000
 8009808:	f885 e035 	strb.w	lr, [r5, #53]	; 0x35
 800980c:	f885 3034 	strb.w	r3, [r5, #52]	; 0x34
 8009810:	f885 7036 	strb.w	r7, [r5, #54]	; 0x36
 8009814:	f003 fd78 	bl	800d308 <I2C_RequestMemoryWrite.constprop.63>
 8009818:	2800      	cmp	r0, #0
 800981a:	d153      	bne.n	80098c4 <cs43l22_SetVolume+0x1f4>
 800981c:	f10d 0006 	add.w	r0, sp, #6
 8009820:	f44f 5180 	mov.w	r1, #4096	; 0x1000
 8009824:	f003 fdde 	bl	800d3e4 <HAL_I2C_Mem_Write.part.16.constprop.60>
 8009828:	2800      	cmp	r0, #0
 800982a:	f43f af79 	beq.w	8009720 <cs43l22_SetVolume+0x50>
 800982e:	682a      	ldr	r2, [r5, #0]
 8009830:	e766      	b.n	8009700 <cs43l22_SetVolume+0x30>
 8009832:	6991      	ldr	r1, [r2, #24]
 8009834:	f011 0702 	ands.w	r7, r1, #2
 8009838:	f47f af7b 	bne.w	8009732 <cs43l22_SetVolume+0x62>
 800983c:	f894 1034 	ldrb.w	r1, [r4, #52]	; 0x34
 8009840:	2901      	cmp	r1, #1
 8009842:	f43f af76 	beq.w	8009732 <cs43l22_SetVolume+0x62>
 8009846:	4630      	mov	r0, r6
 8009848:	2121      	movs	r1, #33	; 0x21
 800984a:	2632      	movs	r6, #50	; 0x32
 800984c:	f44f 5280 	mov.w	r2, #4096	; 0x1000
 8009850:	f884 6035 	strb.w	r6, [r4, #53]	; 0x35
 8009854:	f884 3034 	strb.w	r3, [r4, #52]	; 0x34
 8009858:	f884 7036 	strb.w	r7, [r4, #54]	; 0x36
 800985c:	f003 fd54 	bl	800d308 <I2C_RequestMemoryWrite.constprop.63>
 8009860:	bb60      	cbnz	r0, 80098bc <cs43l22_SetVolume+0x1ec>
 8009862:	f10d 0007 	add.w	r0, sp, #7
 8009866:	f44f 5180 	mov.w	r1, #4096	; 0x1000
 800986a:	f003 fdbb 	bl	800d3e4 <HAL_I2C_Mem_Write.part.16.constprop.60>
 800986e:	2800      	cmp	r0, #0
 8009870:	f43f af6f 	beq.w	8009752 <cs43l22_SetVolume+0x82>
 8009874:	6822      	ldr	r2, [r4, #0]
 8009876:	e75c      	b.n	8009732 <cs43l22_SetVolume+0x62>
 8009878:	6991      	ldr	r1, [r2, #24]
 800987a:	f011 0402 	ands.w	r4, r1, #2
 800987e:	f47f af79 	bne.w	8009774 <cs43l22_SetVolume+0xa4>
 8009882:	f895 1034 	ldrb.w	r1, [r5, #52]	; 0x34
 8009886:	2901      	cmp	r1, #1
 8009888:	f43f af74 	beq.w	8009774 <cs43l22_SetVolume+0xa4>
 800988c:	2732      	movs	r7, #50	; 0x32
 800988e:	4630      	mov	r0, r6
 8009890:	2120      	movs	r1, #32
 8009892:	f44f 5280 	mov.w	r2, #4096	; 0x1000
 8009896:	f885 7035 	strb.w	r7, [r5, #53]	; 0x35
 800989a:	f885 3034 	strb.w	r3, [r5, #52]	; 0x34
 800989e:	f885 4036 	strb.w	r4, [r5, #54]	; 0x36
 80098a2:	f003 fd31 	bl	800d308 <I2C_RequestMemoryWrite.constprop.63>
 80098a6:	b988      	cbnz	r0, 80098cc <cs43l22_SetVolume+0x1fc>
 80098a8:	a801      	add	r0, sp, #4
 80098aa:	f44f 5180 	mov.w	r1, #4096	; 0x1000
 80098ae:	f003 fd99 	bl	800d3e4 <HAL_I2C_Mem_Write.part.16.constprop.60>
 80098b2:	2800      	cmp	r0, #0
 80098b4:	f43f af6e 	beq.w	8009794 <cs43l22_SetVolume+0xc4>
 80098b8:	682a      	ldr	r2, [r5, #0]
 80098ba:	e75b      	b.n	8009774 <cs43l22_SetVolume+0xa4>
 80098bc:	f894 3036 	ldrb.w	r3, [r4, #54]	; 0x36
 80098c0:	6822      	ldr	r2, [r4, #0]
 80098c2:	e736      	b.n	8009732 <cs43l22_SetVolume+0x62>
 80098c4:	f895 3036 	ldrb.w	r3, [r5, #54]	; 0x36
 80098c8:	682a      	ldr	r2, [r5, #0]
 80098ca:	e719      	b.n	8009700 <cs43l22_SetVolume+0x30>
 80098cc:	f895 3036 	ldrb.w	r3, [r5, #54]	; 0x36
 80098d0:	682a      	ldr	r2, [r5, #0]
 80098d2:	e74f      	b.n	8009774 <cs43l22_SetVolume+0xa4>
 80098d4:	51eb851f 	.word	0x51eb851f
 80098d8:	2001f738 	.word	0x2001f738

080098dc <cs43l22_Stop>:
cs43l22_Stop():
 80098dc:	b5f0      	push	{r4, r5, r6, r7, lr}
 80098de:	4c42      	ldr	r4, [pc, #264]	; (80099e8 <cs43l22_Stop+0x10c>)
 80098e0:	f894 3035 	ldrb.w	r3, [r4, #53]	; 0x35
 80098e4:	b083      	sub	sp, #12
 80098e6:	b2db      	uxtb	r3, r3
 80098e8:	22ff      	movs	r2, #255	; 0xff
 80098ea:	2b01      	cmp	r3, #1
 80098ec:	f88d 2006 	strb.w	r2, [sp, #6]
 80098f0:	b2c6      	uxtb	r6, r0
 80098f2:	6822      	ldr	r2, [r4, #0]
 80098f4:	d02f      	beq.n	8009956 <cs43l22_Stop+0x7a>
 80098f6:	2302      	movs	r3, #2
 80098f8:	f884 3035 	strb.w	r3, [r4, #53]	; 0x35
 80098fc:	6813      	ldr	r3, [r2, #0]
 80098fe:	f023 0301 	bic.w	r3, r3, #1
 8009902:	6013      	str	r3, [r2, #0]
 8009904:	2300      	movs	r3, #0
 8009906:	f884 3036 	strb.w	r3, [r4, #54]	; 0x36
 800990a:	f884 3034 	strb.w	r3, [r4, #52]	; 0x34
 800990e:	f884 3035 	strb.w	r3, [r4, #53]	; 0x35
 8009912:	f003 fdc5 	bl	800d4a0 <I2Cx_Init.lto_priv.174>
 8009916:	f894 3035 	ldrb.w	r3, [r4, #53]	; 0x35
 800991a:	4d33      	ldr	r5, [pc, #204]	; (80099e8 <cs43l22_Stop+0x10c>)
 800991c:	b2db      	uxtb	r3, r3
 800991e:	229f      	movs	r2, #159	; 0x9f
 8009920:	2b01      	cmp	r3, #1
 8009922:	f88d 2007 	strb.w	r2, [sp, #7]
 8009926:	682a      	ldr	r2, [r5, #0]
 8009928:	d035      	beq.n	8009996 <cs43l22_Stop+0xba>
 800992a:	2302      	movs	r3, #2
 800992c:	f884 3035 	strb.w	r3, [r4, #53]	; 0x35
 8009930:	6813      	ldr	r3, [r2, #0]
 8009932:	f023 0301 	bic.w	r3, r3, #1
 8009936:	6013      	str	r3, [r2, #0]
 8009938:	2300      	movs	r3, #0
 800993a:	f884 3036 	strb.w	r3, [r4, #54]	; 0x36
 800993e:	f884 3034 	strb.w	r3, [r4, #52]	; 0x34
 8009942:	f884 3035 	strb.w	r3, [r4, #53]	; 0x35
 8009946:	f003 fdab 	bl	800d4a0 <I2Cx_Init.lto_priv.174>
 800994a:	4b28      	ldr	r3, [pc, #160]	; (80099ec <cs43l22_Stop+0x110>)
 800994c:	2201      	movs	r2, #1
 800994e:	2000      	movs	r0, #0
 8009950:	701a      	strb	r2, [r3, #0]
 8009952:	b003      	add	sp, #12
 8009954:	bdf0      	pop	{r4, r5, r6, r7, pc}
 8009956:	6991      	ldr	r1, [r2, #24]
 8009958:	f011 0502 	ands.w	r5, r1, #2
 800995c:	d1cb      	bne.n	80098f6 <cs43l22_Stop+0x1a>
 800995e:	f894 1034 	ldrb.w	r1, [r4, #52]	; 0x34
 8009962:	2901      	cmp	r1, #1
 8009964:	d0c7      	beq.n	80098f6 <cs43l22_Stop+0x1a>
 8009966:	2732      	movs	r7, #50	; 0x32
 8009968:	4630      	mov	r0, r6
 800996a:	2104      	movs	r1, #4
 800996c:	f44f 5280 	mov.w	r2, #4096	; 0x1000
 8009970:	f884 7035 	strb.w	r7, [r4, #53]	; 0x35
 8009974:	f884 3034 	strb.w	r3, [r4, #52]	; 0x34
 8009978:	f884 5036 	strb.w	r5, [r4, #54]	; 0x36
 800997c:	f003 fcc4 	bl	800d308 <I2C_RequestMemoryWrite.constprop.63>
 8009980:	bb68      	cbnz	r0, 80099de <cs43l22_Stop+0x102>
 8009982:	f10d 0006 	add.w	r0, sp, #6
 8009986:	f44f 5180 	mov.w	r1, #4096	; 0x1000
 800998a:	f003 fd2b 	bl	800d3e4 <HAL_I2C_Mem_Write.part.16.constprop.60>
 800998e:	2800      	cmp	r0, #0
 8009990:	d0c1      	beq.n	8009916 <cs43l22_Stop+0x3a>
 8009992:	6822      	ldr	r2, [r4, #0]
 8009994:	e7af      	b.n	80098f6 <cs43l22_Stop+0x1a>
 8009996:	6991      	ldr	r1, [r2, #24]
 8009998:	f011 0702 	ands.w	r7, r1, #2
 800999c:	d1c5      	bne.n	800992a <cs43l22_Stop+0x4e>
 800999e:	f895 1034 	ldrb.w	r1, [r5, #52]	; 0x34
 80099a2:	2901      	cmp	r1, #1
 80099a4:	d0c1      	beq.n	800992a <cs43l22_Stop+0x4e>
 80099a6:	4630      	mov	r0, r6
 80099a8:	2102      	movs	r1, #2
 80099aa:	2632      	movs	r6, #50	; 0x32
 80099ac:	f44f 5280 	mov.w	r2, #4096	; 0x1000
 80099b0:	f885 6035 	strb.w	r6, [r5, #53]	; 0x35
 80099b4:	f885 3034 	strb.w	r3, [r5, #52]	; 0x34
 80099b8:	f885 7036 	strb.w	r7, [r5, #54]	; 0x36
 80099bc:	f003 fca4 	bl	800d308 <I2C_RequestMemoryWrite.constprop.63>
 80099c0:	b948      	cbnz	r0, 80099d6 <cs43l22_Stop+0xfa>
 80099c2:	f10d 0007 	add.w	r0, sp, #7
 80099c6:	f44f 5180 	mov.w	r1, #4096	; 0x1000
 80099ca:	f003 fd0b 	bl	800d3e4 <HAL_I2C_Mem_Write.part.16.constprop.60>
 80099ce:	2800      	cmp	r0, #0
 80099d0:	d0bb      	beq.n	800994a <cs43l22_Stop+0x6e>
 80099d2:	682a      	ldr	r2, [r5, #0]
 80099d4:	e7a9      	b.n	800992a <cs43l22_Stop+0x4e>
 80099d6:	f895 3036 	ldrb.w	r3, [r5, #54]	; 0x36
 80099da:	682a      	ldr	r2, [r5, #0]
 80099dc:	e7a5      	b.n	800992a <cs43l22_Stop+0x4e>
 80099de:	f894 3036 	ldrb.w	r3, [r4, #54]	; 0x36
 80099e2:	6822      	ldr	r2, [r4, #0]
 80099e4:	e787      	b.n	80098f6 <cs43l22_Stop+0x1a>
 80099e6:	bf00      	nop
 80099e8:	2001f738 	.word	0x2001f738
 80099ec:	2000005d 	.word	0x2000005d

080099f0 <MagicPatch.part.2.lto_priv.141>:
MagicPatch.part.2.lto_priv.141():
 80099f0:	e92d 41f0 	stmdb	sp!, {r4, r5, r6, r7, r8, lr}
 80099f4:	ed2d 8b08 	vpush	{d8-d11}
 80099f8:	b082      	sub	sp, #8
 80099fa:	f006 fb8b 	bl	8010114 <rand>
 80099fe:	ee07 0a90 	vmov	s15, r0
 8009a02:	ed9f 9aeb 	vldr	s18, [pc, #940]	; 8009db0 <MagicPatch.part.2.lto_priv.141+0x3c0>
 8009a06:	eddf 8aeb 	vldr	s17, [pc, #940]	; 8009db4 <MagicPatch.part.2.lto_priv.141+0x3c4>
 8009a0a:	ed9f 8aeb 	vldr	s16, [pc, #940]	; 8009db8 <MagicPatch.part.2.lto_priv.141+0x3c8>
 8009a0e:	4deb      	ldr	r5, [pc, #940]	; (8009dbc <MagicPatch.part.2.lto_priv.141+0x3cc>)
 8009a10:	4ceb      	ldr	r4, [pc, #940]	; (8009dc0 <MagicPatch.part.2.lto_priv.141+0x3d0>)
 8009a12:	4feb      	ldr	r7, [pc, #940]	; (8009dc0 <MagicPatch.part.2.lto_priv.141+0x3d0>)
 8009a14:	eef8 7ae7 	vcvt.f32.s32	s15, s15
 8009a18:	eeb0 0a68 	vmov.f32	s0, s17
 8009a1c:	ee67 7a89 	vmul.f32	s15, s15, s18
 8009a20:	2601      	movs	r6, #1
 8009a22:	eea7 0a88 	vfma.f32	s0, s15, s16
 8009a26:	f004 fc43 	bl	800e2b0 <lrintf>
 8009a2a:	b2c0      	uxtb	r0, r0
 8009a2c:	ee07 0a90 	vmov	s15, r0
 8009a30:	ed9f 7ae4 	vldr	s14, [pc, #912]	; 8009dc4 <MagicPatch.part.2.lto_priv.141+0x3d4>
 8009a34:	ed9f 0ae4 	vldr	s0, [pc, #912]	; 8009dc8 <MagicPatch.part.2.lto_priv.141+0x3d8>
 8009a38:	eef8 7ae7 	vcvt.f32.s32	s15, s15
 8009a3c:	ee67 7a87 	vmul.f32	s15, s15, s14
 8009a40:	eeb3 7a04 	vmov.f32	s14, #52	; 0x34
 8009a44:	eec7 7a88 	vdiv.f32	s15, s15, s16
 8009a48:	ee77 7a87 	vadd.f32	s15, s15, s14
 8009a4c:	ee80 0a27 	vdiv.f32	s0, s0, s15
 8009a50:	edc5 7a08 	vstr	s15, [r5, #32]
 8009a54:	f004 fc2c 	bl	800e2b0 <lrintf>
 8009a58:	6268      	str	r0, [r5, #36]	; 0x24
 8009a5a:	f006 fb5b 	bl	8010114 <rand>
 8009a5e:	ee07 0a90 	vmov	s15, r0
 8009a62:	eef8 7ae7 	vcvt.f32.s32	s15, s15
 8009a66:	eeb0 0a68 	vmov.f32	s0, s17
 8009a6a:	ee67 7a89 	vmul.f32	s15, s15, s18
 8009a6e:	eea7 0a88 	vfma.f32	s0, s15, s16
 8009a72:	f004 fc1d 	bl	800e2b0 <lrintf>
 8009a76:	b2c0      	uxtb	r0, r0
 8009a78:	ee07 0a90 	vmov	s15, r0
 8009a7c:	ed9f 7ad3 	vldr	s14, [pc, #844]	; 8009dcc <MagicPatch.part.2.lto_priv.141+0x3dc>
 8009a80:	eef8 7ae7 	vcvt.f32.s32	s15, s15
 8009a84:	2201      	movs	r2, #1
 8009a86:	ee67 7a87 	vmul.f32	s15, s15, s14
 8009a8a:	7362      	strb	r2, [r4, #13]
 8009a8c:	eefc 7ae7 	vcvt.u32.f32	s15, s15
 8009a90:	ee17 3a90 	vmov	r3, s15
 8009a94:	7223      	strb	r3, [r4, #8]
 8009a96:	f006 fb3d 	bl	8010114 <rand>
 8009a9a:	ee07 0a90 	vmov	s15, r0
 8009a9e:	eef8 7ae7 	vcvt.f32.s32	s15, s15
 8009aa2:	eeb0 0a68 	vmov.f32	s0, s17
 8009aa6:	ee67 7a89 	vmul.f32	s15, s15, s18
 8009aaa:	ed9f 9ac1 	vldr	s18, [pc, #772]	; 8009db0 <MagicPatch.part.2.lto_priv.141+0x3c0>
 8009aae:	eddf 8ac2 	vldr	s17, [pc, #776]	; 8009db8 <MagicPatch.part.2.lto_priv.141+0x3c8>
 8009ab2:	eea7 0a88 	vfma.f32	s0, s15, s16
 8009ab6:	f004 fbfb 	bl	800e2b0 <lrintf>
 8009aba:	b2c0      	uxtb	r0, r0
 8009abc:	ee07 0a90 	vmov	s15, r0
 8009ac0:	eeb8 0ae7 	vcvt.f32.s32	s0, s15
 8009ac4:	eddf 7ac2 	vldr	s15, [pc, #776]	; 8009dd0 <MagicPatch.part.2.lto_priv.141+0x3e0>
 8009ac8:	ed9f 8aba 	vldr	s16, [pc, #744]	; 8009db4 <MagicPatch.part.2.lto_priv.141+0x3c4>
 8009acc:	ee20 0a27 	vmul.f32	s0, s0, s15
 8009ad0:	f004 fc34 	bl	800e33c <rintf>
 8009ad4:	eebc 0ac0 	vcvt.u32.f32	s0, s0
 8009ad8:	7366      	strb	r6, [r4, #13]
 8009ada:	ed8d 0a01 	vstr	s0, [sp, #4]
 8009ade:	f89d 3004 	ldrb.w	r3, [sp, #4]
 8009ae2:	7023      	strb	r3, [r4, #0]
 8009ae4:	2b0e      	cmp	r3, #14
 8009ae6:	bf96      	itet	ls
 8009ae8:	4aba      	ldrls	r2, [pc, #744]	; (8009dd4 <MagicPatch.part.2.lto_priv.141+0x3e4>)
 8009aea:	4bbb      	ldrhi	r3, [pc, #748]	; (8009dd8 <MagicPatch.part.2.lto_priv.141+0x3e8>)
 8009aec:	f852 3023 	ldrls.w	r3, [r2, r3, lsl #2]
 8009af0:	6063      	str	r3, [r4, #4]
 8009af2:	f006 fb0f 	bl	8010114 <rand>
 8009af6:	ee07 0a90 	vmov	s15, r0
 8009afa:	eef8 7ae7 	vcvt.f32.s32	s15, s15
 8009afe:	eeb0 0a48 	vmov.f32	s0, s16
 8009b02:	ee67 7a89 	vmul.f32	s15, s15, s18
 8009b06:	eea7 0aa8 	vfma.f32	s0, s15, s17
 8009b0a:	f004 fbd1 	bl	800e2b0 <lrintf>
 8009b0e:	b2c0      	uxtb	r0, r0
 8009b10:	283f      	cmp	r0, #63	; 0x3f
 8009b12:	bf94      	ite	ls
 8009b14:	2000      	movls	r0, #0
 8009b16:	2001      	movhi	r0, #1
 8009b18:	72e0      	strb	r0, [r4, #11]
 8009b1a:	f006 fafb 	bl	8010114 <rand>
 8009b1e:	ee07 0a90 	vmov	s15, r0
 8009b22:	eef8 7ae7 	vcvt.f32.s32	s15, s15
 8009b26:	eeb0 0a48 	vmov.f32	s0, s16
 8009b2a:	ee67 7a89 	vmul.f32	s15, s15, s18
 8009b2e:	eea7 0aa8 	vfma.f32	s0, s15, s17
 8009b32:	f004 fbbd 	bl	800e2b0 <lrintf>
 8009b36:	b2c0      	uxtb	r0, r0
 8009b38:	2800      	cmp	r0, #0
 8009b3a:	f000 83de 	beq.w	800a2fa <MagicPatch.part.2.lto_priv.141+0x90a>
 8009b3e:	287f      	cmp	r0, #127	; 0x7f
 8009b40:	f000 8368 	beq.w	800a214 <MagicPatch.part.2.lto_priv.141+0x824>
 8009b44:	f006 fae6 	bl	8010114 <rand>
 8009b48:	ee07 0a90 	vmov	s15, r0
 8009b4c:	eddf 8a98 	vldr	s17, [pc, #608]	; 8009db0 <MagicPatch.part.2.lto_priv.141+0x3c0>
 8009b50:	ed9f 8a98 	vldr	s16, [pc, #608]	; 8009db4 <MagicPatch.part.2.lto_priv.141+0x3c4>
 8009b54:	ed9f 9a98 	vldr	s18, [pc, #608]	; 8009db8 <MagicPatch.part.2.lto_priv.141+0x3c8>
 8009b58:	4fa0      	ldr	r7, [pc, #640]	; (8009ddc <MagicPatch.part.2.lto_priv.141+0x3ec>)
 8009b5a:	eef8 7ae7 	vcvt.f32.s32	s15, s15
 8009b5e:	eeb0 0a48 	vmov.f32	s0, s16
 8009b62:	ee67 7aa8 	vmul.f32	s15, s15, s17
 8009b66:	eea7 0a89 	vfma.f32	s0, s15, s18
 8009b6a:	f004 fba1 	bl	800e2b0 <lrintf>
 8009b6e:	b2c0      	uxtb	r0, r0
 8009b70:	ee07 0a90 	vmov	s15, r0
 8009b74:	eddf 6a9a 	vldr	s13, [pc, #616]	; 8009de0 <MagicPatch.part.2.lto_priv.141+0x3f0>
 8009b78:	eeb8 7ae7 	vcvt.f32.s32	s14, s15
 8009b7c:	eddf 7a99 	vldr	s15, [pc, #612]	; 8009de4 <MagicPatch.part.2.lto_priv.141+0x3f4>
 8009b80:	ee27 7a26 	vmul.f32	s14, s14, s13
 8009b84:	edd5 6a09 	vldr	s13, [r5, #36]	; 0x24
 8009b88:	ee87 7a09 	vdiv.f32	s14, s14, s18
 8009b8c:	eef8 6ae6 	vcvt.f32.s32	s13, s13
 8009b90:	ee77 7a27 	vadd.f32	s15, s14, s15
 8009b94:	ee66 7aa7 	vmul.f32	s15, s13, s15
 8009b98:	eefc 7ae7 	vcvt.u32.f32	s15, s15
 8009b9c:	edc5 7a0c 	vstr	s15, [r5, #48]	; 0x30
 8009ba0:	f006 fab8 	bl	8010114 <rand>
 8009ba4:	4b90      	ldr	r3, [pc, #576]	; (8009de8 <MagicPatch.part.2.lto_priv.141+0x3f8>)
 8009ba6:	4a91      	ldr	r2, [pc, #580]	; (8009dec <MagicPatch.part.2.lto_priv.141+0x3fc>)
 8009ba8:	fb83 1300 	smull	r1, r3, r3, r0
 8009bac:	eba3 73e0 	sub.w	r3, r3, r0, asr #31
 8009bb0:	eb03 0343 	add.w	r3, r3, r3, lsl #1
 8009bb4:	1ac3      	subs	r3, r0, r3
 8009bb6:	7013      	strb	r3, [r2, #0]
 8009bb8:	f006 faac 	bl	8010114 <rand>
 8009bbc:	ee07 0a90 	vmov	s15, r0
 8009bc0:	eef8 7ae7 	vcvt.f32.s32	s15, s15
 8009bc4:	eeb0 0a48 	vmov.f32	s0, s16
 8009bc8:	ee67 7aa8 	vmul.f32	s15, s15, s17
 8009bcc:	eea7 0a89 	vfma.f32	s0, s15, s18
 8009bd0:	f004 fb6e 	bl	800e2b0 <lrintf>
 8009bd4:	b2c0      	uxtb	r0, r0
 8009bd6:	ee07 0a90 	vmov	s15, r0
 8009bda:	eeb8 0ae7 	vcvt.f32.s32	s0, s15
 8009bde:	eddf 7a84 	vldr	s15, [pc, #528]	; 8009df0 <MagicPatch.part.2.lto_priv.141+0x400>
 8009be2:	ee20 0a27 	vmul.f32	s0, s0, s15
 8009be6:	f004 fba9 	bl	800e33c <rintf>
 8009bea:	eebc 0ac0 	vcvt.u32.f32	s0, s0
 8009bee:	ed8d 0a01 	vstr	s0, [sp, #4]
 8009bf2:	f89d 3004 	ldrb.w	r3, [sp, #4]
 8009bf6:	703b      	strb	r3, [r7, #0]
 8009bf8:	2b04      	cmp	r3, #4
 8009bfa:	d03f      	beq.n	8009c7c <MagicPatch.part.2.lto_priv.141+0x28c>
 8009bfc:	4e7d      	ldr	r6, [pc, #500]	; (8009df4 <MagicPatch.part.2.lto_priv.141+0x404>)
 8009bfe:	4d7e      	ldr	r5, [pc, #504]	; (8009df8 <MagicPatch.part.2.lto_priv.141+0x408>)
 8009c00:	eddf aa7e 	vldr	s21, [pc, #504]	; 8009dfc <MagicPatch.part.2.lto_priv.141+0x40c>
 8009c04:	ed85 8a01 	vstr	s16, [r5, #4]
 8009c08:	4634      	mov	r4, r6
 8009c0a:	ee18 2a10 	vmov	r2, s16
 8009c0e:	f04f 537e 	mov.w	r3, #1065353216	; 0x3f800000
 8009c12:	ed9f aa7b 	vldr	s20, [pc, #492]	; 8009e00 <MagicPatch.part.2.lto_priv.141+0x410>
 8009c16:	f844 3b08 	str.w	r3, [r4], #8
 8009c1a:	f845 2b08 	str.w	r2, [r5], #8
 8009c1e:	6073      	str	r3, [r6, #4]
 8009c20:	f106 082c 	add.w	r8, r6, #44	; 0x2c
 8009c24:	f006 fa76 	bl	8010114 <rand>
 8009c28:	ee07 0a90 	vmov	s15, r0
 8009c2c:	eef8 7ae7 	vcvt.f32.s32	s15, s15
 8009c30:	eeb0 7a4a 	vmov.f32	s14, s20
 8009c34:	ee67 7aa8 	vmul.f32	s15, s15, s17
 8009c38:	eca5 8a01 	vstmia	r5!, {s16}
 8009c3c:	eea7 7aaa 	vfma.f32	s14, s15, s21
 8009c40:	4b6c      	ldr	r3, [pc, #432]	; (8009df4 <MagicPatch.part.2.lto_priv.141+0x404>)
 8009c42:	eddf 9a5b 	vldr	s19, [pc, #364]	; 8009db0 <MagicPatch.part.2.lto_priv.141+0x3c0>
 8009c46:	eca4 7a01 	vstmia	r4!, {s14}
 8009c4a:	eef0 7a47 	vmov.f32	s15, s14
 8009c4e:	ed96 7a00 	vldr	s14, [r6]
 8009c52:	ed9f 9a58 	vldr	s18, [pc, #352]	; 8009db4 <MagicPatch.part.2.lto_priv.141+0x3c4>
 8009c56:	ee77 7a87 	vadd.f32	s15, s15, s14
 8009c5a:	4544      	cmp	r4, r8
 8009c5c:	edc6 7a00 	vstr	s15, [r6]
 8009c60:	d1e0      	bne.n	8009c24 <MagicPatch.part.2.lto_priv.141+0x234>
 8009c62:	eeb7 8a00 	vmov.f32	s16, #112	; 0x70
 8009c66:	eec8 7a27 	vdiv.f32	s15, s16, s15
 8009c6a:	783a      	ldrb	r2, [r7, #0]
 8009c6c:	2a0e      	cmp	r2, #14
 8009c6e:	edc3 7a00 	vstr	s15, [r3]
 8009c72:	f000 8344 	beq.w	800a2fe <MagicPatch.part.2.lto_priv.141+0x90e>
 8009c76:	2a0d      	cmp	r2, #13
 8009c78:	f000 842f 	beq.w	800a4da <MagicPatch.part.2.lto_priv.141+0xaea>
 8009c7c:	f006 fa4a 	bl	8010114 <rand>
 8009c80:	ee07 0a90 	vmov	s15, r0
 8009c84:	ed9f 8a4c 	vldr	s16, [pc, #304]	; 8009db8 <MagicPatch.part.2.lto_priv.141+0x3c8>
 8009c88:	ed9f 0a4a 	vldr	s0, [pc, #296]	; 8009db4 <MagicPatch.part.2.lto_priv.141+0x3c4>
 8009c8c:	eefa 7ae0 	vcvt.f32.s32	s15, s15, #31
 8009c90:	eea7 0a88 	vfma.f32	s0, s15, s16
 8009c94:	f004 fb0c 	bl	800e2b0 <lrintf>
 8009c98:	b2c0      	uxtb	r0, r0
 8009c9a:	ee07 0a90 	vmov	s15, r0
 8009c9e:	eef8 0ae7 	vcvt.f32.s32	s1, s15
 8009ca2:	ed9f 0a63 	vldr	s0, [pc, #396]	; 8009e30 <MagicPatch.part.2.lto_priv.141+0x440>
 8009ca6:	eec0 0a88 	vdiv.f32	s1, s1, s16
 8009caa:	f004 fbed 	bl	800e488 <powf>
 8009cae:	4b55      	ldr	r3, [pc, #340]	; (8009e04 <MagicPatch.part.2.lto_priv.141+0x414>)
 8009cb0:	eddf 7a55 	vldr	s15, [pc, #340]	; 8009e08 <MagicPatch.part.2.lto_priv.141+0x418>
 8009cb4:	eddf 6a55 	vldr	s13, [pc, #340]	; 8009e0c <MagicPatch.part.2.lto_priv.141+0x41c>
 8009cb8:	ed9f 7a55 	vldr	s14, [pc, #340]	; 8009e10 <MagicPatch.part.2.lto_priv.141+0x420>
 8009cbc:	ee20 0a27 	vmul.f32	s0, s0, s15
 8009cc0:	ee80 0a26 	vdiv.f32	s0, s0, s13
 8009cc4:	eeb4 0ac7 	vcmpe.f32	s0, s14
 8009cc8:	eef1 fa10 	vmrs	APSR_nzcv, fpscr
 8009ccc:	ed83 0a00 	vstr	s0, [r3]
 8009cd0:	f340 82f2 	ble.w	800a2b8 <MagicPatch.part.2.lto_priv.141+0x8c8>
 8009cd4:	eddf 7a4f 	vldr	s15, [pc, #316]	; 8009e14 <MagicPatch.part.2.lto_priv.141+0x424>
 8009cd8:	ed9f 0a4f 	vldr	s0, [pc, #316]	; 8009e18 <MagicPatch.part.2.lto_priv.141+0x428>
 8009cdc:	4c4f      	ldr	r4, [pc, #316]	; (8009e1c <MagicPatch.part.2.lto_priv.141+0x42c>)
 8009cde:	ed9f 9a34 	vldr	s18, [pc, #208]	; 8009db0 <MagicPatch.part.2.lto_priv.141+0x3c0>
 8009ce2:	ed84 0a01 	vstr	s0, [r4, #4]
 8009ce6:	edc4 7a02 	vstr	s15, [r4, #8]
 8009cea:	f006 fa13 	bl	8010114 <rand>
 8009cee:	ee07 0a90 	vmov	s15, r0
 8009cf2:	eef8 7ae7 	vcvt.f32.s32	s15, s15
 8009cf6:	eddf 8a2f 	vldr	s17, [pc, #188]	; 8009db4 <MagicPatch.part.2.lto_priv.141+0x3c4>
 8009cfa:	ed9f 8a2f 	vldr	s16, [pc, #188]	; 8009db8 <MagicPatch.part.2.lto_priv.141+0x3c8>
 8009cfe:	4d48      	ldr	r5, [pc, #288]	; (8009e20 <MagicPatch.part.2.lto_priv.141+0x430>)
 8009d00:	ee67 7a89 	vmul.f32	s15, s15, s18
 8009d04:	eeb0 0a68 	vmov.f32	s0, s17
 8009d08:	eea7 0a88 	vfma.f32	s0, s15, s16
 8009d0c:	f004 fad0 	bl	800e2b0 <lrintf>
 8009d10:	b2c0      	uxtb	r0, r0
 8009d12:	ee07 0a90 	vmov	s15, r0
 8009d16:	eef8 7ae7 	vcvt.f32.s32	s15, s15
 8009d1a:	eef7 6a00 	vmov.f32	s13, #112	; 0x70
 8009d1e:	eec7 7a88 	vdiv.f32	s15, s15, s16
 8009d22:	ed9f 7a40 	vldr	s14, [pc, #256]	; 8009e24 <MagicPatch.part.2.lto_priv.141+0x434>
 8009d26:	ee76 7ae7 	vsub.f32	s15, s13, s15
 8009d2a:	eef4 7ac7 	vcmpe.f32	s15, s14
 8009d2e:	eef1 fa10 	vmrs	APSR_nzcv, fpscr
 8009d32:	bf58      	it	pl
 8009d34:	eeb0 7a67 	vmovpl.f32	s14, s15
 8009d38:	ed84 7a03 	vstr	s14, [r4, #12]
 8009d3c:	f006 f9ea 	bl	8010114 <rand>
 8009d40:	ee07 0a90 	vmov	s15, r0
 8009d44:	eef8 7ae7 	vcvt.f32.s32	s15, s15
 8009d48:	eeb0 0a68 	vmov.f32	s0, s17
 8009d4c:	ee67 7a89 	vmul.f32	s15, s15, s18
 8009d50:	eea7 0a88 	vfma.f32	s0, s15, s16
 8009d54:	f004 faac 	bl	800e2b0 <lrintf>
 8009d58:	b2c0      	uxtb	r0, r0
 8009d5a:	ee07 0a90 	vmov	s15, r0
 8009d5e:	eeb8 7ae7 	vcvt.f32.s32	s14, s15
 8009d62:	eef1 6a08 	vmov.f32	s13, #24
 8009d66:	eec7 7a08 	vdiv.f32	s15, s14, s16
 8009d6a:	ee67 7aa7 	vmul.f32	s15, s15, s15
 8009d6e:	ee67 7aa6 	vmul.f32	s15, s15, s13
 8009d72:	edc4 7a06 	vstr	s15, [r4, #24]
 8009d76:	f006 f9cd 	bl	8010114 <rand>
 8009d7a:	ee07 0a90 	vmov	s15, r0
 8009d7e:	eef8 7ae7 	vcvt.f32.s32	s15, s15
 8009d82:	eeb0 0a68 	vmov.f32	s0, s17
 8009d86:	ee67 7a89 	vmul.f32	s15, s15, s18
 8009d8a:	eea7 0a88 	vfma.f32	s0, s15, s16
 8009d8e:	f004 fa8f 	bl	800e2b0 <lrintf>
 8009d92:	b2c0      	uxtb	r0, r0
 8009d94:	eb00 0080 	add.w	r0, r0, r0, lsl #2
 8009d98:	ee07 0a90 	vmov	s15, r0
 8009d9c:	eeb8 0ae7 	vcvt.f32.s32	s0, s15
 8009da0:	ee80 0a08 	vdiv.f32	s0, s0, s16
 8009da4:	f004 fa84 	bl	800e2b0 <lrintf>
 8009da8:	7020      	strb	r0, [r4, #0]
 8009daa:	f006 f9b3 	bl	8010114 <rand>
 8009dae:	e041      	b.n	8009e34 <MagicPatch.part.2.lto_priv.141+0x444>
 8009db0:	30000000 	.word	0x30000000
 8009db4:	00000000 	.word	0x00000000
 8009db8:	42fe0000 	.word	0x42fe0000
 8009dbc:	10000000 	.word	0x10000000
 8009dc0:	10000034 	.word	0x10000034
 8009dc4:	43fa0000 	.word	0x43fa0000
 8009dc8:	4a217fc0 	.word	0x4a217fc0
 8009dcc:	3d810204 	.word	0x3d810204
 8009dd0:	3de1c387 	.word	0x3de1c387
 8009dd4:	0801ee08 	.word	0x0801ee08
 8009dd8:	0801edd4 	.word	0x0801edd4
 8009ddc:	100000e9 	.word	0x100000e9
 8009de0:	3f4ccccc 	.word	0x3f4ccccc
 8009de4:	3dcccccd 	.word	0x3dcccccd
 8009de8:	55555556 	.word	0x55555556
 8009dec:	100000e8 	.word	0x100000e8
 8009df0:	3df1e3c8 	.word	0x3df1e3c8
 8009df4:	10000044 	.word	0x10000044
 8009df8:	10000070 	.word	0x10000070
 8009dfc:	3f7a9fbf 	.word	0x3f7a9fbf
 8009e00:	3a83126f 	.word	0x3a83126f
 8009e04:	2001f0d0 	.word	0x2001f0d0
 8009e08:	42a00000 	.word	0x42a00000
 8009e0c:	472c4400 	.word	0x472c4400
 8009e10:	3f733333 	.word	0x3f733333
 8009e14:	413a1203 	.word	0x413a1203
 8009e18:	3ef33333 	.word	0x3ef33333
 8009e1c:	100000c8 	.word	0x100000c8
 8009e20:	1000123c 	.word	0x1000123c
 8009e24:	3c23d70a 	.word	0x3c23d70a
 8009e28:	3e810204 	.word	0x3e810204
 8009e2c:	3dc18306 	.word	0x3dc18306
 8009e30:	42c80000 	.word	0x42c80000
 8009e34:	ee07 0a90 	vmov	s15, r0
 8009e38:	eef8 7ae7 	vcvt.f32.s32	s15, s15
 8009e3c:	eeb0 0a68 	vmov.f32	s0, s17
 8009e40:	ee67 7a89 	vmul.f32	s15, s15, s18
 8009e44:	eea7 0a88 	vfma.f32	s0, s15, s16
 8009e48:	f004 fa32 	bl	800e2b0 <lrintf>
 8009e4c:	b2c0      	uxtb	r0, r0
 8009e4e:	ee07 0a90 	vmov	s15, r0
 8009e52:	ed1f 7a0b 	vldr	s14, [pc, #-44]	; 8009e28 <MagicPatch.part.2.lto_priv.141+0x438>
 8009e56:	eef8 7ae7 	vcvt.f32.s32	s15, s15
 8009e5a:	ee67 7a87 	vmul.f32	s15, s15, s14
 8009e5e:	edc5 7a00 	vstr	s15, [r5]
 8009e62:	f006 f957 	bl	8010114 <rand>
 8009e66:	ee07 0a90 	vmov	s15, r0
 8009e6a:	eef8 7ae7 	vcvt.f32.s32	s15, s15
 8009e6e:	eeb0 0a68 	vmov.f32	s0, s17
 8009e72:	ee67 7a89 	vmul.f32	s15, s15, s18
 8009e76:	eea7 0a88 	vfma.f32	s0, s15, s16
 8009e7a:	f004 fa19 	bl	800e2b0 <lrintf>
 8009e7e:	b2c0      	uxtb	r0, r0
 8009e80:	ee07 0a90 	vmov	s15, r0
 8009e84:	ed1f 7a17 	vldr	s14, [pc, #-92]	; 8009e2c <MagicPatch.part.2.lto_priv.141+0x43c>
 8009e88:	eef8 7ae7 	vcvt.f32.s32	s15, s15
 8009e8c:	ee67 7a87 	vmul.f32	s15, s15, s14
 8009e90:	edc5 7a02 	vstr	s15, [r5, #8]
 8009e94:	f006 f93e 	bl	8010114 <rand>
 8009e98:	ee07 0a90 	vmov	s15, r0
 8009e9c:	eef8 7ae7 	vcvt.f32.s32	s15, s15
 8009ea0:	eeb0 0a68 	vmov.f32	s0, s17
 8009ea4:	ee27 9a89 	vmul.f32	s18, s15, s18
 8009ea8:	eea9 0a08 	vfma.f32	s0, s18, s16
 8009eac:	f004 fa00 	bl	800e2b0 <lrintf>
 8009eb0:	b2c0      	uxtb	r0, r0
 8009eb2:	ee07 0a90 	vmov	s15, r0
 8009eb6:	eef8 0ae7 	vcvt.f32.s32	s1, s15
 8009eba:	ed1f 0a23 	vldr	s0, [pc, #-140]	; 8009e30 <MagicPatch.part.2.lto_priv.141+0x440>
 8009ebe:	eec0 0a88 	vdiv.f32	s1, s1, s16
 8009ec2:	f004 fae1 	bl	800e488 <powf>
 8009ec6:	4be5      	ldr	r3, [pc, #916]	; (800a25c <MagicPatch.part.2.lto_priv.141+0x86c>)
 8009ec8:	eddf 7ae5 	vldr	s15, [pc, #916]	; 800a260 <MagicPatch.part.2.lto_priv.141+0x870>
 8009ecc:	eddf 6ae5 	vldr	s13, [pc, #916]	; 800a264 <MagicPatch.part.2.lto_priv.141+0x874>
 8009ed0:	ed9f 7ae5 	vldr	s14, [pc, #916]	; 800a268 <MagicPatch.part.2.lto_priv.141+0x878>
 8009ed4:	ee20 0a27 	vmul.f32	s0, s0, s15
 8009ed8:	ee80 0a26 	vdiv.f32	s0, s0, s13
 8009edc:	eeb4 0ac7 	vcmpe.f32	s0, s14
 8009ee0:	eef1 fa10 	vmrs	APSR_nzcv, fpscr
 8009ee4:	ed83 0a00 	vstr	s0, [r3]
 8009ee8:	f340 8196 	ble.w	800a218 <MagicPatch.part.2.lto_priv.141+0x828>
 8009eec:	eddf 7adf 	vldr	s15, [pc, #892]	; 800a26c <MagicPatch.part.2.lto_priv.141+0x87c>
 8009ef0:	ed9f 0adf 	vldr	s0, [pc, #892]	; 800a270 <MagicPatch.part.2.lto_priv.141+0x880>
 8009ef4:	f8df 83b4 	ldr.w	r8, [pc, #948]	; 800a2ac <MagicPatch.part.2.lto_priv.141+0x8bc>
 8009ef8:	ed9f 9ade 	vldr	s18, [pc, #888]	; 800a274 <MagicPatch.part.2.lto_priv.141+0x884>
 8009efc:	ed88 0a01 	vstr	s0, [r8, #4]
 8009f00:	edc8 7a02 	vstr	s15, [r8, #8]
 8009f04:	f006 f906 	bl	8010114 <rand>
 8009f08:	ee07 0a90 	vmov	s15, r0
 8009f0c:	eef8 7ae7 	vcvt.f32.s32	s15, s15
 8009f10:	eddf 8ad9 	vldr	s17, [pc, #868]	; 800a278 <MagicPatch.part.2.lto_priv.141+0x888>
 8009f14:	ed9f 8ae7 	vldr	s16, [pc, #924]	; 800a2b4 <MagicPatch.part.2.lto_priv.141+0x8c4>
 8009f18:	4fd8      	ldr	r7, [pc, #864]	; (800a27c <MagicPatch.part.2.lto_priv.141+0x88c>)
 8009f1a:	ed9f aad9 	vldr	s20, [pc, #868]	; 800a280 <MagicPatch.part.2.lto_priv.141+0x890>
 8009f1e:	ed9f bad9 	vldr	s22, [pc, #868]	; 800a284 <MagicPatch.part.2.lto_priv.141+0x894>
 8009f22:	eddf aad0 	vldr	s21, [pc, #832]	; 800a264 <MagicPatch.part.2.lto_priv.141+0x874>
 8009f26:	4cd8      	ldr	r4, [pc, #864]	; (800a288 <MagicPatch.part.2.lto_priv.141+0x898>)
 8009f28:	4ed8      	ldr	r6, [pc, #864]	; (800a28c <MagicPatch.part.2.lto_priv.141+0x89c>)
 8009f2a:	4dd9      	ldr	r5, [pc, #868]	; (800a290 <MagicPatch.part.2.lto_priv.141+0x8a0>)
 8009f2c:	ee67 7a89 	vmul.f32	s15, s15, s18
 8009f30:	eeb0 0a68 	vmov.f32	s0, s17
 8009f34:	eea7 0a88 	vfma.f32	s0, s15, s16
 8009f38:	f004 f9ba 	bl	800e2b0 <lrintf>
 8009f3c:	b2c0      	uxtb	r0, r0
 8009f3e:	ee07 0a90 	vmov	s15, r0
 8009f42:	eef8 7ae7 	vcvt.f32.s32	s15, s15
 8009f46:	eef7 9a00 	vmov.f32	s19, #112	; 0x70
 8009f4a:	eec7 7a88 	vdiv.f32	s15, s15, s16
 8009f4e:	ed9f 7ad1 	vldr	s14, [pc, #836]	; 800a294 <MagicPatch.part.2.lto_priv.141+0x8a4>
 8009f52:	ee79 7ae7 	vsub.f32	s15, s19, s15
 8009f56:	eef4 7ac7 	vcmpe.f32	s15, s14
 8009f5a:	eef1 fa10 	vmrs	APSR_nzcv, fpscr
 8009f5e:	bf48      	it	mi
 8009f60:	eef0 7a47 	vmovmi.f32	s15, s14
 8009f64:	edc8 7a03 	vstr	s15, [r8, #12]
 8009f68:	f006 f8d4 	bl	8010114 <rand>
 8009f6c:	ee07 0a90 	vmov	s15, r0
 8009f70:	eef8 7ae7 	vcvt.f32.s32	s15, s15
 8009f74:	eeb0 0a68 	vmov.f32	s0, s17
 8009f78:	ee67 7a89 	vmul.f32	s15, s15, s18
 8009f7c:	eea7 0a88 	vfma.f32	s0, s15, s16
 8009f80:	f004 f996 	bl	800e2b0 <lrintf>
 8009f84:	b2c0      	uxtb	r0, r0
 8009f86:	ee07 0a90 	vmov	s15, r0
 8009f8a:	eeb8 7ae7 	vcvt.f32.s32	s14, s15
 8009f8e:	eef1 6a08 	vmov.f32	s13, #24
 8009f92:	eec7 7a08 	vdiv.f32	s15, s14, s16
 8009f96:	ee67 7aa7 	vmul.f32	s15, s15, s15
 8009f9a:	ee67 7aa6 	vmul.f32	s15, s15, s13
 8009f9e:	edc8 7a06 	vstr	s15, [r8, #24]
 8009fa2:	f006 f8b7 	bl	8010114 <rand>
 8009fa6:	ee07 0a90 	vmov	s15, r0
 8009faa:	eef8 7ae7 	vcvt.f32.s32	s15, s15
 8009fae:	eeb0 0a68 	vmov.f32	s0, s17
 8009fb2:	ee67 7a89 	vmul.f32	s15, s15, s18
 8009fb6:	eea7 0a88 	vfma.f32	s0, s15, s16
 8009fba:	f004 f979 	bl	800e2b0 <lrintf>
 8009fbe:	b2c0      	uxtb	r0, r0
 8009fc0:	eb00 0080 	add.w	r0, r0, r0, lsl #2
 8009fc4:	ee07 0a90 	vmov	s15, r0
 8009fc8:	eeb8 0ae7 	vcvt.f32.s32	s0, s15
 8009fcc:	ee80 0a08 	vdiv.f32	s0, s0, s16
 8009fd0:	f004 f96e 	bl	800e2b0 <lrintf>
 8009fd4:	f888 0000 	strb.w	r0, [r8]
 8009fd8:	f006 f89c 	bl	8010114 <rand>
 8009fdc:	ee07 0a90 	vmov	s15, r0
 8009fe0:	eef8 7ae7 	vcvt.f32.s32	s15, s15
 8009fe4:	eeb0 0a68 	vmov.f32	s0, s17
 8009fe8:	ee67 7a89 	vmul.f32	s15, s15, s18
 8009fec:	eea7 0a88 	vfma.f32	s0, s15, s16
 8009ff0:	f004 f95e 	bl	800e2b0 <lrintf>
 8009ff4:	b2c0      	uxtb	r0, r0
 8009ff6:	ee07 0a90 	vmov	s15, r0
 8009ffa:	ed9f 7aa7 	vldr	s14, [pc, #668]	; 800a298 <MagicPatch.part.2.lto_priv.141+0x8a8>
 8009ffe:	eef8 7ae7 	vcvt.f32.s32	s15, s15
 800a002:	ee67 7a87 	vmul.f32	s15, s15, s14
 800a006:	edc7 7a00 	vstr	s15, [r7]
 800a00a:	f006 f883 	bl	8010114 <rand>
 800a00e:	ee07 0a90 	vmov	s15, r0
 800a012:	eef8 7ae7 	vcvt.f32.s32	s15, s15
 800a016:	eeb0 0a68 	vmov.f32	s0, s17
 800a01a:	ee67 7a89 	vmul.f32	s15, s15, s18
 800a01e:	eea7 0a88 	vfma.f32	s0, s15, s16
 800a022:	f004 f945 	bl	800e2b0 <lrintf>
 800a026:	b2c0      	uxtb	r0, r0
 800a028:	ee07 0a90 	vmov	s15, r0
 800a02c:	eef8 7ae7 	vcvt.f32.s32	s15, s15
 800a030:	ee67 7a8a 	vmul.f32	s15, s15, s20
 800a034:	edc7 7a02 	vstr	s15, [r7, #8]
 800a038:	f006 f86c 	bl	8010114 <rand>
 800a03c:	ee07 0a90 	vmov	s15, r0
 800a040:	eef8 7ae7 	vcvt.f32.s32	s15, s15
 800a044:	eeb0 0a68 	vmov.f32	s0, s17
 800a048:	ee67 7a89 	vmul.f32	s15, s15, s18
 800a04c:	eea7 0a88 	vfma.f32	s0, s15, s16
 800a050:	f004 f92e 	bl	800e2b0 <lrintf>
 800a054:	b2c0      	uxtb	r0, r0
 800a056:	283f      	cmp	r0, #63	; 0x3f
 800a058:	4b90      	ldr	r3, [pc, #576]	; (800a29c <MagicPatch.part.2.lto_priv.141+0x8ac>)
 800a05a:	bf94      	ite	ls
 800a05c:	2000      	movls	r0, #0
 800a05e:	2001      	movhi	r0, #1
 800a060:	7018      	strb	r0, [r3, #0]
 800a062:	f006 f857 	bl	8010114 <rand>
 800a066:	ee07 0a90 	vmov	s15, r0
 800a06a:	eef8 7ae7 	vcvt.f32.s32	s15, s15
 800a06e:	ed9f 7a8c 	vldr	s14, [pc, #560]	; 800a2a0 <MagicPatch.part.2.lto_priv.141+0x8b0>
 800a072:	ee67 7a89 	vmul.f32	s15, s15, s18
 800a076:	eeb0 0a68 	vmov.f32	s0, s17
 800a07a:	eea7 0a87 	vfma.f32	s0, s15, s14
 800a07e:	f004 f917 	bl	800e2b0 <lrintf>
 800a082:	b2c0      	uxtb	r0, r0
 800a084:	ee07 0a90 	vmov	s15, r0
 800a088:	eef8 7ae7 	vcvt.f32.s32	s15, s15
 800a08c:	eec7 7a88 	vdiv.f32	s15, s15, s16
 800a090:	ee77 7a8b 	vadd.f32	s15, s15, s22
 800a094:	ee67 7aaa 	vmul.f32	s15, s15, s21
 800a098:	eec9 7aa7 	vdiv.f32	s15, s19, s15
 800a09c:	edc4 7a00 	vstr	s15, [r4]
 800a0a0:	f006 f838 	bl	8010114 <rand>
 800a0a4:	ee07 0a90 	vmov	s15, r0
 800a0a8:	eef8 7ae7 	vcvt.f32.s32	s15, s15
 800a0ac:	eeb0 0a68 	vmov.f32	s0, s17
 800a0b0:	ee67 7a89 	vmul.f32	s15, s15, s18
 800a0b4:	eea7 0a88 	vfma.f32	s0, s15, s16
 800a0b8:	f004 f8fa 	bl	800e2b0 <lrintf>
 800a0bc:	b2c0      	uxtb	r0, r0
 800a0be:	ee07 0a90 	vmov	s15, r0
 800a0c2:	ed9f 7a78 	vldr	s14, [pc, #480]	; 800a2a4 <MagicPatch.part.2.lto_priv.141+0x8b4>
 800a0c6:	eef8 7ae7 	vcvt.f32.s32	s15, s15
 800a0ca:	ee67 7a87 	vmul.f32	s15, s15, s14
 800a0ce:	eec7 7a88 	vdiv.f32	s15, s15, s16
 800a0d2:	ee77 7a8b 	vadd.f32	s15, s15, s22
 800a0d6:	ee67 7aaa 	vmul.f32	s15, s15, s21
 800a0da:	eec9 7aa7 	vdiv.f32	s15, s19, s15
 800a0de:	edc4 7a01 	vstr	s15, [r4, #4]
 800a0e2:	f006 f817 	bl	8010114 <rand>
 800a0e6:	ee07 0a90 	vmov	s15, r0
 800a0ea:	eef8 7ae7 	vcvt.f32.s32	s15, s15
 800a0ee:	eeb0 0a68 	vmov.f32	s0, s17
 800a0f2:	ee67 7a89 	vmul.f32	s15, s15, s18
 800a0f6:	eea7 0a88 	vfma.f32	s0, s15, s16
 800a0fa:	f004 f8d9 	bl	800e2b0 <lrintf>
 800a0fe:	b2c0      	uxtb	r0, r0
 800a100:	ee07 0a90 	vmov	s15, r0
 800a104:	eef8 7ae7 	vcvt.f32.s32	s15, s15
 800a108:	eec7 7a88 	vdiv.f32	s15, s15, s16
 800a10c:	edc4 7a02 	vstr	s15, [r4, #8]
 800a110:	f006 f800 	bl	8010114 <rand>
 800a114:	ee07 0a90 	vmov	s15, r0
 800a118:	eef8 7ae7 	vcvt.f32.s32	s15, s15
 800a11c:	eeb0 0a68 	vmov.f32	s0, s17
 800a120:	ee67 7a89 	vmul.f32	s15, s15, s18
 800a124:	eea7 0a88 	vfma.f32	s0, s15, s16
 800a128:	f004 f8c2 	bl	800e2b0 <lrintf>
 800a12c:	b2c0      	uxtb	r0, r0
 800a12e:	ee07 0a90 	vmov	s15, r0
 800a132:	eefa 7aef 	vcvt.f32.s32	s15, s15, #1
 800a136:	ed94 7a02 	vldr	s14, [r4, #8]
 800a13a:	eec7 7a88 	vdiv.f32	s15, s15, s16
 800a13e:	ee37 ba8b 	vadd.f32	s22, s15, s22
 800a142:	ee6b aa2a 	vmul.f32	s21, s22, s21
 800a146:	eec7 aa2a 	vdiv.f32	s21, s14, s21
 800a14a:	edc4 aa03 	vstr	s21, [r4, #12]
 800a14e:	f005 ffe1 	bl	8010114 <rand>
 800a152:	ee07 0a90 	vmov	s15, r0
 800a156:	eef8 7ae7 	vcvt.f32.s32	s15, s15
 800a15a:	eeb0 0a68 	vmov.f32	s0, s17
 800a15e:	ee67 7a89 	vmul.f32	s15, s15, s18
 800a162:	eea7 0a88 	vfma.f32	s0, s15, s16
 800a166:	f004 f8a3 	bl	800e2b0 <lrintf>
 800a16a:	b2c0      	uxtb	r0, r0
 800a16c:	ee07 0a90 	vmov	s15, r0
 800a170:	ed9f 7a4d 	vldr	s14, [pc, #308]	; 800a2a8 <MagicPatch.part.2.lto_priv.141+0x8b8>
 800a174:	eef8 7ae7 	vcvt.f32.s32	s15, s15
 800a178:	ee67 7a87 	vmul.f32	s15, s15, s14
 800a17c:	edc6 7a00 	vstr	s15, [r6]
 800a180:	f005 ffc8 	bl	8010114 <rand>
 800a184:	ee07 0a90 	vmov	s15, r0
 800a188:	eef8 7ae7 	vcvt.f32.s32	s15, s15
 800a18c:	eeb0 0a68 	vmov.f32	s0, s17
 800a190:	ee67 7a89 	vmul.f32	s15, s15, s18
 800a194:	eea7 0a88 	vfma.f32	s0, s15, s16
 800a198:	f004 f88a 	bl	800e2b0 <lrintf>
 800a19c:	b2c0      	uxtb	r0, r0
 800a19e:	ee07 0a90 	vmov	s15, r0
 800a1a2:	eef8 7ae7 	vcvt.f32.s32	s15, s15
 800a1a6:	ee67 7a8a 	vmul.f32	s15, s15, s20
 800a1aa:	edc6 7a02 	vstr	s15, [r6, #8]
 800a1ae:	f005 ffb1 	bl	8010114 <rand>
 800a1b2:	ee07 0a90 	vmov	s15, r0
 800a1b6:	eef8 7ae7 	vcvt.f32.s32	s15, s15
 800a1ba:	eeb0 0a68 	vmov.f32	s0, s17
 800a1be:	ee67 7a89 	vmul.f32	s15, s15, s18
 800a1c2:	eea7 0a88 	vfma.f32	s0, s15, s16
 800a1c6:	f004 f873 	bl	800e2b0 <lrintf>
 800a1ca:	b2c0      	uxtb	r0, r0
 800a1cc:	ee07 0a90 	vmov	s15, r0
 800a1d0:	eef8 7ae7 	vcvt.f32.s32	s15, s15
 800a1d4:	eec7 7a88 	vdiv.f32	s15, s15, s16
 800a1d8:	edc5 7a00 	vstr	s15, [r5]
 800a1dc:	f005 ff9a 	bl	8010114 <rand>
 800a1e0:	ee07 0a90 	vmov	s15, r0
 800a1e4:	eef8 7ae7 	vcvt.f32.s32	s15, s15
 800a1e8:	eeb0 0a68 	vmov.f32	s0, s17
 800a1ec:	ee27 9a89 	vmul.f32	s18, s15, s18
 800a1f0:	eea9 0a08 	vfma.f32	s0, s18, s16
 800a1f4:	f004 f85c 	bl	800e2b0 <lrintf>
 800a1f8:	b2c0      	uxtb	r0, r0
 800a1fa:	ee07 0a90 	vmov	s15, r0
 800a1fe:	eef8 7ae7 	vcvt.f32.s32	s15, s15
 800a202:	ee27 aa8a 	vmul.f32	s20, s15, s20
 800a206:	ed85 aa02 	vstr	s20, [r5, #8]
 800a20a:	b002      	add	sp, #8
 800a20c:	ecbd 8b08 	vpop	{d8-d11}
 800a210:	e8bd 81f0 	ldmia.w	sp!, {r4, r5, r6, r7, r8, pc}
 800a214:	73be      	strb	r6, [r7, #14]
 800a216:	e495      	b.n	8009b44 <MagicPatch.part.2.lto_priv.141+0x154>
 800a218:	eef6 7a00 	vmov.f32	s15, #96	; 0x60
 800a21c:	ee20 0a27 	vmul.f32	s0, s0, s15
 800a220:	eddf 6a23 	vldr	s13, [pc, #140]	; 800a2b0 <MagicPatch.part.2.lto_priv.141+0x8c0>
 800a224:	ee60 6a26 	vmul.f32	s13, s0, s13
 800a228:	eef9 7a04 	vmov.f32	s15, #148	; 0x94
 800a22c:	ee36 6aa6 	vadd.f32	s12, s13, s13
 800a230:	ee26 7aa6 	vmul.f32	s14, s13, s13
 800a234:	eee6 7a86 	vfma.f32	s15, s13, s12
 800a238:	eeb0 6a67 	vmov.f32	s12, s15
 800a23c:	ee66 7a87 	vmul.f32	s15, s13, s14
 800a240:	eeba 7a0e 	vmov.f32	s14, #174	; 0xae
 800a244:	eee6 7a87 	vfma.f32	s15, s13, s14
 800a248:	eeb0 7a67 	vmov.f32	s14, s15
 800a24c:	eef0 7a08 	vmov.f32	s15, #8
 800a250:	ee66 7a27 	vmul.f32	s15, s12, s15
 800a254:	eec7 7a27 	vdiv.f32	s15, s14, s15
 800a258:	e64c      	b.n	8009ef4 <MagicPatch.part.2.lto_priv.141+0x504>
 800a25a:	bf00      	nop
 800a25c:	2001f0c0 	.word	0x2001f0c0
 800a260:	42a00000 	.word	0x42a00000
 800a264:	472c4400 	.word	0x472c4400
 800a268:	3f733333 	.word	0x3f733333
 800a26c:	413a1203 	.word	0x413a1203
 800a270:	3ef33333 	.word	0x3ef33333
 800a274:	30000000 	.word	0x30000000
 800a278:	00000000 	.word	0x00000000
 800a27c:	1000125c 	.word	0x1000125c
 800a280:	3dc18306 	.word	0x3dc18306
 800a284:	38d1b717 	.word	0x38d1b717
 800a288:	1000009c 	.word	0x1000009c
 800a28c:	100000f4 	.word	0x100000f4
 800a290:	10001218 	.word	0x10001218
 800a294:	3c23d70a 	.word	0x3c23d70a
 800a298:	3e810204 	.word	0x3e810204
 800a29c:	100000c4 	.word	0x100000c4
 800a2a0:	414b3333 	.word	0x414b3333
 800a2a4:	3e4ccccd 	.word	0x3e4ccccd
 800a2a8:	3b810204 	.word	0x3b810204
 800a2ac:	1000127c 	.word	0x1000127c
 800a2b0:	40490fdb 	.word	0x40490fdb
 800a2b4:	42fe0000 	.word	0x42fe0000
 800a2b8:	eef6 7a00 	vmov.f32	s15, #96	; 0x60
 800a2bc:	ee20 0a27 	vmul.f32	s0, s0, s15
 800a2c0:	ed5f 6a05 	vldr	s13, [pc, #-20]	; 800a2b0 <MagicPatch.part.2.lto_priv.141+0x8c0>
 800a2c4:	ee60 6a26 	vmul.f32	s13, s0, s13
 800a2c8:	eef9 7a04 	vmov.f32	s15, #148	; 0x94
 800a2cc:	ee36 6aa6 	vadd.f32	s12, s13, s13
 800a2d0:	ee26 7aa6 	vmul.f32	s14, s13, s13
 800a2d4:	eee6 7a26 	vfma.f32	s15, s12, s13
 800a2d8:	eeb0 6a67 	vmov.f32	s12, s15
 800a2dc:	ee67 7a26 	vmul.f32	s15, s14, s13
 800a2e0:	eeba 7a0e 	vmov.f32	s14, #174	; 0xae
 800a2e4:	eee6 7a87 	vfma.f32	s15, s13, s14
 800a2e8:	eeb0 7a67 	vmov.f32	s14, s15
 800a2ec:	eef0 7a08 	vmov.f32	s15, #8
 800a2f0:	ee66 7a27 	vmul.f32	s15, s12, s15
 800a2f4:	eec7 7a27 	vdiv.f32	s15, s14, s15
 800a2f8:	e4f0      	b.n	8009cdc <MagicPatch.part.2.lto_priv.141+0x2ec>
 800a2fa:	73b8      	strb	r0, [r7, #14]
 800a2fc:	e422      	b.n	8009b44 <MagicPatch.part.2.lto_priv.141+0x154>
 800a2fe:	f005 ff09 	bl	8010114 <rand>
 800a302:	ee07 0a90 	vmov	s15, r0
 800a306:	eef8 7ae7 	vcvt.f32.s32	s15, s15
 800a30a:	ed1f 8a16 	vldr	s16, [pc, #-88]	; 800a2b4 <MagicPatch.part.2.lto_priv.141+0x8c4>
 800a30e:	4fbd      	ldr	r7, [pc, #756]	; (800a604 <MagicPatch.part.2.lto_priv.141+0xc14>)
 800a310:	eddf 8abd 	vldr	s17, [pc, #756]	; 800a608 <MagicPatch.part.2.lto_priv.141+0xc18>
 800a314:	ed9f aabd 	vldr	s20, [pc, #756]	; 800a60c <MagicPatch.part.2.lto_priv.141+0xc1c>
 800a318:	4ebd      	ldr	r6, [pc, #756]	; (800a610 <MagicPatch.part.2.lto_priv.141+0xc20>)
 800a31a:	4dbe      	ldr	r5, [pc, #760]	; (800a614 <MagicPatch.part.2.lto_priv.141+0xc24>)
 800a31c:	4cbe      	ldr	r4, [pc, #760]	; (800a618 <MagicPatch.part.2.lto_priv.141+0xc28>)
 800a31e:	ee67 7aa9 	vmul.f32	s15, s15, s19
 800a322:	eeb0 0a49 	vmov.f32	s0, s18
 800a326:	eea7 0a88 	vfma.f32	s0, s15, s16
 800a32a:	f003 ffc1 	bl	800e2b0 <lrintf>
 800a32e:	b2c0      	uxtb	r0, r0
 800a330:	ee07 0a90 	vmov	s15, r0
 800a334:	eef8 0ae7 	vcvt.f32.s32	s1, s15
 800a338:	ed9f 0ab8 	vldr	s0, [pc, #736]	; 800a61c <MagicPatch.part.2.lto_priv.141+0xc2c>
 800a33c:	eec0 0a88 	vdiv.f32	s1, s1, s16
 800a340:	f004 f8a2 	bl	800e488 <powf>
 800a344:	eef6 7a00 	vmov.f32	s15, #96	; 0x60
 800a348:	ee20 0a27 	vmul.f32	s0, s0, s15
 800a34c:	ed87 0a02 	vstr	s0, [r7, #8]
 800a350:	f005 fee0 	bl	8010114 <rand>
 800a354:	ee07 0a90 	vmov	s15, r0
 800a358:	eef8 7ae7 	vcvt.f32.s32	s15, s15
 800a35c:	eeb0 0a49 	vmov.f32	s0, s18
 800a360:	ee67 7aa9 	vmul.f32	s15, s15, s19
 800a364:	eea7 0a88 	vfma.f32	s0, s15, s16
 800a368:	f003 ffa2 	bl	800e2b0 <lrintf>
 800a36c:	b2c0      	uxtb	r0, r0
 800a36e:	ee07 0a90 	vmov	s15, r0
 800a372:	eef8 7ae7 	vcvt.f32.s32	s15, s15
 800a376:	ee67 7aa8 	vmul.f32	s15, s15, s17
 800a37a:	eec7 7a88 	vdiv.f32	s15, s15, s16
 800a37e:	ee67 7aa7 	vmul.f32	s15, s15, s15
 800a382:	edc7 7a05 	vstr	s15, [r7, #20]
 800a386:	f005 fec5 	bl	8010114 <rand>
 800a38a:	ee07 0a90 	vmov	s15, r0
 800a38e:	eef8 7ae7 	vcvt.f32.s32	s15, s15
 800a392:	eeb0 0a49 	vmov.f32	s0, s18
 800a396:	ee67 7aa9 	vmul.f32	s15, s15, s19
 800a39a:	eea7 0a88 	vfma.f32	s0, s15, s16
 800a39e:	f003 ff87 	bl	800e2b0 <lrintf>
 800a3a2:	b2c0      	uxtb	r0, r0
 800a3a4:	ee07 0a90 	vmov	s15, r0
 800a3a8:	eef8 0ae7 	vcvt.f32.s32	s1, s15
 800a3ac:	ed9f 0a9c 	vldr	s0, [pc, #624]	; 800a620 <MagicPatch.part.2.lto_priv.141+0xc30>
 800a3b0:	eec0 0a88 	vdiv.f32	s1, s1, s16
 800a3b4:	f004 f868 	bl	800e488 <powf>
 800a3b8:	ee20 0a0a 	vmul.f32	s0, s0, s20
 800a3bc:	ed86 0a06 	vstr	s0, [r6, #24]
 800a3c0:	f005 fea8 	bl	8010114 <rand>
 800a3c4:	ee07 0a90 	vmov	s15, r0
 800a3c8:	eef8 7ae7 	vcvt.f32.s32	s15, s15
 800a3cc:	eeb0 0a49 	vmov.f32	s0, s18
 800a3d0:	ee67 7aa9 	vmul.f32	s15, s15, s19
 800a3d4:	eea7 0a88 	vfma.f32	s0, s15, s16
 800a3d8:	f003 ff6a 	bl	800e2b0 <lrintf>
 800a3dc:	b2c0      	uxtb	r0, r0
 800a3de:	ee07 0a90 	vmov	s15, r0
 800a3e2:	eef8 7ae7 	vcvt.f32.s32	s15, s15
 800a3e6:	ee67 7aa8 	vmul.f32	s15, s15, s17
 800a3ea:	eec7 7a88 	vdiv.f32	s15, s15, s16
 800a3ee:	ee67 7aa7 	vmul.f32	s15, s15, s15
 800a3f2:	edc6 7a05 	vstr	s15, [r6, #20]
 800a3f6:	f005 fe8d 	bl	8010114 <rand>
 800a3fa:	ee07 0a90 	vmov	s15, r0
 800a3fe:	eef8 7ae7 	vcvt.f32.s32	s15, s15
 800a402:	eeb0 0a49 	vmov.f32	s0, s18
 800a406:	ee67 7aa9 	vmul.f32	s15, s15, s19
 800a40a:	eea7 0a88 	vfma.f32	s0, s15, s16
 800a40e:	f003 ff4f 	bl	800e2b0 <lrintf>
 800a412:	b2c0      	uxtb	r0, r0
 800a414:	ee07 0a90 	vmov	s15, r0
 800a418:	eef8 0ae7 	vcvt.f32.s32	s1, s15
 800a41c:	ed9f 0a80 	vldr	s0, [pc, #512]	; 800a620 <MagicPatch.part.2.lto_priv.141+0xc30>
 800a420:	eec0 0a88 	vdiv.f32	s1, s1, s16
 800a424:	f004 f830 	bl	800e488 <powf>
 800a428:	ee20 0a0a 	vmul.f32	s0, s0, s20
 800a42c:	ed85 0a06 	vstr	s0, [r5, #24]
 800a430:	f005 fe70 	bl	8010114 <rand>
 800a434:	ee07 0a90 	vmov	s15, r0
 800a438:	eef8 7ae7 	vcvt.f32.s32	s15, s15
 800a43c:	eeb0 0a49 	vmov.f32	s0, s18
 800a440:	ee67 7aa9 	vmul.f32	s15, s15, s19
 800a444:	eea7 0a88 	vfma.f32	s0, s15, s16
 800a448:	f003 ff32 	bl	800e2b0 <lrintf>
 800a44c:	b2c0      	uxtb	r0, r0
 800a44e:	ee07 0a90 	vmov	s15, r0
 800a452:	eef8 7ae7 	vcvt.f32.s32	s15, s15
 800a456:	ee67 7aa8 	vmul.f32	s15, s15, s17
 800a45a:	eec7 7a88 	vdiv.f32	s15, s15, s16
 800a45e:	ee67 7aa7 	vmul.f32	s15, s15, s15
 800a462:	edc5 7a05 	vstr	s15, [r5, #20]
 800a466:	f005 fe55 	bl	8010114 <rand>
 800a46a:	ee07 0a90 	vmov	s15, r0
 800a46e:	eef8 7ae7 	vcvt.f32.s32	s15, s15
 800a472:	eeb0 0a49 	vmov.f32	s0, s18
 800a476:	ee67 7aa9 	vmul.f32	s15, s15, s19
 800a47a:	eea7 0a88 	vfma.f32	s0, s15, s16
 800a47e:	f003 ff17 	bl	800e2b0 <lrintf>
 800a482:	b2c0      	uxtb	r0, r0
 800a484:	ee07 0a90 	vmov	s15, r0
 800a488:	eef8 0ae7 	vcvt.f32.s32	s1, s15
 800a48c:	ed9f 0a64 	vldr	s0, [pc, #400]	; 800a620 <MagicPatch.part.2.lto_priv.141+0xc30>
 800a490:	eec0 0a88 	vdiv.f32	s1, s1, s16
 800a494:	f003 fff8 	bl	800e488 <powf>
 800a498:	ee20 0a0a 	vmul.f32	s0, s0, s20
 800a49c:	ed84 0a06 	vstr	s0, [r4, #24]
 800a4a0:	f005 fe38 	bl	8010114 <rand>
 800a4a4:	ee07 0a90 	vmov	s15, r0
 800a4a8:	eef8 7ae7 	vcvt.f32.s32	s15, s15
 800a4ac:	eeb0 0a49 	vmov.f32	s0, s18
 800a4b0:	ee67 9aa9 	vmul.f32	s19, s15, s19
 800a4b4:	eea9 0a88 	vfma.f32	s0, s19, s16
 800a4b8:	f003 fefa 	bl	800e2b0 <lrintf>
 800a4bc:	b2c0      	uxtb	r0, r0
 800a4be:	ee07 0a90 	vmov	s15, r0
 800a4c2:	eef8 7ae7 	vcvt.f32.s32	s15, s15
 800a4c6:	ee67 7aa8 	vmul.f32	s15, s15, s17
 800a4ca:	ee87 8a88 	vdiv.f32	s16, s15, s16
 800a4ce:	ee28 8a08 	vmul.f32	s16, s16, s16
 800a4d2:	ed84 8a05 	vstr	s16, [r4, #20]
 800a4d6:	f7ff bbd1 	b.w	8009c7c <MagicPatch.part.2.lto_priv.141+0x28c>
 800a4da:	f005 fe1b 	bl	8010114 <rand>
 800a4de:	ee07 0a90 	vmov	s15, r0
 800a4e2:	eef8 7ae7 	vcvt.f32.s32	s15, s15
 800a4e6:	eddf 8a4f 	vldr	s17, [pc, #316]	; 800a624 <MagicPatch.part.2.lto_priv.141+0xc34>
 800a4ea:	4c4f      	ldr	r4, [pc, #316]	; (800a628 <MagicPatch.part.2.lto_priv.141+0xc38>)
 800a4ec:	4e4f      	ldr	r6, [pc, #316]	; (800a62c <MagicPatch.part.2.lto_priv.141+0xc3c>)
 800a4ee:	4d50      	ldr	r5, [pc, #320]	; (800a630 <MagicPatch.part.2.lto_priv.141+0xc40>)
 800a4f0:	ee67 7aa9 	vmul.f32	s15, s15, s19
 800a4f4:	eeb0 0a49 	vmov.f32	s0, s18
 800a4f8:	eea7 0aa8 	vfma.f32	s0, s15, s17
 800a4fc:	f003 fed8 	bl	800e2b0 <lrintf>
 800a500:	b2c0      	uxtb	r0, r0
 800a502:	ee07 0a90 	vmov	s15, r0
 800a506:	eef8 7ae7 	vcvt.f32.s32	s15, s15
 800a50a:	eec7 7aa8 	vdiv.f32	s15, s15, s17
 800a50e:	ee67 7aa7 	vmul.f32	s15, s15, s15
 800a512:	edc6 7a02 	vstr	s15, [r6, #8]
 800a516:	edc5 7a02 	vstr	s15, [r5, #8]
 800a51a:	edc4 7a02 	vstr	s15, [r4, #8]
 800a51e:	f005 fdf9 	bl	8010114 <rand>
 800a522:	ee07 0a90 	vmov	s15, r0
 800a526:	eef8 7ae7 	vcvt.f32.s32	s15, s15
 800a52a:	eeb0 0a49 	vmov.f32	s0, s18
 800a52e:	ee67 7aa9 	vmul.f32	s15, s15, s19
 800a532:	eea7 0aa8 	vfma.f32	s0, s15, s17
 800a536:	f003 febb 	bl	800e2b0 <lrintf>
 800a53a:	2332      	movs	r3, #50	; 0x32
 800a53c:	b2c0      	uxtb	r0, r0
 800a53e:	fb03 f300 	mul.w	r3, r3, r0
 800a542:	ee07 3a90 	vmov	s15, r3
 800a546:	eef8 7ae7 	vcvt.f32.s32	s15, s15
 800a54a:	ed9f 7a3a 	vldr	s14, [pc, #232]	; 800a634 <MagicPatch.part.2.lto_priv.141+0xc44>
 800a54e:	eec7 7aa8 	vdiv.f32	s15, s15, s17
 800a552:	ee77 7a87 	vadd.f32	s15, s15, s14
 800a556:	edc6 7a01 	vstr	s15, [r6, #4]
 800a55a:	edc5 7a01 	vstr	s15, [r5, #4]
 800a55e:	edc4 7a01 	vstr	s15, [r4, #4]
 800a562:	f005 fdd7 	bl	8010114 <rand>
 800a566:	ee07 0a90 	vmov	s15, r0
 800a56a:	eef8 7ae7 	vcvt.f32.s32	s15, s15
 800a56e:	eeb0 0a49 	vmov.f32	s0, s18
 800a572:	ee67 9aa9 	vmul.f32	s19, s15, s19
 800a576:	eea9 0aa8 	vfma.f32	s0, s19, s17
 800a57a:	f003 fe99 	bl	800e2b0 <lrintf>
 800a57e:	b2c0      	uxtb	r0, r0
 800a580:	eb00 03c0 	add.w	r3, r0, r0, lsl #3
 800a584:	eb00 0343 	add.w	r3, r0, r3, lsl #1
 800a588:	ee07 3a90 	vmov	s15, r3
 800a58c:	eef8 7ae7 	vcvt.f32.s32	s15, s15
 800a590:	edd4 6a01 	vldr	s13, [r4, #4]
 800a594:	ed9f 7a28 	vldr	s14, [pc, #160]	; 800a638 <MagicPatch.part.2.lto_priv.141+0xc48>
 800a598:	eec7 7aa8 	vdiv.f32	s15, s15, s17
 800a59c:	ee77 7a88 	vadd.f32	s15, s15, s16
 800a5a0:	ee67 7aa6 	vmul.f32	s15, s15, s13
 800a5a4:	eef4 7ac7 	vcmpe.f32	s15, s14
 800a5a8:	eef1 fa10 	vmrs	APSR_nzcv, fpscr
 800a5ac:	dc23      	bgt.n	800a5f6 <MagicPatch.part.2.lto_priv.141+0xc06>
 800a5ae:	edc6 7a00 	vstr	s15, [r6]
 800a5b2:	edc5 7a00 	vstr	s15, [r5]
 800a5b6:	edc4 7a00 	vstr	s15, [r4]
 800a5ba:	f005 fdab 	bl	8010114 <rand>
 800a5be:	ee07 0a90 	vmov	s15, r0
 800a5c2:	ed9f 8a18 	vldr	s16, [pc, #96]	; 800a624 <MagicPatch.part.2.lto_priv.141+0xc34>
 800a5c6:	ed9f 0a1d 	vldr	s0, [pc, #116]	; 800a63c <MagicPatch.part.2.lto_priv.141+0xc4c>
 800a5ca:	eefa 7ae0 	vcvt.f32.s32	s15, s15, #31
 800a5ce:	eea7 0a88 	vfma.f32	s0, s15, s16
 800a5d2:	f003 fe6d 	bl	800e2b0 <lrintf>
 800a5d6:	b2c0      	uxtb	r0, r0
 800a5d8:	ee07 0a90 	vmov	s15, r0
 800a5dc:	eef8 0ae7 	vcvt.f32.s32	s1, s15
 800a5e0:	ed9f 0a17 	vldr	s0, [pc, #92]	; 800a640 <MagicPatch.part.2.lto_priv.141+0xc50>
 800a5e4:	eec0 0a88 	vdiv.f32	s1, s1, s16
 800a5e8:	f003 ff4e 	bl	800e488 <powf>
 800a5ec:	4b15      	ldr	r3, [pc, #84]	; (800a644 <MagicPatch.part.2.lto_priv.141+0xc54>)
 800a5ee:	ed83 0a00 	vstr	s0, [r3]
 800a5f2:	f7ff bb43 	b.w	8009c7c <MagicPatch.part.2.lto_priv.141+0x28c>
 800a5f6:	ed86 7a00 	vstr	s14, [r6]
 800a5fa:	ed85 7a00 	vstr	s14, [r5]
 800a5fe:	ed84 7a00 	vstr	s14, [r4]
 800a602:	e7da      	b.n	800a5ba <MagicPatch.part.2.lto_priv.141+0xbca>
 800a604:	10000114 	.word	0x10000114
 800a608:	3fb33333 	.word	0x3fb33333
 800a60c:	3e4ccccd 	.word	0x3e4ccccd
 800a610:	10000be8 	.word	0x10000be8
 800a614:	10000c08 	.word	0x10000c08
 800a618:	10000cac 	.word	0x10000cac
 800a61c:	467a0000 	.word	0x467a0000
 800a620:	43200000 	.word	0x43200000
 800a624:	42fe0000 	.word	0x42fe0000
 800a628:	10000c28 	.word	0x10000c28
 800a62c:	10000c80 	.word	0x10000c80
 800a630:	10000c54 	.word	0x10000c54
 800a634:	3dcccccd 	.word	0x3dcccccd
 800a638:	461c4000 	.word	0x461c4000
 800a63c:	00000000 	.word	0x00000000
 800a640:	45bb8000 	.word	0x45bb8000
 800a644:	20000054 	.word	0x20000054

0800a648 <TIM4_IRQHandler>:
TIM4_IRQHandler():
 800a648:	4770      	bx	lr
 800a64a:	bf00      	nop

0800a64c <DMA1_Stream3_IRQHandler>:
DMA1_Stream3_IRQHandler():
 800a64c:	2000      	movs	r0, #0
 800a64e:	f7fd baf7 	b.w	8007c40 <HAL_DMA_IRQHandler>
 800a652:	bf00      	nop

0800a654 <DMA1_Stream7_IRQHandler>:
DMA1_Stream7_IRQHandler():
 800a654:	4b01      	ldr	r3, [pc, #4]	; (800a65c <DMA1_Stream7_IRQHandler+0x8>)
 800a656:	6b58      	ldr	r0, [r3, #52]	; 0x34
 800a658:	f7fd baf2 	b.w	8007c40 <HAL_DMA_IRQHandler>
 800a65c:	20001900 	.word	0x20001900

0800a660 <EXTI1_IRQHandler>:
EXTI1_IRQHandler():
 800a660:	4b03      	ldr	r3, [pc, #12]	; (800a670 <EXTI1_IRQHandler+0x10>)
 800a662:	695a      	ldr	r2, [r3, #20]
 800a664:	0792      	lsls	r2, r2, #30
 800a666:	bf44      	itt	mi
 800a668:	2202      	movmi	r2, #2
 800a66a:	615a      	strmi	r2, [r3, #20]
 800a66c:	4770      	bx	lr
 800a66e:	bf00      	nop
 800a670:	40013c00 	.word	0x40013c00

0800a674 <EXTI0_IRQHandler>:
EXTI0_IRQHandler():
 800a674:	4b03      	ldr	r3, [pc, #12]	; (800a684 <EXTI0_IRQHandler+0x10>)
 800a676:	695a      	ldr	r2, [r3, #20]
 800a678:	07d2      	lsls	r2, r2, #31
 800a67a:	bf44      	itt	mi
 800a67c:	2201      	movmi	r2, #1
 800a67e:	615a      	strmi	r2, [r3, #20]
 800a680:	4770      	bx	lr
 800a682:	bf00      	nop
 800a684:	40013c00 	.word	0x40013c00

0800a688 <SysTick_Handler>:
SysTick_Handler():
 800a688:	4926      	ldr	r1, [pc, #152]	; (800a724 <SysTick_Handler+0x9c>)
 800a68a:	4827      	ldr	r0, [pc, #156]	; (800a728 <SysTick_Handler+0xa0>)
 800a68c:	680b      	ldr	r3, [r1, #0]
 800a68e:	6802      	ldr	r2, [r0, #0]
 800a690:	3301      	adds	r3, #1
 800a692:	600b      	str	r3, [r1, #0]
 800a694:	b10a      	cbz	r2, 800a69a <SysTick_Handler+0x12>
 800a696:	3a01      	subs	r2, #1
 800a698:	6002      	str	r2, [r0, #0]
 800a69a:	4a24      	ldr	r2, [pc, #144]	; (800a72c <SysTick_Handler+0xa4>)
 800a69c:	6813      	ldr	r3, [r2, #0]
 800a69e:	b10b      	cbz	r3, 800a6a4 <SysTick_Handler+0x1c>
 800a6a0:	3b01      	subs	r3, #1
 800a6a2:	6013      	str	r3, [r2, #0]
 800a6a4:	4a22      	ldr	r2, [pc, #136]	; (800a730 <SysTick_Handler+0xa8>)
 800a6a6:	6813      	ldr	r3, [r2, #0]
 800a6a8:	3b01      	subs	r3, #1
 800a6aa:	6013      	str	r3, [r2, #0]
 800a6ac:	b923      	cbnz	r3, 800a6b8 <SysTick_Handler+0x30>
 800a6ae:	4b21      	ldr	r3, [pc, #132]	; (800a734 <SysTick_Handler+0xac>)
 800a6b0:	68db      	ldr	r3, [r3, #12]
 800a6b2:	f44f 4200 	mov.w	r2, #32768	; 0x8000
 800a6b6:	835a      	strh	r2, [r3, #26]
 800a6b8:	4b1f      	ldr	r3, [pc, #124]	; (800a738 <SysTick_Handler+0xb0>)
 800a6ba:	781b      	ldrb	r3, [r3, #0]
 800a6bc:	b903      	cbnz	r3, 800a6c0 <SysTick_Handler+0x38>
 800a6be:	4770      	bx	lr
 800a6c0:	4b1e      	ldr	r3, [pc, #120]	; (800a73c <SysTick_Handler+0xb4>)
 800a6c2:	481f      	ldr	r0, [pc, #124]	; (800a740 <SysTick_Handler+0xb8>)
 800a6c4:	691b      	ldr	r3, [r3, #16]
 800a6c6:	7802      	ldrb	r2, [r0, #0]
 800a6c8:	491e      	ldr	r1, [pc, #120]	; (800a744 <SysTick_Handler+0xbc>)
 800a6ca:	f003 0301 	and.w	r3, r3, #1
 800a6ce:	429a      	cmp	r2, r3
 800a6d0:	d011      	beq.n	800a6f6 <SysTick_Handler+0x6e>
 800a6d2:	780a      	ldrb	r2, [r1, #0]
 800a6d4:	3a01      	subs	r2, #1
 800a6d6:	b2d2      	uxtb	r2, r2
 800a6d8:	700a      	strb	r2, [r1, #0]
 800a6da:	2a00      	cmp	r2, #0
 800a6dc:	d1ef      	bne.n	800a6be <SysTick_Handler+0x36>
 800a6de:	b430      	push	{r4, r5}
 800a6e0:	4d19      	ldr	r5, [pc, #100]	; (800a748 <SysTick_Handler+0xc0>)
 800a6e2:	4c1a      	ldr	r4, [pc, #104]	; (800a74c <SysTick_Handler+0xc4>)
 800a6e4:	7003      	strb	r3, [r0, #0]
 800a6e6:	2001      	movs	r0, #1
 800a6e8:	7028      	strb	r0, [r5, #0]
 800a6ea:	7023      	strb	r3, [r4, #0]
 800a6ec:	b933      	cbnz	r3, 800a6fc <SysTick_Handler+0x74>
 800a6ee:	2305      	movs	r3, #5
 800a6f0:	700b      	strb	r3, [r1, #0]
 800a6f2:	bc30      	pop	{r4, r5}
 800a6f4:	4770      	bx	lr
 800a6f6:	2305      	movs	r3, #5
 800a6f8:	700b      	strb	r3, [r1, #0]
 800a6fa:	4770      	bx	lr
 800a6fc:	4b14      	ldr	r3, [pc, #80]	; (800a750 <SysTick_Handler+0xc8>)
 800a6fe:	781c      	ldrb	r4, [r3, #0]
 800a700:	2505      	movs	r5, #5
 800a702:	700d      	strb	r5, [r1, #0]
 800a704:	b134      	cbz	r4, 800a714 <SysTick_Handler+0x8c>
 800a706:	490b      	ldr	r1, [pc, #44]	; (800a734 <SysTick_Handler+0xac>)
 800a708:	701a      	strb	r2, [r3, #0]
 800a70a:	688b      	ldr	r3, [r1, #8]
 800a70c:	f44f 4280 	mov.w	r2, #16384	; 0x4000
 800a710:	835a      	strh	r2, [r3, #26]
 800a712:	e7ee      	b.n	800a6f2 <SysTick_Handler+0x6a>
 800a714:	4a07      	ldr	r2, [pc, #28]	; (800a734 <SysTick_Handler+0xac>)
 800a716:	7018      	strb	r0, [r3, #0]
 800a718:	6893      	ldr	r3, [r2, #8]
 800a71a:	f44f 4280 	mov.w	r2, #16384	; 0x4000
 800a71e:	831a      	strh	r2, [r3, #24]
 800a720:	e7e7      	b.n	800a6f2 <SysTick_Handler+0x6a>
 800a722:	bf00      	nop
 800a724:	2001f734 	.word	0x2001f734
 800a728:	2001f114 	.word	0x2001f114
 800a72c:	2001f108 	.word	0x2001f108
 800a730:	2001f10c 	.word	0x2001f10c
 800a734:	20000064 	.word	0x20000064
 800a738:	2000004c 	.word	0x2000004c
 800a73c:	40020000 	.word	0x40020000
 800a740:	2001f110 	.word	0x2001f110
 800a744:	2000005e 	.word	0x2000005e
 800a748:	2001f111 	.word	0x2001f111
 800a74c:	2001f112 	.word	0x2001f112
 800a750:	2001f104 	.word	0x2001f104

0800a754 <OTG_FS_IRQHandler>:
OTG_FS_IRQHandler():
 800a754:	e92d 4ff0 	stmdb	sp!, {r4, r5, r6, r7, r8, r9, sl, fp, lr}
 800a758:	4dab      	ldr	r5, [pc, #684]	; (800aa08 <OTG_FS_IRQHandler+0x2b4>)
 800a75a:	682c      	ldr	r4, [r5, #0]
 800a75c:	6963      	ldr	r3, [r4, #20]
 800a75e:	07d9      	lsls	r1, r3, #31
 800a760:	b089      	sub	sp, #36	; 0x24
 800a762:	d402      	bmi.n	800a76a <OTG_FS_IRQHandler+0x16>
 800a764:	b009      	add	sp, #36	; 0x24
 800a766:	e8bd 8ff0 	ldmia.w	sp!, {r4, r5, r6, r7, r8, r9, sl, fp, pc}
 800a76a:	6963      	ldr	r3, [r4, #20]
 800a76c:	69a2      	ldr	r2, [r4, #24]
 800a76e:	421a      	tst	r2, r3
 800a770:	d0f8      	beq.n	800a764 <OTG_FS_IRQHandler+0x10>
 800a772:	6962      	ldr	r2, [r4, #20]
 800a774:	69a3      	ldr	r3, [r4, #24]
 800a776:	4013      	ands	r3, r2
 800a778:	029a      	lsls	r2, r3, #10
 800a77a:	bf44      	itt	mi
 800a77c:	f44f 1300 	movmi.w	r3, #2097152	; 0x200000
 800a780:	6163      	strmi	r3, [r4, #20]
 800a782:	6962      	ldr	r2, [r4, #20]
 800a784:	69a3      	ldr	r3, [r4, #24]
 800a786:	4013      	ands	r3, r2
 800a788:	02db      	lsls	r3, r3, #11
 800a78a:	bf44      	itt	mi
 800a78c:	f44f 1380 	movmi.w	r3, #1048576	; 0x100000
 800a790:	6163      	strmi	r3, [r4, #20]
 800a792:	6962      	ldr	r2, [r4, #20]
 800a794:	69a3      	ldr	r3, [r4, #24]
 800a796:	4013      	ands	r3, r2
 800a798:	015f      	lsls	r7, r3, #5
 800a79a:	bf44      	itt	mi
 800a79c:	f04f 6380 	movmi.w	r3, #67108864	; 0x4000000
 800a7a0:	6163      	strmi	r3, [r4, #20]
 800a7a2:	6962      	ldr	r2, [r4, #20]
 800a7a4:	69a3      	ldr	r3, [r4, #24]
 800a7a6:	4013      	ands	r3, r2
 800a7a8:	079e      	lsls	r6, r3, #30
 800a7aa:	bf44      	itt	mi
 800a7ac:	2302      	movmi	r3, #2
 800a7ae:	6163      	strmi	r3, [r4, #20]
 800a7b0:	6962      	ldr	r2, [r4, #20]
 800a7b2:	69a3      	ldr	r3, [r4, #24]
 800a7b4:	4013      	ands	r3, r2
 800a7b6:	0098      	lsls	r0, r3, #2
 800a7b8:	f100 817c 	bmi.w	800aab4 <OTG_FS_IRQHandler+0x360>
 800a7bc:	4626      	mov	r6, r4
 800a7be:	6972      	ldr	r2, [r6, #20]
 800a7c0:	69b3      	ldr	r3, [r6, #24]
 800a7c2:	4013      	ands	r3, r2
 800a7c4:	01df      	lsls	r7, r3, #7
 800a7c6:	f100 8123 	bmi.w	800aa10 <OTG_FS_IRQHandler+0x2bc>
 800a7ca:	6972      	ldr	r2, [r6, #20]
 800a7cc:	69b3      	ldr	r3, [r6, #24]
 800a7ce:	4013      	ands	r3, r2
 800a7d0:	0718      	lsls	r0, r3, #28
 800a7d2:	f100 81c3 	bmi.w	800ab5c <OTG_FS_IRQHandler+0x408>
 800a7d6:	6972      	ldr	r2, [r6, #20]
 800a7d8:	69b3      	ldr	r3, [r6, #24]
 800a7da:	4013      	ands	r3, r2
 800a7dc:	0199      	lsls	r1, r3, #6
 800a7de:	d451      	bmi.n	800a884 <OTG_FS_IRQHandler+0x130>
 800a7e0:	6972      	ldr	r2, [r6, #20]
 800a7e2:	69b3      	ldr	r3, [r6, #24]
 800a7e4:	4013      	ands	r3, r2
 800a7e6:	06db      	lsls	r3, r3, #27
 800a7e8:	d5bc      	bpl.n	800a764 <OTG_FS_IRQHandler+0x10>
 800a7ea:	69b3      	ldr	r3, [r6, #24]
 800a7ec:	f023 0310 	bic.w	r3, r3, #16
 800a7f0:	61b3      	str	r3, [r6, #24]
 800a7f2:	6a33      	ldr	r3, [r6, #32]
 800a7f4:	f3c3 4243 	ubfx	r2, r3, #17, #4
 800a7f8:	2a02      	cmp	r2, #2
 800a7fa:	d13e      	bne.n	800a87a <OTG_FS_IRQHandler+0x126>
 800a7fc:	f3c3 1e0a 	ubfx	lr, r3, #4, #11
 800a800:	f1be 0f00 	cmp.w	lr, #0
 800a804:	d039      	beq.n	800a87a <OTG_FS_IRQHandler+0x126>
 800a806:	f003 070f 	and.w	r7, r3, #15
 800a80a:	ea4f 0c87 	mov.w	ip, r7, lsl #2
 800a80e:	eb0c 0307 	add.w	r3, ip, r7
 800a812:	eb05 03c3 	add.w	r3, r5, r3, lsl #3
 800a816:	f8d3 803c 	ldr.w	r8, [r3, #60]	; 0x3c
 800a81a:	f1b8 0f00 	cmp.w	r8, #0
 800a81e:	d02c      	beq.n	800a87a <OTG_FS_IRQHandler+0x126>
 800a820:	f10e 0003 	add.w	r0, lr, #3
 800a824:	1080      	asrs	r0, r0, #2
 800a826:	f506 5480 	add.w	r4, r6, #4096	; 0x1000
 800a82a:	4642      	mov	r2, r8
 800a82c:	2300      	movs	r3, #0
 800a82e:	3301      	adds	r3, #1
 800a830:	6821      	ldr	r1, [r4, #0]
 800a832:	f842 1b04 	str.w	r1, [r2], #4
 800a836:	4298      	cmp	r0, r3
 800a838:	d1f9      	bne.n	800a82e <OTG_FS_IRQHandler+0xda>
 800a83a:	f44f 63a0 	mov.w	r3, #1280	; 0x500
 800a83e:	44bc      	add	ip, r7
 800a840:	eb03 1347 	add.w	r3, r3, r7, lsl #5
 800a844:	eb05 05cc 	add.w	r5, r5, ip, lsl #3
 800a848:	18f2      	adds	r2, r6, r3
 800a84a:	6c68      	ldr	r0, [r5, #68]	; 0x44
 800a84c:	6917      	ldr	r7, [r2, #16]
 800a84e:	496f      	ldr	r1, [pc, #444]	; (800aa0c <OTG_FS_IRQHandler+0x2b8>)
 800a850:	eb08 020e 	add.w	r2, r8, lr
 800a854:	4470      	add	r0, lr
 800a856:	4039      	ands	r1, r7
 800a858:	63ea      	str	r2, [r5, #60]	; 0x3c
 800a85a:	6468      	str	r0, [r5, #68]	; 0x44
 800a85c:	b169      	cbz	r1, 800a87a <OTG_FS_IRQHandler+0x126>
 800a85e:	58f2      	ldr	r2, [r6, r3]
 800a860:	f022 4280 	bic.w	r2, r2, #1073741824	; 0x40000000
 800a864:	50f2      	str	r2, [r6, r3]
 800a866:	58f2      	ldr	r2, [r6, r3]
 800a868:	f042 4200 	orr.w	r2, r2, #2147483648	; 0x80000000
 800a86c:	50f2      	str	r2, [r6, r3]
 800a86e:	f895 3048 	ldrb.w	r3, [r5, #72]	; 0x48
 800a872:	f083 0301 	eor.w	r3, r3, #1
 800a876:	f885 3048 	strb.w	r3, [r5, #72]	; 0x48
 800a87a:	69b3      	ldr	r3, [r6, #24]
 800a87c:	f043 0310 	orr.w	r3, r3, #16
 800a880:	61b3      	str	r3, [r6, #24]
 800a882:	e76f      	b.n	800a764 <OTG_FS_IRQHandler+0x10>
 800a884:	4630      	mov	r0, r6
 800a886:	f001 fd4f 	bl	800c328 <USB_HC_ReadInterrupt>
 800a88a:	495f      	ldr	r1, [pc, #380]	; (800aa08 <OTG_FS_IRQHandler+0x2b4>)
 800a88c:	68ab      	ldr	r3, [r5, #8]
 800a88e:	680e      	ldr	r6, [r1, #0]
 800a890:	4602      	mov	r2, r0
 800a892:	2b00      	cmp	r3, #0
 800a894:	f000 80b4 	beq.w	800aa00 <OTG_FS_IRQHandler+0x2ac>
 800a898:	f504 64a0 	add.w	r4, r4, #1280	; 0x500
 800a89c:	9101      	str	r1, [sp, #4]
 800a89e:	2700      	movs	r7, #0
 800a8a0:	f04f 0b01 	mov.w	fp, #1
 800a8a4:	4630      	mov	r0, r6
 800a8a6:	4692      	mov	sl, r2
 800a8a8:	e054      	b.n	800a954 <OTG_FS_IRQHandler+0x200>
 800a8aa:	fa5f f987 	uxtb.w	r9, r7
 800a8ae:	ea4f 1249 	mov.w	r2, r9, lsl #5
 800a8b2:	f500 6ca0 	add.w	ip, r0, #1280	; 0x500
 800a8b6:	eb0c 0802 	add.w	r8, ip, r2
 800a8ba:	f8d8 3008 	ldr.w	r3, [r8, #8]
 800a8be:	075b      	lsls	r3, r3, #29
 800a8c0:	d570      	bpl.n	800a9a4 <OTG_FS_IRQHandler+0x250>
 800a8c2:	2304      	movs	r3, #4
 800a8c4:	f8c8 3008 	str.w	r3, [r8, #8]
 800a8c8:	f8d8 300c 	ldr.w	r3, [r8, #12]
 800a8cc:	f043 0302 	orr.w	r3, r3, #2
 800a8d0:	f8c8 300c 	str.w	r3, [r8, #12]
 800a8d4:	f8d8 3008 	ldr.w	r3, [r8, #8]
 800a8d8:	059e      	lsls	r6, r3, #22
 800a8da:	f100 81d4 	bmi.w	800ac86 <OTG_FS_IRQHandler+0x532>
 800a8de:	f8d8 3008 	ldr.w	r3, [r8, #8]
 800a8e2:	07d9      	lsls	r1, r3, #31
 800a8e4:	d567      	bpl.n	800a9b6 <OTG_FS_IRQHandler+0x262>
 800a8e6:	692b      	ldr	r3, [r5, #16]
 800a8e8:	ea4f 0689 	mov.w	r6, r9, lsl #2
 800a8ec:	b163      	cbz	r3, 800a908 <OTG_FS_IRQHandler+0x1b4>
 800a8ee:	9b01      	ldr	r3, [sp, #4]
 800a8f0:	eb06 0109 	add.w	r1, r6, r9
 800a8f4:	eb03 01c1 	add.w	r1, r3, r1, lsl #3
 800a8f8:	f8d8 3010 	ldr.w	r3, [r8, #16]
 800a8fc:	f3c3 0e12 	ubfx	lr, r3, #0, #19
 800a900:	6c0b      	ldr	r3, [r1, #64]	; 0x40
 800a902:	ebce 0303 	rsb	r3, lr, r3
 800a906:	644b      	str	r3, [r1, #68]	; 0x44
 800a908:	eb06 0309 	add.w	r3, r6, r9
 800a90c:	eb05 03c3 	add.w	r3, r5, r3, lsl #3
 800a910:	f103 0150 	add.w	r1, r3, #80	; 0x50
 800a914:	f04f 0e00 	mov.w	lr, #0
 800a918:	f8c3 e050 	str.w	lr, [r3, #80]	; 0x50
 800a91c:	f881 b005 	strb.w	fp, [r1, #5]
 800a920:	f8c8 b008 	str.w	fp, [r8, #8]
 800a924:	f893 3037 	ldrb.w	r3, [r3, #55]	; 0x37
 800a928:	f013 0ffd 	tst.w	r3, #253	; 0xfd
 800a92c:	f000 81ea 	beq.w	800ad04 <OTG_FS_IRQHandler+0x5b0>
 800a930:	2b03      	cmp	r3, #3
 800a932:	f000 82e5 	beq.w	800af00 <OTG_FS_IRQHandler+0x7ac>
 800a936:	444e      	add	r6, r9
 800a938:	eb05 06c6 	add.w	r6, r5, r6, lsl #3
 800a93c:	68ab      	ldr	r3, [r5, #8]
 800a93e:	f896 2048 	ldrb.w	r2, [r6, #72]	; 0x48
 800a942:	f082 0201 	eor.w	r2, r2, #1
 800a946:	f886 2048 	strb.w	r2, [r6, #72]	; 0x48
 800a94a:	3701      	adds	r7, #1
 800a94c:	429f      	cmp	r7, r3
 800a94e:	f104 0420 	add.w	r4, r4, #32
 800a952:	d254      	bcs.n	800a9fe <OTG_FS_IRQHandler+0x2aa>
 800a954:	fa0b f107 	lsl.w	r1, fp, r7
 800a958:	ea11 0f0a 	tst.w	r1, sl
 800a95c:	d0f5      	beq.n	800a94a <OTG_FS_IRQHandler+0x1f6>
 800a95e:	6822      	ldr	r2, [r4, #0]
 800a960:	0412      	lsls	r2, r2, #16
 800a962:	d4a2      	bmi.n	800a8aa <OTG_FS_IRQHandler+0x156>
 800a964:	b2fe      	uxtb	r6, r7
 800a966:	0171      	lsls	r1, r6, #5
 800a968:	f500 6ea0 	add.w	lr, r0, #1280	; 0x500
 800a96c:	eb0e 0801 	add.w	r8, lr, r1
 800a970:	f8d8 2008 	ldr.w	r2, [r8, #8]
 800a974:	0752      	lsls	r2, r2, #29
 800a976:	f100 8100 	bmi.w	800ab7a <OTG_FS_IRQHandler+0x426>
 800a97a:	f8d8 2008 	ldr.w	r2, [r8, #8]
 800a97e:	f012 0220 	ands.w	r2, r2, #32
 800a982:	f000 8105 	beq.w	800ab90 <OTG_FS_IRQHandler+0x43c>
 800a986:	eb06 0386 	add.w	r3, r6, r6, lsl #2
 800a98a:	2220      	movs	r2, #32
 800a98c:	eb05 03c3 	add.w	r3, r5, r3, lsl #3
 800a990:	f8c8 2008 	str.w	r2, [r8, #8]
 800a994:	f893 2035 	ldrb.w	r2, [r3, #53]	; 0x35
 800a998:	2a01      	cmp	r2, #1
 800a99a:	f000 8282 	beq.w	800aea2 <OTG_FS_IRQHandler+0x74e>
 800a99e:	9b01      	ldr	r3, [sp, #4]
 800a9a0:	689b      	ldr	r3, [r3, #8]
 800a9a2:	e7d2      	b.n	800a94a <OTG_FS_IRQHandler+0x1f6>
 800a9a4:	f8d8 3008 	ldr.w	r3, [r8, #8]
 800a9a8:	069e      	lsls	r6, r3, #26
 800a9aa:	f140 8143 	bpl.w	800ac34 <OTG_FS_IRQHandler+0x4e0>
 800a9ae:	2320      	movs	r3, #32
 800a9b0:	f8c8 3008 	str.w	r3, [r8, #8]
 800a9b4:	e78e      	b.n	800a8d4 <OTG_FS_IRQHandler+0x180>
 800a9b6:	f8d8 3008 	ldr.w	r3, [r8, #8]
 800a9ba:	079b      	lsls	r3, r3, #30
 800a9bc:	f140 8173 	bpl.w	800aca6 <OTG_FS_IRQHandler+0x552>
 800a9c0:	ea4f 0689 	mov.w	r6, r9, lsl #2
 800a9c4:	eb06 0309 	add.w	r3, r6, r9
 800a9c8:	eb05 03c3 	add.w	r3, r5, r3, lsl #3
 800a9cc:	3350      	adds	r3, #80	; 0x50
 800a9ce:	f8d8 e00c 	ldr.w	lr, [r8, #12]
 800a9d2:	7959      	ldrb	r1, [r3, #5]
 800a9d4:	f02e 0e02 	bic.w	lr, lr, #2
 800a9d8:	2901      	cmp	r1, #1
 800a9da:	f8c8 e00c 	str.w	lr, [r8, #12]
 800a9de:	f000 81ce 	beq.w	800ad7e <OTG_FS_IRQHandler+0x62a>
 800a9e2:	2905      	cmp	r1, #5
 800a9e4:	f000 81cb 	beq.w	800ad7e <OTG_FS_IRQHandler+0x62a>
 800a9e8:	2906      	cmp	r1, #6
 800a9ea:	f000 8231 	beq.w	800ae50 <OTG_FS_IRQHandler+0x6fc>
 800a9ee:	2908      	cmp	r1, #8
 800a9f0:	f000 822e 	beq.w	800ae50 <OTG_FS_IRQHandler+0x6fc>
 800a9f4:	2302      	movs	r3, #2
 800a9f6:	f8c8 3008 	str.w	r3, [r8, #8]
 800a9fa:	68ab      	ldr	r3, [r5, #8]
 800a9fc:	e7a5      	b.n	800a94a <OTG_FS_IRQHandler+0x1f6>
 800a9fe:	4606      	mov	r6, r0
 800aa00:	f04f 7300 	mov.w	r3, #33554432	; 0x2000000
 800aa04:	6173      	str	r3, [r6, #20]
 800aa06:	e6eb      	b.n	800a7e0 <OTG_FS_IRQHandler+0x8c>
 800aa08:	20001950 	.word	0x20001950
 800aa0c:	1ff80000 	.word	0x1ff80000
 800aa10:	f8d6 3440 	ldr.w	r3, [r6, #1088]	; 0x440
 800aa14:	9306      	str	r3, [sp, #24]
 800aa16:	f8d6 3440 	ldr.w	r3, [r6, #1088]	; 0x440
 800aa1a:	9307      	str	r3, [sp, #28]
 800aa1c:	9b07      	ldr	r3, [sp, #28]
 800aa1e:	f023 032e 	bic.w	r3, r3, #46	; 0x2e
 800aa22:	9307      	str	r3, [sp, #28]
 800aa24:	9b06      	ldr	r3, [sp, #24]
 800aa26:	0798      	lsls	r0, r3, #30
 800aa28:	f506 6788 	add.w	r7, r6, #1088	; 0x440
 800aa2c:	d507      	bpl.n	800aa3e <OTG_FS_IRQHandler+0x2ea>
 800aa2e:	9b06      	ldr	r3, [sp, #24]
 800aa30:	07d9      	lsls	r1, r3, #31
 800aa32:	f100 81f5 	bmi.w	800ae20 <OTG_FS_IRQHandler+0x6cc>
 800aa36:	9b07      	ldr	r3, [sp, #28]
 800aa38:	f043 0302 	orr.w	r3, r3, #2
 800aa3c:	9307      	str	r3, [sp, #28]
 800aa3e:	9b06      	ldr	r3, [sp, #24]
 800aa40:	071a      	lsls	r2, r3, #28
 800aa42:	d52c      	bpl.n	800aa9e <OTG_FS_IRQHandler+0x34a>
 800aa44:	9b07      	ldr	r3, [sp, #28]
 800aa46:	f043 0308 	orr.w	r3, r3, #8
 800aa4a:	9307      	str	r3, [sp, #28]
 800aa4c:	9b06      	ldr	r3, [sp, #24]
 800aa4e:	075b      	lsls	r3, r3, #29
 800aa50:	f140 818b 	bpl.w	800ad6a <OTG_FS_IRQHandler+0x616>
 800aa54:	69aa      	ldr	r2, [r5, #24]
 800aa56:	4bcb      	ldr	r3, [pc, #812]	; (800ad84 <OTG_FS_IRQHandler+0x630>)
 800aa58:	2a02      	cmp	r2, #2
 800aa5a:	f000 828d 	beq.w	800af78 <OTG_FS_IRQHandler+0x824>
 800aa5e:	68db      	ldr	r3, [r3, #12]
 800aa60:	2b03      	cmp	r3, #3
 800aa62:	bf04      	itt	eq
 800aa64:	f64e 2360 	movweq	r3, #60000	; 0xea60
 800aa68:	f8c6 3404 	streq.w	r3, [r6, #1028]	; 0x404
 800aa6c:	f8d5 028c 	ldr.w	r0, [r5, #652]	; 0x28c
 800aa70:	7803      	ldrb	r3, [r0, #0]
 800aa72:	f003 02ff 	and.w	r2, r3, #255	; 0xff
 800aa76:	2b00      	cmp	r3, #0
 800aa78:	f040 8207 	bne.w	800ae8a <OTG_FS_IRQHandler+0x736>
 800aa7c:	f8d0 3614 	ldr.w	r3, [r0, #1556]	; 0x614
 800aa80:	2101      	movs	r1, #1
 800aa82:	f880 121e 	strb.w	r1, [r0, #542]	; 0x21e
 800aa86:	7002      	strb	r2, [r0, #0]
 800aa88:	b10b      	cbz	r3, 800aa8e <OTG_FS_IRQHandler+0x33a>
 800aa8a:	2104      	movs	r1, #4
 800aa8c:	4798      	blx	r3
 800aa8e:	68eb      	ldr	r3, [r5, #12]
 800aa90:	4abc      	ldr	r2, [pc, #752]	; (800ad84 <OTG_FS_IRQHandler+0x630>)
 800aa92:	b923      	cbnz	r3, 800aa9e <OTG_FS_IRQHandler+0x34a>
 800aa94:	6812      	ldr	r2, [r2, #0]
 800aa96:	6993      	ldr	r3, [r2, #24]
 800aa98:	f043 5300 	orr.w	r3, r3, #536870912	; 0x20000000
 800aa9c:	6193      	str	r3, [r2, #24]
 800aa9e:	9b06      	ldr	r3, [sp, #24]
 800aaa0:	069e      	lsls	r6, r3, #26
 800aaa2:	d503      	bpl.n	800aaac <OTG_FS_IRQHandler+0x358>
 800aaa4:	9b07      	ldr	r3, [sp, #28]
 800aaa6:	f043 0320 	orr.w	r3, r3, #32
 800aaaa:	9307      	str	r3, [sp, #28]
 800aaac:	9b07      	ldr	r3, [sp, #28]
 800aaae:	682e      	ldr	r6, [r5, #0]
 800aab0:	603b      	str	r3, [r7, #0]
 800aab2:	e68a      	b.n	800a7ca <OTG_FS_IRQHandler+0x76>
 800aab4:	f8d5 728c 	ldr.w	r7, [r5, #652]	; 0x28c
 800aab8:	f8d4 3440 	ldr.w	r3, [r4, #1088]	; 0x440
 800aabc:	f8d7 6610 	ldr.w	r6, [r7, #1552]	; 0x610
 800aac0:	f896 2288 	ldrb.w	r2, [r6, #648]	; 0x288
 800aac4:	f023 032e 	bic.w	r3, r3, #46	; 0x2e
 800aac8:	2a01      	cmp	r2, #1
 800aaca:	f8c4 3440 	str.w	r3, [r4, #1088]	; 0x440
 800aace:	d008      	beq.n	800aae2 <OTG_FS_IRQHandler+0x38e>
 800aad0:	2301      	movs	r3, #1
 800aad2:	f886 3288 	strb.w	r3, [r6, #648]	; 0x288
 800aad6:	6830      	ldr	r0, [r6, #0]
 800aad8:	f001 fa68 	bl	800bfac <USB_StopHost>
 800aadc:	2300      	movs	r3, #0
 800aade:	f886 3288 	strb.w	r3, [r6, #648]	; 0x288
 800aae2:	793b      	ldrb	r3, [r7, #4]
 800aae4:	2b0a      	cmp	r3, #10
 800aae6:	d807      	bhi.n	800aaf8 <OTG_FS_IRQHandler+0x3a4>
 800aae8:	eb07 0383 	add.w	r3, r7, r3, lsl #2
 800aaec:	f8d3 25cc 	ldr.w	r2, [r3, #1484]	; 0x5cc
 800aaf0:	f3c2 020e 	ubfx	r2, r2, #0, #15
 800aaf4:	f8c3 25cc 	str.w	r2, [r3, #1484]	; 0x5cc
 800aaf8:	797b      	ldrb	r3, [r7, #5]
 800aafa:	2b0a      	cmp	r3, #10
 800aafc:	d807      	bhi.n	800ab0e <OTG_FS_IRQHandler+0x3ba>
 800aafe:	eb07 0383 	add.w	r3, r7, r3, lsl #2
 800ab02:	f8d3 25cc 	ldr.w	r2, [r3, #1484]	; 0x5cc
 800ab06:	f3c2 020e 	ubfx	r2, r2, #0, #15
 800ab0a:	f8c3 25cc 	str.w	r2, [r3, #1484]	; 0x5cc
 800ab0e:	f8d7 3614 	ldr.w	r3, [r7, #1556]	; 0x614
 800ab12:	2200      	movs	r2, #0
 800ab14:	f887 221e 	strb.w	r2, [r7, #542]	; 0x21e
 800ab18:	b113      	cbz	r3, 800ab20 <OTG_FS_IRQHandler+0x3cc>
 800ab1a:	4638      	mov	r0, r7
 800ab1c:	2105      	movs	r1, #5
 800ab1e:	4798      	blx	r3
 800ab20:	f8d7 3610 	ldr.w	r3, [r7, #1552]	; 0x610
 800ab24:	f893 2288 	ldrb.w	r2, [r3, #648]	; 0x288
 800ab28:	2a01      	cmp	r2, #1
 800ab2a:	f040 8103 	bne.w	800ad34 <OTG_FS_IRQHandler+0x5e0>
 800ab2e:	682e      	ldr	r6, [r5, #0]
 800ab30:	2303      	movs	r3, #3
 800ab32:	703b      	strb	r3, [r7, #0]
 800ab34:	f8d6 3400 	ldr.w	r3, [r6, #1024]	; 0x400
 800ab38:	f023 0303 	bic.w	r3, r3, #3
 800ab3c:	f8c6 3400 	str.w	r3, [r6, #1024]	; 0x400
 800ab40:	f8d6 3400 	ldr.w	r3, [r6, #1024]	; 0x400
 800ab44:	f64b 3080 	movw	r0, #48000	; 0xbb80
 800ab48:	f043 0301 	orr.w	r3, r3, #1
 800ab4c:	f04f 5200 	mov.w	r2, #536870912	; 0x20000000
 800ab50:	f8c6 3400 	str.w	r3, [r6, #1024]	; 0x400
 800ab54:	f8c6 0404 	str.w	r0, [r6, #1028]	; 0x404
 800ab58:	6172      	str	r2, [r6, #20]
 800ab5a:	e630      	b.n	800a7be <OTG_FS_IRQHandler+0x6a>
 800ab5c:	f8d5 028c 	ldr.w	r0, [r5, #652]	; 0x28c
 800ab60:	4f88      	ldr	r7, [pc, #544]	; (800ad84 <OTG_FS_IRQHandler+0x630>)
 800ab62:	f8d0 3608 	ldr.w	r3, [r0, #1544]	; 0x608
 800ab66:	3301      	adds	r3, #1
 800ab68:	f8c0 3608 	str.w	r3, [r0, #1544]	; 0x608
 800ab6c:	7803      	ldrb	r3, [r0, #0]
 800ab6e:	2b0a      	cmp	r3, #10
 800ab70:	f000 80d7 	beq.w	800ad22 <OTG_FS_IRQHandler+0x5ce>
 800ab74:	2308      	movs	r3, #8
 800ab76:	6173      	str	r3, [r6, #20]
 800ab78:	e62d      	b.n	800a7d6 <OTG_FS_IRQHandler+0x82>
 800ab7a:	2304      	movs	r3, #4
 800ab7c:	f8c8 3008 	str.w	r3, [r8, #8]
 800ab80:	f8d8 200c 	ldr.w	r2, [r8, #12]
 800ab84:	68ab      	ldr	r3, [r5, #8]
 800ab86:	f042 0202 	orr.w	r2, r2, #2
 800ab8a:	f8c8 200c 	str.w	r2, [r8, #12]
 800ab8e:	e6dc      	b.n	800a94a <OTG_FS_IRQHandler+0x1f6>
 800ab90:	f8d8 c008 	ldr.w	ip, [r8, #8]
 800ab94:	f01c 0f40 	tst.w	ip, #64	; 0x40
 800ab98:	f040 812a 	bne.w	800adf0 <OTG_FS_IRQHandler+0x69c>
 800ab9c:	f8d8 2008 	ldr.w	r2, [r8, #8]
 800aba0:	f412 7200 	ands.w	r2, r2, #512	; 0x200
 800aba4:	f040 8177 	bne.w	800ae96 <OTG_FS_IRQHandler+0x742>
 800aba8:	f8d8 c008 	ldr.w	ip, [r8, #8]
 800abac:	f01c 0f01 	tst.w	ip, #1
 800abb0:	f040 81af 	bne.w	800af12 <OTG_FS_IRQHandler+0x7be>
 800abb4:	f8d8 2008 	ldr.w	r2, [r8, #8]
 800abb8:	f012 0208 	ands.w	r2, r2, #8
 800abbc:	f040 81c0 	bne.w	800af40 <OTG_FS_IRQHandler+0x7ec>
 800abc0:	f8d8 c008 	ldr.w	ip, [r8, #8]
 800abc4:	f01c 0f10 	tst.w	ip, #16
 800abc8:	f040 81f6 	bne.w	800afb8 <OTG_FS_IRQHandler+0x864>
 800abcc:	f8d8 2008 	ldr.w	r2, [r8, #8]
 800abd0:	0612      	lsls	r2, r2, #24
 800abd2:	f100 80d9 	bmi.w	800ad88 <OTG_FS_IRQHandler+0x634>
 800abd6:	f8d8 2008 	ldr.w	r2, [r8, #8]
 800abda:	f412 6280 	ands.w	r2, r2, #1024	; 0x400
 800abde:	f040 8204 	bne.w	800afea <OTG_FS_IRQHandler+0x896>
 800abe2:	f8d8 c008 	ldr.w	ip, [r8, #8]
 800abe6:	f01c 0f02 	tst.w	ip, #2
 800abea:	f43f aeae 	beq.w	800a94a <OTG_FS_IRQHandler+0x1f6>
 800abee:	eb06 0386 	add.w	r3, r6, r6, lsl #2
 800abf2:	eb05 03c3 	add.w	r3, r5, r3, lsl #3
 800abf6:	f8d8 c00c 	ldr.w	ip, [r8, #12]
 800abfa:	f893 3055 	ldrb.w	r3, [r3, #85]	; 0x55
 800abfe:	f02c 0c02 	bic.w	ip, ip, #2
 800ac02:	2b01      	cmp	r3, #1
 800ac04:	f8c8 c00c 	str.w	ip, [r8, #12]
 800ac08:	f000 8214 	beq.w	800b034 <OTG_FS_IRQHandler+0x8e0>
 800ac0c:	2b03      	cmp	r3, #3
 800ac0e:	f000 8223 	beq.w	800b058 <OTG_FS_IRQHandler+0x904>
 800ac12:	2b04      	cmp	r3, #4
 800ac14:	f000 8228 	beq.w	800b068 <OTG_FS_IRQHandler+0x914>
 800ac18:	2b05      	cmp	r3, #5
 800ac1a:	f000 824b 	beq.w	800b0b4 <OTG_FS_IRQHandler+0x960>
 800ac1e:	2b06      	cmp	r3, #6
 800ac20:	f000 822c 	beq.w	800b07c <OTG_FS_IRQHandler+0x928>
 800ac24:	2b08      	cmp	r3, #8
 800ac26:	f000 8229 	beq.w	800b07c <OTG_FS_IRQHandler+0x928>
 800ac2a:	2202      	movs	r2, #2
 800ac2c:	68ab      	ldr	r3, [r5, #8]
 800ac2e:	f8c8 2008 	str.w	r2, [r8, #8]
 800ac32:	e68a      	b.n	800a94a <OTG_FS_IRQHandler+0x1f6>
 800ac34:	f8d8 3008 	ldr.w	r3, [r8, #8]
 800ac38:	0719      	lsls	r1, r3, #28
 800ac3a:	f100 80bb 	bmi.w	800adb4 <OTG_FS_IRQHandler+0x660>
 800ac3e:	f8d8 3008 	ldr.w	r3, [r8, #8]
 800ac42:	055b      	lsls	r3, r3, #21
 800ac44:	f57f ae46 	bpl.w	800a8d4 <OTG_FS_IRQHandler+0x180>
 800ac48:	f8d8 300c 	ldr.w	r3, [r8, #12]
 800ac4c:	9203      	str	r2, [sp, #12]
 800ac4e:	f043 0302 	orr.w	r3, r3, #2
 800ac52:	f8c8 300c 	str.w	r3, [r8, #12]
 800ac56:	4649      	mov	r1, r9
 800ac58:	f8cd c008 	str.w	ip, [sp, #8]
 800ac5c:	f001 fa68 	bl	800c130 <USB_HC_Halt>
 800ac60:	eb09 0389 	add.w	r3, r9, r9, lsl #2
 800ac64:	2110      	movs	r1, #16
 800ac66:	eb05 03c3 	add.w	r3, r5, r3, lsl #3
 800ac6a:	f8c8 1008 	str.w	r1, [r8, #8]
 800ac6e:	2008      	movs	r0, #8
 800ac70:	f44f 6180 	mov.w	r1, #1024	; 0x400
 800ac74:	f883 0055 	strb.w	r0, [r3, #85]	; 0x55
 800ac78:	9a03      	ldr	r2, [sp, #12]
 800ac7a:	6828      	ldr	r0, [r5, #0]
 800ac7c:	f8c8 1008 	str.w	r1, [r8, #8]
 800ac80:	f8dd c008 	ldr.w	ip, [sp, #8]
 800ac84:	e626      	b.n	800a8d4 <OTG_FS_IRQHandler+0x180>
 800ac86:	f8d8 300c 	ldr.w	r3, [r8, #12]
 800ac8a:	4649      	mov	r1, r9
 800ac8c:	f043 0302 	orr.w	r3, r3, #2
 800ac90:	f8c8 300c 	str.w	r3, [r8, #12]
 800ac94:	f001 fa4c 	bl	800c130 <USB_HC_Halt>
 800ac98:	f44f 7300 	mov.w	r3, #512	; 0x200
 800ac9c:	f8c8 3008 	str.w	r3, [r8, #8]
 800aca0:	6828      	ldr	r0, [r5, #0]
 800aca2:	68ab      	ldr	r3, [r5, #8]
 800aca4:	e651      	b.n	800a94a <OTG_FS_IRQHandler+0x1f6>
 800aca6:	f8d8 3008 	ldr.w	r3, [r8, #8]
 800acaa:	061e      	lsls	r6, r3, #24
 800acac:	f100 810f 	bmi.w	800aece <OTG_FS_IRQHandler+0x77a>
 800acb0:	f8d8 3008 	ldr.w	r3, [r8, #8]
 800acb4:	06d9      	lsls	r1, r3, #27
 800acb6:	d57b      	bpl.n	800adb0 <OTG_FS_IRQHandler+0x65c>
 800acb8:	ea4f 0689 	mov.w	r6, r9, lsl #2
 800acbc:	eb06 0309 	add.w	r3, r6, r9
 800acc0:	eb05 03c3 	add.w	r3, r5, r3, lsl #3
 800acc4:	f893 3037 	ldrb.w	r3, [r3, #55]	; 0x37
 800acc8:	2b03      	cmp	r3, #3
 800acca:	f000 81a7 	beq.w	800b01c <OTG_FS_IRQHandler+0x8c8>
 800acce:	f013 0ffd 	tst.w	r3, #253	; 0xfd
 800acd2:	d10b      	bne.n	800acec <OTG_FS_IRQHandler+0x598>
 800acd4:	f85c 3002 	ldr.w	r3, [ip, r2]
 800acd8:	f023 4380 	bic.w	r3, r3, #1073741824	; 0x40000000
 800acdc:	f84c 3002 	str.w	r3, [ip, r2]
 800ace0:	f85c 3002 	ldr.w	r3, [ip, r2]
 800ace4:	f043 4300 	orr.w	r3, r3, #2147483648	; 0x80000000
 800ace8:	f84c 3002 	str.w	r3, [ip, r2]
 800acec:	eb06 0309 	add.w	r3, r6, r9
 800acf0:	eb05 03c3 	add.w	r3, r5, r3, lsl #3
 800acf4:	2103      	movs	r1, #3
 800acf6:	2210      	movs	r2, #16
 800acf8:	f883 1055 	strb.w	r1, [r3, #85]	; 0x55
 800acfc:	68ab      	ldr	r3, [r5, #8]
 800acfe:	f8c8 2008 	str.w	r2, [r8, #8]
 800ad02:	e622      	b.n	800a94a <OTG_FS_IRQHandler+0x1f6>
 800ad04:	f8d8 300c 	ldr.w	r3, [r8, #12]
 800ad08:	f043 0302 	orr.w	r3, r3, #2
 800ad0c:	f8c8 300c 	str.w	r3, [r8, #12]
 800ad10:	4649      	mov	r1, r9
 800ad12:	f001 fa0d 	bl	800c130 <USB_HC_Halt>
 800ad16:	2310      	movs	r3, #16
 800ad18:	f8c8 3008 	str.w	r3, [r8, #8]
 800ad1c:	9b01      	ldr	r3, [sp, #4]
 800ad1e:	6818      	ldr	r0, [r3, #0]
 800ad20:	e609      	b.n	800a936 <OTG_FS_IRQHandler+0x1e2>
 800ad22:	f8d0 35c4 	ldr.w	r3, [r0, #1476]	; 0x5c4
 800ad26:	2b00      	cmp	r3, #0
 800ad28:	f43f af24 	beq.w	800ab74 <OTG_FS_IRQHandler+0x420>
 800ad2c:	699b      	ldr	r3, [r3, #24]
 800ad2e:	4798      	blx	r3
 800ad30:	683e      	ldr	r6, [r7, #0]
 800ad32:	e71f      	b.n	800ab74 <OTG_FS_IRQHandler+0x420>
 800ad34:	681a      	ldr	r2, [r3, #0]
 800ad36:	6891      	ldr	r1, [r2, #8]
 800ad38:	2001      	movs	r0, #1
 800ad3a:	4301      	orrs	r1, r0
 800ad3c:	f883 0288 	strb.w	r0, [r3, #648]	; 0x288
 800ad40:	6091      	str	r1, [r2, #8]
 800ad42:	f8d2 1440 	ldr.w	r1, [r2, #1088]	; 0x440
 800ad46:	9105      	str	r1, [sp, #20]
 800ad48:	9905      	ldr	r1, [sp, #20]
 800ad4a:	f021 012e 	bic.w	r1, r1, #46	; 0x2e
 800ad4e:	9105      	str	r1, [sp, #20]
 800ad50:	9905      	ldr	r1, [sp, #20]
 800ad52:	04c9      	lsls	r1, r1, #19
 800ad54:	d404      	bmi.n	800ad60 <OTG_FS_IRQHandler+0x60c>
 800ad56:	9905      	ldr	r1, [sp, #20]
 800ad58:	f441 5180 	orr.w	r1, r1, #4096	; 0x1000
 800ad5c:	f8c2 1440 	str.w	r1, [r2, #1088]	; 0x440
 800ad60:	9a05      	ldr	r2, [sp, #20]
 800ad62:	2200      	movs	r2, #0
 800ad64:	f883 2288 	strb.w	r2, [r3, #648]	; 0x288
 800ad68:	e6e1      	b.n	800ab2e <OTG_FS_IRQHandler+0x3da>
 800ad6a:	683b      	ldr	r3, [r7, #0]
 800ad6c:	682a      	ldr	r2, [r5, #0]
 800ad6e:	f023 032e 	bic.w	r3, r3, #46	; 0x2e
 800ad72:	603b      	str	r3, [r7, #0]
 800ad74:	6993      	ldr	r3, [r2, #24]
 800ad76:	f043 5300 	orr.w	r3, r3, #536870912	; 0x20000000
 800ad7a:	6193      	str	r3, [r2, #24]
 800ad7c:	e68f      	b.n	800aa9e <OTG_FS_IRQHandler+0x34a>
 800ad7e:	7119      	strb	r1, [r3, #4]
 800ad80:	e638      	b.n	800a9f4 <OTG_FS_IRQHandler+0x2a0>
 800ad82:	bf00      	nop
 800ad84:	20001950 	.word	0x20001950
 800ad88:	f8d8 300c 	ldr.w	r3, [r8, #12]
 800ad8c:	f043 0302 	orr.w	r3, r3, #2
 800ad90:	4631      	mov	r1, r6
 800ad92:	f8c8 300c 	str.w	r3, [r8, #12]
 800ad96:	eb06 0686 	add.w	r6, r6, r6, lsl #2
 800ad9a:	f001 f9c9 	bl	800c130 <USB_HC_Halt>
 800ad9e:	eb05 03c6 	add.w	r3, r5, r6, lsl #3
 800ada2:	2106      	movs	r1, #6
 800ada4:	2280      	movs	r2, #128	; 0x80
 800ada6:	6828      	ldr	r0, [r5, #0]
 800ada8:	f883 1055 	strb.w	r1, [r3, #85]	; 0x55
 800adac:	f8c8 2008 	str.w	r2, [r8, #8]
 800adb0:	68ab      	ldr	r3, [r5, #8]
 800adb2:	e5ca      	b.n	800a94a <OTG_FS_IRQHandler+0x1f6>
 800adb4:	f8d8 100c 	ldr.w	r1, [r8, #12]
 800adb8:	9203      	str	r2, [sp, #12]
 800adba:	eb09 0389 	add.w	r3, r9, r9, lsl #2
 800adbe:	eb05 03c3 	add.w	r3, r5, r3, lsl #3
 800adc2:	f041 0102 	orr.w	r1, r1, #2
 800adc6:	2605      	movs	r6, #5
 800adc8:	f8c8 100c 	str.w	r1, [r8, #12]
 800adcc:	f883 6055 	strb.w	r6, [r3, #85]	; 0x55
 800add0:	2110      	movs	r1, #16
 800add2:	2308      	movs	r3, #8
 800add4:	f8c8 1008 	str.w	r1, [r8, #8]
 800add8:	4649      	mov	r1, r9
 800adda:	f8c8 3008 	str.w	r3, [r8, #8]
 800adde:	f8cd c008 	str.w	ip, [sp, #8]
 800ade2:	f001 f9a5 	bl	800c130 <USB_HC_Halt>
 800ade6:	6828      	ldr	r0, [r5, #0]
 800ade8:	f8dd c008 	ldr.w	ip, [sp, #8]
 800adec:	9a03      	ldr	r2, [sp, #12]
 800adee:	e571      	b.n	800a8d4 <OTG_FS_IRQHandler+0x180>
 800adf0:	f8d8 100c 	ldr.w	r1, [r8, #12]
 800adf4:	eb06 0386 	add.w	r3, r6, r6, lsl #2
 800adf8:	eb05 03c3 	add.w	r3, r5, r3, lsl #3
 800adfc:	f041 0e02 	orr.w	lr, r1, #2
 800ae00:	f04f 0c04 	mov.w	ip, #4
 800ae04:	651a      	str	r2, [r3, #80]	; 0x50
 800ae06:	f883 c055 	strb.w	ip, [r3, #85]	; 0x55
 800ae0a:	4631      	mov	r1, r6
 800ae0c:	f8c8 e00c 	str.w	lr, [r8, #12]
 800ae10:	f001 f98e 	bl	800c130 <USB_HC_Halt>
 800ae14:	2340      	movs	r3, #64	; 0x40
 800ae16:	f8c8 3008 	str.w	r3, [r8, #8]
 800ae1a:	6828      	ldr	r0, [r5, #0]
 800ae1c:	68ab      	ldr	r3, [r5, #8]
 800ae1e:	e594      	b.n	800a94a <OTG_FS_IRQHandler+0x1f6>
 800ae20:	69b3      	ldr	r3, [r6, #24]
 800ae22:	f8d5 028c 	ldr.w	r0, [r5, #652]	; 0x28c
 800ae26:	f023 5300 	bic.w	r3, r3, #536870912	; 0x20000000
 800ae2a:	61b3      	str	r3, [r6, #24]
 800ae2c:	7803      	ldrb	r3, [r0, #0]
 800ae2e:	f003 02ff 	and.w	r2, r3, #255	; 0xff
 800ae32:	2b00      	cmp	r3, #0
 800ae34:	f040 809a 	bne.w	800af6c <OTG_FS_IRQHandler+0x818>
 800ae38:	f8d0 3614 	ldr.w	r3, [r0, #1556]	; 0x614
 800ae3c:	2101      	movs	r1, #1
 800ae3e:	f880 121e 	strb.w	r1, [r0, #542]	; 0x21e
 800ae42:	7002      	strb	r2, [r0, #0]
 800ae44:	2b00      	cmp	r3, #0
 800ae46:	f43f adf6 	beq.w	800aa36 <OTG_FS_IRQHandler+0x2e2>
 800ae4a:	2104      	movs	r1, #4
 800ae4c:	4798      	blx	r3
 800ae4e:	e5f2      	b.n	800aa36 <OTG_FS_IRQHandler+0x2e2>
 800ae50:	eb06 0309 	add.w	r3, r6, r9
 800ae54:	eb05 03c3 	add.w	r3, r5, r3, lsl #3
 800ae58:	6d19      	ldr	r1, [r3, #80]	; 0x50
 800ae5a:	2903      	cmp	r1, #3
 800ae5c:	f200 80a8 	bhi.w	800afb0 <OTG_FS_IRQHandler+0x85c>
 800ae60:	3101      	adds	r1, #1
 800ae62:	6519      	str	r1, [r3, #80]	; 0x50
 800ae64:	2102      	movs	r1, #2
 800ae66:	f85c 3002 	ldr.w	r3, [ip, r2]
 800ae6a:	444e      	add	r6, r9
 800ae6c:	eb05 06c6 	add.w	r6, r5, r6, lsl #3
 800ae70:	f023 4380 	bic.w	r3, r3, #1073741824	; 0x40000000
 800ae74:	f886 1054 	strb.w	r1, [r6, #84]	; 0x54
 800ae78:	f84c 3002 	str.w	r3, [ip, r2]
 800ae7c:	f85c 3002 	ldr.w	r3, [ip, r2]
 800ae80:	f043 4300 	orr.w	r3, r3, #2147483648	; 0x80000000
 800ae84:	f84c 3002 	str.w	r3, [ip, r2]
 800ae88:	e5b4      	b.n	800a9f4 <OTG_FS_IRQHandler+0x2a0>
 800ae8a:	7803      	ldrb	r3, [r0, #0]
 800ae8c:	2b01      	cmp	r3, #1
 800ae8e:	bf04      	itt	eq
 800ae90:	2302      	moveq	r3, #2
 800ae92:	7003      	strbeq	r3, [r0, #0]
 800ae94:	e5fb      	b.n	800aa8e <OTG_FS_IRQHandler+0x33a>
 800ae96:	f8d8 300c 	ldr.w	r3, [r8, #12]
 800ae9a:	4631      	mov	r1, r6
 800ae9c:	f043 0302 	orr.w	r3, r3, #2
 800aea0:	e6f6      	b.n	800ac90 <OTG_FS_IRQHandler+0x53c>
 800aea2:	f8d8 200c 	ldr.w	r2, [r8, #12]
 800aea6:	f103 0950 	add.w	r9, r3, #80	; 0x50
 800aeaa:	f04f 0e04 	mov.w	lr, #4
 800aeae:	f042 0302 	orr.w	r3, r2, #2
 800aeb2:	f889 e005 	strb.w	lr, [r9, #5]
 800aeb6:	4631      	mov	r1, r6
 800aeb8:	f8c8 300c 	str.w	r3, [r8, #12]
 800aebc:	f001 f938 	bl	800c130 <USB_HC_Halt>
 800aec0:	9a01      	ldr	r2, [sp, #4]
 800aec2:	2302      	movs	r3, #2
 800aec4:	f889 3004 	strb.w	r3, [r9, #4]
 800aec8:	6810      	ldr	r0, [r2, #0]
 800aeca:	6893      	ldr	r3, [r2, #8]
 800aecc:	e53d      	b.n	800a94a <OTG_FS_IRQHandler+0x1f6>
 800aece:	eb09 0289 	add.w	r2, r9, r9, lsl #2
 800aed2:	eb05 02c2 	add.w	r2, r5, r2, lsl #3
 800aed6:	f8d8 600c 	ldr.w	r6, [r8, #12]
 800aeda:	6d13      	ldr	r3, [r2, #80]	; 0x50
 800aedc:	f046 0602 	orr.w	r6, r6, #2
 800aee0:	f8c8 600c 	str.w	r6, [r8, #12]
 800aee4:	3301      	adds	r3, #1
 800aee6:	2606      	movs	r6, #6
 800aee8:	6513      	str	r3, [r2, #80]	; 0x50
 800aeea:	4649      	mov	r1, r9
 800aeec:	f882 6055 	strb.w	r6, [r2, #85]	; 0x55
 800aef0:	f001 f91e 	bl	800c130 <USB_HC_Halt>
 800aef4:	2380      	movs	r3, #128	; 0x80
 800aef6:	f8c8 3008 	str.w	r3, [r8, #8]
 800aefa:	6828      	ldr	r0, [r5, #0]
 800aefc:	68ab      	ldr	r3, [r5, #8]
 800aefe:	e524      	b.n	800a94a <OTG_FS_IRQHandler+0x1f6>
 800af00:	f85c 3002 	ldr.w	r3, [ip, r2]
 800af04:	f043 5300 	orr.w	r3, r3, #536870912	; 0x20000000
 800af08:	f84c 3002 	str.w	r3, [ip, r2]
 800af0c:	f881 b004 	strb.w	fp, [r1, #4]
 800af10:	e511      	b.n	800a936 <OTG_FS_IRQHandler+0x1e2>
 800af12:	f8d8 100c 	ldr.w	r1, [r8, #12]
 800af16:	eb06 0386 	add.w	r3, r6, r6, lsl #2
 800af1a:	eb05 03c3 	add.w	r3, r5, r3, lsl #3
 800af1e:	f041 0e02 	orr.w	lr, r1, #2
 800af22:	f103 0950 	add.w	r9, r3, #80	; 0x50
 800af26:	651a      	str	r2, [r3, #80]	; 0x50
 800af28:	4631      	mov	r1, r6
 800af2a:	f8c8 e00c 	str.w	lr, [r8, #12]
 800af2e:	f001 f8ff 	bl	800c130 <USB_HC_Halt>
 800af32:	f8c8 b008 	str.w	fp, [r8, #8]
 800af36:	6828      	ldr	r0, [r5, #0]
 800af38:	f889 b005 	strb.w	fp, [r9, #5]
 800af3c:	68ab      	ldr	r3, [r5, #8]
 800af3e:	e504      	b.n	800a94a <OTG_FS_IRQHandler+0x1f6>
 800af40:	2308      	movs	r3, #8
 800af42:	f8c8 3008 	str.w	r3, [r8, #8]
 800af46:	f8d8 300c 	ldr.w	r3, [r8, #12]
 800af4a:	f043 0302 	orr.w	r3, r3, #2
 800af4e:	f8c8 300c 	str.w	r3, [r8, #12]
 800af52:	4631      	mov	r1, r6
 800af54:	eb06 0686 	add.w	r6, r6, r6, lsl #2
 800af58:	f001 f8ea 	bl	800c130 <USB_HC_Halt>
 800af5c:	eb05 03c6 	add.w	r3, r5, r6, lsl #3
 800af60:	2205      	movs	r2, #5
 800af62:	f883 2055 	strb.w	r2, [r3, #85]	; 0x55
 800af66:	6828      	ldr	r0, [r5, #0]
 800af68:	68ab      	ldr	r3, [r5, #8]
 800af6a:	e4ee      	b.n	800a94a <OTG_FS_IRQHandler+0x1f6>
 800af6c:	7803      	ldrb	r3, [r0, #0]
 800af6e:	2b01      	cmp	r3, #1
 800af70:	bf04      	itt	eq
 800af72:	2302      	moveq	r3, #2
 800af74:	7003      	strbeq	r3, [r0, #0]
 800af76:	e55e      	b.n	800aa36 <OTG_FS_IRQHandler+0x2e2>
 800af78:	9a06      	ldr	r2, [sp, #24]
 800af7a:	681b      	ldr	r3, [r3, #0]
 800af7c:	f402 22c0 	and.w	r2, r2, #393216	; 0x60000
 800af80:	f5b2 2f80 	cmp.w	r2, #262144	; 0x40000
 800af84:	f8d3 2400 	ldr.w	r2, [r3, #1024]	; 0x400
 800af88:	f022 0203 	bic.w	r2, r2, #3
 800af8c:	f8c3 2400 	str.w	r2, [r3, #1024]	; 0x400
 800af90:	f8d3 2400 	ldr.w	r2, [r3, #1024]	; 0x400
 800af94:	bf07      	ittee	eq
 800af96:	f241 7070 	movweq	r0, #6000	; 0x1770
 800af9a:	f042 0202 	orreq.w	r2, r2, #2
 800af9e:	f042 0201 	orrne.w	r2, r2, #1
 800afa2:	f64b 3080 	movwne	r0, #48000	; 0xbb80
 800afa6:	f8c3 2400 	str.w	r2, [r3, #1024]	; 0x400
 800afaa:	f8c3 0404 	str.w	r0, [r3, #1028]	; 0x404
 800afae:	e55d      	b.n	800aa6c <OTG_FS_IRQHandler+0x318>
 800afb0:	2100      	movs	r1, #0
 800afb2:	6519      	str	r1, [r3, #80]	; 0x50
 800afb4:	2104      	movs	r1, #4
 800afb6:	e756      	b.n	800ae66 <OTG_FS_IRQHandler+0x712>
 800afb8:	f8d8 100c 	ldr.w	r1, [r8, #12]
 800afbc:	eb06 0386 	add.w	r3, r6, r6, lsl #2
 800afc0:	eb05 03c3 	add.w	r3, r5, r3, lsl #3
 800afc4:	f041 0e02 	orr.w	lr, r1, #2
 800afc8:	651a      	str	r2, [r3, #80]	; 0x50
 800afca:	f103 0950 	add.w	r9, r3, #80	; 0x50
 800afce:	4631      	mov	r1, r6
 800afd0:	f8c8 e00c 	str.w	lr, [r8, #12]
 800afd4:	f001 f8ac 	bl	800c130 <USB_HC_Halt>
 800afd8:	2310      	movs	r3, #16
 800afda:	2203      	movs	r2, #3
 800afdc:	f889 2005 	strb.w	r2, [r9, #5]
 800afe0:	6828      	ldr	r0, [r5, #0]
 800afe2:	f8c8 3008 	str.w	r3, [r8, #8]
 800afe6:	68ab      	ldr	r3, [r5, #8]
 800afe8:	e4af      	b.n	800a94a <OTG_FS_IRQHandler+0x1f6>
 800afea:	f8d8 300c 	ldr.w	r3, [r8, #12]
 800afee:	f043 0302 	orr.w	r3, r3, #2
 800aff2:	4631      	mov	r1, r6
 800aff4:	f8c8 300c 	str.w	r3, [r8, #12]
 800aff8:	f001 f89a 	bl	800c130 <USB_HC_Halt>
 800affc:	2328      	movs	r3, #40	; 0x28
 800affe:	fb03 5606 	mla	r6, r3, r6, r5
 800b002:	2110      	movs	r1, #16
 800b004:	f44f 6380 	mov.w	r3, #1024	; 0x400
 800b008:	2208      	movs	r2, #8
 800b00a:	f8c8 1008 	str.w	r1, [r8, #8]
 800b00e:	6828      	ldr	r0, [r5, #0]
 800b010:	f8c8 3008 	str.w	r3, [r8, #8]
 800b014:	68ab      	ldr	r3, [r5, #8]
 800b016:	f886 2055 	strb.w	r2, [r6, #85]	; 0x55
 800b01a:	e496      	b.n	800a94a <OTG_FS_IRQHandler+0x1f6>
 800b01c:	f8d8 300c 	ldr.w	r3, [r8, #12]
 800b020:	f043 0302 	orr.w	r3, r3, #2
 800b024:	f8c8 300c 	str.w	r3, [r8, #12]
 800b028:	4649      	mov	r1, r9
 800b02a:	f001 f881 	bl	800c130 <USB_HC_Halt>
 800b02e:	9b01      	ldr	r3, [sp, #4]
 800b030:	6818      	ldr	r0, [r3, #0]
 800b032:	e65b      	b.n	800acec <OTG_FS_IRQHandler+0x598>
 800b034:	9901      	ldr	r1, [sp, #4]
 800b036:	2228      	movs	r2, #40	; 0x28
 800b038:	fb02 1606 	mla	r6, r2, r6, r1
 800b03c:	f896 2037 	ldrb.w	r2, [r6, #55]	; 0x37
 800b040:	f886 3054 	strb.w	r3, [r6, #84]	; 0x54
 800b044:	2a02      	cmp	r2, #2
 800b046:	f47f adf0 	bne.w	800ac2a <OTG_FS_IRQHandler+0x4d6>
 800b04a:	f896 3049 	ldrb.w	r3, [r6, #73]	; 0x49
 800b04e:	f083 0301 	eor.w	r3, r3, #1
 800b052:	f886 3049 	strb.w	r3, [r6, #73]	; 0x49
 800b056:	e5e8      	b.n	800ac2a <OTG_FS_IRQHandler+0x4d6>
 800b058:	9a01      	ldr	r2, [sp, #4]
 800b05a:	2328      	movs	r3, #40	; 0x28
 800b05c:	fb03 2606 	mla	r6, r3, r6, r2
 800b060:	2302      	movs	r3, #2
 800b062:	f886 3054 	strb.w	r3, [r6, #84]	; 0x54
 800b066:	e5e0      	b.n	800ac2a <OTG_FS_IRQHandler+0x4d6>
 800b068:	9901      	ldr	r1, [sp, #4]
 800b06a:	2328      	movs	r3, #40	; 0x28
 800b06c:	fb03 1606 	mla	r6, r3, r6, r1
 800b070:	2102      	movs	r1, #2
 800b072:	f886 1054 	strb.w	r1, [r6, #84]	; 0x54
 800b076:	f886 2035 	strb.w	r2, [r6, #53]	; 0x35
 800b07a:	e5d6      	b.n	800ac2a <OTG_FS_IRQHandler+0x4d6>
 800b07c:	2328      	movs	r3, #40	; 0x28
 800b07e:	fb03 5306 	mla	r3, r3, r6, r5
 800b082:	6d1a      	ldr	r2, [r3, #80]	; 0x50
 800b084:	2a03      	cmp	r2, #3
 800b086:	d91c      	bls.n	800b0c2 <OTG_FS_IRQHandler+0x96e>
 800b088:	2200      	movs	r2, #0
 800b08a:	651a      	str	r2, [r3, #80]	; 0x50
 800b08c:	2204      	movs	r2, #4
 800b08e:	f85e 3001 	ldr.w	r3, [lr, r1]
 800b092:	f04f 0c28 	mov.w	ip, #40	; 0x28
 800b096:	fb0c 5606 	mla	r6, ip, r6, r5
 800b09a:	f023 4380 	bic.w	r3, r3, #1073741824	; 0x40000000
 800b09e:	f886 2054 	strb.w	r2, [r6, #84]	; 0x54
 800b0a2:	f84e 3001 	str.w	r3, [lr, r1]
 800b0a6:	f85e 3001 	ldr.w	r3, [lr, r1]
 800b0aa:	f043 4300 	orr.w	r3, r3, #2147483648	; 0x80000000
 800b0ae:	f84e 3001 	str.w	r3, [lr, r1]
 800b0b2:	e5ba      	b.n	800ac2a <OTG_FS_IRQHandler+0x4d6>
 800b0b4:	9901      	ldr	r1, [sp, #4]
 800b0b6:	2228      	movs	r2, #40	; 0x28
 800b0b8:	fb02 1606 	mla	r6, r2, r6, r1
 800b0bc:	f886 3054 	strb.w	r3, [r6, #84]	; 0x54
 800b0c0:	e5b3      	b.n	800ac2a <OTG_FS_IRQHandler+0x4d6>
 800b0c2:	3201      	adds	r2, #1
 800b0c4:	651a      	str	r2, [r3, #80]	; 0x50
 800b0c6:	2202      	movs	r2, #2
 800b0c8:	e7e1      	b.n	800b08e <OTG_FS_IRQHandler+0x93a>
$t():
 800b0ca:	bf00      	nop

0800b0cc <HAL_GPIO_Init.constprop.108>:
HAL_GPIO_Init.constprop.108():
 800b0cc:	e92d 47f0 	stmdb	sp!, {r4, r5, r6, r7, r8, r9, sl, lr}
 800b0d0:	2300      	movs	r3, #0
 800b0d2:	f8d1 e000 	ldr.w	lr, [r1]
 800b0d6:	2701      	movs	r7, #1
 800b0d8:	f04f 0803 	mov.w	r8, #3
 800b0dc:	f04f 0c02 	mov.w	ip, #2
 800b0e0:	e002      	b.n	800b0e8 <HAL_GPIO_Init.constprop.108+0x1c>
 800b0e2:	3301      	adds	r3, #1
 800b0e4:	2b10      	cmp	r3, #16
 800b0e6:	d02b      	beq.n	800b140 <HAL_GPIO_Init.constprop.108+0x74>
 800b0e8:	fa07 f203 	lsl.w	r2, r7, r3
 800b0ec:	ea02 040e 	and.w	r4, r2, lr
 800b0f0:	42a2      	cmp	r2, r4
 800b0f2:	d1f6      	bne.n	800b0e2 <HAL_GPIO_Init.constprop.108+0x16>
 800b0f4:	005e      	lsls	r6, r3, #1
 800b0f6:	f8d0 9000 	ldr.w	r9, [r0]
 800b0fa:	688c      	ldr	r4, [r1, #8]
 800b0fc:	fa08 f506 	lsl.w	r5, r8, r6
 800b100:	43ed      	mvns	r5, r5
 800b102:	ea05 0a09 	and.w	sl, r5, r9
 800b106:	fa07 f906 	lsl.w	r9, r7, r6
 800b10a:	ea4a 0909 	orr.w	r9, sl, r9
 800b10e:	f8c0 9000 	str.w	r9, [r0]
 800b112:	f8d0 9008 	ldr.w	r9, [r0, #8]
 800b116:	fa0c fa06 	lsl.w	sl, ip, r6
 800b11a:	ea05 0909 	and.w	r9, r5, r9
 800b11e:	ea49 090a 	orr.w	r9, r9, sl
 800b122:	f8c0 9008 	str.w	r9, [r0, #8]
 800b126:	f8d0 9004 	ldr.w	r9, [r0, #4]
 800b12a:	ea29 0202 	bic.w	r2, r9, r2
 800b12e:	6042      	str	r2, [r0, #4]
 800b130:	68c2      	ldr	r2, [r0, #12]
 800b132:	40b4      	lsls	r4, r6
 800b134:	402a      	ands	r2, r5
 800b136:	3301      	adds	r3, #1
 800b138:	4322      	orrs	r2, r4
 800b13a:	2b10      	cmp	r3, #16
 800b13c:	60c2      	str	r2, [r0, #12]
 800b13e:	d1d3      	bne.n	800b0e8 <HAL_GPIO_Init.constprop.108+0x1c>
 800b140:	e8bd 87f0 	ldmia.w	sp!, {r4, r5, r6, r7, r8, r9, sl, pc}

0800b144 <HAL_NVIC_SetPriority.constprop.106>:
HAL_NVIC_SetPriority.constprop.106():
 800b144:	4b16      	ldr	r3, [pc, #88]	; (800b1a0 <HAL_NVIC_SetPriority.constprop.106+0x5c>)
 800b146:	68db      	ldr	r3, [r3, #12]
 800b148:	f3c3 2302 	ubfx	r3, r3, #8, #3
 800b14c:	b410      	push	{r4}
 800b14e:	f1c3 0407 	rsb	r4, r3, #7
 800b152:	1d1a      	adds	r2, r3, #4
 800b154:	2c04      	cmp	r4, #4
 800b156:	bf28      	it	cs
 800b158:	2404      	movcs	r4, #4
 800b15a:	2a06      	cmp	r2, #6
 800b15c:	f04f 0201 	mov.w	r2, #1
 800b160:	fa02 f204 	lsl.w	r2, r2, r4
 800b164:	f102 32ff 	add.w	r2, r2, #4294967295
 800b168:	bf8c      	ite	hi
 800b16a:	3b03      	subhi	r3, #3
 800b16c:	2300      	movls	r3, #0
 800b16e:	4011      	ands	r1, r2
 800b170:	2800      	cmp	r0, #0
 800b172:	fa01 f103 	lsl.w	r1, r1, r3
 800b176:	db0a      	blt.n	800b18e <HAL_NVIC_SetPriority.constprop.106+0x4a>
 800b178:	f100 4060 	add.w	r0, r0, #3758096384	; 0xe0000000
 800b17c:	f500 4061 	add.w	r0, r0, #57600	; 0xe100
 800b180:	0109      	lsls	r1, r1, #4
 800b182:	b2c9      	uxtb	r1, r1
 800b184:	f880 1300 	strb.w	r1, [r0, #768]	; 0x300
 800b188:	f85d 4b04 	ldr.w	r4, [sp], #4
 800b18c:	4770      	bx	lr
 800b18e:	4b05      	ldr	r3, [pc, #20]	; (800b1a4 <HAL_NVIC_SetPriority.constprop.106+0x60>)
 800b190:	f000 000f 	and.w	r0, r0, #15
 800b194:	0109      	lsls	r1, r1, #4
 800b196:	4403      	add	r3, r0
 800b198:	b2c9      	uxtb	r1, r1
 800b19a:	7619      	strb	r1, [r3, #24]
 800b19c:	e7f4      	b.n	800b188 <HAL_NVIC_SetPriority.constprop.106+0x44>
 800b19e:	bf00      	nop
 800b1a0:	e000ed00 	.word	0xe000ed00
 800b1a4:	e000ecfc 	.word	0xe000ecfc

0800b1a8 <USBH_Get_DevDesc.constprop.114>:
USBH_Get_DevDesc.constprop.114():
 800b1a8:	e92d 4ff8 	stmdb	sp!, {r3, r4, r5, r6, r7, r8, r9, sl, fp, lr}
 800b1ac:	4ccb      	ldr	r4, [pc, #812]	; (800b4dc <USBH_Get_DevDesc.constprop.114+0x334>)
 800b1ae:	78a3      	ldrb	r3, [r4, #2]
 800b1b0:	2b01      	cmp	r3, #1
 800b1b2:	d059      	beq.n	800b268 <USBH_Get_DevDesc.constprop.114+0xc0>
 800b1b4:	2b02      	cmp	r3, #2
 800b1b6:	d154      	bne.n	800b262 <USBH_Get_DevDesc.constprop.114+0xba>
 800b1b8:	7e23      	ldrb	r3, [r4, #24]
 800b1ba:	3b01      	subs	r3, #1
 800b1bc:	2b0a      	cmp	r3, #10
 800b1be:	d850      	bhi.n	800b262 <USBH_Get_DevDesc.constprop.114+0xba>
 800b1c0:	e8df f013 	tbh	[pc, r3, lsl #1]
 800b1c4:	00a6007c 	.word	0x00a6007c
 800b1c8:	019000ba 	.word	0x019000ba
 800b1cc:	0174000b 	.word	0x0174000b
 800b1d0:	011200e9 	.word	0x011200e9
 800b1d4:	01610126 	.word	0x01610126
 800b1d8:	0068      	.short	0x0068
 800b1da:	7960      	ldrb	r0, [r4, #5]
 800b1dc:	f8d4 5610 	ldr.w	r5, [r4, #1552]	; 0x610
 800b1e0:	89a6      	ldrh	r6, [r4, #12]
 800b1e2:	f894 e21d 	ldrb.w	lr, [r4, #541]	; 0x21d
 800b1e6:	68a7      	ldr	r7, [r4, #8]
 800b1e8:	0083      	lsls	r3, r0, #2
 800b1ea:	1819      	adds	r1, r3, r0
 800b1ec:	eb05 01c1 	add.w	r1, r5, r1, lsl #3
 800b1f0:	f04f 0800 	mov.w	r8, #0
 800b1f4:	2202      	movs	r2, #2
 800b1f6:	f881 8033 	strb.w	r8, [r1, #51]	; 0x33
 800b1fa:	f881 8037 	strb.w	r8, [r1, #55]	; 0x37
 800b1fe:	f881 203a 	strb.w	r2, [r1, #58]	; 0x3a
 800b202:	2e00      	cmp	r6, #0
 800b204:	f040 8181 	bne.w	800b50a <USBH_Get_DevDesc.constprop.114+0x362>
 800b208:	f04f 0c01 	mov.w	ip, #1
 800b20c:	f881 c049 	strb.w	ip, [r1, #73]	; 0x49
 800b210:	1819      	adds	r1, r3, r0
 800b212:	eb05 01c1 	add.w	r1, r5, r1, lsl #3
 800b216:	f891 c054 	ldrb.w	ip, [r1, #84]	; 0x54
 800b21a:	f881 203a 	strb.w	r2, [r1, #58]	; 0x3a
 800b21e:	f1bc 0f02 	cmp.w	ip, #2
 800b222:	d004      	beq.n	800b22e <USBH_Get_DevDesc.constprop.114+0x86>
 800b224:	fabe f28e 	clz	r2, lr
 800b228:	0952      	lsrs	r2, r2, #5
 800b22a:	f881 2035 	strb.w	r2, [r1, #53]	; 0x35
 800b22e:	4403      	add	r3, r0
 800b230:	00db      	lsls	r3, r3, #3
 800b232:	18ea      	adds	r2, r5, r3
 800b234:	f04f 0e00 	mov.w	lr, #0
 800b238:	3330      	adds	r3, #48	; 0x30
 800b23a:	f882 0031 	strb.w	r0, [r2, #49]	; 0x31
 800b23e:	63d7      	str	r7, [r2, #60]	; 0x3c
 800b240:	6416      	str	r6, [r2, #64]	; 0x40
 800b242:	f882 e054 	strb.w	lr, [r2, #84]	; 0x54
 800b246:	f8c2 e044 	str.w	lr, [r2, #68]	; 0x44
 800b24a:	18e9      	adds	r1, r5, r3
 800b24c:	f882 e055 	strb.w	lr, [r2, #85]	; 0x55
 800b250:	6828      	ldr	r0, [r5, #0]
 800b252:	7c2a      	ldrb	r2, [r5, #16]
 800b254:	f001 f878 	bl	800c348 <USB_HC_StartXfer>
 800b258:	f8d4 3608 	ldr.w	r3, [r4, #1544]	; 0x608
 800b25c:	81e3      	strh	r3, [r4, #14]
 800b25e:	2306      	movs	r3, #6
 800b260:	7623      	strb	r3, [r4, #24]
 800b262:	2001      	movs	r0, #1
 800b264:	e8bd 8ff8 	ldmia.w	sp!, {r3, r4, r5, r6, r7, r8, r9, sl, fp, pc}
 800b268:	f04f 0e80 	mov.w	lr, #128	; 0x80
 800b26c:	2706      	movs	r7, #6
 800b26e:	f44f 7680 	mov.w	r6, #256	; 0x100
 800b272:	2500      	movs	r5, #0
 800b274:	f104 011c 	add.w	r1, r4, #28
 800b278:	2202      	movs	r2, #2
 800b27a:	82e0      	strh	r0, [r4, #22]
 800b27c:	f884 e010 	strb.w	lr, [r4, #16]
 800b280:	7467      	strb	r7, [r4, #17]
 800b282:	8266      	strh	r6, [r4, #18]
 800b284:	82a5      	strh	r5, [r4, #20]
 800b286:	81a0      	strh	r0, [r4, #12]
 800b288:	7623      	strb	r3, [r4, #24]
 800b28a:	4618      	mov	r0, r3
 800b28c:	60a1      	str	r1, [r4, #8]
 800b28e:	70a2      	strb	r2, [r4, #2]
 800b290:	e8bd 8ff8 	ldmia.w	sp!, {r3, r4, r5, r6, r7, r8, r9, sl, fp, pc}
 800b294:	7e63      	ldrb	r3, [r4, #25]
 800b296:	4d91      	ldr	r5, [pc, #580]	; (800b4dc <USBH_Get_DevDesc.constprop.114+0x334>)
 800b298:	3301      	adds	r3, #1
 800b29a:	b2db      	uxtb	r3, r3
 800b29c:	2b02      	cmp	r3, #2
 800b29e:	7663      	strb	r3, [r4, #25]
 800b2a0:	f240 8192 	bls.w	800b5c8 <USBH_Get_DevDesc.constprop.114+0x420>
 800b2a4:	f8d5 3614 	ldr.w	r3, [r5, #1556]	; 0x614
 800b2a8:	4628      	mov	r0, r5
 800b2aa:	2106      	movs	r1, #6
 800b2ac:	4798      	blx	r3
 800b2ae:	2300      	movs	r3, #0
 800b2b0:	766b      	strb	r3, [r5, #25]
 800b2b2:	2301      	movs	r3, #1
 800b2b4:	70a3      	strb	r3, [r4, #2]
 800b2b6:	2002      	movs	r0, #2
 800b2b8:	e8bd 8ff8 	ldmia.w	sp!, {r3, r4, r5, r6, r7, r8, r9, sl, fp, pc}
 800b2bc:	7966      	ldrb	r6, [r4, #5]
 800b2be:	f8d4 5610 	ldr.w	r5, [r4, #1552]	; 0x610
 800b2c2:	f8df 921c 	ldr.w	r9, [pc, #540]	; 800b4e0 <USBH_Get_DevDesc.constprop.114+0x338>
 800b2c6:	eb06 0186 	add.w	r1, r6, r6, lsl #2
 800b2ca:	00c9      	lsls	r1, r1, #3
 800b2cc:	186a      	adds	r2, r5, r1
 800b2ce:	2300      	movs	r3, #0
 800b2d0:	f04f 0a03 	mov.w	sl, #3
 800b2d4:	f882 3033 	strb.w	r3, [r2, #51]	; 0x33
 800b2d8:	f882 3037 	strb.w	r3, [r2, #55]	; 0x37
 800b2dc:	f882 a03a 	strb.w	sl, [r2, #58]	; 0x3a
 800b2e0:	f882 6031 	strb.w	r6, [r2, #49]	; 0x31
 800b2e4:	f04f 0808 	mov.w	r8, #8
 800b2e8:	3130      	adds	r1, #48	; 0x30
 800b2ea:	f8c2 903c 	str.w	r9, [r2, #60]	; 0x3c
 800b2ee:	f8c2 8040 	str.w	r8, [r2, #64]	; 0x40
 800b2f2:	f882 3054 	strb.w	r3, [r2, #84]	; 0x54
 800b2f6:	6453      	str	r3, [r2, #68]	; 0x44
 800b2f8:	f882 3055 	strb.w	r3, [r2, #85]	; 0x55
 800b2fc:	4429      	add	r1, r5
 800b2fe:	6828      	ldr	r0, [r5, #0]
 800b300:	7c2a      	ldrb	r2, [r5, #16]
 800b302:	f001 f821 	bl	800c348 <USB_HC_StartXfer>
 800b306:	2302      	movs	r3, #2
 800b308:	7623      	strb	r3, [r4, #24]
 800b30a:	2001      	movs	r0, #1
 800b30c:	e8bd 8ff8 	ldmia.w	sp!, {r3, r4, r5, r6, r7, r8, r9, sl, fp, pc}
 800b310:	7963      	ldrb	r3, [r4, #5]
 800b312:	f8d4 2610 	ldr.w	r2, [r4, #1552]	; 0x610
 800b316:	4971      	ldr	r1, [pc, #452]	; (800b4dc <USBH_Get_DevDesc.constprop.114+0x334>)
 800b318:	eb03 0383 	add.w	r3, r3, r3, lsl #2
 800b31c:	eb02 03c3 	add.w	r3, r2, r3, lsl #3
 800b320:	f893 3054 	ldrb.w	r3, [r3, #84]	; 0x54
 800b324:	2b01      	cmp	r3, #1
 800b326:	f000 816e 	beq.w	800b606 <USBH_Get_DevDesc.constprop.114+0x45e>
 800b32a:	2b04      	cmp	r3, #4
 800b32c:	d199      	bne.n	800b262 <USBH_Get_DevDesc.constprop.114+0xba>
 800b32e:	230b      	movs	r3, #11
 800b330:	7623      	strb	r3, [r4, #24]
 800b332:	2001      	movs	r0, #1
 800b334:	e8bd 8ff8 	ldmia.w	sp!, {r3, r4, r5, r6, r7, r8, r9, sl, fp, pc}
 800b338:	7927      	ldrb	r7, [r4, #4]
 800b33a:	f8d4 5610 	ldr.w	r5, [r4, #1552]	; 0x610
 800b33e:	f8d4 3608 	ldr.w	r3, [r4, #1544]	; 0x608
 800b342:	f8b4 900c 	ldrh.w	r9, [r4, #12]
 800b346:	81e3      	strh	r3, [r4, #14]
 800b348:	eb07 0187 	add.w	r1, r7, r7, lsl #2
 800b34c:	00c9      	lsls	r1, r1, #3
 800b34e:	186a      	adds	r2, r5, r1
 800b350:	2000      	movs	r0, #0
 800b352:	f04f 0801 	mov.w	r8, #1
 800b356:	f04f 0a02 	mov.w	sl, #2
 800b35a:	f882 8033 	strb.w	r8, [r2, #51]	; 0x33
 800b35e:	f882 a03a 	strb.w	sl, [r2, #58]	; 0x3a
 800b362:	f882 7031 	strb.w	r7, [r2, #49]	; 0x31
 800b366:	f101 0b30 	add.w	fp, r1, #48	; 0x30
 800b36a:	f882 0037 	strb.w	r0, [r2, #55]	; 0x37
 800b36e:	68a1      	ldr	r1, [r4, #8]
 800b370:	63d1      	str	r1, [r2, #60]	; 0x3c
 800b372:	f8c2 9040 	str.w	r9, [r2, #64]	; 0x40
 800b376:	f882 0054 	strb.w	r0, [r2, #84]	; 0x54
 800b37a:	6450      	str	r0, [r2, #68]	; 0x44
 800b37c:	f882 0055 	strb.w	r0, [r2, #85]	; 0x55
 800b380:	eb0b 0105 	add.w	r1, fp, r5
 800b384:	6828      	ldr	r0, [r5, #0]
 800b386:	7c2a      	ldrb	r2, [r5, #16]
 800b388:	f000 ffde 	bl	800c348 <USB_HC_StartXfer>
 800b38c:	2304      	movs	r3, #4
 800b38e:	4640      	mov	r0, r8
 800b390:	7623      	strb	r3, [r4, #24]
 800b392:	e8bd 8ff8 	ldmia.w	sp!, {r3, r4, r5, r6, r7, r8, r9, sl, fp, pc}
 800b396:	7927      	ldrb	r7, [r4, #4]
 800b398:	f8d4 5610 	ldr.w	r5, [r4, #1552]	; 0x610
 800b39c:	eb07 0187 	add.w	r1, r7, r7, lsl #2
 800b3a0:	00c9      	lsls	r1, r1, #3
 800b3a2:	1868      	adds	r0, r5, r1
 800b3a4:	2200      	movs	r2, #0
 800b3a6:	f04f 0801 	mov.w	r8, #1
 800b3aa:	f04f 0902 	mov.w	r9, #2
 800b3ae:	f880 8033 	strb.w	r8, [r0, #51]	; 0x33
 800b3b2:	f880 903a 	strb.w	r9, [r0, #58]	; 0x3a
 800b3b6:	f880 7031 	strb.w	r7, [r0, #49]	; 0x31
 800b3ba:	f880 2037 	strb.w	r2, [r0, #55]	; 0x37
 800b3be:	3130      	adds	r1, #48	; 0x30
 800b3c0:	63c2      	str	r2, [r0, #60]	; 0x3c
 800b3c2:	6402      	str	r2, [r0, #64]	; 0x40
 800b3c4:	f880 2054 	strb.w	r2, [r0, #84]	; 0x54
 800b3c8:	6442      	str	r2, [r0, #68]	; 0x44
 800b3ca:	f880 2055 	strb.w	r2, [r0, #85]	; 0x55
 800b3ce:	4429      	add	r1, r5
 800b3d0:	6828      	ldr	r0, [r5, #0]
 800b3d2:	7c2a      	ldrb	r2, [r5, #16]
 800b3d4:	f000 ffb8 	bl	800c348 <USB_HC_StartXfer>
 800b3d8:	f8d4 3608 	ldr.w	r3, [r4, #1544]	; 0x608
 800b3dc:	81e3      	strh	r3, [r4, #14]
 800b3de:	2308      	movs	r3, #8
 800b3e0:	4640      	mov	r0, r8
 800b3e2:	7623      	strb	r3, [r4, #24]
 800b3e4:	e8bd 8ff8 	ldmia.w	sp!, {r3, r4, r5, r6, r7, r8, r9, sl, fp, pc}
 800b3e8:	7923      	ldrb	r3, [r4, #4]
 800b3ea:	f8d4 2610 	ldr.w	r2, [r4, #1552]	; 0x610
 800b3ee:	eb03 0383 	add.w	r3, r3, r3, lsl #2
 800b3f2:	eb02 03c3 	add.w	r3, r2, r3, lsl #3
 800b3f6:	f893 3054 	ldrb.w	r3, [r3, #84]	; 0x54
 800b3fa:	2b01      	cmp	r3, #1
 800b3fc:	f000 808b 	beq.w	800b516 <USBH_Get_DevDesc.constprop.114+0x36e>
 800b400:	2b04      	cmp	r3, #4
 800b402:	d094      	beq.n	800b32e <USBH_Get_DevDesc.constprop.114+0x186>
 800b404:	2b05      	cmp	r3, #5
 800b406:	bf14      	ite	ne
 800b408:	2001      	movne	r0, #1
 800b40a:	2003      	moveq	r0, #3
 800b40c:	e8bd 8ff8 	ldmia.w	sp!, {r3, r4, r5, r6, r7, r8, r9, sl, fp, pc}
 800b410:	7965      	ldrb	r5, [r4, #5]
 800b412:	f8d4 2610 	ldr.w	r2, [r4, #1552]	; 0x610
 800b416:	f894 021d 	ldrb.w	r0, [r4, #541]	; 0x21d
 800b41a:	00a9      	lsls	r1, r5, #2
 800b41c:	194b      	adds	r3, r1, r5
 800b41e:	eb02 03c3 	add.w	r3, r2, r3, lsl #3
 800b422:	f04f 0c02 	mov.w	ip, #2
 800b426:	f893 e054 	ldrb.w	lr, [r3, #84]	; 0x54
 800b42a:	f883 c03a 	strb.w	ip, [r3, #58]	; 0x3a
 800b42e:	2700      	movs	r7, #0
 800b430:	f04f 0801 	mov.w	r8, #1
 800b434:	45e6      	cmp	lr, ip
 800b436:	f103 0630 	add.w	r6, r3, #48	; 0x30
 800b43a:	f883 7033 	strb.w	r7, [r3, #51]	; 0x33
 800b43e:	f883 7037 	strb.w	r7, [r3, #55]	; 0x37
 800b442:	f883 8049 	strb.w	r8, [r3, #73]	; 0x49
 800b446:	d003      	beq.n	800b450 <USBH_Get_DevDesc.constprop.114+0x2a8>
 800b448:	fab0 f380 	clz	r3, r0
 800b44c:	095b      	lsrs	r3, r3, #5
 800b44e:	7173      	strb	r3, [r6, #5]
 800b450:	4429      	add	r1, r5
 800b452:	00c9      	lsls	r1, r1, #3
 800b454:	1850      	adds	r0, r2, r1
 800b456:	2300      	movs	r3, #0
 800b458:	f880 5031 	strb.w	r5, [r0, #49]	; 0x31
 800b45c:	3130      	adds	r1, #48	; 0x30
 800b45e:	63c3      	str	r3, [r0, #60]	; 0x3c
 800b460:	6403      	str	r3, [r0, #64]	; 0x40
 800b462:	f880 3054 	strb.w	r3, [r0, #84]	; 0x54
 800b466:	6443      	str	r3, [r0, #68]	; 0x44
 800b468:	4411      	add	r1, r2
 800b46a:	f880 3055 	strb.w	r3, [r0, #85]	; 0x55
 800b46e:	6810      	ldr	r0, [r2, #0]
 800b470:	7c12      	ldrb	r2, [r2, #16]
 800b472:	f000 ff69 	bl	800c348 <USB_HC_StartXfer>
 800b476:	f8d4 3608 	ldr.w	r3, [r4, #1544]	; 0x608
 800b47a:	81e3      	strh	r3, [r4, #14]
 800b47c:	230a      	movs	r3, #10
 800b47e:	7623      	strb	r3, [r4, #24]
 800b480:	2001      	movs	r0, #1
 800b482:	e8bd 8ff8 	ldmia.w	sp!, {r3, r4, r5, r6, r7, r8, r9, sl, fp, pc}
 800b486:	7963      	ldrb	r3, [r4, #5]
 800b488:	f8d4 2610 	ldr.w	r2, [r4, #1552]	; 0x610
 800b48c:	eb03 0383 	add.w	r3, r3, r3, lsl #2
 800b490:	eb02 03c3 	add.w	r3, r2, r3, lsl #3
 800b494:	f893 3054 	ldrb.w	r3, [r3, #84]	; 0x54
 800b498:	2b01      	cmp	r3, #1
 800b49a:	d03c      	beq.n	800b516 <USBH_Get_DevDesc.constprop.114+0x36e>
 800b49c:	2b02      	cmp	r3, #2
 800b49e:	f47f af44 	bne.w	800b32a <USBH_Get_DevDesc.constprop.114+0x182>
 800b4a2:	2309      	movs	r3, #9
 800b4a4:	7623      	strb	r3, [r4, #24]
 800b4a6:	2001      	movs	r0, #1
 800b4a8:	e8bd 8ff8 	ldmia.w	sp!, {r3, r4, r5, r6, r7, r8, r9, sl, fp, pc}
 800b4ac:	7963      	ldrb	r3, [r4, #5]
 800b4ae:	f8d4 2610 	ldr.w	r2, [r4, #1552]	; 0x610
 800b4b2:	490a      	ldr	r1, [pc, #40]	; (800b4dc <USBH_Get_DevDesc.constprop.114+0x334>)
 800b4b4:	eb03 0383 	add.w	r3, r3, r3, lsl #2
 800b4b8:	eb02 03c3 	add.w	r3, r2, r3, lsl #3
 800b4bc:	f893 3054 	ldrb.w	r3, [r3, #84]	; 0x54
 800b4c0:	2b01      	cmp	r3, #1
 800b4c2:	f000 8098 	beq.w	800b5f6 <USBH_Get_DevDesc.constprop.114+0x44e>
 800b4c6:	2b05      	cmp	r3, #5
 800b4c8:	d079      	beq.n	800b5be <USBH_Get_DevDesc.constprop.114+0x416>
 800b4ca:	2b02      	cmp	r3, #2
 800b4cc:	f000 80a3 	beq.w	800b616 <USBH_Get_DevDesc.constprop.114+0x46e>
 800b4d0:	2b04      	cmp	r3, #4
 800b4d2:	f47f aec6 	bne.w	800b262 <USBH_Get_DevDesc.constprop.114+0xba>
 800b4d6:	230b      	movs	r3, #11
 800b4d8:	760b      	strb	r3, [r1, #24]
 800b4da:	e6ea      	b.n	800b2b2 <USBH_Get_DevDesc.constprop.114+0x10a>
 800b4dc:	2001f118 	.word	0x2001f118
 800b4e0:	2001f128 	.word	0x2001f128
 800b4e4:	7923      	ldrb	r3, [r4, #4]
 800b4e6:	f8d4 2610 	ldr.w	r2, [r4, #1552]	; 0x610
 800b4ea:	4951      	ldr	r1, [pc, #324]	; (800b630 <USBH_Get_DevDesc.constprop.114+0x488>)
 800b4ec:	eb03 0383 	add.w	r3, r3, r3, lsl #2
 800b4f0:	eb02 03c3 	add.w	r3, r2, r3, lsl #3
 800b4f4:	f893 3054 	ldrb.w	r3, [r3, #84]	; 0x54
 800b4f8:	2b01      	cmp	r3, #1
 800b4fa:	f000 8081 	beq.w	800b600 <USBH_Get_DevDesc.constprop.114+0x458>
 800b4fe:	2b05      	cmp	r3, #5
 800b500:	f47f af13 	bne.w	800b32a <USBH_Get_DevDesc.constprop.114+0x182>
 800b504:	2003      	movs	r0, #3
 800b506:	e8bd 8ff8 	ldmia.w	sp!, {r3, r4, r5, r6, r7, r8, r9, sl, fp, pc}
 800b50a:	f891 2049 	ldrb.w	r2, [r1, #73]	; 0x49
 800b50e:	2a00      	cmp	r2, #0
 800b510:	bf18      	it	ne
 800b512:	2202      	movne	r2, #2
 800b514:	e67c      	b.n	800b210 <USBH_Get_DevDesc.constprop.114+0x68>
 800b516:	f894 e01f 	ldrb.w	lr, [r4, #31]
 800b51a:	7fa3      	ldrb	r3, [r4, #30]
 800b51c:	f894 c01c 	ldrb.w	ip, [r4, #28]
 800b520:	7f67      	ldrb	r7, [r4, #29]
 800b522:	f894 6020 	ldrb.w	r6, [r4, #32]
 800b526:	f894 5021 	ldrb.w	r5, [r4, #33]	; 0x21
 800b52a:	f894 1022 	ldrb.w	r1, [r4, #34]	; 0x22
 800b52e:	f894 2023 	ldrb.w	r2, [r4, #35]	; 0x23
 800b532:	f884 c220 	strb.w	ip, [r4, #544]	; 0x220
 800b536:	eb03 230e 	add.w	r3, r3, lr, lsl #8
 800b53a:	f04f 0c00 	mov.w	ip, #0
 800b53e:	f04f 0e01 	mov.w	lr, #1
 800b542:	2808      	cmp	r0, #8
 800b544:	f8a4 3222 	strh.w	r3, [r4, #546]	; 0x222
 800b548:	f884 e002 	strb.w	lr, [r4, #2]
 800b54c:	f884 c018 	strb.w	ip, [r4, #24]
 800b550:	f884 7221 	strb.w	r7, [r4, #545]	; 0x221
 800b554:	f884 6224 	strb.w	r6, [r4, #548]	; 0x224
 800b558:	f884 5225 	strb.w	r5, [r4, #549]	; 0x225
 800b55c:	f884 1226 	strb.w	r1, [r4, #550]	; 0x226
 800b560:	f884 2227 	strb.w	r2, [r4, #551]	; 0x227
 800b564:	4b32      	ldr	r3, [pc, #200]	; (800b630 <USBH_Get_DevDesc.constprop.114+0x488>)
 800b566:	d95b      	bls.n	800b620 <USBH_Get_DevDesc.constprop.114+0x478>
 800b568:	f893 0027 	ldrb.w	r0, [r3, #39]	; 0x27
 800b56c:	f893 8025 	ldrb.w	r8, [r3, #37]	; 0x25
 800b570:	f893 4024 	ldrb.w	r4, [r3, #36]	; 0x24
 800b574:	f893 1026 	ldrb.w	r1, [r3, #38]	; 0x26
 800b578:	f893 e029 	ldrb.w	lr, [r3, #41]	; 0x29
 800b57c:	f893 2028 	ldrb.w	r2, [r3, #40]	; 0x28
 800b580:	f893 902a 	ldrb.w	r9, [r3, #42]	; 0x2a
 800b584:	f893 702b 	ldrb.w	r7, [r3, #43]	; 0x2b
 800b588:	f893 602c 	ldrb.w	r6, [r3, #44]	; 0x2c
 800b58c:	f893 502d 	ldrb.w	r5, [r3, #45]	; 0x2d
 800b590:	f883 922e 	strb.w	r9, [r3, #558]	; 0x22e
 800b594:	eb01 2100 	add.w	r1, r1, r0, lsl #8
 800b598:	eb04 2408 	add.w	r4, r4, r8, lsl #8
 800b59c:	eb02 220e 	add.w	r2, r2, lr, lsl #8
 800b5a0:	f883 722f 	strb.w	r7, [r3, #559]	; 0x22f
 800b5a4:	f883 6230 	strb.w	r6, [r3, #560]	; 0x230
 800b5a8:	f883 5231 	strb.w	r5, [r3, #561]	; 0x231
 800b5ac:	4660      	mov	r0, ip
 800b5ae:	f8a3 4228 	strh.w	r4, [r3, #552]	; 0x228
 800b5b2:	f8a3 122a 	strh.w	r1, [r3, #554]	; 0x22a
 800b5b6:	f8a3 222c 	strh.w	r2, [r3, #556]	; 0x22c
 800b5ba:	e8bd 8ff8 	ldmia.w	sp!, {r3, r4, r5, r6, r7, r8, r9, sl, fp, pc}
 800b5be:	230c      	movs	r3, #12
 800b5c0:	760b      	strb	r3, [r1, #24]
 800b5c2:	2003      	movs	r0, #3
 800b5c4:	e8bd 8ff8 	ldmia.w	sp!, {r3, r4, r5, r6, r7, r8, r9, sl, fp, pc}
 800b5c8:	f8d5 5610 	ldr.w	r5, [r5, #1552]	; 0x610
 800b5cc:	f895 3288 	ldrb.w	r3, [r5, #648]	; 0x288
 800b5d0:	2b01      	cmp	r3, #1
 800b5d2:	d008      	beq.n	800b5e6 <USBH_Get_DevDesc.constprop.114+0x43e>
 800b5d4:	2301      	movs	r3, #1
 800b5d6:	f885 3288 	strb.w	r3, [r5, #648]	; 0x288
 800b5da:	6828      	ldr	r0, [r5, #0]
 800b5dc:	f000 fce6 	bl	800bfac <USB_StopHost>
 800b5e0:	2300      	movs	r3, #0
 800b5e2:	f885 3288 	strb.w	r3, [r5, #648]	; 0x288
 800b5e6:	2001      	movs	r0, #1
 800b5e8:	7620      	strb	r0, [r4, #24]
 800b5ea:	70a0      	strb	r0, [r4, #2]
 800b5ec:	e8bd 8ff8 	ldmia.w	sp!, {r3, r4, r5, r6, r7, r8, r9, sl, fp, pc}
 800b5f0:	2a00      	cmp	r2, #0
 800b5f2:	f47f af56 	bne.w	800b4a2 <USBH_Get_DevDesc.constprop.114+0x2fa>
 800b5f6:	2307      	movs	r3, #7
 800b5f8:	7623      	strb	r3, [r4, #24]
 800b5fa:	2001      	movs	r0, #1
 800b5fc:	e8bd 8ff8 	ldmia.w	sp!, {r3, r4, r5, r6, r7, r8, r9, sl, fp, pc}
 800b600:	2309      	movs	r3, #9
 800b602:	760b      	strb	r3, [r1, #24]
 800b604:	e62d      	b.n	800b262 <USBH_Get_DevDesc.constprop.114+0xba>
 800b606:	7c0a      	ldrb	r2, [r1, #16]
 800b608:	8ac8      	ldrh	r0, [r1, #22]
 800b60a:	f022 027f 	bic.w	r2, r2, #127	; 0x7f
 800b60e:	b2d2      	uxtb	r2, r2
 800b610:	2800      	cmp	r0, #0
 800b612:	d0ed      	beq.n	800b5f0 <USBH_Get_DevDesc.constprop.114+0x448>
 800b614:	b93a      	cbnz	r2, 800b626 <USBH_Get_DevDesc.constprop.114+0x47e>
 800b616:	2305      	movs	r3, #5
 800b618:	7623      	strb	r3, [r4, #24]
 800b61a:	2001      	movs	r0, #1
 800b61c:	e8bd 8ff8 	ldmia.w	sp!, {r3, r4, r5, r6, r7, r8, r9, sl, fp, pc}
 800b620:	4660      	mov	r0, ip
 800b622:	e8bd 8ff8 	ldmia.w	sp!, {r3, r4, r5, r6, r7, r8, r9, sl, fp, pc}
 800b626:	2203      	movs	r2, #3
 800b628:	4618      	mov	r0, r3
 800b62a:	760a      	strb	r2, [r1, #24]
 800b62c:	e8bd 8ff8 	ldmia.w	sp!, {r3, r4, r5, r6, r7, r8, r9, sl, fp, pc}
 800b630:	2001f118 	.word	0x2001f118

0800b634 <USBH_Get_StringDesc.constprop.120>:
USBH_Get_StringDesc.constprop.120():
 800b634:	e92d 4ff8 	stmdb	sp!, {r3, r4, r5, r6, r7, r8, r9, sl, fp, lr}
 800b638:	4dcc      	ldr	r5, [pc, #816]	; (800b96c <USBH_Get_StringDesc.constprop.120+0x338>)
 800b63a:	78ab      	ldrb	r3, [r5, #2]
 800b63c:	2b01      	cmp	r3, #1
 800b63e:	d059      	beq.n	800b6f4 <USBH_Get_StringDesc.constprop.120+0xc0>
 800b640:	2b02      	cmp	r3, #2
 800b642:	d154      	bne.n	800b6ee <USBH_Get_StringDesc.constprop.120+0xba>
 800b644:	7e2b      	ldrb	r3, [r5, #24]
 800b646:	3b01      	subs	r3, #1
 800b648:	2b0a      	cmp	r3, #10
 800b64a:	d850      	bhi.n	800b6ee <USBH_Get_StringDesc.constprop.120+0xba>
 800b64c:	e8df f013 	tbh	[pc, r3, lsl #1]
 800b650:	00a9007e 	.word	0x00a9007e
 800b654:	019200bd 	.word	0x019200bd
 800b658:	0177000b 	.word	0x0177000b
 800b65c:	011400ea 	.word	0x011400ea
 800b660:	01640128 	.word	0x01640128
 800b664:	006a      	.short	0x006a
 800b666:	7968      	ldrb	r0, [r5, #5]
 800b668:	f8d5 4610 	ldr.w	r4, [r5, #1552]	; 0x610
 800b66c:	89ae      	ldrh	r6, [r5, #12]
 800b66e:	f895 e21d 	ldrb.w	lr, [r5, #541]	; 0x21d
 800b672:	68af      	ldr	r7, [r5, #8]
 800b674:	0083      	lsls	r3, r0, #2
 800b676:	1819      	adds	r1, r3, r0
 800b678:	eb04 01c1 	add.w	r1, r4, r1, lsl #3
 800b67c:	f04f 0800 	mov.w	r8, #0
 800b680:	2202      	movs	r2, #2
 800b682:	f881 8033 	strb.w	r8, [r1, #51]	; 0x33
 800b686:	f881 8037 	strb.w	r8, [r1, #55]	; 0x37
 800b68a:	f881 203a 	strb.w	r2, [r1, #58]	; 0x3a
 800b68e:	2e00      	cmp	r6, #0
 800b690:	f040 8182 	bne.w	800b998 <USBH_Get_StringDesc.constprop.120+0x364>
 800b694:	f04f 0c01 	mov.w	ip, #1
 800b698:	f881 c049 	strb.w	ip, [r1, #73]	; 0x49
 800b69c:	1819      	adds	r1, r3, r0
 800b69e:	eb04 01c1 	add.w	r1, r4, r1, lsl #3
 800b6a2:	f891 c054 	ldrb.w	ip, [r1, #84]	; 0x54
 800b6a6:	f881 203a 	strb.w	r2, [r1, #58]	; 0x3a
 800b6aa:	f1bc 0f02 	cmp.w	ip, #2
 800b6ae:	d004      	beq.n	800b6ba <USBH_Get_StringDesc.constprop.120+0x86>
 800b6b0:	fabe f28e 	clz	r2, lr
 800b6b4:	0952      	lsrs	r2, r2, #5
 800b6b6:	f881 2035 	strb.w	r2, [r1, #53]	; 0x35
 800b6ba:	4403      	add	r3, r0
 800b6bc:	00db      	lsls	r3, r3, #3
 800b6be:	18e2      	adds	r2, r4, r3
 800b6c0:	f04f 0e00 	mov.w	lr, #0
 800b6c4:	3330      	adds	r3, #48	; 0x30
 800b6c6:	f882 0031 	strb.w	r0, [r2, #49]	; 0x31
 800b6ca:	63d7      	str	r7, [r2, #60]	; 0x3c
 800b6cc:	6416      	str	r6, [r2, #64]	; 0x40
 800b6ce:	f882 e054 	strb.w	lr, [r2, #84]	; 0x54
 800b6d2:	f8c2 e044 	str.w	lr, [r2, #68]	; 0x44
 800b6d6:	18e1      	adds	r1, r4, r3
 800b6d8:	f882 e055 	strb.w	lr, [r2, #85]	; 0x55
 800b6dc:	6820      	ldr	r0, [r4, #0]
 800b6de:	7c22      	ldrb	r2, [r4, #16]
 800b6e0:	f000 fe32 	bl	800c348 <USB_HC_StartXfer>
 800b6e4:	f8d5 3608 	ldr.w	r3, [r5, #1544]	; 0x608
 800b6e8:	81eb      	strh	r3, [r5, #14]
 800b6ea:	2306      	movs	r3, #6
 800b6ec:	762b      	strb	r3, [r5, #24]
 800b6ee:	2001      	movs	r0, #1
 800b6f0:	e8bd 8ff8 	ldmia.w	sp!, {r3, r4, r5, r6, r7, r8, r9, sl, fp, pc}
 800b6f4:	22ff      	movs	r2, #255	; 0xff
 800b6f6:	f440 7040 	orr.w	r0, r0, #768	; 0x300
 800b6fa:	f04f 0e80 	mov.w	lr, #128	; 0x80
 800b6fe:	2706      	movs	r7, #6
 800b700:	f240 4609 	movw	r6, #1033	; 0x409
 800b704:	f105 041c 	add.w	r4, r5, #28
 800b708:	2102      	movs	r1, #2
 800b70a:	8268      	strh	r0, [r5, #18]
 800b70c:	f885 e010 	strb.w	lr, [r5, #16]
 800b710:	746f      	strb	r7, [r5, #17]
 800b712:	82ae      	strh	r6, [r5, #20]
 800b714:	82ea      	strh	r2, [r5, #22]
 800b716:	762b      	strb	r3, [r5, #24]
 800b718:	4618      	mov	r0, r3
 800b71a:	81aa      	strh	r2, [r5, #12]
 800b71c:	60ac      	str	r4, [r5, #8]
 800b71e:	70a9      	strb	r1, [r5, #2]
 800b720:	e8bd 8ff8 	ldmia.w	sp!, {r3, r4, r5, r6, r7, r8, r9, sl, fp, pc}
 800b724:	7e6b      	ldrb	r3, [r5, #25]
 800b726:	4c91      	ldr	r4, [pc, #580]	; (800b96c <USBH_Get_StringDesc.constprop.120+0x338>)
 800b728:	3301      	adds	r3, #1
 800b72a:	b2db      	uxtb	r3, r3
 800b72c:	2b02      	cmp	r3, #2
 800b72e:	766b      	strb	r3, [r5, #25]
 800b730:	f240 815a 	bls.w	800b9e8 <USBH_Get_StringDesc.constprop.120+0x3b4>
 800b734:	f8d4 3614 	ldr.w	r3, [r4, #1556]	; 0x614
 800b738:	4620      	mov	r0, r4
 800b73a:	2106      	movs	r1, #6
 800b73c:	4798      	blx	r3
 800b73e:	2300      	movs	r3, #0
 800b740:	7663      	strb	r3, [r4, #25]
 800b742:	2301      	movs	r3, #1
 800b744:	70ab      	strb	r3, [r5, #2]
 800b746:	2002      	movs	r0, #2
 800b748:	e8bd 8ff8 	ldmia.w	sp!, {r3, r4, r5, r6, r7, r8, r9, sl, fp, pc}
 800b74c:	796e      	ldrb	r6, [r5, #5]
 800b74e:	f8d5 4610 	ldr.w	r4, [r5, #1552]	; 0x610
 800b752:	f8df 921c 	ldr.w	r9, [pc, #540]	; 800b970 <USBH_Get_StringDesc.constprop.120+0x33c>
 800b756:	eb06 0386 	add.w	r3, r6, r6, lsl #2
 800b75a:	00db      	lsls	r3, r3, #3
 800b75c:	18e1      	adds	r1, r4, r3
 800b75e:	2200      	movs	r2, #0
 800b760:	f101 0750 	add.w	r7, r1, #80	; 0x50
 800b764:	f04f 0a03 	mov.w	sl, #3
 800b768:	f881 a03a 	strb.w	sl, [r1, #58]	; 0x3a
 800b76c:	f881 6031 	strb.w	r6, [r1, #49]	; 0x31
 800b770:	f881 2033 	strb.w	r2, [r1, #51]	; 0x33
 800b774:	f881 2037 	strb.w	r2, [r1, #55]	; 0x37
 800b778:	3330      	adds	r3, #48	; 0x30
 800b77a:	f04f 0808 	mov.w	r8, #8
 800b77e:	f8c1 903c 	str.w	r9, [r1, #60]	; 0x3c
 800b782:	f8c1 8040 	str.w	r8, [r1, #64]	; 0x40
 800b786:	f881 2054 	strb.w	r2, [r1, #84]	; 0x54
 800b78a:	644a      	str	r2, [r1, #68]	; 0x44
 800b78c:	6820      	ldr	r0, [r4, #0]
 800b78e:	717a      	strb	r2, [r7, #5]
 800b790:	18e1      	adds	r1, r4, r3
 800b792:	7c22      	ldrb	r2, [r4, #16]
 800b794:	f000 fdd8 	bl	800c348 <USB_HC_StartXfer>
 800b798:	2302      	movs	r3, #2
 800b79a:	762b      	strb	r3, [r5, #24]
 800b79c:	2001      	movs	r0, #1
 800b79e:	e8bd 8ff8 	ldmia.w	sp!, {r3, r4, r5, r6, r7, r8, r9, sl, fp, pc}
 800b7a2:	796b      	ldrb	r3, [r5, #5]
 800b7a4:	f8d5 2610 	ldr.w	r2, [r5, #1552]	; 0x610
 800b7a8:	4970      	ldr	r1, [pc, #448]	; (800b96c <USBH_Get_StringDesc.constprop.120+0x338>)
 800b7aa:	eb03 0383 	add.w	r3, r3, r3, lsl #2
 800b7ae:	eb02 03c3 	add.w	r3, r2, r3, lsl #3
 800b7b2:	f893 3054 	ldrb.w	r3, [r3, #84]	; 0x54
 800b7b6:	2b01      	cmp	r3, #1
 800b7b8:	f000 8134 	beq.w	800ba24 <USBH_Get_StringDesc.constprop.120+0x3f0>
 800b7bc:	2b04      	cmp	r3, #4
 800b7be:	d196      	bne.n	800b6ee <USBH_Get_StringDesc.constprop.120+0xba>
 800b7c0:	230b      	movs	r3, #11
 800b7c2:	762b      	strb	r3, [r5, #24]
 800b7c4:	2001      	movs	r0, #1
 800b7c6:	e8bd 8ff8 	ldmia.w	sp!, {r3, r4, r5, r6, r7, r8, r9, sl, fp, pc}
 800b7ca:	f895 e004 	ldrb.w	lr, [r5, #4]
 800b7ce:	f8d5 3608 	ldr.w	r3, [r5, #1544]	; 0x608
 800b7d2:	f8d5 6610 	ldr.w	r6, [r5, #1552]	; 0x610
 800b7d6:	81eb      	strh	r3, [r5, #14]
 800b7d8:	eb0e 038e 	add.w	r3, lr, lr, lsl #2
 800b7dc:	00db      	lsls	r3, r3, #3
 800b7de:	18f2      	adds	r2, r6, r3
 800b7e0:	2000      	movs	r0, #0
 800b7e2:	2401      	movs	r4, #1
 800b7e4:	f04f 0a02 	mov.w	sl, #2
 800b7e8:	89a9      	ldrh	r1, [r5, #12]
 800b7ea:	f882 4033 	strb.w	r4, [r2, #51]	; 0x33
 800b7ee:	f882 a03a 	strb.w	sl, [r2, #58]	; 0x3a
 800b7f2:	f882 e031 	strb.w	lr, [r2, #49]	; 0x31
 800b7f6:	f103 0b30 	add.w	fp, r3, #48	; 0x30
 800b7fa:	f882 0037 	strb.w	r0, [r2, #55]	; 0x37
 800b7fe:	68ab      	ldr	r3, [r5, #8]
 800b800:	63d3      	str	r3, [r2, #60]	; 0x3c
 800b802:	6411      	str	r1, [r2, #64]	; 0x40
 800b804:	f882 0054 	strb.w	r0, [r2, #84]	; 0x54
 800b808:	6450      	str	r0, [r2, #68]	; 0x44
 800b80a:	f882 0055 	strb.w	r0, [r2, #85]	; 0x55
 800b80e:	eb06 010b 	add.w	r1, r6, fp
 800b812:	6830      	ldr	r0, [r6, #0]
 800b814:	7c32      	ldrb	r2, [r6, #16]
 800b816:	f000 fd97 	bl	800c348 <USB_HC_StartXfer>
 800b81a:	2304      	movs	r3, #4
 800b81c:	4620      	mov	r0, r4
 800b81e:	762b      	strb	r3, [r5, #24]
 800b820:	e8bd 8ff8 	ldmia.w	sp!, {r3, r4, r5, r6, r7, r8, r9, sl, fp, pc}
 800b824:	792f      	ldrb	r7, [r5, #4]
 800b826:	f8d5 6610 	ldr.w	r6, [r5, #1552]	; 0x610
 800b82a:	eb07 0287 	add.w	r2, r7, r7, lsl #2
 800b82e:	00d2      	lsls	r2, r2, #3
 800b830:	18b1      	adds	r1, r6, r2
 800b832:	2300      	movs	r3, #0
 800b834:	f101 0e50 	add.w	lr, r1, #80	; 0x50
 800b838:	2401      	movs	r4, #1
 800b83a:	f04f 0902 	mov.w	r9, #2
 800b83e:	f881 4033 	strb.w	r4, [r1, #51]	; 0x33
 800b842:	f881 3037 	strb.w	r3, [r1, #55]	; 0x37
 800b846:	f881 903a 	strb.w	r9, [r1, #58]	; 0x3a
 800b84a:	f881 7031 	strb.w	r7, [r1, #49]	; 0x31
 800b84e:	3230      	adds	r2, #48	; 0x30
 800b850:	63cb      	str	r3, [r1, #60]	; 0x3c
 800b852:	640b      	str	r3, [r1, #64]	; 0x40
 800b854:	f881 3054 	strb.w	r3, [r1, #84]	; 0x54
 800b858:	644b      	str	r3, [r1, #68]	; 0x44
 800b85a:	6830      	ldr	r0, [r6, #0]
 800b85c:	f88e 3005 	strb.w	r3, [lr, #5]
 800b860:	18b1      	adds	r1, r6, r2
 800b862:	7c32      	ldrb	r2, [r6, #16]
 800b864:	f000 fd70 	bl	800c348 <USB_HC_StartXfer>
 800b868:	f8d5 3608 	ldr.w	r3, [r5, #1544]	; 0x608
 800b86c:	81eb      	strh	r3, [r5, #14]
 800b86e:	2308      	movs	r3, #8
 800b870:	4620      	mov	r0, r4
 800b872:	762b      	strb	r3, [r5, #24]
 800b874:	e8bd 8ff8 	ldmia.w	sp!, {r3, r4, r5, r6, r7, r8, r9, sl, fp, pc}
 800b878:	792b      	ldrb	r3, [r5, #4]
 800b87a:	f8d5 2610 	ldr.w	r2, [r5, #1552]	; 0x610
 800b87e:	eb03 0383 	add.w	r3, r3, r3, lsl #2
 800b882:	eb02 03c3 	add.w	r3, r2, r3, lsl #3
 800b886:	f893 3054 	ldrb.w	r3, [r3, #84]	; 0x54
 800b88a:	2b01      	cmp	r3, #1
 800b88c:	f000 808a 	beq.w	800b9a4 <USBH_Get_StringDesc.constprop.120+0x370>
 800b890:	2b04      	cmp	r3, #4
 800b892:	d095      	beq.n	800b7c0 <USBH_Get_StringDesc.constprop.120+0x18c>
 800b894:	2b05      	cmp	r3, #5
 800b896:	bf14      	ite	ne
 800b898:	2001      	movne	r0, #1
 800b89a:	2003      	moveq	r0, #3
 800b89c:	e8bd 8ff8 	ldmia.w	sp!, {r3, r4, r5, r6, r7, r8, r9, sl, fp, pc}
 800b8a0:	7968      	ldrb	r0, [r5, #5]
 800b8a2:	f8d5 4610 	ldr.w	r4, [r5, #1552]	; 0x610
 800b8a6:	f895 121d 	ldrb.w	r1, [r5, #541]	; 0x21d
 800b8aa:	0083      	lsls	r3, r0, #2
 800b8ac:	181a      	adds	r2, r3, r0
 800b8ae:	eb04 02c2 	add.w	r2, r4, r2, lsl #3
 800b8b2:	f04f 0c02 	mov.w	ip, #2
 800b8b6:	f892 e054 	ldrb.w	lr, [r2, #84]	; 0x54
 800b8ba:	f882 c03a 	strb.w	ip, [r2, #58]	; 0x3a
 800b8be:	2700      	movs	r7, #0
 800b8c0:	f04f 0801 	mov.w	r8, #1
 800b8c4:	45e6      	cmp	lr, ip
 800b8c6:	f102 0630 	add.w	r6, r2, #48	; 0x30
 800b8ca:	f882 7033 	strb.w	r7, [r2, #51]	; 0x33
 800b8ce:	f882 7037 	strb.w	r7, [r2, #55]	; 0x37
 800b8d2:	f882 8049 	strb.w	r8, [r2, #73]	; 0x49
 800b8d6:	d003      	beq.n	800b8e0 <USBH_Get_StringDesc.constprop.120+0x2ac>
 800b8d8:	fab1 f281 	clz	r2, r1
 800b8dc:	0952      	lsrs	r2, r2, #5
 800b8de:	7172      	strb	r2, [r6, #5]
 800b8e0:	4403      	add	r3, r0
 800b8e2:	00db      	lsls	r3, r3, #3
 800b8e4:	18e1      	adds	r1, r4, r3
 800b8e6:	f101 0650 	add.w	r6, r1, #80	; 0x50
 800b8ea:	2200      	movs	r2, #0
 800b8ec:	f881 0031 	strb.w	r0, [r1, #49]	; 0x31
 800b8f0:	3330      	adds	r3, #48	; 0x30
 800b8f2:	63ca      	str	r2, [r1, #60]	; 0x3c
 800b8f4:	640a      	str	r2, [r1, #64]	; 0x40
 800b8f6:	f881 2054 	strb.w	r2, [r1, #84]	; 0x54
 800b8fa:	644a      	str	r2, [r1, #68]	; 0x44
 800b8fc:	6820      	ldr	r0, [r4, #0]
 800b8fe:	7172      	strb	r2, [r6, #5]
 800b900:	18e1      	adds	r1, r4, r3
 800b902:	7c22      	ldrb	r2, [r4, #16]
 800b904:	f000 fd20 	bl	800c348 <USB_HC_StartXfer>
 800b908:	f8d5 3608 	ldr.w	r3, [r5, #1544]	; 0x608
 800b90c:	81eb      	strh	r3, [r5, #14]
 800b90e:	230a      	movs	r3, #10
 800b910:	762b      	strb	r3, [r5, #24]
 800b912:	2001      	movs	r0, #1
 800b914:	e8bd 8ff8 	ldmia.w	sp!, {r3, r4, r5, r6, r7, r8, r9, sl, fp, pc}
 800b918:	796b      	ldrb	r3, [r5, #5]
 800b91a:	f8d5 2610 	ldr.w	r2, [r5, #1552]	; 0x610
 800b91e:	eb03 0383 	add.w	r3, r3, r3, lsl #2
 800b922:	eb02 03c3 	add.w	r3, r2, r3, lsl #3
 800b926:	f893 3054 	ldrb.w	r3, [r3, #84]	; 0x54
 800b92a:	2b01      	cmp	r3, #1
 800b92c:	d03a      	beq.n	800b9a4 <USBH_Get_StringDesc.constprop.120+0x370>
 800b92e:	2b02      	cmp	r3, #2
 800b930:	f47f af44 	bne.w	800b7bc <USBH_Get_StringDesc.constprop.120+0x188>
 800b934:	2309      	movs	r3, #9
 800b936:	762b      	strb	r3, [r5, #24]
 800b938:	2001      	movs	r0, #1
 800b93a:	e8bd 8ff8 	ldmia.w	sp!, {r3, r4, r5, r6, r7, r8, r9, sl, fp, pc}
 800b93e:	796b      	ldrb	r3, [r5, #5]
 800b940:	f8d5 2610 	ldr.w	r2, [r5, #1552]	; 0x610
 800b944:	4909      	ldr	r1, [pc, #36]	; (800b96c <USBH_Get_StringDesc.constprop.120+0x338>)
 800b946:	eb03 0383 	add.w	r3, r3, r3, lsl #2
 800b94a:	eb02 03c3 	add.w	r3, r2, r3, lsl #3
 800b94e:	f893 3054 	ldrb.w	r3, [r3, #84]	; 0x54
 800b952:	2b01      	cmp	r3, #1
 800b954:	d05e      	beq.n	800ba14 <USBH_Get_StringDesc.constprop.120+0x3e0>
 800b956:	2b05      	cmp	r3, #5
 800b958:	d041      	beq.n	800b9de <USBH_Get_StringDesc.constprop.120+0x3aa>
 800b95a:	2b02      	cmp	r3, #2
 800b95c:	d06a      	beq.n	800ba34 <USBH_Get_StringDesc.constprop.120+0x400>
 800b95e:	2b04      	cmp	r3, #4
 800b960:	f47f aec5 	bne.w	800b6ee <USBH_Get_StringDesc.constprop.120+0xba>
 800b964:	230b      	movs	r3, #11
 800b966:	760b      	strb	r3, [r1, #24]
 800b968:	e6eb      	b.n	800b742 <USBH_Get_StringDesc.constprop.120+0x10e>
 800b96a:	bf00      	nop
 800b96c:	2001f118 	.word	0x2001f118
 800b970:	2001f128 	.word	0x2001f128
 800b974:	792b      	ldrb	r3, [r5, #4]
 800b976:	f8d5 2610 	ldr.w	r2, [r5, #1552]	; 0x610
 800b97a:	4933      	ldr	r1, [pc, #204]	; (800ba48 <USBH_Get_StringDesc.constprop.120+0x414>)
 800b97c:	eb03 0383 	add.w	r3, r3, r3, lsl #2
 800b980:	eb02 03c3 	add.w	r3, r2, r3, lsl #3
 800b984:	f893 3054 	ldrb.w	r3, [r3, #84]	; 0x54
 800b988:	2b01      	cmp	r3, #1
 800b98a:	d048      	beq.n	800ba1e <USBH_Get_StringDesc.constprop.120+0x3ea>
 800b98c:	2b05      	cmp	r3, #5
 800b98e:	f47f af15 	bne.w	800b7bc <USBH_Get_StringDesc.constprop.120+0x188>
 800b992:	2003      	movs	r0, #3
 800b994:	e8bd 8ff8 	ldmia.w	sp!, {r3, r4, r5, r6, r7, r8, r9, sl, fp, pc}
 800b998:	f891 2049 	ldrb.w	r2, [r1, #73]	; 0x49
 800b99c:	2a00      	cmp	r2, #0
 800b99e:	bf18      	it	ne
 800b9a0:	2202      	movne	r2, #2
 800b9a2:	e67b      	b.n	800b69c <USBH_Get_StringDesc.constprop.120+0x68>
 800b9a4:	7f6a      	ldrb	r2, [r5, #29]
 800b9a6:	4b28      	ldr	r3, [pc, #160]	; (800ba48 <USBH_Get_StringDesc.constprop.120+0x414>)
 800b9a8:	2401      	movs	r4, #1
 800b9aa:	2000      	movs	r0, #0
 800b9ac:	2a03      	cmp	r2, #3
 800b9ae:	70ac      	strb	r4, [r5, #2]
 800b9b0:	7628      	strb	r0, [r5, #24]
 800b9b2:	d001      	beq.n	800b9b8 <USBH_Get_StringDesc.constprop.120+0x384>
 800b9b4:	e8bd 8ff8 	ldmia.w	sp!, {r3, r4, r5, r6, r7, r8, r9, sl, fp, pc}
 800b9b8:	7f1a      	ldrb	r2, [r3, #28]
 800b9ba:	3a02      	subs	r2, #2
 800b9bc:	2aff      	cmp	r2, #255	; 0xff
 800b9be:	bfa8      	it	ge
 800b9c0:	22ff      	movge	r2, #255	; 0xff
 800b9c2:	b292      	uxth	r2, r2
 800b9c4:	b13a      	cbz	r2, 800b9d6 <USBH_Get_StringDesc.constprop.120+0x3a2>
 800b9c6:	182b      	adds	r3, r5, r0
 800b9c8:	3002      	adds	r0, #2
 800b9ca:	b280      	uxth	r0, r0
 800b9cc:	7f9b      	ldrb	r3, [r3, #30]
 800b9ce:	f801 3b01 	strb.w	r3, [r1], #1
 800b9d2:	4282      	cmp	r2, r0
 800b9d4:	d8f7      	bhi.n	800b9c6 <USBH_Get_StringDesc.constprop.120+0x392>
 800b9d6:	2000      	movs	r0, #0
 800b9d8:	7008      	strb	r0, [r1, #0]
 800b9da:	e8bd 8ff8 	ldmia.w	sp!, {r3, r4, r5, r6, r7, r8, r9, sl, fp, pc}
 800b9de:	230c      	movs	r3, #12
 800b9e0:	760b      	strb	r3, [r1, #24]
 800b9e2:	2003      	movs	r0, #3
 800b9e4:	e8bd 8ff8 	ldmia.w	sp!, {r3, r4, r5, r6, r7, r8, r9, sl, fp, pc}
 800b9e8:	f8d4 4610 	ldr.w	r4, [r4, #1552]	; 0x610
 800b9ec:	f894 3288 	ldrb.w	r3, [r4, #648]	; 0x288
 800b9f0:	2b01      	cmp	r3, #1
 800b9f2:	d008      	beq.n	800ba06 <USBH_Get_StringDesc.constprop.120+0x3d2>
 800b9f4:	2301      	movs	r3, #1
 800b9f6:	f884 3288 	strb.w	r3, [r4, #648]	; 0x288
 800b9fa:	6820      	ldr	r0, [r4, #0]
 800b9fc:	f000 fad6 	bl	800bfac <USB_StopHost>
 800ba00:	2300      	movs	r3, #0
 800ba02:	f884 3288 	strb.w	r3, [r4, #648]	; 0x288
 800ba06:	2001      	movs	r0, #1
 800ba08:	7628      	strb	r0, [r5, #24]
 800ba0a:	70a8      	strb	r0, [r5, #2]
 800ba0c:	e8bd 8ff8 	ldmia.w	sp!, {r3, r4, r5, r6, r7, r8, r9, sl, fp, pc}
 800ba10:	2a00      	cmp	r2, #0
 800ba12:	d18f      	bne.n	800b934 <USBH_Get_StringDesc.constprop.120+0x300>
 800ba14:	2307      	movs	r3, #7
 800ba16:	762b      	strb	r3, [r5, #24]
 800ba18:	2001      	movs	r0, #1
 800ba1a:	e8bd 8ff8 	ldmia.w	sp!, {r3, r4, r5, r6, r7, r8, r9, sl, fp, pc}
 800ba1e:	2309      	movs	r3, #9
 800ba20:	760b      	strb	r3, [r1, #24]
 800ba22:	e664      	b.n	800b6ee <USBH_Get_StringDesc.constprop.120+0xba>
 800ba24:	7c0a      	ldrb	r2, [r1, #16]
 800ba26:	8ac8      	ldrh	r0, [r1, #22]
 800ba28:	f022 027f 	bic.w	r2, r2, #127	; 0x7f
 800ba2c:	b2d2      	uxtb	r2, r2
 800ba2e:	2800      	cmp	r0, #0
 800ba30:	d0ee      	beq.n	800ba10 <USBH_Get_StringDesc.constprop.120+0x3dc>
 800ba32:	b922      	cbnz	r2, 800ba3e <USBH_Get_StringDesc.constprop.120+0x40a>
 800ba34:	2305      	movs	r3, #5
 800ba36:	762b      	strb	r3, [r5, #24]
 800ba38:	2001      	movs	r0, #1
 800ba3a:	e8bd 8ff8 	ldmia.w	sp!, {r3, r4, r5, r6, r7, r8, r9, sl, fp, pc}
 800ba3e:	2203      	movs	r2, #3
 800ba40:	4618      	mov	r0, r3
 800ba42:	760a      	strb	r2, [r1, #24]
 800ba44:	e8bd 8ff8 	ldmia.w	sp!, {r3, r4, r5, r6, r7, r8, r9, sl, fp, pc}
 800ba48:	2001f118 	.word	0x2001f118

0800ba4c <USBH_MIDI_SOFProcess.lto_priv.168>:
USBH_MIDI_SOFProcess.lto_priv.168():
 800ba4c:	2000      	movs	r0, #0
 800ba4e:	4770      	bx	lr

0800ba50 <HAL_Delay>:
HAL_Delay():
 800ba50:	b082      	sub	sp, #8
 800ba52:	4905      	ldr	r1, [pc, #20]	; (800ba68 <HAL_Delay+0x18>)
 800ba54:	9001      	str	r0, [sp, #4]
 800ba56:	6808      	ldr	r0, [r1, #0]
 800ba58:	680b      	ldr	r3, [r1, #0]
 800ba5a:	9a01      	ldr	r2, [sp, #4]
 800ba5c:	1a1b      	subs	r3, r3, r0
 800ba5e:	4293      	cmp	r3, r2
 800ba60:	d3fa      	bcc.n	800ba58 <HAL_Delay+0x8>
 800ba62:	b002      	add	sp, #8
 800ba64:	4770      	bx	lr
 800ba66:	bf00      	nop
 800ba68:	2001f734 	.word	0x2001f734

0800ba6c <USBH_CtlReq>:
USBH_CtlReq():
 800ba6c:	e92d 4ff8 	stmdb	sp!, {r3, r4, r5, r6, r7, r8, r9, sl, fp, lr}
 800ba70:	4605      	mov	r5, r0
 800ba72:	7880      	ldrb	r0, [r0, #2]
 800ba74:	2801      	cmp	r0, #1
 800ba76:	d017      	beq.n	800baa8 <USBH_CtlReq+0x3c>
 800ba78:	2802      	cmp	r0, #2
 800ba7a:	d112      	bne.n	800baa2 <USBH_CtlReq+0x36>
 800ba7c:	7e2b      	ldrb	r3, [r5, #24]
 800ba7e:	3b01      	subs	r3, #1
 800ba80:	2b0a      	cmp	r3, #10
 800ba82:	d80e      	bhi.n	800baa2 <USBH_CtlReq+0x36>
 800ba84:	e8df f013 	tbh	[pc, r3, lsl #1]
 800ba88:	0054002a 	.word	0x0054002a
 800ba8c:	01640067 	.word	0x01640067
 800ba90:	0175011e 	.word	0x0175011e
 800ba94:	00bd0095 	.word	0x00bd0095
 800ba98:	010c00d1 	.word	0x010c00d1
 800ba9c:	0017      	.short	0x0017
 800ba9e:	2309      	movs	r3, #9
 800baa0:	762b      	strb	r3, [r5, #24]
 800baa2:	2001      	movs	r0, #1
 800baa4:	e8bd 8ff8 	ldmia.w	sp!, {r3, r4, r5, r6, r7, r8, r9, sl, fp, pc}
 800baa8:	2302      	movs	r3, #2
 800baaa:	60a9      	str	r1, [r5, #8]
 800baac:	81aa      	strh	r2, [r5, #12]
 800baae:	7628      	strb	r0, [r5, #24]
 800bab0:	70ab      	strb	r3, [r5, #2]
 800bab2:	e8bd 8ff8 	ldmia.w	sp!, {r3, r4, r5, r6, r7, r8, r9, sl, fp, pc}
 800bab6:	7e6b      	ldrb	r3, [r5, #25]
 800bab8:	3301      	adds	r3, #1
 800baba:	b2db      	uxtb	r3, r3
 800babc:	2b02      	cmp	r3, #2
 800babe:	766b      	strb	r3, [r5, #25]
 800bac0:	f240 817d 	bls.w	800bdbe <USBH_CtlReq+0x352>
 800bac4:	f8d5 3614 	ldr.w	r3, [r5, #1556]	; 0x614
 800bac8:	4628      	mov	r0, r5
 800baca:	2106      	movs	r1, #6
 800bacc:	4798      	blx	r3
 800bace:	2300      	movs	r3, #0
 800bad0:	766b      	strb	r3, [r5, #25]
 800bad2:	2301      	movs	r3, #1
 800bad4:	70ab      	strb	r3, [r5, #2]
 800bad6:	2002      	movs	r0, #2
 800bad8:	e8bd 8ff8 	ldmia.w	sp!, {r3, r4, r5, r6, r7, r8, r9, sl, fp, pc}
 800badc:	796e      	ldrb	r6, [r5, #5]
 800bade:	f8d5 4610 	ldr.w	r4, [r5, #1552]	; 0x610
 800bae2:	eb06 0186 	add.w	r1, r6, r6, lsl #2
 800bae6:	00c9      	lsls	r1, r1, #3
 800bae8:	1862      	adds	r2, r4, r1
 800baea:	2300      	movs	r3, #0
 800baec:	f04f 0a03 	mov.w	sl, #3
 800baf0:	f882 3033 	strb.w	r3, [r2, #51]	; 0x33
 800baf4:	f882 3037 	strb.w	r3, [r2, #55]	; 0x37
 800baf8:	f882 a03a 	strb.w	sl, [r2, #58]	; 0x3a
 800bafc:	f882 6031 	strb.w	r6, [r2, #49]	; 0x31
 800bb00:	f105 0910 	add.w	r9, r5, #16
 800bb04:	f04f 0808 	mov.w	r8, #8
 800bb08:	3130      	adds	r1, #48	; 0x30
 800bb0a:	f8c2 903c 	str.w	r9, [r2, #60]	; 0x3c
 800bb0e:	f8c2 8040 	str.w	r8, [r2, #64]	; 0x40
 800bb12:	f882 3054 	strb.w	r3, [r2, #84]	; 0x54
 800bb16:	6453      	str	r3, [r2, #68]	; 0x44
 800bb18:	f882 3055 	strb.w	r3, [r2, #85]	; 0x55
 800bb1c:	4421      	add	r1, r4
 800bb1e:	6820      	ldr	r0, [r4, #0]
 800bb20:	7c22      	ldrb	r2, [r4, #16]
 800bb22:	f000 fc11 	bl	800c348 <USB_HC_StartXfer>
 800bb26:	2302      	movs	r3, #2
 800bb28:	762b      	strb	r3, [r5, #24]
 800bb2a:	2001      	movs	r0, #1
 800bb2c:	e8bd 8ff8 	ldmia.w	sp!, {r3, r4, r5, r6, r7, r8, r9, sl, fp, pc}
 800bb30:	796b      	ldrb	r3, [r5, #5]
 800bb32:	f8d5 2610 	ldr.w	r2, [r5, #1552]	; 0x610
 800bb36:	eb03 0383 	add.w	r3, r3, r3, lsl #2
 800bb3a:	eb02 03c3 	add.w	r3, r2, r3, lsl #3
 800bb3e:	f893 0054 	ldrb.w	r0, [r3, #84]	; 0x54
 800bb42:	2801      	cmp	r0, #1
 800bb44:	f000 8155 	beq.w	800bdf2 <USBH_CtlReq+0x386>
 800bb48:	2804      	cmp	r0, #4
 800bb4a:	d1aa      	bne.n	800baa2 <USBH_CtlReq+0x36>
 800bb4c:	230b      	movs	r3, #11
 800bb4e:	762b      	strb	r3, [r5, #24]
 800bb50:	2001      	movs	r0, #1
 800bb52:	e8bd 8ff8 	ldmia.w	sp!, {r3, r4, r5, r6, r7, r8, r9, sl, fp, pc}
 800bb56:	792f      	ldrb	r7, [r5, #4]
 800bb58:	f8d5 2610 	ldr.w	r2, [r5, #1552]	; 0x610
 800bb5c:	f8d5 3608 	ldr.w	r3, [r5, #1544]	; 0x608
 800bb60:	81eb      	strh	r3, [r5, #14]
 800bb62:	eb07 0187 	add.w	r1, r7, r7, lsl #2
 800bb66:	00c9      	lsls	r1, r1, #3
 800bb68:	1853      	adds	r3, r2, r1
 800bb6a:	2000      	movs	r0, #0
 800bb6c:	2401      	movs	r4, #1
 800bb6e:	f04f 0a02 	mov.w	sl, #2
 800bb72:	f8d5 b008 	ldr.w	fp, [r5, #8]
 800bb76:	f8b5 900c 	ldrh.w	r9, [r5, #12]
 800bb7a:	f883 4033 	strb.w	r4, [r3, #51]	; 0x33
 800bb7e:	f883 a03a 	strb.w	sl, [r3, #58]	; 0x3a
 800bb82:	f883 7031 	strb.w	r7, [r3, #49]	; 0x31
 800bb86:	f883 0037 	strb.w	r0, [r3, #55]	; 0x37
 800bb8a:	3130      	adds	r1, #48	; 0x30
 800bb8c:	f8c3 b03c 	str.w	fp, [r3, #60]	; 0x3c
 800bb90:	f8c3 9040 	str.w	r9, [r3, #64]	; 0x40
 800bb94:	f883 0054 	strb.w	r0, [r3, #84]	; 0x54
 800bb98:	6458      	str	r0, [r3, #68]	; 0x44
 800bb9a:	4411      	add	r1, r2
 800bb9c:	f883 0055 	strb.w	r0, [r3, #85]	; 0x55
 800bba0:	6810      	ldr	r0, [r2, #0]
 800bba2:	7c12      	ldrb	r2, [r2, #16]
 800bba4:	f000 fbd0 	bl	800c348 <USB_HC_StartXfer>
 800bba8:	2304      	movs	r3, #4
 800bbaa:	4620      	mov	r0, r4
 800bbac:	762b      	strb	r3, [r5, #24]
 800bbae:	e8bd 8ff8 	ldmia.w	sp!, {r3, r4, r5, r6, r7, r8, r9, sl, fp, pc}
 800bbb2:	792f      	ldrb	r7, [r5, #4]
 800bbb4:	f8d5 6610 	ldr.w	r6, [r5, #1552]	; 0x610
 800bbb8:	eb07 0187 	add.w	r1, r7, r7, lsl #2
 800bbbc:	00c9      	lsls	r1, r1, #3
 800bbbe:	1872      	adds	r2, r6, r1
 800bbc0:	2300      	movs	r3, #0
 800bbc2:	2401      	movs	r4, #1
 800bbc4:	f04f 0902 	mov.w	r9, #2
 800bbc8:	f882 4033 	strb.w	r4, [r2, #51]	; 0x33
 800bbcc:	f882 3037 	strb.w	r3, [r2, #55]	; 0x37
 800bbd0:	f882 903a 	strb.w	r9, [r2, #58]	; 0x3a
 800bbd4:	f882 7031 	strb.w	r7, [r2, #49]	; 0x31
 800bbd8:	3130      	adds	r1, #48	; 0x30
 800bbda:	63d3      	str	r3, [r2, #60]	; 0x3c
 800bbdc:	6413      	str	r3, [r2, #64]	; 0x40
 800bbde:	f882 3054 	strb.w	r3, [r2, #84]	; 0x54
 800bbe2:	6453      	str	r3, [r2, #68]	; 0x44
 800bbe4:	f882 3055 	strb.w	r3, [r2, #85]	; 0x55
 800bbe8:	4431      	add	r1, r6
 800bbea:	6830      	ldr	r0, [r6, #0]
 800bbec:	7c32      	ldrb	r2, [r6, #16]
 800bbee:	f000 fbab 	bl	800c348 <USB_HC_StartXfer>
 800bbf2:	f8d5 3608 	ldr.w	r3, [r5, #1544]	; 0x608
 800bbf6:	81eb      	strh	r3, [r5, #14]
 800bbf8:	2308      	movs	r3, #8
 800bbfa:	4620      	mov	r0, r4
 800bbfc:	762b      	strb	r3, [r5, #24]
 800bbfe:	e8bd 8ff8 	ldmia.w	sp!, {r3, r4, r5, r6, r7, r8, r9, sl, fp, pc}
 800bc02:	792b      	ldrb	r3, [r5, #4]
 800bc04:	f8d5 2610 	ldr.w	r2, [r5, #1552]	; 0x610
 800bc08:	eb03 0383 	add.w	r3, r3, r3, lsl #2
 800bc0c:	eb02 03c3 	add.w	r3, r2, r3, lsl #3
 800bc10:	f893 3054 	ldrb.w	r3, [r3, #84]	; 0x54
 800bc14:	2b01      	cmp	r3, #1
 800bc16:	f000 80c7 	beq.w	800bda8 <USBH_CtlReq+0x33c>
 800bc1a:	2b04      	cmp	r3, #4
 800bc1c:	d096      	beq.n	800bb4c <USBH_CtlReq+0xe0>
 800bc1e:	2b05      	cmp	r3, #5
 800bc20:	bf14      	ite	ne
 800bc22:	2001      	movne	r0, #1
 800bc24:	2003      	moveq	r0, #3
 800bc26:	e8bd 8ff8 	ldmia.w	sp!, {r3, r4, r5, r6, r7, r8, r9, sl, fp, pc}
 800bc2a:	796c      	ldrb	r4, [r5, #5]
 800bc2c:	f8d5 2610 	ldr.w	r2, [r5, #1552]	; 0x610
 800bc30:	f895 021d 	ldrb.w	r0, [r5, #541]	; 0x21d
 800bc34:	00a1      	lsls	r1, r4, #2
 800bc36:	190b      	adds	r3, r1, r4
 800bc38:	eb02 03c3 	add.w	r3, r2, r3, lsl #3
 800bc3c:	f04f 0c02 	mov.w	ip, #2
 800bc40:	f893 e054 	ldrb.w	lr, [r3, #84]	; 0x54
 800bc44:	f883 c03a 	strb.w	ip, [r3, #58]	; 0x3a
 800bc48:	2700      	movs	r7, #0
 800bc4a:	f04f 0801 	mov.w	r8, #1
 800bc4e:	45e6      	cmp	lr, ip
 800bc50:	f103 0630 	add.w	r6, r3, #48	; 0x30
 800bc54:	f883 7033 	strb.w	r7, [r3, #51]	; 0x33
 800bc58:	f883 7037 	strb.w	r7, [r3, #55]	; 0x37
 800bc5c:	f883 8049 	strb.w	r8, [r3, #73]	; 0x49
 800bc60:	d003      	beq.n	800bc6a <USBH_CtlReq+0x1fe>
 800bc62:	fab0 f380 	clz	r3, r0
 800bc66:	095b      	lsrs	r3, r3, #5
 800bc68:	7173      	strb	r3, [r6, #5]
 800bc6a:	4421      	add	r1, r4
 800bc6c:	00c9      	lsls	r1, r1, #3
 800bc6e:	1850      	adds	r0, r2, r1
 800bc70:	2300      	movs	r3, #0
 800bc72:	f880 4031 	strb.w	r4, [r0, #49]	; 0x31
 800bc76:	3130      	adds	r1, #48	; 0x30
 800bc78:	63c3      	str	r3, [r0, #60]	; 0x3c
 800bc7a:	6403      	str	r3, [r0, #64]	; 0x40
 800bc7c:	f880 3054 	strb.w	r3, [r0, #84]	; 0x54
 800bc80:	6443      	str	r3, [r0, #68]	; 0x44
 800bc82:	4411      	add	r1, r2
 800bc84:	f880 3055 	strb.w	r3, [r0, #85]	; 0x55
 800bc88:	6810      	ldr	r0, [r2, #0]
 800bc8a:	7c12      	ldrb	r2, [r2, #16]
 800bc8c:	f000 fb5c 	bl	800c348 <USB_HC_StartXfer>
 800bc90:	f8d5 3608 	ldr.w	r3, [r5, #1544]	; 0x608
 800bc94:	81eb      	strh	r3, [r5, #14]
 800bc96:	230a      	movs	r3, #10
 800bc98:	762b      	strb	r3, [r5, #24]
 800bc9a:	2001      	movs	r0, #1
 800bc9c:	e8bd 8ff8 	ldmia.w	sp!, {r3, r4, r5, r6, r7, r8, r9, sl, fp, pc}
 800bca0:	796b      	ldrb	r3, [r5, #5]
 800bca2:	f8d5 2610 	ldr.w	r2, [r5, #1552]	; 0x610
 800bca6:	eb03 0383 	add.w	r3, r3, r3, lsl #2
 800bcaa:	eb02 03c3 	add.w	r3, r2, r3, lsl #3
 800bcae:	f893 3054 	ldrb.w	r3, [r3, #84]	; 0x54
 800bcb2:	2b01      	cmp	r3, #1
 800bcb4:	d078      	beq.n	800bda8 <USBH_CtlReq+0x33c>
 800bcb6:	2b02      	cmp	r3, #2
 800bcb8:	f000 80a8 	beq.w	800be0c <USBH_CtlReq+0x3a0>
 800bcbc:	2b04      	cmp	r3, #4
 800bcbe:	f47f aef0 	bne.w	800baa2 <USBH_CtlReq+0x36>
 800bcc2:	e743      	b.n	800bb4c <USBH_CtlReq+0xe0>
 800bcc4:	7968      	ldrb	r0, [r5, #5]
 800bcc6:	f8d5 4610 	ldr.w	r4, [r5, #1552]	; 0x610
 800bcca:	89ae      	ldrh	r6, [r5, #12]
 800bccc:	68af      	ldr	r7, [r5, #8]
 800bcce:	f895 e21d 	ldrb.w	lr, [r5, #541]	; 0x21d
 800bcd2:	0083      	lsls	r3, r0, #2
 800bcd4:	1819      	adds	r1, r3, r0
 800bcd6:	eb04 01c1 	add.w	r1, r4, r1, lsl #3
 800bcda:	f04f 0800 	mov.w	r8, #0
 800bcde:	2202      	movs	r2, #2
 800bce0:	f881 8033 	strb.w	r8, [r1, #51]	; 0x33
 800bce4:	f881 8037 	strb.w	r8, [r1, #55]	; 0x37
 800bce8:	f881 203a 	strb.w	r2, [r1, #58]	; 0x3a
 800bcec:	2e00      	cmp	r6, #0
 800bcee:	d155      	bne.n	800bd9c <USBH_CtlReq+0x330>
 800bcf0:	f04f 0c01 	mov.w	ip, #1
 800bcf4:	f881 c049 	strb.w	ip, [r1, #73]	; 0x49
 800bcf8:	1819      	adds	r1, r3, r0
 800bcfa:	eb04 01c1 	add.w	r1, r4, r1, lsl #3
 800bcfe:	f891 c054 	ldrb.w	ip, [r1, #84]	; 0x54
 800bd02:	f881 203a 	strb.w	r2, [r1, #58]	; 0x3a
 800bd06:	f1bc 0f02 	cmp.w	ip, #2
 800bd0a:	d004      	beq.n	800bd16 <USBH_CtlReq+0x2aa>
 800bd0c:	fabe f28e 	clz	r2, lr
 800bd10:	0952      	lsrs	r2, r2, #5
 800bd12:	f881 2035 	strb.w	r2, [r1, #53]	; 0x35
 800bd16:	4403      	add	r3, r0
 800bd18:	00db      	lsls	r3, r3, #3
 800bd1a:	18e2      	adds	r2, r4, r3
 800bd1c:	f04f 0e00 	mov.w	lr, #0
 800bd20:	3330      	adds	r3, #48	; 0x30
 800bd22:	f882 0031 	strb.w	r0, [r2, #49]	; 0x31
 800bd26:	63d7      	str	r7, [r2, #60]	; 0x3c
 800bd28:	6416      	str	r6, [r2, #64]	; 0x40
 800bd2a:	f882 e054 	strb.w	lr, [r2, #84]	; 0x54
 800bd2e:	f8c2 e044 	str.w	lr, [r2, #68]	; 0x44
 800bd32:	18e1      	adds	r1, r4, r3
 800bd34:	f882 e055 	strb.w	lr, [r2, #85]	; 0x55
 800bd38:	6820      	ldr	r0, [r4, #0]
 800bd3a:	7c22      	ldrb	r2, [r4, #16]
 800bd3c:	f000 fb04 	bl	800c348 <USB_HC_StartXfer>
 800bd40:	f8d5 3608 	ldr.w	r3, [r5, #1544]	; 0x608
 800bd44:	81eb      	strh	r3, [r5, #14]
 800bd46:	2306      	movs	r3, #6
 800bd48:	762b      	strb	r3, [r5, #24]
 800bd4a:	2001      	movs	r0, #1
 800bd4c:	e8bd 8ff8 	ldmia.w	sp!, {r3, r4, r5, r6, r7, r8, r9, sl, fp, pc}
 800bd50:	792b      	ldrb	r3, [r5, #4]
 800bd52:	f8d5 2610 	ldr.w	r2, [r5, #1552]	; 0x610
 800bd56:	eb03 0383 	add.w	r3, r3, r3, lsl #2
 800bd5a:	eb02 03c3 	add.w	r3, r2, r3, lsl #3
 800bd5e:	f893 3054 	ldrb.w	r3, [r3, #84]	; 0x54
 800bd62:	2b01      	cmp	r3, #1
 800bd64:	f43f ae9b 	beq.w	800ba9e <USBH_CtlReq+0x32>
 800bd68:	2b05      	cmp	r3, #5
 800bd6a:	d1a7      	bne.n	800bcbc <USBH_CtlReq+0x250>
 800bd6c:	2003      	movs	r0, #3
 800bd6e:	e8bd 8ff8 	ldmia.w	sp!, {r3, r4, r5, r6, r7, r8, r9, sl, fp, pc}
 800bd72:	796b      	ldrb	r3, [r5, #5]
 800bd74:	f8d5 2610 	ldr.w	r2, [r5, #1552]	; 0x610
 800bd78:	eb03 0383 	add.w	r3, r3, r3, lsl #2
 800bd7c:	eb02 03c3 	add.w	r3, r2, r3, lsl #3
 800bd80:	f893 3054 	ldrb.w	r3, [r3, #84]	; 0x54
 800bd84:	2b01      	cmp	r3, #1
 800bd86:	d02f      	beq.n	800bde8 <USBH_CtlReq+0x37c>
 800bd88:	2b05      	cmp	r3, #5
 800bd8a:	d013      	beq.n	800bdb4 <USBH_CtlReq+0x348>
 800bd8c:	2b02      	cmp	r3, #2
 800bd8e:	d038      	beq.n	800be02 <USBH_CtlReq+0x396>
 800bd90:	2b04      	cmp	r3, #4
 800bd92:	f47f ae86 	bne.w	800baa2 <USBH_CtlReq+0x36>
 800bd96:	230b      	movs	r3, #11
 800bd98:	762b      	strb	r3, [r5, #24]
 800bd9a:	e69a      	b.n	800bad2 <USBH_CtlReq+0x66>
 800bd9c:	f891 2049 	ldrb.w	r2, [r1, #73]	; 0x49
 800bda0:	2a00      	cmp	r2, #0
 800bda2:	bf18      	it	ne
 800bda4:	2202      	movne	r2, #2
 800bda6:	e7a7      	b.n	800bcf8 <USBH_CtlReq+0x28c>
 800bda8:	2301      	movs	r3, #1
 800bdaa:	2000      	movs	r0, #0
 800bdac:	70ab      	strb	r3, [r5, #2]
 800bdae:	7628      	strb	r0, [r5, #24]
 800bdb0:	e8bd 8ff8 	ldmia.w	sp!, {r3, r4, r5, r6, r7, r8, r9, sl, fp, pc}
 800bdb4:	230c      	movs	r3, #12
 800bdb6:	762b      	strb	r3, [r5, #24]
 800bdb8:	2003      	movs	r0, #3
 800bdba:	e8bd 8ff8 	ldmia.w	sp!, {r3, r4, r5, r6, r7, r8, r9, sl, fp, pc}
 800bdbe:	f8d5 4610 	ldr.w	r4, [r5, #1552]	; 0x610
 800bdc2:	f894 3288 	ldrb.w	r3, [r4, #648]	; 0x288
 800bdc6:	2b01      	cmp	r3, #1
 800bdc8:	d008      	beq.n	800bddc <USBH_CtlReq+0x370>
 800bdca:	2301      	movs	r3, #1
 800bdcc:	f884 3288 	strb.w	r3, [r4, #648]	; 0x288
 800bdd0:	6820      	ldr	r0, [r4, #0]
 800bdd2:	f000 f8eb 	bl	800bfac <USB_StopHost>
 800bdd6:	2300      	movs	r3, #0
 800bdd8:	f884 3288 	strb.w	r3, [r4, #648]	; 0x288
 800bddc:	2001      	movs	r0, #1
 800bdde:	7628      	strb	r0, [r5, #24]
 800bde0:	70a8      	strb	r0, [r5, #2]
 800bde2:	e8bd 8ff8 	ldmia.w	sp!, {r3, r4, r5, r6, r7, r8, r9, sl, fp, pc}
 800bde6:	b98b      	cbnz	r3, 800be0c <USBH_CtlReq+0x3a0>
 800bde8:	2307      	movs	r3, #7
 800bdea:	762b      	strb	r3, [r5, #24]
 800bdec:	2001      	movs	r0, #1
 800bdee:	e8bd 8ff8 	ldmia.w	sp!, {r3, r4, r5, r6, r7, r8, r9, sl, fp, pc}
 800bdf2:	7c2b      	ldrb	r3, [r5, #16]
 800bdf4:	8aea      	ldrh	r2, [r5, #22]
 800bdf6:	f023 037f 	bic.w	r3, r3, #127	; 0x7f
 800bdfa:	b2db      	uxtb	r3, r3
 800bdfc:	2a00      	cmp	r2, #0
 800bdfe:	d0f2      	beq.n	800bde6 <USBH_CtlReq+0x37a>
 800be00:	b94b      	cbnz	r3, 800be16 <USBH_CtlReq+0x3aa>
 800be02:	2305      	movs	r3, #5
 800be04:	762b      	strb	r3, [r5, #24]
 800be06:	2001      	movs	r0, #1
 800be08:	e8bd 8ff8 	ldmia.w	sp!, {r3, r4, r5, r6, r7, r8, r9, sl, fp, pc}
 800be0c:	2309      	movs	r3, #9
 800be0e:	762b      	strb	r3, [r5, #24]
 800be10:	2001      	movs	r0, #1
 800be12:	e8bd 8ff8 	ldmia.w	sp!, {r3, r4, r5, r6, r7, r8, r9, sl, fp, pc}
 800be16:	2303      	movs	r3, #3
 800be18:	762b      	strb	r3, [r5, #24]
 800be1a:	e8bd 8ff8 	ldmia.w	sp!, {r3, r4, r5, r6, r7, r8, r9, sl, fp, pc}
$t():
 800be1e:	bf00      	nop

0800be20 <USB_WritePacket>:
USB_WritePacket():
 800be20:	b430      	push	{r4, r5}
 800be22:	f89d 4008 	ldrb.w	r4, [sp, #8]
 800be26:	b964      	cbnz	r4, 800be42 <USB_WritePacket+0x22>
 800be28:	3303      	adds	r3, #3
 800be2a:	109b      	asrs	r3, r3, #2
 800be2c:	d009      	beq.n	800be42 <USB_WritePacket+0x22>
 800be2e:	f500 5080 	add.w	r0, r0, #4096	; 0x1000
 800be32:	eb00 3202 	add.w	r2, r0, r2, lsl #12
 800be36:	3401      	adds	r4, #1
 800be38:	f851 5b04 	ldr.w	r5, [r1], #4
 800be3c:	6015      	str	r5, [r2, #0]
 800be3e:	42a3      	cmp	r3, r4
 800be40:	d1f9      	bne.n	800be36 <USB_WritePacket+0x16>
 800be42:	2000      	movs	r0, #0
 800be44:	bc30      	pop	{r4, r5}
 800be46:	4770      	bx	lr

0800be48 <USB_FlushRxFifo>:
USB_FlushRxFifo():
 800be48:	2310      	movs	r3, #16
 800be4a:	6103      	str	r3, [r0, #16]
 800be4c:	4a05      	ldr	r2, [pc, #20]	; (800be64 <USB_FlushRxFifo+0x1c>)
 800be4e:	e001      	b.n	800be54 <USB_FlushRxFifo+0xc>
 800be50:	3a01      	subs	r2, #1
 800be52:	d005      	beq.n	800be60 <USB_FlushRxFifo+0x18>
 800be54:	6903      	ldr	r3, [r0, #16]
 800be56:	f013 0310 	ands.w	r3, r3, #16
 800be5a:	d1f9      	bne.n	800be50 <USB_FlushRxFifo+0x8>
 800be5c:	4618      	mov	r0, r3
 800be5e:	4770      	bx	lr
 800be60:	2003      	movs	r0, #3
 800be62:	4770      	bx	lr
 800be64:	00030d40 	.word	0x00030d40

0800be68 <USB_FlushTxFifo>:
USB_FlushTxFifo():
 800be68:	0149      	lsls	r1, r1, #5
 800be6a:	f041 0120 	orr.w	r1, r1, #32
 800be6e:	6101      	str	r1, [r0, #16]
 800be70:	4a05      	ldr	r2, [pc, #20]	; (800be88 <USB_FlushTxFifo+0x20>)
 800be72:	e001      	b.n	800be78 <USB_FlushTxFifo+0x10>
 800be74:	3a01      	subs	r2, #1
 800be76:	d005      	beq.n	800be84 <USB_FlushTxFifo+0x1c>
 800be78:	6903      	ldr	r3, [r0, #16]
 800be7a:	f013 0320 	ands.w	r3, r3, #32
 800be7e:	d1f9      	bne.n	800be74 <USB_FlushTxFifo+0xc>
 800be80:	4618      	mov	r0, r3
 800be82:	4770      	bx	lr
 800be84:	2003      	movs	r0, #3
 800be86:	4770      	bx	lr
 800be88:	00030d40 	.word	0x00030d40

0800be8c <USB_DisableGlobalInt>:
USB_DisableGlobalInt():
 800be8c:	4602      	mov	r2, r0
 800be8e:	2000      	movs	r0, #0
 800be90:	6893      	ldr	r3, [r2, #8]
 800be92:	f023 0301 	bic.w	r3, r3, #1
 800be96:	6093      	str	r3, [r2, #8]
 800be98:	4770      	bx	lr
 800be9a:	bf00      	nop

0800be9c <USB_EnableGlobalInt>:
USB_EnableGlobalInt():
 800be9c:	4602      	mov	r2, r0
 800be9e:	2000      	movs	r0, #0
 800bea0:	6893      	ldr	r3, [r2, #8]
 800bea2:	f043 0301 	orr.w	r3, r3, #1
 800bea6:	6093      	str	r3, [r2, #8]
 800bea8:	4770      	bx	lr
 800beaa:	bf00      	nop

0800beac <I2S_DMAError>:
I2S_DMAError():
 800beac:	6b83      	ldr	r3, [r0, #56]	; 0x38
 800beae:	490a      	ldr	r1, [pc, #40]	; (800bed8 <I2S_DMAError+0x2c>)
 800beb0:	6818      	ldr	r0, [r3, #0]
 800beb2:	b410      	push	{r4}
 800beb4:	2200      	movs	r2, #0
 800beb6:	2401      	movs	r4, #1
 800beb8:	855a      	strh	r2, [r3, #42]	; 0x2a
 800beba:	865a      	strh	r2, [r3, #50]	; 0x32
 800bebc:	f883 403d 	strb.w	r4, [r3, #61]	; 0x3d
 800bec0:	f893 203e 	ldrb.w	r2, [r3, #62]	; 0x3e
 800bec4:	4288      	cmp	r0, r1
 800bec6:	f042 0220 	orr.w	r2, r2, #32
 800beca:	f883 203e 	strb.w	r2, [r3, #62]	; 0x3e
 800bece:	d002      	beq.n	800bed6 <I2S_DMAError+0x2a>
 800bed0:	f85d 4b04 	ldr.w	r4, [sp], #4
 800bed4:	4770      	bx	lr
 800bed6:	e7fe      	b.n	800bed6 <I2S_DMAError+0x2a>
 800bed8:	40003c00 	.word	0x40003c00

0800bedc <I2S_DMATxHalfCplt>:
I2S_DMATxHalfCplt():
 800bedc:	6b82      	ldr	r2, [r0, #56]	; 0x38
 800bede:	b538      	push	{r3, r4, r5, lr}
 800bee0:	6812      	ldr	r2, [r2, #0]
 800bee2:	4b09      	ldr	r3, [pc, #36]	; (800bf08 <I2S_DMATxHalfCplt+0x2c>)
 800bee4:	429a      	cmp	r2, r3
 800bee6:	d000      	beq.n	800beea <I2S_DMATxHalfCplt+0xe>
 800bee8:	bd38      	pop	{r3, r4, r5, pc}
 800beea:	4d08      	ldr	r5, [pc, #32]	; (800bf0c <I2S_DMATxHalfCplt+0x30>)
 800beec:	4a08      	ldr	r2, [pc, #32]	; (800bf10 <I2S_DMATxHalfCplt+0x34>)
 800beee:	686b      	ldr	r3, [r5, #4]
 800bef0:	4808      	ldr	r0, [pc, #32]	; (800bf14 <I2S_DMATxHalfCplt+0x38>)
 800bef2:	2101      	movs	r1, #1
 800bef4:	f44f 5400 	mov.w	r4, #8192	; 0x2000
 800bef8:	7011      	strb	r1, [r2, #0]
 800befa:	835c      	strh	r4, [r3, #26]
 800befc:	f7f6 fea6 	bl	8002c4c <make_sound.constprop.32>
 800bf00:	686b      	ldr	r3, [r5, #4]
 800bf02:	831c      	strh	r4, [r3, #24]
 800bf04:	bd38      	pop	{r3, r4, r5, pc}
 800bf06:	bf00      	nop
 800bf08:	40003c00 	.word	0x40003c00
 800bf0c:	20000064 	.word	0x20000064
 800bf10:	2001f730 	.word	0x2001f730
 800bf14:	20000910 	.word	0x20000910

0800bf18 <I2S_DMATxCplt>:
I2S_DMATxCplt():
 800bf18:	b538      	push	{r3, r4, r5, lr}
 800bf1a:	6803      	ldr	r3, [r0, #0]
 800bf1c:	6b82      	ldr	r2, [r0, #56]	; 0x38
 800bf1e:	681b      	ldr	r3, [r3, #0]
 800bf20:	6811      	ldr	r1, [r2, #0]
 800bf22:	f413 7380 	ands.w	r3, r3, #256	; 0x100
 800bf26:	d10e      	bne.n	800bf46 <I2S_DMATxCplt+0x2e>
 800bf28:	8553      	strh	r3, [r2, #42]	; 0x2a
 800bf2a:	684b      	ldr	r3, [r1, #4]
 800bf2c:	6a10      	ldr	r0, [r2, #32]
 800bf2e:	f023 0302 	bic.w	r3, r3, #2
 800bf32:	2801      	cmp	r0, #1
 800bf34:	604b      	str	r3, [r1, #4]
 800bf36:	d00f      	beq.n	800bf58 <I2S_DMATxCplt+0x40>
 800bf38:	f892 303d 	ldrb.w	r3, [r2, #61]	; 0x3d
 800bf3c:	2b32      	cmp	r3, #50	; 0x32
 800bf3e:	d006      	beq.n	800bf4e <I2S_DMATxCplt+0x36>
 800bf40:	2301      	movs	r3, #1
 800bf42:	f882 303d 	strb.w	r3, [r2, #61]	; 0x3d
 800bf46:	4b13      	ldr	r3, [pc, #76]	; (800bf94 <I2S_DMATxCplt+0x7c>)
 800bf48:	4299      	cmp	r1, r3
 800bf4a:	d014      	beq.n	800bf76 <I2S_DMATxCplt+0x5e>
 800bf4c:	bd38      	pop	{r3, r4, r5, pc}
 800bf4e:	8e53      	ldrh	r3, [r2, #50]	; 0x32
 800bf50:	b29b      	uxth	r3, r3
 800bf52:	2b00      	cmp	r3, #0
 800bf54:	d1f7      	bne.n	800bf46 <I2S_DMATxCplt+0x2e>
 800bf56:	e7f3      	b.n	800bf40 <I2S_DMATxCplt+0x28>
 800bf58:	480f      	ldr	r0, [pc, #60]	; (800bf98 <I2S_DMATxCplt+0x80>)
 800bf5a:	4b10      	ldr	r3, [pc, #64]	; (800bf9c <I2S_DMATxCplt+0x84>)
 800bf5c:	4281      	cmp	r1, r0
 800bf5e:	bf18      	it	ne
 800bf60:	f04f 2340 	movne.w	r3, #1073758208	; 0x40004000
 800bf64:	6858      	ldr	r0, [r3, #4]
 800bf66:	f020 0001 	bic.w	r0, r0, #1
 800bf6a:	6058      	str	r0, [r3, #4]
 800bf6c:	f892 303d 	ldrb.w	r3, [r2, #61]	; 0x3d
 800bf70:	2b32      	cmp	r3, #50	; 0x32
 800bf72:	d1e5      	bne.n	800bf40 <I2S_DMATxCplt+0x28>
 800bf74:	e7eb      	b.n	800bf4e <I2S_DMATxCplt+0x36>
 800bf76:	4d0a      	ldr	r5, [pc, #40]	; (800bfa0 <I2S_DMATxCplt+0x88>)
 800bf78:	4a0a      	ldr	r2, [pc, #40]	; (800bfa4 <I2S_DMATxCplt+0x8c>)
 800bf7a:	686b      	ldr	r3, [r5, #4]
 800bf7c:	480a      	ldr	r0, [pc, #40]	; (800bfa8 <I2S_DMATxCplt+0x90>)
 800bf7e:	2102      	movs	r1, #2
 800bf80:	f44f 5400 	mov.w	r4, #8192	; 0x2000
 800bf84:	7011      	strb	r1, [r2, #0]
 800bf86:	835c      	strh	r4, [r3, #26]
 800bf88:	f7f6 fe60 	bl	8002c4c <make_sound.constprop.32>
 800bf8c:	686b      	ldr	r3, [r5, #4]
 800bf8e:	831c      	strh	r4, [r3, #24]
 800bf90:	bd38      	pop	{r3, r4, r5, pc}
 800bf92:	bf00      	nop
 800bf94:	40003c00 	.word	0x40003c00
 800bf98:	40003800 	.word	0x40003800
 800bf9c:	40003400 	.word	0x40003400
 800bfa0:	20000064 	.word	0x20000064
 800bfa4:	2001f730 	.word	0x2001f730
 800bfa8:	200010e0 	.word	0x200010e0

0800bfac <USB_StopHost>:
USB_StopHost():
 800bfac:	b580      	push	{r7, lr}
 800bfae:	b086      	sub	sp, #24
 800bfb0:	af00      	add	r7, sp, #0
 800bfb2:	6078      	str	r0, [r7, #4]
 800bfb4:	2300      	movs	r3, #0
 800bfb6:	613b      	str	r3, [r7, #16]
 800bfb8:	6878      	ldr	r0, [r7, #4]
 800bfba:	f7ff ff67 	bl	800be8c <USB_DisableGlobalInt>
 800bfbe:	6878      	ldr	r0, [r7, #4]
 800bfc0:	2110      	movs	r1, #16
 800bfc2:	f7ff ff51 	bl	800be68 <USB_FlushTxFifo>
 800bfc6:	6878      	ldr	r0, [r7, #4]
 800bfc8:	f7ff ff3e 	bl	800be48 <USB_FlushRxFifo>
 800bfcc:	2300      	movs	r3, #0
 800bfce:	75fb      	strb	r3, [r7, #23]
 800bfd0:	e01f      	b.n	800c012 <USB_StopHost+0x66>
 800bfd2:	7dfb      	ldrb	r3, [r7, #23]
 800bfd4:	015a      	lsls	r2, r3, #5
 800bfd6:	687b      	ldr	r3, [r7, #4]
 800bfd8:	4413      	add	r3, r2
 800bfda:	f503 63a0 	add.w	r3, r3, #1280	; 0x500
 800bfde:	681b      	ldr	r3, [r3, #0]
 800bfe0:	60fb      	str	r3, [r7, #12]
 800bfe2:	68fb      	ldr	r3, [r7, #12]
 800bfe4:	f043 4380 	orr.w	r3, r3, #1073741824	; 0x40000000
 800bfe8:	60fb      	str	r3, [r7, #12]
 800bfea:	68fb      	ldr	r3, [r7, #12]
 800bfec:	f023 4300 	bic.w	r3, r3, #2147483648	; 0x80000000
 800bff0:	60fb      	str	r3, [r7, #12]
 800bff2:	68fb      	ldr	r3, [r7, #12]
 800bff4:	f423 4300 	bic.w	r3, r3, #32768	; 0x8000
 800bff8:	60fb      	str	r3, [r7, #12]
 800bffa:	7dfb      	ldrb	r3, [r7, #23]
 800bffc:	015a      	lsls	r2, r3, #5
 800bffe:	687b      	ldr	r3, [r7, #4]
 800c000:	4413      	add	r3, r2
 800c002:	f503 63a0 	add.w	r3, r3, #1280	; 0x500
 800c006:	461a      	mov	r2, r3
 800c008:	68fb      	ldr	r3, [r7, #12]
 800c00a:	6013      	str	r3, [r2, #0]
 800c00c:	7dfb      	ldrb	r3, [r7, #23]
 800c00e:	3301      	adds	r3, #1
 800c010:	75fb      	strb	r3, [r7, #23]
 800c012:	7dfb      	ldrb	r3, [r7, #23]
 800c014:	2b0f      	cmp	r3, #15
 800c016:	d9dc      	bls.n	800bfd2 <USB_StopHost+0x26>
 800c018:	2300      	movs	r3, #0
 800c01a:	75fb      	strb	r3, [r7, #23]
 800c01c:	e02f      	b.n	800c07e <USB_StopHost+0xd2>
 800c01e:	7dfb      	ldrb	r3, [r7, #23]
 800c020:	015a      	lsls	r2, r3, #5
 800c022:	687b      	ldr	r3, [r7, #4]
 800c024:	4413      	add	r3, r2
 800c026:	f503 63a0 	add.w	r3, r3, #1280	; 0x500
 800c02a:	681b      	ldr	r3, [r3, #0]
 800c02c:	60fb      	str	r3, [r7, #12]
 800c02e:	68fb      	ldr	r3, [r7, #12]
 800c030:	f043 4380 	orr.w	r3, r3, #1073741824	; 0x40000000
 800c034:	60fb      	str	r3, [r7, #12]
 800c036:	68fb      	ldr	r3, [r7, #12]
 800c038:	f043 4300 	orr.w	r3, r3, #2147483648	; 0x80000000
 800c03c:	60fb      	str	r3, [r7, #12]
 800c03e:	68fb      	ldr	r3, [r7, #12]
 800c040:	f423 4300 	bic.w	r3, r3, #32768	; 0x8000
 800c044:	60fb      	str	r3, [r7, #12]
 800c046:	7dfb      	ldrb	r3, [r7, #23]
 800c048:	015a      	lsls	r2, r3, #5
 800c04a:	687b      	ldr	r3, [r7, #4]
 800c04c:	4413      	add	r3, r2
 800c04e:	f503 63a0 	add.w	r3, r3, #1280	; 0x500
 800c052:	461a      	mov	r2, r3
 800c054:	68fb      	ldr	r3, [r7, #12]
 800c056:	6013      	str	r3, [r2, #0]
 800c058:	693b      	ldr	r3, [r7, #16]
 800c05a:	3301      	adds	r3, #1
 800c05c:	613b      	str	r3, [r7, #16]
 800c05e:	693b      	ldr	r3, [r7, #16]
 800c060:	f5b3 7f7a 	cmp.w	r3, #1000	; 0x3e8
 800c064:	d808      	bhi.n	800c078 <USB_StopHost+0xcc>
 800c066:	7dfb      	ldrb	r3, [r7, #23]
 800c068:	015a      	lsls	r2, r3, #5
 800c06a:	687b      	ldr	r3, [r7, #4]
 800c06c:	4413      	add	r3, r2
 800c06e:	f503 63a0 	add.w	r3, r3, #1280	; 0x500
 800c072:	681b      	ldr	r3, [r3, #0]
 800c074:	2b00      	cmp	r3, #0
 800c076:	dbef      	blt.n	800c058 <USB_StopHost+0xac>
 800c078:	7dfb      	ldrb	r3, [r7, #23]
 800c07a:	3301      	adds	r3, #1
 800c07c:	75fb      	strb	r3, [r7, #23]
 800c07e:	7dfb      	ldrb	r3, [r7, #23]
 800c080:	2b0f      	cmp	r3, #15
 800c082:	d9cc      	bls.n	800c01e <USB_StopHost+0x72>
 800c084:	687b      	ldr	r3, [r7, #4]
 800c086:	f503 6380 	add.w	r3, r3, #1024	; 0x400
 800c08a:	461a      	mov	r2, r3
 800c08c:	f04f 33ff 	mov.w	r3, #4294967295
 800c090:	6153      	str	r3, [r2, #20]
 800c092:	687b      	ldr	r3, [r7, #4]
 800c094:	f04f 32ff 	mov.w	r2, #4294967295
 800c098:	615a      	str	r2, [r3, #20]
 800c09a:	6878      	ldr	r0, [r7, #4]
 800c09c:	f7ff fefe 	bl	800be9c <USB_EnableGlobalInt>
 800c0a0:	2300      	movs	r3, #0
 800c0a2:	4618      	mov	r0, r3
 800c0a4:	3718      	adds	r7, #24
 800c0a6:	46bd      	mov	sp, r7
 800c0a8:	bd80      	pop	{r7, pc}
 800c0aa:	bf00      	nop

0800c0ac <USB_DoPing>:
USB_DoPing():
 800c0ac:	b480      	push	{r7}
 800c0ae:	b085      	sub	sp, #20
 800c0b0:	af00      	add	r7, sp, #0
 800c0b2:	6078      	str	r0, [r7, #4]
 800c0b4:	460b      	mov	r3, r1
 800c0b6:	70fb      	strb	r3, [r7, #3]
 800c0b8:	2301      	movs	r3, #1
 800c0ba:	73fb      	strb	r3, [r7, #15]
 800c0bc:	78fb      	ldrb	r3, [r7, #3]
 800c0be:	015a      	lsls	r2, r3, #5
 800c0c0:	687b      	ldr	r3, [r7, #4]
 800c0c2:	4413      	add	r3, r2
 800c0c4:	f503 63a0 	add.w	r3, r3, #1280	; 0x500
 800c0c8:	461a      	mov	r2, r3
 800c0ca:	7bfb      	ldrb	r3, [r7, #15]
 800c0cc:	04db      	lsls	r3, r3, #19
 800c0ce:	4619      	mov	r1, r3
 800c0d0:	4b16      	ldr	r3, [pc, #88]	; (800c12c <USB_DoPing+0x80>)
 800c0d2:	400b      	ands	r3, r1
 800c0d4:	f043 4300 	orr.w	r3, r3, #2147483648	; 0x80000000
 800c0d8:	6113      	str	r3, [r2, #16]
 800c0da:	78fb      	ldrb	r3, [r7, #3]
 800c0dc:	015a      	lsls	r2, r3, #5
 800c0de:	687b      	ldr	r3, [r7, #4]
 800c0e0:	4413      	add	r3, r2
 800c0e2:	f503 63a0 	add.w	r3, r3, #1280	; 0x500
 800c0e6:	4619      	mov	r1, r3
 800c0e8:	78fb      	ldrb	r3, [r7, #3]
 800c0ea:	015a      	lsls	r2, r3, #5
 800c0ec:	687b      	ldr	r3, [r7, #4]
 800c0ee:	4413      	add	r3, r2
 800c0f0:	f503 63a0 	add.w	r3, r3, #1280	; 0x500
 800c0f4:	681b      	ldr	r3, [r3, #0]
 800c0f6:	f023 4380 	bic.w	r3, r3, #1073741824	; 0x40000000
 800c0fa:	600b      	str	r3, [r1, #0]
 800c0fc:	78fb      	ldrb	r3, [r7, #3]
 800c0fe:	015a      	lsls	r2, r3, #5
 800c100:	687b      	ldr	r3, [r7, #4]
 800c102:	4413      	add	r3, r2
 800c104:	f503 63a0 	add.w	r3, r3, #1280	; 0x500
 800c108:	4619      	mov	r1, r3
 800c10a:	78fb      	ldrb	r3, [r7, #3]
 800c10c:	015a      	lsls	r2, r3, #5
 800c10e:	687b      	ldr	r3, [r7, #4]
 800c110:	4413      	add	r3, r2
 800c112:	f503 63a0 	add.w	r3, r3, #1280	; 0x500
 800c116:	681b      	ldr	r3, [r3, #0]
 800c118:	f043 4300 	orr.w	r3, r3, #2147483648	; 0x80000000
 800c11c:	600b      	str	r3, [r1, #0]
 800c11e:	2300      	movs	r3, #0
 800c120:	4618      	mov	r0, r3
 800c122:	3714      	adds	r7, #20
 800c124:	46bd      	mov	sp, r7
 800c126:	f85d 7b04 	ldr.w	r7, [sp], #4
 800c12a:	4770      	bx	lr
 800c12c:	1ff80000 	.word	0x1ff80000

0800c130 <USB_HC_Halt>:
USB_HC_Halt():
 800c130:	b480      	push	{r7}
 800c132:	b085      	sub	sp, #20
 800c134:	af00      	add	r7, sp, #0
 800c136:	6078      	str	r0, [r7, #4]
 800c138:	460b      	mov	r3, r1
 800c13a:	70fb      	strb	r3, [r7, #3]
 800c13c:	2300      	movs	r3, #0
 800c13e:	60fb      	str	r3, [r7, #12]
 800c140:	78fb      	ldrb	r3, [r7, #3]
 800c142:	015a      	lsls	r2, r3, #5
 800c144:	687b      	ldr	r3, [r7, #4]
 800c146:	4413      	add	r3, r2
 800c148:	f503 63a0 	add.w	r3, r3, #1280	; 0x500
 800c14c:	681b      	ldr	r3, [r3, #0]
 800c14e:	78fb      	ldrb	r3, [r7, #3]
 800c150:	015a      	lsls	r2, r3, #5
 800c152:	687b      	ldr	r3, [r7, #4]
 800c154:	4413      	add	r3, r2
 800c156:	f503 63a0 	add.w	r3, r3, #1280	; 0x500
 800c15a:	681b      	ldr	r3, [r3, #0]
 800c15c:	f403 2300 	and.w	r3, r3, #524288	; 0x80000
 800c160:	2b00      	cmp	r3, #0
 800c162:	d06c      	beq.n	800c23e <USB_HC_Halt+0x10e>
 800c164:	78fb      	ldrb	r3, [r7, #3]
 800c166:	015a      	lsls	r2, r3, #5
 800c168:	687b      	ldr	r3, [r7, #4]
 800c16a:	4413      	add	r3, r2
 800c16c:	f503 63a0 	add.w	r3, r3, #1280	; 0x500
 800c170:	4619      	mov	r1, r3
 800c172:	78fb      	ldrb	r3, [r7, #3]
 800c174:	015a      	lsls	r2, r3, #5
 800c176:	687b      	ldr	r3, [r7, #4]
 800c178:	4413      	add	r3, r2
 800c17a:	f503 63a0 	add.w	r3, r3, #1280	; 0x500
 800c17e:	681b      	ldr	r3, [r3, #0]
 800c180:	f043 4380 	orr.w	r3, r3, #1073741824	; 0x40000000
 800c184:	600b      	str	r3, [r1, #0]
 800c186:	687b      	ldr	r3, [r7, #4]
 800c188:	6adb      	ldr	r3, [r3, #44]	; 0x2c
 800c18a:	b29b      	uxth	r3, r3
 800c18c:	2b00      	cmp	r3, #0
 800c18e:	d144      	bne.n	800c21a <USB_HC_Halt+0xea>
 800c190:	78fb      	ldrb	r3, [r7, #3]
 800c192:	015a      	lsls	r2, r3, #5
 800c194:	687b      	ldr	r3, [r7, #4]
 800c196:	4413      	add	r3, r2
 800c198:	f503 63a0 	add.w	r3, r3, #1280	; 0x500
 800c19c:	4619      	mov	r1, r3
 800c19e:	78fb      	ldrb	r3, [r7, #3]
 800c1a0:	015a      	lsls	r2, r3, #5
 800c1a2:	687b      	ldr	r3, [r7, #4]
 800c1a4:	4413      	add	r3, r2
 800c1a6:	f503 63a0 	add.w	r3, r3, #1280	; 0x500
 800c1aa:	681b      	ldr	r3, [r3, #0]
 800c1ac:	f023 4300 	bic.w	r3, r3, #2147483648	; 0x80000000
 800c1b0:	600b      	str	r3, [r1, #0]
 800c1b2:	78fb      	ldrb	r3, [r7, #3]
 800c1b4:	015a      	lsls	r2, r3, #5
 800c1b6:	687b      	ldr	r3, [r7, #4]
 800c1b8:	4413      	add	r3, r2
 800c1ba:	f503 63a0 	add.w	r3, r3, #1280	; 0x500
 800c1be:	4619      	mov	r1, r3
 800c1c0:	78fb      	ldrb	r3, [r7, #3]
 800c1c2:	015a      	lsls	r2, r3, #5
 800c1c4:	687b      	ldr	r3, [r7, #4]
 800c1c6:	4413      	add	r3, r2
 800c1c8:	f503 63a0 	add.w	r3, r3, #1280	; 0x500
 800c1cc:	681b      	ldr	r3, [r3, #0]
 800c1ce:	f043 4300 	orr.w	r3, r3, #2147483648	; 0x80000000
 800c1d2:	600b      	str	r3, [r1, #0]
 800c1d4:	78fb      	ldrb	r3, [r7, #3]
 800c1d6:	015a      	lsls	r2, r3, #5
 800c1d8:	687b      	ldr	r3, [r7, #4]
 800c1da:	4413      	add	r3, r2
 800c1dc:	f503 63a0 	add.w	r3, r3, #1280	; 0x500
 800c1e0:	4619      	mov	r1, r3
 800c1e2:	78fb      	ldrb	r3, [r7, #3]
 800c1e4:	015a      	lsls	r2, r3, #5
 800c1e6:	687b      	ldr	r3, [r7, #4]
 800c1e8:	4413      	add	r3, r2
 800c1ea:	f503 63a0 	add.w	r3, r3, #1280	; 0x500
 800c1ee:	681b      	ldr	r3, [r3, #0]
 800c1f0:	f423 4300 	bic.w	r3, r3, #32768	; 0x8000
 800c1f4:	600b      	str	r3, [r1, #0]
 800c1f6:	68fb      	ldr	r3, [r7, #12]
 800c1f8:	3301      	adds	r3, #1
 800c1fa:	60fb      	str	r3, [r7, #12]
 800c1fc:	68fb      	ldr	r3, [r7, #12]
 800c1fe:	f5b3 7f7a 	cmp.w	r3, #1000	; 0x3e8
 800c202:	f200 8089 	bhi.w	800c318 <USB_HC_Halt+0x1e8>
 800c206:	78fb      	ldrb	r3, [r7, #3]
 800c208:	015a      	lsls	r2, r3, #5
 800c20a:	687b      	ldr	r3, [r7, #4]
 800c20c:	4413      	add	r3, r2
 800c20e:	f503 63a0 	add.w	r3, r3, #1280	; 0x500
 800c212:	681b      	ldr	r3, [r3, #0]
 800c214:	2b00      	cmp	r3, #0
 800c216:	dbee      	blt.n	800c1f6 <USB_HC_Halt+0xc6>
 800c218:	e07e      	b.n	800c318 <USB_HC_Halt+0x1e8>
 800c21a:	78fb      	ldrb	r3, [r7, #3]
 800c21c:	015a      	lsls	r2, r3, #5
 800c21e:	687b      	ldr	r3, [r7, #4]
 800c220:	4413      	add	r3, r2
 800c222:	f503 63a0 	add.w	r3, r3, #1280	; 0x500
 800c226:	4619      	mov	r1, r3
 800c228:	78fb      	ldrb	r3, [r7, #3]
 800c22a:	015a      	lsls	r2, r3, #5
 800c22c:	687b      	ldr	r3, [r7, #4]
 800c22e:	4413      	add	r3, r2
 800c230:	f503 63a0 	add.w	r3, r3, #1280	; 0x500
 800c234:	681b      	ldr	r3, [r3, #0]
 800c236:	f043 4300 	orr.w	r3, r3, #2147483648	; 0x80000000
 800c23a:	600b      	str	r3, [r1, #0]
 800c23c:	e06c      	b.n	800c318 <USB_HC_Halt+0x1e8>
 800c23e:	78fb      	ldrb	r3, [r7, #3]
 800c240:	015a      	lsls	r2, r3, #5
 800c242:	687b      	ldr	r3, [r7, #4]
 800c244:	4413      	add	r3, r2
 800c246:	f503 63a0 	add.w	r3, r3, #1280	; 0x500
 800c24a:	4619      	mov	r1, r3
 800c24c:	78fb      	ldrb	r3, [r7, #3]
 800c24e:	015a      	lsls	r2, r3, #5
 800c250:	687b      	ldr	r3, [r7, #4]
 800c252:	4413      	add	r3, r2
 800c254:	f503 63a0 	add.w	r3, r3, #1280	; 0x500
 800c258:	681b      	ldr	r3, [r3, #0]
 800c25a:	f043 4380 	orr.w	r3, r3, #1073741824	; 0x40000000
 800c25e:	600b      	str	r3, [r1, #0]
 800c260:	687b      	ldr	r3, [r7, #4]
 800c262:	f503 6380 	add.w	r3, r3, #1024	; 0x400
 800c266:	691b      	ldr	r3, [r3, #16]
 800c268:	b29b      	uxth	r3, r3
 800c26a:	2b00      	cmp	r3, #0
 800c26c:	d143      	bne.n	800c2f6 <USB_HC_Halt+0x1c6>
 800c26e:	78fb      	ldrb	r3, [r7, #3]
 800c270:	015a      	lsls	r2, r3, #5
 800c272:	687b      	ldr	r3, [r7, #4]
 800c274:	4413      	add	r3, r2
 800c276:	f503 63a0 	add.w	r3, r3, #1280	; 0x500
 800c27a:	4619      	mov	r1, r3
 800c27c:	78fb      	ldrb	r3, [r7, #3]
 800c27e:	015a      	lsls	r2, r3, #5
 800c280:	687b      	ldr	r3, [r7, #4]
 800c282:	4413      	add	r3, r2
 800c284:	f503 63a0 	add.w	r3, r3, #1280	; 0x500
 800c288:	681b      	ldr	r3, [r3, #0]
 800c28a:	f023 4300 	bic.w	r3, r3, #2147483648	; 0x80000000
 800c28e:	600b      	str	r3, [r1, #0]
 800c290:	78fb      	ldrb	r3, [r7, #3]
 800c292:	015a      	lsls	r2, r3, #5
 800c294:	687b      	ldr	r3, [r7, #4]
 800c296:	4413      	add	r3, r2
 800c298:	f503 63a0 	add.w	r3, r3, #1280	; 0x500
 800c29c:	4619      	mov	r1, r3
 800c29e:	78fb      	ldrb	r3, [r7, #3]
 800c2a0:	015a      	lsls	r2, r3, #5
 800c2a2:	687b      	ldr	r3, [r7, #4]
 800c2a4:	4413      	add	r3, r2
 800c2a6:	f503 63a0 	add.w	r3, r3, #1280	; 0x500
 800c2aa:	681b      	ldr	r3, [r3, #0]
 800c2ac:	f043 4300 	orr.w	r3, r3, #2147483648	; 0x80000000
 800c2b0:	600b      	str	r3, [r1, #0]
 800c2b2:	78fb      	ldrb	r3, [r7, #3]
 800c2b4:	015a      	lsls	r2, r3, #5
 800c2b6:	687b      	ldr	r3, [r7, #4]
 800c2b8:	4413      	add	r3, r2
 800c2ba:	f503 63a0 	add.w	r3, r3, #1280	; 0x500
 800c2be:	4619      	mov	r1, r3
 800c2c0:	78fb      	ldrb	r3, [r7, #3]
 800c2c2:	015a      	lsls	r2, r3, #5
 800c2c4:	687b      	ldr	r3, [r7, #4]
 800c2c6:	4413      	add	r3, r2
 800c2c8:	f503 63a0 	add.w	r3, r3, #1280	; 0x500
 800c2cc:	681b      	ldr	r3, [r3, #0]
 800c2ce:	f423 4300 	bic.w	r3, r3, #32768	; 0x8000
 800c2d2:	600b      	str	r3, [r1, #0]
 800c2d4:	68fb      	ldr	r3, [r7, #12]
 800c2d6:	3301      	adds	r3, #1
 800c2d8:	60fb      	str	r3, [r7, #12]
 800c2da:	68fb      	ldr	r3, [r7, #12]
 800c2dc:	f5b3 7f7a 	cmp.w	r3, #1000	; 0x3e8
 800c2e0:	d81a      	bhi.n	800c318 <USB_HC_Halt+0x1e8>
 800c2e2:	78fb      	ldrb	r3, [r7, #3]
 800c2e4:	015a      	lsls	r2, r3, #5
 800c2e6:	687b      	ldr	r3, [r7, #4]
 800c2e8:	4413      	add	r3, r2
 800c2ea:	f503 63a0 	add.w	r3, r3, #1280	; 0x500
 800c2ee:	681b      	ldr	r3, [r3, #0]
 800c2f0:	2b00      	cmp	r3, #0
 800c2f2:	dbef      	blt.n	800c2d4 <USB_HC_Halt+0x1a4>
 800c2f4:	e010      	b.n	800c318 <USB_HC_Halt+0x1e8>
 800c2f6:	78fb      	ldrb	r3, [r7, #3]
 800c2f8:	015a      	lsls	r2, r3, #5
 800c2fa:	687b      	ldr	r3, [r7, #4]
 800c2fc:	4413      	add	r3, r2
 800c2fe:	f503 63a0 	add.w	r3, r3, #1280	; 0x500
 800c302:	4619      	mov	r1, r3
 800c304:	78fb      	ldrb	r3, [r7, #3]
 800c306:	015a      	lsls	r2, r3, #5
 800c308:	687b      	ldr	r3, [r7, #4]
 800c30a:	4413      	add	r3, r2
 800c30c:	f503 63a0 	add.w	r3, r3, #1280	; 0x500
 800c310:	681b      	ldr	r3, [r3, #0]
 800c312:	f043 4300 	orr.w	r3, r3, #2147483648	; 0x80000000
 800c316:	600b      	str	r3, [r1, #0]
 800c318:	2300      	movs	r3, #0
 800c31a:	4618      	mov	r0, r3
 800c31c:	3714      	adds	r7, #20
 800c31e:	46bd      	mov	sp, r7
 800c320:	f85d 7b04 	ldr.w	r7, [sp], #4
 800c324:	4770      	bx	lr
 800c326:	bf00      	nop

0800c328 <USB_HC_ReadInterrupt>:
USB_HC_ReadInterrupt():
 800c328:	b480      	push	{r7}
 800c32a:	b083      	sub	sp, #12
 800c32c:	af00      	add	r7, sp, #0
 800c32e:	6078      	str	r0, [r7, #4]
 800c330:	687b      	ldr	r3, [r7, #4]
 800c332:	f503 6380 	add.w	r3, r3, #1024	; 0x400
 800c336:	695b      	ldr	r3, [r3, #20]
 800c338:	b29b      	uxth	r3, r3
 800c33a:	4618      	mov	r0, r3
 800c33c:	370c      	adds	r7, #12
 800c33e:	46bd      	mov	sp, r7
 800c340:	f85d 7b04 	ldr.w	r7, [sp], #4
 800c344:	4770      	bx	lr
 800c346:	bf00      	nop

0800c348 <USB_HC_StartXfer>:
USB_HC_StartXfer():
 800c348:	b590      	push	{r4, r7, lr}
 800c34a:	b089      	sub	sp, #36	; 0x24
 800c34c:	af02      	add	r7, sp, #8
 800c34e:	60f8      	str	r0, [r7, #12]
 800c350:	60b9      	str	r1, [r7, #8]
 800c352:	4613      	mov	r3, r2
 800c354:	71fb      	strb	r3, [r7, #7]
 800c356:	2300      	movs	r3, #0
 800c358:	757b      	strb	r3, [r7, #21]
 800c35a:	2300      	movs	r3, #0
 800c35c:	827b      	strh	r3, [r7, #18]
 800c35e:	2300      	movs	r3, #0
 800c360:	82fb      	strh	r3, [r7, #22]
 800c362:	f44f 7380 	mov.w	r3, #256	; 0x100
 800c366:	823b      	strh	r3, [r7, #16]
 800c368:	68fb      	ldr	r3, [r7, #12]
 800c36a:	f1b3 4fa0 	cmp.w	r3, #1342177280	; 0x50000000
 800c36e:	d02b      	beq.n	800c3c8 <USB_HC_StartXfer+0x80>
 800c370:	68bb      	ldr	r3, [r7, #8]
 800c372:	791b      	ldrb	r3, [r3, #4]
 800c374:	2b00      	cmp	r3, #0
 800c376:	d127      	bne.n	800c3c8 <USB_HC_StartXfer+0x80>
 800c378:	79fb      	ldrb	r3, [r7, #7]
 800c37a:	2b00      	cmp	r3, #0
 800c37c:	d10b      	bne.n	800c396 <USB_HC_StartXfer+0x4e>
 800c37e:	68bb      	ldr	r3, [r7, #8]
 800c380:	795b      	ldrb	r3, [r3, #5]
 800c382:	2b01      	cmp	r3, #1
 800c384:	d107      	bne.n	800c396 <USB_HC_StartXfer+0x4e>
 800c386:	68bb      	ldr	r3, [r7, #8]
 800c388:	785b      	ldrb	r3, [r3, #1]
 800c38a:	68f8      	ldr	r0, [r7, #12]
 800c38c:	4619      	mov	r1, r3
 800c38e:	f7ff fe8d 	bl	800c0ac <USB_DoPing>
 800c392:	2300      	movs	r3, #0
 800c394:	e113      	b.n	800c5be <USB_HC_StartXfer+0x276>
 800c396:	79fb      	ldrb	r3, [r7, #7]
 800c398:	2b01      	cmp	r3, #1
 800c39a:	d115      	bne.n	800c3c8 <USB_HC_StartXfer+0x80>
 800c39c:	68bb      	ldr	r3, [r7, #8]
 800c39e:	785b      	ldrb	r3, [r3, #1]
 800c3a0:	015a      	lsls	r2, r3, #5
 800c3a2:	68fb      	ldr	r3, [r7, #12]
 800c3a4:	4413      	add	r3, r2
 800c3a6:	f503 63a0 	add.w	r3, r3, #1280	; 0x500
 800c3aa:	4619      	mov	r1, r3
 800c3ac:	68bb      	ldr	r3, [r7, #8]
 800c3ae:	785b      	ldrb	r3, [r3, #1]
 800c3b0:	015a      	lsls	r2, r3, #5
 800c3b2:	68fb      	ldr	r3, [r7, #12]
 800c3b4:	4413      	add	r3, r2
 800c3b6:	f503 63a0 	add.w	r3, r3, #1280	; 0x500
 800c3ba:	68db      	ldr	r3, [r3, #12]
 800c3bc:	f023 0360 	bic.w	r3, r3, #96	; 0x60
 800c3c0:	60cb      	str	r3, [r1, #12]
 800c3c2:	68bb      	ldr	r3, [r7, #8]
 800c3c4:	2200      	movs	r2, #0
 800c3c6:	715a      	strb	r2, [r3, #5]
 800c3c8:	68bb      	ldr	r3, [r7, #8]
 800c3ca:	691b      	ldr	r3, [r3, #16]
 800c3cc:	2b00      	cmp	r3, #0
 800c3ce:	d019      	beq.n	800c404 <USB_HC_StartXfer+0xbc>
 800c3d0:	68bb      	ldr	r3, [r7, #8]
 800c3d2:	691b      	ldr	r3, [r3, #16]
 800c3d4:	68ba      	ldr	r2, [r7, #8]
 800c3d6:	8912      	ldrh	r2, [r2, #8]
 800c3d8:	4413      	add	r3, r2
 800c3da:	3b01      	subs	r3, #1
 800c3dc:	68ba      	ldr	r2, [r7, #8]
 800c3de:	8912      	ldrh	r2, [r2, #8]
 800c3e0:	fbb3 f3f2 	udiv	r3, r3, r2
 800c3e4:	82fb      	strh	r3, [r7, #22]
 800c3e6:	8afa      	ldrh	r2, [r7, #22]
 800c3e8:	8a3b      	ldrh	r3, [r7, #16]
 800c3ea:	429a      	cmp	r2, r3
 800c3ec:	d90d      	bls.n	800c40a <USB_HC_StartXfer+0xc2>
 800c3ee:	8a3b      	ldrh	r3, [r7, #16]
 800c3f0:	82fb      	strh	r3, [r7, #22]
 800c3f2:	8afb      	ldrh	r3, [r7, #22]
 800c3f4:	68ba      	ldr	r2, [r7, #8]
 800c3f6:	8912      	ldrh	r2, [r2, #8]
 800c3f8:	fb02 f303 	mul.w	r3, r2, r3
 800c3fc:	461a      	mov	r2, r3
 800c3fe:	68bb      	ldr	r3, [r7, #8]
 800c400:	611a      	str	r2, [r3, #16]
 800c402:	e003      	b.n	800c40c <USB_HC_StartXfer+0xc4>
 800c404:	2301      	movs	r3, #1
 800c406:	82fb      	strh	r3, [r7, #22]
 800c408:	e000      	b.n	800c40c <USB_HC_StartXfer+0xc4>
 800c40a:	bf00      	nop
 800c40c:	68bb      	ldr	r3, [r7, #8]
 800c40e:	78db      	ldrb	r3, [r3, #3]
 800c410:	2b00      	cmp	r3, #0
 800c412:	d007      	beq.n	800c424 <USB_HC_StartXfer+0xdc>
 800c414:	8afb      	ldrh	r3, [r7, #22]
 800c416:	68ba      	ldr	r2, [r7, #8]
 800c418:	8912      	ldrh	r2, [r2, #8]
 800c41a:	fb02 f303 	mul.w	r3, r2, r3
 800c41e:	461a      	mov	r2, r3
 800c420:	68bb      	ldr	r3, [r7, #8]
 800c422:	611a      	str	r2, [r3, #16]
 800c424:	68bb      	ldr	r3, [r7, #8]
 800c426:	785b      	ldrb	r3, [r3, #1]
 800c428:	015a      	lsls	r2, r3, #5
 800c42a:	68fb      	ldr	r3, [r7, #12]
 800c42c:	4413      	add	r3, r2
 800c42e:	f503 63a0 	add.w	r3, r3, #1280	; 0x500
 800c432:	4619      	mov	r1, r3
 800c434:	68bb      	ldr	r3, [r7, #8]
 800c436:	691b      	ldr	r3, [r3, #16]
 800c438:	f3c3 0212 	ubfx	r2, r3, #0, #19
 800c43c:	8afb      	ldrh	r3, [r7, #22]
 800c43e:	04db      	lsls	r3, r3, #19
 800c440:	4618      	mov	r0, r3
 800c442:	4b61      	ldr	r3, [pc, #388]	; (800c5c8 <USB_HC_StartXfer+0x280>)
 800c444:	4003      	ands	r3, r0
 800c446:	431a      	orrs	r2, r3
 800c448:	68bb      	ldr	r3, [r7, #8]
 800c44a:	7a9b      	ldrb	r3, [r3, #10]
 800c44c:	075b      	lsls	r3, r3, #29
 800c44e:	f003 43c0 	and.w	r3, r3, #1610612736	; 0x60000000
 800c452:	4313      	orrs	r3, r2
 800c454:	610b      	str	r3, [r1, #16]
 800c456:	79fb      	ldrb	r3, [r7, #7]
 800c458:	2b00      	cmp	r3, #0
 800c45a:	d00a      	beq.n	800c472 <USB_HC_StartXfer+0x12a>
 800c45c:	68bb      	ldr	r3, [r7, #8]
 800c45e:	785b      	ldrb	r3, [r3, #1]
 800c460:	015a      	lsls	r2, r3, #5
 800c462:	68fb      	ldr	r3, [r7, #12]
 800c464:	4413      	add	r3, r2
 800c466:	f503 63a0 	add.w	r3, r3, #1280	; 0x500
 800c46a:	461a      	mov	r2, r3
 800c46c:	68bb      	ldr	r3, [r7, #8]
 800c46e:	68db      	ldr	r3, [r3, #12]
 800c470:	6153      	str	r3, [r2, #20]
 800c472:	68fb      	ldr	r3, [r7, #12]
 800c474:	f503 6380 	add.w	r3, r3, #1024	; 0x400
 800c478:	689b      	ldr	r3, [r3, #8]
 800c47a:	f003 0301 	and.w	r3, r3, #1
 800c47e:	2b00      	cmp	r3, #0
 800c480:	bf0c      	ite	eq
 800c482:	2301      	moveq	r3, #1
 800c484:	2300      	movne	r3, #0
 800c486:	b2db      	uxtb	r3, r3
 800c488:	757b      	strb	r3, [r7, #21]
 800c48a:	68bb      	ldr	r3, [r7, #8]
 800c48c:	785b      	ldrb	r3, [r3, #1]
 800c48e:	015a      	lsls	r2, r3, #5
 800c490:	68fb      	ldr	r3, [r7, #12]
 800c492:	4413      	add	r3, r2
 800c494:	f503 63a0 	add.w	r3, r3, #1280	; 0x500
 800c498:	4619      	mov	r1, r3
 800c49a:	68bb      	ldr	r3, [r7, #8]
 800c49c:	785b      	ldrb	r3, [r3, #1]
 800c49e:	015a      	lsls	r2, r3, #5
 800c4a0:	68fb      	ldr	r3, [r7, #12]
 800c4a2:	4413      	add	r3, r2
 800c4a4:	f503 63a0 	add.w	r3, r3, #1280	; 0x500
 800c4a8:	681b      	ldr	r3, [r3, #0]
 800c4aa:	f023 5300 	bic.w	r3, r3, #536870912	; 0x20000000
 800c4ae:	600b      	str	r3, [r1, #0]
 800c4b0:	68bb      	ldr	r3, [r7, #8]
 800c4b2:	785b      	ldrb	r3, [r3, #1]
 800c4b4:	015a      	lsls	r2, r3, #5
 800c4b6:	68fb      	ldr	r3, [r7, #12]
 800c4b8:	4413      	add	r3, r2
 800c4ba:	f503 63a0 	add.w	r3, r3, #1280	; 0x500
 800c4be:	4619      	mov	r1, r3
 800c4c0:	68bb      	ldr	r3, [r7, #8]
 800c4c2:	785b      	ldrb	r3, [r3, #1]
 800c4c4:	015a      	lsls	r2, r3, #5
 800c4c6:	68fb      	ldr	r3, [r7, #12]
 800c4c8:	4413      	add	r3, r2
 800c4ca:	f503 63a0 	add.w	r3, r3, #1280	; 0x500
 800c4ce:	681b      	ldr	r3, [r3, #0]
 800c4d0:	7d7a      	ldrb	r2, [r7, #21]
 800c4d2:	0752      	lsls	r2, r2, #29
 800c4d4:	4313      	orrs	r3, r2
 800c4d6:	600b      	str	r3, [r1, #0]
 800c4d8:	68bb      	ldr	r3, [r7, #8]
 800c4da:	785b      	ldrb	r3, [r3, #1]
 800c4dc:	015a      	lsls	r2, r3, #5
 800c4de:	68fb      	ldr	r3, [r7, #12]
 800c4e0:	4413      	add	r3, r2
 800c4e2:	f503 63a0 	add.w	r3, r3, #1280	; 0x500
 800c4e6:	4619      	mov	r1, r3
 800c4e8:	68bb      	ldr	r3, [r7, #8]
 800c4ea:	785b      	ldrb	r3, [r3, #1]
 800c4ec:	015a      	lsls	r2, r3, #5
 800c4ee:	68fb      	ldr	r3, [r7, #12]
 800c4f0:	4413      	add	r3, r2
 800c4f2:	f503 63a0 	add.w	r3, r3, #1280	; 0x500
 800c4f6:	681b      	ldr	r3, [r3, #0]
 800c4f8:	f023 4380 	bic.w	r3, r3, #1073741824	; 0x40000000
 800c4fc:	600b      	str	r3, [r1, #0]
 800c4fe:	68bb      	ldr	r3, [r7, #8]
 800c500:	785b      	ldrb	r3, [r3, #1]
 800c502:	015a      	lsls	r2, r3, #5
 800c504:	68fb      	ldr	r3, [r7, #12]
 800c506:	4413      	add	r3, r2
 800c508:	f503 63a0 	add.w	r3, r3, #1280	; 0x500
 800c50c:	4619      	mov	r1, r3
 800c50e:	68bb      	ldr	r3, [r7, #8]
 800c510:	785b      	ldrb	r3, [r3, #1]
 800c512:	015a      	lsls	r2, r3, #5
 800c514:	68fb      	ldr	r3, [r7, #12]
 800c516:	4413      	add	r3, r2
 800c518:	f503 63a0 	add.w	r3, r3, #1280	; 0x500
 800c51c:	681b      	ldr	r3, [r3, #0]
 800c51e:	f043 4300 	orr.w	r3, r3, #2147483648	; 0x80000000
 800c522:	600b      	str	r3, [r1, #0]
 800c524:	79fb      	ldrb	r3, [r7, #7]
 800c526:	2b00      	cmp	r3, #0
 800c528:	d148      	bne.n	800c5bc <USB_HC_StartXfer+0x274>
 800c52a:	68bb      	ldr	r3, [r7, #8]
 800c52c:	78db      	ldrb	r3, [r3, #3]
 800c52e:	2b00      	cmp	r3, #0
 800c530:	d144      	bne.n	800c5bc <USB_HC_StartXfer+0x274>
 800c532:	68bb      	ldr	r3, [r7, #8]
 800c534:	691b      	ldr	r3, [r3, #16]
 800c536:	2b00      	cmp	r3, #0
 800c538:	d040      	beq.n	800c5bc <USB_HC_StartXfer+0x274>
 800c53a:	68bb      	ldr	r3, [r7, #8]
 800c53c:	79db      	ldrb	r3, [r3, #7]
 800c53e:	2b03      	cmp	r3, #3
 800c540:	d82f      	bhi.n	800c5a2 <USB_HC_StartXfer+0x25a>
 800c542:	a201      	add	r2, pc, #4	; (adr r2, 800c548 <USB_HC_StartXfer+0x200>)
 800c544:	f852 f023 	ldr.w	pc, [r2, r3, lsl #2]
 800c548:	0800c559 	.word	0x0800c559
 800c54c:	0800c57d 	.word	0x0800c57d
 800c550:	0800c559 	.word	0x0800c559
 800c554:	0800c57d 	.word	0x0800c57d
 800c558:	68bb      	ldr	r3, [r7, #8]
 800c55a:	691b      	ldr	r3, [r3, #16]
 800c55c:	3303      	adds	r3, #3
 800c55e:	089b      	lsrs	r3, r3, #2
 800c560:	827b      	strh	r3, [r7, #18]
 800c562:	8a7a      	ldrh	r2, [r7, #18]
 800c564:	68fb      	ldr	r3, [r7, #12]
 800c566:	6adb      	ldr	r3, [r3, #44]	; 0x2c
 800c568:	b29b      	uxth	r3, r3
 800c56a:	429a      	cmp	r2, r3
 800c56c:	d919      	bls.n	800c5a2 <USB_HC_StartXfer+0x25a>
 800c56e:	68fb      	ldr	r3, [r7, #12]
 800c570:	699b      	ldr	r3, [r3, #24]
 800c572:	f043 0220 	orr.w	r2, r3, #32
 800c576:	68fb      	ldr	r3, [r7, #12]
 800c578:	619a      	str	r2, [r3, #24]
 800c57a:	e012      	b.n	800c5a2 <USB_HC_StartXfer+0x25a>
 800c57c:	68bb      	ldr	r3, [r7, #8]
 800c57e:	691b      	ldr	r3, [r3, #16]
 800c580:	3303      	adds	r3, #3
 800c582:	089b      	lsrs	r3, r3, #2
 800c584:	827b      	strh	r3, [r7, #18]
 800c586:	8a7a      	ldrh	r2, [r7, #18]
 800c588:	68fb      	ldr	r3, [r7, #12]
 800c58a:	f503 6380 	add.w	r3, r3, #1024	; 0x400
 800c58e:	691b      	ldr	r3, [r3, #16]
 800c590:	b29b      	uxth	r3, r3
 800c592:	429a      	cmp	r2, r3
 800c594:	d905      	bls.n	800c5a2 <USB_HC_StartXfer+0x25a>
 800c596:	68fb      	ldr	r3, [r7, #12]
 800c598:	699b      	ldr	r3, [r3, #24]
 800c59a:	f043 6280 	orr.w	r2, r3, #67108864	; 0x4000000
 800c59e:	68fb      	ldr	r3, [r7, #12]
 800c5a0:	619a      	str	r2, [r3, #24]
 800c5a2:	68bb      	ldr	r3, [r7, #8]
 800c5a4:	68d9      	ldr	r1, [r3, #12]
 800c5a6:	68bb      	ldr	r3, [r7, #8]
 800c5a8:	785a      	ldrb	r2, [r3, #1]
 800c5aa:	68bb      	ldr	r3, [r7, #8]
 800c5ac:	691b      	ldr	r3, [r3, #16]
 800c5ae:	b29c      	uxth	r4, r3
 800c5b0:	2300      	movs	r3, #0
 800c5b2:	9300      	str	r3, [sp, #0]
 800c5b4:	68f8      	ldr	r0, [r7, #12]
 800c5b6:	4623      	mov	r3, r4
 800c5b8:	f7ff fc32 	bl	800be20 <USB_WritePacket>
 800c5bc:	2300      	movs	r3, #0
 800c5be:	4618      	mov	r0, r3
 800c5c0:	371c      	adds	r7, #28
 800c5c2:	46bd      	mov	sp, r7
 800c5c4:	bd90      	pop	{r4, r7, pc}
 800c5c6:	bf00      	nop
 800c5c8:	1ff80000 	.word	0x1ff80000

0800c5cc <USB_CoreReset.lto_priv.169>:
USB_CoreReset.lto_priv.169():
 800c5cc:	4b0a      	ldr	r3, [pc, #40]	; (800c5f8 <USB_CoreReset.lto_priv.169+0x2c>)
 800c5ce:	3b01      	subs	r3, #1
 800c5d0:	d101      	bne.n	800c5d6 <USB_CoreReset.lto_priv.169+0xa>
 800c5d2:	2003      	movs	r0, #3
 800c5d4:	4770      	bx	lr
 800c5d6:	6902      	ldr	r2, [r0, #16]
 800c5d8:	2a00      	cmp	r2, #0
 800c5da:	daf8      	bge.n	800c5ce <USB_CoreReset.lto_priv.169+0x2>
 800c5dc:	6903      	ldr	r3, [r0, #16]
 800c5de:	4a06      	ldr	r2, [pc, #24]	; (800c5f8 <USB_CoreReset.lto_priv.169+0x2c>)
 800c5e0:	f043 0301 	orr.w	r3, r3, #1
 800c5e4:	6103      	str	r3, [r0, #16]
 800c5e6:	3a01      	subs	r2, #1
 800c5e8:	d0f3      	beq.n	800c5d2 <USB_CoreReset.lto_priv.169+0x6>
 800c5ea:	6903      	ldr	r3, [r0, #16]
 800c5ec:	f013 0301 	ands.w	r3, r3, #1
 800c5f0:	d1f9      	bne.n	800c5e6 <USB_CoreReset.lto_priv.169+0x1a>
 800c5f2:	4618      	mov	r0, r3
 800c5f4:	4770      	bx	lr
 800c5f6:	bf00      	nop
 800c5f8:	00030d41 	.word	0x00030d41

0800c5fc <HAL_RCC_GetHCLKFreq>:
HAL_RCC_GetHCLKFreq():
 800c5fc:	492b      	ldr	r1, [pc, #172]	; (800c6ac <HAL_RCC_GetHCLKFreq+0xb0>)
 800c5fe:	688b      	ldr	r3, [r1, #8]
 800c600:	f003 030c 	and.w	r3, r3, #12
 800c604:	2b04      	cmp	r3, #4
 800c606:	b470      	push	{r4, r5, r6}
 800c608:	d04d      	beq.n	800c6a6 <HAL_RCC_GetHCLKFreq+0xaa>
 800c60a:	2b08      	cmp	r3, #8
 800c60c:	d013      	beq.n	800c636 <HAL_RCC_GetHCLKFreq+0x3a>
 800c60e:	4828      	ldr	r0, [pc, #160]	; (800c6b0 <HAL_RCC_GetHCLKFreq+0xb4>)
 800c610:	4a26      	ldr	r2, [pc, #152]	; (800c6ac <HAL_RCC_GetHCLKFreq+0xb0>)
 800c612:	23f0      	movs	r3, #240	; 0xf0
 800c614:	6892      	ldr	r2, [r2, #8]
 800c616:	fa93 f3a3 	rbit	r3, r3
 800c61a:	fab3 f383 	clz	r3, r3
 800c61e:	f002 02f0 	and.w	r2, r2, #240	; 0xf0
 800c622:	b2db      	uxtb	r3, r3
 800c624:	fa22 f303 	lsr.w	r3, r2, r3
 800c628:	4922      	ldr	r1, [pc, #136]	; (800c6b4 <HAL_RCC_GetHCLKFreq+0xb8>)
 800c62a:	4a23      	ldr	r2, [pc, #140]	; (800c6b8 <HAL_RCC_GetHCLKFreq+0xbc>)
 800c62c:	5ccb      	ldrb	r3, [r1, r3]
 800c62e:	40d8      	lsrs	r0, r3
 800c630:	6010      	str	r0, [r2, #0]
 800c632:	bc70      	pop	{r4, r5, r6}
 800c634:	4770      	bx	lr
 800c636:	684a      	ldr	r2, [r1, #4]
 800c638:	684d      	ldr	r5, [r1, #4]
 800c63a:	f002 063f 	and.w	r6, r2, #63	; 0x3f
 800c63e:	f44f 0480 	mov.w	r4, #4194304	; 0x400000
 800c642:	fa94 f4a4 	rbit	r4, r4
 800c646:	fab4 f484 	clz	r4, r4
 800c64a:	f405 0580 	and.w	r5, r5, #4194304	; 0x400000
 800c64e:	b2e4      	uxtb	r4, r4
 800c650:	fa35 f304 	lsrs.w	r3, r5, r4
 800c654:	f647 72c0 	movw	r2, #32704	; 0x7fc0
 800c658:	684b      	ldr	r3, [r1, #4]
 800c65a:	fa92 f2a2 	rbit	r2, r2
 800c65e:	fab2 f282 	clz	r2, r2
 800c662:	f647 70c0 	movw	r0, #32704	; 0x7fc0
 800c666:	b2d2      	uxtb	r2, r2
 800c668:	ea00 0003 	and.w	r0, r0, r3
 800c66c:	fa20 f002 	lsr.w	r0, r0, r2
 800c670:	bf16      	itet	ne
 800c672:	4912      	ldrne	r1, [pc, #72]	; (800c6bc <HAL_RCC_GetHCLKFreq+0xc0>)
 800c674:	4a0e      	ldreq	r2, [pc, #56]	; (800c6b0 <HAL_RCC_GetHCLKFreq+0xb4>)
 800c676:	fbb1 f2f6 	udivne	r2, r1, r6
 800c67a:	490c      	ldr	r1, [pc, #48]	; (800c6ac <HAL_RCC_GetHCLKFreq+0xb0>)
 800c67c:	bf08      	it	eq
 800c67e:	fbb2 f2f6 	udiveq	r2, r2, r6
 800c682:	fb02 f300 	mul.w	r3, r2, r0
 800c686:	f44f 3240 	mov.w	r2, #196608	; 0x30000
 800c68a:	6848      	ldr	r0, [r1, #4]
 800c68c:	fa92 f2a2 	rbit	r2, r2
 800c690:	fab2 f282 	clz	r2, r2
 800c694:	f400 3040 	and.w	r0, r0, #196608	; 0x30000
 800c698:	b2d2      	uxtb	r2, r2
 800c69a:	40d0      	lsrs	r0, r2
 800c69c:	3001      	adds	r0, #1
 800c69e:	0040      	lsls	r0, r0, #1
 800c6a0:	fbb3 f0f0 	udiv	r0, r3, r0
 800c6a4:	e7b4      	b.n	800c610 <HAL_RCC_GetHCLKFreq+0x14>
 800c6a6:	4805      	ldr	r0, [pc, #20]	; (800c6bc <HAL_RCC_GetHCLKFreq+0xc0>)
 800c6a8:	e7b2      	b.n	800c610 <HAL_RCC_GetHCLKFreq+0x14>
 800c6aa:	bf00      	nop
 800c6ac:	40023800 	.word	0x40023800
 800c6b0:	00f42400 	.word	0x00f42400
 800c6b4:	0801ee60 	.word	0x0801ee60
 800c6b8:	20000060 	.word	0x20000060
 800c6bc:	007a1200 	.word	0x007a1200

0800c6c0 <HAL_GPIO_Init>:
HAL_GPIO_Init():
 800c6c0:	e92d 4ff0 	stmdb	sp!, {r4, r5, r6, r7, r8, r9, sl, fp, lr}
 800c6c4:	b083      	sub	sp, #12
 800c6c6:	680f      	ldr	r7, [r1, #0]
 800c6c8:	f8df e214 	ldr.w	lr, [pc, #532]	; 800c8e0 <HAL_GPIO_Init+0x220>
 800c6cc:	f8df c214 	ldr.w	ip, [pc, #532]	; 800c8e4 <HAL_GPIO_Init+0x224>
 800c6d0:	4e81      	ldr	r6, [pc, #516]	; (800c8d8 <HAL_GPIO_Init+0x218>)
 800c6d2:	9701      	str	r7, [sp, #4]
 800c6d4:	2300      	movs	r3, #0
 800c6d6:	e003      	b.n	800c6e0 <HAL_GPIO_Init+0x20>
 800c6d8:	3301      	adds	r3, #1
 800c6da:	2b10      	cmp	r3, #16
 800c6dc:	f000 80ba 	beq.w	800c854 <HAL_GPIO_Init+0x194>
 800c6e0:	2201      	movs	r2, #1
 800c6e2:	9c01      	ldr	r4, [sp, #4]
 800c6e4:	409a      	lsls	r2, r3
 800c6e6:	4014      	ands	r4, r2
 800c6e8:	4294      	cmp	r4, r2
 800c6ea:	d1f5      	bne.n	800c6d8 <HAL_GPIO_Init+0x18>
 800c6ec:	684d      	ldr	r5, [r1, #4]
 800c6ee:	f025 0a10 	bic.w	sl, r5, #16
 800c6f2:	f1ba 0f02 	cmp.w	sl, #2
 800c6f6:	d06c      	beq.n	800c7d2 <HAL_GPIO_Init+0x112>
 800c6f8:	ea4f 0943 	mov.w	r9, r3, lsl #1
 800c6fc:	2203      	movs	r2, #3
 800c6fe:	f8d0 b000 	ldr.w	fp, [r0]
 800c702:	fa02 f209 	lsl.w	r2, r2, r9
 800c706:	43d2      	mvns	r2, r2
 800c708:	f005 0803 	and.w	r8, r5, #3
 800c70c:	ea02 0b0b 	and.w	fp, r2, fp
 800c710:	fa08 f809 	lsl.w	r8, r8, r9
 800c714:	f10a 3aff 	add.w	sl, sl, #4294967295
 800c718:	ea4b 0808 	orr.w	r8, fp, r8
 800c71c:	f1ba 0f01 	cmp.w	sl, #1
 800c720:	f8c0 8000 	str.w	r8, [r0]
 800c724:	d97e      	bls.n	800c824 <HAL_GPIO_Init+0x164>
 800c726:	f8d0 800c 	ldr.w	r8, [r0, #12]
 800c72a:	688f      	ldr	r7, [r1, #8]
 800c72c:	ea02 0208 	and.w	r2, r2, r8
 800c730:	fa07 f809 	lsl.w	r8, r7, r9
 800c734:	ea42 0208 	orr.w	r2, r2, r8
 800c738:	60c2      	str	r2, [r0, #12]
 800c73a:	00ea      	lsls	r2, r5, #3
 800c73c:	d5cc      	bpl.n	800c6d8 <HAL_GPIO_Init+0x18>
 800c73e:	f8de 8044 	ldr.w	r8, [lr, #68]	; 0x44
 800c742:	f023 0203 	bic.w	r2, r3, #3
 800c746:	f102 4280 	add.w	r2, r2, #1073741824	; 0x40000000
 800c74a:	f448 4880 	orr.w	r8, r8, #16384	; 0x4000
 800c74e:	f502 329c 	add.w	r2, r2, #79872	; 0x13800
 800c752:	f8ce 8044 	str.w	r8, [lr, #68]	; 0x44
 800c756:	f003 0803 	and.w	r8, r3, #3
 800c75a:	f8d2 a008 	ldr.w	sl, [r2, #8]
 800c75e:	ea4f 0888 	mov.w	r8, r8, lsl #2
 800c762:	f04f 090f 	mov.w	r9, #15
 800c766:	fa09 f908 	lsl.w	r9, r9, r8
 800c76a:	4560      	cmp	r0, ip
 800c76c:	ea2a 0909 	bic.w	r9, sl, r9
 800c770:	d073      	beq.n	800c85a <HAL_GPIO_Init+0x19a>
 800c772:	4f5a      	ldr	r7, [pc, #360]	; (800c8dc <HAL_GPIO_Init+0x21c>)
 800c774:	42b8      	cmp	r0, r7
 800c776:	f000 8097 	beq.w	800c8a8 <HAL_GPIO_Init+0x1e8>
 800c77a:	f507 6780 	add.w	r7, r7, #1024	; 0x400
 800c77e:	42b8      	cmp	r0, r7
 800c780:	f000 8095 	beq.w	800c8ae <HAL_GPIO_Init+0x1ee>
 800c784:	f507 6780 	add.w	r7, r7, #1024	; 0x400
 800c788:	42b8      	cmp	r0, r7
 800c78a:	f000 8093 	beq.w	800c8b4 <HAL_GPIO_Init+0x1f4>
 800c78e:	f507 6780 	add.w	r7, r7, #1024	; 0x400
 800c792:	42b8      	cmp	r0, r7
 800c794:	f000 8091 	beq.w	800c8ba <HAL_GPIO_Init+0x1fa>
 800c798:	f507 6780 	add.w	r7, r7, #1024	; 0x400
 800c79c:	42b8      	cmp	r0, r7
 800c79e:	f000 8092 	beq.w	800c8c6 <HAL_GPIO_Init+0x206>
 800c7a2:	f507 6780 	add.w	r7, r7, #1024	; 0x400
 800c7a6:	42b8      	cmp	r0, r7
 800c7a8:	f000 8090 	beq.w	800c8cc <HAL_GPIO_Init+0x20c>
 800c7ac:	f8df a138 	ldr.w	sl, [pc, #312]	; 800c8e8 <HAL_GPIO_Init+0x228>
 800c7b0:	4550      	cmp	r0, sl
 800c7b2:	f000 8085 	beq.w	800c8c0 <HAL_GPIO_Init+0x200>
 800c7b6:	f50a 6a80 	add.w	sl, sl, #1024	; 0x400
 800c7ba:	4550      	cmp	r0, sl
 800c7bc:	f000 8089 	beq.w	800c8d2 <HAL_GPIO_Init+0x212>
 800c7c0:	f50a 6a80 	add.w	sl, sl, #1024	; 0x400
 800c7c4:	4550      	cmp	r0, sl
 800c7c6:	bf0c      	ite	eq
 800c7c8:	f04f 0a09 	moveq.w	sl, #9
 800c7cc:	f04f 0a0a 	movne.w	sl, #10
 800c7d0:	e045      	b.n	800c85e <HAL_GPIO_Init+0x19e>
 800c7d2:	ea4f 09d3 	mov.w	r9, r3, lsr #3
 800c7d6:	eb00 0989 	add.w	r9, r0, r9, lsl #2
 800c7da:	f003 0807 	and.w	r8, r3, #7
 800c7de:	f8d9 2020 	ldr.w	r2, [r9, #32]
 800c7e2:	ea4f 0888 	mov.w	r8, r8, lsl #2
 800c7e6:	f04f 0a0f 	mov.w	sl, #15
 800c7ea:	fa0a fa08 	lsl.w	sl, sl, r8
 800c7ee:	ea22 0a0a 	bic.w	sl, r2, sl
 800c7f2:	690a      	ldr	r2, [r1, #16]
 800c7f4:	fa02 f208 	lsl.w	r2, r2, r8
 800c7f8:	ea4a 0202 	orr.w	r2, sl, r2
 800c7fc:	f8c9 2020 	str.w	r2, [r9, #32]
 800c800:	ea4f 0943 	mov.w	r9, r3, lsl #1
 800c804:	2203      	movs	r2, #3
 800c806:	f8d0 a000 	ldr.w	sl, [r0]
 800c80a:	fa02 f209 	lsl.w	r2, r2, r9
 800c80e:	43d2      	mvns	r2, r2
 800c810:	f005 0803 	and.w	r8, r5, #3
 800c814:	ea02 0a0a 	and.w	sl, r2, sl
 800c818:	fa08 f809 	lsl.w	r8, r8, r9
 800c81c:	ea4a 0808 	orr.w	r8, sl, r8
 800c820:	f8c0 8000 	str.w	r8, [r0]
 800c824:	f8d0 8008 	ldr.w	r8, [r0, #8]
 800c828:	68cf      	ldr	r7, [r1, #12]
 800c82a:	ea02 0a08 	and.w	sl, r2, r8
 800c82e:	fa07 f809 	lsl.w	r8, r7, r9
 800c832:	ea4a 0808 	orr.w	r8, sl, r8
 800c836:	f8c0 8008 	str.w	r8, [r0, #8]
 800c83a:	f8d0 a004 	ldr.w	sl, [r0, #4]
 800c83e:	f3c5 1800 	ubfx	r8, r5, #4, #1
 800c842:	ea2a 0a04 	bic.w	sl, sl, r4
 800c846:	fa08 f803 	lsl.w	r8, r8, r3
 800c84a:	ea4a 0808 	orr.w	r8, sl, r8
 800c84e:	f8c0 8004 	str.w	r8, [r0, #4]
 800c852:	e768      	b.n	800c726 <HAL_GPIO_Init+0x66>
 800c854:	b003      	add	sp, #12
 800c856:	e8bd 8ff0 	ldmia.w	sp!, {r4, r5, r6, r7, r8, r9, sl, fp, pc}
 800c85a:	f04f 0a00 	mov.w	sl, #0
 800c85e:	fa0a f808 	lsl.w	r8, sl, r8
 800c862:	ea48 0909 	orr.w	r9, r8, r9
 800c866:	f8c2 9008 	str.w	r9, [r2, #8]
 800c86a:	6832      	ldr	r2, [r6, #0]
 800c86c:	ea6f 0804 	mvn.w	r8, r4
 800c870:	03ef      	lsls	r7, r5, #15
 800c872:	bf4c      	ite	mi
 800c874:	4322      	orrmi	r2, r4
 800c876:	ea08 0202 	andpl.w	r2, r8, r2
 800c87a:	6032      	str	r2, [r6, #0]
 800c87c:	6872      	ldr	r2, [r6, #4]
 800c87e:	03af      	lsls	r7, r5, #14
 800c880:	bf4c      	ite	mi
 800c882:	4322      	orrmi	r2, r4
 800c884:	ea08 0202 	andpl.w	r2, r8, r2
 800c888:	6072      	str	r2, [r6, #4]
 800c88a:	68b2      	ldr	r2, [r6, #8]
 800c88c:	02ef      	lsls	r7, r5, #11
 800c88e:	bf4c      	ite	mi
 800c890:	4322      	orrmi	r2, r4
 800c892:	ea08 0202 	andpl.w	r2, r8, r2
 800c896:	60b2      	str	r2, [r6, #8]
 800c898:	68f2      	ldr	r2, [r6, #12]
 800c89a:	02ad      	lsls	r5, r5, #10
 800c89c:	bf54      	ite	pl
 800c89e:	ea08 0402 	andpl.w	r4, r8, r2
 800c8a2:	4314      	orrmi	r4, r2
 800c8a4:	60f4      	str	r4, [r6, #12]
 800c8a6:	e717      	b.n	800c6d8 <HAL_GPIO_Init+0x18>
 800c8a8:	f04f 0a01 	mov.w	sl, #1
 800c8ac:	e7d7      	b.n	800c85e <HAL_GPIO_Init+0x19e>
 800c8ae:	f04f 0a02 	mov.w	sl, #2
 800c8b2:	e7d4      	b.n	800c85e <HAL_GPIO_Init+0x19e>
 800c8b4:	f04f 0a03 	mov.w	sl, #3
 800c8b8:	e7d1      	b.n	800c85e <HAL_GPIO_Init+0x19e>
 800c8ba:	f04f 0a04 	mov.w	sl, #4
 800c8be:	e7ce      	b.n	800c85e <HAL_GPIO_Init+0x19e>
 800c8c0:	f04f 0a07 	mov.w	sl, #7
 800c8c4:	e7cb      	b.n	800c85e <HAL_GPIO_Init+0x19e>
 800c8c6:	f04f 0a05 	mov.w	sl, #5
 800c8ca:	e7c8      	b.n	800c85e <HAL_GPIO_Init+0x19e>
 800c8cc:	f04f 0a06 	mov.w	sl, #6
 800c8d0:	e7c5      	b.n	800c85e <HAL_GPIO_Init+0x19e>
 800c8d2:	f04f 0a08 	mov.w	sl, #8
 800c8d6:	e7c2      	b.n	800c85e <HAL_GPIO_Init+0x19e>
 800c8d8:	40013c00 	.word	0x40013c00
 800c8dc:	40020400 	.word	0x40020400
 800c8e0:	40023800 	.word	0x40023800
 800c8e4:	40020000 	.word	0x40020000
 800c8e8:	40021c00 	.word	0x40021c00

0800c8ec <cs43l22_Resume>:
cs43l22_Resume():
 800c8ec:	b5f0      	push	{r4, r5, r6, r7, lr}
 800c8ee:	b083      	sub	sp, #12
 800c8f0:	2300      	movs	r3, #0
 800c8f2:	4c67      	ldr	r4, [pc, #412]	; (800ca90 <cs43l22_Resume+0x1a4>)
 800c8f4:	4e67      	ldr	r6, [pc, #412]	; (800ca94 <cs43l22_Resume+0x1a8>)
 800c8f6:	9301      	str	r3, [sp, #4]
 800c8f8:	7832      	ldrb	r2, [r6, #0]
 800c8fa:	f894 3035 	ldrb.w	r3, [r4, #53]	; 0x35
 800c8fe:	f88d 2001 	strb.w	r2, [sp, #1]
 800c902:	b2db      	uxtb	r3, r3
 800c904:	2b01      	cmp	r3, #1
 800c906:	b2c5      	uxtb	r5, r0
 800c908:	6822      	ldr	r2, [r4, #0]
 800c90a:	d051      	beq.n	800c9b0 <cs43l22_Resume+0xc4>
 800c90c:	2302      	movs	r3, #2
 800c90e:	f884 3035 	strb.w	r3, [r4, #53]	; 0x35
 800c912:	6813      	ldr	r3, [r2, #0]
 800c914:	f023 0301 	bic.w	r3, r3, #1
 800c918:	6013      	str	r3, [r2, #0]
 800c91a:	2300      	movs	r3, #0
 800c91c:	f884 3036 	strb.w	r3, [r4, #54]	; 0x36
 800c920:	f884 3034 	strb.w	r3, [r4, #52]	; 0x34
 800c924:	f884 3035 	strb.w	r3, [r4, #53]	; 0x35
 800c928:	f000 fdba 	bl	800d4a0 <I2Cx_Init.lto_priv.174>
 800c92c:	2300      	movs	r3, #0
 800c92e:	9301      	str	r3, [sp, #4]
 800c930:	9b01      	ldr	r3, [sp, #4]
 800c932:	2bfe      	cmp	r3, #254	; 0xfe
 800c934:	d805      	bhi.n	800c942 <cs43l22_Resume+0x56>
 800c936:	9b01      	ldr	r3, [sp, #4]
 800c938:	3301      	adds	r3, #1
 800c93a:	9301      	str	r3, [sp, #4]
 800c93c:	9b01      	ldr	r3, [sp, #4]
 800c93e:	2bfe      	cmp	r3, #254	; 0xfe
 800c940:	d9f9      	bls.n	800c936 <cs43l22_Resume+0x4a>
 800c942:	7832      	ldrb	r2, [r6, #0]
 800c944:	f894 3035 	ldrb.w	r3, [r4, #53]	; 0x35
 800c948:	f88d 2002 	strb.w	r2, [sp, #2]
 800c94c:	b2db      	uxtb	r3, r3
 800c94e:	2b01      	cmp	r3, #1
 800c950:	4e4f      	ldr	r6, [pc, #316]	; (800ca90 <cs43l22_Resume+0x1a4>)
 800c952:	d04f      	beq.n	800c9f4 <cs43l22_Resume+0x108>
 800c954:	6832      	ldr	r2, [r6, #0]
 800c956:	2302      	movs	r3, #2
 800c958:	f884 3035 	strb.w	r3, [r4, #53]	; 0x35
 800c95c:	6813      	ldr	r3, [r2, #0]
 800c95e:	f023 0301 	bic.w	r3, r3, #1
 800c962:	6013      	str	r3, [r2, #0]
 800c964:	2300      	movs	r3, #0
 800c966:	f884 3036 	strb.w	r3, [r4, #54]	; 0x36
 800c96a:	f884 3034 	strb.w	r3, [r4, #52]	; 0x34
 800c96e:	f884 3035 	strb.w	r3, [r4, #53]	; 0x35
 800c972:	f000 fd95 	bl	800d4a0 <I2Cx_Init.lto_priv.174>
 800c976:	f894 3035 	ldrb.w	r3, [r4, #53]	; 0x35
 800c97a:	4e45      	ldr	r6, [pc, #276]	; (800ca90 <cs43l22_Resume+0x1a4>)
 800c97c:	b2db      	uxtb	r3, r3
 800c97e:	229e      	movs	r2, #158	; 0x9e
 800c980:	2b01      	cmp	r3, #1
 800c982:	f88d 2003 	strb.w	r2, [sp, #3]
 800c986:	6832      	ldr	r2, [r6, #0]
 800c988:	d055      	beq.n	800ca36 <cs43l22_Resume+0x14a>
 800c98a:	2302      	movs	r3, #2
 800c98c:	f884 3035 	strb.w	r3, [r4, #53]	; 0x35
 800c990:	6813      	ldr	r3, [r2, #0]
 800c992:	f023 0301 	bic.w	r3, r3, #1
 800c996:	6013      	str	r3, [r2, #0]
 800c998:	2300      	movs	r3, #0
 800c99a:	f884 3036 	strb.w	r3, [r4, #54]	; 0x36
 800c99e:	f884 3034 	strb.w	r3, [r4, #52]	; 0x34
 800c9a2:	f884 3035 	strb.w	r3, [r4, #53]	; 0x35
 800c9a6:	f000 fd7b 	bl	800d4a0 <I2Cx_Init.lto_priv.174>
 800c9aa:	2000      	movs	r0, #0
 800c9ac:	b003      	add	sp, #12
 800c9ae:	bdf0      	pop	{r4, r5, r6, r7, pc}
 800c9b0:	6991      	ldr	r1, [r2, #24]
 800c9b2:	f011 0702 	ands.w	r7, r1, #2
 800c9b6:	d1a9      	bne.n	800c90c <cs43l22_Resume+0x20>
 800c9b8:	f894 1034 	ldrb.w	r1, [r4, #52]	; 0x34
 800c9bc:	2901      	cmp	r1, #1
 800c9be:	d0a5      	beq.n	800c90c <cs43l22_Resume+0x20>
 800c9c0:	f04f 0e32 	mov.w	lr, #50	; 0x32
 800c9c4:	4628      	mov	r0, r5
 800c9c6:	2104      	movs	r1, #4
 800c9c8:	f44f 5280 	mov.w	r2, #4096	; 0x1000
 800c9cc:	f884 e035 	strb.w	lr, [r4, #53]	; 0x35
 800c9d0:	f884 3034 	strb.w	r3, [r4, #52]	; 0x34
 800c9d4:	f884 7036 	strb.w	r7, [r4, #54]	; 0x36
 800c9d8:	f000 fc96 	bl	800d308 <I2C_RequestMemoryWrite.constprop.63>
 800c9dc:	2800      	cmp	r0, #0
 800c9de:	d152      	bne.n	800ca86 <cs43l22_Resume+0x19a>
 800c9e0:	f10d 0001 	add.w	r0, sp, #1
 800c9e4:	f44f 5180 	mov.w	r1, #4096	; 0x1000
 800c9e8:	f000 fcfc 	bl	800d3e4 <HAL_I2C_Mem_Write.part.16.constprop.60>
 800c9ec:	2800      	cmp	r0, #0
 800c9ee:	d09d      	beq.n	800c92c <cs43l22_Resume+0x40>
 800c9f0:	6822      	ldr	r2, [r4, #0]
 800c9f2:	e78b      	b.n	800c90c <cs43l22_Resume+0x20>
 800c9f4:	6832      	ldr	r2, [r6, #0]
 800c9f6:	6991      	ldr	r1, [r2, #24]
 800c9f8:	f011 0702 	ands.w	r7, r1, #2
 800c9fc:	d1ab      	bne.n	800c956 <cs43l22_Resume+0x6a>
 800c9fe:	f896 1034 	ldrb.w	r1, [r6, #52]	; 0x34
 800ca02:	2901      	cmp	r1, #1
 800ca04:	d0a7      	beq.n	800c956 <cs43l22_Resume+0x6a>
 800ca06:	f04f 0e32 	mov.w	lr, #50	; 0x32
 800ca0a:	4628      	mov	r0, r5
 800ca0c:	2104      	movs	r1, #4
 800ca0e:	f44f 5280 	mov.w	r2, #4096	; 0x1000
 800ca12:	f886 e035 	strb.w	lr, [r6, #53]	; 0x35
 800ca16:	f886 3034 	strb.w	r3, [r6, #52]	; 0x34
 800ca1a:	f886 7036 	strb.w	r7, [r6, #54]	; 0x36
 800ca1e:	f000 fc73 	bl	800d308 <I2C_RequestMemoryWrite.constprop.63>
 800ca22:	bb60      	cbnz	r0, 800ca7e <cs43l22_Resume+0x192>
 800ca24:	f10d 0002 	add.w	r0, sp, #2
 800ca28:	f44f 5180 	mov.w	r1, #4096	; 0x1000
 800ca2c:	f000 fcda 	bl	800d3e4 <HAL_I2C_Mem_Write.part.16.constprop.60>
 800ca30:	2800      	cmp	r0, #0
 800ca32:	d0a0      	beq.n	800c976 <cs43l22_Resume+0x8a>
 800ca34:	e78e      	b.n	800c954 <cs43l22_Resume+0x68>
 800ca36:	6991      	ldr	r1, [r2, #24]
 800ca38:	f011 0702 	ands.w	r7, r1, #2
 800ca3c:	d1a5      	bne.n	800c98a <cs43l22_Resume+0x9e>
 800ca3e:	f896 1034 	ldrb.w	r1, [r6, #52]	; 0x34
 800ca42:	2901      	cmp	r1, #1
 800ca44:	d0a1      	beq.n	800c98a <cs43l22_Resume+0x9e>
 800ca46:	4628      	mov	r0, r5
 800ca48:	2102      	movs	r1, #2
 800ca4a:	2532      	movs	r5, #50	; 0x32
 800ca4c:	f44f 5280 	mov.w	r2, #4096	; 0x1000
 800ca50:	f886 5035 	strb.w	r5, [r6, #53]	; 0x35
 800ca54:	f886 3034 	strb.w	r3, [r6, #52]	; 0x34
 800ca58:	f886 7036 	strb.w	r7, [r6, #54]	; 0x36
 800ca5c:	f000 fc54 	bl	800d308 <I2C_RequestMemoryWrite.constprop.63>
 800ca60:	b948      	cbnz	r0, 800ca76 <cs43l22_Resume+0x18a>
 800ca62:	f10d 0003 	add.w	r0, sp, #3
 800ca66:	f44f 5180 	mov.w	r1, #4096	; 0x1000
 800ca6a:	f000 fcbb 	bl	800d3e4 <HAL_I2C_Mem_Write.part.16.constprop.60>
 800ca6e:	2800      	cmp	r0, #0
 800ca70:	d09b      	beq.n	800c9aa <cs43l22_Resume+0xbe>
 800ca72:	6832      	ldr	r2, [r6, #0]
 800ca74:	e789      	b.n	800c98a <cs43l22_Resume+0x9e>
 800ca76:	f896 3036 	ldrb.w	r3, [r6, #54]	; 0x36
 800ca7a:	6832      	ldr	r2, [r6, #0]
 800ca7c:	e785      	b.n	800c98a <cs43l22_Resume+0x9e>
 800ca7e:	f896 3036 	ldrb.w	r3, [r6, #54]	; 0x36
 800ca82:	6832      	ldr	r2, [r6, #0]
 800ca84:	e767      	b.n	800c956 <cs43l22_Resume+0x6a>
 800ca86:	f894 3036 	ldrb.w	r3, [r4, #54]	; 0x36
 800ca8a:	6822      	ldr	r2, [r4, #0]
 800ca8c:	e73e      	b.n	800c90c <cs43l22_Resume+0x20>
 800ca8e:	bf00      	nop
 800ca90:	2001f738 	.word	0x2001f738
 800ca94:	2001f105 	.word	0x2001f105

0800ca98 <cs43l22_Pause>:
cs43l22_Pause():
 800ca98:	b5f0      	push	{r4, r5, r6, r7, lr}
 800ca9a:	4c40      	ldr	r4, [pc, #256]	; (800cb9c <cs43l22_Pause+0x104>)
 800ca9c:	f894 3035 	ldrb.w	r3, [r4, #53]	; 0x35
 800caa0:	b083      	sub	sp, #12
 800caa2:	b2db      	uxtb	r3, r3
 800caa4:	22ff      	movs	r2, #255	; 0xff
 800caa6:	2b01      	cmp	r3, #1
 800caa8:	f88d 2006 	strb.w	r2, [sp, #6]
 800caac:	b2c6      	uxtb	r6, r0
 800caae:	6822      	ldr	r2, [r4, #0]
 800cab0:	d02c      	beq.n	800cb0c <cs43l22_Pause+0x74>
 800cab2:	2302      	movs	r3, #2
 800cab4:	f884 3035 	strb.w	r3, [r4, #53]	; 0x35
 800cab8:	6813      	ldr	r3, [r2, #0]
 800caba:	f023 0301 	bic.w	r3, r3, #1
 800cabe:	6013      	str	r3, [r2, #0]
 800cac0:	2300      	movs	r3, #0
 800cac2:	f884 3036 	strb.w	r3, [r4, #54]	; 0x36
 800cac6:	f884 3034 	strb.w	r3, [r4, #52]	; 0x34
 800caca:	f884 3035 	strb.w	r3, [r4, #53]	; 0x35
 800cace:	f000 fce7 	bl	800d4a0 <I2Cx_Init.lto_priv.174>
 800cad2:	f894 3035 	ldrb.w	r3, [r4, #53]	; 0x35
 800cad6:	4d31      	ldr	r5, [pc, #196]	; (800cb9c <cs43l22_Pause+0x104>)
 800cad8:	2201      	movs	r2, #1
 800cada:	b2db      	uxtb	r3, r3
 800cadc:	4293      	cmp	r3, r2
 800cade:	f88d 2007 	strb.w	r2, [sp, #7]
 800cae2:	682a      	ldr	r2, [r5, #0]
 800cae4:	d032      	beq.n	800cb4c <cs43l22_Pause+0xb4>
 800cae6:	2302      	movs	r3, #2
 800cae8:	f884 3035 	strb.w	r3, [r4, #53]	; 0x35
 800caec:	6813      	ldr	r3, [r2, #0]
 800caee:	f023 0301 	bic.w	r3, r3, #1
 800caf2:	6013      	str	r3, [r2, #0]
 800caf4:	2300      	movs	r3, #0
 800caf6:	f884 3036 	strb.w	r3, [r4, #54]	; 0x36
 800cafa:	f884 3034 	strb.w	r3, [r4, #52]	; 0x34
 800cafe:	f884 3035 	strb.w	r3, [r4, #53]	; 0x35
 800cb02:	f000 fccd 	bl	800d4a0 <I2Cx_Init.lto_priv.174>
 800cb06:	2000      	movs	r0, #0
 800cb08:	b003      	add	sp, #12
 800cb0a:	bdf0      	pop	{r4, r5, r6, r7, pc}
 800cb0c:	6991      	ldr	r1, [r2, #24]
 800cb0e:	f011 0502 	ands.w	r5, r1, #2
 800cb12:	d1ce      	bne.n	800cab2 <cs43l22_Pause+0x1a>
 800cb14:	f894 1034 	ldrb.w	r1, [r4, #52]	; 0x34
 800cb18:	2901      	cmp	r1, #1
 800cb1a:	d0ca      	beq.n	800cab2 <cs43l22_Pause+0x1a>
 800cb1c:	2732      	movs	r7, #50	; 0x32
 800cb1e:	4630      	mov	r0, r6
 800cb20:	2104      	movs	r1, #4
 800cb22:	f44f 5280 	mov.w	r2, #4096	; 0x1000
 800cb26:	f884 7035 	strb.w	r7, [r4, #53]	; 0x35
 800cb2a:	f884 3034 	strb.w	r3, [r4, #52]	; 0x34
 800cb2e:	f884 5036 	strb.w	r5, [r4, #54]	; 0x36
 800cb32:	f000 fbe9 	bl	800d308 <I2C_RequestMemoryWrite.constprop.63>
 800cb36:	bb68      	cbnz	r0, 800cb94 <cs43l22_Pause+0xfc>
 800cb38:	f10d 0006 	add.w	r0, sp, #6
 800cb3c:	f44f 5180 	mov.w	r1, #4096	; 0x1000
 800cb40:	f000 fc50 	bl	800d3e4 <HAL_I2C_Mem_Write.part.16.constprop.60>
 800cb44:	2800      	cmp	r0, #0
 800cb46:	d0c4      	beq.n	800cad2 <cs43l22_Pause+0x3a>
 800cb48:	6822      	ldr	r2, [r4, #0]
 800cb4a:	e7b2      	b.n	800cab2 <cs43l22_Pause+0x1a>
 800cb4c:	6991      	ldr	r1, [r2, #24]
 800cb4e:	f011 0702 	ands.w	r7, r1, #2
 800cb52:	d1c8      	bne.n	800cae6 <cs43l22_Pause+0x4e>
 800cb54:	f895 1034 	ldrb.w	r1, [r5, #52]	; 0x34
 800cb58:	2901      	cmp	r1, #1
 800cb5a:	d0c4      	beq.n	800cae6 <cs43l22_Pause+0x4e>
 800cb5c:	4630      	mov	r0, r6
 800cb5e:	2102      	movs	r1, #2
 800cb60:	2632      	movs	r6, #50	; 0x32
 800cb62:	f44f 5280 	mov.w	r2, #4096	; 0x1000
 800cb66:	f885 6035 	strb.w	r6, [r5, #53]	; 0x35
 800cb6a:	f885 3034 	strb.w	r3, [r5, #52]	; 0x34
 800cb6e:	f885 7036 	strb.w	r7, [r5, #54]	; 0x36
 800cb72:	f000 fbc9 	bl	800d308 <I2C_RequestMemoryWrite.constprop.63>
 800cb76:	b948      	cbnz	r0, 800cb8c <cs43l22_Pause+0xf4>
 800cb78:	f10d 0007 	add.w	r0, sp, #7
 800cb7c:	f44f 5180 	mov.w	r1, #4096	; 0x1000
 800cb80:	f000 fc30 	bl	800d3e4 <HAL_I2C_Mem_Write.part.16.constprop.60>
 800cb84:	2800      	cmp	r0, #0
 800cb86:	d0be      	beq.n	800cb06 <cs43l22_Pause+0x6e>
 800cb88:	682a      	ldr	r2, [r5, #0]
 800cb8a:	e7ac      	b.n	800cae6 <cs43l22_Pause+0x4e>
 800cb8c:	f895 3036 	ldrb.w	r3, [r5, #54]	; 0x36
 800cb90:	682a      	ldr	r2, [r5, #0]
 800cb92:	e7a8      	b.n	800cae6 <cs43l22_Pause+0x4e>
 800cb94:	f894 3036 	ldrb.w	r3, [r4, #54]	; 0x36
 800cb98:	6822      	ldr	r2, [r4, #0]
 800cb9a:	e78a      	b.n	800cab2 <cs43l22_Pause+0x1a>
 800cb9c:	2001f738 	.word	0x2001f738

0800cba0 <cs43l22_Play>:
cs43l22_Play():
 800cba0:	b5f0      	push	{r4, r5, r6, r7, lr}
 800cba2:	4c46      	ldr	r4, [pc, #280]	; (800ccbc <cs43l22_Play+0x11c>)
 800cba4:	7823      	ldrb	r3, [r4, #0]
 800cba6:	2b01      	cmp	r3, #1
 800cba8:	b083      	sub	sp, #12
 800cbaa:	d002      	beq.n	800cbb2 <cs43l22_Play+0x12>
 800cbac:	2000      	movs	r0, #0
 800cbae:	b003      	add	sp, #12
 800cbb0:	bdf0      	pop	{r4, r5, r6, r7, pc}
 800cbb2:	4b43      	ldr	r3, [pc, #268]	; (800ccc0 <cs43l22_Play+0x120>)
 800cbb4:	4d43      	ldr	r5, [pc, #268]	; (800ccc4 <cs43l22_Play+0x124>)
 800cbb6:	781a      	ldrb	r2, [r3, #0]
 800cbb8:	f895 3035 	ldrb.w	r3, [r5, #53]	; 0x35
 800cbbc:	f88d 2006 	strb.w	r2, [sp, #6]
 800cbc0:	b2db      	uxtb	r3, r3
 800cbc2:	2b01      	cmp	r3, #1
 800cbc4:	b2c6      	uxtb	r6, r0
 800cbc6:	682a      	ldr	r2, [r5, #0]
 800cbc8:	d02e      	beq.n	800cc28 <cs43l22_Play+0x88>
 800cbca:	2302      	movs	r3, #2
 800cbcc:	f885 3035 	strb.w	r3, [r5, #53]	; 0x35
 800cbd0:	6813      	ldr	r3, [r2, #0]
 800cbd2:	f023 0301 	bic.w	r3, r3, #1
 800cbd6:	6013      	str	r3, [r2, #0]
 800cbd8:	2300      	movs	r3, #0
 800cbda:	f885 3036 	strb.w	r3, [r5, #54]	; 0x36
 800cbde:	f885 3034 	strb.w	r3, [r5, #52]	; 0x34
 800cbe2:	f885 3035 	strb.w	r3, [r5, #53]	; 0x35
 800cbe6:	f000 fc5b 	bl	800d4a0 <I2Cx_Init.lto_priv.174>
 800cbea:	f895 3035 	ldrb.w	r3, [r5, #53]	; 0x35
 800cbee:	4f35      	ldr	r7, [pc, #212]	; (800ccc4 <cs43l22_Play+0x124>)
 800cbf0:	b2db      	uxtb	r3, r3
 800cbf2:	229e      	movs	r2, #158	; 0x9e
 800cbf4:	2b01      	cmp	r3, #1
 800cbf6:	f88d 2007 	strb.w	r2, [sp, #7]
 800cbfa:	683a      	ldr	r2, [r7, #0]
 800cbfc:	d035      	beq.n	800cc6a <cs43l22_Play+0xca>
 800cbfe:	2302      	movs	r3, #2
 800cc00:	f885 3035 	strb.w	r3, [r5, #53]	; 0x35
 800cc04:	6813      	ldr	r3, [r2, #0]
 800cc06:	f023 0301 	bic.w	r3, r3, #1
 800cc0a:	6013      	str	r3, [r2, #0]
 800cc0c:	2300      	movs	r3, #0
 800cc0e:	f885 3036 	strb.w	r3, [r5, #54]	; 0x36
 800cc12:	f885 3034 	strb.w	r3, [r5, #52]	; 0x34
 800cc16:	f885 3035 	strb.w	r3, [r5, #53]	; 0x35
 800cc1a:	f000 fc41 	bl	800d4a0 <I2Cx_Init.lto_priv.174>
 800cc1e:	2300      	movs	r3, #0
 800cc20:	2000      	movs	r0, #0
 800cc22:	7023      	strb	r3, [r4, #0]
 800cc24:	b003      	add	sp, #12
 800cc26:	bdf0      	pop	{r4, r5, r6, r7, pc}
 800cc28:	6991      	ldr	r1, [r2, #24]
 800cc2a:	f011 0702 	ands.w	r7, r1, #2
 800cc2e:	d1cc      	bne.n	800cbca <cs43l22_Play+0x2a>
 800cc30:	f895 1034 	ldrb.w	r1, [r5, #52]	; 0x34
 800cc34:	2901      	cmp	r1, #1
 800cc36:	d0c8      	beq.n	800cbca <cs43l22_Play+0x2a>
 800cc38:	f04f 0e32 	mov.w	lr, #50	; 0x32
 800cc3c:	4630      	mov	r0, r6
 800cc3e:	2104      	movs	r1, #4
 800cc40:	f44f 5280 	mov.w	r2, #4096	; 0x1000
 800cc44:	f885 e035 	strb.w	lr, [r5, #53]	; 0x35
 800cc48:	f885 3034 	strb.w	r3, [r5, #52]	; 0x34
 800cc4c:	f885 7036 	strb.w	r7, [r5, #54]	; 0x36
 800cc50:	f000 fb5a 	bl	800d308 <I2C_RequestMemoryWrite.constprop.63>
 800cc54:	bb48      	cbnz	r0, 800ccaa <cs43l22_Play+0x10a>
 800cc56:	f10d 0006 	add.w	r0, sp, #6
 800cc5a:	f44f 5180 	mov.w	r1, #4096	; 0x1000
 800cc5e:	f000 fbc1 	bl	800d3e4 <HAL_I2C_Mem_Write.part.16.constprop.60>
 800cc62:	2800      	cmp	r0, #0
 800cc64:	d0c1      	beq.n	800cbea <cs43l22_Play+0x4a>
 800cc66:	682a      	ldr	r2, [r5, #0]
 800cc68:	e7af      	b.n	800cbca <cs43l22_Play+0x2a>
 800cc6a:	6991      	ldr	r1, [r2, #24]
 800cc6c:	f011 0e02 	ands.w	lr, r1, #2
 800cc70:	d1c5      	bne.n	800cbfe <cs43l22_Play+0x5e>
 800cc72:	f897 1034 	ldrb.w	r1, [r7, #52]	; 0x34
 800cc76:	2901      	cmp	r1, #1
 800cc78:	d0c1      	beq.n	800cbfe <cs43l22_Play+0x5e>
 800cc7a:	4630      	mov	r0, r6
 800cc7c:	2102      	movs	r1, #2
 800cc7e:	2632      	movs	r6, #50	; 0x32
 800cc80:	f44f 5280 	mov.w	r2, #4096	; 0x1000
 800cc84:	f887 6035 	strb.w	r6, [r7, #53]	; 0x35
 800cc88:	f887 3034 	strb.w	r3, [r7, #52]	; 0x34
 800cc8c:	f887 e036 	strb.w	lr, [r7, #54]	; 0x36
 800cc90:	f000 fb3a 	bl	800d308 <I2C_RequestMemoryWrite.constprop.63>
 800cc94:	b968      	cbnz	r0, 800ccb2 <cs43l22_Play+0x112>
 800cc96:	f10d 0007 	add.w	r0, sp, #7
 800cc9a:	f44f 5180 	mov.w	r1, #4096	; 0x1000
 800cc9e:	f000 fba1 	bl	800d3e4 <HAL_I2C_Mem_Write.part.16.constprop.60>
 800cca2:	2800      	cmp	r0, #0
 800cca4:	d0bb      	beq.n	800cc1e <cs43l22_Play+0x7e>
 800cca6:	683a      	ldr	r2, [r7, #0]
 800cca8:	e7a9      	b.n	800cbfe <cs43l22_Play+0x5e>
 800ccaa:	f895 3036 	ldrb.w	r3, [r5, #54]	; 0x36
 800ccae:	682a      	ldr	r2, [r5, #0]
 800ccb0:	e78b      	b.n	800cbca <cs43l22_Play+0x2a>
 800ccb2:	f897 3036 	ldrb.w	r3, [r7, #54]	; 0x36
 800ccb6:	683a      	ldr	r2, [r7, #0]
 800ccb8:	e7a1      	b.n	800cbfe <cs43l22_Play+0x5e>
 800ccba:	bf00      	nop
 800ccbc:	2000005d 	.word	0x2000005d
 800ccc0:	2001f105 	.word	0x2001f105
 800ccc4:	2001f738 	.word	0x2001f738

0800ccc8 <USBH_MIDI_ClassRequest.lto_priv.166>:
USBH_MIDI_ClassRequest.lto_priv.166():
 800ccc8:	b508      	push	{r3, lr}
 800ccca:	2102      	movs	r1, #2
 800cccc:	f8d0 3614 	ldr.w	r3, [r0, #1556]	; 0x614
 800ccd0:	4798      	blx	r3
 800ccd2:	2000      	movs	r0, #0
 800ccd4:	bd08      	pop	{r3, pc}
 800ccd6:	bf00      	nop

0800ccd8 <USBH_MIDI_InterfaceInit.lto_priv.164>:
USBH_MIDI_InterfaceInit.lto_priv.164():
 800ccd8:	e92d 4ff0 	stmdb	sp!, {r4, r5, r6, r7, r8, r9, sl, fp, lr}
 800ccdc:	f890 3241 	ldrb.w	r3, [r0, #577]	; 0x241
 800cce0:	2b01      	cmp	r3, #1
 800cce2:	b083      	sub	sp, #12
 800cce4:	d030      	beq.n	800cd48 <USBH_MIDI_InterfaceInit.lto_priv.164+0x70>
 800cce6:	f890 329b 	ldrb.w	r3, [r0, #667]	; 0x29b
 800ccea:	2b01      	cmp	r3, #1
 800ccec:	f000 8104 	beq.w	800cef8 <USBH_MIDI_InterfaceInit.lto_priv.164+0x220>
 800ccf0:	f890 32f5 	ldrb.w	r3, [r0, #757]	; 0x2f5
 800ccf4:	2b01      	cmp	r3, #1
 800ccf6:	f000 8109 	beq.w	800cf0c <USBH_MIDI_InterfaceInit.lto_priv.164+0x234>
 800ccfa:	f890 334f 	ldrb.w	r3, [r0, #847]	; 0x34f
 800ccfe:	2b01      	cmp	r3, #1
 800cd00:	f000 810b 	beq.w	800cf1a <USBH_MIDI_InterfaceInit.lto_priv.164+0x242>
 800cd04:	f890 33a9 	ldrb.w	r3, [r0, #937]	; 0x3a9
 800cd08:	2b01      	cmp	r3, #1
 800cd0a:	f000 8110 	beq.w	800cf2e <USBH_MIDI_InterfaceInit.lto_priv.164+0x256>
 800cd0e:	f890 3403 	ldrb.w	r3, [r0, #1027]	; 0x403
 800cd12:	2b01      	cmp	r3, #1
 800cd14:	f000 8112 	beq.w	800cf3c <USBH_MIDI_InterfaceInit.lto_priv.164+0x264>
 800cd18:	f890 345d 	ldrb.w	r3, [r0, #1117]	; 0x45d
 800cd1c:	2b01      	cmp	r3, #1
 800cd1e:	f000 8114 	beq.w	800cf4a <USBH_MIDI_InterfaceInit.lto_priv.164+0x272>
 800cd22:	f890 34b7 	ldrb.w	r3, [r0, #1207]	; 0x4b7
 800cd26:	2b01      	cmp	r3, #1
 800cd28:	f000 8116 	beq.w	800cf58 <USBH_MIDI_InterfaceInit.lto_priv.164+0x280>
 800cd2c:	f890 3511 	ldrb.w	r3, [r0, #1297]	; 0x511
 800cd30:	2b01      	cmp	r3, #1
 800cd32:	f000 8118 	beq.w	800cf66 <USBH_MIDI_InterfaceInit.lto_priv.164+0x28e>
 800cd36:	f890 356b 	ldrb.w	r3, [r0, #1387]	; 0x56b
 800cd3a:	2b01      	cmp	r3, #1
 800cd3c:	f000 811a 	beq.w	800cf74 <USBH_MIDI_InterfaceInit.lto_priv.164+0x29c>
 800cd40:	2002      	movs	r0, #2
 800cd42:	b003      	add	sp, #12
 800cd44:	e8bd 8ff0 	ldmia.w	sp!, {r4, r5, r6, r7, r8, r9, sl, fp, pc}
 800cd48:	f890 3242 	ldrb.w	r3, [r0, #578]	; 0x242
 800cd4c:	2b03      	cmp	r3, #3
 800cd4e:	d1ca      	bne.n	800cce6 <USBH_MIDI_InterfaceInit.lto_priv.164+0xe>
 800cd50:	2300      	movs	r3, #0
 800cd52:	f890 2236 	ldrb.w	r2, [r0, #566]	; 0x236
 800cd56:	b2db      	uxtb	r3, r3
 800cd58:	429a      	cmp	r2, r3
 800cd5a:	4604      	mov	r4, r0
 800cd5c:	bf88      	it	hi
 800cd5e:	f880 321f 	strbhi.w	r3, [r0, #543]	; 0x21f
 800cd62:	201c      	movs	r0, #28
 800cd64:	f8d4 55c4 	ldr.w	r5, [r4, #1476]	; 0x5c4
 800cd68:	f002 feda 	bl	800fb20 <malloc>
 800cd6c:	61e8      	str	r0, [r5, #28]
 800cd6e:	f894 221f 	ldrb.w	r2, [r4, #543]	; 0x21f
 800cd72:	f8d4 35c4 	ldr.w	r3, [r4, #1476]	; 0x5c4
 800cd76:	215a      	movs	r1, #90	; 0x5a
 800cd78:	fb01 4202 	mla	r2, r1, r2, r4
 800cd7c:	69db      	ldr	r3, [r3, #28]
 800cd7e:	f892 2248 	ldrb.w	r2, [r2, #584]	; 0x248
 800cd82:	0610      	lsls	r0, r2, #24
 800cd84:	f100 81e4 	bmi.w	800d150 <USBH_MIDI_InterfaceInit.lto_priv.164+0x478>
 800cd88:	70da      	strb	r2, [r3, #3]
 800cd8a:	f894 221f 	ldrb.w	r2, [r4, #543]	; 0x21f
 800cd8e:	fb01 4102 	mla	r1, r1, r2, r4
 800cd92:	f8b1 224a 	ldrh.w	r2, [r1, #586]	; 0x24a
 800cd96:	80da      	strh	r2, [r3, #6]
 800cd98:	f894 221f 	ldrb.w	r2, [r4, #543]	; 0x21f
 800cd9c:	255a      	movs	r5, #90	; 0x5a
 800cd9e:	fb05 4202 	mla	r2, r5, r2, r4
 800cda2:	f892 0250 	ldrb.w	r0, [r2, #592]	; 0x250
 800cda6:	0607      	lsls	r7, r0, #24
 800cda8:	f100 81c7 	bmi.w	800d13a <USBH_MIDI_InterfaceInit.lto_priv.164+0x462>
 800cdac:	70d8      	strb	r0, [r3, #3]
 800cdae:	f894 221f 	ldrb.w	r2, [r4, #543]	; 0x21f
 800cdb2:	fb05 4502 	mla	r5, r5, r2, r4
 800cdb6:	f8b5 1252 	ldrh.w	r1, [r5, #594]	; 0x252
 800cdba:	80d9      	strh	r1, [r3, #6]
 800cdbc:	f8d4 25cc 	ldr.w	r2, [r4, #1484]	; 0x5cc
 800cdc0:	f412 4200 	ands.w	r2, r2, #32768	; 0x8000
 800cdc4:	f000 81dc 	beq.w	800d180 <USBH_MIDI_InterfaceInit.lto_priv.164+0x4a8>
 800cdc8:	f8d4 25d0 	ldr.w	r2, [r4, #1488]	; 0x5d0
 800cdcc:	0416      	lsls	r6, r2, #16
 800cdce:	f140 81e9 	bpl.w	800d1a4 <USBH_MIDI_InterfaceInit.lto_priv.164+0x4cc>
 800cdd2:	f8d4 25d4 	ldr.w	r2, [r4, #1492]	; 0x5d4
 800cdd6:	0415      	lsls	r5, r2, #16
 800cdd8:	f140 81ed 	bpl.w	800d1b6 <USBH_MIDI_InterfaceInit.lto_priv.164+0x4de>
 800cddc:	f8d4 25d8 	ldr.w	r2, [r4, #1496]	; 0x5d8
 800cde0:	0412      	lsls	r2, r2, #16
 800cde2:	f140 81eb 	bpl.w	800d1bc <USBH_MIDI_InterfaceInit.lto_priv.164+0x4e4>
 800cde6:	f8d4 25dc 	ldr.w	r2, [r4, #1500]	; 0x5dc
 800cdea:	0417      	lsls	r7, r2, #16
 800cdec:	f140 81ec 	bpl.w	800d1c8 <USBH_MIDI_InterfaceInit.lto_priv.164+0x4f0>
 800cdf0:	f8d4 25e0 	ldr.w	r2, [r4, #1504]	; 0x5e0
 800cdf4:	0416      	lsls	r6, r2, #16
 800cdf6:	f140 81ed 	bpl.w	800d1d4 <USBH_MIDI_InterfaceInit.lto_priv.164+0x4fc>
 800cdfa:	f8d4 25e4 	ldr.w	r2, [r4, #1508]	; 0x5e4
 800cdfe:	0415      	lsls	r5, r2, #16
 800ce00:	f140 81f1 	bpl.w	800d1e6 <USBH_MIDI_InterfaceInit.lto_priv.164+0x50e>
 800ce04:	f8d4 25e8 	ldr.w	r2, [r4, #1512]	; 0x5e8
 800ce08:	0412      	lsls	r2, r2, #16
 800ce0a:	f140 81ef 	bpl.w	800d1ec <USBH_MIDI_InterfaceInit.lto_priv.164+0x514>
 800ce0e:	f8d4 25ec 	ldr.w	r2, [r4, #1516]	; 0x5ec
 800ce12:	0417      	lsls	r7, r2, #16
 800ce14:	f140 81f0 	bpl.w	800d1f8 <USBH_MIDI_InterfaceInit.lto_priv.164+0x520>
 800ce18:	f8d4 25f0 	ldr.w	r2, [r4, #1520]	; 0x5f0
 800ce1c:	0416      	lsls	r6, r2, #16
 800ce1e:	f140 81ae 	bpl.w	800d17e <USBH_MIDI_InterfaceInit.lto_priv.164+0x4a6>
 800ce22:	f8d4 25f4 	ldr.w	r2, [r4, #1524]	; 0x5f4
 800ce26:	0415      	lsls	r5, r2, #16
 800ce28:	bf48      	it	mi
 800ce2a:	22ff      	movmi	r2, #255	; 0xff
 800ce2c:	f140 81f0 	bpl.w	800d210 <USBH_MIDI_InterfaceInit.lto_priv.164+0x538>
 800ce30:	709a      	strb	r2, [r3, #2]
 800ce32:	f8d4 05cc 	ldr.w	r0, [r4, #1484]	; 0x5cc
 800ce36:	791d      	ldrb	r5, [r3, #4]
 800ce38:	f410 4000 	ands.w	r0, r0, #32768	; 0x8000
 800ce3c:	f000 81a8 	beq.w	800d190 <USBH_MIDI_InterfaceInit.lto_priv.164+0x4b8>
 800ce40:	f8d4 05d0 	ldr.w	r0, [r4, #1488]	; 0x5d0
 800ce44:	0400      	lsls	r0, r0, #16
 800ce46:	f140 81b0 	bpl.w	800d1aa <USBH_MIDI_InterfaceInit.lto_priv.164+0x4d2>
 800ce4a:	f8d4 05d4 	ldr.w	r0, [r4, #1492]	; 0x5d4
 800ce4e:	0407      	lsls	r7, r0, #16
 800ce50:	f140 81ae 	bpl.w	800d1b0 <USBH_MIDI_InterfaceInit.lto_priv.164+0x4d8>
 800ce54:	f8d4 05d8 	ldr.w	r0, [r4, #1496]	; 0x5d8
 800ce58:	0406      	lsls	r6, r0, #16
 800ce5a:	f140 81b2 	bpl.w	800d1c2 <USBH_MIDI_InterfaceInit.lto_priv.164+0x4ea>
 800ce5e:	f8d4 05dc 	ldr.w	r0, [r4, #1500]	; 0x5dc
 800ce62:	0400      	lsls	r0, r0, #16
 800ce64:	f140 81b3 	bpl.w	800d1ce <USBH_MIDI_InterfaceInit.lto_priv.164+0x4f6>
 800ce68:	f8d4 05e0 	ldr.w	r0, [r4, #1504]	; 0x5e0
 800ce6c:	0407      	lsls	r7, r0, #16
 800ce6e:	f140 81b4 	bpl.w	800d1da <USBH_MIDI_InterfaceInit.lto_priv.164+0x502>
 800ce72:	f8d4 05e4 	ldr.w	r0, [r4, #1508]	; 0x5e4
 800ce76:	0406      	lsls	r6, r0, #16
 800ce78:	f140 81b2 	bpl.w	800d1e0 <USBH_MIDI_InterfaceInit.lto_priv.164+0x508>
 800ce7c:	f8d4 05e8 	ldr.w	r0, [r4, #1512]	; 0x5e8
 800ce80:	0400      	lsls	r0, r0, #16
 800ce82:	f140 81b6 	bpl.w	800d1f2 <USBH_MIDI_InterfaceInit.lto_priv.164+0x51a>
 800ce86:	f8d4 05ec 	ldr.w	r0, [r4, #1516]	; 0x5ec
 800ce8a:	0407      	lsls	r7, r0, #16
 800ce8c:	f140 81b7 	bpl.w	800d1fe <USBH_MIDI_InterfaceInit.lto_priv.164+0x526>
 800ce90:	f8d4 05f0 	ldr.w	r0, [r4, #1520]	; 0x5f0
 800ce94:	0406      	lsls	r6, r0, #16
 800ce96:	f140 81b5 	bpl.w	800d204 <USBH_MIDI_InterfaceInit.lto_priv.164+0x52c>
 800ce9a:	f8d4 05f4 	ldr.w	r0, [r4, #1524]	; 0x5f4
 800ce9e:	0400      	lsls	r0, r0, #16
 800cea0:	bf48      	it	mi
 800cea2:	27ff      	movmi	r7, #255	; 0xff
 800cea4:	f140 81b1 	bpl.w	800d20a <USBH_MIDI_InterfaceInit.lto_priv.164+0x532>
 800cea8:	705f      	strb	r7, [r3, #1]
 800ceaa:	f8d4 5610 	ldr.w	r5, [r4, #1552]	; 0x610
 800ceae:	f894 021c 	ldrb.w	r0, [r4, #540]	; 0x21c
 800ceb2:	f895 e288 	ldrb.w	lr, [r5, #648]	; 0x288
 800ceb6:	f894 921d 	ldrb.w	r9, [r4, #541]	; 0x21d
 800ceba:	78de      	ldrb	r6, [r3, #3]
 800cebc:	f1be 0f01 	cmp.w	lr, #1
 800cec0:	d168      	bne.n	800cf94 <USBH_MIDI_InterfaceInit.lto_priv.164+0x2bc>
 800cec2:	4ad5      	ldr	r2, [pc, #852]	; (800d218 <USBH_MIDI_InterfaceInit.lto_priv.164+0x540>)
 800cec4:	eb07 0787 	add.w	r7, r7, r7, lsl #2
 800cec8:	eb02 07c7 	add.w	r7, r2, r7, lsl #3
 800cecc:	2000      	movs	r0, #0
 800cece:	7018      	strb	r0, [r3, #0]
 800ced0:	f897 1033 	ldrb.w	r1, [r7, #51]	; 0x33
 800ced4:	2900      	cmp	r1, #0
 800ced6:	d15a      	bne.n	800cf8e <USBH_MIDI_InterfaceInit.lto_priv.164+0x2b6>
 800ced8:	f887 1049 	strb.w	r1, [r7, #73]	; 0x49
 800cedc:	789b      	ldrb	r3, [r3, #2]
 800cede:	eb03 0383 	add.w	r3, r3, r3, lsl #2
 800cee2:	eb02 02c3 	add.w	r2, r2, r3, lsl #3
 800cee6:	f892 0033 	ldrb.w	r0, [r2, #51]	; 0x33
 800ceea:	2800      	cmp	r0, #0
 800ceec:	d149      	bne.n	800cf82 <USBH_MIDI_InterfaceInit.lto_priv.164+0x2aa>
 800ceee:	f882 0049 	strb.w	r0, [r2, #73]	; 0x49
 800cef2:	b003      	add	sp, #12
 800cef4:	e8bd 8ff0 	ldmia.w	sp!, {r4, r5, r6, r7, r8, r9, sl, fp, pc}
 800cef8:	f890 229c 	ldrb.w	r2, [r0, #668]	; 0x29c
 800cefc:	2a03      	cmp	r2, #3
 800cefe:	f43f af28 	beq.w	800cd52 <USBH_MIDI_InterfaceInit.lto_priv.164+0x7a>
 800cf02:	f890 32f5 	ldrb.w	r3, [r0, #757]	; 0x2f5
 800cf06:	2b01      	cmp	r3, #1
 800cf08:	f47f aef7 	bne.w	800ccfa <USBH_MIDI_InterfaceInit.lto_priv.164+0x22>
 800cf0c:	f890 32f6 	ldrb.w	r3, [r0, #758]	; 0x2f6
 800cf10:	2b03      	cmp	r3, #3
 800cf12:	f47f aef2 	bne.w	800ccfa <USBH_MIDI_InterfaceInit.lto_priv.164+0x22>
 800cf16:	2302      	movs	r3, #2
 800cf18:	e71b      	b.n	800cd52 <USBH_MIDI_InterfaceInit.lto_priv.164+0x7a>
 800cf1a:	f890 3350 	ldrb.w	r3, [r0, #848]	; 0x350
 800cf1e:	2b03      	cmp	r3, #3
 800cf20:	f43f af17 	beq.w	800cd52 <USBH_MIDI_InterfaceInit.lto_priv.164+0x7a>
 800cf24:	f890 33a9 	ldrb.w	r3, [r0, #937]	; 0x3a9
 800cf28:	2b01      	cmp	r3, #1
 800cf2a:	f47f aef0 	bne.w	800cd0e <USBH_MIDI_InterfaceInit.lto_priv.164+0x36>
 800cf2e:	f890 33aa 	ldrb.w	r3, [r0, #938]	; 0x3aa
 800cf32:	2b03      	cmp	r3, #3
 800cf34:	f47f aeeb 	bne.w	800cd0e <USBH_MIDI_InterfaceInit.lto_priv.164+0x36>
 800cf38:	2304      	movs	r3, #4
 800cf3a:	e70a      	b.n	800cd52 <USBH_MIDI_InterfaceInit.lto_priv.164+0x7a>
 800cf3c:	f890 3404 	ldrb.w	r3, [r0, #1028]	; 0x404
 800cf40:	2b03      	cmp	r3, #3
 800cf42:	f47f aee9 	bne.w	800cd18 <USBH_MIDI_InterfaceInit.lto_priv.164+0x40>
 800cf46:	2305      	movs	r3, #5
 800cf48:	e703      	b.n	800cd52 <USBH_MIDI_InterfaceInit.lto_priv.164+0x7a>
 800cf4a:	f890 345e 	ldrb.w	r3, [r0, #1118]	; 0x45e
 800cf4e:	2b03      	cmp	r3, #3
 800cf50:	f47f aee7 	bne.w	800cd22 <USBH_MIDI_InterfaceInit.lto_priv.164+0x4a>
 800cf54:	2306      	movs	r3, #6
 800cf56:	e6fc      	b.n	800cd52 <USBH_MIDI_InterfaceInit.lto_priv.164+0x7a>
 800cf58:	f890 34b8 	ldrb.w	r3, [r0, #1208]	; 0x4b8
 800cf5c:	2b03      	cmp	r3, #3
 800cf5e:	f47f aee5 	bne.w	800cd2c <USBH_MIDI_InterfaceInit.lto_priv.164+0x54>
 800cf62:	2307      	movs	r3, #7
 800cf64:	e6f5      	b.n	800cd52 <USBH_MIDI_InterfaceInit.lto_priv.164+0x7a>
 800cf66:	f890 3512 	ldrb.w	r3, [r0, #1298]	; 0x512
 800cf6a:	2b03      	cmp	r3, #3
 800cf6c:	f47f aee3 	bne.w	800cd36 <USBH_MIDI_InterfaceInit.lto_priv.164+0x5e>
 800cf70:	2308      	movs	r3, #8
 800cf72:	e6ee      	b.n	800cd52 <USBH_MIDI_InterfaceInit.lto_priv.164+0x7a>
 800cf74:	f890 356c 	ldrb.w	r3, [r0, #1388]	; 0x56c
 800cf78:	2b03      	cmp	r3, #3
 800cf7a:	f47f aee1 	bne.w	800cd40 <USBH_MIDI_InterfaceInit.lto_priv.164+0x68>
 800cf7e:	2309      	movs	r3, #9
 800cf80:	e6e7      	b.n	800cd52 <USBH_MIDI_InterfaceInit.lto_priv.164+0x7a>
 800cf82:	2000      	movs	r0, #0
 800cf84:	f882 0048 	strb.w	r0, [r2, #72]	; 0x48
 800cf88:	b003      	add	sp, #12
 800cf8a:	e8bd 8ff0 	ldmia.w	sp!, {r4, r5, r6, r7, r8, r9, sl, fp, pc}
 800cf8e:	f887 0048 	strb.w	r0, [r7, #72]	; 0x48
 800cf92:	e7a3      	b.n	800cedc <USBH_MIDI_InterfaceInit.lto_priv.164+0x204>
 800cf94:	eb02 0c82 	add.w	ip, r2, r2, lsl #2
 800cf98:	eb05 0ccc 	add.w	ip, r5, ip, lsl #3
 800cf9c:	f04f 0a01 	mov.w	sl, #1
 800cfa0:	f04f 0802 	mov.w	r8, #2
 800cfa4:	f006 077f 	and.w	r7, r6, #127	; 0x7f
 800cfa8:	09f6      	lsrs	r6, r6, #7
 800cfaa:	f885 a288 	strb.w	sl, [r5, #648]	; 0x288
 800cfae:	f88c 6033 	strb.w	r6, [ip, #51]	; 0x33
 800cfb2:	f88c 0030 	strb.w	r0, [ip, #48]	; 0x30
 800cfb6:	f88c 2031 	strb.w	r2, [ip, #49]	; 0x31
 800cfba:	f88c 9034 	strb.w	r9, [ip, #52]	; 0x34
 800cfbe:	f88c 8037 	strb.w	r8, [ip, #55]	; 0x37
 800cfc2:	f88c 7032 	strb.w	r7, [ip, #50]	; 0x32
 800cfc6:	f8d5 8000 	ldr.w	r8, [r5]
 800cfca:	f8ac 1038 	strh.w	r1, [ip, #56]	; 0x38
 800cfce:	f508 6ea0 	add.w	lr, r8, #1280	; 0x500
 800cfd2:	f04f 0c20 	mov.w	ip, #32
 800cfd6:	fb1c ee02 	smlabb	lr, ip, r2, lr
 800cfda:	46b3      	mov	fp, r6
 800cfdc:	9601      	str	r6, [sp, #4]
 800cfde:	f04f 3aff 	mov.w	sl, #4294967295
 800cfe2:	f240 4c9d 	movw	ip, #1181	; 0x49d
 800cfe6:	465e      	mov	r6, fp
 800cfe8:	f8ce a008 	str.w	sl, [lr, #8]
 800cfec:	f8ce c00c 	str.w	ip, [lr, #12]
 800cff0:	2e00      	cmp	r6, #0
 800cff2:	f040 80b6 	bne.w	800d162 <USBH_MIDI_InterfaceInit.lto_priv.164+0x48a>
 800cff6:	f1b8 4fa0 	cmp.w	r8, #1342177280	; 0x50000000
 800cffa:	d005      	beq.n	800d008 <USBH_MIDI_InterfaceInit.lto_priv.164+0x330>
 800cffc:	f8de c00c 	ldr.w	ip, [lr, #12]
 800d000:	f04c 0c60 	orr.w	ip, ip, #96	; 0x60
 800d004:	f8ce c00c 	str.w	ip, [lr, #12]
 800d008:	f8d8 6418 	ldr.w	r6, [r8, #1048]	; 0x418
 800d00c:	f8d4 c610 	ldr.w	ip, [r4, #1552]	; 0x610
 800d010:	f04f 0a01 	mov.w	sl, #1
 800d014:	0580      	lsls	r0, r0, #22
 800d016:	f000 50fe 	and.w	r0, r0, #532676608	; 0x1fc00000
 800d01a:	02ff      	lsls	r7, r7, #11
 800d01c:	fa0a f202 	lsl.w	r2, sl, r2
 800d020:	4332      	orrs	r2, r6
 800d022:	f407 47f0 	and.w	r7, r7, #30720	; 0x7800
 800d026:	f440 2000 	orr.w	r0, r0, #524288	; 0x80000
 800d02a:	f8c8 2418 	str.w	r2, [r8, #1048]	; 0x418
 800d02e:	4338      	orrs	r0, r7
 800d030:	9a01      	ldr	r2, [sp, #4]
 800d032:	f3c1 010a 	ubfx	r1, r1, #0, #11
 800d036:	f1b9 0f02 	cmp.w	r9, #2
 800d03a:	ea40 0001 	orr.w	r0, r0, r1
 800d03e:	f8d8 1018 	ldr.w	r1, [r8, #24]
 800d042:	f8b3 9008 	ldrh.w	r9, [r3, #8]
 800d046:	ea40 36c2 	orr.w	r6, r0, r2, lsl #15
 800d04a:	bf0c      	ite	eq
 800d04c:	f44f 3200 	moveq.w	r2, #131072	; 0x20000
 800d050:	2200      	movne	r2, #0
 800d052:	4316      	orrs	r6, r2
 800d054:	f041 7200 	orr.w	r2, r1, #33554432	; 0x2000000
 800d058:	2100      	movs	r1, #0
 800d05a:	f8c8 2018 	str.w	r2, [r8, #24]
 800d05e:	f8ce 6000 	str.w	r6, [lr]
 800d062:	f885 1288 	strb.w	r1, [r5, #648]	; 0x288
 800d066:	f89c 2288 	ldrb.w	r2, [ip, #648]	; 0x288
 800d06a:	785f      	ldrb	r7, [r3, #1]
 800d06c:	f893 e004 	ldrb.w	lr, [r3, #4]
 800d070:	f894 121c 	ldrb.w	r1, [r4, #540]	; 0x21c
 800d074:	f894 521d 	ldrb.w	r5, [r4, #541]	; 0x21d
 800d078:	4552      	cmp	r2, sl
 800d07a:	f43f af22 	beq.w	800cec2 <USBH_MIDI_InterfaceInit.lto_priv.164+0x1ea>
 800d07e:	eb07 0687 	add.w	r6, r7, r7, lsl #2
 800d082:	eb0c 06c6 	add.w	r6, ip, r6, lsl #3
 800d086:	f04f 0802 	mov.w	r8, #2
 800d08a:	f00e 027f 	and.w	r2, lr, #127	; 0x7f
 800d08e:	ea4f 14de 	mov.w	r4, lr, lsr #7
 800d092:	f88c a288 	strb.w	sl, [ip, #648]	; 0x288
 800d096:	f886 8037 	strb.w	r8, [r6, #55]	; 0x37
 800d09a:	f886 1030 	strb.w	r1, [r6, #48]	; 0x30
 800d09e:	f886 7031 	strb.w	r7, [r6, #49]	; 0x31
 800d0a2:	f886 5034 	strb.w	r5, [r6, #52]	; 0x34
 800d0a6:	f886 2032 	strb.w	r2, [r6, #50]	; 0x32
 800d0aa:	f886 4033 	strb.w	r4, [r6, #51]	; 0x33
 800d0ae:	f8a6 9038 	strh.w	r9, [r6, #56]	; 0x38
 800d0b2:	f8dc 6000 	ldr.w	r6, [ip]
 800d0b6:	f506 60a0 	add.w	r0, r6, #1280	; 0x500
 800d0ba:	eb00 1047 	add.w	r0, r0, r7, lsl #5
 800d0be:	f04f 38ff 	mov.w	r8, #4294967295
 800d0c2:	f240 4e9d 	movw	lr, #1181	; 0x49d
 800d0c6:	f8c0 8008 	str.w	r8, [r0, #8]
 800d0ca:	f8c0 e00c 	str.w	lr, [r0, #12]
 800d0ce:	2c00      	cmp	r4, #0
 800d0d0:	d14e      	bne.n	800d170 <USBH_MIDI_InterfaceInit.lto_priv.164+0x498>
 800d0d2:	f1b6 4fa0 	cmp.w	r6, #1342177280	; 0x50000000
 800d0d6:	d005      	beq.n	800d0e4 <USBH_MIDI_InterfaceInit.lto_priv.164+0x40c>
 800d0d8:	f8d0 e00c 	ldr.w	lr, [r0, #12]
 800d0dc:	f04e 0e60 	orr.w	lr, lr, #96	; 0x60
 800d0e0:	f8c0 e00c 	str.w	lr, [r0, #12]
 800d0e4:	f8d6 8418 	ldr.w	r8, [r6, #1048]	; 0x418
 800d0e8:	f04f 0a01 	mov.w	sl, #1
 800d0ec:	0589      	lsls	r1, r1, #22
 800d0ee:	fa0a fa07 	lsl.w	sl, sl, r7
 800d0f2:	f3c9 090a 	ubfx	r9, r9, #0, #11
 800d0f6:	f001 57fe 	and.w	r7, r1, #532676608	; 0x1fc00000
 800d0fa:	f449 2900 	orr.w	r9, r9, #524288	; 0x80000
 800d0fe:	02d1      	lsls	r1, r2, #11
 800d100:	ea4a 0808 	orr.w	r8, sl, r8
 800d104:	f401 41f0 	and.w	r1, r1, #30720	; 0x7800
 800d108:	f8c6 8418 	str.w	r8, [r6, #1048]	; 0x418
 800d10c:	ea49 0207 	orr.w	r2, r9, r7
 800d110:	430a      	orrs	r2, r1
 800d112:	2d02      	cmp	r5, #2
 800d114:	69b5      	ldr	r5, [r6, #24]
 800d116:	ea42 32c4 	orr.w	r2, r2, r4, lsl #15
 800d11a:	bf0c      	ite	eq
 800d11c:	f44f 3100 	moveq.w	r1, #131072	; 0x20000
 800d120:	2100      	movne	r1, #0
 800d122:	430a      	orrs	r2, r1
 800d124:	2400      	movs	r4, #0
 800d126:	f045 7100 	orr.w	r1, r5, #33554432	; 0x2000000
 800d12a:	61b1      	str	r1, [r6, #24]
 800d12c:	6002      	str	r2, [r0, #0]
 800d12e:	f88c 4288 	strb.w	r4, [ip, #648]	; 0x288
 800d132:	f506 6e80 	add.w	lr, r6, #1024	; 0x400
 800d136:	785f      	ldrb	r7, [r3, #1]
 800d138:	e6c3      	b.n	800cec2 <USBH_MIDI_InterfaceInit.lto_priv.164+0x1ea>
 800d13a:	7118      	strb	r0, [r3, #4]
 800d13c:	f894 221f 	ldrb.w	r2, [r4, #543]	; 0x21f
 800d140:	78d8      	ldrb	r0, [r3, #3]
 800d142:	88d9      	ldrh	r1, [r3, #6]
 800d144:	fb05 4502 	mla	r5, r5, r2, r4
 800d148:	f8b5 2252 	ldrh.w	r2, [r5, #594]	; 0x252
 800d14c:	811a      	strh	r2, [r3, #8]
 800d14e:	e635      	b.n	800cdbc <USBH_MIDI_InterfaceInit.lto_priv.164+0xe4>
 800d150:	711a      	strb	r2, [r3, #4]
 800d152:	f894 221f 	ldrb.w	r2, [r4, #543]	; 0x21f
 800d156:	fb01 4102 	mla	r1, r1, r2, r4
 800d15a:	f8b1 224a 	ldrh.w	r2, [r1, #586]	; 0x24a
 800d15e:	811a      	strh	r2, [r3, #8]
 800d160:	e61a      	b.n	800cd98 <USBH_MIDI_InterfaceInit.lto_priv.164+0xc0>
 800d162:	f8de c00c 	ldr.w	ip, [lr, #12]
 800d166:	f44c 7c80 	orr.w	ip, ip, #256	; 0x100
 800d16a:	f8ce c00c 	str.w	ip, [lr, #12]
 800d16e:	e74b      	b.n	800d008 <USBH_MIDI_InterfaceInit.lto_priv.164+0x330>
 800d170:	f8d0 e00c 	ldr.w	lr, [r0, #12]
 800d174:	f44e 7e80 	orr.w	lr, lr, #256	; 0x100
 800d178:	f8c0 e00c 	str.w	lr, [r0, #12]
 800d17c:	e7b2      	b.n	800d0e4 <USBH_MIDI_InterfaceInit.lto_priv.164+0x40c>
 800d17e:	2209      	movs	r2, #9
 800d180:	4615      	mov	r5, r2
 800d182:	eb04 0585 	add.w	r5, r4, r5, lsl #2
 800d186:	f440 4000 	orr.w	r0, r0, #32768	; 0x8000
 800d18a:	f8c5 05cc 	str.w	r0, [r5, #1484]	; 0x5cc
 800d18e:	e64f      	b.n	800ce30 <USBH_MIDI_InterfaceInit.lto_priv.164+0x158>
 800d190:	4607      	mov	r7, r0
 800d192:	4602      	mov	r2, r0
 800d194:	eb04 0282 	add.w	r2, r4, r2, lsl #2
 800d198:	f445 4500 	orr.w	r5, r5, #32768	; 0x8000
 800d19c:	f8c2 55cc 	str.w	r5, [r2, #1484]	; 0x5cc
 800d1a0:	789a      	ldrb	r2, [r3, #2]
 800d1a2:	e681      	b.n	800cea8 <USBH_MIDI_InterfaceInit.lto_priv.164+0x1d0>
 800d1a4:	2201      	movs	r2, #1
 800d1a6:	4615      	mov	r5, r2
 800d1a8:	e7eb      	b.n	800d182 <USBH_MIDI_InterfaceInit.lto_priv.164+0x4aa>
 800d1aa:	2701      	movs	r7, #1
 800d1ac:	463a      	mov	r2, r7
 800d1ae:	e7f1      	b.n	800d194 <USBH_MIDI_InterfaceInit.lto_priv.164+0x4bc>
 800d1b0:	2702      	movs	r7, #2
 800d1b2:	463a      	mov	r2, r7
 800d1b4:	e7ee      	b.n	800d194 <USBH_MIDI_InterfaceInit.lto_priv.164+0x4bc>
 800d1b6:	2202      	movs	r2, #2
 800d1b8:	4615      	mov	r5, r2
 800d1ba:	e7e2      	b.n	800d182 <USBH_MIDI_InterfaceInit.lto_priv.164+0x4aa>
 800d1bc:	2203      	movs	r2, #3
 800d1be:	4615      	mov	r5, r2
 800d1c0:	e7df      	b.n	800d182 <USBH_MIDI_InterfaceInit.lto_priv.164+0x4aa>
 800d1c2:	2703      	movs	r7, #3
 800d1c4:	463a      	mov	r2, r7
 800d1c6:	e7e5      	b.n	800d194 <USBH_MIDI_InterfaceInit.lto_priv.164+0x4bc>
 800d1c8:	2204      	movs	r2, #4
 800d1ca:	4615      	mov	r5, r2
 800d1cc:	e7d9      	b.n	800d182 <USBH_MIDI_InterfaceInit.lto_priv.164+0x4aa>
 800d1ce:	2704      	movs	r7, #4
 800d1d0:	463a      	mov	r2, r7
 800d1d2:	e7df      	b.n	800d194 <USBH_MIDI_InterfaceInit.lto_priv.164+0x4bc>
 800d1d4:	2205      	movs	r2, #5
 800d1d6:	4615      	mov	r5, r2
 800d1d8:	e7d3      	b.n	800d182 <USBH_MIDI_InterfaceInit.lto_priv.164+0x4aa>
 800d1da:	2705      	movs	r7, #5
 800d1dc:	463a      	mov	r2, r7
 800d1de:	e7d9      	b.n	800d194 <USBH_MIDI_InterfaceInit.lto_priv.164+0x4bc>
 800d1e0:	2706      	movs	r7, #6
 800d1e2:	463a      	mov	r2, r7
 800d1e4:	e7d6      	b.n	800d194 <USBH_MIDI_InterfaceInit.lto_priv.164+0x4bc>
 800d1e6:	2206      	movs	r2, #6
 800d1e8:	4615      	mov	r5, r2
 800d1ea:	e7ca      	b.n	800d182 <USBH_MIDI_InterfaceInit.lto_priv.164+0x4aa>
 800d1ec:	2207      	movs	r2, #7
 800d1ee:	4615      	mov	r5, r2
 800d1f0:	e7c7      	b.n	800d182 <USBH_MIDI_InterfaceInit.lto_priv.164+0x4aa>
 800d1f2:	2707      	movs	r7, #7
 800d1f4:	463a      	mov	r2, r7
 800d1f6:	e7cd      	b.n	800d194 <USBH_MIDI_InterfaceInit.lto_priv.164+0x4bc>
 800d1f8:	2208      	movs	r2, #8
 800d1fa:	4615      	mov	r5, r2
 800d1fc:	e7c1      	b.n	800d182 <USBH_MIDI_InterfaceInit.lto_priv.164+0x4aa>
 800d1fe:	2708      	movs	r7, #8
 800d200:	463a      	mov	r2, r7
 800d202:	e7c7      	b.n	800d194 <USBH_MIDI_InterfaceInit.lto_priv.164+0x4bc>
 800d204:	2709      	movs	r7, #9
 800d206:	463a      	mov	r2, r7
 800d208:	e7c4      	b.n	800d194 <USBH_MIDI_InterfaceInit.lto_priv.164+0x4bc>
 800d20a:	270a      	movs	r7, #10
 800d20c:	463a      	mov	r2, r7
 800d20e:	e7c1      	b.n	800d194 <USBH_MIDI_InterfaceInit.lto_priv.164+0x4bc>
 800d210:	220a      	movs	r2, #10
 800d212:	4615      	mov	r5, r2
 800d214:	e7b5      	b.n	800d182 <USBH_MIDI_InterfaceInit.lto_priv.164+0x4aa>
 800d216:	bf00      	nop
 800d218:	20001950 	.word	0x20001950

0800d21c <USBH_MIDI_InterfaceDeInit.lto_priv.165>:
USBH_MIDI_InterfaceDeInit.lto_priv.165():
 800d21c:	b570      	push	{r4, r5, r6, lr}
 800d21e:	f8d0 35c4 	ldr.w	r3, [r0, #1476]	; 0x5c4
 800d222:	69dd      	ldr	r5, [r3, #28]
 800d224:	78a9      	ldrb	r1, [r5, #2]
 800d226:	4604      	mov	r4, r0
 800d228:	b969      	cbnz	r1, 800d246 <USBH_MIDI_InterfaceDeInit.lto_priv.165+0x2a>
 800d22a:	7869      	ldrb	r1, [r5, #1]
 800d22c:	bb01      	cbnz	r1, 800d270 <USBH_MIDI_InterfaceDeInit.lto_priv.165+0x54>
 800d22e:	f8d4 35c4 	ldr.w	r3, [r4, #1476]	; 0x5c4
 800d232:	69d8      	ldr	r0, [r3, #28]
 800d234:	b128      	cbz	r0, 800d242 <USBH_MIDI_InterfaceDeInit.lto_priv.165+0x26>
 800d236:	f002 fc7b 	bl	800fb30 <free>
 800d23a:	f8d4 35c4 	ldr.w	r3, [r4, #1476]	; 0x5c4
 800d23e:	2200      	movs	r2, #0
 800d240:	61da      	str	r2, [r3, #28]
 800d242:	2000      	movs	r0, #0
 800d244:	bd70      	pop	{r4, r5, r6, pc}
 800d246:	f8d0 6610 	ldr.w	r6, [r0, #1552]	; 0x610
 800d24a:	f896 3288 	ldrb.w	r3, [r6, #648]	; 0x288
 800d24e:	2b01      	cmp	r3, #1
 800d250:	d12c      	bne.n	800d2ac <USBH_MIDI_InterfaceDeInit.lto_priv.165+0x90>
 800d252:	290a      	cmp	r1, #10
 800d254:	d807      	bhi.n	800d266 <USBH_MIDI_InterfaceDeInit.lto_priv.165+0x4a>
 800d256:	eb04 0181 	add.w	r1, r4, r1, lsl #2
 800d25a:	f8d1 35cc 	ldr.w	r3, [r1, #1484]	; 0x5cc
 800d25e:	f3c3 030e 	ubfx	r3, r3, #0, #15
 800d262:	f8c1 35cc 	str.w	r3, [r1, #1484]	; 0x5cc
 800d266:	7869      	ldrb	r1, [r5, #1]
 800d268:	2300      	movs	r3, #0
 800d26a:	70ab      	strb	r3, [r5, #2]
 800d26c:	2900      	cmp	r1, #0
 800d26e:	d0de      	beq.n	800d22e <USBH_MIDI_InterfaceDeInit.lto_priv.165+0x12>
 800d270:	f8d4 6610 	ldr.w	r6, [r4, #1552]	; 0x610
 800d274:	f896 3288 	ldrb.w	r3, [r6, #648]	; 0x288
 800d278:	2b01      	cmp	r3, #1
 800d27a:	d10c      	bne.n	800d296 <USBH_MIDI_InterfaceDeInit.lto_priv.165+0x7a>
 800d27c:	290a      	cmp	r1, #10
 800d27e:	d807      	bhi.n	800d290 <USBH_MIDI_InterfaceDeInit.lto_priv.165+0x74>
 800d280:	eb04 0181 	add.w	r1, r4, r1, lsl #2
 800d284:	f8d1 35cc 	ldr.w	r3, [r1, #1484]	; 0x5cc
 800d288:	f3c3 030e 	ubfx	r3, r3, #0, #15
 800d28c:	f8c1 35cc 	str.w	r3, [r1, #1484]	; 0x5cc
 800d290:	2300      	movs	r3, #0
 800d292:	706b      	strb	r3, [r5, #1]
 800d294:	e7cb      	b.n	800d22e <USBH_MIDI_InterfaceDeInit.lto_priv.165+0x12>
 800d296:	2301      	movs	r3, #1
 800d298:	f886 3288 	strb.w	r3, [r6, #648]	; 0x288
 800d29c:	6830      	ldr	r0, [r6, #0]
 800d29e:	f7fe ff47 	bl	800c130 <USB_HC_Halt>
 800d2a2:	2300      	movs	r3, #0
 800d2a4:	f886 3288 	strb.w	r3, [r6, #648]	; 0x288
 800d2a8:	7869      	ldrb	r1, [r5, #1]
 800d2aa:	e7e7      	b.n	800d27c <USBH_MIDI_InterfaceDeInit.lto_priv.165+0x60>
 800d2ac:	2301      	movs	r3, #1
 800d2ae:	f886 3288 	strb.w	r3, [r6, #648]	; 0x288
 800d2b2:	6830      	ldr	r0, [r6, #0]
 800d2b4:	f7fe ff3c 	bl	800c130 <USB_HC_Halt>
 800d2b8:	2300      	movs	r3, #0
 800d2ba:	f886 3288 	strb.w	r3, [r6, #648]	; 0x288
 800d2be:	78a9      	ldrb	r1, [r5, #2]
 800d2c0:	e7c7      	b.n	800d252 <USBH_MIDI_InterfaceDeInit.lto_priv.165+0x36>
 800d2c2:	bf00      	nop

0800d2c4 <HAL_InitTick.constprop.87>:
HAL_InitTick.constprop.87():
 800d2c4:	b510      	push	{r4, lr}
 800d2c6:	f7ff f999 	bl	800c5fc <HAL_RCC_GetHCLKFreq>
 800d2ca:	4b0c      	ldr	r3, [pc, #48]	; (800d2fc <HAL_InitTick.constprop.87+0x38>)
 800d2cc:	fba3 3000 	umull	r3, r0, r3, r0
 800d2d0:	0980      	lsrs	r0, r0, #6
 800d2d2:	3801      	subs	r0, #1
 800d2d4:	f1b0 7f80 	cmp.w	r0, #16777216	; 0x1000000
 800d2d8:	d209      	bcs.n	800d2ee <HAL_InitTick.constprop.87+0x2a>
 800d2da:	4b09      	ldr	r3, [pc, #36]	; (800d300 <HAL_InitTick.constprop.87+0x3c>)
 800d2dc:	4c09      	ldr	r4, [pc, #36]	; (800d304 <HAL_InitTick.constprop.87+0x40>)
 800d2de:	6058      	str	r0, [r3, #4]
 800d2e0:	2100      	movs	r1, #0
 800d2e2:	20f0      	movs	r0, #240	; 0xf0
 800d2e4:	2207      	movs	r2, #7
 800d2e6:	f884 0023 	strb.w	r0, [r4, #35]	; 0x23
 800d2ea:	6099      	str	r1, [r3, #8]
 800d2ec:	601a      	str	r2, [r3, #0]
 800d2ee:	f04f 30ff 	mov.w	r0, #4294967295
 800d2f2:	210f      	movs	r1, #15
 800d2f4:	f7fd ff26 	bl	800b144 <HAL_NVIC_SetPriority.constprop.106>
 800d2f8:	2000      	movs	r0, #0
 800d2fa:	bd10      	pop	{r4, pc}
 800d2fc:	10624dd3 	.word	0x10624dd3
 800d300:	e000e010 	.word	0xe000e010
 800d304:	e000ed00 	.word	0xe000ed00

0800d308 <I2C_RequestMemoryWrite.constprop.63>:
I2C_RequestMemoryWrite.constprop.63():
 800d308:	b4f0      	push	{r4, r5, r6, r7}
 800d30a:	4e34      	ldr	r6, [pc, #208]	; (800d3dc <I2C_RequestMemoryWrite.constprop.63+0xd4>)
 800d30c:	4d34      	ldr	r5, [pc, #208]	; (800d3e0 <I2C_RequestMemoryWrite.constprop.63+0xd8>)
 800d30e:	6834      	ldr	r4, [r6, #0]
 800d310:	6823      	ldr	r3, [r4, #0]
 800d312:	f443 7380 	orr.w	r3, r3, #256	; 0x100
 800d316:	6023      	str	r3, [r4, #0]
 800d318:	682f      	ldr	r7, [r5, #0]
 800d31a:	1c53      	adds	r3, r2, #1
 800d31c:	d12c      	bne.n	800d378 <I2C_RequestMemoryWrite.constprop.63+0x70>
 800d31e:	6963      	ldr	r3, [r4, #20]
 800d320:	07df      	lsls	r7, r3, #31
 800d322:	d5fc      	bpl.n	800d31e <I2C_RequestMemoryWrite.constprop.63+0x16>
 800d324:	f000 00fe 	and.w	r0, r0, #254	; 0xfe
 800d328:	6120      	str	r0, [r4, #16]
 800d32a:	682b      	ldr	r3, [r5, #0]
 800d32c:	1c50      	adds	r0, r2, #1
 800d32e:	d014      	beq.n	800d35a <I2C_RequestMemoryWrite.constprop.63+0x52>
 800d330:	6960      	ldr	r0, [r4, #20]
 800d332:	0780      	lsls	r0, r0, #30
 800d334:	d414      	bmi.n	800d360 <I2C_RequestMemoryWrite.constprop.63+0x58>
 800d336:	6960      	ldr	r0, [r4, #20]
 800d338:	0547      	lsls	r7, r0, #21
 800d33a:	d42e      	bmi.n	800d39a <I2C_RequestMemoryWrite.constprop.63+0x92>
 800d33c:	b11a      	cbz	r2, 800d346 <I2C_RequestMemoryWrite.constprop.63+0x3e>
 800d33e:	6828      	ldr	r0, [r5, #0]
 800d340:	1ac0      	subs	r0, r0, r3
 800d342:	4282      	cmp	r2, r0
 800d344:	d2f2      	bcs.n	800d32c <I2C_RequestMemoryWrite.constprop.63+0x24>
 800d346:	2201      	movs	r2, #1
 800d348:	2300      	movs	r3, #0
 800d34a:	f886 2035 	strb.w	r2, [r6, #53]	; 0x35
 800d34e:	f886 3034 	strb.w	r3, [r6, #52]	; 0x34
 800d352:	e032      	b.n	800d3ba <I2C_RequestMemoryWrite.constprop.63+0xb2>
 800d354:	6963      	ldr	r3, [r4, #20]
 800d356:	055f      	lsls	r7, r3, #21
 800d358:	d41f      	bmi.n	800d39a <I2C_RequestMemoryWrite.constprop.63+0x92>
 800d35a:	6963      	ldr	r3, [r4, #20]
 800d35c:	079b      	lsls	r3, r3, #30
 800d35e:	d5f9      	bpl.n	800d354 <I2C_RequestMemoryWrite.constprop.63+0x4c>
 800d360:	6963      	ldr	r3, [r4, #20]
 800d362:	69a3      	ldr	r3, [r4, #24]
 800d364:	6828      	ldr	r0, [r5, #0]
 800d366:	1c57      	adds	r7, r2, #1
 800d368:	d12e      	bne.n	800d3c8 <I2C_RequestMemoryWrite.constprop.63+0xc0>
 800d36a:	6963      	ldr	r3, [r4, #20]
 800d36c:	061a      	lsls	r2, r3, #24
 800d36e:	d5fc      	bpl.n	800d36a <I2C_RequestMemoryWrite.constprop.63+0x62>
 800d370:	b2c9      	uxtb	r1, r1
 800d372:	6121      	str	r1, [r4, #16]
 800d374:	2000      	movs	r0, #0
 800d376:	e00e      	b.n	800d396 <I2C_RequestMemoryWrite.constprop.63+0x8e>
 800d378:	6963      	ldr	r3, [r4, #20]
 800d37a:	07db      	lsls	r3, r3, #31
 800d37c:	d4d2      	bmi.n	800d324 <I2C_RequestMemoryWrite.constprop.63+0x1c>
 800d37e:	b11a      	cbz	r2, 800d388 <I2C_RequestMemoryWrite.constprop.63+0x80>
 800d380:	682b      	ldr	r3, [r5, #0]
 800d382:	1bdb      	subs	r3, r3, r7
 800d384:	429a      	cmp	r2, r3
 800d386:	d2c8      	bcs.n	800d31a <I2C_RequestMemoryWrite.constprop.63+0x12>
 800d388:	2201      	movs	r2, #1
 800d38a:	2300      	movs	r3, #0
 800d38c:	f886 2035 	strb.w	r2, [r6, #53]	; 0x35
 800d390:	f886 3034 	strb.w	r3, [r6, #52]	; 0x34
 800d394:	2003      	movs	r0, #3
 800d396:	bcf0      	pop	{r4, r5, r6, r7}
 800d398:	4770      	bx	lr
 800d39a:	6823      	ldr	r3, [r4, #0]
 800d39c:	f46f 6580 	mvn.w	r5, #1024	; 0x400
 800d3a0:	f443 7300 	orr.w	r3, r3, #512	; 0x200
 800d3a4:	2004      	movs	r0, #4
 800d3a6:	2201      	movs	r2, #1
 800d3a8:	2100      	movs	r1, #0
 800d3aa:	6023      	str	r3, [r4, #0]
 800d3ac:	6165      	str	r5, [r4, #20]
 800d3ae:	f886 0036 	strb.w	r0, [r6, #54]	; 0x36
 800d3b2:	f886 1034 	strb.w	r1, [r6, #52]	; 0x34
 800d3b6:	f886 2035 	strb.w	r2, [r6, #53]	; 0x35
 800d3ba:	f896 3036 	ldrb.w	r3, [r6, #54]	; 0x36
 800d3be:	2b04      	cmp	r3, #4
 800d3c0:	bf0c      	ite	eq
 800d3c2:	2001      	moveq	r0, #1
 800d3c4:	2003      	movne	r0, #3
 800d3c6:	e7e6      	b.n	800d396 <I2C_RequestMemoryWrite.constprop.63+0x8e>
 800d3c8:	6963      	ldr	r3, [r4, #20]
 800d3ca:	061b      	lsls	r3, r3, #24
 800d3cc:	d4d0      	bmi.n	800d370 <I2C_RequestMemoryWrite.constprop.63+0x68>
 800d3ce:	2a00      	cmp	r2, #0
 800d3d0:	d0da      	beq.n	800d388 <I2C_RequestMemoryWrite.constprop.63+0x80>
 800d3d2:	682b      	ldr	r3, [r5, #0]
 800d3d4:	1a1b      	subs	r3, r3, r0
 800d3d6:	429a      	cmp	r2, r3
 800d3d8:	d2c5      	bcs.n	800d366 <I2C_RequestMemoryWrite.constprop.63+0x5e>
 800d3da:	e7d5      	b.n	800d388 <I2C_RequestMemoryWrite.constprop.63+0x80>
 800d3dc:	2001f738 	.word	0x2001f738
 800d3e0:	2001f734 	.word	0x2001f734

0800d3e4 <HAL_I2C_Mem_Write.part.16.constprop.60>:
HAL_I2C_Mem_Write.part.16.constprop.60():
 800d3e4:	b470      	push	{r4, r5, r6}
 800d3e6:	4c24      	ldr	r4, [pc, #144]	; (800d478 <HAL_I2C_Mem_Write.part.16.constprop.60+0x94>)
 800d3e8:	4d24      	ldr	r5, [pc, #144]	; (800d47c <HAL_I2C_Mem_Write.part.16.constprop.60+0x98>)
 800d3ea:	6826      	ldr	r6, [r4, #0]
 800d3ec:	682a      	ldr	r2, [r5, #0]
 800d3ee:	1c4b      	adds	r3, r1, #1
 800d3f0:	d11d      	bne.n	800d42e <HAL_I2C_Mem_Write.part.16.constprop.60+0x4a>
 800d3f2:	6953      	ldr	r3, [r2, #20]
 800d3f4:	061e      	lsls	r6, r3, #24
 800d3f6:	d5fc      	bpl.n	800d3f2 <HAL_I2C_Mem_Write.part.16.constprop.60+0xe>
 800d3f8:	7803      	ldrb	r3, [r0, #0]
 800d3fa:	6113      	str	r3, [r2, #16]
 800d3fc:	6953      	ldr	r3, [r2, #20]
 800d3fe:	6823      	ldr	r3, [r4, #0]
 800d400:	1c48      	adds	r0, r1, #1
 800d402:	d125      	bne.n	800d450 <HAL_I2C_Mem_Write.part.16.constprop.60+0x6c>
 800d404:	6953      	ldr	r3, [r2, #20]
 800d406:	061e      	lsls	r6, r3, #24
 800d408:	d5fc      	bpl.n	800d404 <HAL_I2C_Mem_Write.part.16.constprop.60+0x20>
 800d40a:	6813      	ldr	r3, [r2, #0]
 800d40c:	f443 7300 	orr.w	r3, r3, #512	; 0x200
 800d410:	6013      	str	r3, [r2, #0]
 800d412:	6820      	ldr	r0, [r4, #0]
 800d414:	1c4e      	adds	r6, r1, #1
 800d416:	d125      	bne.n	800d464 <HAL_I2C_Mem_Write.part.16.constprop.60+0x80>
 800d418:	6993      	ldr	r3, [r2, #24]
 800d41a:	0799      	lsls	r1, r3, #30
 800d41c:	d4fc      	bmi.n	800d418 <HAL_I2C_Mem_Write.part.16.constprop.60+0x34>
 800d41e:	2000      	movs	r0, #0
 800d420:	2301      	movs	r3, #1
 800d422:	f885 3035 	strb.w	r3, [r5, #53]	; 0x35
 800d426:	f885 0034 	strb.w	r0, [r5, #52]	; 0x34
 800d42a:	bc70      	pop	{r4, r5, r6}
 800d42c:	4770      	bx	lr
 800d42e:	6953      	ldr	r3, [r2, #20]
 800d430:	061b      	lsls	r3, r3, #24
 800d432:	d4e1      	bmi.n	800d3f8 <HAL_I2C_Mem_Write.part.16.constprop.60+0x14>
 800d434:	b119      	cbz	r1, 800d43e <HAL_I2C_Mem_Write.part.16.constprop.60+0x5a>
 800d436:	6823      	ldr	r3, [r4, #0]
 800d438:	1b9b      	subs	r3, r3, r6
 800d43a:	4299      	cmp	r1, r3
 800d43c:	d2d7      	bcs.n	800d3ee <HAL_I2C_Mem_Write.part.16.constprop.60+0xa>
 800d43e:	2201      	movs	r2, #1
 800d440:	2300      	movs	r3, #0
 800d442:	f885 2035 	strb.w	r2, [r5, #53]	; 0x35
 800d446:	f885 3034 	strb.w	r3, [r5, #52]	; 0x34
 800d44a:	2003      	movs	r0, #3
 800d44c:	bc70      	pop	{r4, r5, r6}
 800d44e:	4770      	bx	lr
 800d450:	6950      	ldr	r0, [r2, #20]
 800d452:	0600      	lsls	r0, r0, #24
 800d454:	d4d9      	bmi.n	800d40a <HAL_I2C_Mem_Write.part.16.constprop.60+0x26>
 800d456:	2900      	cmp	r1, #0
 800d458:	d0f1      	beq.n	800d43e <HAL_I2C_Mem_Write.part.16.constprop.60+0x5a>
 800d45a:	6820      	ldr	r0, [r4, #0]
 800d45c:	1ac0      	subs	r0, r0, r3
 800d45e:	4281      	cmp	r1, r0
 800d460:	d2ce      	bcs.n	800d400 <HAL_I2C_Mem_Write.part.16.constprop.60+0x1c>
 800d462:	e7ec      	b.n	800d43e <HAL_I2C_Mem_Write.part.16.constprop.60+0x5a>
 800d464:	6993      	ldr	r3, [r2, #24]
 800d466:	079b      	lsls	r3, r3, #30
 800d468:	d5d9      	bpl.n	800d41e <HAL_I2C_Mem_Write.part.16.constprop.60+0x3a>
 800d46a:	2900      	cmp	r1, #0
 800d46c:	d0e7      	beq.n	800d43e <HAL_I2C_Mem_Write.part.16.constprop.60+0x5a>
 800d46e:	6823      	ldr	r3, [r4, #0]
 800d470:	1a1b      	subs	r3, r3, r0
 800d472:	4299      	cmp	r1, r3
 800d474:	d2ce      	bcs.n	800d414 <HAL_I2C_Mem_Write.part.16.constprop.60+0x30>
 800d476:	e7e2      	b.n	800d43e <HAL_I2C_Mem_Write.part.16.constprop.60+0x5a>
 800d478:	2001f734 	.word	0x2001f734
 800d47c:	2001f738 	.word	0x2001f738

0800d480 <PendSV_Handler>:
PendSV_Handler():
 800d480:	4770      	bx	lr
 800d482:	bf00      	nop

0800d484 <DebugMon_Handler>:
DebugMon_Handler():
 800d484:	4770      	bx	lr
 800d486:	bf00      	nop

0800d488 <SVC_Handler>:
SVC_Handler():
 800d488:	4770      	bx	lr
 800d48a:	bf00      	nop

0800d48c <UsageFault_Handler>:
UsageFault_Handler():
 800d48c:	e7fe      	b.n	800d48c <UsageFault_Handler>
 800d48e:	bf00      	nop

0800d490 <BusFault_Handler>:
BusFault_Handler():
 800d490:	e7fe      	b.n	800d490 <BusFault_Handler>
 800d492:	bf00      	nop

0800d494 <MemManage_Handler>:
MemManage_Handler():
 800d494:	e7fe      	b.n	800d494 <MemManage_Handler>
 800d496:	bf00      	nop

0800d498 <HardFault_Handler>:
HardFault_Handler():
 800d498:	e7fe      	b.n	800d498 <HardFault_Handler>
 800d49a:	bf00      	nop

0800d49c <NMI_Handler>:
NMI_Handler():
 800d49c:	4770      	bx	lr
 800d49e:	bf00      	nop

0800d4a0 <I2Cx_Init.lto_priv.174>:
I2Cx_Init.lto_priv.174():
 800d4a0:	e92d 47f0 	stmdb	sp!, {r4, r5, r6, r7, r8, r9, sl, lr}
 800d4a4:	4d76      	ldr	r5, [pc, #472]	; (800d680 <I2Cx_Init.lto_priv.174+0x1e0>)
 800d4a6:	f895 2035 	ldrb.w	r2, [r5, #53]	; 0x35
 800d4aa:	f002 03ff 	and.w	r3, r2, #255	; 0xff
 800d4ae:	b10a      	cbz	r2, 800d4b4 <I2Cx_Init.lto_priv.174+0x14>
 800d4b0:	e8bd 87f0 	ldmia.w	sp!, {r4, r5, r6, r7, r8, r9, sl, pc}
 800d4b4:	4973      	ldr	r1, [pc, #460]	; (800d684 <I2Cx_Init.lto_priv.174+0x1e4>)
 800d4b6:	4a74      	ldr	r2, [pc, #464]	; (800d688 <I2Cx_Init.lto_priv.174+0x1e8>)
 800d4b8:	602a      	str	r2, [r5, #0]
 800d4ba:	6b0a      	ldr	r2, [r1, #48]	; 0x30
 800d4bc:	4e73      	ldr	r6, [pc, #460]	; (800d68c <I2Cx_Init.lto_priv.174+0x1ec>)
 800d4be:	60ab      	str	r3, [r5, #8]
 800d4c0:	f44f 4080 	mov.w	r0, #16384	; 0x4000
 800d4c4:	f042 0202 	orr.w	r2, r2, #2
 800d4c8:	630a      	str	r2, [r1, #48]	; 0x30
 800d4ca:	2433      	movs	r4, #51	; 0x33
 800d4cc:	6128      	str	r0, [r5, #16]
 800d4ce:	f100 4080 	add.w	r0, r0, #1073741824	; 0x40000000
 800d4d2:	606e      	str	r6, [r5, #4]
 800d4d4:	60ec      	str	r4, [r5, #12]
 800d4d6:	2601      	movs	r6, #1
 800d4d8:	f04f 080f 	mov.w	r8, #15
 800d4dc:	f04f 0c04 	mov.w	ip, #4
 800d4e0:	f500 30e2 	add.w	r0, r0, #115712	; 0x1c400
 800d4e4:	f04f 0e03 	mov.w	lr, #3
 800d4e8:	2702      	movs	r7, #2
 800d4ea:	3301      	adds	r3, #1
 800d4ec:	fa06 f203 	lsl.w	r2, r6, r3
 800d4f0:	2b10      	cmp	r3, #16
 800d4f2:	f402 7110 	and.w	r1, r2, #576	; 0x240
 800d4f6:	d033      	beq.n	800d560 <I2Cx_Init.lto_priv.174+0xc0>
 800d4f8:	428a      	cmp	r2, r1
 800d4fa:	d1f6      	bne.n	800d4ea <I2Cx_Init.lto_priv.174+0x4a>
 800d4fc:	08d9      	lsrs	r1, r3, #3
 800d4fe:	0089      	lsls	r1, r1, #2
 800d500:	f101 4180 	add.w	r1, r1, #1073741824	; 0x40000000
 800d504:	f501 3101 	add.w	r1, r1, #132096	; 0x20400
 800d508:	f003 0407 	and.w	r4, r3, #7
 800d50c:	f8d1 9020 	ldr.w	r9, [r1, #32]
 800d510:	00a4      	lsls	r4, r4, #2
 800d512:	fa08 fa04 	lsl.w	sl, r8, r4
 800d516:	ea29 090a 	bic.w	r9, r9, sl
 800d51a:	fa0c f404 	lsl.w	r4, ip, r4
 800d51e:	ea49 0404 	orr.w	r4, r9, r4
 800d522:	620c      	str	r4, [r1, #32]
 800d524:	ea4f 0943 	mov.w	r9, r3, lsl #1
 800d528:	6804      	ldr	r4, [r0, #0]
 800d52a:	fa0e f109 	lsl.w	r1, lr, r9
 800d52e:	43c9      	mvns	r1, r1
 800d530:	400c      	ands	r4, r1
 800d532:	fa07 f909 	lsl.w	r9, r7, r9
 800d536:	ea44 0409 	orr.w	r4, r4, r9
 800d53a:	6004      	str	r4, [r0, #0]
 800d53c:	6884      	ldr	r4, [r0, #8]
 800d53e:	400c      	ands	r4, r1
 800d540:	ea44 0409 	orr.w	r4, r4, r9
 800d544:	6084      	str	r4, [r0, #8]
 800d546:	6844      	ldr	r4, [r0, #4]
 800d548:	4322      	orrs	r2, r4
 800d54a:	6042      	str	r2, [r0, #4]
 800d54c:	68c2      	ldr	r2, [r0, #12]
 800d54e:	3301      	adds	r3, #1
 800d550:	4011      	ands	r1, r2
 800d552:	2b10      	cmp	r3, #16
 800d554:	fa06 f203 	lsl.w	r2, r6, r3
 800d558:	60c1      	str	r1, [r0, #12]
 800d55a:	f402 7110 	and.w	r1, r2, #576	; 0x240
 800d55e:	d1cb      	bne.n	800d4f8 <I2Cx_Init.lto_priv.174+0x58>
 800d560:	4e48      	ldr	r6, [pc, #288]	; (800d684 <I2Cx_Init.lto_priv.174+0x1e4>)
 800d562:	4b4b      	ldr	r3, [pc, #300]	; (800d690 <I2Cx_Init.lto_priv.174+0x1f0>)
 800d564:	6c32      	ldr	r2, [r6, #64]	; 0x40
 800d566:	484b      	ldr	r0, [pc, #300]	; (800d694 <I2Cx_Init.lto_priv.174+0x1f4>)
 800d568:	4947      	ldr	r1, [pc, #284]	; (800d688 <I2Cx_Init.lto_priv.174+0x1e8>)
 800d56a:	4c45      	ldr	r4, [pc, #276]	; (800d680 <I2Cx_Init.lto_priv.174+0x1e0>)
 800d56c:	f442 1200 	orr.w	r2, r2, #2097152	; 0x200000
 800d570:	6432      	str	r2, [r6, #64]	; 0x40
 800d572:	6a32      	ldr	r2, [r6, #32]
 800d574:	f442 1200 	orr.w	r2, r2, #2097152	; 0x200000
 800d578:	6232      	str	r2, [r6, #32]
 800d57a:	6a32      	ldr	r2, [r6, #32]
 800d57c:	f422 1200 	bic.w	r2, r2, #2097152	; 0x200000
 800d580:	6232      	str	r2, [r6, #32]
 800d582:	f04f 4e00 	mov.w	lr, #2147483648	; 0x80000000
 800d586:	2200      	movs	r2, #0
 800d588:	68c7      	ldr	r7, [r0, #12]
 800d58a:	f883 231f 	strb.w	r2, [r3, #799]	; 0x31f
 800d58e:	2701      	movs	r7, #1
 800d590:	f8c3 e000 	str.w	lr, [r3]
 800d594:	68c0      	ldr	r0, [r0, #12]
 800d596:	f883 2320 	strb.w	r2, [r3, #800]	; 0x320
 800d59a:	605f      	str	r7, [r3, #4]
 800d59c:	2202      	movs	r2, #2
 800d59e:	f895 3035 	ldrb.w	r3, [r5, #53]	; 0x35
 800d5a2:	f885 2035 	strb.w	r2, [r5, #53]	; 0x35
 800d5a6:	680b      	ldr	r3, [r1, #0]
 800d5a8:	f023 0301 	bic.w	r3, r3, #1
 800d5ac:	600b      	str	r3, [r1, #0]
 800d5ae:	f7ff f825 	bl	800c5fc <HAL_RCC_GetHCLKFreq>
 800d5b2:	68b2      	ldr	r2, [r6, #8]
 800d5b4:	f44f 53e0 	mov.w	r3, #7168	; 0x1c00
 800d5b8:	fa93 f3a3 	rbit	r3, r3
 800d5bc:	fab3 f383 	clz	r3, r3
 800d5c0:	f402 52e0 	and.w	r2, r2, #7168	; 0x1c00
 800d5c4:	b2db      	uxtb	r3, r3
 800d5c6:	fa22 f303 	lsr.w	r3, r2, r3
 800d5ca:	4933      	ldr	r1, [pc, #204]	; (800d698 <I2Cx_Init.lto_priv.174+0x1f8>)
 800d5cc:	4a33      	ldr	r2, [pc, #204]	; (800d69c <I2Cx_Init.lto_priv.174+0x1fc>)
 800d5ce:	f811 e003 	ldrb.w	lr, [r1, r3]
 800d5d2:	492e      	ldr	r1, [pc, #184]	; (800d68c <I2Cx_Init.lto_priv.174+0x1ec>)
 800d5d4:	e895 0048 	ldmia.w	r5, {r3, r6}
 800d5d8:	fa20 f00e 	lsr.w	r0, r0, lr
 800d5dc:	fba2 e200 	umull	lr, r2, r2, r0
 800d5e0:	0c92      	lsrs	r2, r2, #18
 800d5e2:	428e      	cmp	r6, r1
 800d5e4:	605a      	str	r2, [r3, #4]
 800d5e6:	d824      	bhi.n	800d632 <I2Cx_Init.lto_priv.174+0x192>
 800d5e8:	fa06 f407 	lsl.w	r4, r6, r7
 800d5ec:	fbb0 f1f4 	udiv	r1, r0, r4
 800d5f0:	f3c1 000b 	ubfx	r0, r1, #0, #12
 800d5f4:	443a      	add	r2, r7
 800d5f6:	2803      	cmp	r0, #3
 800d5f8:	621a      	str	r2, [r3, #32]
 800d5fa:	bf98      	it	ls
 800d5fc:	2104      	movls	r1, #4
 800d5fe:	6a2a      	ldr	r2, [r5, #32]
 800d600:	69ef      	ldr	r7, [r5, #28]
 800d602:	68ee      	ldr	r6, [r5, #12]
 800d604:	61d9      	str	r1, [r3, #28]
 800d606:	6928      	ldr	r0, [r5, #16]
 800d608:	69ac      	ldr	r4, [r5, #24]
 800d60a:	ea42 0107 	orr.w	r1, r2, r7
 800d60e:	696a      	ldr	r2, [r5, #20]
 800d610:	6019      	str	r1, [r3, #0]
 800d612:	4330      	orrs	r0, r6
 800d614:	4322      	orrs	r2, r4
 800d616:	6098      	str	r0, [r3, #8]
 800d618:	60da      	str	r2, [r3, #12]
 800d61a:	681a      	ldr	r2, [r3, #0]
 800d61c:	2000      	movs	r0, #0
 800d61e:	f042 0201 	orr.w	r2, r2, #1
 800d622:	2101      	movs	r1, #1
 800d624:	601a      	str	r2, [r3, #0]
 800d626:	f885 0036 	strb.w	r0, [r5, #54]	; 0x36
 800d62a:	f885 1035 	strb.w	r1, [r5, #53]	; 0x35
 800d62e:	e8bd 87f0 	ldmia.w	sp!, {r4, r5, r6, r7, r8, r9, sl, pc}
 800d632:	f44f 7196 	mov.w	r1, #300	; 0x12c
 800d636:	f8df e068 	ldr.w	lr, [pc, #104]	; 800d6a0 <I2Cx_Init.lto_priv.174+0x200>
 800d63a:	68a4      	ldr	r4, [r4, #8]
 800d63c:	fb01 f202 	mul.w	r2, r1, r2
 800d640:	fbae 1202 	umull	r1, r2, lr, r2
 800d644:	0992      	lsrs	r2, r2, #6
 800d646:	3201      	adds	r2, #1
 800d648:	621a      	str	r2, [r3, #32]
 800d64a:	b944      	cbnz	r4, 800d65e <I2Cx_Init.lto_priv.174+0x1be>
 800d64c:	eb06 0146 	add.w	r1, r6, r6, lsl #1
 800d650:	fbb0 f1f1 	udiv	r1, r0, r1
 800d654:	f3c1 020b 	ubfx	r2, r1, #0, #12
 800d658:	b972      	cbnz	r2, 800d678 <I2Cx_Init.lto_priv.174+0x1d8>
 800d65a:	4639      	mov	r1, r7
 800d65c:	e7cf      	b.n	800d5fe <I2Cx_Init.lto_priv.174+0x15e>
 800d65e:	eb06 0486 	add.w	r4, r6, r6, lsl #2
 800d662:	eb04 0484 	add.w	r4, r4, r4, lsl #2
 800d666:	fbb0 f1f4 	udiv	r1, r0, r4
 800d66a:	f3c1 020b 	ubfx	r2, r1, #0, #12
 800d66e:	2a00      	cmp	r2, #0
 800d670:	d0f3      	beq.n	800d65a <I2Cx_Init.lto_priv.174+0x1ba>
 800d672:	f441 4140 	orr.w	r1, r1, #49152	; 0xc000
 800d676:	e7c2      	b.n	800d5fe <I2Cx_Init.lto_priv.174+0x15e>
 800d678:	f441 4100 	orr.w	r1, r1, #32768	; 0x8000
 800d67c:	e7bf      	b.n	800d5fe <I2Cx_Init.lto_priv.174+0x15e>
 800d67e:	bf00      	nop
 800d680:	2001f738 	.word	0x2001f738
 800d684:	40023800 	.word	0x40023800
 800d688:	40005400 	.word	0x40005400
 800d68c:	000186a0 	.word	0x000186a0
 800d690:	e000e100 	.word	0xe000e100
 800d694:	e000ed00 	.word	0xe000ed00
 800d698:	0801ee60 	.word	0x0801ee60
 800d69c:	431bde83 	.word	0x431bde83
 800d6a0:	10624dd3 	.word	0x10624dd3

0800d6a4 <BSP_LED_Init>:
BSP_LED_Init():
 800d6a4:	b570      	push	{r4, r5, r6, lr}
 800d6a6:	4604      	mov	r4, r0
 800d6a8:	b086      	sub	sp, #24
 800d6aa:	b138      	cbz	r0, 800d6bc <BSP_LED_Init+0x18>
 800d6ac:	2801      	cmp	r0, #1
 800d6ae:	d005      	beq.n	800d6bc <BSP_LED_Init+0x18>
 800d6b0:	4a0f      	ldr	r2, [pc, #60]	; (800d6f0 <BSP_LED_Init+0x4c>)
 800d6b2:	6b13      	ldr	r3, [r2, #48]	; 0x30
 800d6b4:	f043 0308 	orr.w	r3, r3, #8
 800d6b8:	6313      	str	r3, [r2, #48]	; 0x30
 800d6ba:	e004      	b.n	800d6c6 <BSP_LED_Init+0x22>
 800d6bc:	4a0c      	ldr	r2, [pc, #48]	; (800d6f0 <BSP_LED_Init+0x4c>)
 800d6be:	6b13      	ldr	r3, [r2, #48]	; 0x30
 800d6c0:	f043 0308 	orr.w	r3, r3, #8
 800d6c4:	6313      	str	r3, [r2, #48]	; 0x30
 800d6c6:	4e0b      	ldr	r6, [pc, #44]	; (800d6f4 <BSP_LED_Init+0x50>)
 800d6c8:	4b0b      	ldr	r3, [pc, #44]	; (800d6f8 <BSP_LED_Init+0x54>)
 800d6ca:	f856 0024 	ldr.w	r0, [r6, r4, lsl #2]
 800d6ce:	f833 5014 	ldrh.w	r5, [r3, r4, lsl #1]
 800d6d2:	9501      	str	r5, [sp, #4]
 800d6d4:	2301      	movs	r3, #1
 800d6d6:	2202      	movs	r2, #2
 800d6d8:	a901      	add	r1, sp, #4
 800d6da:	9302      	str	r3, [sp, #8]
 800d6dc:	9303      	str	r3, [sp, #12]
 800d6de:	9204      	str	r2, [sp, #16]
 800d6e0:	f7fd fcf4 	bl	800b0cc <HAL_GPIO_Init.constprop.108>
 800d6e4:	f856 3024 	ldr.w	r3, [r6, r4, lsl #2]
 800d6e8:	835d      	strh	r5, [r3, #26]
 800d6ea:	b006      	add	sp, #24
 800d6ec:	bd70      	pop	{r4, r5, r6, pc}
 800d6ee:	bf00      	nop
 800d6f0:	40023800 	.word	0x40023800
 800d6f4:	20000064 	.word	0x20000064
 800d6f8:	0801ee70 	.word	0x0801ee70

0800d6fc <MagicFX.part.1.lto_priv.142>:
MagicFX.part.1.lto_priv.142():
 800d6fc:	e92d 43f8 	stmdb	sp!, {r3, r4, r5, r6, r7, r8, r9, lr}
 800d700:	4bdf      	ldr	r3, [pc, #892]	; (800da80 <MagicFX.part.1.lto_priv.142+0x384>)
 800d702:	f8df 9404 	ldr.w	r9, [pc, #1028]	; 800db08 <MagicFX.part.1.lto_priv.142+0x40c>
 800d706:	4cdf      	ldr	r4, [pc, #892]	; (800da84 <MagicFX.part.1.lto_priv.142+0x388>)
 800d708:	f8df 8400 	ldr.w	r8, [pc, #1024]	; 800db0c <MagicFX.part.1.lto_priv.142+0x410>
 800d70c:	4dde      	ldr	r5, [pc, #888]	; (800da88 <MagicFX.part.1.lto_priv.142+0x38c>)
 800d70e:	4edf      	ldr	r6, [pc, #892]	; (800da8c <MagicFX.part.1.lto_priv.142+0x390>)
 800d710:	ed2d 8b04 	vpush	{d8-d9}
 800d714:	2201      	movs	r2, #1
 800d716:	701a      	strb	r2, [r3, #0]
 800d718:	f002 fcfc 	bl	8010114 <rand>
 800d71c:	ee07 0a10 	vmov	s14, r0
 800d720:	eddf 7adb 	vldr	s15, [pc, #876]	; 800da90 <MagicFX.part.1.lto_priv.142+0x394>
 800d724:	ed9f 0adb 	vldr	s0, [pc, #876]	; 800da94 <MagicFX.part.1.lto_priv.142+0x398>
 800d728:	ed9f 9adb 	vldr	s18, [pc, #876]	; 800da98 <MagicFX.part.1.lto_priv.142+0x39c>
 800d72c:	eddf 8ad9 	vldr	s17, [pc, #868]	; 800da94 <MagicFX.part.1.lto_priv.142+0x398>
 800d730:	ed9f 8ad7 	vldr	s16, [pc, #860]	; 800da90 <MagicFX.part.1.lto_priv.142+0x394>
 800d734:	eeba 7ae0 	vcvt.f32.s32	s14, s14, #31
 800d738:	2701      	movs	r7, #1
 800d73a:	eea7 0a27 	vfma.f32	s0, s14, s15
 800d73e:	f000 fdb7 	bl	800e2b0 <lrintf>
 800d742:	b2c0      	uxtb	r0, r0
 800d744:	ee07 0a90 	vmov	s15, r0
 800d748:	ed9f 7ad4 	vldr	s14, [pc, #848]	; 800da9c <MagicFX.part.1.lto_priv.142+0x3a0>
 800d74c:	ed9f 0ad4 	vldr	s0, [pc, #848]	; 800daa0 <MagicFX.part.1.lto_priv.142+0x3a4>
 800d750:	eef8 7ae7 	vcvt.f32.s32	s15, s15
 800d754:	eea7 0a87 	vfma.f32	s0, s15, s14
 800d758:	f000 fdaa 	bl	800e2b0 <lrintf>
 800d75c:	4bd1      	ldr	r3, [pc, #836]	; (800daa4 <MagicFX.part.1.lto_priv.142+0x3a8>)
 800d75e:	49d2      	ldr	r1, [pc, #840]	; (800daa8 <MagicFX.part.1.lto_priv.142+0x3ac>)
 800d760:	681b      	ldr	r3, [r3, #0]
 800d762:	4ad2      	ldr	r2, [pc, #840]	; (800daac <MagicFX.part.1.lto_priv.142+0x3b0>)
 800d764:	6008      	str	r0, [r1, #0]
 800d766:	eba3 0080 	sub.w	r0, r3, r0, lsl #2
 800d76a:	4290      	cmp	r0, r2
 800d76c:	bf38      	it	cc
 800d76e:	f500 30ea 	addcc.w	r0, r0, #119808	; 0x1d400
 800d772:	4bcf      	ldr	r3, [pc, #828]	; (800dab0 <MagicFX.part.1.lto_priv.142+0x3b4>)
 800d774:	bf38      	it	cc
 800d776:	30bc      	addcc	r0, #188	; 0xbc
 800d778:	6018      	str	r0, [r3, #0]
 800d77a:	f002 fccb 	bl	8010114 <rand>
 800d77e:	ee07 0a90 	vmov	s15, r0
 800d782:	eef8 7ae7 	vcvt.f32.s32	s15, s15
 800d786:	eeb0 0a68 	vmov.f32	s0, s17
 800d78a:	ee67 7a89 	vmul.f32	s15, s15, s18
 800d78e:	eea7 0a88 	vfma.f32	s0, s15, s16
 800d792:	f000 fd8d 	bl	800e2b0 <lrintf>
 800d796:	b2c0      	uxtb	r0, r0
 800d798:	ee07 0a90 	vmov	s15, r0
 800d79c:	eef8 7ae7 	vcvt.f32.s32	s15, s15
 800d7a0:	4bc4      	ldr	r3, [pc, #784]	; (800dab4 <MagicFX.part.1.lto_priv.142+0x3b8>)
 800d7a2:	eec7 7a88 	vdiv.f32	s15, s15, s16
 800d7a6:	edc3 7a00 	vstr	s15, [r3]
 800d7aa:	f002 fcb3 	bl	8010114 <rand>
 800d7ae:	ee07 0a90 	vmov	s15, r0
 800d7b2:	eef8 7ae7 	vcvt.f32.s32	s15, s15
 800d7b6:	eeb0 0a68 	vmov.f32	s0, s17
 800d7ba:	ee67 7a89 	vmul.f32	s15, s15, s18
 800d7be:	eea7 0a88 	vfma.f32	s0, s15, s16
 800d7c2:	f000 fd75 	bl	800e2b0 <lrintf>
 800d7c6:	b2c0      	uxtb	r0, r0
 800d7c8:	ee07 0a90 	vmov	s15, r0
 800d7cc:	eef8 7ae7 	vcvt.f32.s32	s15, s15
 800d7d0:	4bb9      	ldr	r3, [pc, #740]	; (800dab8 <MagicFX.part.1.lto_priv.142+0x3bc>)
 800d7d2:	4aba      	ldr	r2, [pc, #744]	; (800dabc <MagicFX.part.1.lto_priv.142+0x3c0>)
 800d7d4:	eec7 7a88 	vdiv.f32	s15, s15, s16
 800d7d8:	7017      	strb	r7, [r2, #0]
 800d7da:	edc3 7a00 	vstr	s15, [r3]
 800d7de:	f002 fc99 	bl	8010114 <rand>
 800d7e2:	ee07 0a90 	vmov	s15, r0
 800d7e6:	eef8 7ae7 	vcvt.f32.s32	s15, s15
 800d7ea:	eeb0 0a68 	vmov.f32	s0, s17
 800d7ee:	ee67 7a89 	vmul.f32	s15, s15, s18
 800d7f2:	eea7 0a88 	vfma.f32	s0, s15, s16
 800d7f6:	f000 fd5b 	bl	800e2b0 <lrintf>
 800d7fa:	b2c0      	uxtb	r0, r0
 800d7fc:	ee07 0a90 	vmov	s15, r0
 800d800:	ed9f 6aaf 	vldr	s12, [pc, #700]	; 800dac0 <MagicFX.part.1.lto_priv.142+0x3c4>
 800d804:	ed99 7a00 	vldr	s14, [r9]
 800d808:	eef8 6ae7 	vcvt.f32.s32	s13, s15
 800d80c:	eddf 7aad 	vldr	s15, [pc, #692]	; 800dac4 <MagicFX.part.1.lto_priv.142+0x3c8>
 800d810:	eee6 7a86 	vfma.f32	s15, s13, s12
 800d814:	ee27 7a87 	vmul.f32	s14, s15, s14
 800d818:	edc8 7a01 	vstr	s15, [r8, #4]
 800d81c:	ed84 7a01 	vstr	s14, [r4, #4]
 800d820:	f002 fc78 	bl	8010114 <rand>
 800d824:	ee07 0a90 	vmov	s15, r0
 800d828:	eef8 7ae7 	vcvt.f32.s32	s15, s15
 800d82c:	eeb0 0a68 	vmov.f32	s0, s17
 800d830:	ee67 7a89 	vmul.f32	s15, s15, s18
 800d834:	eea7 0a88 	vfma.f32	s0, s15, s16
 800d838:	f000 fd3a 	bl	800e2b0 <lrintf>
 800d83c:	b2c0      	uxtb	r0, r0
 800d83e:	ee07 0a90 	vmov	s15, r0
 800d842:	ed9f 6aa1 	vldr	s12, [pc, #644]	; 800dac8 <MagicFX.part.1.lto_priv.142+0x3cc>
 800d846:	ed98 7a01 	vldr	s14, [r8, #4]
 800d84a:	eef8 6ae7 	vcvt.f32.s32	s13, s15
 800d84e:	eddf 7a9f 	vldr	s15, [pc, #636]	; 800dacc <MagicFX.part.1.lto_priv.142+0x3d0>
 800d852:	eee6 7a86 	vfma.f32	s15, s13, s12
 800d856:	ee27 7a87 	vmul.f32	s14, s15, s14
 800d85a:	edc9 7a00 	vstr	s15, [r9]
 800d85e:	ed84 7a01 	vstr	s14, [r4, #4]
 800d862:	f002 fc57 	bl	8010114 <rand>
 800d866:	ee07 0a90 	vmov	s15, r0
 800d86a:	eef8 7ae7 	vcvt.f32.s32	s15, s15
 800d86e:	eeb0 0a68 	vmov.f32	s0, s17
 800d872:	ee67 7a89 	vmul.f32	s15, s15, s18
 800d876:	eea7 0a88 	vfma.f32	s0, s15, s16
 800d87a:	f000 fd19 	bl	800e2b0 <lrintf>
 800d87e:	b2c0      	uxtb	r0, r0
 800d880:	ee07 0a90 	vmov	s15, r0
 800d884:	ed9f 7a92 	vldr	s14, [pc, #584]	; 800dad0 <MagicFX.part.1.lto_priv.142+0x3d4>
 800d888:	4a92      	ldr	r2, [pc, #584]	; (800dad4 <MagicFX.part.1.lto_priv.142+0x3d8>)
 800d88a:	4b93      	ldr	r3, [pc, #588]	; (800dad8 <MagicFX.part.1.lto_priv.142+0x3dc>)
 800d88c:	eef8 7ae7 	vcvt.f32.s32	s15, s15
 800d890:	ee67 7a87 	vmul.f32	s15, s15, s14
 800d894:	edc2 7a00 	vstr	s15, [r2]
 800d898:	edc3 7a00 	vstr	s15, [r3]
 800d89c:	f002 fc3a 	bl	8010114 <rand>
 800d8a0:	ee07 0a90 	vmov	s15, r0
 800d8a4:	eef8 7ae7 	vcvt.f32.s32	s15, s15
 800d8a8:	eeb0 0a68 	vmov.f32	s0, s17
 800d8ac:	ee67 7a89 	vmul.f32	s15, s15, s18
 800d8b0:	eea7 0a88 	vfma.f32	s0, s15, s16
 800d8b4:	f000 fcfc 	bl	800e2b0 <lrintf>
 800d8b8:	b2c0      	uxtb	r0, r0
 800d8ba:	ee07 0a90 	vmov	s15, r0
 800d8be:	ed9f 7a87 	vldr	s14, [pc, #540]	; 800dadc <MagicFX.part.1.lto_priv.142+0x3e0>
 800d8c2:	eef8 7ae7 	vcvt.f32.s32	s15, s15
 800d8c6:	ee67 7a87 	vmul.f32	s15, s15, s14
 800d8ca:	edc8 7a00 	vstr	s15, [r8]
 800d8ce:	edc4 7a00 	vstr	s15, [r4]
 800d8d2:	f002 fc1f 	bl	8010114 <rand>
 800d8d6:	ee07 0a90 	vmov	s15, r0
 800d8da:	eef8 7ae7 	vcvt.f32.s32	s15, s15
 800d8de:	eeb0 0a68 	vmov.f32	s0, s17
 800d8e2:	ee67 7a89 	vmul.f32	s15, s15, s18
 800d8e6:	eea7 0a88 	vfma.f32	s0, s15, s16
 800d8ea:	f000 fce1 	bl	800e2b0 <lrintf>
 800d8ee:	b2c0      	uxtb	r0, r0
 800d8f0:	ee07 0a90 	vmov	s15, r0
 800d8f4:	ed9f 7a7a 	vldr	s14, [pc, #488]	; 800dae0 <MagicFX.part.1.lto_priv.142+0x3e4>
 800d8f8:	eef8 7ae7 	vcvt.f32.s32	s15, s15
 800d8fc:	ee67 7a87 	vmul.f32	s15, s15, s14
 800d900:	eec7 7a88 	vdiv.f32	s15, s15, s16
 800d904:	edc5 7a01 	vstr	s15, [r5, #4]
 800d908:	edc6 7a01 	vstr	s15, [r6, #4]
 800d90c:	f002 fc02 	bl	8010114 <rand>
 800d910:	ee07 0a90 	vmov	s15, r0
 800d914:	eef8 7ae7 	vcvt.f32.s32	s15, s15
 800d918:	eeb0 0a68 	vmov.f32	s0, s17
 800d91c:	ee27 9a89 	vmul.f32	s18, s15, s18
 800d920:	eea9 0a08 	vfma.f32	s0, s18, s16
 800d924:	f000 fcc4 	bl	800e2b0 <lrintf>
 800d928:	b2c0      	uxtb	r0, r0
 800d92a:	2800      	cmp	r0, #0
 800d92c:	f000 8091 	beq.w	800da52 <MagicFX.part.1.lto_priv.142+0x356>
 800d930:	287f      	cmp	r0, #127	; 0x7f
 800d932:	f000 8088 	beq.w	800da46 <MagicFX.part.1.lto_priv.142+0x34a>
 800d936:	f002 fbed 	bl	8010114 <rand>
 800d93a:	ee07 0a10 	vmov	s14, r0
 800d93e:	eddf 7a54 	vldr	s15, [pc, #336]	; 800da90 <MagicFX.part.1.lto_priv.142+0x394>
 800d942:	ed9f 0a54 	vldr	s0, [pc, #336]	; 800da94 <MagicFX.part.1.lto_priv.142+0x398>
 800d946:	eeba 7ae0 	vcvt.f32.s32	s14, s14, #31
 800d94a:	eea7 0a27 	vfma.f32	s0, s14, s15
 800d94e:	f000 fcaf 	bl	800e2b0 <lrintf>
 800d952:	b2c0      	uxtb	r0, r0
 800d954:	2800      	cmp	r0, #0
 800d956:	f000 8081 	beq.w	800da5c <MagicFX.part.1.lto_priv.142+0x360>
 800d95a:	287f      	cmp	r0, #127	; 0x7f
 800d95c:	d10b      	bne.n	800d976 <MagicFX.part.1.lto_priv.142+0x27a>
 800d95e:	ed96 0a01 	vldr	s0, [r6, #4]
 800d962:	f000 fc55 	bl	800e210 <fabsf>
 800d966:	ed86 0a01 	vstr	s0, [r6, #4]
 800d96a:	ed95 0a01 	vldr	s0, [r5, #4]
 800d96e:	f000 fc4f 	bl	800e210 <fabsf>
 800d972:	ed85 0a01 	vstr	s0, [r5, #4]
 800d976:	4b5b      	ldr	r3, [pc, #364]	; (800dae4 <MagicFX.part.1.lto_priv.142+0x3e8>)
 800d978:	ed9f 9a47 	vldr	s18, [pc, #284]	; 800da98 <MagicFX.part.1.lto_priv.142+0x39c>
 800d97c:	eddf 8a45 	vldr	s17, [pc, #276]	; 800da94 <MagicFX.part.1.lto_priv.142+0x398>
 800d980:	ed9f 8a43 	vldr	s16, [pc, #268]	; 800da90 <MagicFX.part.1.lto_priv.142+0x394>
 800d984:	2201      	movs	r2, #1
 800d986:	701a      	strb	r2, [r3, #0]
 800d988:	f002 fbc4 	bl	8010114 <rand>
 800d98c:	ee07 0a90 	vmov	s15, r0
 800d990:	eef8 7ae7 	vcvt.f32.s32	s15, s15
 800d994:	eeb0 0a68 	vmov.f32	s0, s17
 800d998:	ee67 7a89 	vmul.f32	s15, s15, s18
 800d99c:	eea7 0a88 	vfma.f32	s0, s15, s16
 800d9a0:	f000 fc86 	bl	800e2b0 <lrintf>
 800d9a4:	b2c0      	uxtb	r0, r0
 800d9a6:	ee07 0a90 	vmov	s15, r0
 800d9aa:	eddf 5a4f 	vldr	s11, [pc, #316]	; 800dae8 <MagicFX.part.1.lto_priv.142+0x3ec>
 800d9ae:	ed9f 7a45 	vldr	s14, [pc, #276]	; 800dac4 <MagicFX.part.1.lto_priv.142+0x3c8>
 800d9b2:	ed9f 6a4e 	vldr	s12, [pc, #312]	; 800daec <MagicFX.part.1.lto_priv.142+0x3f0>
 800d9b6:	4a4e      	ldr	r2, [pc, #312]	; (800daf0 <MagicFX.part.1.lto_priv.142+0x3f4>)
 800d9b8:	4b4e      	ldr	r3, [pc, #312]	; (800daf4 <MagicFX.part.1.lto_priv.142+0x3f8>)
 800d9ba:	eef8 6ae7 	vcvt.f32.s32	s13, s15
 800d9be:	eddf 7a4e 	vldr	s15, [pc, #312]	; 800daf8 <MagicFX.part.1.lto_priv.142+0x3fc>
 800d9c2:	eea6 7aa5 	vfma.f32	s14, s13, s11
 800d9c6:	ee67 7a27 	vmul.f32	s15, s14, s15
 800d9ca:	ed82 7a00 	vstr	s14, [r2]
 800d9ce:	eec7 7a86 	vdiv.f32	s15, s15, s12
 800d9d2:	edc3 7a00 	vstr	s15, [r3]
 800d9d6:	f002 fb9d 	bl	8010114 <rand>
 800d9da:	ee07 0a90 	vmov	s15, r0
 800d9de:	eef8 7ae7 	vcvt.f32.s32	s15, s15
 800d9e2:	eeb0 0a68 	vmov.f32	s0, s17
 800d9e6:	ee67 7a89 	vmul.f32	s15, s15, s18
 800d9ea:	eea7 0a88 	vfma.f32	s0, s15, s16
 800d9ee:	f000 fc5f 	bl	800e2b0 <lrintf>
 800d9f2:	b2c0      	uxtb	r0, r0
 800d9f4:	ee07 0a90 	vmov	s15, r0
 800d9f8:	ed9f 7a40 	vldr	s14, [pc, #256]	; 800dafc <MagicFX.part.1.lto_priv.142+0x400>
 800d9fc:	4b40      	ldr	r3, [pc, #256]	; (800db00 <MagicFX.part.1.lto_priv.142+0x404>)
 800d9fe:	eef8 7ae7 	vcvt.f32.s32	s15, s15
 800da02:	ee67 7a87 	vmul.f32	s15, s15, s14
 800da06:	eec7 7a88 	vdiv.f32	s15, s15, s16
 800da0a:	edc3 7a00 	vstr	s15, [r3]
 800da0e:	f002 fb81 	bl	8010114 <rand>
 800da12:	ee07 0a90 	vmov	s15, r0
 800da16:	eef8 7ae7 	vcvt.f32.s32	s15, s15
 800da1a:	eeb0 0a68 	vmov.f32	s0, s17
 800da1e:	ee67 7a89 	vmul.f32	s15, s15, s18
 800da22:	eea7 0a88 	vfma.f32	s0, s15, s16
 800da26:	f000 fc43 	bl	800e2b0 <lrintf>
 800da2a:	b2c0      	uxtb	r0, r0
 800da2c:	ee07 0a90 	vmov	s15, r0
 800da30:	eef8 7ae7 	vcvt.f32.s32	s15, s15
 800da34:	4b33      	ldr	r3, [pc, #204]	; (800db04 <MagicFX.part.1.lto_priv.142+0x408>)
 800da36:	eec7 7a88 	vdiv.f32	s15, s15, s16
 800da3a:	ecbd 8b04 	vpop	{d8-d9}
 800da3e:	edc3 7a00 	vstr	s15, [r3]
 800da42:	e8bd 83f8 	ldmia.w	sp!, {r3, r4, r5, r6, r7, r8, r9, pc}
 800da46:	f241 53f4 	movw	r3, #5620	; 0x15f4
 800da4a:	22ff      	movs	r2, #255	; 0xff
 800da4c:	54ea      	strb	r2, [r5, r3]
 800da4e:	54f2      	strb	r2, [r6, r3]
 800da50:	e771      	b.n	800d936 <MagicFX.part.1.lto_priv.142+0x23a>
 800da52:	f241 53f4 	movw	r3, #5620	; 0x15f4
 800da56:	54ef      	strb	r7, [r5, r3]
 800da58:	54f7      	strb	r7, [r6, r3]
 800da5a:	e76c      	b.n	800d936 <MagicFX.part.1.lto_priv.142+0x23a>
 800da5c:	ed96 0a01 	vldr	s0, [r6, #4]
 800da60:	f000 fbd6 	bl	800e210 <fabsf>
 800da64:	eef1 7a40 	vneg.f32	s15, s0
 800da68:	ed95 0a01 	vldr	s0, [r5, #4]
 800da6c:	edc6 7a01 	vstr	s15, [r6, #4]
 800da70:	f000 fbce 	bl	800e210 <fabsf>
 800da74:	eeb1 0a40 	vneg.f32	s0, s0
 800da78:	ed85 0a01 	vstr	s0, [r5, #4]
 800da7c:	e77b      	b.n	800d976 <MagicFX.part.1.lto_priv.142+0x27a>
 800da7e:	bf00      	nop
 800da80:	1000129c 	.word	0x1000129c
 800da84:	10003ea0 	.word	0x10003ea0
 800da88:	100012a0 	.word	0x100012a0
 800da8c:	100028a8 	.word	0x100028a8
 800da90:	42fe0000 	.word	0x42fe0000
 800da94:	00000000 	.word	0x00000000
 800da98:	30000000 	.word	0x30000000
 800da9c:	436a3e7d 	.word	0x436a3e7d
 800daa0:	437a0000 	.word	0x437a0000
 800daa4:	2001f0c4 	.word	0x2001f0c4
 800daa8:	20001944 	.word	0x20001944
 800daac:	20001bf8 	.word	0x20001bf8
 800dab0:	2001f0fc 	.word	0x2001f0fc
 800dab4:	20000058 	.word	0x20000058
 800dab8:	20000050 	.word	0x20000050
 800dabc:	1000129e 	.word	0x1000129e
 800dac0:	3d61c387 	.word	0x3d61c387
 800dac4:	3ca3d70a 	.word	0x3ca3d70a
 800dac8:	3be836d4 	.word	0x3be836d4
 800dacc:	3dcccccd 	.word	0x3dcccccd
 800dad0:	40b060c2 	.word	0x40b060c2
 800dad4:	10002890 	.word	0x10002890
 800dad8:	10003e98 	.word	0x10003e98
 800dadc:	3f8c7f66 	.word	0x3f8c7f66
 800dae0:	3f733333 	.word	0x3f733333
 800dae4:	1000129d 	.word	0x1000129d
 800dae8:	3d611e66 	.word	0x3d611e66
 800daec:	472c4400 	.word	0x472c4400
 800daf0:	20001bec 	.word	0x20001bec
 800daf4:	2001f0f0 	.word	0x2001f0f0
 800daf8:	40c90fdb 	.word	0x40c90fdb
 800dafc:	3f7fbe77 	.word	0x3f7fbe77
 800db00:	2001f100 	.word	0x2001f100
 800db04:	20001bf4 	.word	0x20001bf4
 800db08:	20001940 	.word	0x20001940
 800db0c:	10002898 	.word	0x10002898

0800db10 <SystemInit>:
SystemInit():
 800db10:	4910      	ldr	r1, [pc, #64]	; (800db54 <SystemInit+0x44>)
 800db12:	4b11      	ldr	r3, [pc, #68]	; (800db58 <SystemInit+0x48>)
 800db14:	f8d1 2088 	ldr.w	r2, [r1, #136]	; 0x88
 800db18:	f442 0270 	orr.w	r2, r2, #15728640	; 0xf00000
 800db1c:	b410      	push	{r4}
 800db1e:	f8c1 2088 	str.w	r2, [r1, #136]	; 0x88
 800db22:	681a      	ldr	r2, [r3, #0]
 800db24:	4c0d      	ldr	r4, [pc, #52]	; (800db5c <SystemInit+0x4c>)
 800db26:	2000      	movs	r0, #0
 800db28:	f042 0201 	orr.w	r2, r2, #1
 800db2c:	601a      	str	r2, [r3, #0]
 800db2e:	6098      	str	r0, [r3, #8]
 800db30:	681a      	ldr	r2, [r3, #0]
 800db32:	f022 7284 	bic.w	r2, r2, #17301504	; 0x1080000
 800db36:	f422 3280 	bic.w	r2, r2, #65536	; 0x10000
 800db3a:	601a      	str	r2, [r3, #0]
 800db3c:	605c      	str	r4, [r3, #4]
 800db3e:	681a      	ldr	r2, [r3, #0]
 800db40:	f04f 6400 	mov.w	r4, #134217728	; 0x8000000
 800db44:	f422 2280 	bic.w	r2, r2, #262144	; 0x40000
 800db48:	601a      	str	r2, [r3, #0]
 800db4a:	60d8      	str	r0, [r3, #12]
 800db4c:	608c      	str	r4, [r1, #8]
 800db4e:	f85d 4b04 	ldr.w	r4, [sp], #4
 800db52:	4770      	bx	lr
 800db54:	e000ed00 	.word	0xe000ed00
 800db58:	40023800 	.word	0x40023800
 800db5c:	24003010 	.word	0x24003010

0800db60 <USBH_UserProcess_callback.lto_priv.143>:
USBH_UserProcess_callback.lto_priv.143():
 800db60:	2904      	cmp	r1, #4
 800db62:	b430      	push	{r4, r5}
 800db64:	d024      	beq.n	800dbb0 <USBH_UserProcess_callback.lto_priv.143+0x50>
 800db66:	2905      	cmp	r1, #5
 800db68:	d014      	beq.n	800db94 <USBH_UserProcess_callback.lto_priv.143+0x34>
 800db6a:	2902      	cmp	r1, #2
 800db6c:	d001      	beq.n	800db72 <USBH_UserProcess_callback.lto_priv.143+0x12>
 800db6e:	bc30      	pop	{r4, r5}
 800db70:	4770      	bx	lr
 800db72:	4b14      	ldr	r3, [pc, #80]	; (800dbc4 <USBH_UserProcess_callback.lto_priv.143+0x64>)
 800db74:	4a14      	ldr	r2, [pc, #80]	; (800dbc8 <USBH_UserProcess_callback.lto_priv.143+0x68>)
 800db76:	681c      	ldr	r4, [r3, #0]
 800db78:	68d8      	ldr	r0, [r3, #12]
 800db7a:	689b      	ldr	r3, [r3, #8]
 800db7c:	7011      	strb	r1, [r2, #0]
 800db7e:	f44f 5580 	mov.w	r5, #4096	; 0x1000
 800db82:	f44f 4100 	mov.w	r1, #32768	; 0x8000
 800db86:	f44f 4280 	mov.w	r2, #16384	; 0x4000
 800db8a:	8325      	strh	r5, [r4, #24]
 800db8c:	8341      	strh	r1, [r0, #26]
 800db8e:	bc30      	pop	{r4, r5}
 800db90:	835a      	strh	r2, [r3, #26]
 800db92:	4770      	bx	lr
 800db94:	4b0b      	ldr	r3, [pc, #44]	; (800dbc4 <USBH_UserProcess_callback.lto_priv.143+0x64>)
 800db96:	490c      	ldr	r1, [pc, #48]	; (800dbc8 <USBH_UserProcess_callback.lto_priv.143+0x68>)
 800db98:	681c      	ldr	r4, [r3, #0]
 800db9a:	68db      	ldr	r3, [r3, #12]
 800db9c:	f44f 5580 	mov.w	r5, #4096	; 0x1000
 800dba0:	f44f 4200 	mov.w	r2, #32768	; 0x8000
 800dba4:	2004      	movs	r0, #4
 800dba6:	8365      	strh	r5, [r4, #26]
 800dba8:	7008      	strb	r0, [r1, #0]
 800dbaa:	bc30      	pop	{r4, r5}
 800dbac:	835a      	strh	r2, [r3, #26]
 800dbae:	4770      	bx	lr
 800dbb0:	4a04      	ldr	r2, [pc, #16]	; (800dbc4 <USBH_UserProcess_callback.lto_priv.143+0x64>)
 800dbb2:	4b05      	ldr	r3, [pc, #20]	; (800dbc8 <USBH_UserProcess_callback.lto_priv.143+0x68>)
 800dbb4:	68d1      	ldr	r1, [r2, #12]
 800dbb6:	f44f 4000 	mov.w	r0, #32768	; 0x8000
 800dbba:	2201      	movs	r2, #1
 800dbbc:	8308      	strh	r0, [r1, #24]
 800dbbe:	701a      	strb	r2, [r3, #0]
 800dbc0:	bc30      	pop	{r4, r5}
 800dbc2:	4770      	bx	lr
 800dbc4:	20000064 	.word	0x20000064
 800dbc8:	2001f770 	.word	0x2001f770

0800dbcc <seq_sequence_new>:
seq_sequence_new():
 800dbcc:	b5f8      	push	{r3, r4, r5, r6, r7, lr}
 800dbce:	4f2c      	ldr	r7, [pc, #176]	; (800dc80 <seq_sequence_new+0xb4>)
 800dbd0:	4d2c      	ldr	r5, [pc, #176]	; (800dc84 <seq_sequence_new+0xb8>)
 800dbd2:	ed2d 8b04 	vpush	{d8-d9}
 800dbd6:	ed9f 9a2c 	vldr	s18, [pc, #176]	; 800dc88 <seq_sequence_new+0xbc>
 800dbda:	eddf 9a2c 	vldr	s19, [pc, #176]	; 800dc8c <seq_sequence_new+0xc0>
 800dbde:	f107 0610 	add.w	r6, r7, #16
 800dbe2:	eef7 8a00 	vmov.f32	s17, #112	; 0x70
 800dbe6:	686c      	ldr	r4, [r5, #4]
 800dbe8:	7823      	ldrb	r3, [r4, #0]
 800dbea:	ee08 3a10 	vmov	s16, r3
 800dbee:	f002 fa91 	bl	8010114 <rand>
 800dbf2:	ee07 0a90 	vmov	s15, r0
 800dbf6:	eeb8 8a48 	vcvt.f32.u32	s16, s16
 800dbfa:	eef8 7ae7 	vcvt.f32.s32	s15, s15
 800dbfe:	ee38 8a68 	vsub.f32	s16, s16, s17
 800dc02:	ee67 7a89 	vmul.f32	s15, s15, s18
 800dc06:	eeb0 0a68 	vmov.f32	s0, s17
 800dc0a:	eea7 0a88 	vfma.f32	s0, s15, s16
 800dc0e:	f000 fb4f 	bl	800e2b0 <lrintf>
 800dc12:	7a2b      	ldrb	r3, [r5, #8]
 800dc14:	5c24      	ldrb	r4, [r4, r0]
 800dc16:	ee08 3a10 	vmov	s16, r3
 800dc1a:	f002 fa7b 	bl	8010114 <rand>
 800dc1e:	ee07 0a90 	vmov	s15, r0
 800dc22:	eef8 7ae7 	vcvt.f32.s32	s15, s15
 800dc26:	eeb8 8a48 	vcvt.f32.u32	s16, s16
 800dc2a:	ee67 7a89 	vmul.f32	s15, s15, s18
 800dc2e:	eeb0 0a69 	vmov.f32	s0, s19
 800dc32:	eea8 0a27 	vfma.f32	s0, s16, s15
 800dc36:	f000 fb3b 	bl	800e2b0 <lrintf>
 800dc3a:	7a6a      	ldrb	r2, [r5, #9]
 800dc3c:	eb00 0040 	add.w	r0, r0, r0, lsl #1
 800dc40:	3a15      	subs	r2, #21
 800dc42:	eb02 0380 	add.w	r3, r2, r0, lsl #2
 800dc46:	4423      	add	r3, r4
 800dc48:	b29b      	uxth	r3, r3
 800dc4a:	b21a      	sxth	r2, r3
 800dc4c:	2a6a      	cmp	r2, #106	; 0x6a
 800dc4e:	dd0b      	ble.n	800dc68 <seq_sequence_new+0x9c>
 800dc50:	3b0c      	subs	r3, #12
 800dc52:	b29a      	uxth	r2, r3
 800dc54:	2a6a      	cmp	r2, #106	; 0x6a
 800dc56:	b293      	uxth	r3, r2
 800dc58:	d8fa      	bhi.n	800dc50 <seq_sequence_new+0x84>
 800dc5a:	f807 3f01 	strb.w	r3, [r7, #1]!
 800dc5e:	42b7      	cmp	r7, r6
 800dc60:	d1c1      	bne.n	800dbe6 <seq_sequence_new+0x1a>
 800dc62:	ecbd 8b04 	vpop	{d8-d9}
 800dc66:	bdf8      	pop	{r3, r4, r5, r6, r7, pc}
 800dc68:	2a00      	cmp	r2, #0
 800dc6a:	daf6      	bge.n	800dc5a <seq_sequence_new+0x8e>
 800dc6c:	330c      	adds	r3, #12
 800dc6e:	b29b      	uxth	r3, r3
 800dc70:	041a      	lsls	r2, r3, #16
 800dc72:	d4fb      	bmi.n	800dc6c <seq_sequence_new+0xa0>
 800dc74:	f807 3f01 	strb.w	r3, [r7, #1]!
 800dc78:	42b7      	cmp	r7, r6
 800dc7a:	d1b4      	bne.n	800dbe6 <seq_sequence_new+0x1a>
 800dc7c:	e7f1      	b.n	800dc62 <seq_sequence_new+0x96>
 800dc7e:	bf00      	nop
 800dc80:	0fffffff 	.word	0x0fffffff
 800dc84:	10000034 	.word	0x10000034
 800dc88:	30000000 	.word	0x30000000
 800dc8c:	00000000 	.word	0x00000000

0800dc90 <SVF_calcSample>:
SVF_calcSample():
 800dc90:	ed90 6a06 	vldr	s12, [r0, #24]
 800dc94:	eddf 2a88 	vldr	s5, [pc, #544]	; 800deb8 <SVF_calcSample+0x228>
 800dc98:	edd0 6a01 	vldr	s13, [r0, #4]
 800dc9c:	ed9f 7a87 	vldr	s14, [pc, #540]	; 800debc <SVF_calcSample+0x22c>
 800dca0:	eddf 4a87 	vldr	s9, [pc, #540]	; 800dec0 <SVF_calcSample+0x230>
 800dca4:	edd0 3a04 	vldr	s7, [r0, #16]
 800dca8:	ed90 3a05 	vldr	s6, [r0, #20]
 800dcac:	edd0 7a02 	vldr	s15, [r0, #8]
 800dcb0:	7803      	ldrb	r3, [r0, #0]
 800dcb2:	ee20 5a06 	vmul.f32	s10, s0, s12
 800dcb6:	eeb6 2a00 	vmov.f32	s4, #96	; 0x60
 800dcba:	ee65 5a02 	vmul.f32	s11, s10, s4
 800dcbe:	eef2 0a0e 	vmov.f32	s1, #46	; 0x2e
 800dcc2:	ee65 5aa5 	vmul.f32	s11, s11, s11
 800dcc6:	eef0 1a62 	vmov.f32	s3, s5
 800dcca:	eee5 1aa0 	vfma.f32	s3, s11, s1
 800dcce:	3b01      	subs	r3, #1
 800dcd0:	eef4 6ac7 	vcmpe.f32	s13, s14
 800dcd4:	ed9f 7a7b 	vldr	s14, [pc, #492]	; 800dec4 <SVF_calcSample+0x234>
 800dcd8:	ed2d 8b02 	vpush	{d8}
 800dcdc:	eef0 8a47 	vmov.f32	s17, s14
 800dce0:	eee5 8aa1 	vfma.f32	s17, s11, s3
 800dce4:	ee35 6aa4 	vadd.f32	s12, s11, s9
 800dce8:	eef0 1a68 	vmov.f32	s3, s17
 800dcec:	eef0 8a47 	vmov.f32	s17, s14
 800dcf0:	eee5 8a86 	vfma.f32	s17, s11, s12
 800dcf4:	eef1 fa10 	vmrs	APSR_nzcv, fpscr
 800dcf8:	ee88 6aa1 	vdiv.f32	s12, s17, s3
 800dcfc:	bfb8      	it	lt
 800dcfe:	ed90 1a03 	vldrlt	s2, [r0, #12]
 800dd02:	ed90 8a07 	vldr	s16, [r0, #28]
 800dd06:	ee25 6a06 	vmul.f32	s12, s10, s12
 800dd0a:	bfb4      	ite	lt
 800dd0c:	ee31 4a01 	vaddlt.f32	s8, s2, s2
 800dd10:	eeb0 4a00 	vmovge.f32	s8, #0
 800dd14:	ee36 5a08 	vadd.f32	s10, s12, s16
 800dd18:	ee64 6a63 	vnmul.f32	s13, s8, s7
 800dd1c:	ee63 5a82 	vmul.f32	s11, s7, s4
 800dd20:	eee5 6a02 	vfma.f32	s13, s10, s4
 800dd24:	ee65 5aa5 	vmul.f32	s11, s11, s11
 800dd28:	ee76 6ac3 	vsub.f32	s13, s13, s6
 800dd2c:	eeb0 8a62 	vmov.f32	s16, s5
 800dd30:	ee66 6a82 	vmul.f32	s13, s13, s4
 800dd34:	eea5 8aa0 	vfma.f32	s16, s11, s1
 800dd38:	ee66 6aa6 	vmul.f32	s13, s13, s13
 800dd3c:	ee35 5aa4 	vadd.f32	s10, s11, s9
 800dd40:	eee6 2aa0 	vfma.f32	s5, s13, s1
 800dd44:	eef0 8a47 	vmov.f32	s17, s14
 800dd48:	eeb0 2a47 	vmov.f32	s4, s14
 800dd4c:	eea5 2a88 	vfma.f32	s4, s11, s16
 800dd50:	ee76 4aa4 	vadd.f32	s9, s13, s9
 800dd54:	eee5 8a85 	vfma.f32	s17, s11, s10
 800dd58:	eef0 5a47 	vmov.f32	s11, s14
 800dd5c:	eee6 5aa2 	vfma.f32	s11, s13, s5
 800dd60:	eea6 7aa4 	vfma.f32	s14, s13, s9
 800dd64:	eef0 2a65 	vmov.f32	s5, s11
 800dd68:	ee87 7a22 	vdiv.f32	s14, s14, s5
 800dd6c:	eef7 1a00 	vmov.f32	s3, #112	; 0x70
 800dd70:	ee67 2a87 	vmul.f32	s5, s15, s14
 800dd74:	bfa8      	it	ge
 800dd76:	eeb7 1a00 	vmovge.f32	s2, #112	; 0x70
 800dd7a:	ee72 2aa2 	vadd.f32	s5, s5, s5
 800dd7e:	eef0 6a61 	vmov.f32	s13, s3
 800dd82:	eee1 6a22 	vfma.f32	s13, s2, s5
 800dd86:	ee88 5a82 	vdiv.f32	s10, s17, s4
 800dd8a:	eec1 2aa6 	vdiv.f32	s5, s3, s13
 800dd8e:	ee67 5aa7 	vmul.f32	s11, s15, s15
 800dd92:	ee37 2a07 	vadd.f32	s4, s14, s14
 800dd96:	ee65 5aa2 	vmul.f32	s11, s11, s5
 800dd9a:	ee22 2a41 	vnmul.f32	s4, s4, s2
 800dd9e:	ee65 5a87 	vmul.f32	s11, s11, s14
 800dda2:	ee27 1aa2 	vmul.f32	s2, s15, s5
 800dda6:	ee65 6a85 	vmul.f32	s13, s11, s10
 800ddaa:	eef0 5a43 	vmov.f32	s11, s6
 800ddae:	eee6 5a86 	vfma.f32	s11, s13, s12
 800ddb2:	ee21 1a05 	vmul.f32	s2, s2, s10
 800ddb6:	ee76 6aa1 	vadd.f32	s13, s13, s3
 800ddba:	eee3 5a81 	vfma.f32	s11, s7, s2
 800ddbe:	ee77 4aa7 	vadd.f32	s9, s15, s15
 800ddc2:	eec5 6aa6 	vdiv.f32	s13, s11, s13
 800ddc6:	ee64 0a85 	vmul.f32	s1, s9, s10
 800ddca:	ee76 5a66 	vsub.f32	s11, s12, s13
 800ddce:	ed80 6a07 	vstr	s12, [r0, #28]
 800ddd2:	ee25 7a87 	vmul.f32	s14, s11, s14
 800ddd6:	ee67 7a87 	vmul.f32	s15, s15, s14
 800ddda:	eee3 7a85 	vfma.f32	s15, s7, s10
 800ddde:	ee67 7aa2 	vmul.f32	s15, s15, s5
 800dde2:	eea2 7a27 	vfma.f32	s14, s4, s15
 800dde6:	eea0 3aa7 	vfma.f32	s6, s1, s15
 800ddea:	ee64 4a87 	vmul.f32	s9, s9, s14
 800ddee:	ed80 3a05 	vstr	s6, [r0, #20]
 800ddf2:	eee3 4a85 	vfma.f32	s9, s7, s10
 800ddf6:	edc0 4a04 	vstr	s9, [r0, #16]
 800ddfa:	2b04      	cmp	r3, #4
 800ddfc:	d81e      	bhi.n	800de3c <SVF_calcSample+0x1ac>
 800ddfe:	e8df f003 	tbb	[pc, r3]
 800de02:	4203      	.short	0x4203
 800de04:	504b      	.short	0x504b
 800de06:	37          	.byte	0x37
 800de07:	00          	.byte	0x00
 800de08:	eddf 7a2f 	vldr	s15, [pc, #188]	; 800dec8 <SVF_calcSample+0x238>
 800de0c:	eef4 6ae7 	vcmpe.f32	s13, s15
 800de10:	eef1 fa10 	vmrs	APSR_nzcv, fpscr
 800de14:	d41e      	bmi.n	800de54 <SVF_calcSample+0x1c4>
 800de16:	eddf 7a2d 	vldr	s15, [pc, #180]	; 800decc <SVF_calcSample+0x23c>
 800de1a:	eef4 6ae7 	vcmpe.f32	s13, s15
 800de1e:	eef1 fa10 	vmrs	APSR_nzcv, fpscr
 800de22:	dc45      	bgt.n	800deb0 <SVF_calcSample+0x220>
 800de24:	ed9f 0a2a 	vldr	s0, [pc, #168]	; 800ded0 <SVF_calcSample+0x240>
 800de28:	eddf 7a2a 	vldr	s15, [pc, #168]	; 800ded4 <SVF_calcSample+0x244>
 800de2c:	eeb0 6a40 	vmov.f32	s12, s0
 800de30:	eea6 6aa6 	vfma.f32	s12, s13, s13
 800de34:	ee66 6aa7 	vmul.f32	s13, s13, s15
 800de38:	ee86 0a86 	vdiv.f32	s0, s13, s12
 800de3c:	eef7 7a00 	vmov.f32	s15, #112	; 0x70
 800de40:	eeb4 0ae7 	vcmpe.f32	s0, s15
 800de44:	eef1 fa10 	vmrs	APSR_nzcv, fpscr
 800de48:	dd06      	ble.n	800de58 <SVF_calcSample+0x1c8>
 800de4a:	eeb0 0a67 	vmov.f32	s0, s15
 800de4e:	ecbd 8b02 	vpop	{d8}
 800de52:	4770      	bx	lr
 800de54:	eebf 0a00 	vmov.f32	s0, #240	; 0xf0
 800de58:	eeff 7a00 	vmov.f32	s15, #240	; 0xf0
 800de5c:	eeb4 0a67 	vcmp.f32	s0, s15
 800de60:	eef1 fa10 	vmrs	APSR_nzcv, fpscr
 800de64:	bf48      	it	mi
 800de66:	eeb0 0a67 	vmovmi.f32	s0, s15
 800de6a:	ecbd 8b02 	vpop	{d8}
 800de6e:	4770      	bx	lr
 800de70:	eea7 6ac4 	vfms.f32	s12, s15, s8
 800de74:	eddf 7a18 	vldr	s15, [pc, #96]	; 800ded8 <SVF_calcSample+0x248>
 800de78:	ee36 0a66 	vsub.f32	s0, s12, s13
 800de7c:	ee76 6ac0 	vsub.f32	s13, s13, s0
 800de80:	ee26 0aa7 	vmul.f32	s0, s13, s15
 800de84:	e7da      	b.n	800de3c <SVF_calcSample+0x1ac>
 800de86:	eea7 6ac4 	vfms.f32	s12, s15, s8
 800de8a:	ed9f 0a13 	vldr	s0, [pc, #76]	; 800ded8 <SVF_calcSample+0x248>
 800de8e:	ee76 6a66 	vsub.f32	s13, s12, s13
 800de92:	ee26 0a80 	vmul.f32	s0, s13, s0
 800de96:	e7d1      	b.n	800de3c <SVF_calcSample+0x1ac>
 800de98:	ed9f 0a0f 	vldr	s0, [pc, #60]	; 800ded8 <SVF_calcSample+0x248>
 800de9c:	ee27 0a80 	vmul.f32	s0, s15, s0
 800dea0:	e7cc      	b.n	800de3c <SVF_calcSample+0x1ac>
 800dea2:	eea7 6ac4 	vfms.f32	s12, s15, s8
 800dea6:	eddf 7a0c 	vldr	s15, [pc, #48]	; 800ded8 <SVF_calcSample+0x248>
 800deaa:	ee26 0a27 	vmul.f32	s0, s12, s15
 800deae:	e7c5      	b.n	800de3c <SVF_calcSample+0x1ac>
 800deb0:	eeb7 0a00 	vmov.f32	s0, #112	; 0x70
 800deb4:	e7d0      	b.n	800de58 <SVF_calcSample+0x1c8>
 800deb6:	bf00      	nop
 800deb8:	43d20000 	.word	0x43d20000
 800debc:	3ee6594b 	.word	0x3ee6594b
 800dec0:	42d20000 	.word	0x42d20000
 800dec4:	446c4000 	.word	0x446c4000
 800dec8:	bff9999a 	.word	0xbff9999a
 800decc:	3ff9999a 	.word	0x3ff9999a
 800ded0:	408947ae 	.word	0x408947ae
 800ded4:	4084cccd 	.word	0x4084cccd
 800ded8:	3f6147ae 	.word	0x3f6147ae

0800dedc <Error_Handler>:
Error_Handler():
 800dedc:	4b02      	ldr	r3, [pc, #8]	; (800dee8 <Error_Handler+0xc>)
 800dede:	689b      	ldr	r3, [r3, #8]
 800dee0:	f44f 4280 	mov.w	r2, #16384	; 0x4000
 800dee4:	831a      	strh	r2, [r3, #24]
 800dee6:	e7fe      	b.n	800dee6 <Error_Handler+0xa>
 800dee8:	20000064 	.word	0x20000064

0800deec <delay_read>:
delay_read():
 800deec:	b510      	push	{r4, lr}
 800deee:	eef1 7a08 	vmov.f32	s15, #24
 800def2:	eeb4 0ae7 	vcmpe.f32	s0, s15
 800def6:	eef1 fa10 	vmrs	APSR_nzcv, fpscr
 800defa:	ed2d 8b02 	vpush	{d8}
 800defe:	4604      	mov	r4, r0
 800df00:	eeb0 8a40 	vmov.f32	s16, s0
 800df04:	d464      	bmi.n	800dfd0 <delay_read+0xe4>
 800df06:	eddf 7a34 	vldr	s15, [pc, #208]	; 800dfd8 <delay_read+0xec>
 800df0a:	eeb4 0a67 	vcmp.f32	s0, s15
 800df0e:	eef1 fa10 	vmrs	APSR_nzcv, fpscr
 800df12:	bfc8      	it	gt
 800df14:	eeb0 8a67 	vmovgt.f32	s16, s15
 800df18:	eeb0 0a48 	vmov.f32	s0, s16
 800df1c:	f000 f980 	bl	800e220 <floorf>
 800df20:	eebd 0ac0 	vcvt.s32.f32	s0, s0
 800df24:	68e3      	ldr	r3, [r4, #12]
 800df26:	ed9f 7a2d 	vldr	s14, [pc, #180]	; 800dfdc <delay_read+0xf0>
 800df2a:	ed9f 5a2d 	vldr	s10, [pc, #180]	; 800dfe0 <delay_read+0xf4>
 800df2e:	ee10 2a10 	vmov	r2, s0
 800df32:	1a9b      	subs	r3, r3, r2
 800df34:	bf48      	it	mi
 800df36:	f503 63af 	addmi.w	r3, r3, #1400	; 0x578
 800df3a:	eb04 0283 	add.w	r2, r4, r3, lsl #2
 800df3e:	ed92 4a04 	vldr	s8, [r2, #16]
 800df42:	1e5a      	subs	r2, r3, #1
 800df44:	bf48      	it	mi
 800df46:	f203 5277 	addwmi	r2, r3, #1399	; 0x577
 800df4a:	eb04 0382 	add.w	r3, r4, r2, lsl #2
 800df4e:	eef8 7ac0 	vcvt.f32.s32	s15, s0
 800df52:	edd3 3a04 	vldr	s7, [r3, #16]
 800df56:	1e53      	subs	r3, r2, #1
 800df58:	ee38 8a67 	vsub.f32	s16, s16, s15
 800df5c:	bf48      	it	mi
 800df5e:	f202 5377 	addwmi	r3, r2, #1399	; 0x577
 800df62:	1e58      	subs	r0, r3, #1
 800df64:	eef0 6a00 	vmov.f32	s13, #0
 800df68:	ee78 6a66 	vsub.f32	s13, s16, s13
 800df6c:	bf48      	it	mi
 800df6e:	f203 5077 	addwmi	r0, r3, #1399	; 0x577
 800df72:	eb04 0283 	add.w	r2, r4, r3, lsl #2
 800df76:	eeb0 6a08 	vmov.f32	s12, #8
 800df7a:	eb04 0480 	add.w	r4, r4, r0, lsl #2
 800df7e:	ee26 7a87 	vmul.f32	s14, s13, s14
 800df82:	ee38 6a46 	vsub.f32	s12, s16, s12
 800df86:	ed94 0a04 	vldr	s0, [r4, #16]
 800df8a:	ed92 3a04 	vldr	s6, [r2, #16]
 800df8e:	eefe 4a00 	vmov.f32	s9, #224	; 0xe0
 800df92:	ee27 0a00 	vmul.f32	s0, s14, s0
 800df96:	ee26 7a24 	vmul.f32	s14, s12, s9
 800df9a:	eef7 5a00 	vmov.f32	s11, #112	; 0x70
 800df9e:	ee78 5a65 	vsub.f32	s11, s16, s11
 800dfa2:	eef6 7a00 	vmov.f32	s15, #96	; 0x60
 800dfa6:	eea7 0a03 	vfma.f32	s0, s14, s6
 800dfaa:	ee68 7a27 	vmul.f32	s15, s16, s15
 800dfae:	ee28 8a25 	vmul.f32	s16, s16, s11
 800dfb2:	ee25 5a85 	vmul.f32	s10, s11, s10
 800dfb6:	ee67 7aa3 	vmul.f32	s15, s15, s7
 800dfba:	ee28 0a00 	vmul.f32	s0, s16, s0
 800dfbe:	ecbd 8b02 	vpop	{d8}
 800dfc2:	eee5 7a04 	vfma.f32	s15, s10, s8
 800dfc6:	ee66 6a86 	vmul.f32	s13, s13, s12
 800dfca:	eea6 0aa7 	vfma.f32	s0, s13, s15
 800dfce:	bd10      	pop	{r4, pc}
 800dfd0:	eeb0 8a67 	vmov.f32	s16, s15
 800dfd4:	e7a0      	b.n	800df18 <delay_read+0x2c>
 800dfd6:	bf00      	nop
 800dfd8:	44ae4000 	.word	0x44ae4000
 800dfdc:	3e2aaaab 	.word	0x3e2aaaab
 800dfe0:	be2aaaab 	.word	0xbe2aaaab

0800dfe4 <drifter_newSegment>:
drifter_newSegment():
 800dfe4:	b510      	push	{r4, lr}
 800dfe6:	eddf 7a23 	vldr	s15, [pc, #140]	; 800e074 <drifter_newSegment+0x90>
 800dfea:	6a03      	ldr	r3, [r0, #32]
 800dfec:	ed2d 8b04 	vpush	{d8-d9}
 800dff0:	ed90 8a00 	vldr	s16, [r0]
 800dff4:	edd0 8a01 	vldr	s17, [r0, #4]
 800dff8:	61c3      	str	r3, [r0, #28]
 800dffa:	ee87 8a88 	vdiv.f32	s16, s15, s16
 800dffe:	2300      	movs	r3, #0
 800e000:	6183      	str	r3, [r0, #24]
 800e002:	4604      	mov	r4, r0
 800e004:	eec7 8aa8 	vdiv.f32	s17, s15, s17
 800e008:	ed80 8a03 	vstr	s16, [r0, #12]
 800e00c:	edc0 8a04 	vstr	s17, [r0, #16]
 800e010:	f002 f880 	bl	8010114 <rand>
 800e014:	ee07 0a90 	vmov	s15, r0
 800e018:	ed9f 9a17 	vldr	s18, [pc, #92]	; 800e078 <drifter_newSegment+0x94>
 800e01c:	eef8 7ae7 	vcvt.f32.s32	s15, s15
 800e020:	ee78 8ac8 	vsub.f32	s17, s17, s16
 800e024:	ee67 7a89 	vmul.f32	s15, s15, s18
 800e028:	eea7 8aa8 	vfma.f32	s16, s15, s17
 800e02c:	eebc 8ac8 	vcvt.u32.f32	s16, s16
 800e030:	ed84 8a05 	vstr	s16, [r4, #20]
 800e034:	f002 f86e 	bl	8010114 <rand>
 800e038:	ee07 0a90 	vmov	s15, r0
 800e03c:	eeb8 7ae7 	vcvt.f32.s32	s14, s15
 800e040:	eef0 6a00 	vmov.f32	s13, #0
 800e044:	ee27 7a09 	vmul.f32	s14, s14, s18
 800e048:	eeff 7a00 	vmov.f32	s15, #240	; 0xf0
 800e04c:	eee7 7a26 	vfma.f32	s15, s14, s13
 800e050:	ecbd 8b04 	vpop	{d8-d9}
 800e054:	ed94 7a07 	vldr	s14, [r4, #28]
 800e058:	edc4 7a08 	vstr	s15, [r4, #32]
 800e05c:	ee77 7ac7 	vsub.f32	s15, s15, s14
 800e060:	ed94 7a05 	vldr	s14, [r4, #20]
 800e064:	eeb8 7a47 	vcvt.f32.u32	s14, s14
 800e068:	eec7 7a87 	vdiv.f32	s15, s15, s14
 800e06c:	edc4 7a09 	vstr	s15, [r4, #36]	; 0x24
 800e070:	bd10      	pop	{r4, pc}
 800e072:	bf00      	nop
 800e074:	46ac4400 	.word	0x46ac4400
 800e078:	30000000 	.word	0x30000000

0800e07c <mono_chorus_compute>:
mono_chorus_compute():
 800e07c:	edd1 7a02 	vldr	s15, [r1, #8]
 800e080:	edd1 6a01 	vldr	s13, [r1, #4]
 800e084:	ed9f 7a49 	vldr	s14, [pc, #292]	; 800e1ac <mono_chorus_compute+0x130>
 800e088:	eee6 7a87 	vfma.f32	s15, s13, s14
 800e08c:	b570      	push	{r4, r5, r6, lr}
 800e08e:	eef5 7ac0 	vcmpe.f32	s15, #0.0
 800e092:	f500 56af 	add.w	r6, r0, #5600	; 0x15e0
 800e096:	3610      	adds	r6, #16
 800e098:	eef1 fa10 	vmrs	APSR_nzcv, fpscr
 800e09c:	ed2d 8b04 	vpush	{d8-d9}
 800e0a0:	460d      	mov	r5, r1
 800e0a2:	edd6 8a00 	vldr	s17, [r6]
 800e0a6:	edc1 7a02 	vstr	s15, [r1, #8]
 800e0aa:	4604      	mov	r4, r0
 800e0ac:	eeb0 8a40 	vmov.f32	s16, s0
 800e0b0:	d50a      	bpl.n	800e0c8 <mono_chorus_compute+0x4c>
 800e0b2:	ed9f 7a3f 	vldr	s14, [pc, #252]	; 800e1b0 <mono_chorus_compute+0x134>
 800e0b6:	ee77 7a87 	vadd.f32	s15, s15, s14
 800e0ba:	eef5 7ac0 	vcmpe.f32	s15, #0.0
 800e0be:	eef1 fa10 	vmrs	APSR_nzcv, fpscr
 800e0c2:	d4f8      	bmi.n	800e0b6 <mono_chorus_compute+0x3a>
 800e0c4:	edc5 7a02 	vstr	s15, [r5, #8]
 800e0c8:	ed9f 7a39 	vldr	s14, [pc, #228]	; 800e1b0 <mono_chorus_compute+0x134>
 800e0cc:	eef4 7ac7 	vcmpe.f32	s15, s14
 800e0d0:	eef1 fa10 	vmrs	APSR_nzcv, fpscr
 800e0d4:	db08      	blt.n	800e0e8 <mono_chorus_compute+0x6c>
 800e0d6:	ee77 7ac7 	vsub.f32	s15, s15, s14
 800e0da:	eef4 7ac7 	vcmpe.f32	s15, s14
 800e0de:	eef1 fa10 	vmrs	APSR_nzcv, fpscr
 800e0e2:	daf8      	bge.n	800e0d6 <mono_chorus_compute+0x5a>
 800e0e4:	edc5 7a02 	vstr	s15, [r5, #8]
 800e0e8:	ed9f 0a32 	vldr	s0, [pc, #200]	; 800e1b4 <mono_chorus_compute+0x138>
 800e0ec:	ee27 0a80 	vmul.f32	s0, s15, s0
 800e0f0:	f000 f8de 	bl	800e2b0 <lrintf>
 800e0f4:	4b30      	ldr	r3, [pc, #192]	; (800e1b8 <mono_chorus_compute+0x13c>)
 800e0f6:	edd5 6a00 	vldr	s13, [r5]
 800e0fa:	eb03 0080 	add.w	r0, r3, r0, lsl #2
 800e0fe:	ed90 7a00 	vldr	s14, [r0]
 800e102:	eef7 7a00 	vmov.f32	s15, #112	; 0x70
 800e106:	ee77 7a27 	vadd.f32	s15, s14, s15
 800e10a:	eeb1 9a08 	vmov.f32	s18, #24
 800e10e:	ee67 7aa6 	vmul.f32	s15, s15, s13
 800e112:	4620      	mov	r0, r4
 800e114:	ee38 0aa7 	vadd.f32	s0, s17, s15
 800e118:	edc5 7a03 	vstr	s15, [r5, #12]
 800e11c:	ee30 0a09 	vadd.f32	s0, s0, s18
 800e120:	f7ff fee4 	bl	800deec <delay_read>
 800e124:	f241 53f4 	movw	r3, #5620	; 0x15f4
 800e128:	eef0 8a40 	vmov.f32	s17, s0
 800e12c:	56e3      	ldrsb	r3, [r4, r3]
 800e12e:	2b01      	cmp	r3, #1
 800e130:	d035      	beq.n	800e19e <mono_chorus_compute+0x122>
 800e132:	ed96 0a00 	vldr	s0, [r6]
 800e136:	edd4 9a01 	vldr	s19, [r4, #4]
 800e13a:	ee30 0a09 	vadd.f32	s0, s0, s18
 800e13e:	4620      	mov	r0, r4
 800e140:	f7ff fed4 	bl	800deec <delay_read>
 800e144:	eef0 7a48 	vmov.f32	s15, s16
 800e148:	eee9 7a80 	vfma.f32	s15, s19, s0
 800e14c:	eeb7 7a00 	vmov.f32	s14, #112	; 0x70
 800e150:	eef4 7ac7 	vcmpe.f32	s15, s14
 800e154:	eef1 fa10 	vmrs	APSR_nzcv, fpscr
 800e158:	dd17      	ble.n	800e18a <mono_chorus_compute+0x10e>
 800e15a:	eef0 7a47 	vmov.f32	s15, s14
 800e15e:	ed94 0a02 	vldr	s0, [r4, #8]
 800e162:	68e3      	ldr	r3, [r4, #12]
 800e164:	ed94 7a00 	vldr	s14, [r4]
 800e168:	ee28 0a80 	vmul.f32	s0, s17, s0
 800e16c:	ecbd 8b04 	vpop	{d8-d9}
 800e170:	eb04 0283 	add.w	r2, r4, r3, lsl #2
 800e174:	3301      	adds	r3, #1
 800e176:	f5b3 6faf 	cmp.w	r3, #1400	; 0x578
 800e17a:	bfa8      	it	ge
 800e17c:	2300      	movge	r3, #0
 800e17e:	eea7 0a87 	vfma.f32	s0, s15, s14
 800e182:	edc2 7a04 	vstr	s15, [r2, #16]
 800e186:	60e3      	str	r3, [r4, #12]
 800e188:	bd70      	pop	{r4, r5, r6, pc}
 800e18a:	eebf 7a00 	vmov.f32	s14, #240	; 0xf0
 800e18e:	eef4 7a47 	vcmp.f32	s15, s14
 800e192:	eef1 fa10 	vmrs	APSR_nzcv, fpscr
 800e196:	bf48      	it	mi
 800e198:	eef0 7a47 	vmovmi.f32	s15, s14
 800e19c:	e7df      	b.n	800e15e <mono_chorus_compute+0xe2>
 800e19e:	edd4 7a01 	vldr	s15, [r4, #4]
 800e1a2:	eea7 8a80 	vfma.f32	s16, s15, s0
 800e1a6:	eef0 7a48 	vmov.f32	s15, s16
 800e1aa:	e7cf      	b.n	800e14c <mono_chorus_compute+0xd0>
 800e1ac:	39156592 	.word	0x39156592
 800e1b0:	40c90fdb 	.word	0x40c90fdb
 800e1b4:	4322f983 	.word	0x4322f983
 800e1b8:	0801ddc0 	.word	0x0801ddc0

0800e1bc <Reset_Handler>:
Reset_Handler():
 800e1bc:	f8df d034 	ldr.w	sp, [pc, #52]	; 800e1f4 <LoopFillZerobss+0x14>
 800e1c0:	2100      	movs	r1, #0
 800e1c2:	e003      	b.n	800e1cc <LoopCopyDataInit>

0800e1c4 <CopyDataInit>:
 800e1c4:	4b0c      	ldr	r3, [pc, #48]	; (800e1f8 <LoopFillZerobss+0x18>)
 800e1c6:	585b      	ldr	r3, [r3, r1]
 800e1c8:	5043      	str	r3, [r0, r1]
 800e1ca:	3104      	adds	r1, #4

0800e1cc <LoopCopyDataInit>:
 800e1cc:	480b      	ldr	r0, [pc, #44]	; (800e1fc <LoopFillZerobss+0x1c>)
 800e1ce:	4b0c      	ldr	r3, [pc, #48]	; (800e200 <LoopFillZerobss+0x20>)
 800e1d0:	1842      	adds	r2, r0, r1
 800e1d2:	429a      	cmp	r2, r3
 800e1d4:	d3f6      	bcc.n	800e1c4 <CopyDataInit>
 800e1d6:	4a0b      	ldr	r2, [pc, #44]	; (800e204 <LoopFillZerobss+0x24>)
 800e1d8:	e002      	b.n	800e1e0 <LoopFillZerobss>

0800e1da <FillZerobss>:
 800e1da:	2300      	movs	r3, #0
 800e1dc:	f842 3b04 	str.w	r3, [r2], #4

0800e1e0 <LoopFillZerobss>:
 800e1e0:	4b09      	ldr	r3, [pc, #36]	; (800e208 <LoopFillZerobss+0x28>)
 800e1e2:	429a      	cmp	r2, r3
 800e1e4:	d3f9      	bcc.n	800e1da <FillZerobss>
 800e1e6:	f7ff fc93 	bl	800db10 <SystemInit>
 800e1ea:	f001 fc71 	bl	800fad0 <__libc_init_array>
 800e1ee:	f7f2 fd35 	bl	8000c5c <main>
 800e1f2:	4770      	bx	lr
$d():
 800e1f4:	2001ffff 	.word	0x2001ffff
 800e1f8:	0801f29c 	.word	0x0801f29c
 800e1fc:	20000000 	.word	0x20000000
 800e200:	200008b4 	.word	0x200008b4
 800e204:	200008b4 	.word	0x200008b4
 800e208:	2001f7b4 	.word	0x2001f7b4

0800e20c <ADC_IRQHandler>:
RTC_Alarm_IRQHandler():
 800e20c:	e7fe      	b.n	800e20c <ADC_IRQHandler>
	...

0800e210 <fabsf>:
fabsf():
 800e210:	ee10 3a10 	vmov	r3, s0
 800e214:	f023 4300 	bic.w	r3, r3, #2147483648	; 0x80000000
 800e218:	ee00 3a10 	vmov	s0, r3
 800e21c:	4770      	bx	lr
 800e21e:	bf00      	nop

0800e220 <floorf>:
floorf():
 800e220:	ee10 2a10 	vmov	r2, s0
 800e224:	f022 4100 	bic.w	r1, r2, #2147483648	; 0x80000000
 800e228:	0dcb      	lsrs	r3, r1, #23
 800e22a:	3b7f      	subs	r3, #127	; 0x7f
 800e22c:	2b16      	cmp	r3, #22
 800e22e:	dc17      	bgt.n	800e260 <floorf+0x40>
 800e230:	2b00      	cmp	r3, #0
 800e232:	ee10 0a10 	vmov	r0, s0
 800e236:	db19      	blt.n	800e26c <floorf+0x4c>
 800e238:	491a      	ldr	r1, [pc, #104]	; (800e2a4 <floorf+0x84>)
 800e23a:	4119      	asrs	r1, r3
 800e23c:	4211      	tst	r1, r2
 800e23e:	d022      	beq.n	800e286 <floorf+0x66>
 800e240:	eddf 7a19 	vldr	s15, [pc, #100]	; 800e2a8 <floorf+0x88>
 800e244:	ee70 7a27 	vadd.f32	s15, s0, s15
 800e248:	eef5 7ac0 	vcmpe.f32	s15, #0.0
 800e24c:	eef1 fa10 	vmrs	APSR_nzcv, fpscr
 800e250:	dd19      	ble.n	800e286 <floorf+0x66>
 800e252:	2a00      	cmp	r2, #0
 800e254:	db18      	blt.n	800e288 <floorf+0x68>
 800e256:	ea20 0301 	bic.w	r3, r0, r1
 800e25a:	ee00 3a10 	vmov	s0, r3
 800e25e:	4770      	bx	lr
 800e260:	f1b1 4fff 	cmp.w	r1, #2139095040	; 0x7f800000
 800e264:	d30f      	bcc.n	800e286 <floorf+0x66>
 800e266:	ee30 0a00 	vadd.f32	s0, s0, s0
 800e26a:	4770      	bx	lr
 800e26c:	eddf 7a0e 	vldr	s15, [pc, #56]	; 800e2a8 <floorf+0x88>
 800e270:	ee70 7a27 	vadd.f32	s15, s0, s15
 800e274:	eef5 7ac0 	vcmpe.f32	s15, #0.0
 800e278:	eef1 fa10 	vmrs	APSR_nzcv, fpscr
 800e27c:	dd03      	ble.n	800e286 <floorf+0x66>
 800e27e:	2a00      	cmp	r2, #0
 800e280:	db08      	blt.n	800e294 <floorf+0x74>
 800e282:	ed9f 0a0a 	vldr	s0, [pc, #40]	; 800e2ac <floorf+0x8c>
 800e286:	4770      	bx	lr
 800e288:	f44f 0200 	mov.w	r2, #8388608	; 0x800000
 800e28c:	fa42 f303 	asr.w	r3, r2, r3
 800e290:	4418      	add	r0, r3
 800e292:	e7e0      	b.n	800e256 <floorf+0x36>
 800e294:	2900      	cmp	r1, #0
 800e296:	eeff 7a00 	vmov.f32	s15, #240	; 0xf0
 800e29a:	bf18      	it	ne
 800e29c:	eeb0 0a67 	vmovne.f32	s0, s15
 800e2a0:	4770      	bx	lr
 800e2a2:	bf00      	nop
 800e2a4:	007fffff 	.word	0x007fffff
 800e2a8:	7149f2ca 	.word	0x7149f2ca
 800e2ac:	00000000 	.word	0x00000000

0800e2b0 <lrintf>:
lrintf():
 800e2b0:	b084      	sub	sp, #16
 800e2b2:	ed8d 0a01 	vstr	s0, [sp, #4]
 800e2b6:	9b01      	ldr	r3, [sp, #4]
 800e2b8:	f3c3 50c7 	ubfx	r0, r3, #23, #8
 800e2bc:	f1a0 017f 	sub.w	r1, r0, #127	; 0x7f
 800e2c0:	291e      	cmp	r1, #30
 800e2c2:	dc27      	bgt.n	800e314 <lrintf+0x64>
 800e2c4:	1c4a      	adds	r2, r1, #1
 800e2c6:	db22      	blt.n	800e30e <lrintf+0x5e>
 800e2c8:	2916      	cmp	r1, #22
 800e2ca:	ea4f 72d3 	mov.w	r2, r3, lsr #31
 800e2ce:	dd0a      	ble.n	800e2e6 <lrintf+0x36>
 800e2d0:	f3c3 0316 	ubfx	r3, r3, #0, #23
 800e2d4:	f443 0300 	orr.w	r3, r3, #8388608	; 0x800000
 800e2d8:	3896      	subs	r0, #150	; 0x96
 800e2da:	4083      	lsls	r3, r0
 800e2dc:	4250      	negs	r0, r2
 800e2de:	4043      	eors	r3, r0
 800e2e0:	1898      	adds	r0, r3, r2
 800e2e2:	b004      	add	sp, #16
 800e2e4:	4770      	bx	lr
 800e2e6:	4b14      	ldr	r3, [pc, #80]	; (800e338 <lrintf+0x88>)
 800e2e8:	eddd 7a01 	vldr	s15, [sp, #4]
 800e2ec:	eb03 0382 	add.w	r3, r3, r2, lsl #2
 800e2f0:	ed93 7a00 	vldr	s14, [r3]
 800e2f4:	ee77 7a27 	vadd.f32	s15, s14, s15
 800e2f8:	edcd 7a03 	vstr	s15, [sp, #12]
 800e2fc:	eddd 7a03 	vldr	s15, [sp, #12]
 800e300:	ee77 7ac7 	vsub.f32	s15, s15, s14
 800e304:	ee17 1a90 	vmov	r1, s15
 800e308:	f021 4300 	bic.w	r3, r1, #2147483648	; 0x80000000
 800e30c:	b953      	cbnz	r3, 800e324 <lrintf+0x74>
 800e30e:	2000      	movs	r0, #0
 800e310:	b004      	add	sp, #16
 800e312:	4770      	bx	lr
 800e314:	eddd 7a01 	vldr	s15, [sp, #4]
 800e318:	eefd 7ae7 	vcvt.s32.f32	s15, s15
 800e31c:	ee17 0a90 	vmov	r0, s15
 800e320:	b004      	add	sp, #16
 800e322:	4770      	bx	lr
 800e324:	f3c1 0316 	ubfx	r3, r1, #0, #23
 800e328:	f3c1 51c7 	ubfx	r1, r1, #23, #8
 800e32c:	f443 0300 	orr.w	r3, r3, #8388608	; 0x800000
 800e330:	f1c1 0196 	rsb	r1, r1, #150	; 0x96
 800e334:	40cb      	lsrs	r3, r1
 800e336:	e7d1      	b.n	800e2dc <lrintf+0x2c>
 800e338:	0801ee78 	.word	0x0801ee78

0800e33c <rintf>:
rintf():
 800e33c:	b410      	push	{r4}
 800e33e:	b085      	sub	sp, #20
 800e340:	ed8d 0a01 	vstr	s0, [sp, #4]
 800e344:	9a01      	ldr	r2, [sp, #4]
 800e346:	f022 4100 	bic.w	r1, r2, #2147483648	; 0x80000000
 800e34a:	0dcb      	lsrs	r3, r1, #23
 800e34c:	3b7f      	subs	r3, #127	; 0x7f
 800e34e:	2b16      	cmp	r3, #22
 800e350:	dc26      	bgt.n	800e3a0 <rintf+0x64>
 800e352:	b341      	cbz	r1, 800e3a6 <rintf+0x6a>
 800e354:	2b00      	cmp	r3, #0
 800e356:	4611      	mov	r1, r2
 800e358:	ea4f 70d2 	mov.w	r0, r2, lsr #31
 800e35c:	db31      	blt.n	800e3c2 <rintf+0x86>
 800e35e:	4a29      	ldr	r2, [pc, #164]	; (800e404 <rintf+0xc8>)
 800e360:	411a      	asrs	r2, r3
 800e362:	420a      	tst	r2, r1
 800e364:	d01f      	beq.n	800e3a6 <rintf+0x6a>
 800e366:	0852      	lsrs	r2, r2, #1
 800e368:	420a      	tst	r2, r1
 800e36a:	d006      	beq.n	800e37a <rintf+0x3e>
 800e36c:	f44f 1400 	mov.w	r4, #2097152	; 0x200000
 800e370:	ea21 0202 	bic.w	r2, r1, r2
 800e374:	fa44 f103 	asr.w	r1, r4, r3
 800e378:	4311      	orrs	r1, r2
 800e37a:	4b23      	ldr	r3, [pc, #140]	; (800e408 <rintf+0xcc>)
 800e37c:	eb03 0380 	add.w	r3, r3, r0, lsl #2
 800e380:	ed93 0a00 	vldr	s0, [r3]
 800e384:	ee07 1a90 	vmov	s15, r1
 800e388:	ee70 7a27 	vadd.f32	s15, s0, s15
 800e38c:	edcd 7a03 	vstr	s15, [sp, #12]
 800e390:	eddd 7a03 	vldr	s15, [sp, #12]
 800e394:	ee37 0ac0 	vsub.f32	s0, s15, s0
 800e398:	b005      	add	sp, #20
 800e39a:	f85d 4b04 	ldr.w	r4, [sp], #4
 800e39e:	4770      	bx	lr
 800e3a0:	f1b1 4fff 	cmp.w	r1, #2139095040	; 0x7f800000
 800e3a4:	d205      	bcs.n	800e3b2 <rintf+0x76>
 800e3a6:	ed9d 0a01 	vldr	s0, [sp, #4]
 800e3aa:	b005      	add	sp, #20
 800e3ac:	f85d 4b04 	ldr.w	r4, [sp], #4
 800e3b0:	4770      	bx	lr
 800e3b2:	eddd 7a01 	vldr	s15, [sp, #4]
 800e3b6:	ee37 0aa7 	vadd.f32	s0, s15, s15
 800e3ba:	b005      	add	sp, #20
 800e3bc:	f85d 4b04 	ldr.w	r4, [sp], #4
 800e3c0:	4770      	bx	lr
 800e3c2:	f3c2 0316 	ubfx	r3, r2, #0, #23
 800e3c6:	425b      	negs	r3, r3
 800e3c8:	490f      	ldr	r1, [pc, #60]	; (800e408 <rintf+0xcc>)
 800e3ca:	0a5b      	lsrs	r3, r3, #9
 800e3cc:	0d12      	lsrs	r2, r2, #20
 800e3ce:	f403 0380 	and.w	r3, r3, #4194304	; 0x400000
 800e3d2:	0512      	lsls	r2, r2, #20
 800e3d4:	431a      	orrs	r2, r3
 800e3d6:	eb01 0180 	add.w	r1, r1, r0, lsl #2
 800e3da:	edd1 6a00 	vldr	s13, [r1]
 800e3de:	ee07 2a90 	vmov	s15, r2
 800e3e2:	ee36 7aa7 	vadd.f32	s14, s13, s15
 800e3e6:	ed8d 7a03 	vstr	s14, [sp, #12]
 800e3ea:	eddd 7a03 	vldr	s15, [sp, #12]
 800e3ee:	ee77 7ae6 	vsub.f32	s15, s15, s13
 800e3f2:	ee17 3a90 	vmov	r3, s15
 800e3f6:	f023 4300 	bic.w	r3, r3, #2147483648	; 0x80000000
 800e3fa:	ea43 73c0 	orr.w	r3, r3, r0, lsl #31
 800e3fe:	ee00 3a10 	vmov	s0, r3
 800e402:	e7d2      	b.n	800e3aa <rintf+0x6e>
 800e404:	007fffff 	.word	0x007fffff
 800e408:	0801ee80 	.word	0x0801ee80

0800e40c <sinf>:
sinf():
 800e40c:	b500      	push	{lr}
 800e40e:	ee10 3a10 	vmov	r3, s0
 800e412:	4a1b      	ldr	r2, [pc, #108]	; (800e480 <sinf+0x74>)
 800e414:	f023 4300 	bic.w	r3, r3, #2147483648	; 0x80000000
 800e418:	4293      	cmp	r3, r2
 800e41a:	b083      	sub	sp, #12
 800e41c:	dd1a      	ble.n	800e454 <sinf+0x48>
 800e41e:	f1b3 4fff 	cmp.w	r3, #2139095040	; 0x7f800000
 800e422:	db04      	blt.n	800e42e <sinf+0x22>
 800e424:	ee30 0a40 	vsub.f32	s0, s0, s0
 800e428:	b003      	add	sp, #12
 800e42a:	f85d fb04 	ldr.w	pc, [sp], #4
 800e42e:	4668      	mov	r0, sp
 800e430:	f000 fcc4 	bl	800edbc <__ieee754_rem_pio2f>
 800e434:	f000 0003 	and.w	r0, r0, #3
 800e438:	2801      	cmp	r0, #1
 800e43a:	ed9d 0a00 	vldr	s0, [sp]
 800e43e:	eddd 0a01 	vldr	s1, [sp, #4]
 800e442:	d015      	beq.n	800e470 <sinf+0x64>
 800e444:	2802      	cmp	r0, #2
 800e446:	d00d      	beq.n	800e464 <sinf+0x58>
 800e448:	b1a8      	cbz	r0, 800e476 <sinf+0x6a>
 800e44a:	f000 fe51 	bl	800f0f0 <__kernel_cosf>
 800e44e:	eeb1 0a40 	vneg.f32	s0, s0
 800e452:	e7e9      	b.n	800e428 <sinf+0x1c>
 800e454:	eddf 0a0b 	vldr	s1, [pc, #44]	; 800e484 <sinf+0x78>
 800e458:	2000      	movs	r0, #0
 800e45a:	f001 f9bd 	bl	800f7d8 <__kernel_sinf>
 800e45e:	b003      	add	sp, #12
 800e460:	f85d fb04 	ldr.w	pc, [sp], #4
 800e464:	2001      	movs	r0, #1
 800e466:	f001 f9b7 	bl	800f7d8 <__kernel_sinf>
 800e46a:	eeb1 0a40 	vneg.f32	s0, s0
 800e46e:	e7db      	b.n	800e428 <sinf+0x1c>
 800e470:	f000 fe3e 	bl	800f0f0 <__kernel_cosf>
 800e474:	e7d8      	b.n	800e428 <sinf+0x1c>
 800e476:	2001      	movs	r0, #1
 800e478:	f001 f9ae 	bl	800f7d8 <__kernel_sinf>
 800e47c:	e7d4      	b.n	800e428 <sinf+0x1c>
 800e47e:	bf00      	nop
 800e480:	3f490fd8 	.word	0x3f490fd8
 800e484:	00000000 	.word	0x00000000

0800e488 <powf>:
powf():
 800e488:	b5f0      	push	{r4, r5, r6, r7, lr}
 800e48a:	ed2d 8b04 	vpush	{d8-d9}
 800e48e:	4ca7      	ldr	r4, [pc, #668]	; (800e72c <powf+0x2a4>)
 800e490:	b08b      	sub	sp, #44	; 0x2c
 800e492:	eeb0 9a40 	vmov.f32	s18, s0
 800e496:	eef0 8a60 	vmov.f32	s17, s1
 800e49a:	f000 f997 	bl	800e7cc <__ieee754_powf>
 800e49e:	f994 3000 	ldrsb.w	r3, [r4]
 800e4a2:	3301      	adds	r3, #1
 800e4a4:	eeb0 8a40 	vmov.f32	s16, s0
 800e4a8:	d004      	beq.n	800e4b4 <powf+0x2c>
 800e4aa:	eeb0 0a68 	vmov.f32	s0, s17
 800e4ae:	f001 fa79 	bl	800f9a4 <__fpclassifyf>
 800e4b2:	b928      	cbnz	r0, 800e4c0 <powf+0x38>
 800e4b4:	eeb0 0a48 	vmov.f32	s0, s16
 800e4b8:	b00b      	add	sp, #44	; 0x2c
 800e4ba:	ecbd 8b04 	vpop	{d8-d9}
 800e4be:	bdf0      	pop	{r4, r5, r6, r7, pc}
 800e4c0:	eeb0 0a49 	vmov.f32	s0, s18
 800e4c4:	f001 fa6e 	bl	800f9a4 <__fpclassifyf>
 800e4c8:	2800      	cmp	r0, #0
 800e4ca:	d135      	bne.n	800e538 <powf+0xb0>
 800e4cc:	eef5 8a40 	vcmp.f32	s17, #0.0
 800e4d0:	eef1 fa10 	vmrs	APSR_nzcv, fpscr
 800e4d4:	d1ee      	bne.n	800e4b4 <powf+0x2c>
 800e4d6:	4b96      	ldr	r3, [pc, #600]	; (800e730 <powf+0x2a8>)
 800e4d8:	9008      	str	r0, [sp, #32]
 800e4da:	2201      	movs	r2, #1
 800e4dc:	ee19 0a10 	vmov	r0, s18
 800e4e0:	e88d 000c 	stmia.w	sp, {r2, r3}
 800e4e4:	f7f1 ffe2 	bl	80004ac <__aeabi_f2d>
 800e4e8:	e9cd 0102 	strd	r0, r1, [sp, #8]
 800e4ec:	ee18 0a90 	vmov	r0, s17
 800e4f0:	f7f1 ffdc 	bl	80004ac <__aeabi_f2d>
 800e4f4:	f994 3000 	ldrsb.w	r3, [r4]
 800e4f8:	4f8e      	ldr	r7, [pc, #568]	; (800e734 <powf+0x2ac>)
 800e4fa:	2600      	movs	r6, #0
 800e4fc:	1c5a      	adds	r2, r3, #1
 800e4fe:	e9cd 0104 	strd	r0, r1, [sp, #16]
 800e502:	e9cd 6706 	strd	r6, r7, [sp, #24]
 800e506:	d00d      	beq.n	800e524 <powf+0x9c>
 800e508:	2b02      	cmp	r3, #2
 800e50a:	d00b      	beq.n	800e524 <powf+0x9c>
 800e50c:	4668      	mov	r0, sp
 800e50e:	f001 f9ab 	bl	800f868 <matherr>
 800e512:	2800      	cmp	r0, #0
 800e514:	f000 80a4 	beq.w	800e660 <powf+0x1d8>
 800e518:	9b08      	ldr	r3, [sp, #32]
 800e51a:	b11b      	cbz	r3, 800e524 <powf+0x9c>
 800e51c:	f001 ffe4 	bl	80104e8 <____errno_veneer>
 800e520:	9b08      	ldr	r3, [sp, #32]
 800e522:	6003      	str	r3, [r0, #0]
 800e524:	e9dd 0106 	ldrd	r0, r1, [sp, #24]
 800e528:	f7f2 faae 	bl	8000a88 <__aeabi_d2f>
 800e52c:	ee00 0a10 	vmov	s0, r0
 800e530:	b00b      	add	sp, #44	; 0x2c
 800e532:	ecbd 8b04 	vpop	{d8-d9}
 800e536:	bdf0      	pop	{r4, r5, r6, r7, pc}
 800e538:	eeb5 9a40 	vcmp.f32	s18, #0.0
 800e53c:	eef1 fa10 	vmrs	APSR_nzcv, fpscr
 800e540:	d123      	bne.n	800e58a <powf+0x102>
 800e542:	eef5 8a40 	vcmp.f32	s17, #0.0
 800e546:	eef1 fa10 	vmrs	APSR_nzcv, fpscr
 800e54a:	d15c      	bne.n	800e606 <powf+0x17e>
 800e54c:	2301      	movs	r3, #1
 800e54e:	4a78      	ldr	r2, [pc, #480]	; (800e730 <powf+0x2a8>)
 800e550:	9300      	str	r3, [sp, #0]
 800e552:	ee19 0a10 	vmov	r0, s18
 800e556:	2300      	movs	r3, #0
 800e558:	9308      	str	r3, [sp, #32]
 800e55a:	9201      	str	r2, [sp, #4]
 800e55c:	f7f1 ffa6 	bl	80004ac <__aeabi_f2d>
 800e560:	e9cd 0102 	strd	r0, r1, [sp, #8]
 800e564:	ee18 0a90 	vmov	r0, s17
 800e568:	f7f1 ffa0 	bl	80004ac <__aeabi_f2d>
 800e56c:	f994 3000 	ldrsb.w	r3, [r4]
 800e570:	2600      	movs	r6, #0
 800e572:	2700      	movs	r7, #0
 800e574:	e9cd 0104 	strd	r0, r1, [sp, #16]
 800e578:	e9cd 6706 	strd	r6, r7, [sp, #24]
 800e57c:	2b00      	cmp	r3, #0
 800e57e:	d0c5      	beq.n	800e50c <powf+0x84>
 800e580:	4b6c      	ldr	r3, [pc, #432]	; (800e734 <powf+0x2ac>)
 800e582:	2200      	movs	r2, #0
 800e584:	e9cd 2306 	strd	r2, r3, [sp, #24]
 800e588:	e7cc      	b.n	800e524 <powf+0x9c>
 800e58a:	eeb0 0a48 	vmov.f32	s0, s16
 800e58e:	f001 f9ff 	bl	800f990 <finitef>
 800e592:	4605      	mov	r5, r0
 800e594:	2800      	cmp	r0, #0
 800e596:	d068      	beq.n	800e66a <powf+0x1e2>
 800e598:	eeb5 8a40 	vcmp.f32	s16, #0.0
 800e59c:	eef1 fa10 	vmrs	APSR_nzcv, fpscr
 800e5a0:	d188      	bne.n	800e4b4 <powf+0x2c>
 800e5a2:	eeb0 0a49 	vmov.f32	s0, s18
 800e5a6:	f001 f9f3 	bl	800f990 <finitef>
 800e5aa:	2800      	cmp	r0, #0
 800e5ac:	d082      	beq.n	800e4b4 <powf+0x2c>
 800e5ae:	eeb0 0a68 	vmov.f32	s0, s17
 800e5b2:	f001 f9ed 	bl	800f990 <finitef>
 800e5b6:	2800      	cmp	r0, #0
 800e5b8:	f43f af7c 	beq.w	800e4b4 <powf+0x2c>
 800e5bc:	2304      	movs	r3, #4
 800e5be:	4a5c      	ldr	r2, [pc, #368]	; (800e730 <powf+0x2a8>)
 800e5c0:	9300      	str	r3, [sp, #0]
 800e5c2:	ee19 0a10 	vmov	r0, s18
 800e5c6:	2300      	movs	r3, #0
 800e5c8:	9308      	str	r3, [sp, #32]
 800e5ca:	9201      	str	r2, [sp, #4]
 800e5cc:	f7f1 ff6e 	bl	80004ac <__aeabi_f2d>
 800e5d0:	e9cd 0102 	strd	r0, r1, [sp, #8]
 800e5d4:	ee18 0a90 	vmov	r0, s17
 800e5d8:	f7f1 ff68 	bl	80004ac <__aeabi_f2d>
 800e5dc:	f994 3000 	ldrsb.w	r3, [r4]
 800e5e0:	2600      	movs	r6, #0
 800e5e2:	2700      	movs	r7, #0
 800e5e4:	2b02      	cmp	r3, #2
 800e5e6:	e9cd 0104 	strd	r0, r1, [sp, #16]
 800e5ea:	e9cd 6706 	strd	r6, r7, [sp, #24]
 800e5ee:	f000 8098 	beq.w	800e722 <powf+0x29a>
 800e5f2:	4668      	mov	r0, sp
 800e5f4:	f001 f938 	bl	800f868 <matherr>
 800e5f8:	2800      	cmp	r0, #0
 800e5fa:	f000 8092 	beq.w	800e722 <powf+0x29a>
 800e5fe:	9b08      	ldr	r3, [sp, #32]
 800e600:	2b00      	cmp	r3, #0
 800e602:	d08f      	beq.n	800e524 <powf+0x9c>
 800e604:	e78a      	b.n	800e51c <powf+0x94>
 800e606:	eeb0 0a68 	vmov.f32	s0, s17
 800e60a:	f001 f9c1 	bl	800f990 <finitef>
 800e60e:	2800      	cmp	r0, #0
 800e610:	f43f af50 	beq.w	800e4b4 <powf+0x2c>
 800e614:	eef5 8ac0 	vcmpe.f32	s17, #0.0
 800e618:	eef1 fa10 	vmrs	APSR_nzcv, fpscr
 800e61c:	f57f af4a 	bpl.w	800e4b4 <powf+0x2c>
 800e620:	2301      	movs	r3, #1
 800e622:	4a43      	ldr	r2, [pc, #268]	; (800e730 <powf+0x2a8>)
 800e624:	9300      	str	r3, [sp, #0]
 800e626:	ee19 0a10 	vmov	r0, s18
 800e62a:	2300      	movs	r3, #0
 800e62c:	9308      	str	r3, [sp, #32]
 800e62e:	9201      	str	r2, [sp, #4]
 800e630:	f7f1 ff3c 	bl	80004ac <__aeabi_f2d>
 800e634:	e9cd 0102 	strd	r0, r1, [sp, #8]
 800e638:	ee18 0a90 	vmov	r0, s17
 800e63c:	f7f1 ff36 	bl	80004ac <__aeabi_f2d>
 800e640:	7823      	ldrb	r3, [r4, #0]
 800e642:	e9cd 0104 	strd	r0, r1, [sp, #16]
 800e646:	2b00      	cmp	r3, #0
 800e648:	d043      	beq.n	800e6d2 <powf+0x24a>
 800e64a:	493b      	ldr	r1, [pc, #236]	; (800e738 <powf+0x2b0>)
 800e64c:	2000      	movs	r0, #0
 800e64e:	2b02      	cmp	r3, #2
 800e650:	e9cd 0106 	strd	r0, r1, [sp, #24]
 800e654:	d137      	bne.n	800e6c6 <powf+0x23e>
 800e656:	f001 ff47 	bl	80104e8 <____errno_veneer>
 800e65a:	2321      	movs	r3, #33	; 0x21
 800e65c:	6003      	str	r3, [r0, #0]
 800e65e:	e7ce      	b.n	800e5fe <powf+0x176>
 800e660:	f001 ff42 	bl	80104e8 <____errno_veneer>
 800e664:	2321      	movs	r3, #33	; 0x21
 800e666:	6003      	str	r3, [r0, #0]
 800e668:	e756      	b.n	800e518 <powf+0x90>
 800e66a:	eeb0 0a49 	vmov.f32	s0, s18
 800e66e:	f001 f98f 	bl	800f990 <finitef>
 800e672:	2800      	cmp	r0, #0
 800e674:	d090      	beq.n	800e598 <powf+0x110>
 800e676:	eeb0 0a68 	vmov.f32	s0, s17
 800e67a:	f001 f989 	bl	800f990 <finitef>
 800e67e:	2800      	cmp	r0, #0
 800e680:	d08a      	beq.n	800e598 <powf+0x110>
 800e682:	eeb0 0a48 	vmov.f32	s0, s16
 800e686:	f001 f98d 	bl	800f9a4 <__fpclassifyf>
 800e68a:	bb38      	cbnz	r0, 800e6dc <powf+0x254>
 800e68c:	4b28      	ldr	r3, [pc, #160]	; (800e730 <powf+0x2a8>)
 800e68e:	9008      	str	r0, [sp, #32]
 800e690:	2201      	movs	r2, #1
 800e692:	ee19 0a10 	vmov	r0, s18
 800e696:	e88d 000c 	stmia.w	sp, {r2, r3}
 800e69a:	f7f1 ff07 	bl	80004ac <__aeabi_f2d>
 800e69e:	e9cd 0102 	strd	r0, r1, [sp, #8]
 800e6a2:	ee18 0a90 	vmov	r0, s17
 800e6a6:	f7f1 ff01 	bl	80004ac <__aeabi_f2d>
 800e6aa:	7824      	ldrb	r4, [r4, #0]
 800e6ac:	e9cd 0104 	strd	r0, r1, [sp, #16]
 800e6b0:	b17c      	cbz	r4, 800e6d2 <powf+0x24a>
 800e6b2:	2000      	movs	r0, #0
 800e6b4:	2100      	movs	r1, #0
 800e6b6:	4602      	mov	r2, r0
 800e6b8:	460b      	mov	r3, r1
 800e6ba:	f7f2 f875 	bl	80007a8 <__aeabi_ddiv>
 800e6be:	2c02      	cmp	r4, #2
 800e6c0:	e9cd 0106 	strd	r0, r1, [sp, #24]
 800e6c4:	d0c7      	beq.n	800e656 <powf+0x1ce>
 800e6c6:	4668      	mov	r0, sp
 800e6c8:	f001 f8ce 	bl	800f868 <matherr>
 800e6cc:	2800      	cmp	r0, #0
 800e6ce:	d196      	bne.n	800e5fe <powf+0x176>
 800e6d0:	e7c1      	b.n	800e656 <powf+0x1ce>
 800e6d2:	2200      	movs	r2, #0
 800e6d4:	2300      	movs	r3, #0
 800e6d6:	e9cd 2306 	strd	r2, r3, [sp, #24]
 800e6da:	e7f4      	b.n	800e6c6 <powf+0x23e>
 800e6dc:	4b14      	ldr	r3, [pc, #80]	; (800e730 <powf+0x2a8>)
 800e6de:	9508      	str	r5, [sp, #32]
 800e6e0:	2203      	movs	r2, #3
 800e6e2:	ee19 0a10 	vmov	r0, s18
 800e6e6:	e88d 000c 	stmia.w	sp, {r2, r3}
 800e6ea:	f7f1 fedf 	bl	80004ac <__aeabi_f2d>
 800e6ee:	e9cd 0102 	strd	r0, r1, [sp, #8]
 800e6f2:	ee18 0a90 	vmov	r0, s17
 800e6f6:	f7f1 fed9 	bl	80004ac <__aeabi_f2d>
 800e6fa:	f994 3000 	ldrsb.w	r3, [r4]
 800e6fe:	e9cd 0104 	strd	r0, r1, [sp, #16]
 800e702:	b9eb      	cbnz	r3, 800e740 <powf+0x2b8>
 800e704:	4b0d      	ldr	r3, [pc, #52]	; (800e73c <powf+0x2b4>)
 800e706:	eeb5 9ac0 	vcmpe.f32	s18, #0.0
 800e70a:	f04f 4260 	mov.w	r2, #3758096384	; 0xe0000000
 800e70e:	eef1 fa10 	vmrs	APSR_nzcv, fpscr
 800e712:	e9cd 2306 	strd	r2, r3, [sp, #24]
 800e716:	d437      	bmi.n	800e788 <powf+0x300>
 800e718:	f994 3000 	ldrsb.w	r3, [r4]
 800e71c:	2b02      	cmp	r3, #2
 800e71e:	f47f af68 	bne.w	800e5f2 <powf+0x16a>
 800e722:	f001 fee1 	bl	80104e8 <____errno_veneer>
 800e726:	2322      	movs	r3, #34	; 0x22
 800e728:	6003      	str	r3, [r0, #0]
 800e72a:	e768      	b.n	800e5fe <powf+0x176>
 800e72c:	20000074 	.word	0x20000074
 800e730:	0801ee88 	.word	0x0801ee88
 800e734:	3ff00000 	.word	0x3ff00000
 800e738:	fff00000 	.word	0xfff00000
 800e73c:	47efffff 	.word	0x47efffff
 800e740:	4b1f      	ldr	r3, [pc, #124]	; (800e7c0 <powf+0x338>)
 800e742:	eeb5 9ac0 	vcmpe.f32	s18, #0.0
 800e746:	2200      	movs	r2, #0
 800e748:	eef1 fa10 	vmrs	APSR_nzcv, fpscr
 800e74c:	e9cd 2306 	strd	r2, r3, [sp, #24]
 800e750:	d5e2      	bpl.n	800e718 <powf+0x290>
 800e752:	eef6 7a00 	vmov.f32	s15, #96	; 0x60
 800e756:	ee68 7aa7 	vmul.f32	s15, s17, s15
 800e75a:	ee17 0a90 	vmov	r0, s15
 800e75e:	f7f1 fea5 	bl	80004ac <__aeabi_f2d>
 800e762:	4606      	mov	r6, r0
 800e764:	460f      	mov	r7, r1
 800e766:	ec47 6b10 	vmov	d0, r6, r7
 800e76a:	f001 f87f 	bl	800f86c <rint>
 800e76e:	4630      	mov	r0, r6
 800e770:	4639      	mov	r1, r7
 800e772:	ec53 2b10 	vmov	r2, r3, d0
 800e776:	f7f2 f955 	bl	8000a24 <__aeabi_dcmpeq>
 800e77a:	2800      	cmp	r0, #0
 800e77c:	d1cc      	bne.n	800e718 <powf+0x290>
 800e77e:	4b11      	ldr	r3, [pc, #68]	; (800e7c4 <powf+0x33c>)
 800e780:	2200      	movs	r2, #0
 800e782:	e9cd 2306 	strd	r2, r3, [sp, #24]
 800e786:	e7c7      	b.n	800e718 <powf+0x290>
 800e788:	eef6 7a00 	vmov.f32	s15, #96	; 0x60
 800e78c:	ee68 7aa7 	vmul.f32	s15, s17, s15
 800e790:	ee17 0a90 	vmov	r0, s15
 800e794:	f7f1 fe8a 	bl	80004ac <__aeabi_f2d>
 800e798:	4606      	mov	r6, r0
 800e79a:	460f      	mov	r7, r1
 800e79c:	ec47 6b10 	vmov	d0, r6, r7
 800e7a0:	f001 f864 	bl	800f86c <rint>
 800e7a4:	4630      	mov	r0, r6
 800e7a6:	4639      	mov	r1, r7
 800e7a8:	ec53 2b10 	vmov	r2, r3, d0
 800e7ac:	f7f2 f93a 	bl	8000a24 <__aeabi_dcmpeq>
 800e7b0:	2800      	cmp	r0, #0
 800e7b2:	d1b1      	bne.n	800e718 <powf+0x290>
 800e7b4:	4b04      	ldr	r3, [pc, #16]	; (800e7c8 <powf+0x340>)
 800e7b6:	f04f 4260 	mov.w	r2, #3758096384	; 0xe0000000
 800e7ba:	e9cd 2306 	strd	r2, r3, [sp, #24]
 800e7be:	e7ab      	b.n	800e718 <powf+0x290>
 800e7c0:	7ff00000 	.word	0x7ff00000
 800e7c4:	fff00000 	.word	0xfff00000
 800e7c8:	c7efffff 	.word	0xc7efffff

0800e7cc <__ieee754_powf>:
__ieee754_powf():
 800e7cc:	e92d 43f0 	stmdb	sp!, {r4, r5, r6, r7, r8, r9, lr}
 800e7d0:	ed2d 8b02 	vpush	{d8}
 800e7d4:	ee10 5a90 	vmov	r5, s1
 800e7d8:	b083      	sub	sp, #12
 800e7da:	f035 4600 	bics.w	r6, r5, #2147483648	; 0x80000000
 800e7de:	ee10 4a90 	vmov	r4, s1
 800e7e2:	ed8d 0a01 	vstr	s0, [sp, #4]
 800e7e6:	d014      	beq.n	800e812 <__ieee754_powf+0x46>
 800e7e8:	f8dd 8004 	ldr.w	r8, [sp, #4]
 800e7ec:	f028 4700 	bic.w	r7, r8, #2147483648	; 0x80000000
 800e7f0:	f1b7 4fff 	cmp.w	r7, #2139095040	; 0x7f800000
 800e7f4:	dd07      	ble.n	800e806 <__ieee754_powf+0x3a>
 800e7f6:	4857      	ldr	r0, [pc, #348]	; (800e954 <__ieee754_powf+0x188>)
 800e7f8:	b003      	add	sp, #12
 800e7fa:	ecbd 8b02 	vpop	{d8}
 800e7fe:	e8bd 43f0 	ldmia.w	sp!, {r4, r5, r6, r7, r8, r9, lr}
 800e802:	f001 b8eb 	b.w	800f9dc <nanf>
 800e806:	f1b6 4fff 	cmp.w	r6, #2139095040	; 0x7f800000
 800e80a:	dd09      	ble.n	800e820 <__ieee754_powf+0x54>
 800e80c:	f1b7 5f7e 	cmp.w	r7, #1065353216	; 0x3f800000
 800e810:	d1f1      	bne.n	800e7f6 <__ieee754_powf+0x2a>
 800e812:	eeb7 0a00 	vmov.f32	s0, #112	; 0x70
 800e816:	b003      	add	sp, #12
 800e818:	ecbd 8b02 	vpop	{d8}
 800e81c:	e8bd 83f0 	ldmia.w	sp!, {r4, r5, r6, r7, r8, r9, pc}
 800e820:	f1b8 0f00 	cmp.w	r8, #0
 800e824:	db52      	blt.n	800e8cc <__ieee754_powf+0x100>
 800e826:	f04f 0900 	mov.w	r9, #0
 800e82a:	f1b6 4fff 	cmp.w	r6, #2139095040	; 0x7f800000
 800e82e:	d044      	beq.n	800e8ba <__ieee754_powf+0xee>
 800e830:	f1b6 5f7e 	cmp.w	r6, #1065353216	; 0x3f800000
 800e834:	d05d      	beq.n	800e8f2 <__ieee754_powf+0x126>
 800e836:	f1b4 4f80 	cmp.w	r4, #1073741824	; 0x40000000
 800e83a:	d069      	beq.n	800e910 <__ieee754_powf+0x144>
 800e83c:	f1b4 5f7c 	cmp.w	r4, #1056964608	; 0x3f000000
 800e840:	ed9d 0a01 	vldr	s0, [sp, #4]
 800e844:	d01b      	beq.n	800e87e <__ieee754_powf+0xb2>
 800e846:	f7ff fce3 	bl	800e210 <fabsf>
 800e84a:	f1b7 4fff 	cmp.w	r7, #2139095040	; 0x7f800000
 800e84e:	d02a      	beq.n	800e8a6 <__ieee754_powf+0xda>
 800e850:	b34f      	cbz	r7, 800e8a6 <__ieee754_powf+0xda>
 800e852:	f1b7 5f7e 	cmp.w	r7, #1065353216	; 0x3f800000
 800e856:	d026      	beq.n	800e8a6 <__ieee754_powf+0xda>
 800e858:	ea4f 73d8 	mov.w	r3, r8, lsr #31
 800e85c:	3b01      	subs	r3, #1
 800e85e:	ea59 0203 	orrs.w	r2, r9, r3
 800e862:	d06f      	beq.n	800e944 <__ieee754_powf+0x178>
 800e864:	f1b6 4f9a 	cmp.w	r6, #1291845632	; 0x4d000000
 800e868:	dd7c      	ble.n	800e964 <__ieee754_powf+0x198>
 800e86a:	4a3b      	ldr	r2, [pc, #236]	; (800e958 <__ieee754_powf+0x18c>)
 800e86c:	4297      	cmp	r7, r2
 800e86e:	f300 81db 	bgt.w	800ec28 <__ieee754_powf+0x45c>
 800e872:	2c00      	cmp	r4, #0
 800e874:	f2c0 81de 	blt.w	800ec34 <__ieee754_powf+0x468>
 800e878:	ed9f 0a38 	vldr	s0, [pc, #224]	; 800e95c <__ieee754_powf+0x190>
 800e87c:	e7cb      	b.n	800e816 <__ieee754_powf+0x4a>
 800e87e:	f1b8 0f00 	cmp.w	r8, #0
 800e882:	da4a      	bge.n	800e91a <__ieee754_powf+0x14e>
 800e884:	f7ff fcc4 	bl	800e210 <fabsf>
 800e888:	f1b7 4fff 	cmp.w	r7, #2139095040	; 0x7f800000
 800e88c:	d001      	beq.n	800e892 <__ieee754_powf+0xc6>
 800e88e:	2f00      	cmp	r7, #0
 800e890:	d1df      	bne.n	800e852 <__ieee754_powf+0x86>
 800e892:	f1a7 577e 	sub.w	r7, r7, #1065353216	; 0x3f800000
 800e896:	ea59 0307 	orrs.w	r3, r9, r7
 800e89a:	d14c      	bne.n	800e936 <__ieee754_powf+0x16a>
 800e89c:	ee30 0a40 	vsub.f32	s0, s0, s0
 800e8a0:	ee80 0a00 	vdiv.f32	s0, s0, s0
 800e8a4:	e7b7      	b.n	800e816 <__ieee754_powf+0x4a>
 800e8a6:	2c00      	cmp	r4, #0
 800e8a8:	bfbc      	itt	lt
 800e8aa:	eef7 7a00 	vmovlt.f32	s15, #112	; 0x70
 800e8ae:	ee87 0a80 	vdivlt.f32	s0, s15, s0
 800e8b2:	f1b8 0f00 	cmp.w	r8, #0
 800e8b6:	daae      	bge.n	800e816 <__ieee754_powf+0x4a>
 800e8b8:	e7eb      	b.n	800e892 <__ieee754_powf+0xc6>
 800e8ba:	f1b7 5f7e 	cmp.w	r7, #1065353216	; 0x3f800000
 800e8be:	d0a8      	beq.n	800e812 <__ieee754_powf+0x46>
 800e8c0:	dd1f      	ble.n	800e902 <__ieee754_powf+0x136>
 800e8c2:	2c00      	cmp	r4, #0
 800e8c4:	dbd8      	blt.n	800e878 <__ieee754_powf+0xac>
 800e8c6:	ee00 5a10 	vmov	s0, r5
 800e8ca:	e7a4      	b.n	800e816 <__ieee754_powf+0x4a>
 800e8cc:	f1b6 4f97 	cmp.w	r6, #1266679808	; 0x4b800000
 800e8d0:	da14      	bge.n	800e8fc <__ieee754_powf+0x130>
 800e8d2:	f1b6 5f7e 	cmp.w	r6, #1065353216	; 0x3f800000
 800e8d6:	db09      	blt.n	800e8ec <__ieee754_powf+0x120>
 800e8d8:	15f3      	asrs	r3, r6, #23
 800e8da:	f1c3 0396 	rsb	r3, r3, #150	; 0x96
 800e8de:	fa46 f203 	asr.w	r2, r6, r3
 800e8e2:	fa02 f303 	lsl.w	r3, r2, r3
 800e8e6:	42b3      	cmp	r3, r6
 800e8e8:	f000 8194 	beq.w	800ec14 <__ieee754_powf+0x448>
 800e8ec:	f04f 0900 	mov.w	r9, #0
 800e8f0:	e79e      	b.n	800e830 <__ieee754_powf+0x64>
 800e8f2:	2c00      	cmp	r4, #0
 800e8f4:	db18      	blt.n	800e928 <__ieee754_powf+0x15c>
 800e8f6:	ed9d 0a01 	vldr	s0, [sp, #4]
 800e8fa:	e78c      	b.n	800e816 <__ieee754_powf+0x4a>
 800e8fc:	f04f 0902 	mov.w	r9, #2
 800e900:	e793      	b.n	800e82a <__ieee754_powf+0x5e>
 800e902:	2c00      	cmp	r4, #0
 800e904:	dab8      	bge.n	800e878 <__ieee754_powf+0xac>
 800e906:	ee07 5a90 	vmov	s15, r5
 800e90a:	eeb1 0a67 	vneg.f32	s0, s15
 800e90e:	e782      	b.n	800e816 <__ieee754_powf+0x4a>
 800e910:	eddd 7a01 	vldr	s15, [sp, #4]
 800e914:	ee27 0aa7 	vmul.f32	s0, s15, s15
 800e918:	e77d      	b.n	800e816 <__ieee754_powf+0x4a>
 800e91a:	b003      	add	sp, #12
 800e91c:	ecbd 8b02 	vpop	{d8}
 800e920:	e8bd 43f0 	ldmia.w	sp!, {r4, r5, r6, r7, r8, r9, lr}
 800e924:	f000 bb92 	b.w	800f04c <__ieee754_sqrtf>
 800e928:	eddd 7a01 	vldr	s15, [sp, #4]
 800e92c:	eeb7 0a00 	vmov.f32	s0, #112	; 0x70
 800e930:	ee80 0a27 	vdiv.f32	s0, s0, s15
 800e934:	e76f      	b.n	800e816 <__ieee754_powf+0x4a>
 800e936:	f1b9 0f01 	cmp.w	r9, #1
 800e93a:	f47f af6c 	bne.w	800e816 <__ieee754_powf+0x4a>
 800e93e:	eeb1 0a40 	vneg.f32	s0, s0
 800e942:	e768      	b.n	800e816 <__ieee754_powf+0x4a>
 800e944:	eddd 7a01 	vldr	s15, [sp, #4]
 800e948:	ee37 0ae7 	vsub.f32	s0, s15, s15
 800e94c:	ee80 0a00 	vdiv.f32	s0, s0, s0
 800e950:	e761      	b.n	800e816 <__ieee754_powf+0x4a>
 800e952:	bf00      	nop
 800e954:	08010504 	.word	0x08010504
 800e958:	3f7ffff7 	.word	0x3f7ffff7
 800e95c:	00000000 	.word	0x00000000
 800e960:	4b800000 	.word	0x4b800000
 800e964:	f5b7 0f00 	cmp.w	r7, #8388608	; 0x800000
 800e968:	f280 815c 	bge.w	800ec24 <__ieee754_powf+0x458>
 800e96c:	ed5f 7a04 	vldr	s15, [pc, #-16]	; 800e960 <__ieee754_powf+0x194>
 800e970:	ee60 7a27 	vmul.f32	s15, s0, s15
 800e974:	f06f 0117 	mvn.w	r1, #23
 800e978:	ee17 7a90 	vmov	r7, s15
 800e97c:	48f0      	ldr	r0, [pc, #960]	; (800ed40 <__ieee754_powf+0x574>)
 800e97e:	15fa      	asrs	r2, r7, #23
 800e980:	f3c7 0716 	ubfx	r7, r7, #0, #23
 800e984:	3a7f      	subs	r2, #127	; 0x7f
 800e986:	4287      	cmp	r7, r0
 800e988:	4411      	add	r1, r2
 800e98a:	f047 527e 	orr.w	r2, r7, #1065353216	; 0x3f800000
 800e98e:	f340 8146 	ble.w	800ec1e <__ieee754_powf+0x452>
 800e992:	48ec      	ldr	r0, [pc, #944]	; (800ed44 <__ieee754_powf+0x578>)
 800e994:	4287      	cmp	r7, r0
 800e996:	f340 819b 	ble.w	800ecd0 <__ieee754_powf+0x504>
 800e99a:	2600      	movs	r6, #0
 800e99c:	3101      	adds	r1, #1
 800e99e:	f5a2 0200 	sub.w	r2, r2, #8388608	; 0x800000
 800e9a2:	4630      	mov	r0, r6
 800e9a4:	f8df c40c 	ldr.w	ip, [pc, #1036]	; 800edb4 <__ieee754_powf+0x5e8>
 800e9a8:	ed9f 2ae7 	vldr	s4, [pc, #924]	; 800ed48 <__ieee754_powf+0x57c>
 800e9ac:	ed9f 8ae7 	vldr	s16, [pc, #924]	; 800ed4c <__ieee754_powf+0x580>
 800e9b0:	ed9f 0ae7 	vldr	s0, [pc, #924]	; 800ed50 <__ieee754_powf+0x584>
 800e9b4:	eddf 0ae7 	vldr	s1, [pc, #924]	; 800ed54 <__ieee754_powf+0x588>
 800e9b8:	ed9f 1ae7 	vldr	s2, [pc, #924]	; 800ed58 <__ieee754_powf+0x58c>
 800e9bc:	eddf 1ae7 	vldr	s3, [pc, #924]	; 800ed5c <__ieee754_powf+0x590>
 800e9c0:	4fe7      	ldr	r7, [pc, #924]	; (800ed60 <__ieee754_powf+0x594>)
 800e9c2:	eddf 7ae8 	vldr	s15, [pc, #928]	; 800ed64 <__ieee754_powf+0x598>
 800e9c6:	eddf 2ae8 	vldr	s5, [pc, #928]	; 800ed68 <__ieee754_powf+0x59c>
 800e9ca:	ed9f 4ae8 	vldr	s8, [pc, #928]	; 800ed6c <__ieee754_powf+0x5a0>
 800e9ce:	f8df e3e8 	ldr.w	lr, [pc, #1000]	; 800edb8 <__ieee754_powf+0x5ec>
 800e9d2:	0080      	lsls	r0, r0, #2
 800e9d4:	4484      	add	ip, r0
 800e9d6:	ee07 2a10 	vmov	s14, r2
 800e9da:	eddc 6a00 	vldr	s13, [ip]
 800e9de:	ee77 5a26 	vadd.f32	s11, s14, s13
 800e9e2:	eeb7 6a00 	vmov.f32	s12, #112	; 0x70
 800e9e6:	eec6 5a25 	vdiv.f32	s11, s12, s11
 800e9ea:	1052      	asrs	r2, r2, #1
 800e9ec:	f042 5200 	orr.w	r2, r2, #536870912	; 0x20000000
 800e9f0:	f502 2280 	add.w	r2, r2, #262144	; 0x40000
 800e9f4:	4432      	add	r2, r6
 800e9f6:	ee37 6a66 	vsub.f32	s12, s14, s13
 800e9fa:	ee04 2a90 	vmov	s9, r2
 800e9fe:	ee26 3a25 	vmul.f32	s6, s12, s11
 800ea02:	ee74 6ae6 	vsub.f32	s13, s9, s13
 800ea06:	ee23 5a03 	vmul.f32	s10, s6, s6
 800ea0a:	ee37 7a66 	vsub.f32	s14, s14, s13
 800ea0e:	eef0 6a42 	vmov.f32	s13, s4
 800ea12:	eee5 6a08 	vfma.f32	s13, s10, s16
 800ea16:	183a      	adds	r2, r7, r0
 800ea18:	4470      	add	r0, lr
 800ea1a:	ee13 6a10 	vmov	r6, s6
 800ea1e:	f426 667f 	bic.w	r6, r6, #4080	; 0xff0
 800ea22:	eea6 0a85 	vfma.f32	s0, s13, s10
 800ea26:	f026 060f 	bic.w	r6, r6, #15
 800ea2a:	ee03 6a90 	vmov	s7, r6
 800ea2e:	eeb1 2a63 	vneg.f32	s4, s7
 800ea32:	eea2 6a24 	vfma.f32	s12, s4, s9
 800ea36:	eee0 0a05 	vfma.f32	s1, s0, s10
 800ea3a:	eea2 6a07 	vfma.f32	s12, s4, s14
 800ea3e:	eea0 1a85 	vfma.f32	s2, s1, s10
 800ea42:	ee66 5a25 	vmul.f32	s11, s12, s11
 800ea46:	eee1 1a05 	vfma.f32	s3, s2, s10
 800ea4a:	ee33 7a23 	vadd.f32	s14, s6, s7
 800ea4e:	ee25 5a05 	vmul.f32	s10, s10, s10
 800ea52:	ee27 7a25 	vmul.f32	s14, s14, s11
 800ea56:	eef0 4a08 	vmov.f32	s9, #8
 800ea5a:	eeb0 6a64 	vmov.f32	s12, s9
 800ea5e:	eea5 7a21 	vfma.f32	s14, s10, s3
 800ea62:	eea3 6aa3 	vfma.f32	s12, s7, s7
 800ea66:	edd2 1a00 	vldr	s3, [r2]
 800ea6a:	ed90 5a00 	vldr	s10, [r0]
 800ea6e:	ee36 6a07 	vadd.f32	s12, s12, s14
 800ea72:	ee06 1a90 	vmov	s13, r1
 800ea76:	ee16 2a10 	vmov	r2, s12
 800ea7a:	f422 627f 	bic.w	r2, r2, #4080	; 0xff0
 800ea7e:	f022 020f 	bic.w	r2, r2, #15
 800ea82:	ee06 2a10 	vmov	s12, r2
 800ea86:	ee76 4a64 	vsub.f32	s9, s12, s9
 800ea8a:	eef8 6ae6 	vcvt.f32.s32	s13, s13
 800ea8e:	eee2 4a23 	vfma.f32	s9, s4, s7
 800ea92:	ee37 7a64 	vsub.f32	s14, s14, s9
 800ea96:	ee27 7a03 	vmul.f32	s14, s14, s6
 800ea9a:	eea5 7a86 	vfma.f32	s14, s11, s12
 800ea9e:	eef0 5a47 	vmov.f32	s11, s14
 800eaa2:	eee3 5a86 	vfma.f32	s11, s7, s12
 800eaa6:	ee15 2a90 	vmov	r2, s11
 800eaaa:	f422 627f 	bic.w	r2, r2, #4080	; 0xff0
 800eaae:	f022 020f 	bic.w	r2, r2, #15
 800eab2:	ee04 2a90 	vmov	s9, r2
 800eab6:	eee2 4a06 	vfma.f32	s9, s4, s12
 800eaba:	ee05 2a90 	vmov	s11, r2
 800eabe:	ee37 7a64 	vsub.f32	s14, s14, s9
 800eac2:	ee67 7a27 	vmul.f32	s15, s14, s15
 800eac6:	eee5 7aa2 	vfma.f32	s15, s11, s5
 800eaca:	ee77 7aa1 	vadd.f32	s15, s15, s3
 800eace:	eeb0 7a67 	vmov.f32	s14, s15
 800ead2:	eea5 7a84 	vfma.f32	s14, s11, s8
 800ead6:	ee37 7a05 	vadd.f32	s14, s14, s10
 800eada:	ee37 7a26 	vadd.f32	s14, s14, s13
 800eade:	ee17 2a10 	vmov	r2, s14
 800eae2:	f422 627f 	bic.w	r2, r2, #4080	; 0xff0
 800eae6:	f022 020f 	bic.w	r2, r2, #15
 800eaea:	ee07 2a10 	vmov	s14, r2
 800eaee:	ee77 6a66 	vsub.f32	s13, s14, s13
 800eaf2:	ee36 7ac5 	vsub.f32	s14, s13, s10
 800eaf6:	eea5 7ac4 	vfms.f32	s14, s11, s8
 800eafa:	ee77 7ac7 	vsub.f32	s15, s15, s14
 800eafe:	f424 647f 	bic.w	r4, r4, #4080	; 0xff0
 800eb02:	f024 040f 	bic.w	r4, r4, #15
 800eb06:	ee07 5a10 	vmov	s14, r5
 800eb0a:	ee06 4a90 	vmov	s13, r4
 800eb0e:	ee67 7a27 	vmul.f32	s15, s14, s15
 800eb12:	ee77 6a66 	vsub.f32	s13, s14, s13
 800eb16:	ee06 4a10 	vmov	s12, r4
 800eb1a:	ee07 2a10 	vmov	s14, r2
 800eb1e:	ee27 7a06 	vmul.f32	s14, s14, s12
 800eb22:	ee06 2a10 	vmov	s12, r2
 800eb26:	eee6 7a86 	vfma.f32	s15, s13, s12
 800eb2a:	f109 39ff 	add.w	r9, r9, #4294967295
 800eb2e:	ea59 0303 	orrs.w	r3, r9, r3
 800eb32:	eeb7 0a00 	vmov.f32	s0, #112	; 0x70
 800eb36:	ee77 6a87 	vadd.f32	s13, s15, s14
 800eb3a:	eebf 6a00 	vmov.f32	s12, #240	; 0xf0
 800eb3e:	ee16 3a90 	vmov	r3, s13
 800eb42:	bf0c      	ite	eq
 800eb44:	eeb0 8a46 	vmoveq.f32	s16, s12
 800eb48:	eeb0 8a40 	vmovne.f32	s16, s0
 800eb4c:	2b00      	cmp	r3, #0
 800eb4e:	f023 4200 	bic.w	r2, r3, #2147483648	; 0x80000000
 800eb52:	f340 80aa 	ble.w	800ecaa <__ieee754_powf+0x4de>
 800eb56:	f1b2 4f86 	cmp.w	r2, #1124073472	; 0x43000000
 800eb5a:	dc7b      	bgt.n	800ec54 <__ieee754_powf+0x488>
 800eb5c:	d06f      	beq.n	800ec3e <__ieee754_powf+0x472>
 800eb5e:	f1b2 5f7c 	cmp.w	r2, #1056964608	; 0x3f000000
 800eb62:	dc7e      	bgt.n	800ec62 <__ieee754_powf+0x496>
 800eb64:	2200      	movs	r2, #0
 800eb66:	4610      	mov	r0, r2
 800eb68:	f423 637f 	bic.w	r3, r3, #4080	; 0xff0
 800eb6c:	f023 030f 	bic.w	r3, r3, #15
 800eb70:	ee06 3a10 	vmov	s12, r3
 800eb74:	eddf 6a7e 	vldr	s13, [pc, #504]	; 800ed70 <__ieee754_powf+0x5a4>
 800eb78:	ed9f 2a7e 	vldr	s4, [pc, #504]	; 800ed74 <__ieee754_powf+0x5a8>
 800eb7c:	eddf 3a7e 	vldr	s7, [pc, #504]	; 800ed78 <__ieee754_powf+0x5ac>
 800eb80:	eddf 2a7e 	vldr	s5, [pc, #504]	; 800ed7c <__ieee754_powf+0x5b0>
 800eb84:	ed9f 4a7e 	vldr	s8, [pc, #504]	; 800ed80 <__ieee754_powf+0x5b4>
 800eb88:	eddf 4a7e 	vldr	s9, [pc, #504]	; 800ed84 <__ieee754_powf+0x5b8>
 800eb8c:	ed9f 5a7e 	vldr	s10, [pc, #504]	; 800ed88 <__ieee754_powf+0x5bc>
 800eb90:	eddf 5a7e 	vldr	s11, [pc, #504]	; 800ed8c <__ieee754_powf+0x5c0>
 800eb94:	ee36 7a47 	vsub.f32	s14, s12, s14
 800eb98:	eeb0 3a00 	vmov.f32	s6, #0
 800eb9c:	ee77 7ac7 	vsub.f32	s15, s15, s14
 800eba0:	ee26 7a26 	vmul.f32	s14, s12, s13
 800eba4:	eeb7 0a00 	vmov.f32	s0, #112	; 0x70
 800eba8:	eea7 7a82 	vfma.f32	s14, s15, s4
 800ebac:	eef0 6a47 	vmov.f32	s13, s14
 800ebb0:	eee6 6a23 	vfma.f32	s13, s12, s7
 800ebb4:	eef0 7a47 	vmov.f32	s15, s14
 800ebb8:	ee26 7aa6 	vmul.f32	s14, s13, s13
 800ebbc:	eeb0 2a66 	vmov.f32	s4, s13
 800ebc0:	eea7 4a22 	vfma.f32	s8, s14, s5
 800ebc4:	eea6 2a63 	vfms.f32	s4, s12, s7
 800ebc8:	eee4 4a07 	vfma.f32	s9, s8, s14
 800ebcc:	eeb0 6a66 	vmov.f32	s12, s13
 800ebd0:	eea4 5a87 	vfma.f32	s10, s9, s14
 800ebd4:	ee77 7ac2 	vsub.f32	s15, s15, s4
 800ebd8:	eee5 5a07 	vfma.f32	s11, s10, s14
 800ebdc:	eee6 7aa7 	vfma.f32	s15, s13, s15
 800ebe0:	eea5 6ac7 	vfms.f32	s12, s11, s14
 800ebe4:	ee26 7a86 	vmul.f32	s14, s13, s12
 800ebe8:	ee36 6a43 	vsub.f32	s12, s12, s6
 800ebec:	ee87 7a06 	vdiv.f32	s14, s14, s12
 800ebf0:	ee77 7a67 	vsub.f32	s15, s14, s15
 800ebf4:	ee77 7ae6 	vsub.f32	s15, s15, s13
 800ebf8:	ee30 0a67 	vsub.f32	s0, s0, s15
 800ebfc:	ee10 3a10 	vmov	r3, s0
 800ec00:	4413      	add	r3, r2
 800ec02:	f5b3 0f00 	cmp.w	r3, #8388608	; 0x800000
 800ec06:	f2c0 8098 	blt.w	800ed3a <__ieee754_powf+0x56e>
 800ec0a:	ee00 3a10 	vmov	s0, r3
 800ec0e:	ee28 0a00 	vmul.f32	s0, s16, s0
 800ec12:	e600      	b.n	800e816 <__ieee754_powf+0x4a>
 800ec14:	f002 0201 	and.w	r2, r2, #1
 800ec18:	f1c2 0902 	rsb	r9, r2, #2
 800ec1c:	e608      	b.n	800e830 <__ieee754_powf+0x64>
 800ec1e:	2600      	movs	r6, #0
 800ec20:	4630      	mov	r0, r6
 800ec22:	e6bf      	b.n	800e9a4 <__ieee754_powf+0x1d8>
 800ec24:	2100      	movs	r1, #0
 800ec26:	e6a9      	b.n	800e97c <__ieee754_powf+0x1b0>
 800ec28:	4a59      	ldr	r2, [pc, #356]	; (800ed90 <__ieee754_powf+0x5c4>)
 800ec2a:	4297      	cmp	r7, r2
 800ec2c:	dd54      	ble.n	800ecd8 <__ieee754_powf+0x50c>
 800ec2e:	2c00      	cmp	r4, #0
 800ec30:	f77f ae22 	ble.w	800e878 <__ieee754_powf+0xac>
 800ec34:	ed9f 0a57 	vldr	s0, [pc, #348]	; 800ed94 <__ieee754_powf+0x5c8>
 800ec38:	ee20 0a00 	vmul.f32	s0, s0, s0
 800ec3c:	e5eb      	b.n	800e816 <__ieee754_powf+0x4a>
 800ec3e:	ed9f 6a56 	vldr	s12, [pc, #344]	; 800ed98 <__ieee754_powf+0x5cc>
 800ec42:	ee76 6ac7 	vsub.f32	s13, s13, s14
 800ec46:	ee37 6a86 	vadd.f32	s12, s15, s12
 800ec4a:	eeb4 6ae6 	vcmpe.f32	s12, s13
 800ec4e:	eef1 fa10 	vmrs	APSR_nzcv, fpscr
 800ec52:	dd06      	ble.n	800ec62 <__ieee754_powf+0x496>
 800ec54:	eddf 7a4f 	vldr	s15, [pc, #316]	; 800ed94 <__ieee754_powf+0x5c8>
 800ec58:	ee28 0a27 	vmul.f32	s0, s16, s15
 800ec5c:	ee20 0a27 	vmul.f32	s0, s0, s15
 800ec60:	e5d9      	b.n	800e816 <__ieee754_powf+0x4a>
 800ec62:	15d2      	asrs	r2, r2, #23
 800ec64:	f44f 0100 	mov.w	r1, #8388608	; 0x800000
 800ec68:	3a7e      	subs	r2, #126	; 0x7e
 800ec6a:	fa41 f202 	asr.w	r2, r1, r2
 800ec6e:	441a      	add	r2, r3
 800ec70:	f3c2 51c7 	ubfx	r1, r2, #23, #8
 800ec74:	4c49      	ldr	r4, [pc, #292]	; (800ed9c <__ieee754_powf+0x5d0>)
 800ec76:	f1a1 057f 	sub.w	r5, r1, #127	; 0x7f
 800ec7a:	412c      	asrs	r4, r5
 800ec7c:	f3c2 0016 	ubfx	r0, r2, #0, #23
 800ec80:	ea22 0204 	bic.w	r2, r2, r4
 800ec84:	ee06 2a90 	vmov	s13, r2
 800ec88:	f1c1 0196 	rsb	r1, r1, #150	; 0x96
 800ec8c:	f440 0000 	orr.w	r0, r0, #8388608	; 0x800000
 800ec90:	ee37 7a66 	vsub.f32	s14, s14, s13
 800ec94:	4108      	asrs	r0, r1
 800ec96:	ea80 70e3 	eor.w	r0, r0, r3, asr #31
 800ec9a:	ee77 6a87 	vadd.f32	s13, s15, s14
 800ec9e:	eb00 70d3 	add.w	r0, r0, r3, lsr #31
 800eca2:	05c2      	lsls	r2, r0, #23
 800eca4:	ee16 3a90 	vmov	r3, s13
 800eca8:	e75e      	b.n	800eb68 <__ieee754_powf+0x39c>
 800ecaa:	493d      	ldr	r1, [pc, #244]	; (800eda0 <__ieee754_powf+0x5d4>)
 800ecac:	428a      	cmp	r2, r1
 800ecae:	dc08      	bgt.n	800ecc2 <__ieee754_powf+0x4f6>
 800ecb0:	f47f af55 	bne.w	800eb5e <__ieee754_powf+0x392>
 800ecb4:	ee76 6ac7 	vsub.f32	s13, s13, s14
 800ecb8:	eef4 7ae6 	vcmpe.f32	s15, s13
 800ecbc:	eef1 fa10 	vmrs	APSR_nzcv, fpscr
 800ecc0:	d8cf      	bhi.n	800ec62 <__ieee754_powf+0x496>
 800ecc2:	eddf 7a38 	vldr	s15, [pc, #224]	; 800eda4 <__ieee754_powf+0x5d8>
 800ecc6:	ee28 0a27 	vmul.f32	s0, s16, s15
 800ecca:	ee20 0a27 	vmul.f32	s0, s0, s15
 800ecce:	e5a2      	b.n	800e816 <__ieee754_powf+0x4a>
 800ecd0:	f44f 1600 	mov.w	r6, #2097152	; 0x200000
 800ecd4:	2001      	movs	r0, #1
 800ecd6:	e665      	b.n	800e9a4 <__ieee754_powf+0x1d8>
 800ecd8:	eef7 7a00 	vmov.f32	s15, #112	; 0x70
 800ecdc:	ee30 0a67 	vsub.f32	s0, s0, s15
 800ece0:	eddf 6a1c 	vldr	s13, [pc, #112]	; 800ed54 <__ieee754_powf+0x588>
 800ece4:	eddf 7a30 	vldr	s15, [pc, #192]	; 800eda8 <__ieee754_powf+0x5dc>
 800ece8:	ed9f 5a30 	vldr	s10, [pc, #192]	; 800edac <__ieee754_powf+0x5e0>
 800ecec:	ed9f 6a30 	vldr	s12, [pc, #192]	; 800edb0 <__ieee754_powf+0x5e4>
 800ecf0:	eef1 5a40 	vneg.f32	s11, s0
 800ecf4:	eeb5 7a00 	vmov.f32	s14, #80	; 0x50
 800ecf8:	eee5 6a87 	vfma.f32	s13, s11, s14
 800ecfc:	eeb6 7a00 	vmov.f32	s14, #96	; 0x60
 800ed00:	eea6 7ac0 	vfms.f32	s14, s13, s0
 800ed04:	eef0 6a47 	vmov.f32	s13, s14
 800ed08:	ee20 7a00 	vmul.f32	s14, s0, s0
 800ed0c:	ee27 7a26 	vmul.f32	s14, s14, s13
 800ed10:	ee67 7ac7 	vnmul.f32	s15, s15, s14
 800ed14:	eee0 7a05 	vfma.f32	s15, s0, s10
 800ed18:	eeb0 7a67 	vmov.f32	s14, s15
 800ed1c:	eea0 7a06 	vfma.f32	s14, s0, s12
 800ed20:	ee17 2a10 	vmov	r2, s14
 800ed24:	f422 627f 	bic.w	r2, r2, #4080	; 0xff0
 800ed28:	f022 020f 	bic.w	r2, r2, #15
 800ed2c:	ee07 2a10 	vmov	s14, r2
 800ed30:	eea5 7a86 	vfma.f32	s14, s11, s12
 800ed34:	ee77 7ac7 	vsub.f32	s15, s15, s14
 800ed38:	e6e1      	b.n	800eafe <__ieee754_powf+0x332>
 800ed3a:	f000 fe55 	bl	800f9e8 <scalbnf>
 800ed3e:	e766      	b.n	800ec0e <__ieee754_powf+0x442>
 800ed40:	001cc471 	.word	0x001cc471
 800ed44:	005db3d6 	.word	0x005db3d6
 800ed48:	3e6c3255 	.word	0x3e6c3255
 800ed4c:	3e53f142 	.word	0x3e53f142
 800ed50:	3e8ba305 	.word	0x3e8ba305
 800ed54:	3eaaaaab 	.word	0x3eaaaaab
 800ed58:	3edb6db7 	.word	0x3edb6db7
 800ed5c:	3f19999a 	.word	0x3f19999a
 800ed60:	0801ee98 	.word	0x0801ee98
 800ed64:	3f76384f 	.word	0x3f76384f
 800ed68:	369dc3a0 	.word	0x369dc3a0
 800ed6c:	3f763800 	.word	0x3f763800
 800ed70:	35bfbe8c 	.word	0x35bfbe8c
 800ed74:	3f317218 	.word	0x3f317218
 800ed78:	3f317200 	.word	0x3f317200
 800ed7c:	3331bb4c 	.word	0x3331bb4c
 800ed80:	b5ddea0e 	.word	0xb5ddea0e
 800ed84:	388ab355 	.word	0x388ab355
 800ed88:	bb360b61 	.word	0xbb360b61
 800ed8c:	3e2aaaab 	.word	0x3e2aaaab
 800ed90:	3f800007 	.word	0x3f800007
 800ed94:	7149f2ca 	.word	0x7149f2ca
 800ed98:	3338aa3c 	.word	0x3338aa3c
 800ed9c:	007fffff 	.word	0x007fffff
 800eda0:	43160000 	.word	0x43160000
 800eda4:	0da24260 	.word	0x0da24260
 800eda8:	3fb8aa3b 	.word	0x3fb8aa3b
 800edac:	36eca570 	.word	0x36eca570
 800edb0:	3fb8aa00 	.word	0x3fb8aa00
 800edb4:	0801eea0 	.word	0x0801eea0
 800edb8:	0801ee90 	.word	0x0801ee90

0800edbc <__ieee754_rem_pio2f>:
__ieee754_rem_pio2f():
 800edbc:	b570      	push	{r4, r5, r6, lr}
 800edbe:	ee10 3a10 	vmov	r3, s0
 800edc2:	4a94      	ldr	r2, [pc, #592]	; (800f014 <__ieee754_rem_pio2f+0x258>)
 800edc4:	f023 4400 	bic.w	r4, r3, #2147483648	; 0x80000000
 800edc8:	4294      	cmp	r4, r2
 800edca:	b086      	sub	sp, #24
 800edcc:	ee10 6a10 	vmov	r6, s0
 800edd0:	4605      	mov	r5, r0
 800edd2:	dd66      	ble.n	800eea2 <__ieee754_rem_pio2f+0xe6>
 800edd4:	4a90      	ldr	r2, [pc, #576]	; (800f018 <__ieee754_rem_pio2f+0x25c>)
 800edd6:	4294      	cmp	r4, r2
 800edd8:	dc1a      	bgt.n	800ee10 <__ieee754_rem_pio2f+0x54>
 800edda:	2b00      	cmp	r3, #0
 800eddc:	eddf 7a8f 	vldr	s15, [pc, #572]	; 800f01c <__ieee754_rem_pio2f+0x260>
 800ede0:	4a8f      	ldr	r2, [pc, #572]	; (800f020 <__ieee754_rem_pio2f+0x264>)
 800ede2:	f024 040f 	bic.w	r4, r4, #15
 800ede6:	f340 80dd 	ble.w	800efa4 <__ieee754_rem_pio2f+0x1e8>
 800edea:	4294      	cmp	r4, r2
 800edec:	ee70 7a67 	vsub.f32	s15, s0, s15
 800edf0:	d066      	beq.n	800eec0 <__ieee754_rem_pio2f+0x104>
 800edf2:	ed9f 7a8c 	vldr	s14, [pc, #560]	; 800f024 <__ieee754_rem_pio2f+0x268>
 800edf6:	ee77 6ac7 	vsub.f32	s13, s15, s14
 800edfa:	2001      	movs	r0, #1
 800edfc:	ee77 7ae6 	vsub.f32	s15, s15, s13
 800ee00:	edc5 6a00 	vstr	s13, [r5]
 800ee04:	ee77 7ac7 	vsub.f32	s15, s15, s14
 800ee08:	edc5 7a01 	vstr	s15, [r5, #4]
 800ee0c:	b006      	add	sp, #24
 800ee0e:	bd70      	pop	{r4, r5, r6, pc}
 800ee10:	4a85      	ldr	r2, [pc, #532]	; (800f028 <__ieee754_rem_pio2f+0x26c>)
 800ee12:	4294      	cmp	r4, r2
 800ee14:	dd66      	ble.n	800eee4 <__ieee754_rem_pio2f+0x128>
 800ee16:	f1b4 4fff 	cmp.w	r4, #2139095040	; 0x7f800000
 800ee1a:	da49      	bge.n	800eeb0 <__ieee754_rem_pio2f+0xf4>
 800ee1c:	15e2      	asrs	r2, r4, #23
 800ee1e:	3a86      	subs	r2, #134	; 0x86
 800ee20:	eba4 53c2 	sub.w	r3, r4, r2, lsl #23
 800ee24:	ee07 3a10 	vmov	s14, r3
 800ee28:	eefd 6ac7 	vcvt.s32.f32	s13, s14
 800ee2c:	eddf 7a7f 	vldr	s15, [pc, #508]	; 800f02c <__ieee754_rem_pio2f+0x270>
 800ee30:	eef8 6ae6 	vcvt.f32.s32	s13, s13
 800ee34:	ee37 7a66 	vsub.f32	s14, s14, s13
 800ee38:	edcd 6a03 	vstr	s13, [sp, #12]
 800ee3c:	ee27 7a27 	vmul.f32	s14, s14, s15
 800ee40:	eefd 6ac7 	vcvt.s32.f32	s13, s14
 800ee44:	eef8 6ae6 	vcvt.f32.s32	s13, s13
 800ee48:	ee37 7a66 	vsub.f32	s14, s14, s13
 800ee4c:	edcd 6a04 	vstr	s13, [sp, #16]
 800ee50:	ee67 7a27 	vmul.f32	s15, s14, s15
 800ee54:	eef5 7a40 	vcmp.f32	s15, #0.0
 800ee58:	eef1 fa10 	vmrs	APSR_nzcv, fpscr
 800ee5c:	edcd 7a05 	vstr	s15, [sp, #20]
 800ee60:	f040 80b3 	bne.w	800efca <__ieee754_rem_pio2f+0x20e>
 800ee64:	eef5 6a40 	vcmp.f32	s13, #0.0
 800ee68:	eef1 fa10 	vmrs	APSR_nzcv, fpscr
 800ee6c:	bf14      	ite	ne
 800ee6e:	2302      	movne	r3, #2
 800ee70:	2301      	moveq	r3, #1
 800ee72:	496f      	ldr	r1, [pc, #444]	; (800f030 <__ieee754_rem_pio2f+0x274>)
 800ee74:	2002      	movs	r0, #2
 800ee76:	e88d 0003 	stmia.w	sp, {r0, r1}
 800ee7a:	a803      	add	r0, sp, #12
 800ee7c:	4629      	mov	r1, r5
 800ee7e:	f000 f9b9 	bl	800f1f4 <__kernel_rem_pio2f>
 800ee82:	2e00      	cmp	r6, #0
 800ee84:	da12      	bge.n	800eeac <__ieee754_rem_pio2f+0xf0>
 800ee86:	ed95 7a00 	vldr	s14, [r5]
 800ee8a:	edd5 7a01 	vldr	s15, [r5, #4]
 800ee8e:	eeb1 7a47 	vneg.f32	s14, s14
 800ee92:	eef1 7a67 	vneg.f32	s15, s15
 800ee96:	4240      	negs	r0, r0
 800ee98:	ed85 7a00 	vstr	s14, [r5]
 800ee9c:	edc5 7a01 	vstr	s15, [r5, #4]
 800eea0:	e004      	b.n	800eeac <__ieee754_rem_pio2f+0xf0>
 800eea2:	2200      	movs	r2, #0
 800eea4:	ed85 0a00 	vstr	s0, [r5]
 800eea8:	6042      	str	r2, [r0, #4]
 800eeaa:	2000      	movs	r0, #0
 800eeac:	b006      	add	sp, #24
 800eeae:	bd70      	pop	{r4, r5, r6, pc}
 800eeb0:	ee70 7a40 	vsub.f32	s15, s0, s0
 800eeb4:	2000      	movs	r0, #0
 800eeb6:	edc5 7a01 	vstr	s15, [r5, #4]
 800eeba:	edc5 7a00 	vstr	s15, [r5]
 800eebe:	e7f5      	b.n	800eeac <__ieee754_rem_pio2f+0xf0>
 800eec0:	eddf 6a5c 	vldr	s13, [pc, #368]	; 800f034 <__ieee754_rem_pio2f+0x278>
 800eec4:	ed9f 7a5c 	vldr	s14, [pc, #368]	; 800f038 <__ieee754_rem_pio2f+0x27c>
 800eec8:	ee77 7ae6 	vsub.f32	s15, s15, s13
 800eecc:	2001      	movs	r0, #1
 800eece:	ee77 6ac7 	vsub.f32	s13, s15, s14
 800eed2:	ee77 7ae6 	vsub.f32	s15, s15, s13
 800eed6:	edc5 6a00 	vstr	s13, [r5]
 800eeda:	ee77 7ac7 	vsub.f32	s15, s15, s14
 800eede:	edc5 7a01 	vstr	s15, [r5, #4]
 800eee2:	e7e3      	b.n	800eeac <__ieee754_rem_pio2f+0xf0>
 800eee4:	f7ff f994 	bl	800e210 <fabsf>
 800eee8:	eddf 6a54 	vldr	s13, [pc, #336]	; 800f03c <__ieee754_rem_pio2f+0x280>
 800eeec:	eddf 5a4b 	vldr	s11, [pc, #300]	; 800f01c <__ieee754_rem_pio2f+0x260>
 800eef0:	ed9f 7a4c 	vldr	s14, [pc, #304]	; 800f024 <__ieee754_rem_pio2f+0x268>
 800eef4:	eef6 7a00 	vmov.f32	s15, #96	; 0x60
 800eef8:	eee0 7a26 	vfma.f32	s15, s0, s13
 800eefc:	eefd 7ae7 	vcvt.s32.f32	s15, s15
 800ef00:	ee17 0a90 	vmov	r0, s15
 800ef04:	eef8 6ae7 	vcvt.f32.s32	s13, s15
 800ef08:	281f      	cmp	r0, #31
 800ef0a:	eeb1 6a66 	vneg.f32	s12, s13
 800ef0e:	eea6 0a25 	vfma.f32	s0, s12, s11
 800ef12:	ee66 7a87 	vmul.f32	s15, s13, s14
 800ef16:	dc1d      	bgt.n	800ef54 <__ieee754_rem_pio2f+0x198>
 800ef18:	4a49      	ldr	r2, [pc, #292]	; (800f040 <__ieee754_rem_pio2f+0x284>)
 800ef1a:	1e41      	subs	r1, r0, #1
 800ef1c:	f024 03ff 	bic.w	r3, r4, #255	; 0xff
 800ef20:	f852 2021 	ldr.w	r2, [r2, r1, lsl #2]
 800ef24:	4293      	cmp	r3, r2
 800ef26:	d015      	beq.n	800ef54 <__ieee754_rem_pio2f+0x198>
 800ef28:	ee30 7a67 	vsub.f32	s14, s0, s15
 800ef2c:	ed85 7a00 	vstr	s14, [r5]
 800ef30:	ee30 0a47 	vsub.f32	s0, s0, s14
 800ef34:	2e00      	cmp	r6, #0
 800ef36:	ee30 0a67 	vsub.f32	s0, s0, s15
 800ef3a:	ed85 0a01 	vstr	s0, [r5, #4]
 800ef3e:	dab5      	bge.n	800eeac <__ieee754_rem_pio2f+0xf0>
 800ef40:	eeb1 7a47 	vneg.f32	s14, s14
 800ef44:	eeb1 0a40 	vneg.f32	s0, s0
 800ef48:	ed85 7a00 	vstr	s14, [r5]
 800ef4c:	ed85 0a01 	vstr	s0, [r5, #4]
 800ef50:	4240      	negs	r0, r0
 800ef52:	e7ab      	b.n	800eeac <__ieee754_rem_pio2f+0xf0>
 800ef54:	ee30 7a67 	vsub.f32	s14, s0, s15
 800ef58:	15e4      	asrs	r4, r4, #23
 800ef5a:	ee17 3a10 	vmov	r3, s14
 800ef5e:	f3c3 53c7 	ubfx	r3, r3, #23, #8
 800ef62:	1ae3      	subs	r3, r4, r3
 800ef64:	2b08      	cmp	r3, #8
 800ef66:	dde1      	ble.n	800ef2c <__ieee754_rem_pio2f+0x170>
 800ef68:	eddf 7a32 	vldr	s15, [pc, #200]	; 800f034 <__ieee754_rem_pio2f+0x278>
 800ef6c:	ed9f 7a32 	vldr	s14, [pc, #200]	; 800f038 <__ieee754_rem_pio2f+0x27c>
 800ef70:	eef0 5a40 	vmov.f32	s11, s0
 800ef74:	eee6 5a27 	vfma.f32	s11, s12, s15
 800ef78:	ee30 0a65 	vsub.f32	s0, s0, s11
 800ef7c:	eea6 0a27 	vfma.f32	s0, s12, s15
 800ef80:	eef0 7a40 	vmov.f32	s15, s0
 800ef84:	eed6 7a87 	vfnms.f32	s15, s13, s14
 800ef88:	ee35 7ae7 	vsub.f32	s14, s11, s15
 800ef8c:	ee17 3a10 	vmov	r3, s14
 800ef90:	f3c3 53c7 	ubfx	r3, r3, #23, #8
 800ef94:	1ae4      	subs	r4, r4, r3
 800ef96:	2c19      	cmp	r4, #25
 800ef98:	dc2c      	bgt.n	800eff4 <__ieee754_rem_pio2f+0x238>
 800ef9a:	ed85 7a00 	vstr	s14, [r5]
 800ef9e:	eeb0 0a65 	vmov.f32	s0, s11
 800efa2:	e7c5      	b.n	800ef30 <__ieee754_rem_pio2f+0x174>
 800efa4:	4294      	cmp	r4, r2
 800efa6:	ee70 7a27 	vadd.f32	s15, s0, s15
 800efaa:	d010      	beq.n	800efce <__ieee754_rem_pio2f+0x212>
 800efac:	ed9f 7a1d 	vldr	s14, [pc, #116]	; 800f024 <__ieee754_rem_pio2f+0x268>
 800efb0:	ee77 6a87 	vadd.f32	s13, s15, s14
 800efb4:	f04f 30ff 	mov.w	r0, #4294967295
 800efb8:	ee77 7ae6 	vsub.f32	s15, s15, s13
 800efbc:	edc5 6a00 	vstr	s13, [r5]
 800efc0:	ee77 7a87 	vadd.f32	s15, s15, s14
 800efc4:	edc5 7a01 	vstr	s15, [r5, #4]
 800efc8:	e770      	b.n	800eeac <__ieee754_rem_pio2f+0xf0>
 800efca:	2303      	movs	r3, #3
 800efcc:	e751      	b.n	800ee72 <__ieee754_rem_pio2f+0xb6>
 800efce:	eddf 6a19 	vldr	s13, [pc, #100]	; 800f034 <__ieee754_rem_pio2f+0x278>
 800efd2:	ed9f 7a19 	vldr	s14, [pc, #100]	; 800f038 <__ieee754_rem_pio2f+0x27c>
 800efd6:	ee77 7aa6 	vadd.f32	s15, s15, s13
 800efda:	f04f 30ff 	mov.w	r0, #4294967295
 800efde:	ee77 6a87 	vadd.f32	s13, s15, s14
 800efe2:	ee77 7ae6 	vsub.f32	s15, s15, s13
 800efe6:	edc5 6a00 	vstr	s13, [r5]
 800efea:	ee77 7a87 	vadd.f32	s15, s15, s14
 800efee:	edc5 7a01 	vstr	s15, [r5, #4]
 800eff2:	e75b      	b.n	800eeac <__ieee754_rem_pio2f+0xf0>
 800eff4:	ed9f 7a13 	vldr	s14, [pc, #76]	; 800f044 <__ieee754_rem_pio2f+0x288>
 800eff8:	ed9f 5a13 	vldr	s10, [pc, #76]	; 800f048 <__ieee754_rem_pio2f+0x28c>
 800effc:	eeb0 0a65 	vmov.f32	s0, s11
 800f000:	eea6 0a07 	vfma.f32	s0, s12, s14
 800f004:	ee75 7ac0 	vsub.f32	s15, s11, s0
 800f008:	eee6 7a07 	vfma.f32	s15, s12, s14
 800f00c:	eed6 7a85 	vfnms.f32	s15, s13, s10
 800f010:	e78a      	b.n	800ef28 <__ieee754_rem_pio2f+0x16c>
 800f012:	bf00      	nop
 800f014:	3f490fd8 	.word	0x3f490fd8
 800f018:	4016cbe3 	.word	0x4016cbe3
 800f01c:	3fc90f80 	.word	0x3fc90f80
 800f020:	3fc90fd0 	.word	0x3fc90fd0
 800f024:	37354443 	.word	0x37354443
 800f028:	43490f80 	.word	0x43490f80
 800f02c:	43800000 	.word	0x43800000
 800f030:	0801ef28 	.word	0x0801ef28
 800f034:	37354400 	.word	0x37354400
 800f038:	2e85a308 	.word	0x2e85a308
 800f03c:	3f22f984 	.word	0x3f22f984
 800f040:	0801eea8 	.word	0x0801eea8
 800f044:	2e85a300 	.word	0x2e85a300
 800f048:	248d3132 	.word	0x248d3132

0800f04c <__ieee754_sqrtf>:
__ieee754_sqrtf():
 800f04c:	ee10 3a10 	vmov	r3, s0
 800f050:	f023 4200 	bic.w	r2, r3, #2147483648	; 0x80000000
 800f054:	f1b2 4fff 	cmp.w	r2, #2139095040	; 0x7f800000
 800f058:	b470      	push	{r4, r5, r6}
 800f05a:	d230      	bcs.n	800f0be <__ieee754_sqrtf+0x72>
 800f05c:	b36a      	cbz	r2, 800f0ba <__ieee754_sqrtf+0x6e>
 800f05e:	2b00      	cmp	r3, #0
 800f060:	db3d      	blt.n	800f0de <__ieee754_sqrtf+0x92>
 800f062:	f5b2 0f00 	cmp.w	r2, #8388608	; 0x800000
 800f066:	ea4f 51e3 	mov.w	r1, r3, asr #23
 800f06a:	d32c      	bcc.n	800f0c6 <__ieee754_sqrtf+0x7a>
 800f06c:	f1a1 027f 	sub.w	r2, r1, #127	; 0x7f
 800f070:	f3c3 0316 	ubfx	r3, r3, #0, #23
 800f074:	07d1      	lsls	r1, r2, #31
 800f076:	f443 0300 	orr.w	r3, r3, #8388608	; 0x800000
 800f07a:	bf48      	it	mi
 800f07c:	005b      	lslmi	r3, r3, #1
 800f07e:	2400      	movs	r4, #0
 800f080:	1056      	asrs	r6, r2, #1
 800f082:	005b      	lsls	r3, r3, #1
 800f084:	4625      	mov	r5, r4
 800f086:	2119      	movs	r1, #25
 800f088:	f04f 7280 	mov.w	r2, #16777216	; 0x1000000
 800f08c:	18a8      	adds	r0, r5, r2
 800f08e:	4298      	cmp	r0, r3
 800f090:	dc02      	bgt.n	800f098 <__ieee754_sqrtf+0x4c>
 800f092:	1a1b      	subs	r3, r3, r0
 800f094:	1885      	adds	r5, r0, r2
 800f096:	4414      	add	r4, r2
 800f098:	3901      	subs	r1, #1
 800f09a:	ea4f 0343 	mov.w	r3, r3, lsl #1
 800f09e:	ea4f 0252 	mov.w	r2, r2, lsr #1
 800f0a2:	d1f3      	bne.n	800f08c <__ieee754_sqrtf+0x40>
 800f0a4:	b113      	cbz	r3, 800f0ac <__ieee754_sqrtf+0x60>
 800f0a6:	f004 0301 	and.w	r3, r4, #1
 800f0aa:	441c      	add	r4, r3
 800f0ac:	1064      	asrs	r4, r4, #1
 800f0ae:	f104 547c 	add.w	r4, r4, #1056964608	; 0x3f000000
 800f0b2:	eb04 53c6 	add.w	r3, r4, r6, lsl #23
 800f0b6:	ee00 3a10 	vmov	s0, r3
 800f0ba:	bc70      	pop	{r4, r5, r6}
 800f0bc:	4770      	bx	lr
 800f0be:	eea0 0a00 	vfma.f32	s0, s0, s0
 800f0c2:	bc70      	pop	{r4, r5, r6}
 800f0c4:	4770      	bx	lr
 800f0c6:	f413 0200 	ands.w	r2, r3, #8388608	; 0x800000
 800f0ca:	d10d      	bne.n	800f0e8 <__ieee754_sqrtf+0x9c>
 800f0cc:	005b      	lsls	r3, r3, #1
 800f0ce:	0218      	lsls	r0, r3, #8
 800f0d0:	f102 0201 	add.w	r2, r2, #1
 800f0d4:	d5fa      	bpl.n	800f0cc <__ieee754_sqrtf+0x80>
 800f0d6:	f1c2 0201 	rsb	r2, r2, #1
 800f0da:	4411      	add	r1, r2
 800f0dc:	e7c6      	b.n	800f06c <__ieee754_sqrtf+0x20>
 800f0de:	ee30 0a40 	vsub.f32	s0, s0, s0
 800f0e2:	ee80 0a00 	vdiv.f32	s0, s0, s0
 800f0e6:	e7e8      	b.n	800f0ba <__ieee754_sqrtf+0x6e>
 800f0e8:	2201      	movs	r2, #1
 800f0ea:	4411      	add	r1, r2
 800f0ec:	e7be      	b.n	800f06c <__ieee754_sqrtf+0x20>
 800f0ee:	bf00      	nop

0800f0f0 <__kernel_cosf>:
__kernel_cosf():
 800f0f0:	ee10 3a10 	vmov	r3, s0
 800f0f4:	f023 4300 	bic.w	r3, r3, #2147483648	; 0x80000000
 800f0f8:	f1b3 5f48 	cmp.w	r3, #838860800	; 0x32000000
 800f0fc:	da2c      	bge.n	800f158 <__kernel_cosf+0x68>
 800f0fe:	eefd 7ac0 	vcvt.s32.f32	s15, s0
 800f102:	ee17 3a90 	vmov	r3, s15
 800f106:	2b00      	cmp	r3, #0
 800f108:	d060      	beq.n	800f1cc <__kernel_cosf+0xdc>
 800f10a:	ee20 7a00 	vmul.f32	s14, s0, s0
 800f10e:	eddf 4a31 	vldr	s9, [pc, #196]	; 800f1d4 <__kernel_cosf+0xe4>
 800f112:	ed9f 5a31 	vldr	s10, [pc, #196]	; 800f1d8 <__kernel_cosf+0xe8>
 800f116:	eddf 5a31 	vldr	s11, [pc, #196]	; 800f1dc <__kernel_cosf+0xec>
 800f11a:	ed9f 6a31 	vldr	s12, [pc, #196]	; 800f1e0 <__kernel_cosf+0xf0>
 800f11e:	eddf 7a31 	vldr	s15, [pc, #196]	; 800f1e4 <__kernel_cosf+0xf4>
 800f122:	eddf 6a31 	vldr	s13, [pc, #196]	; 800f1e8 <__kernel_cosf+0xf8>
 800f126:	eea7 5a24 	vfma.f32	s10, s14, s9
 800f12a:	eee5 5a07 	vfma.f32	s11, s10, s14
 800f12e:	eea5 6a87 	vfma.f32	s12, s11, s14
 800f132:	eee6 7a07 	vfma.f32	s15, s12, s14
 800f136:	eee7 6a87 	vfma.f32	s13, s15, s14
 800f13a:	ee66 6a87 	vmul.f32	s13, s13, s14
 800f13e:	ee60 0ac0 	vnmul.f32	s1, s1, s0
 800f142:	eeb6 6a00 	vmov.f32	s12, #96	; 0x60
 800f146:	eee7 0a26 	vfma.f32	s1, s14, s13
 800f14a:	eef7 7a00 	vmov.f32	s15, #112	; 0x70
 800f14e:	eed7 0a06 	vfnms.f32	s1, s14, s12
 800f152:	ee37 0ae0 	vsub.f32	s0, s15, s1
 800f156:	4770      	bx	lr
 800f158:	ee20 7a00 	vmul.f32	s14, s0, s0
 800f15c:	eddf 4a1d 	vldr	s9, [pc, #116]	; 800f1d4 <__kernel_cosf+0xe4>
 800f160:	ed9f 5a1d 	vldr	s10, [pc, #116]	; 800f1d8 <__kernel_cosf+0xe8>
 800f164:	eddf 5a1d 	vldr	s11, [pc, #116]	; 800f1dc <__kernel_cosf+0xec>
 800f168:	ed9f 6a1d 	vldr	s12, [pc, #116]	; 800f1e0 <__kernel_cosf+0xf0>
 800f16c:	eddf 7a1d 	vldr	s15, [pc, #116]	; 800f1e4 <__kernel_cosf+0xf4>
 800f170:	eddf 6a1d 	vldr	s13, [pc, #116]	; 800f1e8 <__kernel_cosf+0xf8>
 800f174:	4a1d      	ldr	r2, [pc, #116]	; (800f1ec <__kernel_cosf+0xfc>)
 800f176:	eea7 5a24 	vfma.f32	s10, s14, s9
 800f17a:	4293      	cmp	r3, r2
 800f17c:	eee5 5a07 	vfma.f32	s11, s10, s14
 800f180:	eea5 6a87 	vfma.f32	s12, s11, s14
 800f184:	eee6 7a07 	vfma.f32	s15, s12, s14
 800f188:	eee7 6a87 	vfma.f32	s13, s15, s14
 800f18c:	ee66 6a87 	vmul.f32	s13, s13, s14
 800f190:	ddd5      	ble.n	800f13e <__kernel_cosf+0x4e>
 800f192:	4a17      	ldr	r2, [pc, #92]	; (800f1f0 <__kernel_cosf+0x100>)
 800f194:	4293      	cmp	r3, r2
 800f196:	dc14      	bgt.n	800f1c2 <__kernel_cosf+0xd2>
 800f198:	f103 437f 	add.w	r3, r3, #4278190080	; 0xff000000
 800f19c:	ee07 3a90 	vmov	s15, r3
 800f1a0:	eeb7 6a00 	vmov.f32	s12, #112	; 0x70
 800f1a4:	ee36 6a67 	vsub.f32	s12, s12, s15
 800f1a8:	ee60 0ac0 	vnmul.f32	s1, s1, s0
 800f1ac:	eef6 5a00 	vmov.f32	s11, #96	; 0x60
 800f1b0:	eee7 0a26 	vfma.f32	s1, s14, s13
 800f1b4:	eed7 7a25 	vfnms.f32	s15, s14, s11
 800f1b8:	ee77 7ae0 	vsub.f32	s15, s15, s1
 800f1bc:	ee36 0a67 	vsub.f32	s0, s12, s15
 800f1c0:	4770      	bx	lr
 800f1c2:	eeb6 6a07 	vmov.f32	s12, #103	; 0x67
 800f1c6:	eef5 7a02 	vmov.f32	s15, #82	; 0x52
 800f1ca:	e7ed      	b.n	800f1a8 <__kernel_cosf+0xb8>
 800f1cc:	eeb7 0a00 	vmov.f32	s0, #112	; 0x70
 800f1d0:	4770      	bx	lr
 800f1d2:	bf00      	nop
 800f1d4:	ad47d74e 	.word	0xad47d74e
 800f1d8:	310f74f6 	.word	0x310f74f6
 800f1dc:	b493f27c 	.word	0xb493f27c
 800f1e0:	37d00d01 	.word	0x37d00d01
 800f1e4:	bab60b61 	.word	0xbab60b61
 800f1e8:	3d2aaaab 	.word	0x3d2aaaab
 800f1ec:	3e999999 	.word	0x3e999999
 800f1f0:	3f480000 	.word	0x3f480000

0800f1f4 <__kernel_rem_pio2f>:
__kernel_rem_pio2f():
 800f1f4:	e92d 4ff0 	stmdb	sp!, {r4, r5, r6, r7, r8, r9, sl, fp, lr}
 800f1f8:	ed2d 8b04 	vpush	{d8-d9}
 800f1fc:	b0d7      	sub	sp, #348	; 0x15c
 800f1fe:	1e5f      	subs	r7, r3, #1
 800f200:	4cd7      	ldr	r4, [pc, #860]	; (800f560 <__kernel_rem_pio2f+0x36c>)
 800f202:	9d64      	ldr	r5, [sp, #400]	; 0x190
 800f204:	9302      	str	r3, [sp, #8]
 800f206:	1ed3      	subs	r3, r2, #3
 800f208:	bf48      	it	mi
 800f20a:	1d13      	addmi	r3, r2, #4
 800f20c:	f854 6025 	ldr.w	r6, [r4, r5, lsl #2]
 800f210:	9101      	str	r1, [sp, #4]
 800f212:	10db      	asrs	r3, r3, #3
 800f214:	ea23 73e3 	bic.w	r3, r3, r3, asr #31
 800f218:	ea6f 0b03 	mvn.w	fp, r3
 800f21c:	19b9      	adds	r1, r7, r6
 800f21e:	9303      	str	r3, [sp, #12]
 800f220:	4682      	mov	sl, r0
 800f222:	eb02 0bcb 	add.w	fp, r2, fp, lsl #3
 800f226:	eba3 0307 	sub.w	r3, r3, r7
 800f22a:	d414      	bmi.n	800f256 <__kernel_rem_pio2f+0x62>
 800f22c:	4419      	add	r1, r3
 800f22e:	9865      	ldr	r0, [sp, #404]	; 0x194
 800f230:	3101      	adds	r1, #1
 800f232:	aa1a      	add	r2, sp, #104	; 0x68
 800f234:	2b00      	cmp	r3, #0
 800f236:	bfaa      	itet	ge
 800f238:	f850 4023 	ldrge.w	r4, [r0, r3, lsl #2]
 800f23c:	eddf 7acc 	vldrlt	s15, [pc, #816]	; 800f570 <__kernel_rem_pio2f+0x37c>
 800f240:	ee07 4a90 	vmovge	s15, r4
 800f244:	f103 0301 	add.w	r3, r3, #1
 800f248:	bfa8      	it	ge
 800f24a:	eef8 7ae7 	vcvtge.f32.s32	s15, s15
 800f24e:	428b      	cmp	r3, r1
 800f250:	ece2 7a01 	vstmia	r2!, {s15}
 800f254:	d1ee      	bne.n	800f234 <__kernel_rem_pio2f+0x40>
 800f256:	2e00      	cmp	r6, #0
 800f258:	db1a      	blt.n	800f290 <__kernel_rem_pio2f+0x9c>
 800f25a:	9b02      	ldr	r3, [sp, #8]
 800f25c:	a91a      	add	r1, sp, #104	; 0x68
 800f25e:	1c74      	adds	r4, r6, #1
 800f260:	eb01 0484 	add.w	r4, r1, r4, lsl #2
 800f264:	a842      	add	r0, sp, #264	; 0x108
 800f266:	009d      	lsls	r5, r3, #2
 800f268:	2f00      	cmp	r7, #0
 800f26a:	f2c0 81ba 	blt.w	800f5e2 <__kernel_rem_pio2f+0x3ee>
 800f26e:	eddf 7ac0 	vldr	s15, [pc, #768]	; 800f570 <__kernel_rem_pio2f+0x37c>
 800f272:	4652      	mov	r2, sl
 800f274:	194b      	adds	r3, r1, r5
 800f276:	ed33 7a01 	vldmdb	r3!, {s14}
 800f27a:	ecf2 6a01 	vldmia	r2!, {s13}
 800f27e:	4299      	cmp	r1, r3
 800f280:	eee6 7a87 	vfma.f32	s15, s13, s14
 800f284:	d1f7      	bne.n	800f276 <__kernel_rem_pio2f+0x82>
 800f286:	3104      	adds	r1, #4
 800f288:	42a1      	cmp	r1, r4
 800f28a:	ece0 7a01 	vstmia	r0!, {s15}
 800f28e:	d1eb      	bne.n	800f268 <__kernel_rem_pio2f+0x74>
 800f290:	9a02      	ldr	r2, [sp, #8]
 800f292:	eddf 8ab4 	vldr	s17, [pc, #720]	; 800f564 <__kernel_rem_pio2f+0x370>
 800f296:	ed9f 8ab4 	vldr	s16, [pc, #720]	; 800f568 <__kernel_rem_pio2f+0x374>
 800f29a:	f106 4380 	add.w	r3, r6, #1073741824	; 0x40000000
 800f29e:	3b01      	subs	r3, #1
 800f2a0:	009b      	lsls	r3, r3, #2
 800f2a2:	ebc2 7982 	rsb	r9, r2, r2, lsl #30
 800f2a6:	aa06      	add	r2, sp, #24
 800f2a8:	f103 0804 	add.w	r8, r3, #4
 800f2ac:	4413      	add	r3, r2
 800f2ae:	4490      	add	r8, r2
 800f2b0:	9304      	str	r3, [sp, #16]
 800f2b2:	ea4f 0989 	mov.w	r9, r9, lsl #2
 800f2b6:	4634      	mov	r4, r6
 800f2b8:	00a5      	lsls	r5, r4, #2
 800f2ba:	ab56      	add	r3, sp, #344	; 0x158
 800f2bc:	442b      	add	r3, r5
 800f2be:	2c00      	cmp	r4, #0
 800f2c0:	ed13 0a14 	vldr	s0, [r3, #-80]	; 0xffffffb0
 800f2c4:	dd18      	ble.n	800f2f8 <__kernel_rem_pio2f+0x104>
 800f2c6:	a942      	add	r1, sp, #264	; 0x108
 800f2c8:	194b      	adds	r3, r1, r5
 800f2ca:	aa05      	add	r2, sp, #20
 800f2cc:	ee60 7a28 	vmul.f32	s15, s0, s17
 800f2d0:	eeb0 7a40 	vmov.f32	s14, s0
 800f2d4:	eefd 7ae7 	vcvt.s32.f32	s15, s15
 800f2d8:	ed73 6a01 	vldmdb	r3!, {s13}
 800f2dc:	eef8 7ae7 	vcvt.f32.s32	s15, s15
 800f2e0:	428b      	cmp	r3, r1
 800f2e2:	eea7 7ac8 	vfms.f32	s14, s15, s16
 800f2e6:	ee37 0aa6 	vadd.f32	s0, s15, s13
 800f2ea:	eebd 7ac7 	vcvt.s32.f32	s14, s14
 800f2ee:	ee17 0a10 	vmov	r0, s14
 800f2f2:	f842 0f04 	str.w	r0, [r2, #4]!
 800f2f6:	d1e9      	bne.n	800f2cc <__kernel_rem_pio2f+0xd8>
 800f2f8:	4658      	mov	r0, fp
 800f2fa:	f000 fb75 	bl	800f9e8 <scalbnf>
 800f2fe:	eeb0 9a40 	vmov.f32	s18, s0
 800f302:	eeb4 0a00 	vmov.f32	s0, #64	; 0x40
 800f306:	ee29 0a00 	vmul.f32	s0, s18, s0
 800f30a:	f7fe ff89 	bl	800e220 <floorf>
 800f30e:	eef2 7a00 	vmov.f32	s15, #32
 800f312:	eea0 9a67 	vfms.f32	s18, s0, s15
 800f316:	f1bb 0f00 	cmp.w	fp, #0
 800f31a:	eefd 9ac9 	vcvt.s32.f32	s19, s18
 800f31e:	eef8 7ae9 	vcvt.f32.s32	s15, s19
 800f322:	ee39 9a67 	vsub.f32	s18, s18, s15
 800f326:	f340 8141 	ble.w	800f5ac <__kernel_rem_pio2f+0x3b8>
 800f32a:	1e60      	subs	r0, r4, #1
 800f32c:	aa06      	add	r2, sp, #24
 800f32e:	f1cb 0308 	rsb	r3, fp, #8
 800f332:	f852 1020 	ldr.w	r1, [r2, r0, lsl #2]
 800f336:	fa41 f203 	asr.w	r2, r1, r3
 800f33a:	fa02 f303 	lsl.w	r3, r2, r3
 800f33e:	f10d 0e18 	add.w	lr, sp, #24
 800f342:	1ac9      	subs	r1, r1, r3
 800f344:	f84e 1020 	str.w	r1, [lr, r0, lsl #2]
 800f348:	ee19 0a90 	vmov	r0, s19
 800f34c:	4410      	add	r0, r2
 800f34e:	f1cb 0307 	rsb	r3, fp, #7
 800f352:	ee09 0a90 	vmov	s19, r0
 800f356:	4119      	asrs	r1, r3
 800f358:	2900      	cmp	r1, #0
 800f35a:	dd39      	ble.n	800f3d0 <__kernel_rem_pio2f+0x1dc>
 800f35c:	ee19 3a90 	vmov	r3, s19
 800f360:	2c00      	cmp	r4, #0
 800f362:	f103 0301 	add.w	r3, r3, #1
 800f366:	ee09 3a90 	vmov	s19, r3
 800f36a:	f340 81cb 	ble.w	800f704 <__kernel_rem_pio2f+0x510>
 800f36e:	2200      	movs	r2, #0
 800f370:	4610      	mov	r0, r2
 800f372:	f10d 0e14 	add.w	lr, sp, #20
 800f376:	e008      	b.n	800f38a <__kernel_rem_pio2f+0x196>
 800f378:	f5c3 7c80 	rsb	ip, r3, #256	; 0x100
 800f37c:	b113      	cbz	r3, 800f384 <__kernel_rem_pio2f+0x190>
 800f37e:	f8ce c000 	str.w	ip, [lr]
 800f382:	2001      	movs	r0, #1
 800f384:	3201      	adds	r2, #1
 800f386:	4294      	cmp	r4, r2
 800f388:	dd0c      	ble.n	800f3a4 <__kernel_rem_pio2f+0x1b0>
 800f38a:	f85e 3f04 	ldr.w	r3, [lr, #4]!
 800f38e:	2800      	cmp	r0, #0
 800f390:	d0f2      	beq.n	800f378 <__kernel_rem_pio2f+0x184>
 800f392:	3201      	adds	r2, #1
 800f394:	f1c3 03ff 	rsb	r3, r3, #255	; 0xff
 800f398:	4294      	cmp	r4, r2
 800f39a:	f8ce 3000 	str.w	r3, [lr]
 800f39e:	f04f 0001 	mov.w	r0, #1
 800f3a2:	dcf2      	bgt.n	800f38a <__kernel_rem_pio2f+0x196>
 800f3a4:	f1bb 0f00 	cmp.w	fp, #0
 800f3a8:	dd10      	ble.n	800f3cc <__kernel_rem_pio2f+0x1d8>
 800f3aa:	f1bb 0f01 	cmp.w	fp, #1
 800f3ae:	f000 8104 	beq.w	800f5ba <__kernel_rem_pio2f+0x3c6>
 800f3b2:	f1bb 0f02 	cmp.w	fp, #2
 800f3b6:	d109      	bne.n	800f3cc <__kernel_rem_pio2f+0x1d8>
 800f3b8:	1e62      	subs	r2, r4, #1
 800f3ba:	ab06      	add	r3, sp, #24
 800f3bc:	f10d 0e18 	add.w	lr, sp, #24
 800f3c0:	f853 3022 	ldr.w	r3, [r3, r2, lsl #2]
 800f3c4:	f003 033f 	and.w	r3, r3, #63	; 0x3f
 800f3c8:	f84e 3022 	str.w	r3, [lr, r2, lsl #2]
 800f3cc:	2902      	cmp	r1, #2
 800f3ce:	d059      	beq.n	800f484 <__kernel_rem_pio2f+0x290>
 800f3d0:	eeb5 9a40 	vcmp.f32	s18, #0.0
 800f3d4:	eef1 fa10 	vmrs	APSR_nzcv, fpscr
 800f3d8:	d166      	bne.n	800f4a8 <__kernel_rem_pio2f+0x2b4>
 800f3da:	1e63      	subs	r3, r4, #1
 800f3dc:	429e      	cmp	r6, r3
 800f3de:	dc0b      	bgt.n	800f3f8 <__kernel_rem_pio2f+0x204>
 800f3e0:	aa06      	add	r2, sp, #24
 800f3e2:	4415      	add	r5, r2
 800f3e4:	2200      	movs	r2, #0
 800f3e6:	f855 0d04 	ldr.w	r0, [r5, #-4]!
 800f3ea:	4545      	cmp	r5, r8
 800f3ec:	ea42 0200 	orr.w	r2, r2, r0
 800f3f0:	d1f9      	bne.n	800f3e6 <__kernel_rem_pio2f+0x1f2>
 800f3f2:	2a00      	cmp	r2, #0
 800f3f4:	f040 8170 	bne.w	800f6d8 <__kernel_rem_pio2f+0x4e4>
 800f3f8:	1e73      	subs	r3, r6, #1
 800f3fa:	aa06      	add	r2, sp, #24
 800f3fc:	f852 3023 	ldr.w	r3, [r2, r3, lsl #2]
 800f400:	2b00      	cmp	r3, #0
 800f402:	f040 817c 	bne.w	800f6fe <__kernel_rem_pio2f+0x50a>
 800f406:	9b04      	ldr	r3, [sp, #16]
 800f408:	f04f 0e01 	mov.w	lr, #1
 800f40c:	f853 2d04 	ldr.w	r2, [r3, #-4]!
 800f410:	f10e 0e01 	add.w	lr, lr, #1
 800f414:	2a00      	cmp	r2, #0
 800f416:	d0f9      	beq.n	800f40c <__kernel_rem_pio2f+0x218>
 800f418:	44a6      	add	lr, r4
 800f41a:	1c63      	adds	r3, r4, #1
 800f41c:	4573      	cmp	r3, lr
 800f41e:	dc2f      	bgt.n	800f480 <__kernel_rem_pio2f+0x28c>
 800f420:	9a03      	ldr	r2, [sp, #12]
 800f422:	189d      	adds	r5, r3, r2
 800f424:	9a02      	ldr	r2, [sp, #8]
 800f426:	f105 4580 	add.w	r5, r5, #1073741824	; 0x40000000
 800f42a:	18a0      	adds	r0, r4, r2
 800f42c:	eb0e 0c02 	add.w	ip, lr, r2
 800f430:	9a65      	ldr	r2, [sp, #404]	; 0x194
 800f432:	3d01      	subs	r5, #1
 800f434:	eb02 0585 	add.w	r5, r2, r5, lsl #2
 800f438:	aa1a      	add	r2, sp, #104	; 0x68
 800f43a:	eb02 0080 	add.w	r0, r2, r0, lsl #2
 800f43e:	eb02 0c8c 	add.w	ip, r2, ip, lsl #2
 800f442:	aa42      	add	r2, sp, #264	; 0x108
 800f444:	eb02 0483 	add.w	r4, r2, r3, lsl #2
 800f448:	f855 3f04 	ldr.w	r3, [r5, #4]!
 800f44c:	ee07 3a90 	vmov	s15, r3
 800f450:	eef8 7ae7 	vcvt.f32.s32	s15, s15
 800f454:	2f00      	cmp	r7, #0
 800f456:	ece0 7a01 	vstmia	r0!, {s15}
 800f45a:	eddf 7a45 	vldr	s15, [pc, #276]	; 800f570 <__kernel_rem_pio2f+0x37c>
 800f45e:	db0b      	blt.n	800f478 <__kernel_rem_pio2f+0x284>
 800f460:	4652      	mov	r2, sl
 800f462:	eb00 0109 	add.w	r1, r0, r9
 800f466:	4603      	mov	r3, r0
 800f468:	ed33 7a01 	vldmdb	r3!, {s14}
 800f46c:	ecf2 6a01 	vldmia	r2!, {s13}
 800f470:	428b      	cmp	r3, r1
 800f472:	eee6 7a87 	vfma.f32	s15, s13, s14
 800f476:	d1f7      	bne.n	800f468 <__kernel_rem_pio2f+0x274>
 800f478:	4560      	cmp	r0, ip
 800f47a:	ece4 7a01 	vstmia	r4!, {s15}
 800f47e:	d1e3      	bne.n	800f448 <__kernel_rem_pio2f+0x254>
 800f480:	4674      	mov	r4, lr
 800f482:	e719      	b.n	800f2b8 <__kernel_rem_pio2f+0xc4>
 800f484:	eeb7 0a00 	vmov.f32	s0, #112	; 0x70
 800f488:	ee30 9a49 	vsub.f32	s18, s0, s18
 800f48c:	2800      	cmp	r0, #0
 800f48e:	d09f      	beq.n	800f3d0 <__kernel_rem_pio2f+0x1dc>
 800f490:	4658      	mov	r0, fp
 800f492:	9105      	str	r1, [sp, #20]
 800f494:	f000 faa8 	bl	800f9e8 <scalbnf>
 800f498:	ee39 9a40 	vsub.f32	s18, s18, s0
 800f49c:	9905      	ldr	r1, [sp, #20]
 800f49e:	eeb5 9a40 	vcmp.f32	s18, #0.0
 800f4a2:	eef1 fa10 	vmrs	APSR_nzcv, fpscr
 800f4a6:	d098      	beq.n	800f3da <__kernel_rem_pio2f+0x1e6>
 800f4a8:	eeb0 0a49 	vmov.f32	s0, s18
 800f4ac:	f1cb 0000 	rsb	r0, fp, #0
 800f4b0:	9102      	str	r1, [sp, #8]
 800f4b2:	f000 fa99 	bl	800f9e8 <scalbnf>
 800f4b6:	ed9f 7a2c 	vldr	s14, [pc, #176]	; 800f568 <__kernel_rem_pio2f+0x374>
 800f4ba:	9902      	ldr	r1, [sp, #8]
 800f4bc:	eeb4 0ac7 	vcmpe.f32	s0, s14
 800f4c0:	eef1 fa10 	vmrs	APSR_nzcv, fpscr
 800f4c4:	f2c0 817e 	blt.w	800f7c4 <__kernel_rem_pio2f+0x5d0>
 800f4c8:	eddf 7a26 	vldr	s15, [pc, #152]	; 800f564 <__kernel_rem_pio2f+0x370>
 800f4cc:	ee60 7a27 	vmul.f32	s15, s0, s15
 800f4d0:	a806      	add	r0, sp, #24
 800f4d2:	eefd 7ae7 	vcvt.s32.f32	s15, s15
 800f4d6:	1c63      	adds	r3, r4, #1
 800f4d8:	eef8 7ae7 	vcvt.f32.s32	s15, s15
 800f4dc:	f10b 0b08 	add.w	fp, fp, #8
 800f4e0:	eea7 0ac7 	vfms.f32	s0, s15, s14
 800f4e4:	eefd 7ae7 	vcvt.s32.f32	s15, s15
 800f4e8:	eebd 0ac0 	vcvt.s32.f32	s0, s0
 800f4ec:	ee10 2a10 	vmov	r2, s0
 800f4f0:	f840 2024 	str.w	r2, [r0, r4, lsl #2]
 800f4f4:	ee17 2a90 	vmov	r2, s15
 800f4f8:	f840 2023 	str.w	r2, [r0, r3, lsl #2]
 800f4fc:	4658      	mov	r0, fp
 800f4fe:	eeb7 0a00 	vmov.f32	s0, #112	; 0x70
 800f502:	9303      	str	r3, [sp, #12]
 800f504:	9102      	str	r1, [sp, #8]
 800f506:	f000 fa6f 	bl	800f9e8 <scalbnf>
 800f50a:	9b03      	ldr	r3, [sp, #12]
 800f50c:	9902      	ldr	r1, [sp, #8]
 800f50e:	2b00      	cmp	r3, #0
 800f510:	f2c0 80c7 	blt.w	800f6a2 <__kernel_rem_pio2f+0x4ae>
 800f514:	f103 0e01 	add.w	lr, r3, #1
 800f518:	ea4f 028e 	mov.w	r2, lr, lsl #2
 800f51c:	ac42      	add	r4, sp, #264	; 0x108
 800f51e:	a806      	add	r0, sp, #24
 800f520:	ed9f 7a10 	vldr	s14, [pc, #64]	; 800f564 <__kernel_rem_pio2f+0x370>
 800f524:	4410      	add	r0, r2
 800f526:	18a7      	adds	r7, r4, r2
 800f528:	ed70 7a01 	vldmdb	r0!, {s15}
 800f52c:	eef8 7ae7 	vcvt.f32.s32	s15, s15
 800f530:	ee67 7a80 	vmul.f32	s15, s15, s0
 800f534:	ee20 0a07 	vmul.f32	s0, s0, s14
 800f538:	ed67 7a01 	vstmdb	r7!, {s15}
 800f53c:	42a7      	cmp	r7, r4
 800f53e:	d1f3      	bne.n	800f528 <__kernel_rem_pio2f+0x334>
 800f540:	3a04      	subs	r2, #4
 800f542:	4417      	add	r7, r2
 800f544:	2500      	movs	r5, #0
 800f546:	2e00      	cmp	r6, #0
 800f548:	f2c0 80a8 	blt.w	800f69c <__kernel_rem_pio2f+0x4a8>
 800f54c:	2d00      	cmp	r5, #0
 800f54e:	f2c0 80a5 	blt.w	800f69c <__kernel_rem_pio2f+0x4a8>
 800f552:	4c06      	ldr	r4, [pc, #24]	; (800f56c <__kernel_rem_pio2f+0x378>)
 800f554:	eddf 7a06 	vldr	s15, [pc, #24]	; 800f570 <__kernel_rem_pio2f+0x37c>
 800f558:	4638      	mov	r0, r7
 800f55a:	2200      	movs	r2, #0
 800f55c:	e00c      	b.n	800f578 <__kernel_rem_pio2f+0x384>
 800f55e:	bf00      	nop
 800f560:	0801f240 	.word	0x0801f240
 800f564:	3b800000 	.word	0x3b800000
 800f568:	43800000 	.word	0x43800000
 800f56c:	0801f24c 	.word	0x0801f24c
 800f570:	00000000 	.word	0x00000000
 800f574:	42aa      	cmp	r2, r5
 800f576:	dc08      	bgt.n	800f58a <__kernel_rem_pio2f+0x396>
 800f578:	ecf4 6a01 	vldmia	r4!, {s13}
 800f57c:	ecb0 7a01 	vldmia	r0!, {s14}
 800f580:	3201      	adds	r2, #1
 800f582:	4296      	cmp	r6, r2
 800f584:	eee6 7a87 	vfma.f32	s15, s13, s14
 800f588:	daf4      	bge.n	800f574 <__kernel_rem_pio2f+0x380>
 800f58a:	aa56      	add	r2, sp, #344	; 0x158
 800f58c:	eb02 0285 	add.w	r2, r2, r5, lsl #2
 800f590:	3501      	adds	r5, #1
 800f592:	4575      	cmp	r5, lr
 800f594:	f1a7 0704 	sub.w	r7, r7, #4
 800f598:	ed42 7a28 	vstr	s15, [r2, #-160]	; 0xffffff60
 800f59c:	d1d3      	bne.n	800f546 <__kernel_rem_pio2f+0x352>
 800f59e:	9a64      	ldr	r2, [sp, #400]	; 0x190
 800f5a0:	2a03      	cmp	r2, #3
 800f5a2:	d85f      	bhi.n	800f664 <__kernel_rem_pio2f+0x470>
 800f5a4:	e8df f002 	tbb	[pc, r2]
 800f5a8:	b0373767 	.word	0xb0373767
 800f5ac:	d110      	bne.n	800f5d0 <__kernel_rem_pio2f+0x3dc>
 800f5ae:	1e63      	subs	r3, r4, #1
 800f5b0:	aa06      	add	r2, sp, #24
 800f5b2:	f852 1023 	ldr.w	r1, [r2, r3, lsl #2]
 800f5b6:	1209      	asrs	r1, r1, #8
 800f5b8:	e6ce      	b.n	800f358 <__kernel_rem_pio2f+0x164>
 800f5ba:	1e62      	subs	r2, r4, #1
 800f5bc:	ab06      	add	r3, sp, #24
 800f5be:	f10d 0e18 	add.w	lr, sp, #24
 800f5c2:	f853 3022 	ldr.w	r3, [r3, r2, lsl #2]
 800f5c6:	f003 037f 	and.w	r3, r3, #127	; 0x7f
 800f5ca:	f84e 3022 	str.w	r3, [lr, r2, lsl #2]
 800f5ce:	e6fd      	b.n	800f3cc <__kernel_rem_pio2f+0x1d8>
 800f5d0:	eef6 7a00 	vmov.f32	s15, #96	; 0x60
 800f5d4:	eeb4 9ae7 	vcmpe.f32	s18, s15
 800f5d8:	eef1 fa10 	vmrs	APSR_nzcv, fpscr
 800f5dc:	da0a      	bge.n	800f5f4 <__kernel_rem_pio2f+0x400>
 800f5de:	2100      	movs	r1, #0
 800f5e0:	e6f6      	b.n	800f3d0 <__kernel_rem_pio2f+0x1dc>
 800f5e2:	ed5f 7a1d 	vldr	s15, [pc, #-116]	; 800f570 <__kernel_rem_pio2f+0x37c>
 800f5e6:	3104      	adds	r1, #4
 800f5e8:	42a1      	cmp	r1, r4
 800f5ea:	ece0 7a01 	vstmia	r0!, {s15}
 800f5ee:	f47f ae3b 	bne.w	800f268 <__kernel_rem_pio2f+0x74>
 800f5f2:	e64d      	b.n	800f290 <__kernel_rem_pio2f+0x9c>
 800f5f4:	ee19 3a90 	vmov	r3, s19
 800f5f8:	2c00      	cmp	r4, #0
 800f5fa:	f103 0301 	add.w	r3, r3, #1
 800f5fe:	ee09 3a90 	vmov	s19, r3
 800f602:	bfc8      	it	gt
 800f604:	2102      	movgt	r1, #2
 800f606:	f73f aeb2 	bgt.w	800f36e <__kernel_rem_pio2f+0x17a>
 800f60a:	eef7 7a00 	vmov.f32	s15, #112	; 0x70
 800f60e:	ee37 9ac9 	vsub.f32	s18, s15, s18
 800f612:	2102      	movs	r1, #2
 800f614:	e6dc      	b.n	800f3d0 <__kernel_rem_pio2f+0x1dc>
 800f616:	aa2e      	add	r2, sp, #184	; 0xb8
 800f618:	ed5f 7a2b 	vldr	s15, [pc, #-172]	; 800f570 <__kernel_rem_pio2f+0x37c>
 800f61c:	eb02 0e8e 	add.w	lr, r2, lr, lsl #2
 800f620:	ed3e 7a01 	vldmdb	lr!, {s14}
 800f624:	4596      	cmp	lr, r2
 800f626:	ee77 7a87 	vadd.f32	s15, s15, s14
 800f62a:	d1f9      	bne.n	800f620 <__kernel_rem_pio2f+0x42c>
 800f62c:	2900      	cmp	r1, #0
 800f62e:	d043      	beq.n	800f6b8 <__kernel_rem_pio2f+0x4c4>
 800f630:	eddd 6a2e 	vldr	s13, [sp, #184]	; 0xb8
 800f634:	9a01      	ldr	r2, [sp, #4]
 800f636:	eeb1 7a67 	vneg.f32	s14, s15
 800f63a:	2b00      	cmp	r3, #0
 800f63c:	ee76 7ae7 	vsub.f32	s15, s13, s15
 800f640:	ed82 7a00 	vstr	s14, [r2]
 800f644:	dd09      	ble.n	800f65a <__kernel_rem_pio2f+0x466>
 800f646:	a82f      	add	r0, sp, #188	; 0xbc
 800f648:	2201      	movs	r2, #1
 800f64a:	ecb0 7a01 	vldmia	r0!, {s14}
 800f64e:	3201      	adds	r2, #1
 800f650:	4293      	cmp	r3, r2
 800f652:	ee77 7a87 	vadd.f32	s15, s15, s14
 800f656:	daf8      	bge.n	800f64a <__kernel_rem_pio2f+0x456>
 800f658:	b109      	cbz	r1, 800f65e <__kernel_rem_pio2f+0x46a>
 800f65a:	eef1 7a67 	vneg.f32	s15, s15
 800f65e:	9b01      	ldr	r3, [sp, #4]
 800f660:	edc3 7a01 	vstr	s15, [r3, #4]
 800f664:	ee19 3a90 	vmov	r3, s19
 800f668:	f003 0007 	and.w	r0, r3, #7
 800f66c:	b057      	add	sp, #348	; 0x15c
 800f66e:	ecbd 8b04 	vpop	{d8-d9}
 800f672:	e8bd 8ff0 	ldmia.w	sp!, {r4, r5, r6, r7, r8, r9, sl, fp, pc}
 800f676:	aa2e      	add	r2, sp, #184	; 0xb8
 800f678:	ed5f 7a43 	vldr	s15, [pc, #-268]	; 800f570 <__kernel_rem_pio2f+0x37c>
 800f67c:	eb02 0e8e 	add.w	lr, r2, lr, lsl #2
 800f680:	ed3e 7a01 	vldmdb	lr!, {s14}
 800f684:	3b01      	subs	r3, #1
 800f686:	1c5a      	adds	r2, r3, #1
 800f688:	ee77 7a87 	vadd.f32	s15, s15, s14
 800f68c:	d1f8      	bne.n	800f680 <__kernel_rem_pio2f+0x48c>
 800f68e:	b109      	cbz	r1, 800f694 <__kernel_rem_pio2f+0x4a0>
 800f690:	eef1 7a67 	vneg.f32	s15, s15
 800f694:	9b01      	ldr	r3, [sp, #4]
 800f696:	edc3 7a00 	vstr	s15, [r3]
 800f69a:	e7e3      	b.n	800f664 <__kernel_rem_pio2f+0x470>
 800f69c:	ed5f 7a4c 	vldr	s15, [pc, #-304]	; 800f570 <__kernel_rem_pio2f+0x37c>
 800f6a0:	e773      	b.n	800f58a <__kernel_rem_pio2f+0x396>
 800f6a2:	9a64      	ldr	r2, [sp, #400]	; 0x190
 800f6a4:	2a03      	cmp	r2, #3
 800f6a6:	d8dd      	bhi.n	800f664 <__kernel_rem_pio2f+0x470>
 800f6a8:	e8df f002 	tbb	[pc, r2]
 800f6ac:	80020213 	.word	0x80020213
 800f6b0:	ed5f 7a51 	vldr	s15, [pc, #-324]	; 800f570 <__kernel_rem_pio2f+0x37c>
 800f6b4:	2900      	cmp	r1, #0
 800f6b6:	d1bb      	bne.n	800f630 <__kernel_rem_pio2f+0x43c>
 800f6b8:	ed9d 7a2e 	vldr	s14, [sp, #184]	; 0xb8
 800f6bc:	9a01      	ldr	r2, [sp, #4]
 800f6be:	2b00      	cmp	r3, #0
 800f6c0:	edc2 7a00 	vstr	s15, [r2]
 800f6c4:	ee77 7a67 	vsub.f32	s15, s14, s15
 800f6c8:	dcbd      	bgt.n	800f646 <__kernel_rem_pio2f+0x452>
 800f6ca:	9b01      	ldr	r3, [sp, #4]
 800f6cc:	edc3 7a01 	vstr	s15, [r3, #4]
 800f6d0:	e7c8      	b.n	800f664 <__kernel_rem_pio2f+0x470>
 800f6d2:	ed5f 7a59 	vldr	s15, [pc, #-356]	; 800f570 <__kernel_rem_pio2f+0x37c>
 800f6d6:	e7da      	b.n	800f68e <__kernel_rem_pio2f+0x49a>
 800f6d8:	aa06      	add	r2, sp, #24
 800f6da:	f1ab 0b08 	sub.w	fp, fp, #8
 800f6de:	f852 2023 	ldr.w	r2, [r2, r3, lsl #2]
 800f6e2:	2a00      	cmp	r2, #0
 800f6e4:	f47f af0a 	bne.w	800f4fc <__kernel_rem_pio2f+0x308>
 800f6e8:	aa06      	add	r2, sp, #24
 800f6ea:	eb02 0283 	add.w	r2, r2, r3, lsl #2
 800f6ee:	f852 0d04 	ldr.w	r0, [r2, #-4]!
 800f6f2:	3b01      	subs	r3, #1
 800f6f4:	f1ab 0b08 	sub.w	fp, fp, #8
 800f6f8:	2800      	cmp	r0, #0
 800f6fa:	d0f8      	beq.n	800f6ee <__kernel_rem_pio2f+0x4fa>
 800f6fc:	e6fe      	b.n	800f4fc <__kernel_rem_pio2f+0x308>
 800f6fe:	f04f 0e01 	mov.w	lr, #1
 800f702:	e689      	b.n	800f418 <__kernel_rem_pio2f+0x224>
 800f704:	2000      	movs	r0, #0
 800f706:	e64d      	b.n	800f3a4 <__kernel_rem_pio2f+0x1b0>
 800f708:	2b00      	cmp	r3, #0
 800f70a:	dd4f      	ble.n	800f7ac <__kernel_rem_pio2f+0x5b8>
 800f70c:	009a      	lsls	r2, r3, #2
 800f70e:	a856      	add	r0, sp, #344	; 0x158
 800f710:	4410      	add	r0, r2
 800f712:	ad2e      	add	r5, sp, #184	; 0xb8
 800f714:	1d14      	adds	r4, r2, #4
 800f716:	ed10 7a28 	vldr	s14, [r0, #-160]	; 0xffffff60
 800f71a:	442c      	add	r4, r5
 800f71c:	18a8      	adds	r0, r5, r2
 800f71e:	ed70 7a01 	vldmdb	r0!, {s15}
 800f722:	ee77 6a27 	vadd.f32	s13, s14, s15
 800f726:	42a8      	cmp	r0, r5
 800f728:	ee77 7ae6 	vsub.f32	s15, s15, s13
 800f72c:	ee77 7a27 	vadd.f32	s15, s14, s15
 800f730:	eeb0 7a66 	vmov.f32	s14, s13
 800f734:	ed64 7a01 	vstmdb	r4!, {s15}
 800f738:	edc0 6a00 	vstr	s13, [r0]
 800f73c:	d1ef      	bne.n	800f71e <__kernel_rem_pio2f+0x52a>
 800f73e:	2b01      	cmp	r3, #1
 800f740:	dd34      	ble.n	800f7ac <__kernel_rem_pio2f+0x5b8>
 800f742:	1d13      	adds	r3, r2, #4
 800f744:	ac56      	add	r4, sp, #344	; 0x158
 800f746:	4414      	add	r4, r2
 800f748:	4403      	add	r3, r0
 800f74a:	ed14 7a28 	vldr	s14, [r4, #-160]	; 0xffffff60
 800f74e:	4402      	add	r2, r0
 800f750:	ac2f      	add	r4, sp, #188	; 0xbc
 800f752:	4618      	mov	r0, r3
 800f754:	ed72 7a01 	vldmdb	r2!, {s15}
 800f758:	ee77 6a87 	vadd.f32	s13, s15, s14
 800f75c:	42a2      	cmp	r2, r4
 800f75e:	ee77 7ae6 	vsub.f32	s15, s15, s13
 800f762:	ee77 7a87 	vadd.f32	s15, s15, s14
 800f766:	eeb0 7a66 	vmov.f32	s14, s13
 800f76a:	ed60 7a01 	vstmdb	r0!, {s15}
 800f76e:	edc2 6a00 	vstr	s13, [r2]
 800f772:	d1ef      	bne.n	800f754 <__kernel_rem_pio2f+0x560>
 800f774:	ed5f 7a82 	vldr	s15, [pc, #-520]	; 800f570 <__kernel_rem_pio2f+0x37c>
 800f778:	aa30      	add	r2, sp, #192	; 0xc0
 800f77a:	ed33 7a01 	vldmdb	r3!, {s14}
 800f77e:	4293      	cmp	r3, r2
 800f780:	ee77 7a87 	vadd.f32	s15, s15, s14
 800f784:	d1f9      	bne.n	800f77a <__kernel_rem_pio2f+0x586>
 800f786:	b1a9      	cbz	r1, 800f7b4 <__kernel_rem_pio2f+0x5c0>
 800f788:	eddd 6a2e 	vldr	s13, [sp, #184]	; 0xb8
 800f78c:	ed9d 7a2f 	vldr	s14, [sp, #188]	; 0xbc
 800f790:	9a01      	ldr	r2, [sp, #4]
 800f792:	eef1 7a67 	vneg.f32	s15, s15
 800f796:	eef1 6a66 	vneg.f32	s13, s13
 800f79a:	eeb1 7a47 	vneg.f32	s14, s14
 800f79e:	edc2 7a02 	vstr	s15, [r2, #8]
 800f7a2:	edc2 6a00 	vstr	s13, [r2]
 800f7a6:	ed82 7a01 	vstr	s14, [r2, #4]
 800f7aa:	e75b      	b.n	800f664 <__kernel_rem_pio2f+0x470>
 800f7ac:	ed5f 7a90 	vldr	s15, [pc, #-576]	; 800f570 <__kernel_rem_pio2f+0x37c>
 800f7b0:	2900      	cmp	r1, #0
 800f7b2:	d1e9      	bne.n	800f788 <__kernel_rem_pio2f+0x594>
 800f7b4:	9801      	ldr	r0, [sp, #4]
 800f7b6:	9a2e      	ldr	r2, [sp, #184]	; 0xb8
 800f7b8:	9b2f      	ldr	r3, [sp, #188]	; 0xbc
 800f7ba:	edc0 7a02 	vstr	s15, [r0, #8]
 800f7be:	6002      	str	r2, [r0, #0]
 800f7c0:	6043      	str	r3, [r0, #4]
 800f7c2:	e74f      	b.n	800f664 <__kernel_rem_pio2f+0x470>
 800f7c4:	eebd 0ac0 	vcvt.s32.f32	s0, s0
 800f7c8:	a806      	add	r0, sp, #24
 800f7ca:	ee10 2a10 	vmov	r2, s0
 800f7ce:	4623      	mov	r3, r4
 800f7d0:	f840 2024 	str.w	r2, [r0, r4, lsl #2]
 800f7d4:	e692      	b.n	800f4fc <__kernel_rem_pio2f+0x308>
$t():
 800f7d6:	bf00      	nop

0800f7d8 <__kernel_sinf>:
__kernel_sinf():
 800f7d8:	ee10 3a10 	vmov	r3, s0
 800f7dc:	f023 4300 	bic.w	r3, r3, #2147483648	; 0x80000000
 800f7e0:	f1b3 5f48 	cmp.w	r3, #838860800	; 0x32000000
 800f7e4:	da04      	bge.n	800f7f0 <__kernel_sinf+0x18>
 800f7e6:	eefd 7ac0 	vcvt.s32.f32	s15, s0
 800f7ea:	ee17 3a90 	vmov	r3, s15
 800f7ee:	b323      	cbz	r3, 800f83a <__kernel_sinf+0x62>
 800f7f0:	ee60 7a00 	vmul.f32	s15, s0, s0
 800f7f4:	ed9f 5a15 	vldr	s10, [pc, #84]	; 800f84c <__kernel_sinf+0x74>
 800f7f8:	eddf 5a15 	vldr	s11, [pc, #84]	; 800f850 <__kernel_sinf+0x78>
 800f7fc:	ed9f 6a15 	vldr	s12, [pc, #84]	; 800f854 <__kernel_sinf+0x7c>
 800f800:	eddf 6a15 	vldr	s13, [pc, #84]	; 800f858 <__kernel_sinf+0x80>
 800f804:	ed9f 7a15 	vldr	s14, [pc, #84]	; 800f85c <__kernel_sinf+0x84>
 800f808:	eee7 5a85 	vfma.f32	s11, s15, s10
 800f80c:	ee27 5a80 	vmul.f32	s10, s15, s0
 800f810:	eea5 6aa7 	vfma.f32	s12, s11, s15
 800f814:	eee6 6a27 	vfma.f32	s13, s12, s15
 800f818:	eea6 7aa7 	vfma.f32	s14, s13, s15
 800f81c:	b170      	cbz	r0, 800f83c <__kernel_sinf+0x64>
 800f81e:	ee27 7a45 	vnmul.f32	s14, s14, s10
 800f822:	eef6 6a00 	vmov.f32	s13, #96	; 0x60
 800f826:	eea0 7aa6 	vfma.f32	s14, s1, s13
 800f82a:	eddf 6a0d 	vldr	s13, [pc, #52]	; 800f860 <__kernel_sinf+0x88>
 800f82e:	eed7 0a27 	vfnms.f32	s1, s14, s15
 800f832:	eee5 0a26 	vfma.f32	s1, s10, s13
 800f836:	ee30 0a60 	vsub.f32	s0, s0, s1
 800f83a:	4770      	bx	lr
 800f83c:	eddf 6a09 	vldr	s13, [pc, #36]	; 800f864 <__kernel_sinf+0x8c>
 800f840:	eee7 6a87 	vfma.f32	s13, s15, s14
 800f844:	eea6 0a85 	vfma.f32	s0, s13, s10
 800f848:	4770      	bx	lr
 800f84a:	bf00      	nop
 800f84c:	2f2ec9d3 	.word	0x2f2ec9d3
 800f850:	b2d72f34 	.word	0xb2d72f34
 800f854:	3638ef1b 	.word	0x3638ef1b
 800f858:	b9500d01 	.word	0xb9500d01
 800f85c:	3c088889 	.word	0x3c088889
 800f860:	3e2aaaab 	.word	0x3e2aaaab
 800f864:	be2aaaab 	.word	0xbe2aaaab

0800f868 <matherr>:
matherr():
 800f868:	2000      	movs	r0, #0
 800f86a:	4770      	bx	lr

0800f86c <rint>:
rint():
 800f86c:	b5f0      	push	{r4, r5, r6, r7, lr}
 800f86e:	ec51 0b10 	vmov	r0, r1, d0
 800f872:	f3c1 560a 	ubfx	r6, r1, #20, #11
 800f876:	f2a6 32ff 	subw	r2, r6, #1023	; 0x3ff
 800f87a:	2a13      	cmp	r2, #19
 800f87c:	b083      	sub	sp, #12
 800f87e:	460b      	mov	r3, r1
 800f880:	ee10 7a10 	vmov	r7, s0
 800f884:	ea4f 74d1 	mov.w	r4, r1, lsr #31
 800f888:	4605      	mov	r5, r0
 800f88a:	dc2f      	bgt.n	800f8ec <rint+0x80>
 800f88c:	2a00      	cmp	r2, #0
 800f88e:	db48      	blt.n	800f922 <rint+0xb6>
 800f890:	4e3d      	ldr	r6, [pc, #244]	; (800f988 <rint+0x11c>)
 800f892:	4116      	asrs	r6, r2
 800f894:	ea06 0701 	and.w	r7, r6, r1
 800f898:	4307      	orrs	r7, r0
 800f89a:	d02c      	beq.n	800f8f6 <rint+0x8a>
 800f89c:	0876      	lsrs	r6, r6, #1
 800f89e:	4031      	ands	r1, r6
 800f8a0:	430d      	orrs	r5, r1
 800f8a2:	d00c      	beq.n	800f8be <rint+0x52>
 800f8a4:	f44f 2180 	mov.w	r1, #262144	; 0x40000
 800f8a8:	2a13      	cmp	r2, #19
 800f8aa:	ea23 0606 	bic.w	r6, r3, r6
 800f8ae:	fa41 f302 	asr.w	r3, r1, r2
 800f8b2:	ea43 0306 	orr.w	r3, r3, r6
 800f8b6:	bf0c      	ite	eq
 800f8b8:	f04f 4500 	moveq.w	r5, #2147483648	; 0x80000000
 800f8bc:	2500      	movne	r5, #0
 800f8be:	4a33      	ldr	r2, [pc, #204]	; (800f98c <rint+0x120>)
 800f8c0:	eb02 04c4 	add.w	r4, r2, r4, lsl #3
 800f8c4:	4628      	mov	r0, r5
 800f8c6:	e9d4 4500 	ldrd	r4, r5, [r4]
 800f8ca:	4602      	mov	r2, r0
 800f8cc:	4629      	mov	r1, r5
 800f8ce:	4620      	mov	r0, r4
 800f8d0:	f7f0 fc8e 	bl	80001f0 <__adddf3>
 800f8d4:	e9cd 0100 	strd	r0, r1, [sp]
 800f8d8:	4622      	mov	r2, r4
 800f8da:	462b      	mov	r3, r5
 800f8dc:	e9dd 0100 	ldrd	r0, r1, [sp]
 800f8e0:	f7f0 fc84 	bl	80001ec <__aeabi_dsub>
 800f8e4:	ec41 0b10 	vmov	d0, r0, r1
 800f8e8:	b003      	add	sp, #12
 800f8ea:	bdf0      	pop	{r4, r5, r6, r7, pc}
 800f8ec:	2a33      	cmp	r2, #51	; 0x33
 800f8ee:	dd06      	ble.n	800f8fe <rint+0x92>
 800f8f0:	f5b2 6f80 	cmp.w	r2, #1024	; 0x400
 800f8f4:	d03f      	beq.n	800f976 <rint+0x10a>
 800f8f6:	ec41 0b10 	vmov	d0, r0, r1
 800f8fa:	b003      	add	sp, #12
 800f8fc:	bdf0      	pop	{r4, r5, r6, r7, pc}
 800f8fe:	f2a6 4613 	subw	r6, r6, #1043	; 0x413
 800f902:	f04f 32ff 	mov.w	r2, #4294967295
 800f906:	40f2      	lsrs	r2, r6
 800f908:	4202      	tst	r2, r0
 800f90a:	d0f4      	beq.n	800f8f6 <rint+0x8a>
 800f90c:	0852      	lsrs	r2, r2, #1
 800f90e:	4202      	tst	r2, r0
 800f910:	d0d5      	beq.n	800f8be <rint+0x52>
 800f912:	f04f 4180 	mov.w	r1, #1073741824	; 0x40000000
 800f916:	ea27 0202 	bic.w	r2, r7, r2
 800f91a:	fa41 f506 	asr.w	r5, r1, r6
 800f91e:	4315      	orrs	r5, r2
 800f920:	e7cd      	b.n	800f8be <rint+0x52>
 800f922:	f021 4200 	bic.w	r2, r1, #2147483648	; 0x80000000
 800f926:	4302      	orrs	r2, r0
 800f928:	d0e5      	beq.n	800f8f6 <rint+0x8a>
 800f92a:	f3c1 0213 	ubfx	r2, r1, #0, #20
 800f92e:	4317      	orrs	r7, r2
 800f930:	427a      	negs	r2, r7
 800f932:	4317      	orrs	r7, r2
 800f934:	4a15      	ldr	r2, [pc, #84]	; (800f98c <rint+0x120>)
 800f936:	0c4b      	lsrs	r3, r1, #17
 800f938:	0b3f      	lsrs	r7, r7, #12
 800f93a:	045b      	lsls	r3, r3, #17
 800f93c:	f407 2700 	and.w	r7, r7, #524288	; 0x80000
 800f940:	eb02 02c4 	add.w	r2, r2, r4, lsl #3
 800f944:	ea47 0103 	orr.w	r1, r7, r3
 800f948:	e9d2 6700 	ldrd	r6, r7, [r2]
 800f94c:	460b      	mov	r3, r1
 800f94e:	4602      	mov	r2, r0
 800f950:	4639      	mov	r1, r7
 800f952:	4630      	mov	r0, r6
 800f954:	f7f0 fc4c 	bl	80001f0 <__adddf3>
 800f958:	e9cd 0100 	strd	r0, r1, [sp]
 800f95c:	463b      	mov	r3, r7
 800f95e:	4632      	mov	r2, r6
 800f960:	e9dd 0100 	ldrd	r0, r1, [sp]
 800f964:	f7f0 fc42 	bl	80001ec <__aeabi_dsub>
 800f968:	f021 4300 	bic.w	r3, r1, #2147483648	; 0x80000000
 800f96c:	ea43 71c4 	orr.w	r1, r3, r4, lsl #31
 800f970:	ec41 0b10 	vmov	d0, r0, r1
 800f974:	e7c1      	b.n	800f8fa <rint+0x8e>
 800f976:	ee10 2a10 	vmov	r2, s0
 800f97a:	460b      	mov	r3, r1
 800f97c:	f7f0 fc38 	bl	80001f0 <__adddf3>
 800f980:	ec41 0b10 	vmov	d0, r0, r1
 800f984:	e7b9      	b.n	800f8fa <rint+0x8e>
 800f986:	bf00      	nop
 800f988:	000fffff 	.word	0x000fffff
 800f98c:	0801f278 	.word	0x0801f278

0800f990 <finitef>:
finitef():
 800f990:	ee10 3a10 	vmov	r3, s0
 800f994:	f023 4000 	bic.w	r0, r3, #2147483648	; 0x80000000
 800f998:	f1b0 4fff 	cmp.w	r0, #2139095040	; 0x7f800000
 800f99c:	bfac      	ite	ge
 800f99e:	2000      	movge	r0, #0
 800f9a0:	2001      	movlt	r0, #1
 800f9a2:	4770      	bx	lr

0800f9a4 <__fpclassifyf>:
__fpclassifyf():
 800f9a4:	ee10 3a10 	vmov	r3, s0
 800f9a8:	f033 4000 	bics.w	r0, r3, #2147483648	; 0x80000000
 800f9ac:	d101      	bne.n	800f9b2 <__fpclassifyf+0xe>
 800f9ae:	2002      	movs	r0, #2
 800f9b0:	4770      	bx	lr
 800f9b2:	f5a0 0300 	sub.w	r3, r0, #8388608	; 0x800000
 800f9b6:	f1b3 4ffe 	cmp.w	r3, #2130706432	; 0x7f000000
 800f9ba:	d201      	bcs.n	800f9c0 <__fpclassifyf+0x1c>
 800f9bc:	2004      	movs	r0, #4
 800f9be:	4770      	bx	lr
 800f9c0:	4b05      	ldr	r3, [pc, #20]	; (800f9d8 <__fpclassifyf+0x34>)
 800f9c2:	1e42      	subs	r2, r0, #1
 800f9c4:	429a      	cmp	r2, r3
 800f9c6:	d801      	bhi.n	800f9cc <__fpclassifyf+0x28>
 800f9c8:	2003      	movs	r0, #3
 800f9ca:	4770      	bx	lr
 800f9cc:	f1a0 40ff 	sub.w	r0, r0, #2139095040	; 0x7f800000
 800f9d0:	fab0 f080 	clz	r0, r0
 800f9d4:	0940      	lsrs	r0, r0, #5
 800f9d6:	4770      	bx	lr
 800f9d8:	007ffffe 	.word	0x007ffffe

0800f9dc <nanf>:
nanf():
 800f9dc:	ed9f 0a01 	vldr	s0, [pc, #4]	; 800f9e4 <nanf+0x8>
 800f9e0:	4770      	bx	lr
 800f9e2:	bf00      	nop
 800f9e4:	7fc00000 	.word	0x7fc00000

0800f9e8 <scalbnf>:
scalbnf():
 800f9e8:	b508      	push	{r3, lr}
 800f9ea:	ee10 3a10 	vmov	r3, s0
 800f9ee:	f033 4200 	bics.w	r2, r3, #2147483648	; 0x80000000
 800f9f2:	ed2d 8b02 	vpush	{d8}
 800f9f6:	d011      	beq.n	800fa1c <scalbnf+0x34>
 800f9f8:	f1b2 4fff 	cmp.w	r2, #2139095040	; 0x7f800000
 800f9fc:	d211      	bcs.n	800fa22 <scalbnf+0x3a>
 800f9fe:	f5b2 0f00 	cmp.w	r2, #8388608	; 0x800000
 800fa02:	d313      	bcc.n	800fa2c <scalbnf+0x44>
 800fa04:	0dd2      	lsrs	r2, r2, #23
 800fa06:	4402      	add	r2, r0
 800fa08:	2afe      	cmp	r2, #254	; 0xfe
 800fa0a:	dc2e      	bgt.n	800fa6a <scalbnf+0x82>
 800fa0c:	2a00      	cmp	r2, #0
 800fa0e:	dd1a      	ble.n	800fa46 <scalbnf+0x5e>
 800fa10:	f023 43ff 	bic.w	r3, r3, #2139095040	; 0x7f800000
 800fa14:	ea43 53c2 	orr.w	r3, r3, r2, lsl #23
 800fa18:	ee00 3a10 	vmov	s0, r3
 800fa1c:	ecbd 8b02 	vpop	{d8}
 800fa20:	bd08      	pop	{r3, pc}
 800fa22:	ecbd 8b02 	vpop	{d8}
 800fa26:	ee30 0a00 	vadd.f32	s0, s0, s0
 800fa2a:	bd08      	pop	{r3, pc}
 800fa2c:	4b1d      	ldr	r3, [pc, #116]	; (800faa4 <scalbnf+0xbc>)
 800fa2e:	eddf 7a1e 	vldr	s15, [pc, #120]	; 800faa8 <scalbnf+0xc0>
 800fa32:	4298      	cmp	r0, r3
 800fa34:	ee20 0a27 	vmul.f32	s0, s0, s15
 800fa38:	db22      	blt.n	800fa80 <scalbnf+0x98>
 800fa3a:	ee10 3a10 	vmov	r3, s0
 800fa3e:	f3c3 52c7 	ubfx	r2, r3, #23, #8
 800fa42:	3a19      	subs	r2, #25
 800fa44:	e7df      	b.n	800fa06 <scalbnf+0x1e>
 800fa46:	f112 0f16 	cmn.w	r2, #22
 800fa4a:	da1e      	bge.n	800fa8a <scalbnf+0xa2>
 800fa4c:	f24c 3350 	movw	r3, #50000	; 0xc350
 800fa50:	4298      	cmp	r0, r3
 800fa52:	dc0a      	bgt.n	800fa6a <scalbnf+0x82>
 800fa54:	ed9f 8a15 	vldr	s16, [pc, #84]	; 800faac <scalbnf+0xc4>
 800fa58:	eef0 0a40 	vmov.f32	s1, s0
 800fa5c:	eeb0 0a48 	vmov.f32	s0, s16
 800fa60:	f000 f82a 	bl	800fab8 <copysignf>
 800fa64:	ee20 0a08 	vmul.f32	s0, s0, s16
 800fa68:	e7d8      	b.n	800fa1c <scalbnf+0x34>
 800fa6a:	ed9f 8a11 	vldr	s16, [pc, #68]	; 800fab0 <scalbnf+0xc8>
 800fa6e:	eef0 0a40 	vmov.f32	s1, s0
 800fa72:	eeb0 0a48 	vmov.f32	s0, s16
 800fa76:	f000 f81f 	bl	800fab8 <copysignf>
 800fa7a:	ee20 0a08 	vmul.f32	s0, s0, s16
 800fa7e:	e7cd      	b.n	800fa1c <scalbnf+0x34>
 800fa80:	eddf 0a0a 	vldr	s1, [pc, #40]	; 800faac <scalbnf+0xc4>
 800fa84:	ee20 0a20 	vmul.f32	s0, s0, s1
 800fa88:	e7c8      	b.n	800fa1c <scalbnf+0x34>
 800fa8a:	3219      	adds	r2, #25
 800fa8c:	f023 43ff 	bic.w	r3, r3, #2139095040	; 0x7f800000
 800fa90:	ea43 53c2 	orr.w	r3, r3, r2, lsl #23
 800fa94:	eddf 7a07 	vldr	s15, [pc, #28]	; 800fab4 <scalbnf+0xcc>
 800fa98:	ee00 3a10 	vmov	s0, r3
 800fa9c:	ee20 0a27 	vmul.f32	s0, s0, s15
 800faa0:	e7bc      	b.n	800fa1c <scalbnf+0x34>
 800faa2:	bf00      	nop
 800faa4:	ffff3cb0 	.word	0xffff3cb0
 800faa8:	4c000000 	.word	0x4c000000
 800faac:	0da24260 	.word	0x0da24260
 800fab0:	7149f2ca 	.word	0x7149f2ca
 800fab4:	33000000 	.word	0x33000000

0800fab8 <copysignf>:
copysignf():
 800fab8:	ee10 3a10 	vmov	r3, s0
 800fabc:	f023 4200 	bic.w	r2, r3, #2147483648	; 0x80000000
 800fac0:	ee10 3a90 	vmov	r3, s1
 800fac4:	f003 4300 	and.w	r3, r3, #2147483648	; 0x80000000
 800fac8:	4313      	orrs	r3, r2
 800faca:	ee00 3a10 	vmov	s0, r3
 800face:	4770      	bx	lr

0800fad0 <__libc_init_array>:
__libc_init_array():
 800fad0:	b570      	push	{r4, r5, r6, lr}
 800fad2:	4e0f      	ldr	r6, [pc, #60]	; (800fb10 <__libc_init_array+0x40>)
 800fad4:	4d0f      	ldr	r5, [pc, #60]	; (800fb14 <__libc_init_array+0x44>)
 800fad6:	1b76      	subs	r6, r6, r5
 800fad8:	10b6      	asrs	r6, r6, #2
 800fada:	bf18      	it	ne
 800fadc:	2400      	movne	r4, #0
 800fade:	d005      	beq.n	800faec <__libc_init_array+0x1c>
 800fae0:	3401      	adds	r4, #1
 800fae2:	f855 3b04 	ldr.w	r3, [r5], #4
 800fae6:	4798      	blx	r3
 800fae8:	42a6      	cmp	r6, r4
 800faea:	d1f9      	bne.n	800fae0 <__libc_init_array+0x10>
 800faec:	4e0a      	ldr	r6, [pc, #40]	; (800fb18 <__libc_init_array+0x48>)
 800faee:	4d0b      	ldr	r5, [pc, #44]	; (800fb1c <__libc_init_array+0x4c>)
 800faf0:	1b76      	subs	r6, r6, r5
 800faf2:	f000 fced 	bl	80104d0 <_init>
 800faf6:	10b6      	asrs	r6, r6, #2
 800faf8:	bf18      	it	ne
 800fafa:	2400      	movne	r4, #0
 800fafc:	d006      	beq.n	800fb0c <__libc_init_array+0x3c>
 800fafe:	3401      	adds	r4, #1
 800fb00:	f855 3b04 	ldr.w	r3, [r5], #4
 800fb04:	4798      	blx	r3
 800fb06:	42a6      	cmp	r6, r4
 800fb08:	d1f9      	bne.n	800fafe <__libc_init_array+0x2e>
 800fb0a:	bd70      	pop	{r4, r5, r6, pc}
 800fb0c:	bd70      	pop	{r4, r5, r6, pc}
 800fb0e:	bf00      	nop
 800fb10:	0801f290 	.word	0x0801f290
 800fb14:	0801f290 	.word	0x0801f290
 800fb18:	0801f298 	.word	0x0801f298
 800fb1c:	0801f290 	.word	0x0801f290

0800fb20 <malloc>:
malloc():
 800fb20:	4b02      	ldr	r3, [pc, #8]	; (800fb2c <malloc+0xc>)
 800fb22:	4601      	mov	r1, r0
 800fb24:	6818      	ldr	r0, [r3, #0]
 800fb26:	f000 b80b 	b.w	800fb40 <_malloc_r>
 800fb2a:	bf00      	nop
 800fb2c:	200004a0 	.word	0x200004a0

0800fb30 <free>:
free():
 800fb30:	4b02      	ldr	r3, [pc, #8]	; (800fb3c <free+0xc>)
 800fb32:	4601      	mov	r1, r0
 800fb34:	6818      	ldr	r0, [r3, #0]
 800fb36:	f000 bb93 	b.w	8010260 <_free_r>
 800fb3a:	bf00      	nop
 800fb3c:	200004a0 	.word	0x200004a0

0800fb40 <_malloc_r>:
_malloc_r():
 800fb40:	e92d 4ff0 	stmdb	sp!, {r4, r5, r6, r7, r8, r9, sl, fp, lr}
 800fb44:	f101 050b 	add.w	r5, r1, #11
 800fb48:	2d16      	cmp	r5, #22
 800fb4a:	b083      	sub	sp, #12
 800fb4c:	4606      	mov	r6, r0
 800fb4e:	d927      	bls.n	800fba0 <_malloc_r+0x60>
 800fb50:	f035 0507 	bics.w	r5, r5, #7
 800fb54:	f100 80b6 	bmi.w	800fcc4 <_malloc_r+0x184>
 800fb58:	42a9      	cmp	r1, r5
 800fb5a:	f200 80b3 	bhi.w	800fcc4 <_malloc_r+0x184>
 800fb5e:	f000 facb 	bl	80100f8 <__malloc_lock>
 800fb62:	f5b5 7ffc 	cmp.w	r5, #504	; 0x1f8
 800fb66:	d222      	bcs.n	800fbae <_malloc_r+0x6e>
 800fb68:	4fc2      	ldr	r7, [pc, #776]	; (800fe74 <_malloc_r+0x334>)
 800fb6a:	08e8      	lsrs	r0, r5, #3
 800fb6c:	eb07 03c0 	add.w	r3, r7, r0, lsl #3
 800fb70:	68dc      	ldr	r4, [r3, #12]
 800fb72:	429c      	cmp	r4, r3
 800fb74:	f000 81c9 	beq.w	800ff0a <_malloc_r+0x3ca>
 800fb78:	6863      	ldr	r3, [r4, #4]
 800fb7a:	68e1      	ldr	r1, [r4, #12]
 800fb7c:	68a5      	ldr	r5, [r4, #8]
 800fb7e:	f023 0303 	bic.w	r3, r3, #3
 800fb82:	4423      	add	r3, r4
 800fb84:	4630      	mov	r0, r6
 800fb86:	685a      	ldr	r2, [r3, #4]
 800fb88:	60e9      	str	r1, [r5, #12]
 800fb8a:	f042 0201 	orr.w	r2, r2, #1
 800fb8e:	608d      	str	r5, [r1, #8]
 800fb90:	605a      	str	r2, [r3, #4]
 800fb92:	f000 fab3 	bl	80100fc <__malloc_unlock>
 800fb96:	3408      	adds	r4, #8
 800fb98:	4620      	mov	r0, r4
 800fb9a:	b003      	add	sp, #12
 800fb9c:	e8bd 8ff0 	ldmia.w	sp!, {r4, r5, r6, r7, r8, r9, sl, fp, pc}
 800fba0:	2910      	cmp	r1, #16
 800fba2:	f200 808f 	bhi.w	800fcc4 <_malloc_r+0x184>
 800fba6:	f000 faa7 	bl	80100f8 <__malloc_lock>
 800fbaa:	2510      	movs	r5, #16
 800fbac:	e7dc      	b.n	800fb68 <_malloc_r+0x28>
 800fbae:	0a68      	lsrs	r0, r5, #9
 800fbb0:	f000 808f 	beq.w	800fcd2 <_malloc_r+0x192>
 800fbb4:	2804      	cmp	r0, #4
 800fbb6:	f200 8154 	bhi.w	800fe62 <_malloc_r+0x322>
 800fbba:	09a8      	lsrs	r0, r5, #6
 800fbbc:	3038      	adds	r0, #56	; 0x38
 800fbbe:	0041      	lsls	r1, r0, #1
 800fbc0:	4fac      	ldr	r7, [pc, #688]	; (800fe74 <_malloc_r+0x334>)
 800fbc2:	eb07 0181 	add.w	r1, r7, r1, lsl #2
 800fbc6:	68cc      	ldr	r4, [r1, #12]
 800fbc8:	42a1      	cmp	r1, r4
 800fbca:	d106      	bne.n	800fbda <_malloc_r+0x9a>
 800fbcc:	e00c      	b.n	800fbe8 <_malloc_r+0xa8>
 800fbce:	2a00      	cmp	r2, #0
 800fbd0:	f280 8082 	bge.w	800fcd8 <_malloc_r+0x198>
 800fbd4:	68e4      	ldr	r4, [r4, #12]
 800fbd6:	42a1      	cmp	r1, r4
 800fbd8:	d006      	beq.n	800fbe8 <_malloc_r+0xa8>
 800fbda:	6863      	ldr	r3, [r4, #4]
 800fbdc:	f023 0303 	bic.w	r3, r3, #3
 800fbe0:	1b5a      	subs	r2, r3, r5
 800fbe2:	2a0f      	cmp	r2, #15
 800fbe4:	ddf3      	ble.n	800fbce <_malloc_r+0x8e>
 800fbe6:	3801      	subs	r0, #1
 800fbe8:	3001      	adds	r0, #1
 800fbea:	49a2      	ldr	r1, [pc, #648]	; (800fe74 <_malloc_r+0x334>)
 800fbec:	693c      	ldr	r4, [r7, #16]
 800fbee:	f101 0e08 	add.w	lr, r1, #8
 800fbf2:	4574      	cmp	r4, lr
 800fbf4:	f000 817e 	beq.w	800fef4 <_malloc_r+0x3b4>
 800fbf8:	6863      	ldr	r3, [r4, #4]
 800fbfa:	f023 0303 	bic.w	r3, r3, #3
 800fbfe:	1b5a      	subs	r2, r3, r5
 800fc00:	2a0f      	cmp	r2, #15
 800fc02:	f300 8164 	bgt.w	800fece <_malloc_r+0x38e>
 800fc06:	2a00      	cmp	r2, #0
 800fc08:	f8c1 e014 	str.w	lr, [r1, #20]
 800fc0c:	f8c1 e010 	str.w	lr, [r1, #16]
 800fc10:	da73      	bge.n	800fcfa <_malloc_r+0x1ba>
 800fc12:	f5b3 7f00 	cmp.w	r3, #512	; 0x200
 800fc16:	f080 8139 	bcs.w	800fe8c <_malloc_r+0x34c>
 800fc1a:	08db      	lsrs	r3, r3, #3
 800fc1c:	eb01 08c3 	add.w	r8, r1, r3, lsl #3
 800fc20:	ea4f 0ca3 	mov.w	ip, r3, asr #2
 800fc24:	684a      	ldr	r2, [r1, #4]
 800fc26:	f8d8 9008 	ldr.w	r9, [r8, #8]
 800fc2a:	f8c4 9008 	str.w	r9, [r4, #8]
 800fc2e:	2301      	movs	r3, #1
 800fc30:	fa03 f30c 	lsl.w	r3, r3, ip
 800fc34:	4313      	orrs	r3, r2
 800fc36:	f8c4 800c 	str.w	r8, [r4, #12]
 800fc3a:	604b      	str	r3, [r1, #4]
 800fc3c:	f8c8 4008 	str.w	r4, [r8, #8]
 800fc40:	f8c9 400c 	str.w	r4, [r9, #12]
 800fc44:	1082      	asrs	r2, r0, #2
 800fc46:	2401      	movs	r4, #1
 800fc48:	4094      	lsls	r4, r2
 800fc4a:	429c      	cmp	r4, r3
 800fc4c:	d862      	bhi.n	800fd14 <_malloc_r+0x1d4>
 800fc4e:	4223      	tst	r3, r4
 800fc50:	d106      	bne.n	800fc60 <_malloc_r+0x120>
 800fc52:	f020 0003 	bic.w	r0, r0, #3
 800fc56:	0064      	lsls	r4, r4, #1
 800fc58:	4223      	tst	r3, r4
 800fc5a:	f100 0004 	add.w	r0, r0, #4
 800fc5e:	d0fa      	beq.n	800fc56 <_malloc_r+0x116>
 800fc60:	eb07 08c0 	add.w	r8, r7, r0, lsl #3
 800fc64:	46c4      	mov	ip, r8
 800fc66:	4681      	mov	r9, r0
 800fc68:	f8dc 300c 	ldr.w	r3, [ip, #12]
 800fc6c:	459c      	cmp	ip, r3
 800fc6e:	d107      	bne.n	800fc80 <_malloc_r+0x140>
 800fc70:	e142      	b.n	800fef8 <_malloc_r+0x3b8>
 800fc72:	2900      	cmp	r1, #0
 800fc74:	f280 8152 	bge.w	800ff1c <_malloc_r+0x3dc>
 800fc78:	68db      	ldr	r3, [r3, #12]
 800fc7a:	459c      	cmp	ip, r3
 800fc7c:	f000 813c 	beq.w	800fef8 <_malloc_r+0x3b8>
 800fc80:	685a      	ldr	r2, [r3, #4]
 800fc82:	f022 0203 	bic.w	r2, r2, #3
 800fc86:	1b51      	subs	r1, r2, r5
 800fc88:	290f      	cmp	r1, #15
 800fc8a:	ddf2      	ble.n	800fc72 <_malloc_r+0x132>
 800fc8c:	461c      	mov	r4, r3
 800fc8e:	f8d3 c00c 	ldr.w	ip, [r3, #12]
 800fc92:	f854 8f08 	ldr.w	r8, [r4, #8]!
 800fc96:	195a      	adds	r2, r3, r5
 800fc98:	f045 0901 	orr.w	r9, r5, #1
 800fc9c:	f041 0501 	orr.w	r5, r1, #1
 800fca0:	f8c3 9004 	str.w	r9, [r3, #4]
 800fca4:	4630      	mov	r0, r6
 800fca6:	f8c8 c00c 	str.w	ip, [r8, #12]
 800fcaa:	f8cc 8008 	str.w	r8, [ip, #8]
 800fcae:	617a      	str	r2, [r7, #20]
 800fcb0:	613a      	str	r2, [r7, #16]
 800fcb2:	f8c2 e00c 	str.w	lr, [r2, #12]
 800fcb6:	f8c2 e008 	str.w	lr, [r2, #8]
 800fcba:	6055      	str	r5, [r2, #4]
 800fcbc:	5051      	str	r1, [r2, r1]
 800fcbe:	f000 fa1d 	bl	80100fc <__malloc_unlock>
 800fcc2:	e769      	b.n	800fb98 <_malloc_r+0x58>
 800fcc4:	2400      	movs	r4, #0
 800fcc6:	230c      	movs	r3, #12
 800fcc8:	4620      	mov	r0, r4
 800fcca:	6033      	str	r3, [r6, #0]
 800fccc:	b003      	add	sp, #12
 800fcce:	e8bd 8ff0 	ldmia.w	sp!, {r4, r5, r6, r7, r8, r9, sl, fp, pc}
 800fcd2:	217e      	movs	r1, #126	; 0x7e
 800fcd4:	203f      	movs	r0, #63	; 0x3f
 800fcd6:	e773      	b.n	800fbc0 <_malloc_r+0x80>
 800fcd8:	4423      	add	r3, r4
 800fcda:	68e1      	ldr	r1, [r4, #12]
 800fcdc:	685a      	ldr	r2, [r3, #4]
 800fcde:	68a5      	ldr	r5, [r4, #8]
 800fce0:	f042 0201 	orr.w	r2, r2, #1
 800fce4:	60e9      	str	r1, [r5, #12]
 800fce6:	4630      	mov	r0, r6
 800fce8:	608d      	str	r5, [r1, #8]
 800fcea:	605a      	str	r2, [r3, #4]
 800fcec:	f000 fa06 	bl	80100fc <__malloc_unlock>
 800fcf0:	3408      	adds	r4, #8
 800fcf2:	4620      	mov	r0, r4
 800fcf4:	b003      	add	sp, #12
 800fcf6:	e8bd 8ff0 	ldmia.w	sp!, {r4, r5, r6, r7, r8, r9, sl, fp, pc}
 800fcfa:	4423      	add	r3, r4
 800fcfc:	4630      	mov	r0, r6
 800fcfe:	685a      	ldr	r2, [r3, #4]
 800fd00:	f042 0201 	orr.w	r2, r2, #1
 800fd04:	605a      	str	r2, [r3, #4]
 800fd06:	f000 f9f9 	bl	80100fc <__malloc_unlock>
 800fd0a:	3408      	adds	r4, #8
 800fd0c:	4620      	mov	r0, r4
 800fd0e:	b003      	add	sp, #12
 800fd10:	e8bd 8ff0 	ldmia.w	sp!, {r4, r5, r6, r7, r8, r9, sl, fp, pc}
 800fd14:	68bc      	ldr	r4, [r7, #8]
 800fd16:	6863      	ldr	r3, [r4, #4]
 800fd18:	f023 0803 	bic.w	r8, r3, #3
 800fd1c:	4545      	cmp	r5, r8
 800fd1e:	d804      	bhi.n	800fd2a <_malloc_r+0x1ea>
 800fd20:	ebc5 0308 	rsb	r3, r5, r8
 800fd24:	2b0f      	cmp	r3, #15
 800fd26:	f300 808c 	bgt.w	800fe42 <_malloc_r+0x302>
 800fd2a:	4b53      	ldr	r3, [pc, #332]	; (800fe78 <_malloc_r+0x338>)
 800fd2c:	f8df a158 	ldr.w	sl, [pc, #344]	; 800fe88 <_malloc_r+0x348>
 800fd30:	681a      	ldr	r2, [r3, #0]
 800fd32:	f8da 3000 	ldr.w	r3, [sl]
 800fd36:	3301      	adds	r3, #1
 800fd38:	442a      	add	r2, r5
 800fd3a:	eb04 0b08 	add.w	fp, r4, r8
 800fd3e:	f000 8150 	beq.w	800ffe2 <_malloc_r+0x4a2>
 800fd42:	f502 5280 	add.w	r2, r2, #4096	; 0x1000
 800fd46:	320f      	adds	r2, #15
 800fd48:	f422 627f 	bic.w	r2, r2, #4080	; 0xff0
 800fd4c:	f022 020f 	bic.w	r2, r2, #15
 800fd50:	4611      	mov	r1, r2
 800fd52:	4630      	mov	r0, r6
 800fd54:	9201      	str	r2, [sp, #4]
 800fd56:	f000 f9fd 	bl	8010154 <_sbrk_r>
 800fd5a:	f1b0 3fff 	cmp.w	r0, #4294967295
 800fd5e:	4681      	mov	r9, r0
 800fd60:	9a01      	ldr	r2, [sp, #4]
 800fd62:	f000 80f5 	beq.w	800ff50 <_malloc_r+0x410>
 800fd66:	4583      	cmp	fp, r0
 800fd68:	f200 80ef 	bhi.w	800ff4a <_malloc_r+0x40a>
 800fd6c:	4b43      	ldr	r3, [pc, #268]	; (800fe7c <_malloc_r+0x33c>)
 800fd6e:	6819      	ldr	r1, [r3, #0]
 800fd70:	45cb      	cmp	fp, r9
 800fd72:	4411      	add	r1, r2
 800fd74:	6019      	str	r1, [r3, #0]
 800fd76:	f000 813d 	beq.w	800fff4 <_malloc_r+0x4b4>
 800fd7a:	f8da 0000 	ldr.w	r0, [sl]
 800fd7e:	f8df e108 	ldr.w	lr, [pc, #264]	; 800fe88 <_malloc_r+0x348>
 800fd82:	3001      	adds	r0, #1
 800fd84:	bf1b      	ittet	ne
 800fd86:	ebcb 0b09 	rsbne	fp, fp, r9
 800fd8a:	4459      	addne	r1, fp
 800fd8c:	f8ce 9000 	streq.w	r9, [lr]
 800fd90:	6019      	strne	r1, [r3, #0]
 800fd92:	f019 0107 	ands.w	r1, r9, #7
 800fd96:	f000 8107 	beq.w	800ffa8 <_malloc_r+0x468>
 800fd9a:	f1c1 0008 	rsb	r0, r1, #8
 800fd9e:	f5c1 5180 	rsb	r1, r1, #4096	; 0x1000
 800fda2:	4481      	add	r9, r0
 800fda4:	3108      	adds	r1, #8
 800fda6:	444a      	add	r2, r9
 800fda8:	f3c2 020b 	ubfx	r2, r2, #0, #12
 800fdac:	ebc2 0a01 	rsb	sl, r2, r1
 800fdb0:	4651      	mov	r1, sl
 800fdb2:	4630      	mov	r0, r6
 800fdb4:	9301      	str	r3, [sp, #4]
 800fdb6:	f000 f9cd 	bl	8010154 <_sbrk_r>
 800fdba:	1c43      	adds	r3, r0, #1
 800fdbc:	9b01      	ldr	r3, [sp, #4]
 800fdbe:	f000 8127 	beq.w	8010010 <_malloc_r+0x4d0>
 800fdc2:	ebc9 0200 	rsb	r2, r9, r0
 800fdc6:	4452      	add	r2, sl
 800fdc8:	f042 0201 	orr.w	r2, r2, #1
 800fdcc:	6819      	ldr	r1, [r3, #0]
 800fdce:	f8c7 9008 	str.w	r9, [r7, #8]
 800fdd2:	4451      	add	r1, sl
 800fdd4:	42bc      	cmp	r4, r7
 800fdd6:	f8c9 2004 	str.w	r2, [r9, #4]
 800fdda:	6019      	str	r1, [r3, #0]
 800fddc:	f8df a09c 	ldr.w	sl, [pc, #156]	; 800fe7c <_malloc_r+0x33c>
 800fde0:	d016      	beq.n	800fe10 <_malloc_r+0x2d0>
 800fde2:	f1b8 0f0f 	cmp.w	r8, #15
 800fde6:	f240 80e2 	bls.w	800ffae <_malloc_r+0x46e>
 800fdea:	6862      	ldr	r2, [r4, #4]
 800fdec:	f1a8 030c 	sub.w	r3, r8, #12
 800fdf0:	f023 0307 	bic.w	r3, r3, #7
 800fdf4:	18e0      	adds	r0, r4, r3
 800fdf6:	f002 0201 	and.w	r2, r2, #1
 800fdfa:	f04f 0e05 	mov.w	lr, #5
 800fdfe:	431a      	orrs	r2, r3
 800fe00:	2b0f      	cmp	r3, #15
 800fe02:	6062      	str	r2, [r4, #4]
 800fe04:	f8c0 e004 	str.w	lr, [r0, #4]
 800fe08:	f8c0 e008 	str.w	lr, [r0, #8]
 800fe0c:	f200 8104 	bhi.w	8010018 <_malloc_r+0x4d8>
 800fe10:	4b1b      	ldr	r3, [pc, #108]	; (800fe80 <_malloc_r+0x340>)
 800fe12:	68bc      	ldr	r4, [r7, #8]
 800fe14:	681a      	ldr	r2, [r3, #0]
 800fe16:	4291      	cmp	r1, r2
 800fe18:	bf88      	it	hi
 800fe1a:	6019      	strhi	r1, [r3, #0]
 800fe1c:	4b19      	ldr	r3, [pc, #100]	; (800fe84 <_malloc_r+0x344>)
 800fe1e:	681a      	ldr	r2, [r3, #0]
 800fe20:	4291      	cmp	r1, r2
 800fe22:	6862      	ldr	r2, [r4, #4]
 800fe24:	bf88      	it	hi
 800fe26:	6019      	strhi	r1, [r3, #0]
 800fe28:	f022 0203 	bic.w	r2, r2, #3
 800fe2c:	4295      	cmp	r5, r2
 800fe2e:	eba2 0305 	sub.w	r3, r2, r5
 800fe32:	d801      	bhi.n	800fe38 <_malloc_r+0x2f8>
 800fe34:	2b0f      	cmp	r3, #15
 800fe36:	dc04      	bgt.n	800fe42 <_malloc_r+0x302>
 800fe38:	4630      	mov	r0, r6
 800fe3a:	f000 f95f 	bl	80100fc <__malloc_unlock>
 800fe3e:	2400      	movs	r4, #0
 800fe40:	e6aa      	b.n	800fb98 <_malloc_r+0x58>
 800fe42:	1962      	adds	r2, r4, r5
 800fe44:	f043 0301 	orr.w	r3, r3, #1
 800fe48:	f045 0501 	orr.w	r5, r5, #1
 800fe4c:	6065      	str	r5, [r4, #4]
 800fe4e:	4630      	mov	r0, r6
 800fe50:	60ba      	str	r2, [r7, #8]
 800fe52:	6053      	str	r3, [r2, #4]
 800fe54:	f000 f952 	bl	80100fc <__malloc_unlock>
 800fe58:	3408      	adds	r4, #8
 800fe5a:	4620      	mov	r0, r4
 800fe5c:	b003      	add	sp, #12
 800fe5e:	e8bd 8ff0 	ldmia.w	sp!, {r4, r5, r6, r7, r8, r9, sl, fp, pc}
 800fe62:	2814      	cmp	r0, #20
 800fe64:	d969      	bls.n	800ff3a <_malloc_r+0x3fa>
 800fe66:	2854      	cmp	r0, #84	; 0x54
 800fe68:	f200 8097 	bhi.w	800ff9a <_malloc_r+0x45a>
 800fe6c:	0b28      	lsrs	r0, r5, #12
 800fe6e:	306e      	adds	r0, #110	; 0x6e
 800fe70:	0041      	lsls	r1, r0, #1
 800fe72:	e6a5      	b.n	800fbc0 <_malloc_r+0x80>
 800fe74:	200004a4 	.word	0x200004a4
 800fe78:	2001f77c 	.word	0x2001f77c
 800fe7c:	2001f780 	.word	0x2001f780
 800fe80:	2001f778 	.word	0x2001f778
 800fe84:	2001f774 	.word	0x2001f774
 800fe88:	200008b0 	.word	0x200008b0
 800fe8c:	0a5a      	lsrs	r2, r3, #9
 800fe8e:	2a04      	cmp	r2, #4
 800fe90:	d956      	bls.n	800ff40 <_malloc_r+0x400>
 800fe92:	2a14      	cmp	r2, #20
 800fe94:	f200 80a7 	bhi.w	800ffe6 <_malloc_r+0x4a6>
 800fe98:	325b      	adds	r2, #91	; 0x5b
 800fe9a:	ea4f 0c42 	mov.w	ip, r2, lsl #1
 800fe9e:	eb07 0c8c 	add.w	ip, r7, ip, lsl #2
 800fea2:	f8df 81b4 	ldr.w	r8, [pc, #436]	; 8010058 <_malloc_r+0x518>
 800fea6:	f8dc 1008 	ldr.w	r1, [ip, #8]
 800feaa:	4561      	cmp	r1, ip
 800feac:	f000 8085 	beq.w	800ffba <_malloc_r+0x47a>
 800feb0:	684a      	ldr	r2, [r1, #4]
 800feb2:	f022 0203 	bic.w	r2, r2, #3
 800feb6:	4293      	cmp	r3, r2
 800feb8:	d202      	bcs.n	800fec0 <_malloc_r+0x380>
 800feba:	6889      	ldr	r1, [r1, #8]
 800febc:	458c      	cmp	ip, r1
 800febe:	d1f7      	bne.n	800feb0 <_malloc_r+0x370>
 800fec0:	68ca      	ldr	r2, [r1, #12]
 800fec2:	687b      	ldr	r3, [r7, #4]
 800fec4:	60e2      	str	r2, [r4, #12]
 800fec6:	60a1      	str	r1, [r4, #8]
 800fec8:	6094      	str	r4, [r2, #8]
 800feca:	60cc      	str	r4, [r1, #12]
 800fecc:	e6ba      	b.n	800fc44 <_malloc_r+0x104>
 800fece:	1963      	adds	r3, r4, r5
 800fed0:	f042 0701 	orr.w	r7, r2, #1
 800fed4:	f045 0501 	orr.w	r5, r5, #1
 800fed8:	6065      	str	r5, [r4, #4]
 800feda:	4630      	mov	r0, r6
 800fedc:	614b      	str	r3, [r1, #20]
 800fede:	610b      	str	r3, [r1, #16]
 800fee0:	f8c3 e00c 	str.w	lr, [r3, #12]
 800fee4:	f8c3 e008 	str.w	lr, [r3, #8]
 800fee8:	605f      	str	r7, [r3, #4]
 800feea:	509a      	str	r2, [r3, r2]
 800feec:	3408      	adds	r4, #8
 800feee:	f000 f905 	bl	80100fc <__malloc_unlock>
 800fef2:	e651      	b.n	800fb98 <_malloc_r+0x58>
 800fef4:	684b      	ldr	r3, [r1, #4]
 800fef6:	e6a5      	b.n	800fc44 <_malloc_r+0x104>
 800fef8:	f109 0901 	add.w	r9, r9, #1
 800fefc:	f019 0f03 	tst.w	r9, #3
 800ff00:	f10c 0c08 	add.w	ip, ip, #8
 800ff04:	f47f aeb0 	bne.w	800fc68 <_malloc_r+0x128>
 800ff08:	e02b      	b.n	800ff62 <_malloc_r+0x422>
 800ff0a:	f104 0308 	add.w	r3, r4, #8
 800ff0e:	6964      	ldr	r4, [r4, #20]
 800ff10:	42a3      	cmp	r3, r4
 800ff12:	bf08      	it	eq
 800ff14:	3002      	addeq	r0, #2
 800ff16:	f43f ae68 	beq.w	800fbea <_malloc_r+0xaa>
 800ff1a:	e62d      	b.n	800fb78 <_malloc_r+0x38>
 800ff1c:	441a      	add	r2, r3
 800ff1e:	461c      	mov	r4, r3
 800ff20:	6851      	ldr	r1, [r2, #4]
 800ff22:	68db      	ldr	r3, [r3, #12]
 800ff24:	f854 5f08 	ldr.w	r5, [r4, #8]!
 800ff28:	f041 0101 	orr.w	r1, r1, #1
 800ff2c:	6051      	str	r1, [r2, #4]
 800ff2e:	4630      	mov	r0, r6
 800ff30:	60eb      	str	r3, [r5, #12]
 800ff32:	609d      	str	r5, [r3, #8]
 800ff34:	f000 f8e2 	bl	80100fc <__malloc_unlock>
 800ff38:	e62e      	b.n	800fb98 <_malloc_r+0x58>
 800ff3a:	305b      	adds	r0, #91	; 0x5b
 800ff3c:	0041      	lsls	r1, r0, #1
 800ff3e:	e63f      	b.n	800fbc0 <_malloc_r+0x80>
 800ff40:	099a      	lsrs	r2, r3, #6
 800ff42:	3238      	adds	r2, #56	; 0x38
 800ff44:	ea4f 0c42 	mov.w	ip, r2, lsl #1
 800ff48:	e7a9      	b.n	800fe9e <_malloc_r+0x35e>
 800ff4a:	42bc      	cmp	r4, r7
 800ff4c:	f43f af0e 	beq.w	800fd6c <_malloc_r+0x22c>
 800ff50:	68bc      	ldr	r4, [r7, #8]
 800ff52:	6862      	ldr	r2, [r4, #4]
 800ff54:	f022 0203 	bic.w	r2, r2, #3
 800ff58:	e768      	b.n	800fe2c <_malloc_r+0x2ec>
 800ff5a:	f8d8 8000 	ldr.w	r8, [r8]
 800ff5e:	4598      	cmp	r8, r3
 800ff60:	d177      	bne.n	8010052 <_malloc_r+0x512>
 800ff62:	f010 0f03 	tst.w	r0, #3
 800ff66:	f1a8 0308 	sub.w	r3, r8, #8
 800ff6a:	f100 30ff 	add.w	r0, r0, #4294967295
 800ff6e:	d1f4      	bne.n	800ff5a <_malloc_r+0x41a>
 800ff70:	687b      	ldr	r3, [r7, #4]
 800ff72:	ea23 0304 	bic.w	r3, r3, r4
 800ff76:	607b      	str	r3, [r7, #4]
 800ff78:	0064      	lsls	r4, r4, #1
 800ff7a:	429c      	cmp	r4, r3
 800ff7c:	f63f aeca 	bhi.w	800fd14 <_malloc_r+0x1d4>
 800ff80:	2c00      	cmp	r4, #0
 800ff82:	f43f aec7 	beq.w	800fd14 <_malloc_r+0x1d4>
 800ff86:	4223      	tst	r3, r4
 800ff88:	4648      	mov	r0, r9
 800ff8a:	f47f ae69 	bne.w	800fc60 <_malloc_r+0x120>
 800ff8e:	0064      	lsls	r4, r4, #1
 800ff90:	4223      	tst	r3, r4
 800ff92:	f100 0004 	add.w	r0, r0, #4
 800ff96:	d0fa      	beq.n	800ff8e <_malloc_r+0x44e>
 800ff98:	e662      	b.n	800fc60 <_malloc_r+0x120>
 800ff9a:	f5b0 7faa 	cmp.w	r0, #340	; 0x154
 800ff9e:	d818      	bhi.n	800ffd2 <_malloc_r+0x492>
 800ffa0:	0be8      	lsrs	r0, r5, #15
 800ffa2:	3077      	adds	r0, #119	; 0x77
 800ffa4:	0041      	lsls	r1, r0, #1
 800ffa6:	e60b      	b.n	800fbc0 <_malloc_r+0x80>
 800ffa8:	f44f 5180 	mov.w	r1, #4096	; 0x1000
 800ffac:	e6fb      	b.n	800fda6 <_malloc_r+0x266>
 800ffae:	2301      	movs	r3, #1
 800ffb0:	f8c9 3004 	str.w	r3, [r9, #4]
 800ffb4:	464c      	mov	r4, r9
 800ffb6:	2200      	movs	r2, #0
 800ffb8:	e738      	b.n	800fe2c <_malloc_r+0x2ec>
 800ffba:	f8d8 3004 	ldr.w	r3, [r8, #4]
 800ffbe:	1092      	asrs	r2, r2, #2
 800ffc0:	f04f 0c01 	mov.w	ip, #1
 800ffc4:	fa0c f202 	lsl.w	r2, ip, r2
 800ffc8:	4313      	orrs	r3, r2
 800ffca:	f8c8 3004 	str.w	r3, [r8, #4]
 800ffce:	460a      	mov	r2, r1
 800ffd0:	e778      	b.n	800fec4 <_malloc_r+0x384>
 800ffd2:	f240 5354 	movw	r3, #1364	; 0x554
 800ffd6:	4298      	cmp	r0, r3
 800ffd8:	d817      	bhi.n	801000a <_malloc_r+0x4ca>
 800ffda:	0ca8      	lsrs	r0, r5, #18
 800ffdc:	307c      	adds	r0, #124	; 0x7c
 800ffde:	0041      	lsls	r1, r0, #1
 800ffe0:	e5ee      	b.n	800fbc0 <_malloc_r+0x80>
 800ffe2:	3210      	adds	r2, #16
 800ffe4:	e6b4      	b.n	800fd50 <_malloc_r+0x210>
 800ffe6:	2a54      	cmp	r2, #84	; 0x54
 800ffe8:	d81e      	bhi.n	8010028 <_malloc_r+0x4e8>
 800ffea:	0b1a      	lsrs	r2, r3, #12
 800ffec:	326e      	adds	r2, #110	; 0x6e
 800ffee:	ea4f 0c42 	mov.w	ip, r2, lsl #1
 800fff2:	e754      	b.n	800fe9e <_malloc_r+0x35e>
 800fff4:	f3cb 000b 	ubfx	r0, fp, #0, #12
 800fff8:	2800      	cmp	r0, #0
 800fffa:	f47f aebe 	bne.w	800fd7a <_malloc_r+0x23a>
 800fffe:	4442      	add	r2, r8
 8010000:	68bb      	ldr	r3, [r7, #8]
 8010002:	f042 0201 	orr.w	r2, r2, #1
 8010006:	605a      	str	r2, [r3, #4]
 8010008:	e702      	b.n	800fe10 <_malloc_r+0x2d0>
 801000a:	21fc      	movs	r1, #252	; 0xfc
 801000c:	207e      	movs	r0, #126	; 0x7e
 801000e:	e5d7      	b.n	800fbc0 <_malloc_r+0x80>
 8010010:	2201      	movs	r2, #1
 8010012:	f04f 0a00 	mov.w	sl, #0
 8010016:	e6d9      	b.n	800fdcc <_malloc_r+0x28c>
 8010018:	f104 0108 	add.w	r1, r4, #8
 801001c:	4630      	mov	r0, r6
 801001e:	f000 f91f 	bl	8010260 <_free_r>
 8010022:	f8da 1000 	ldr.w	r1, [sl]
 8010026:	e6f3      	b.n	800fe10 <_malloc_r+0x2d0>
 8010028:	f5b2 7faa 	cmp.w	r2, #340	; 0x154
 801002c:	d804      	bhi.n	8010038 <_malloc_r+0x4f8>
 801002e:	0bda      	lsrs	r2, r3, #15
 8010030:	3277      	adds	r2, #119	; 0x77
 8010032:	ea4f 0c42 	mov.w	ip, r2, lsl #1
 8010036:	e732      	b.n	800fe9e <_malloc_r+0x35e>
 8010038:	f240 5154 	movw	r1, #1364	; 0x554
 801003c:	428a      	cmp	r2, r1
 801003e:	d804      	bhi.n	801004a <_malloc_r+0x50a>
 8010040:	0c9a      	lsrs	r2, r3, #18
 8010042:	327c      	adds	r2, #124	; 0x7c
 8010044:	ea4f 0c42 	mov.w	ip, r2, lsl #1
 8010048:	e729      	b.n	800fe9e <_malloc_r+0x35e>
 801004a:	f04f 0cfc 	mov.w	ip, #252	; 0xfc
 801004e:	227e      	movs	r2, #126	; 0x7e
 8010050:	e725      	b.n	800fe9e <_malloc_r+0x35e>
 8010052:	687b      	ldr	r3, [r7, #4]
 8010054:	e790      	b.n	800ff78 <_malloc_r+0x438>
 8010056:	bf00      	nop
 8010058:	200004a4 	.word	0x200004a4

0801005c <memset>:
memset():
 801005c:	b470      	push	{r4, r5, r6}
 801005e:	0784      	lsls	r4, r0, #30
 8010060:	d046      	beq.n	80100f0 <memset+0x94>
 8010062:	1e54      	subs	r4, r2, #1
 8010064:	2a00      	cmp	r2, #0
 8010066:	d041      	beq.n	80100ec <memset+0x90>
 8010068:	b2cd      	uxtb	r5, r1
 801006a:	4603      	mov	r3, r0
 801006c:	e002      	b.n	8010074 <memset+0x18>
 801006e:	1e62      	subs	r2, r4, #1
 8010070:	b3e4      	cbz	r4, 80100ec <memset+0x90>
 8010072:	4614      	mov	r4, r2
 8010074:	f803 5b01 	strb.w	r5, [r3], #1
 8010078:	079a      	lsls	r2, r3, #30
 801007a:	d1f8      	bne.n	801006e <memset+0x12>
 801007c:	2c03      	cmp	r4, #3
 801007e:	d92e      	bls.n	80100de <memset+0x82>
 8010080:	b2cd      	uxtb	r5, r1
 8010082:	ea45 2505 	orr.w	r5, r5, r5, lsl #8
 8010086:	2c0f      	cmp	r4, #15
 8010088:	ea45 4505 	orr.w	r5, r5, r5, lsl #16
 801008c:	d919      	bls.n	80100c2 <memset+0x66>
 801008e:	f103 0210 	add.w	r2, r3, #16
 8010092:	4626      	mov	r6, r4
 8010094:	3e10      	subs	r6, #16
 8010096:	2e0f      	cmp	r6, #15
 8010098:	f842 5c10 	str.w	r5, [r2, #-16]
 801009c:	f842 5c0c 	str.w	r5, [r2, #-12]
 80100a0:	f842 5c08 	str.w	r5, [r2, #-8]
 80100a4:	f842 5c04 	str.w	r5, [r2, #-4]
 80100a8:	f102 0210 	add.w	r2, r2, #16
 80100ac:	d8f2      	bhi.n	8010094 <memset+0x38>
 80100ae:	f1a4 0210 	sub.w	r2, r4, #16
 80100b2:	f022 020f 	bic.w	r2, r2, #15
 80100b6:	f004 040f 	and.w	r4, r4, #15
 80100ba:	3210      	adds	r2, #16
 80100bc:	2c03      	cmp	r4, #3
 80100be:	4413      	add	r3, r2
 80100c0:	d90d      	bls.n	80100de <memset+0x82>
 80100c2:	461e      	mov	r6, r3
 80100c4:	4622      	mov	r2, r4
 80100c6:	3a04      	subs	r2, #4
 80100c8:	2a03      	cmp	r2, #3
 80100ca:	f846 5b04 	str.w	r5, [r6], #4
 80100ce:	d8fa      	bhi.n	80100c6 <memset+0x6a>
 80100d0:	1f22      	subs	r2, r4, #4
 80100d2:	f022 0203 	bic.w	r2, r2, #3
 80100d6:	3204      	adds	r2, #4
 80100d8:	4413      	add	r3, r2
 80100da:	f004 0403 	and.w	r4, r4, #3
 80100de:	b12c      	cbz	r4, 80100ec <memset+0x90>
 80100e0:	b2c9      	uxtb	r1, r1
 80100e2:	441c      	add	r4, r3
 80100e4:	f803 1b01 	strb.w	r1, [r3], #1
 80100e8:	42a3      	cmp	r3, r4
 80100ea:	d1fb      	bne.n	80100e4 <memset+0x88>
 80100ec:	bc70      	pop	{r4, r5, r6}
 80100ee:	4770      	bx	lr
 80100f0:	4614      	mov	r4, r2
 80100f2:	4603      	mov	r3, r0
 80100f4:	e7c2      	b.n	801007c <memset+0x20>
 80100f6:	bf00      	nop

080100f8 <__malloc_lock>:
__malloc_lock():
 80100f8:	4770      	bx	lr
 80100fa:	bf00      	nop

080100fc <__malloc_unlock>:
__malloc_unlock():
 80100fc:	4770      	bx	lr
 80100fe:	bf00      	nop

08010100 <srand>:
srand():
 8010100:	4b03      	ldr	r3, [pc, #12]	; (8010110 <srand+0x10>)
 8010102:	681b      	ldr	r3, [r3, #0]
 8010104:	2200      	movs	r2, #0
 8010106:	f8c3 00a8 	str.w	r0, [r3, #168]	; 0xa8
 801010a:	f8c3 20ac 	str.w	r2, [r3, #172]	; 0xac
 801010e:	4770      	bx	lr
 8010110:	200004a0 	.word	0x200004a0

08010114 <rand>:
rand():
 8010114:	b410      	push	{r4}
 8010116:	4b0c      	ldr	r3, [pc, #48]	; (8010148 <rand+0x34>)
 8010118:	4c0c      	ldr	r4, [pc, #48]	; (801014c <rand+0x38>)
 801011a:	6819      	ldr	r1, [r3, #0]
 801011c:	4a0c      	ldr	r2, [pc, #48]	; (8010150 <rand+0x3c>)
 801011e:	f8d1 30a8 	ldr.w	r3, [r1, #168]	; 0xa8
 8010122:	f8d1 00ac 	ldr.w	r0, [r1, #172]	; 0xac
 8010126:	fb04 f403 	mul.w	r4, r4, r3
 801012a:	fb02 4000 	mla	r0, r2, r0, r4
 801012e:	fba3 2302 	umull	r2, r3, r3, r2
 8010132:	4403      	add	r3, r0
 8010134:	3201      	adds	r2, #1
 8010136:	f143 0300 	adc.w	r3, r3, #0
 801013a:	e9c1 232a 	strd	r2, r3, [r1, #168]	; 0xa8
 801013e:	f023 4000 	bic.w	r0, r3, #2147483648	; 0x80000000
 8010142:	f85d 4b04 	ldr.w	r4, [sp], #4
 8010146:	4770      	bx	lr
 8010148:	200004a0 	.word	0x200004a0
 801014c:	5851f42d 	.word	0x5851f42d
 8010150:	4c957f2d 	.word	0x4c957f2d

08010154 <_sbrk_r>:
_sbrk_r():
 8010154:	b538      	push	{r3, r4, r5, lr}
 8010156:	4c07      	ldr	r4, [pc, #28]	; (8010174 <_sbrk_r+0x20>)
 8010158:	2300      	movs	r3, #0
 801015a:	4605      	mov	r5, r0
 801015c:	4608      	mov	r0, r1
 801015e:	6023      	str	r3, [r4, #0]
 8010160:	f000 f9a8 	bl	80104b4 <_sbrk>
 8010164:	1c43      	adds	r3, r0, #1
 8010166:	d000      	beq.n	801016a <_sbrk_r+0x16>
 8010168:	bd38      	pop	{r3, r4, r5, pc}
 801016a:	6823      	ldr	r3, [r4, #0]
 801016c:	2b00      	cmp	r3, #0
 801016e:	d0fb      	beq.n	8010168 <_sbrk_r+0x14>
 8010170:	602b      	str	r3, [r5, #0]
 8010172:	bd38      	pop	{r3, r4, r5, pc}
 8010174:	2001f7b0 	.word	0x2001f7b0

08010178 <register_fini>:
register_fini():
 8010178:	4b02      	ldr	r3, [pc, #8]	; (8010184 <register_fini+0xc>)
 801017a:	b113      	cbz	r3, 8010182 <register_fini+0xa>
 801017c:	4802      	ldr	r0, [pc, #8]	; (8010188 <register_fini+0x10>)
 801017e:	f000 b805 	b.w	801018c <atexit>
 8010182:	4770      	bx	lr
 8010184:	00000000 	.word	0x00000000
 8010188:	08010199 	.word	0x08010199

0801018c <atexit>:
atexit():
 801018c:	4601      	mov	r1, r0
 801018e:	2000      	movs	r0, #0
 8010190:	4602      	mov	r2, r0
 8010192:	4603      	mov	r3, r0
 8010194:	f000 b93c 	b.w	8010410 <__register_exitproc>

08010198 <__libc_fini_array>:
__libc_fini_array():
 8010198:	b538      	push	{r3, r4, r5, lr}
 801019a:	4b08      	ldr	r3, [pc, #32]	; (80101bc <__libc_fini_array+0x24>)
 801019c:	4d08      	ldr	r5, [pc, #32]	; (80101c0 <__libc_fini_array+0x28>)
 801019e:	1aed      	subs	r5, r5, r3
 80101a0:	10ac      	asrs	r4, r5, #2
 80101a2:	bf18      	it	ne
 80101a4:	18ed      	addne	r5, r5, r3
 80101a6:	d005      	beq.n	80101b4 <__libc_fini_array+0x1c>
 80101a8:	3c01      	subs	r4, #1
 80101aa:	f855 3d04 	ldr.w	r3, [r5, #-4]!
 80101ae:	4798      	blx	r3
 80101b0:	2c00      	cmp	r4, #0
 80101b2:	d1f9      	bne.n	80101a8 <__libc_fini_array+0x10>
 80101b4:	e8bd 4038 	ldmia.w	sp!, {r3, r4, r5, lr}
 80101b8:	f000 b990 	b.w	80104dc <_fini>
 80101bc:	0801f298 	.word	0x0801f298
 80101c0:	0801f29c 	.word	0x0801f29c

080101c4 <_malloc_trim_r>:
_malloc_trim_r():
 80101c4:	b5f8      	push	{r3, r4, r5, r6, r7, lr}
 80101c6:	4f23      	ldr	r7, [pc, #140]	; (8010254 <_malloc_trim_r+0x90>)
 80101c8:	460c      	mov	r4, r1
 80101ca:	4606      	mov	r6, r0
 80101cc:	f7ff ff94 	bl	80100f8 <__malloc_lock>
 80101d0:	68bb      	ldr	r3, [r7, #8]
 80101d2:	685d      	ldr	r5, [r3, #4]
 80101d4:	f025 0503 	bic.w	r5, r5, #3
 80101d8:	1b29      	subs	r1, r5, r4
 80101da:	f601 71ef 	addw	r1, r1, #4079	; 0xfef
 80101de:	f421 617f 	bic.w	r1, r1, #4080	; 0xff0
 80101e2:	f021 010f 	bic.w	r1, r1, #15
 80101e6:	f5a1 5480 	sub.w	r4, r1, #4096	; 0x1000
 80101ea:	f5b4 5f80 	cmp.w	r4, #4096	; 0x1000
 80101ee:	db07      	blt.n	8010200 <_malloc_trim_r+0x3c>
 80101f0:	4630      	mov	r0, r6
 80101f2:	2100      	movs	r1, #0
 80101f4:	f7ff ffae 	bl	8010154 <_sbrk_r>
 80101f8:	68bb      	ldr	r3, [r7, #8]
 80101fa:	442b      	add	r3, r5
 80101fc:	4298      	cmp	r0, r3
 80101fe:	d004      	beq.n	801020a <_malloc_trim_r+0x46>
 8010200:	4630      	mov	r0, r6
 8010202:	f7ff ff7b 	bl	80100fc <__malloc_unlock>
 8010206:	2000      	movs	r0, #0
 8010208:	bdf8      	pop	{r3, r4, r5, r6, r7, pc}
 801020a:	4630      	mov	r0, r6
 801020c:	4261      	negs	r1, r4
 801020e:	f7ff ffa1 	bl	8010154 <_sbrk_r>
 8010212:	3001      	adds	r0, #1
 8010214:	d00d      	beq.n	8010232 <_malloc_trim_r+0x6e>
 8010216:	4b10      	ldr	r3, [pc, #64]	; (8010258 <_malloc_trim_r+0x94>)
 8010218:	68ba      	ldr	r2, [r7, #8]
 801021a:	6819      	ldr	r1, [r3, #0]
 801021c:	1b2d      	subs	r5, r5, r4
 801021e:	f045 0501 	orr.w	r5, r5, #1
 8010222:	4630      	mov	r0, r6
 8010224:	1b09      	subs	r1, r1, r4
 8010226:	6055      	str	r5, [r2, #4]
 8010228:	6019      	str	r1, [r3, #0]
 801022a:	f7ff ff67 	bl	80100fc <__malloc_unlock>
 801022e:	2001      	movs	r0, #1
 8010230:	bdf8      	pop	{r3, r4, r5, r6, r7, pc}
 8010232:	4630      	mov	r0, r6
 8010234:	2100      	movs	r1, #0
 8010236:	f7ff ff8d 	bl	8010154 <_sbrk_r>
 801023a:	68ba      	ldr	r2, [r7, #8]
 801023c:	1a83      	subs	r3, r0, r2
 801023e:	2b0f      	cmp	r3, #15
 8010240:	ddde      	ble.n	8010200 <_malloc_trim_r+0x3c>
 8010242:	4c06      	ldr	r4, [pc, #24]	; (801025c <_malloc_trim_r+0x98>)
 8010244:	4904      	ldr	r1, [pc, #16]	; (8010258 <_malloc_trim_r+0x94>)
 8010246:	6824      	ldr	r4, [r4, #0]
 8010248:	f043 0301 	orr.w	r3, r3, #1
 801024c:	1b00      	subs	r0, r0, r4
 801024e:	6053      	str	r3, [r2, #4]
 8010250:	6008      	str	r0, [r1, #0]
 8010252:	e7d5      	b.n	8010200 <_malloc_trim_r+0x3c>
 8010254:	200004a4 	.word	0x200004a4
 8010258:	2001f780 	.word	0x2001f780
 801025c:	200008b0 	.word	0x200008b0

08010260 <_free_r>:
_free_r():
 8010260:	2900      	cmp	r1, #0
 8010262:	d04e      	beq.n	8010302 <_free_r+0xa2>
 8010264:	e92d 41f0 	stmdb	sp!, {r4, r5, r6, r7, r8, lr}
 8010268:	460c      	mov	r4, r1
 801026a:	4680      	mov	r8, r0
 801026c:	f7ff ff44 	bl	80100f8 <__malloc_lock>
 8010270:	f854 7c04 	ldr.w	r7, [r4, #-4]
 8010274:	4962      	ldr	r1, [pc, #392]	; (8010400 <_free_r+0x1a0>)
 8010276:	f027 0201 	bic.w	r2, r7, #1
 801027a:	f1a4 0508 	sub.w	r5, r4, #8
 801027e:	18ab      	adds	r3, r5, r2
 8010280:	688e      	ldr	r6, [r1, #8]
 8010282:	6858      	ldr	r0, [r3, #4]
 8010284:	429e      	cmp	r6, r3
 8010286:	f020 0003 	bic.w	r0, r0, #3
 801028a:	d05a      	beq.n	8010342 <_free_r+0xe2>
 801028c:	07fe      	lsls	r6, r7, #31
 801028e:	6058      	str	r0, [r3, #4]
 8010290:	d40b      	bmi.n	80102aa <_free_r+0x4a>
 8010292:	f854 7c08 	ldr.w	r7, [r4, #-8]
 8010296:	1bed      	subs	r5, r5, r7
 8010298:	f101 0e08 	add.w	lr, r1, #8
 801029c:	68ac      	ldr	r4, [r5, #8]
 801029e:	4574      	cmp	r4, lr
 80102a0:	443a      	add	r2, r7
 80102a2:	d067      	beq.n	8010374 <_free_r+0x114>
 80102a4:	68ef      	ldr	r7, [r5, #12]
 80102a6:	60e7      	str	r7, [r4, #12]
 80102a8:	60bc      	str	r4, [r7, #8]
 80102aa:	181c      	adds	r4, r3, r0
 80102ac:	6864      	ldr	r4, [r4, #4]
 80102ae:	07e4      	lsls	r4, r4, #31
 80102b0:	d40c      	bmi.n	80102cc <_free_r+0x6c>
 80102b2:	4f54      	ldr	r7, [pc, #336]	; (8010404 <_free_r+0x1a4>)
 80102b4:	689c      	ldr	r4, [r3, #8]
 80102b6:	42bc      	cmp	r4, r7
 80102b8:	4402      	add	r2, r0
 80102ba:	d07c      	beq.n	80103b6 <_free_r+0x156>
 80102bc:	68d8      	ldr	r0, [r3, #12]
 80102be:	60e0      	str	r0, [r4, #12]
 80102c0:	f042 0301 	orr.w	r3, r2, #1
 80102c4:	6084      	str	r4, [r0, #8]
 80102c6:	606b      	str	r3, [r5, #4]
 80102c8:	50aa      	str	r2, [r5, r2]
 80102ca:	e003      	b.n	80102d4 <_free_r+0x74>
 80102cc:	f042 0301 	orr.w	r3, r2, #1
 80102d0:	606b      	str	r3, [r5, #4]
 80102d2:	50aa      	str	r2, [r5, r2]
 80102d4:	f5b2 7f00 	cmp.w	r2, #512	; 0x200
 80102d8:	d214      	bcs.n	8010304 <_free_r+0xa4>
 80102da:	08d2      	lsrs	r2, r2, #3
 80102dc:	eb01 03c2 	add.w	r3, r1, r2, lsl #3
 80102e0:	6848      	ldr	r0, [r1, #4]
 80102e2:	689f      	ldr	r7, [r3, #8]
 80102e4:	60af      	str	r7, [r5, #8]
 80102e6:	1092      	asrs	r2, r2, #2
 80102e8:	2401      	movs	r4, #1
 80102ea:	fa04 f202 	lsl.w	r2, r4, r2
 80102ee:	4310      	orrs	r0, r2
 80102f0:	60eb      	str	r3, [r5, #12]
 80102f2:	6048      	str	r0, [r1, #4]
 80102f4:	609d      	str	r5, [r3, #8]
 80102f6:	60fd      	str	r5, [r7, #12]
 80102f8:	4640      	mov	r0, r8
 80102fa:	e8bd 41f0 	ldmia.w	sp!, {r4, r5, r6, r7, r8, lr}
 80102fe:	f7ff befd 	b.w	80100fc <__malloc_unlock>
 8010302:	4770      	bx	lr
 8010304:	0a53      	lsrs	r3, r2, #9
 8010306:	2b04      	cmp	r3, #4
 8010308:	d847      	bhi.n	801039a <_free_r+0x13a>
 801030a:	0993      	lsrs	r3, r2, #6
 801030c:	f103 0438 	add.w	r4, r3, #56	; 0x38
 8010310:	0060      	lsls	r0, r4, #1
 8010312:	eb01 0080 	add.w	r0, r1, r0, lsl #2
 8010316:	493a      	ldr	r1, [pc, #232]	; (8010400 <_free_r+0x1a0>)
 8010318:	6883      	ldr	r3, [r0, #8]
 801031a:	4283      	cmp	r3, r0
 801031c:	d043      	beq.n	80103a6 <_free_r+0x146>
 801031e:	6859      	ldr	r1, [r3, #4]
 8010320:	f021 0103 	bic.w	r1, r1, #3
 8010324:	4291      	cmp	r1, r2
 8010326:	d902      	bls.n	801032e <_free_r+0xce>
 8010328:	689b      	ldr	r3, [r3, #8]
 801032a:	4298      	cmp	r0, r3
 801032c:	d1f7      	bne.n	801031e <_free_r+0xbe>
 801032e:	68da      	ldr	r2, [r3, #12]
 8010330:	60ea      	str	r2, [r5, #12]
 8010332:	60ab      	str	r3, [r5, #8]
 8010334:	4640      	mov	r0, r8
 8010336:	6095      	str	r5, [r2, #8]
 8010338:	60dd      	str	r5, [r3, #12]
 801033a:	e8bd 41f0 	ldmia.w	sp!, {r4, r5, r6, r7, r8, lr}
 801033e:	f7ff bedd 	b.w	80100fc <__malloc_unlock>
 8010342:	07ff      	lsls	r7, r7, #31
 8010344:	4402      	add	r2, r0
 8010346:	d407      	bmi.n	8010358 <_free_r+0xf8>
 8010348:	f854 3c08 	ldr.w	r3, [r4, #-8]
 801034c:	1aed      	subs	r5, r5, r3
 801034e:	441a      	add	r2, r3
 8010350:	68a8      	ldr	r0, [r5, #8]
 8010352:	68eb      	ldr	r3, [r5, #12]
 8010354:	60c3      	str	r3, [r0, #12]
 8010356:	6098      	str	r0, [r3, #8]
 8010358:	4b2b      	ldr	r3, [pc, #172]	; (8010408 <_free_r+0x1a8>)
 801035a:	681b      	ldr	r3, [r3, #0]
 801035c:	f042 0001 	orr.w	r0, r2, #1
 8010360:	429a      	cmp	r2, r3
 8010362:	6068      	str	r0, [r5, #4]
 8010364:	608d      	str	r5, [r1, #8]
 8010366:	d3c7      	bcc.n	80102f8 <_free_r+0x98>
 8010368:	4b28      	ldr	r3, [pc, #160]	; (801040c <_free_r+0x1ac>)
 801036a:	4640      	mov	r0, r8
 801036c:	6819      	ldr	r1, [r3, #0]
 801036e:	f7ff ff29 	bl	80101c4 <_malloc_trim_r>
 8010372:	e7c1      	b.n	80102f8 <_free_r+0x98>
 8010374:	1819      	adds	r1, r3, r0
 8010376:	6849      	ldr	r1, [r1, #4]
 8010378:	07c9      	lsls	r1, r1, #31
 801037a:	d409      	bmi.n	8010390 <_free_r+0x130>
 801037c:	68d9      	ldr	r1, [r3, #12]
 801037e:	689b      	ldr	r3, [r3, #8]
 8010380:	4402      	add	r2, r0
 8010382:	f042 0001 	orr.w	r0, r2, #1
 8010386:	60d9      	str	r1, [r3, #12]
 8010388:	608b      	str	r3, [r1, #8]
 801038a:	6068      	str	r0, [r5, #4]
 801038c:	50aa      	str	r2, [r5, r2]
 801038e:	e7b3      	b.n	80102f8 <_free_r+0x98>
 8010390:	f042 0301 	orr.w	r3, r2, #1
 8010394:	606b      	str	r3, [r5, #4]
 8010396:	50aa      	str	r2, [r5, r2]
 8010398:	e7ae      	b.n	80102f8 <_free_r+0x98>
 801039a:	2b14      	cmp	r3, #20
 801039c:	d814      	bhi.n	80103c8 <_free_r+0x168>
 801039e:	f103 045b 	add.w	r4, r3, #91	; 0x5b
 80103a2:	0060      	lsls	r0, r4, #1
 80103a4:	e7b5      	b.n	8010312 <_free_r+0xb2>
 80103a6:	684a      	ldr	r2, [r1, #4]
 80103a8:	10a4      	asrs	r4, r4, #2
 80103aa:	2001      	movs	r0, #1
 80103ac:	40a0      	lsls	r0, r4
 80103ae:	4302      	orrs	r2, r0
 80103b0:	604a      	str	r2, [r1, #4]
 80103b2:	461a      	mov	r2, r3
 80103b4:	e7bc      	b.n	8010330 <_free_r+0xd0>
 80103b6:	f042 0301 	orr.w	r3, r2, #1
 80103ba:	614d      	str	r5, [r1, #20]
 80103bc:	610d      	str	r5, [r1, #16]
 80103be:	60ec      	str	r4, [r5, #12]
 80103c0:	60ac      	str	r4, [r5, #8]
 80103c2:	606b      	str	r3, [r5, #4]
 80103c4:	50aa      	str	r2, [r5, r2]
 80103c6:	e797      	b.n	80102f8 <_free_r+0x98>
 80103c8:	2b54      	cmp	r3, #84	; 0x54
 80103ca:	d804      	bhi.n	80103d6 <_free_r+0x176>
 80103cc:	0b13      	lsrs	r3, r2, #12
 80103ce:	f103 046e 	add.w	r4, r3, #110	; 0x6e
 80103d2:	0060      	lsls	r0, r4, #1
 80103d4:	e79d      	b.n	8010312 <_free_r+0xb2>
 80103d6:	f5b3 7faa 	cmp.w	r3, #340	; 0x154
 80103da:	d804      	bhi.n	80103e6 <_free_r+0x186>
 80103dc:	0bd3      	lsrs	r3, r2, #15
 80103de:	f103 0477 	add.w	r4, r3, #119	; 0x77
 80103e2:	0060      	lsls	r0, r4, #1
 80103e4:	e795      	b.n	8010312 <_free_r+0xb2>
 80103e6:	f240 5054 	movw	r0, #1364	; 0x554
 80103ea:	4283      	cmp	r3, r0
 80103ec:	d804      	bhi.n	80103f8 <_free_r+0x198>
 80103ee:	0c93      	lsrs	r3, r2, #18
 80103f0:	f103 047c 	add.w	r4, r3, #124	; 0x7c
 80103f4:	0060      	lsls	r0, r4, #1
 80103f6:	e78c      	b.n	8010312 <_free_r+0xb2>
 80103f8:	20fc      	movs	r0, #252	; 0xfc
 80103fa:	247e      	movs	r4, #126	; 0x7e
 80103fc:	e789      	b.n	8010312 <_free_r+0xb2>
 80103fe:	bf00      	nop
 8010400:	200004a4 	.word	0x200004a4
 8010404:	200004ac 	.word	0x200004ac
 8010408:	200008ac 	.word	0x200008ac
 801040c:	2001f77c 	.word	0x2001f77c

08010410 <__register_exitproc>:
__register_exitproc():
 8010410:	e92d 47f0 	stmdb	sp!, {r4, r5, r6, r7, r8, r9, sl, lr}
 8010414:	4c25      	ldr	r4, [pc, #148]	; (80104ac <__register_exitproc+0x9c>)
 8010416:	6825      	ldr	r5, [r4, #0]
 8010418:	f8d5 4148 	ldr.w	r4, [r5, #328]	; 0x148
 801041c:	4606      	mov	r6, r0
 801041e:	4688      	mov	r8, r1
 8010420:	4692      	mov	sl, r2
 8010422:	4699      	mov	r9, r3
 8010424:	b3cc      	cbz	r4, 801049a <__register_exitproc+0x8a>
 8010426:	6860      	ldr	r0, [r4, #4]
 8010428:	281f      	cmp	r0, #31
 801042a:	dc18      	bgt.n	801045e <__register_exitproc+0x4e>
 801042c:	1c43      	adds	r3, r0, #1
 801042e:	b17e      	cbz	r6, 8010450 <__register_exitproc+0x40>
 8010430:	eb04 0580 	add.w	r5, r4, r0, lsl #2
 8010434:	2101      	movs	r1, #1
 8010436:	f8c5 a088 	str.w	sl, [r5, #136]	; 0x88
 801043a:	f8d4 7188 	ldr.w	r7, [r4, #392]	; 0x188
 801043e:	fa01 f200 	lsl.w	r2, r1, r0
 8010442:	4317      	orrs	r7, r2
 8010444:	2e02      	cmp	r6, #2
 8010446:	f8c4 7188 	str.w	r7, [r4, #392]	; 0x188
 801044a:	f8c5 9108 	str.w	r9, [r5, #264]	; 0x108
 801044e:	d01e      	beq.n	801048e <__register_exitproc+0x7e>
 8010450:	3002      	adds	r0, #2
 8010452:	6063      	str	r3, [r4, #4]
 8010454:	f844 8020 	str.w	r8, [r4, r0, lsl #2]
 8010458:	2000      	movs	r0, #0
 801045a:	e8bd 87f0 	ldmia.w	sp!, {r4, r5, r6, r7, r8, r9, sl, pc}
 801045e:	4b14      	ldr	r3, [pc, #80]	; (80104b0 <__register_exitproc+0xa0>)
 8010460:	b303      	cbz	r3, 80104a4 <__register_exitproc+0x94>
 8010462:	f44f 70c8 	mov.w	r0, #400	; 0x190
 8010466:	f7ff fb5b 	bl	800fb20 <malloc>
 801046a:	4604      	mov	r4, r0
 801046c:	b1d0      	cbz	r0, 80104a4 <__register_exitproc+0x94>
 801046e:	f8d5 3148 	ldr.w	r3, [r5, #328]	; 0x148
 8010472:	2700      	movs	r7, #0
 8010474:	e880 0088 	stmia.w	r0, {r3, r7}
 8010478:	f8c5 4148 	str.w	r4, [r5, #328]	; 0x148
 801047c:	4638      	mov	r0, r7
 801047e:	2301      	movs	r3, #1
 8010480:	f8c4 7188 	str.w	r7, [r4, #392]	; 0x188
 8010484:	f8c4 718c 	str.w	r7, [r4, #396]	; 0x18c
 8010488:	2e00      	cmp	r6, #0
 801048a:	d0e1      	beq.n	8010450 <__register_exitproc+0x40>
 801048c:	e7d0      	b.n	8010430 <__register_exitproc+0x20>
 801048e:	f8d4 118c 	ldr.w	r1, [r4, #396]	; 0x18c
 8010492:	430a      	orrs	r2, r1
 8010494:	f8c4 218c 	str.w	r2, [r4, #396]	; 0x18c
 8010498:	e7da      	b.n	8010450 <__register_exitproc+0x40>
 801049a:	f505 74a6 	add.w	r4, r5, #332	; 0x14c
 801049e:	f8c5 4148 	str.w	r4, [r5, #328]	; 0x148
 80104a2:	e7c0      	b.n	8010426 <__register_exitproc+0x16>
 80104a4:	f04f 30ff 	mov.w	r0, #4294967295
 80104a8:	e8bd 87f0 	ldmia.w	sp!, {r4, r5, r6, r7, r8, r9, sl, pc}
 80104ac:	0801f28c 	.word	0x0801f28c
 80104b0:	0800fb21 	.word	0x0800fb21

080104b4 <_sbrk>:
_sbrk():
 80104b4:	4a04      	ldr	r2, [pc, #16]	; (80104c8 <_sbrk+0x14>)
 80104b6:	4905      	ldr	r1, [pc, #20]	; (80104cc <_sbrk+0x18>)
 80104b8:	6813      	ldr	r3, [r2, #0]
 80104ba:	2b00      	cmp	r3, #0
 80104bc:	bf08      	it	eq
 80104be:	460b      	moveq	r3, r1
 80104c0:	4418      	add	r0, r3
 80104c2:	6010      	str	r0, [r2, #0]
 80104c4:	4618      	mov	r0, r3
 80104c6:	4770      	bx	lr
 80104c8:	2001f7a8 	.word	0x2001f7a8
 80104cc:	10003eb0 	.word	0x10003eb0

080104d0 <_init>:
$t():
 80104d0:	b5f8      	push	{r3, r4, r5, r6, r7, lr}
 80104d2:	bf00      	nop
 80104d4:	bcf8      	pop	{r3, r4, r5, r6, r7}
 80104d6:	bc08      	pop	{r3}
 80104d8:	469e      	mov	lr, r3
 80104da:	4770      	bx	lr

080104dc <_fini>:
 80104dc:	b5f8      	push	{r3, r4, r5, r6, r7, lr}
 80104de:	bf00      	nop
 80104e0:	bcf8      	pop	{r3, r4, r5, r6, r7}
 80104e2:	bc08      	pop	{r3}
 80104e4:	469e      	mov	lr, r3
 80104e6:	4770      	bx	lr

080104e8 <____errno_veneer>:
____errno_veneer():
 80104e8:	b401      	push	{r0}
 80104ea:	4802      	ldr	r0, [pc, #8]	; (80104f4 <____errno_veneer+0xc>)
 80104ec:	4684      	mov	ip, r0
 80104ee:	bc01      	pop	{r0}
 80104f0:	4760      	bx	ip
 80104f2:	bf00      	nop
 80104f4:	2001f7ad 	.word	0x2001f7ad
