
Dekrispator_v2.elf:     file format elf32-littlearm
Dekrispator_v2.elf
architecture: arm, flags 0x00000112:
EXEC_P, HAS_SYMS, D_PAGED
start address 0x080067ed

Program Header:
    LOAD off    0x00008000 vaddr 0x08000000 paddr 0x08000000 align 2**15
         filesz 0x0001db64 memsz 0x0001db64 flags rwx
    LOAD off    0x00028000 vaddr 0x20000000 paddr 0x0801db64 align 2**15
         filesz 0x000008c4 memsz 0x000008c4 flags rw-
    LOAD off    0x00030000 vaddr 0x10000000 paddr 0x0801e428 align 2**15
         filesz 0x00003eac memsz 0x00003eac flags rw-
    LOAD off    0x00033eac vaddr 0x10003eac paddr 0x10003eac align 2**15
         filesz 0x00000000 memsz 0x00002000 flags rw-
    LOAD off    0x000388c4 vaddr 0x200008c4 paddr 0x200008c4 align 2**15
         filesz 0x00000000 memsz 0x0001ef74 flags rw-
private flags = 5000402: [Version5 EABI] [hard-float ABI] [has entry point]

Sections:
Idx Name          Size      VMA       LMA       File off  Algn  Flags
  0 .isr_vector   00000188  08000000  08000000  00008000  2**0  CONTENTS, ALLOC, LOAD, READONLY, DATA
  1 .text         0000ec38  08000188  08000188  00008188  2**3  CONTENTS, ALLOC, LOAD, READONLY, CODE
  2 .rodata       0000ed98  0800edc0  0800edc0  00016dc0  2**3  CONTENTS, ALLOC, LOAD, READONLY, DATA
  3 .init_array   00000008  0801db58  0801db58  00025b58  2**2  CONTENTS, ALLOC, LOAD, DATA
  4 .fini_array   00000004  0801db60  0801db60  00025b60  2**2  CONTENTS, ALLOC, LOAD, DATA
  5 .data         000008c4  20000000  0801db64  00028000  2**3  CONTENTS, ALLOC, LOAD, DATA
  6 .ccmram       00003eac  10000000  0801e428  00030000  2**2  CONTENTS, ALLOC, LOAD, DATA
  7 .bss          0001ef74  200008c4  200008c4  000388c4  2**2  ALLOC
  8 ._user_heap_stack 00002000  10003eac  10003eac  00033eac  2**0  ALLOC
  9 .ARM.attributes 00000030  00000000  00000000  00033eac  2**0  CONTENTS, READONLY
 10 .comment      00000070  00000000  00000000  00033edc  2**0  CONTENTS, READONLY
 11 .debug_frame  0000074c  00000000  00000000  00033f4c  2**2  CONTENTS, READONLY, DEBUGGING
SYMBOL TABLE:
08000000 l    d  .isr_vector	00000000 .isr_vector
08000188 l    d  .text	00000000 .text
0800edc0 l    d  .rodata	00000000 .rodata
0801db58 l    d  .init_array	00000000 .init_array
0801db60 l    d  .fini_array	00000000 .fini_array
20000000 l    d  .data	00000000 .data
10000000 l    d  .ccmram	00000000 .ccmram
200008c4 l    d  .bss	00000000 .bss
10003eac l    d  ._user_heap_stack	00000000 ._user_heap_stack
00000000 l    d  .ARM.attributes	00000000 .ARM.attributes
00000000 l    d  .comment	00000000 .comment
00000000 l    d  .debug_frame	00000000 .debug_frame
00000000 l    df *ABS*	00000000 ./drivers/BSP/startup_stm32f407xx.o
080067fc l       .text	00000000 LoopCopyDataInit
080067f4 l       .text	00000000 CopyDataInit
08006810 l       .text	00000000 LoopFillZerobss
0800680a l       .text	00000000 FillZerobss
0800683c l       .text	00000000 Infinite_Loop
00000000 l    df *ABS*	00000000 crtstuff.c
0800ed94 l     O .text	00000000 __EH_FRAME_BEGIN__
08000188 l     F .text	00000000 __do_global_dtors_aux
200008c4 l       .bss	00000000 completed.8019
0801db60 l     O .fini_array	00000000 __do_global_dtors_aux_fini_array_entry
080001ac l     F .text	00000000 frame_dummy
200008c8 l       .bss	00000000 object.8024
0801db5c l     O .init_array	00000000 __frame_dummy_init_array_entry
00000000 l    df *ABS*	00000000 _arm_addsubdf3.o
00000000 l    df *ABS*	00000000 _arm_muldivdf3.o
00000000 l    df *ABS*	00000000 _arm_cmpdf2.o
00000000 l    df *ABS*	00000000 _arm_truncdfsf2.o
00000000 l    df *ABS*	00000000 lib_a-memcpy.o
00000000 l    df *ABS*	00000000 usbh_MIDI.c
08000c5c l     F .text	0000000e USBH_MIDI_ClassRequest
08000c6c l     F .text	00000004 USBH_MIDI_SOFProcess
08000c70 l     F .text	00000054 USBH_MIDI_InterfaceDeInit
08000cc4 l     F .text	000000d8 USBH_MIDI_InterfaceInit
08000e10 l     F .text	00000112 USBH_MIDI_Process
00000000 l    df *ABS*	00000000 usbh_core.c
00000000 l    df *ABS*	00000000 usbh_ctlreq.c
00000000 l    df *ABS*	00000000 usbh_ioreq.c
00000000 l    df *ABS*	00000000 usbh_pipes.c
00000000 l    df *ABS*	00000000 stm32f4xx_hal.c
200008e0 l     O .bss	00000004 uwTick
00000000 l    df *ABS*	00000000 stm32f4xx_hal_cortex.c
00000000 l    df *ABS*	00000000 stm32f4xx_hal_dma.c
00000000 l    df *ABS*	00000000 stm32f4xx_hal_gpio.c
00000000 l    df *ABS*	00000000 stm32f4xx_hal_hcd.c
00000000 l    df *ABS*	00000000 stm32f4xx_hal_i2c.c
08004634 l     F .text	0000003e I2C_WaitOnFlagUntilTimeout.constprop.9
08004674 l     F .text	000001fa I2C_RequestMemoryRead
08004870 l     F .text	0000012e I2C_RequestMemoryWrite
00000000 l    df *ABS*	00000000 stm32f4xx_hal_i2s.c
00000000 l    df *ABS*	00000000 stm32f4xx_hal_rcc.c
00000000 l    df *ABS*	00000000 stm32f4xx_hal_rcc_ex.c
00000000 l    df *ABS*	00000000 stm32f4xx_hal_rng.c
00000000 l    df *ABS*	00000000 stm32f4xx_ll_usb.c
00000000 l    df *ABS*	00000000 cs43l22.c
20000020 l     O .data	00000001 Is_cs43l22_Stop
00000000 l    df *ABS*	00000000 stm32f4_discovery.c
08006840 l     F .text	000000b4 I2Cx_Init
200008e8 l     O .bss	00000038 I2cHandle
00000000 l    df *ABS*	00000000 stm32f4_discovery_audio.c
20000920 l     O .bss	00000004 pAudioDrv
20000924 l     O .bss	00000050 hdma_i2sTx.7362
00000000 l    df *ABS*	00000000 stm32f4xx_it.c
00000000 l    df *ABS*	00000000 system_stm32f4xx.c
00000000 l    df *ABS*	00000000 usbh_conf.c
0800ede0 l     O .rodata	00000003 CSWTCH.11
00000000 l    df *ABS*	00000000 MIDI_application.c
08007040 l     F .text	00000080 MagicFX.part.0
080070c0 l     F .text	0000018c MagicPatch.part.1
00000000 l    df *ABS*	00000000 adsr.c
00000000 l    df *ABS*	00000000 audio_conf.c
2000006c l     O .data	00000001 volume
00000000 l    df *ABS*	00000000 blepvco.c
00000000 l    df *ABS*	00000000 chorusFD.c
10001028 l     O .ccmram	000015f8 delL
10002620 l     O .ccmram	000015f8 delR
10003c18 l     O .ccmram	00000010 lfoL
10003c28 l     O .ccmram	00000010 lfoR
00000000 l    df *ABS*	00000000 delay.c
20000978 l     O .bss	0001d4c8 delayline
2001de40 l     O .bss	00000004 writepos
20000070 l     O .data	00000004 wet
2001de44 l     O .bss	00000004 old_dy
2001de48 l     O .bss	00000004 shift
20000074 l     O .data	00000004 fdb
2001de4c l     O .bss	00000004 readpos
00000000 l    df *ABS*	00000000 drifter.c
00000000 l    df *ABS*	00000000 main.c
08009a80 l     F .text	00000058 USBH_UserProcess_callback
00000000 l    df *ABS*	00000000 math_tools.c
00000000 l    df *ABS*	00000000 oscillators.c
00000000 l    df *ABS*	00000000 phaser.c
2001de54 l     O .bss	00000004 dmax
2001de58 l     O .bss	00000004 swrate
2001de5c l     O .bss	00000004 lfoPhase
2001de60 l     O .bss	00000004 a1
2001de64 l     O .bss	00000004 zm1
2001de68 l     O .bss	00000004 fb
2001de6c l     O .bss	00000004 lfoInc
2001de70 l     O .bss	00000004 wet
2001de74 l     O .bss	00000018 old
2001de8c l     O .bss	00000004 f_min
2001de90 l     O .bss	00000004 f_max
2001de94 l     O .bss	00000004 dmin
00000000 l    df *ABS*	00000000 random.c
00000000 l    df *ABS*	00000000 resonantFilter.c
00000000 l    df *ABS*	00000000 sequencer.c
0801c700 l     O .rodata	0000003c CSWTCH.11
00000000 l    df *ABS*	00000000 soundGen.c
10003e98 l     O .ccmram	00000001 autoSound
10003e99 l     O .ccmram	00000001 sound
10003e9a l     O .ccmram	00000001 delayON
10003e9b l     O .ccmram	00000001 autoFilterON
10003e9c l     O .ccmram	00000001 chorusON
10003e9d l     O .ccmram	00000001 phaserON
10003ea0 l     O .ccmram	00000004 env
10003ea4 l     O .ccmram	00000004 vol
10003ea8 l     O .ccmram	00000004 f0
00000000 l    df *ABS*	00000000 timers.c
2001de98 l     O .bss	00000004 TimingDelay1
2001de9c l     O .bss	00000001 DebouncedKeyPress
2001de9d l     O .bss	00000001 Key_changed
2001de9e l     O .bss	00000001 Key_pressed
2001dea0 l     O .bss	00000004 TimingDelay
20000080 l     O .data	00000001 Count
00000000 l    df *ABS*	00000000 sf_floor.c
00000000 l    df *ABS*	00000000 sf_lrint.c
0801d740 l     O .rodata	00000008 TWO23
00000000 l    df *ABS*	00000000 sf_rint.c
0801d748 l     O .rodata	00000008 TWO23
00000000 l    df *ABS*	00000000 sf_sin.c
00000000 l    df *ABS*	00000000 wf_pow.c
00000000 l    df *ABS*	00000000 ef_pow.c
0801d758 l     O .rodata	00000008 dp_h
0801d760 l     O .rodata	00000008 dp_l
0801d768 l     O .rodata	00000008 bp
00000000 l    df *ABS*	00000000 ef_rem_pio2.c
0801d770 l     O .rodata	00000080 npio2_hw
0801d7f0 l     O .rodata	00000318 two_over_pi
00000000 l    df *ABS*	00000000 ef_sqrt.c
00000000 l    df *ABS*	00000000 kf_cos.c
00000000 l    df *ABS*	00000000 kf_rem_pio2.c
0801db08 l     O .rodata	0000000c init_jk
0801db14 l     O .rodata	0000002c PIo2
00000000 l    df *ABS*	00000000 kf_sin.c
00000000 l    df *ABS*	00000000 s_matherr.c
00000000 l    df *ABS*	00000000 s_rint.c
0801db40 l     O .rodata	00000010 TWO52
00000000 l    df *ABS*	00000000 sf_fabs.c
00000000 l    df *ABS*	00000000 sf_finite.c
00000000 l    df *ABS*	00000000 sf_fpclassify.c
00000000 l    df *ABS*	00000000 sf_nan.c
00000000 l    df *ABS*	00000000 sf_scalbn.c
00000000 l    df *ABS*	00000000 sf_copysign.c
00000000 l    df *ABS*	00000000 init.c
00000000 l    df *ABS*	00000000 malloc.c
00000000 l    df *ABS*	00000000 mallocr.c
00000000 l    df *ABS*	00000000 memset.c
00000000 l    df *ABS*	00000000 mlock.c
00000000 l    df *ABS*	00000000 rand.c
00000000 l    df *ABS*	00000000 sbrkr.c
00000000 l    df *ABS*	00000000 __call_atexit.c
0800ea3c l     F .text	00000014 register_fini
00000000 l    df *ABS*	00000000 atexit.c
00000000 l    df *ABS*	00000000 fini.c
00000000 l    df *ABS*	00000000 mallocr.c
00000000 l    df *ABS*	00000000 __atexit.c
00000000 l    df *ABS*	00000000 sbrk.c
2001ded8 l     O .bss	00000004 heap_end.4079
00000000 l    df *ABS*	00000000 c:/program files/gnu tools arm embedded/4.9 2014q4/bin/../lib/gcc/arm-none-eabi/4.9.3/armv7e-m/fpu/crti.o
00000000 l    df *ABS*	00000000 c:/program files/gnu tools arm embedded/4.9 2014q4/bin/../lib/gcc/arm-none-eabi/4.9.3/armv7e-m/fpu/crtn.o
00000000 l    df *ABS*	00000000 minblep_tables.c
00000000 l    df *ABS*	00000000 notesTables.c
00000000 l    df *ABS*	00000000 sinetable.c
00000000 l    df *ABS*	00000000 impure.c
20000088 l     O .data	00000428 impure_data
00000000 l    df *ABS*	00000000 s_lib_ver.c
00000000 l    df *ABS*	00000000 reent.c
00000000 l    df *ABS*	00000000 
00001000 l       *ABS*	00000000 _Min_Stack_Size
0801db64 l       .fini_array	00000000 __fini_array_end
200008c4 l       .bss	00000000 __bss_start__
00000000 l       *UND*	00000000 PDM_Filter_64_LSB
2001f838 l       .bss	00000000 __bss_end__
00001000 l       *ABS*	00000000 _Min_Heap_Size
00000000 l       *UND*	00000000 software_init_hook
00000000 l       *UND*	00000000 PDM_Filter_Init
0801db60 l       .fini_array	00000000 __fini_array_start
0801db60 l       .init_array	00000000 __init_array_end
00000000 l       *UND*	00000000 hardware_init_hook
0801db58 l       .init_array	00000000 __preinit_array_end
00000000 l       *UND*	00000000 __stack
0801db58 l       .init_array	00000000 __init_array_start
0801db58 l       .init_array	00000000 __preinit_array_start
0800edb0 l     F .text	00000010 ____errno_veneer
0800724c g     F .text	0000003c MIDI_Application
0800683c  w    F .text	00000002 RTC_Alarm_IRQHandler
0800a0ec g     F .text	0000002c FM_op_modInd_set
0800c078 g     F .text	0000000c soundNumber_get
0800c1b0 g     F .text	000000a4 SynthOut_switch
0800683c  w    F .text	00000002 HASH_RNG_IRQHandler
0800edc8 g     O .rodata	00000010 APBAHBPrescTable
0800683c  w    F .text	00000002 EXTI2_IRQHandler
08006cc4 g     F .text	0000001c BSP_AUDIO_OUT_SetVolume
0801c6e4 g     O .rodata	00000004 MIDIscale09
0800683c  w    F .text	00000002 TIM8_CC_IRQHandler
10003e34 g     O .ccmram	00000020 SVFilter2
08000a4c g     F .text	00000012 .hidden __aeabi_dcmple
0800bd78 g     F .text	0000001c seq_switchMute
0800c170 g     F .text	00000020 VibratoAmp_set
08006a28 g     F .text	00000058 AUDIO_IO_Init
08000988 g     F .text	0000007a .hidden __cmpdf2
080095dc g     F .text	000000c0 Delay_compute
0800b7d8 g     F .text	0000002c MIDIrandVal
08006d64 g     F .text	00000002 DebugMon_Handler
10003dd4 g     O .ccmram	00000020 filt_lfo
2001f81c g     O .bss	00000008 RngHandle
08006d14 g     F .text	00000038 HAL_I2S_ErrorCallback
08009cf8 g     F .text	0000002e fastTan
0800c308 g     F .text	00000044 Sound_set
08000988 g     F .text	0000007a .hidden __eqdf2
08006f50 g     F .text	0000001c USBH_LL_GetSpeed
0801c508 g     O .rodata	0000000d MIDIscale12
080027c0 g     F .text	000000a0 HAL_DMA_Init
080004f8 g     F .text	0000005a .hidden __floatdidf
08005160 g     F .text	00000006 HAL_I2S_GetState
08002588 g     F .text	000000ac USBH_AllocPipe
08000d9c g     F .text	0000002a USBH_MIDI_Stop
08006cf8 g     F .text	00000018 HAL_I2S_TxHalfCpltCallback
08005750 g     F .text	000000e0 HAL_RCC_GetPCLK1Freq
0800c34c g     F .text	0000000c FM_OP1_freq_set
0800683c  w    F .text	00000002 TIM1_CC_IRQHandler
08002708 g     F .text	0000006c HAL_NVIC_SetPriority
0800b764 g     F .text	00000020 HAL_RNG_MspInit
0800683c  w    F .text	00000002 DMA2_Stream5_IRQHandler
08006d50 g     F .text	00000002 HardFault_Handler
08007cf0 g     F .text	0000071c VCO_bleprect_SampleCompute
08000de4 g     F .text	00000026 USBH_MIDI_Receive
0800683c  w    F .text	00000002 DMA1_Stream5_IRQHandler
0800e9c0 g     F .text	00000002 __malloc_unlock
08004618 g     F .text	0000000c HAL_HCD_HC_GetXferCount
08006578 g     F .text	00000012 cs43l22_ReadID
08006d6c g     F .text	00000024 SysTick_Handler
0800a38c g     F .text	00000098 Osc_WT_SINE_SampleCompute
08003c10 g     F .text	0000000a HAL_GPIO_WritePin
08009bf4 g     F .text	00000030 Lin2Exp
0800b804 g     F .text	00000058 SVF_directSetFilterValue
0800683c  w    F .text	00000002 PVD_IRQHandler
0800683c  w    F .text	00000002 SDIO_IRQHandler
0800683c  w    F .text	00000002 TAMP_STAMP_IRQHandler
08006ed0 g     F .text	00000008 HAL_HCD_Disconnect_Callback
0801db64 g       *ABS*	00000000 _sidata
0800568c g     F .text	000000c4 HAL_RCC_GetHCLKFreq
0800a538 g     F .text	00000fb0 waveCompute
08006d68 g     F .text	00000002 PendSV_Handler
0800cd3c g     F .text	00000344 powf
08006d4c g     F .text	00000002 NMI_Handler
08002774 g     F .text	00000018 HAL_NVIC_EnableIRQ
080095bc g     F .text	00000020 DelayWet_set
080072c8 g     F .text	0000044e USBH_MIDI_ReceiveCallback
0801db58 g       .init_array	00000000 __exidx_end
080017c0 g     F .text	00000038 USBH_LL_Disconnect
0800683c  w    F .text	00000002 CAN2_RX1_IRQHandler
0800683c  w    F .text	00000002 EXTI3_IRQHandler
0800696c g     F .text	0000001c BSP_LED_Off
08008d20 g     F .text	000000d0 Chorus_init
08000978 g     F .text	0000008a .hidden __gtdf2
2001f824 g     O .bss	00000004 __errno
08009af8 g     F .text	00000002 ButtonReleased_action
0800b4e8 g     F .text	0000008c PhaserInit
080049a4 g     F .text	000000e4 HAL_I2C_Init
0800d670 g     F .text	00000290 __ieee754_rem_pio2f
08004a88  w    F .text	00000002 HAL_I2C_MspDeInit
08006ec8 g     F .text	00000008 HAL_HCD_Connect_Callback
0800683c  w    F .text	00000002 TIM8_TRG_COM_TIM14_IRQHandler
08008440 g     F .text	000008de VCO_bleptri_SampleCompute
08003c24 g     F .text	00000018 HAL_GPIO_EXTI_IRQHandler
0800264c  w    F .text	00000002 HAL_MspInit
2001f204 g     O .bss	00000618 hUSBHost
0800683c  w    F .text	00000002 TIM1_UP_TIM10_IRQHandler
0801c518 g     O .rodata	00000002 MIDIscale13
08003c1c g     F .text	00000008 HAL_GPIO_TogglePin
0800c2f4 g     F .text	00000014 Phaser_switch
2001f834 g     O .bss	00000004 errno
0800edc0 g       .text	00000000 _etext
08007918 g     F .text	00000028 audio_init
200008c4 g       .bss	00000000 _sbss
080050d4 g     F .text	00000068 I2S_DMATxCplt
08001790 g     F .text	0000002e USBH_LL_Connect
08000a14 g     F .text	00000010 .hidden __aeabi_cdcmple
0800c044 g     F .text	00000034 RandSound2
0800683c  w    F .text	00000002 TIM8_UP_TIM13_IRQHandler
08005d7c g     F .text	00000044 USB_DriveVbus
0800683c  w    F .text	00000002 I2C3_ER_IRQHandler
080079d0 g     F .text	00000030 VCO_blepsaw_Init
10003d1c g     O .ccmram	00000020 op4
08005af0 g     F .text	0000000e USB_EnableGlobalInt
08002cc0 g     F .text	0000006e HAL_DMA_Start_IT
0800c4a4 g     F .text	00000024 FM_OP4_freq_set
0800b7ac g     F .text	0000002c frand_a_b
080017f8 g     F .text	00000270 USBH_Get_DevDesc
10003d68 g     O .ccmram	0000002c ph
08008fb4 g     F .text	0000002c ChorusSweep_set
080039b8 g     F .text	0000024c HAL_GPIO_Init
20000060 g     O .data	00000004 BUTTON_PORT
08006f40 g     F .text	0000000e USBH_LL_Stop
08005b68 g     F .text	00000020 USB_FlushRxFifo
10003c90 g     O .ccmram	0000002c d1
0800ca5c g     F .text	00000018 update_temporized_LED
08009074 g     F .text	00000140 delay_read
10003cdc g     O .ccmram	00000020 op2
10000028 g     O .ccmram	00000558 mbTriOsc
08004624 g     F .text	00000006 HAL_HCD_GetCurrentFrame
08000b28 g     F .text	00000134 memcpy
08000a04 g     F .text	00000020 .hidden __aeabi_cdrcmple
0800ca74 g     F .text	00000060 DebounceUserButton
0800610c g     F .text	00000084 USB_DoPing
08000488 g     F .text	00000022 .hidden __floatsidf
080024c4 g     F .text	0000002c USBH_CtlSendData
08000980 g     F .text	00000082 .hidden __ltdf2
080069a4 g     F .text	00000070 BSP_PB_Init
08006fa8 g     F .text	0000000e USBH_LL_ClosePipe
08006d90 g     F .text	00000006 EXTI0_IRQHandler
0800683c  w    F .text	00000002 I2C2_EV_IRQHandler
0800683c  w    F .text	00000002 DMA1_Stream2_IRQHandler
0800683c  w    F .text	00000002 CAN1_RX0_IRQHandler
08006f7c g     F .text	00000008 USBH_LL_GetLastXferSize
0800683c  w    F .text	00000002 FPU_IRQHandler
080026c8  w    F .text	0000001c HAL_Delay
20000068 g     O .data	00000004 SystemCoreClock
08007718 g     F .text	0000002c ADSR_init
0800683c  w    F .text	00000002 OTG_HS_WKUP_IRQHandler
08007a00 g     F .text	000002bc VCO_blepsaw_SampleCompute
0800e3e4 g     F .text	00000010 malloc
0801c6e0 g     O .rodata	00000003 MIDIscale08
08005dc0 g     F .text	00000012 USB_GetHostSpeed
08007cbc g     F .text	00000034 VCO_bleprect_Init
20000024 g     O .data	0000002c cs43l22_drv
08006d5c g     F .text	00000002 UsageFault_Handler
0800840c g     F .text	00000034 VCO_bleptri_Init
0800ba94 g     F .text	0000002c Filter2Drive_set
0800683c  w    F .text	00000002 CAN2_SCE_IRQHandler
2001deac g     O .bss	00000004 __malloc_top_pad
0800683c  w    F .text	00000002 DMA2_Stream2_IRQHandler
0801c500 g     O .rodata	00000008 MIDIscale11
0800e268 g     F .text	00000038 __fpclassifyf
08007940 g     F .text	0000002c BSP_AUDIO_OUT_HalfTransfer_CallBack
08003c04 g     F .text	0000000c HAL_GPIO_ReadPin
08000468 g     F .text	0000001e .hidden __aeabi_ui2d
0800edd8 g     O .rodata	00000008 GPIO_PIN
20000000 g       .data	00000000 _sdata
0800683c  w    F .text	00000002 SPI1_IRQHandler
080001e4 g     F .text	00000000 .hidden __aeabi_drsub
0800796c g     F .text	0000002c BSP_AUDIO_OUT_TransferComplete_CallBack
0800e254 g     F .text	00000014 finitef
0800ea18 g     F .text	00000024 _sbrk_r
0801c51c g     O .rodata	00000003 MIDIscale14
08004608 g     F .text	0000000e HAL_HCD_HC_GetURBState
0800683c  w    F .text	00000002 TIM6_DAC_IRQHandler
0800e244 g     F .text	0000000e fabsf
0800683c  w    F .text	00000002 TIM1_BRK_TIM9_IRQHandler
10003e88 g     O .ccmram	00000010 noteG
0800683c  w    F .text	00000002 DCMI_IRQHandler
08000a38 g     F .text	00000012 .hidden __aeabi_dcmplt
080024a4 g     F .text	00000020 USBH_CtlSendSetup
0800683c  w    F .text	00000002 CAN2_RX0_IRQHandler
2001dea8 g     O .bss	00000004 __malloc_max_sbrked_mem
08006634 g     F .text	00000028 cs43l22_Stop
080024f0 g     F .text	00000020 USBH_CtlReceiveData
0800278c g     F .text	00000034 HAL_SYSTICK_Config
080004ac g     F .text	0000003a .hidden __extendsfdf2
080007a8 g     F .text	000001d0 .hidden __aeabi_ddiv
0801c520 g     O .rodata	000001ac notesFreq
0800b5c0 g     F .text	0000002c Phaser_Feedback_set
080001f0 g     F .text	00000276 .hidden __adddf3
0800ba54 g     F .text	00000040 Filter2Res_set
0800b9b4 g     F .text	00000028 Filter1Type_set
0801db58 g       .init_array	00000000 __exidx_start
08000554 g     F .text	00000254 .hidden __aeabi_dmul
0800683c  w    F .text	00000002 DMA2_Stream3_IRQHandler
0800a4cc g     F .text	0000006c AdditiveGen_newWaveform
20000081 g     O .data	00000001 __fdlib_version
08006d10  w    F .text	00000002 BSP_AUDIO_IN_Error_Callback
0800c670 g     F .text	00000178 sequencer_newStep_action
08017dec g     O .rodata	00004704 slope_dd_table
0800658c g     F .text	00000060 cs43l22_SetOutputMode
0801db54 g     O .rodata	00000004 _global_impure_ptr
08005d48 g     F .text	00000034 USB_ResetPort
0800e394 g     F .text	00000050 __libc_init_array
0800e08c g     F .text	00000090 __kernel_sinf
0800c0d0 g     F .text	00000020 AmpLFO_freq_set
08000468 g     F .text	0000001e .hidden __floatunsidf
0800ed78 g     F .text	0000001c _sbrk
08007858 g     F .text	000000c0 ADSR_computeSample
0800651c g     F .text	0000005c cs43l22_SetVolume
08004a8c g     F .text	0000002e HAL_I2C_DeInit
10003d94 g     O .ccmram	00000020 amp_lfo
0801c6e8 g     O .rodata	00000006 MIDIscale01
0800683c  w    F .text	00000002 USART6_IRQHandler
0800ed94 g     F .text	00000000 _init
08004600 g     F .text	00000006 HAL_HCD_ResetPort
2001f830 g     O .bss	00000004 BlueLED_counter
08000a88 g     F .text	0000009e .hidden __aeabi_d2f
0800683c  w    F .text	00000002 USART3_IRQHandler
08000fa8 g     F .text	00000012 USBH_SelectInterface
0800ea5c g     F .text	0000002c __libc_fini_array
2001f838 g       .bss	00000000 _ebss
0800e120 g     F .text	00000124 rint
08005bb0 g     F .text	0000002a USB_ReadPacket
08004bdc g     F .text	0000025e HAL_I2C_Mem_Read
2001f828 g     O .bss	00000004 filterFreq
080067ec  w    F .text	00000038 Reset_Handler
0800c434 g     F .text	00000038 FM_OP3_freqMul_inc
080022e8 g     F .text	000001bc USBH_ClrFeature
0800683c  w    F .text	00000002 CAN1_RX1_IRQHandler
08005978 g     F .text	00000058 HAL_RCCEx_GetPeriphCLKConfig
08005bdc g     F .text	00000008 USB_ReadInterrupts
08002860 g     F .text	00000460 HAL_DMA_DeInit
0800683c  w    F .text	00000002 UART5_IRQHandler
08009d44 g     F .text	00000020 Drifter_centralFreq_set
0800b988 g     F .text	0000002c Filter1Drive_set
0800d9a4 g     F .text	00000104 __kernel_cosf
08001f68 g     F .text	000001be USBH_SetAddress
10003e14 g     O .ccmram	00000020 SVFilter
0800683c  w    F .text	00000002 DMA2_Stream0_IRQHandler
0800257c g     F .text	0000000a USBH_ClosePipe
08002678 g     F .text	00000034 HAL_Init
0800cb64 g     F .text	0000008c lrintf
080045b0 g     F .text	0000002c HAL_HCD_Start
0800c3c0 g     F .text	00000038 FM_OP2_freqMul_dec
08006db8 g     F .text	00000002 TIM4_IRQHandler
08005024 g     F .text	000000a4 HAL_I2S_Transmit_DMA
080001f0 g     F .text	00000276 .hidden __aeabi_dadd
08000980 g     F .text	00000082 .hidden __ledf2
08006f6c g     F .text	0000000e USBH_LL_ResetPort
080004e8 g     F .text	0000006a .hidden __aeabi_ul2d
20000064 g     O .data	00000004 I2cxTimeout
08000f84 g     F .text	00000022 USBH_RegisterClass
0801c6f8 g     O .rodata	00000007 MIDIscale03
08009d64 g     F .text	0000036c Drifters_sampleCompute
0800c544 g     F .text	0000012c Synth_Init
0800c130 g     F .text	00000020 Filt2LFO_amp_set
00000000  w      *UND*	00000000 __deregister_frame_info
08009bf0 g     F .text	00000002 HAL_GPIO_EXTI_Callback
10003eac g       ._user_heap_stack	00000000 end
200008e4 g     O .bss	00000001 OutputDev
0800683c  w    F .text	00000002 I2C1_EV_IRQHandler
08008ec8 g     F .text	00000044 ChorusRate_set
0800c388 g     F .text	00000038 FM_OP2_freqMul_inc
0800683c  w    F .text	00000002 DMA1_Stream6_IRQHandler
08009548 g     F .text	00000054 Delay_time_set
08005be4 g     F .text	00000008 USB_GetMode
2001e260 g     O .bss	00000fa0 audiobuff
0801c73c g     O .rodata	00001004 sinetable
08009d28 g     F .text	0000001c osc_init
08007998 g     F .text	00000002 BSP_AUDIO_OUT_Error_CallBack
08006418 g     F .text	00000100 USB_StopHost
08007744 g     F .text	00000012 ADSR_keyOn
080094f0 g     F .text	00000058 Delay_time_dec
08006950 g     F .text	0000001c BSP_LED_On
08000a74 g     F .text	00000012 .hidden __aeabi_dcmpgt
0800683c  w    F .text	00000002 DMA1_Stream1_IRQHandler
08004e48 g     F .text	000001dc HAL_I2S_Init
2001dedc g     O .bss	00000034 Filter
080059d0 g     F .text	0000002a HAL_RNG_Init
0800683c  w    F .text	00000002 UART4_IRQHandler
0800c010 g     F .text	00000034 RandSound1
0800c2e0 g     F .text	00000014 Chorus_switch
080077ac g     F .text	0000004c DecTime_set
0800eb24 g     F .text	000001b0 _free_r
20000050 g     O .data	00000010 GPIO_PORT
0800683c  w    F .text	00000002 TIM3_IRQHandler
0800683c  w    F .text	00000002 RCC_IRQHandler
0800c0b0 g     F .text	00000020 AmpLFO_amp_set
08000a60 g     F .text	00000012 .hidden __aeabi_dcmpge
20000078 g     O .data	00000001 demoMode
0800683c  w    F .text	00000002 TIM8_BRK_TIM12_IRQHandler
08000fbc g     F .text	000004e4 USBH_FindInterface
10003cbc g     O .ccmram	00000020 op1
0800b9dc g     F .text	00000078 Filter2Freq_set
08006ce0 g     F .text	00000018 HAL_I2S_TxCpltCallback
080001ec g     F .text	0000027a .hidden __aeabi_dsub
0800683c g       .text	00000002 Default_Handler
0800b8d0 g     F .text	00000078 Filter1Freq_set
200008c0 g     O .data	00000004 __malloc_sbrk_base
080004e8 g     F .text	0000006a .hidden __floatundidf
0800e9d8 g     F .text	00000040 rand
0800683c  w    F .text	00000002 EXTI15_10_IRQHandler
0800ecd4 g     F .text	000000a4 __register_exitproc
08006ab8 g     F .text	00000040 AUDIO_IO_Read
0800683c  w    F .text	00000002 ADC_IRQHandler
08005de0 g     F .text	0000010a USB_HC_Init
08007288 g     F .text	00000020 MagicFX
080054dc g     F .text	000001b0 HAL_RCC_ClockConfig
080026e4 g     F .text	00000024 HAL_NVIC_SetPriorityGrouping
2001df90 g     O .bss	00000290 hHCD
2001deb0 g     O .bss	00000028 __malloc_current_mallinfo
0801c4f0 g     O .rodata	00000005 MIDIscale04
08009cb0 g     F .text	00000048 softClipTwo
0801c6dc g     O .rodata	00000003 MIDIscale07
08006e18 g     F .text	000000a8 HAL_HCD_MspInit
2001f200 g     O .bss	00000004 rateCoeff
08006fe8 g     F .text	00000030 USBH_LL_DriverVBUS
08006da0 g     F .text	0000000c DMA1_Stream7_IRQHandler
0800bce8 g     F .text	00000028 seq_transp
10000000 g     O .ccmram	00000028 adsr
0800bee4 g     F .text	000000e0 sequencer_init
0800b574 g     F .text	0000004c Phaser_Rate_set
08005bec g     F .text	00000120 USB_HostInit
08006af8 g     F .text	00000190 BSP_AUDIO_OUT_Init
10003c64 g     O .ccmram	0000002c d2
0800c0f0 g     F .text	00000020 Filt1LFO_amp_set
0800683c  w    F .text	00000002 TIM7_IRQHandler
08000e0c  w    F .text	00000002 USBH_MIDI_TransmitCallback
0801c6d4 g     O .rodata	00000008 MIDIscale06
0800683c  w    F .text	00000002 CAN2_TX_IRQHandler
08000488 g     F .text	00000022 .hidden __aeabi_i2d
08003c3c g     F .text	0000006c HAL_HCD_HC_Init
0800a424 g     F .text	000000a8 OpSampleCompute7bis
0800683c  w    F .text	00000002 TIM5_IRQHandler
0800776c g     F .text	00000040 AttTime_set
0800513c g     F .text	00000022 I2S_DMAError
0800c50c g     F .text	00000038 FM_OP4_freqMul_dec
0800683c  w    F .text	00000002 DMA2_Stream7_IRQHandler
10000adc g     O .ccmram	0000054c mbSawOsc
0800683c  w    F .text	00000002 I2C3_EV_IRQHandler
10003db4 g     O .ccmram	00000020 filt2_lfo
0800683c  w    F .text	00000002 EXTI9_5_IRQHandler
080007a8 g     F .text	000001d0 .hidden __divdf3
0800683c  w    F .text	00000002 RTC_WKUP_IRQHandler
200004b4 g     O .data	00000408 __malloc_av_
08000554 g     F .text	00000254 .hidden __muldf3
08000f24 g     F .text	00000060 USBH_Init
0800d080 g     F .text	000005f0 __ieee754_powf
0800683c  w    F .text	00000002 ETH_WKUP_IRQHandler
0800b5ec g     F .text	00000020 Phaser_Wet_set
080026bc  w    F .text	0000000c HAL_GetTick
0800e9bc g     F .text	00000002 __malloc_lock
0800e2ac g     F .text	000000d0 scalbnf
080066d8 g     F .text	00000114 cs43l22_Init
0800683c  w    F .text	00000002 SPI2_IRQHandler
0800683c  w    F .text	00000002 OTG_HS_EP1_IN_IRQHandler
0800a0d0 g     F .text	0000001c FM_op_freq_set
0800e920 g     F .text	0000009a memset
0800d900 g     F .text	000000a2 __ieee754_sqrtf
08006d54 g     F .text	00000002 MemManage_Handler
08006fe0 g     F .text	00000008 USBH_LL_GetURBState
08003ca8 g     F .text	00000024 HAL_HCD_HC_Halt
08009b08 g     F .text	000000e8 main
0800b60c g     F .text	00000158 Phaser_compute
08006a14 g     F .text	00000014 BSP_PB_GetState
2001dea4 g     O .bss	00000004 __malloc_max_total_mem
0800683c  w    F .text	00000002 DMA1_Stream0_IRQHandler
0800e9c4 g     F .text	00000014 srand
0800c46c g     F .text	00000038 FM_OP3_freqMul_dec
0801e428 g       *ABS*	00000000 _siccmram
08006f84 g     F .text	00000024 USBH_LL_OpenPipe
08006a80 g     F .text	00000038 AUDIO_IO_Write
0800683c  w    F .text	00000002 CAN1_TX_IRQHandler
08006d60 g     F .text	00000002 SVC_Handler
0800e11c g     F .text	00000004 matherr
0801c6f0 g     O .rodata	00000007 MIDIscale02
08000a88 g     F .text	0000009e .hidden __truncdfsf2
10003e54 g     O .ccmram	00000034 seq
0800e404 g     F .text	0000051c _malloc_r
0800c254 g     F .text	00000064 SynthOut_amp_set
080004f8 g     F .text	0000005a .hidden __aeabi_l2d
080014b4 g     F .text	000002b2 USBH_Process
08003d40 g     F .text	000000f4 HAL_HCD_HC_SubmitRequest
08007818 g     F .text	00000040 RelTime_set
0800c810 g     F .text	0000022c make_sound
08006c88 g     F .text	0000003c BSP_AUDIO_OUT_Play
00000000  w      *UND*	00000000 __libc_fini
0801c6cc g     O .rodata	00000007 MIDIscale05
0800703c g     F .text	00000004 USBH_Delay
080050c8 g     F .text	0000000a I2S_DMATxHalfCplt
0800c3f8 g     F .text	0000000c FM_OP2_modInd_set
0800683c  w    F .text	00000002 EXTI4_IRQHandler
08000dc8 g     F .text	0000001c USBH_MIDI_GetLastReceivedDataSize
0800bca0 g     F .text	00000048 seq_gateTime_set
0800ea88 g     F .text	0000009c _malloc_trim_r
2001df10 g     O .bss	00000040 hAudioOutI2s
080066bc g     F .text	0000001c cs43l22_Pause
10003df4 g     O .ccmram	00000020 vibr_lfo
08009768 g     F .text	00000098 drifter_nextSample
08005a38 g     F .text	000000b8 USB_CoreInit
0800bd94 g     F .text	00000030 seq_freqMax_set
0800b948 g     F .text	00000040 Filter1Res_set
08004e3c g     F .text	00000006 HAL_I2C_GetState
08006dc8 g     F .text	00000050 SystemInit
08003e34 g     F .text	0000077c HAL_HCD_IRQHandler
08005b00 g     F .text	0000000e USB_DisableGlobalInt
08008fe0 g     F .text	00000040 ChorusMode_switch
08000988 g     F .text	0000007a .hidden __nedf2
0800c358 g     F .text	0000000c FM_OP1_modInd_set
0800eda0 g     F .text	00000000 _fini
08005b10 g     F .text	00000034 USB_SetCurrentMode
0800e37c g     F .text	00000018 copysignf
08007758 g     F .text	00000012 ADSR_keyOff
08007018 g     F .text	00000024 USBH_LL_SetToggle
2001de51 g     O .bss	00000001 Appli_state
08001768 g     F .text	00000006 USBH_LL_SetTimer
0800665c g     F .text	00000038 cs43l22_Play
0800ea50 g     F .text	0000000c atexit
08009494 g     F .text	0000005c Delay_time_inc
0800c364 g     F .text	00000024 FM_OP2_freq_set
10003eac g       .ccmram	00000000 _eccmram
2001f82c g     O .bss	00000004 filterFreq2
08009c24 g     F .text	0000003c tanhXdX
0800bac0 g     F .text	0000002c Filter2Type_set
10003cfc g     O .ccmram	00000020 op3
08006518 g     F .text	00000004 cs43l22_SetFrequency
08002650  w    F .text	00000028 HAL_InitTick
0800683c  w    F .text	00000002 FSMC_IRQHandler
0800683c  w    F .text	00000002 ETH_IRQHandler
0800e2a0 g     F .text	0000000c nanf
08006ed8 g     F .text	00000002 HAL_HCD_HC_NotifyURBChange_Callback
200004b0 g     O .data	00000004 _impure_ptr
080014a0 g     F .text	00000014 USBH_Start
080026ac  w    F .text	00000010 HAL_IncTick
0800683c  w    F .text	00000002 OTG_HS_EP1_OUT_IRQHandler
08002d30 g     F .text	00000c88 HAL_DMA_IRQHandler
2000007c g     O .data	00000004 centralFreq
0800683c  w    F .text	00000002 WWDG_IRQHandler
0801c4f8 g     O .rodata	00000005 MIDIscale10
080049a0  w    F .text	00000002 HAL_I2C_MspInit
08009ad8 g     F .text	00000020 ButtonPressed_action
0800c2b8 g     F .text	00000014 Delay_switch
0800683c  w    F .text	00000002 TIM2_IRQHandler
08001770 g     F .text	0000001e USBH_LL_IncTimer
0800ccc0 g     F .text	0000007c sinf
08009c60 g     F .text	00000050 fastTanh
08009708 g     F .text	00000060 Drifter_maxFreq_set
0800c084 g     F .text	0000002c DemoMode_toggle
0800683c  w    F .text	00000002 OTG_FS_WKUP_IRQHandler
0800c404 g     F .text	00000024 FM_OP3_freq_set
0800683c  w    F .text	00000002 TIM1_TRG_COM_TIM11_IRQHandler
0800683c  w    F .text	00000002 OTG_HS_IRQHandler
08006988 g     F .text	0000001c BSP_LED_Toggle
0800959c g     F .text	00000020 DelayFeedback_set
0800bfc4 g     F .text	00000040 sequencer_process
2001ffff g       *ABS*	00000000 _estack
0800bdc4 g     F .text	00000048 seq_tempo_set
08006d98 g     F .text	00000006 EXTI1_IRQHandler
2001e220 g     O .bss	00000040 MIDI_RX_Buffer
08000a24 g     F .text	00000012 .hidden __aeabi_dcmpeq
08005eec g     F .text	0000001e USB_HC_ReadInterrupt
08006fb8 g     F .text	00000028 USBH_LL_SubmitURB
0800c190 g     F .text	00000020 VibratoFreq_set
200008c4 g       .data	00000000 _edata
0800c428 g     F .text	0000000c FM_OP3_modInd_set
0800be94 g     F .text	00000050 seq_transpose
10000000 g       .ccmram	00000000 _sccmram
08008df0 g     F .text	000000d8 Chorus_reset
08005f0c g     F .text	000001fe USB_HC_Halt
20000974 g     O .bss	00000001 buffer_offset
08006f30 g     F .text	0000000e USBH_LL_Start
08002510 g     F .text	0000002c USBH_BulkSendData
0800c2cc g     F .text	00000014 Filter_Random_switch
0800bd64 g     F .text	00000014 seq_switchMovingSeq
0800683c  w    F .text	00000002 USART2_IRQHandler
08005168 g     F .text	00000374 HAL_RCC_OscConfig
200008bc g     O .data	00000004 __malloc_trim_threshold
08009948 g     F .text	00000138 drifter_init
0800b85c g     F .text	00000074 SVF_init
080059fc g     F .text	0000003a HAL_RNG_GetRandomNumber
10003d3c g     O .ccmram	0000002c a
08000000 g     O .isr_vector	00000000 g_pfnVectors
08006ec0 g     F .text	00000008 HAL_HCD_SOF_Callback
08003ccc g     F .text	00000074 HAL_HCD_Init
08005830 g     F .text	00000148 HAL_RCCEx_PeriphCLKConfig
0800255c g     F .text	00000020 USBH_OpenPipe
080091b4 g     F .text	00000140 mono_chorus_compute
080096c8 g     F .text	00000040 Drifter_minFreq_set
0800683c  w    F .text	00000002 I2C2_ER_IRQHandler
0800bd10 g     F .text	00000054 seq_scale_set
10000580 g     O .ccmram	0000055c mbRectOsc
080068f4 g     F .text	0000005c BSP_LED_Init
080072a8 g     F .text	00000020 MagicPatch
08008f7c g     F .text	00000038 ChorusFeedback_set
0800683c  w    F .text	00000002 DMA2_Stream1_IRQHandler
0800ca3c g     F .text	00000020 TimingDelay_Decrement
08005b88 g     F .text	00000028 USB_WritePacket
0800c4d4 g     F .text	00000038 FM_OP4_freqMul_inc
0800683c  w    F .text	00000002 CAN1_SCE_IRQHandler
08002634 g     F .text	00000018 USBH_FreePipe
0800683c  w    F .text	00000002 FLASH_IRQHandler
080077f8 g     F .text	00000020 SustLevel_set
08002128 g     F .text	000001be USBH_SetCfg
0800daa8 g     F .text	000005e2 __kernel_rem_pio2f
2001de50 g     O .bss	00000001 freeze
0800683c  w    F .text	00000002 DMA2_Stream4_IRQHandler
08006d58 g     F .text	00000002 BusFault_Handler
0800683c  w    F .text	00000002 USART1_IRQHandler
080065ec g     F .text	00000048 cs43l22_Resume
0800c7e8 g     F .text	00000028 sequencer_newSequence_action
0800cbf0 g     F .text	000000d0 rintf
08006dbc g     F .text	0000000c OTG_FS_IRQHandler
0800253c g     F .text	00000020 USBH_BulkReceiveData
0800683c  w    F .text	00000002 SPI3_IRQHandler
0800462c g     F .text	00000006 HAL_HCD_GetCurrentSpeed
080098a4 g     F .text	000000a4 d2_drifter_nextSample
08000a14 g     F .text	00000010 .hidden __aeabi_cdcmpeq
08001a68 g     F .text	000002f4 USBH_Get_CfgDesc
08000978 g     F .text	0000008a .hidden __gedf2
0800c110 g     F .text	00000020 Filt1LFO_freq_set
0800683c  w    F .text	00000002 DMA1_Stream4_IRQHandler
0800c004 g     F .text	0000000c autoSound_set
08009800 g     F .text	000000a4 d1_drifter_nextSample
08004abc g     F .text	00000120 HAL_I2C_Mem_Write
0800683c  w    F .text	00000002 I2C1_ER_IRQHandler
08006694 g     F .text	00000028 cs43l22_SetMute
0800cad4 g     F .text	00000090 floorf
08008f0c g     F .text	00000044 ChorusSecondRate_set
080004ac g     F .text	0000003a .hidden __aeabi_f2d
08004e44  w    F .text	00000002 HAL_I2S_MspInit
0800969c g     F .text	0000002c Drifter_amp_set
08006edc g     F .text	00000054 USBH_LL_Init
08005d0c g     F .text	0000003a USB_InitFSLSPClkSel
08008f50 g     F .text	0000002c ChorusDelay_set
08006190 g     F .text	00000288 USB_HC_StartXfer
00000000  w      *UND*	00000000 _Jv_RegisterClasses
0800ede4 g     O .rodata	00009008 step_dd_table
080001ec g     F .text	0000027a .hidden __subdf3
0800be0c g     F .text	00000088 seq_sequence_new
0800a118 g     F .text	00000274 FM2_sampleCompute
080092f4 g     F .text	00000174 stereoChorus_compute
08005b44 g     F .text	00000024 USB_FlushTxFifo
0800baec g     F .text	000001b4 SVF_calcSample
0800c150 g     F .text	00000020 Filt2LFO_freq_set
20000000 g     O .data	00000020 MIDI_Class
0800799c g     F .text	00000034 Volume_set
00000000  w      *UND*	00000000 __register_frame_info
0800683c  w    F .text	00000002 DMA2_Stream6_IRQHandler
2001df50 g     O .bss	00000040 hAudioInI2s
0800c4c8 g     F .text	0000000c FM_OP4_modInd_set
08009468 g     F .text	0000002c Delay_init
08001d5c g     F .text	0000020a USBH_Get_StringDesc
08005dd4 g     F .text	0000000a USB_GetCurrentFrame
080045dc g     F .text	00000024 HAL_HCD_Stop
10003c38 g     O .ccmram	0000002c d3
08006dac g     F .text	0000000c DMA1_Stream3_IRQHandler
0800b784 g     F .text	00000028 randomGen_init
08009020 g     F .text	00000054 ChorusFDBsign_switch
0800e3f4 g     F .text	00000010 free
08009afc g     F .text	0000000a Error_Handler



Disassembly of section .text:

08000188 <__do_global_dtors_aux>:
$t():
 8000188:	b510      	push	{r4, lr}
 800018a:	4c05      	ldr	r4, [pc, #20]	; (80001a0 <__do_global_dtors_aux+0x18>)
 800018c:	7823      	ldrb	r3, [r4, #0]
 800018e:	b933      	cbnz	r3, 800019e <__do_global_dtors_aux+0x16>
 8000190:	4b04      	ldr	r3, [pc, #16]	; (80001a4 <__do_global_dtors_aux+0x1c>)
 8000192:	b113      	cbz	r3, 800019a <__do_global_dtors_aux+0x12>
 8000194:	4804      	ldr	r0, [pc, #16]	; (80001a8 <__do_global_dtors_aux+0x20>)
 8000196:	f3af 8000 	nop.w
 800019a:	2301      	movs	r3, #1
 800019c:	7023      	strb	r3, [r4, #0]
 800019e:	bd10      	pop	{r4, pc}
$d():
 80001a0:	200008c4 	.word	0x200008c4
 80001a4:	00000000 	.word	0x00000000
 80001a8:	0800ed94 	.word	0x0800ed94

080001ac <frame_dummy>:
$t():
 80001ac:	4b08      	ldr	r3, [pc, #32]	; (80001d0 <frame_dummy+0x24>)
 80001ae:	b510      	push	{r4, lr}
 80001b0:	b11b      	cbz	r3, 80001ba <frame_dummy+0xe>
 80001b2:	4808      	ldr	r0, [pc, #32]	; (80001d4 <frame_dummy+0x28>)
 80001b4:	4908      	ldr	r1, [pc, #32]	; (80001d8 <frame_dummy+0x2c>)
 80001b6:	f3af 8000 	nop.w
 80001ba:	4808      	ldr	r0, [pc, #32]	; (80001dc <frame_dummy+0x30>)
 80001bc:	6803      	ldr	r3, [r0, #0]
 80001be:	b903      	cbnz	r3, 80001c2 <frame_dummy+0x16>
 80001c0:	bd10      	pop	{r4, pc}
 80001c2:	4b07      	ldr	r3, [pc, #28]	; (80001e0 <frame_dummy+0x34>)
 80001c4:	2b00      	cmp	r3, #0
 80001c6:	d0fb      	beq.n	80001c0 <frame_dummy+0x14>
 80001c8:	e8bd 4010 	ldmia.w	sp!, {r4, lr}
 80001cc:	4718      	bx	r3
 80001ce:	bf00      	nop
$d():
 80001d0:	00000000 	.word	0x00000000
 80001d4:	0800ed94 	.word	0x0800ed94
 80001d8:	200008c8 	.word	0x200008c8
 80001dc:	200008c4 	.word	0x200008c4
 80001e0:	00000000 	.word	0x00000000

080001e4 <__aeabi_drsub>:
$t():
 80001e4:	f081 4100 	eor.w	r1, r1, #2147483648	; 0x80000000
 80001e8:	e002      	b.n	80001f0 <__adddf3>
 80001ea:	bf00      	nop

080001ec <__aeabi_dsub>:
__aeabi_dsub():
 80001ec:	f083 4300 	eor.w	r3, r3, #2147483648	; 0x80000000

080001f0 <__adddf3>:
 80001f0:	b530      	push	{r4, r5, lr}
 80001f2:	ea4f 0441 	mov.w	r4, r1, lsl #1
 80001f6:	ea4f 0543 	mov.w	r5, r3, lsl #1
 80001fa:	ea94 0f05 	teq	r4, r5
 80001fe:	bf08      	it	eq
 8000200:	ea90 0f02 	teqeq	r0, r2
 8000204:	bf1f      	itttt	ne
 8000206:	ea54 0c00 	orrsne.w	ip, r4, r0
 800020a:	ea55 0c02 	orrsne.w	ip, r5, r2
 800020e:	ea7f 5c64 	mvnsne.w	ip, r4, asr #21
 8000212:	ea7f 5c65 	mvnsne.w	ip, r5, asr #21
 8000216:	f000 80e2 	beq.w	80003de <__adddf3+0x1ee>
 800021a:	ea4f 5454 	mov.w	r4, r4, lsr #21
 800021e:	ebd4 5555 	rsbs	r5, r4, r5, lsr #21
 8000222:	bfb8      	it	lt
 8000224:	426d      	neglt	r5, r5
 8000226:	dd0c      	ble.n	8000242 <__adddf3+0x52>
 8000228:	442c      	add	r4, r5
 800022a:	ea80 0202 	eor.w	r2, r0, r2
 800022e:	ea81 0303 	eor.w	r3, r1, r3
 8000232:	ea82 0000 	eor.w	r0, r2, r0
 8000236:	ea83 0101 	eor.w	r1, r3, r1
 800023a:	ea80 0202 	eor.w	r2, r0, r2
 800023e:	ea81 0303 	eor.w	r3, r1, r3
 8000242:	2d36      	cmp	r5, #54	; 0x36
 8000244:	bf88      	it	hi
 8000246:	bd30      	pophi	{r4, r5, pc}
 8000248:	f011 4f00 	tst.w	r1, #2147483648	; 0x80000000
 800024c:	ea4f 3101 	mov.w	r1, r1, lsl #12
 8000250:	f44f 1c80 	mov.w	ip, #1048576	; 0x100000
 8000254:	ea4c 3111 	orr.w	r1, ip, r1, lsr #12
 8000258:	d002      	beq.n	8000260 <__adddf3+0x70>
 800025a:	4240      	negs	r0, r0
 800025c:	eb61 0141 	sbc.w	r1, r1, r1, lsl #1
 8000260:	f013 4f00 	tst.w	r3, #2147483648	; 0x80000000
 8000264:	ea4f 3303 	mov.w	r3, r3, lsl #12
 8000268:	ea4c 3313 	orr.w	r3, ip, r3, lsr #12
 800026c:	d002      	beq.n	8000274 <__adddf3+0x84>
 800026e:	4252      	negs	r2, r2
 8000270:	eb63 0343 	sbc.w	r3, r3, r3, lsl #1
 8000274:	ea94 0f05 	teq	r4, r5
 8000278:	f000 80a7 	beq.w	80003ca <__adddf3+0x1da>
 800027c:	f1a4 0401 	sub.w	r4, r4, #1
 8000280:	f1d5 0e20 	rsbs	lr, r5, #32
 8000284:	db0d      	blt.n	80002a2 <__adddf3+0xb2>
 8000286:	fa02 fc0e 	lsl.w	ip, r2, lr
 800028a:	fa22 f205 	lsr.w	r2, r2, r5
 800028e:	1880      	adds	r0, r0, r2
 8000290:	f141 0100 	adc.w	r1, r1, #0
 8000294:	fa03 f20e 	lsl.w	r2, r3, lr
 8000298:	1880      	adds	r0, r0, r2
 800029a:	fa43 f305 	asr.w	r3, r3, r5
 800029e:	4159      	adcs	r1, r3
 80002a0:	e00e      	b.n	80002c0 <__adddf3+0xd0>
 80002a2:	f1a5 0520 	sub.w	r5, r5, #32
 80002a6:	f10e 0e20 	add.w	lr, lr, #32
 80002aa:	2a01      	cmp	r2, #1
 80002ac:	fa03 fc0e 	lsl.w	ip, r3, lr
 80002b0:	bf28      	it	cs
 80002b2:	f04c 0c02 	orrcs.w	ip, ip, #2
 80002b6:	fa43 f305 	asr.w	r3, r3, r5
 80002ba:	18c0      	adds	r0, r0, r3
 80002bc:	eb51 71e3 	adcs.w	r1, r1, r3, asr #31
 80002c0:	f001 4500 	and.w	r5, r1, #2147483648	; 0x80000000
 80002c4:	d507      	bpl.n	80002d6 <__adddf3+0xe6>
 80002c6:	f04f 0e00 	mov.w	lr, #0
 80002ca:	f1dc 0c00 	rsbs	ip, ip, #0
 80002ce:	eb7e 0000 	sbcs.w	r0, lr, r0
 80002d2:	eb6e 0101 	sbc.w	r1, lr, r1
 80002d6:	f5b1 1f80 	cmp.w	r1, #1048576	; 0x100000
 80002da:	d31b      	bcc.n	8000314 <__adddf3+0x124>
 80002dc:	f5b1 1f00 	cmp.w	r1, #2097152	; 0x200000
 80002e0:	d30c      	bcc.n	80002fc <__adddf3+0x10c>
 80002e2:	0849      	lsrs	r1, r1, #1
 80002e4:	ea5f 0030 	movs.w	r0, r0, rrx
 80002e8:	ea4f 0c3c 	mov.w	ip, ip, rrx
 80002ec:	f104 0401 	add.w	r4, r4, #1
 80002f0:	ea4f 5244 	mov.w	r2, r4, lsl #21
 80002f4:	f512 0f80 	cmn.w	r2, #4194304	; 0x400000
 80002f8:	f080 809a 	bcs.w	8000430 <__adddf3+0x240>
 80002fc:	f1bc 4f00 	cmp.w	ip, #2147483648	; 0x80000000
 8000300:	bf08      	it	eq
 8000302:	ea5f 0c50 	movseq.w	ip, r0, lsr #1
 8000306:	f150 0000 	adcs.w	r0, r0, #0
 800030a:	eb41 5104 	adc.w	r1, r1, r4, lsl #20
 800030e:	ea41 0105 	orr.w	r1, r1, r5
 8000312:	bd30      	pop	{r4, r5, pc}
 8000314:	ea5f 0c4c 	movs.w	ip, ip, lsl #1
 8000318:	4140      	adcs	r0, r0
 800031a:	eb41 0101 	adc.w	r1, r1, r1
 800031e:	f411 1f80 	tst.w	r1, #1048576	; 0x100000
 8000322:	f1a4 0401 	sub.w	r4, r4, #1
 8000326:	d1e9      	bne.n	80002fc <__adddf3+0x10c>
 8000328:	f091 0f00 	teq	r1, #0
 800032c:	bf04      	itt	eq
 800032e:	4601      	moveq	r1, r0
 8000330:	2000      	moveq	r0, #0
 8000332:	fab1 f381 	clz	r3, r1
 8000336:	bf08      	it	eq
 8000338:	3320      	addeq	r3, #32
 800033a:	f1a3 030b 	sub.w	r3, r3, #11
 800033e:	f1b3 0220 	subs.w	r2, r3, #32
 8000342:	da0c      	bge.n	800035e <__adddf3+0x16e>
 8000344:	320c      	adds	r2, #12
 8000346:	dd08      	ble.n	800035a <__adddf3+0x16a>
 8000348:	f102 0c14 	add.w	ip, r2, #20
 800034c:	f1c2 020c 	rsb	r2, r2, #12
 8000350:	fa01 f00c 	lsl.w	r0, r1, ip
 8000354:	fa21 f102 	lsr.w	r1, r1, r2
 8000358:	e00c      	b.n	8000374 <__adddf3+0x184>
 800035a:	f102 0214 	add.w	r2, r2, #20
 800035e:	bfd8      	it	le
 8000360:	f1c2 0c20 	rsble	ip, r2, #32
 8000364:	fa01 f102 	lsl.w	r1, r1, r2
 8000368:	fa20 fc0c 	lsr.w	ip, r0, ip
 800036c:	bfdc      	itt	le
 800036e:	ea41 010c 	orrle.w	r1, r1, ip
 8000372:	4090      	lslle	r0, r2
 8000374:	1ae4      	subs	r4, r4, r3
 8000376:	bfa2      	ittt	ge
 8000378:	eb01 5104 	addge.w	r1, r1, r4, lsl #20
 800037c:	4329      	orrge	r1, r5
 800037e:	bd30      	popge	{r4, r5, pc}
 8000380:	ea6f 0404 	mvn.w	r4, r4
 8000384:	3c1f      	subs	r4, #31
 8000386:	da1c      	bge.n	80003c2 <__adddf3+0x1d2>
 8000388:	340c      	adds	r4, #12
 800038a:	dc0e      	bgt.n	80003aa <__adddf3+0x1ba>
 800038c:	f104 0414 	add.w	r4, r4, #20
 8000390:	f1c4 0220 	rsb	r2, r4, #32
 8000394:	fa20 f004 	lsr.w	r0, r0, r4
 8000398:	fa01 f302 	lsl.w	r3, r1, r2
 800039c:	ea40 0003 	orr.w	r0, r0, r3
 80003a0:	fa21 f304 	lsr.w	r3, r1, r4
 80003a4:	ea45 0103 	orr.w	r1, r5, r3
 80003a8:	bd30      	pop	{r4, r5, pc}
 80003aa:	f1c4 040c 	rsb	r4, r4, #12
 80003ae:	f1c4 0220 	rsb	r2, r4, #32
 80003b2:	fa20 f002 	lsr.w	r0, r0, r2
 80003b6:	fa01 f304 	lsl.w	r3, r1, r4
 80003ba:	ea40 0003 	orr.w	r0, r0, r3
 80003be:	4629      	mov	r1, r5
 80003c0:	bd30      	pop	{r4, r5, pc}
 80003c2:	fa21 f004 	lsr.w	r0, r1, r4
 80003c6:	4629      	mov	r1, r5
 80003c8:	bd30      	pop	{r4, r5, pc}
 80003ca:	f094 0f00 	teq	r4, #0
 80003ce:	f483 1380 	eor.w	r3, r3, #1048576	; 0x100000
 80003d2:	bf06      	itte	eq
 80003d4:	f481 1180 	eoreq.w	r1, r1, #1048576	; 0x100000
 80003d8:	3401      	addeq	r4, #1
 80003da:	3d01      	subne	r5, #1
 80003dc:	e74e      	b.n	800027c <__adddf3+0x8c>
 80003de:	ea7f 5c64 	mvns.w	ip, r4, asr #21
 80003e2:	bf18      	it	ne
 80003e4:	ea7f 5c65 	mvnsne.w	ip, r5, asr #21
 80003e8:	d029      	beq.n	800043e <__adddf3+0x24e>
 80003ea:	ea94 0f05 	teq	r4, r5
 80003ee:	bf08      	it	eq
 80003f0:	ea90 0f02 	teqeq	r0, r2
 80003f4:	d005      	beq.n	8000402 <__adddf3+0x212>
 80003f6:	ea54 0c00 	orrs.w	ip, r4, r0
 80003fa:	bf04      	itt	eq
 80003fc:	4619      	moveq	r1, r3
 80003fe:	4610      	moveq	r0, r2
 8000400:	bd30      	pop	{r4, r5, pc}
 8000402:	ea91 0f03 	teq	r1, r3
 8000406:	bf1e      	ittt	ne
 8000408:	2100      	movne	r1, #0
 800040a:	2000      	movne	r0, #0
 800040c:	bd30      	popne	{r4, r5, pc}
 800040e:	ea5f 5c54 	movs.w	ip, r4, lsr #21
 8000412:	d105      	bne.n	8000420 <__adddf3+0x230>
 8000414:	0040      	lsls	r0, r0, #1
 8000416:	4149      	adcs	r1, r1
 8000418:	bf28      	it	cs
 800041a:	f041 4100 	orrcs.w	r1, r1, #2147483648	; 0x80000000
 800041e:	bd30      	pop	{r4, r5, pc}
 8000420:	f514 0480 	adds.w	r4, r4, #4194304	; 0x400000
 8000424:	bf3c      	itt	cc
 8000426:	f501 1180 	addcc.w	r1, r1, #1048576	; 0x100000
 800042a:	bd30      	popcc	{r4, r5, pc}
 800042c:	f001 4500 	and.w	r5, r1, #2147483648	; 0x80000000
 8000430:	f045 41fe 	orr.w	r1, r5, #2130706432	; 0x7f000000
 8000434:	f441 0170 	orr.w	r1, r1, #15728640	; 0xf00000
 8000438:	f04f 0000 	mov.w	r0, #0
 800043c:	bd30      	pop	{r4, r5, pc}
 800043e:	ea7f 5c64 	mvns.w	ip, r4, asr #21
 8000442:	bf1a      	itte	ne
 8000444:	4619      	movne	r1, r3
 8000446:	4610      	movne	r0, r2
 8000448:	ea7f 5c65 	mvnseq.w	ip, r5, asr #21
 800044c:	bf1c      	itt	ne
 800044e:	460b      	movne	r3, r1
 8000450:	4602      	movne	r2, r0
 8000452:	ea50 3401 	orrs.w	r4, r0, r1, lsl #12
 8000456:	bf06      	itte	eq
 8000458:	ea52 3503 	orrseq.w	r5, r2, r3, lsl #12
 800045c:	ea91 0f03 	teqeq	r1, r3
 8000460:	f441 2100 	orrne.w	r1, r1, #524288	; 0x80000
 8000464:	bd30      	pop	{r4, r5, pc}
__adddf3():
 8000466:	bf00      	nop

08000468 <__aeabi_ui2d>:
__aeabi_ui2d():
 8000468:	f090 0f00 	teq	r0, #0
 800046c:	bf04      	itt	eq
 800046e:	2100      	moveq	r1, #0
 8000470:	4770      	bxeq	lr
 8000472:	b530      	push	{r4, r5, lr}
 8000474:	f44f 6480 	mov.w	r4, #1024	; 0x400
 8000478:	f104 0432 	add.w	r4, r4, #50	; 0x32
 800047c:	f04f 0500 	mov.w	r5, #0
 8000480:	f04f 0100 	mov.w	r1, #0
 8000484:	e750      	b.n	8000328 <__adddf3+0x138>
 8000486:	bf00      	nop

08000488 <__aeabi_i2d>:
__floatsidf():
 8000488:	f090 0f00 	teq	r0, #0
 800048c:	bf04      	itt	eq
 800048e:	2100      	moveq	r1, #0
 8000490:	4770      	bxeq	lr
 8000492:	b530      	push	{r4, r5, lr}
 8000494:	f44f 6480 	mov.w	r4, #1024	; 0x400
 8000498:	f104 0432 	add.w	r4, r4, #50	; 0x32
 800049c:	f010 4500 	ands.w	r5, r0, #2147483648	; 0x80000000
 80004a0:	bf48      	it	mi
 80004a2:	4240      	negmi	r0, r0
 80004a4:	f04f 0100 	mov.w	r1, #0
 80004a8:	e73e      	b.n	8000328 <__adddf3+0x138>
 80004aa:	bf00      	nop

080004ac <__aeabi_f2d>:
__extendsfdf2():
 80004ac:	0042      	lsls	r2, r0, #1
 80004ae:	ea4f 01e2 	mov.w	r1, r2, asr #3
 80004b2:	ea4f 0131 	mov.w	r1, r1, rrx
 80004b6:	ea4f 7002 	mov.w	r0, r2, lsl #28
 80004ba:	bf1f      	itttt	ne
 80004bc:	f012 437f 	andsne.w	r3, r2, #4278190080	; 0xff000000
 80004c0:	f093 4f7f 	teqne	r3, #4278190080	; 0xff000000
 80004c4:	f081 5160 	eorne.w	r1, r1, #939524096	; 0x38000000
 80004c8:	4770      	bxne	lr
 80004ca:	f092 0f00 	teq	r2, #0
 80004ce:	bf14      	ite	ne
 80004d0:	f093 4f7f 	teqne	r3, #4278190080	; 0xff000000
 80004d4:	4770      	bxeq	lr
 80004d6:	b530      	push	{r4, r5, lr}
 80004d8:	f44f 7460 	mov.w	r4, #896	; 0x380
 80004dc:	f001 4500 	and.w	r5, r1, #2147483648	; 0x80000000
 80004e0:	f021 4100 	bic.w	r1, r1, #2147483648	; 0x80000000
 80004e4:	e720      	b.n	8000328 <__adddf3+0x138>
 80004e6:	bf00      	nop

080004e8 <__aeabi_ul2d>:
__aeabi_ul2d():
 80004e8:	ea50 0201 	orrs.w	r2, r0, r1
 80004ec:	bf08      	it	eq
 80004ee:	4770      	bxeq	lr
 80004f0:	b530      	push	{r4, r5, lr}
 80004f2:	f04f 0500 	mov.w	r5, #0
 80004f6:	e00a      	b.n	800050e <__aeabi_l2d+0x16>

080004f8 <__aeabi_l2d>:
 80004f8:	ea50 0201 	orrs.w	r2, r0, r1
 80004fc:	bf08      	it	eq
 80004fe:	4770      	bxeq	lr
 8000500:	b530      	push	{r4, r5, lr}
 8000502:	f011 4500 	ands.w	r5, r1, #2147483648	; 0x80000000
 8000506:	d502      	bpl.n	800050e <__aeabi_l2d+0x16>
 8000508:	4240      	negs	r0, r0
 800050a:	eb61 0141 	sbc.w	r1, r1, r1, lsl #1
 800050e:	f44f 6480 	mov.w	r4, #1024	; 0x400
 8000512:	f104 0432 	add.w	r4, r4, #50	; 0x32
 8000516:	ea5f 5c91 	movs.w	ip, r1, lsr #22
 800051a:	f43f aedc 	beq.w	80002d6 <__adddf3+0xe6>
 800051e:	f04f 0203 	mov.w	r2, #3
 8000522:	ea5f 0cdc 	movs.w	ip, ip, lsr #3
 8000526:	bf18      	it	ne
 8000528:	3203      	addne	r2, #3
 800052a:	ea5f 0cdc 	movs.w	ip, ip, lsr #3
 800052e:	bf18      	it	ne
 8000530:	3203      	addne	r2, #3
 8000532:	eb02 02dc 	add.w	r2, r2, ip, lsr #3
 8000536:	f1c2 0320 	rsb	r3, r2, #32
 800053a:	fa00 fc03 	lsl.w	ip, r0, r3
 800053e:	fa20 f002 	lsr.w	r0, r0, r2
 8000542:	fa01 fe03 	lsl.w	lr, r1, r3
 8000546:	ea40 000e 	orr.w	r0, r0, lr
 800054a:	fa21 f102 	lsr.w	r1, r1, r2
 800054e:	4414      	add	r4, r2
 8000550:	e6c1      	b.n	80002d6 <__adddf3+0xe6>
__floatdidf():
 8000552:	bf00      	nop

08000554 <__aeabi_dmul>:
__aeabi_dmul():
 8000554:	b570      	push	{r4, r5, r6, lr}
 8000556:	f04f 0cff 	mov.w	ip, #255	; 0xff
 800055a:	f44c 6ce0 	orr.w	ip, ip, #1792	; 0x700
 800055e:	ea1c 5411 	ands.w	r4, ip, r1, lsr #20
 8000562:	bf1d      	ittte	ne
 8000564:	ea1c 5513 	andsne.w	r5, ip, r3, lsr #20
 8000568:	ea94 0f0c 	teqne	r4, ip
 800056c:	ea95 0f0c 	teqne	r5, ip
 8000570:	f000 f8de 	bleq	8000730 <__aeabi_dmul+0x1dc>
 8000574:	442c      	add	r4, r5
 8000576:	ea81 0603 	eor.w	r6, r1, r3
 800057a:	ea21 514c 	bic.w	r1, r1, ip, lsl #21
 800057e:	ea23 534c 	bic.w	r3, r3, ip, lsl #21
 8000582:	ea50 3501 	orrs.w	r5, r0, r1, lsl #12
 8000586:	bf18      	it	ne
 8000588:	ea52 3503 	orrsne.w	r5, r2, r3, lsl #12
 800058c:	f441 1180 	orr.w	r1, r1, #1048576	; 0x100000
 8000590:	f443 1380 	orr.w	r3, r3, #1048576	; 0x100000
 8000594:	d038      	beq.n	8000608 <__aeabi_dmul+0xb4>
 8000596:	fba0 ce02 	umull	ip, lr, r0, r2
 800059a:	f04f 0500 	mov.w	r5, #0
 800059e:	fbe1 e502 	umlal	lr, r5, r1, r2
 80005a2:	f006 4200 	and.w	r2, r6, #2147483648	; 0x80000000
 80005a6:	fbe0 e503 	umlal	lr, r5, r0, r3
 80005aa:	f04f 0600 	mov.w	r6, #0
 80005ae:	fbe1 5603 	umlal	r5, r6, r1, r3
 80005b2:	f09c 0f00 	teq	ip, #0
 80005b6:	bf18      	it	ne
 80005b8:	f04e 0e01 	orrne.w	lr, lr, #1
 80005bc:	f1a4 04ff 	sub.w	r4, r4, #255	; 0xff
 80005c0:	f5b6 7f00 	cmp.w	r6, #512	; 0x200
 80005c4:	f564 7440 	sbc.w	r4, r4, #768	; 0x300
 80005c8:	d204      	bcs.n	80005d4 <__aeabi_dmul+0x80>
 80005ca:	ea5f 0e4e 	movs.w	lr, lr, lsl #1
 80005ce:	416d      	adcs	r5, r5
 80005d0:	eb46 0606 	adc.w	r6, r6, r6
 80005d4:	ea42 21c6 	orr.w	r1, r2, r6, lsl #11
 80005d8:	ea41 5155 	orr.w	r1, r1, r5, lsr #21
 80005dc:	ea4f 20c5 	mov.w	r0, r5, lsl #11
 80005e0:	ea40 505e 	orr.w	r0, r0, lr, lsr #21
 80005e4:	ea4f 2ece 	mov.w	lr, lr, lsl #11
 80005e8:	f1b4 0cfd 	subs.w	ip, r4, #253	; 0xfd
 80005ec:	bf88      	it	hi
 80005ee:	f5bc 6fe0 	cmphi.w	ip, #1792	; 0x700
 80005f2:	d81e      	bhi.n	8000632 <__aeabi_dmul+0xde>
 80005f4:	f1be 4f00 	cmp.w	lr, #2147483648	; 0x80000000
 80005f8:	bf08      	it	eq
 80005fa:	ea5f 0e50 	movseq.w	lr, r0, lsr #1
 80005fe:	f150 0000 	adcs.w	r0, r0, #0
 8000602:	eb41 5104 	adc.w	r1, r1, r4, lsl #20
 8000606:	bd70      	pop	{r4, r5, r6, pc}
 8000608:	f006 4600 	and.w	r6, r6, #2147483648	; 0x80000000
 800060c:	ea46 0101 	orr.w	r1, r6, r1
 8000610:	ea40 0002 	orr.w	r0, r0, r2
 8000614:	ea81 0103 	eor.w	r1, r1, r3
 8000618:	ebb4 045c 	subs.w	r4, r4, ip, lsr #1
 800061c:	bfc2      	ittt	gt
 800061e:	ebd4 050c 	rsbsgt	r5, r4, ip
 8000622:	ea41 5104 	orrgt.w	r1, r1, r4, lsl #20
 8000626:	bd70      	popgt	{r4, r5, r6, pc}
 8000628:	f441 1180 	orr.w	r1, r1, #1048576	; 0x100000
 800062c:	f04f 0e00 	mov.w	lr, #0
 8000630:	3c01      	subs	r4, #1
 8000632:	f300 80ab 	bgt.w	800078c <__aeabi_dmul+0x238>
 8000636:	f114 0f36 	cmn.w	r4, #54	; 0x36
 800063a:	bfde      	ittt	le
 800063c:	2000      	movle	r0, #0
 800063e:	f001 4100 	andle.w	r1, r1, #2147483648	; 0x80000000
 8000642:	bd70      	pople	{r4, r5, r6, pc}
 8000644:	f1c4 0400 	rsb	r4, r4, #0
 8000648:	3c20      	subs	r4, #32
 800064a:	da35      	bge.n	80006b8 <__aeabi_dmul+0x164>
 800064c:	340c      	adds	r4, #12
 800064e:	dc1b      	bgt.n	8000688 <__aeabi_dmul+0x134>
 8000650:	f104 0414 	add.w	r4, r4, #20
 8000654:	f1c4 0520 	rsb	r5, r4, #32
 8000658:	fa00 f305 	lsl.w	r3, r0, r5
 800065c:	fa20 f004 	lsr.w	r0, r0, r4
 8000660:	fa01 f205 	lsl.w	r2, r1, r5
 8000664:	ea40 0002 	orr.w	r0, r0, r2
 8000668:	f001 4200 	and.w	r2, r1, #2147483648	; 0x80000000
 800066c:	f021 4100 	bic.w	r1, r1, #2147483648	; 0x80000000
 8000670:	eb10 70d3 	adds.w	r0, r0, r3, lsr #31
 8000674:	fa21 f604 	lsr.w	r6, r1, r4
 8000678:	eb42 0106 	adc.w	r1, r2, r6
 800067c:	ea5e 0e43 	orrs.w	lr, lr, r3, lsl #1
 8000680:	bf08      	it	eq
 8000682:	ea20 70d3 	biceq.w	r0, r0, r3, lsr #31
 8000686:	bd70      	pop	{r4, r5, r6, pc}
 8000688:	f1c4 040c 	rsb	r4, r4, #12
 800068c:	f1c4 0520 	rsb	r5, r4, #32
 8000690:	fa00 f304 	lsl.w	r3, r0, r4
 8000694:	fa20 f005 	lsr.w	r0, r0, r5
 8000698:	fa01 f204 	lsl.w	r2, r1, r4
 800069c:	ea40 0002 	orr.w	r0, r0, r2
 80006a0:	f001 4100 	and.w	r1, r1, #2147483648	; 0x80000000
 80006a4:	eb10 70d3 	adds.w	r0, r0, r3, lsr #31
 80006a8:	f141 0100 	adc.w	r1, r1, #0
 80006ac:	ea5e 0e43 	orrs.w	lr, lr, r3, lsl #1
 80006b0:	bf08      	it	eq
 80006b2:	ea20 70d3 	biceq.w	r0, r0, r3, lsr #31
 80006b6:	bd70      	pop	{r4, r5, r6, pc}
 80006b8:	f1c4 0520 	rsb	r5, r4, #32
 80006bc:	fa00 f205 	lsl.w	r2, r0, r5
 80006c0:	ea4e 0e02 	orr.w	lr, lr, r2
 80006c4:	fa20 f304 	lsr.w	r3, r0, r4
 80006c8:	fa01 f205 	lsl.w	r2, r1, r5
 80006cc:	ea43 0302 	orr.w	r3, r3, r2
 80006d0:	fa21 f004 	lsr.w	r0, r1, r4
 80006d4:	f001 4100 	and.w	r1, r1, #2147483648	; 0x80000000
 80006d8:	fa21 f204 	lsr.w	r2, r1, r4
 80006dc:	ea20 0002 	bic.w	r0, r0, r2
 80006e0:	eb00 70d3 	add.w	r0, r0, r3, lsr #31
 80006e4:	ea5e 0e43 	orrs.w	lr, lr, r3, lsl #1
 80006e8:	bf08      	it	eq
 80006ea:	ea20 70d3 	biceq.w	r0, r0, r3, lsr #31
 80006ee:	bd70      	pop	{r4, r5, r6, pc}
 80006f0:	f094 0f00 	teq	r4, #0
 80006f4:	d10f      	bne.n	8000716 <__aeabi_dmul+0x1c2>
 80006f6:	f001 4600 	and.w	r6, r1, #2147483648	; 0x80000000
 80006fa:	0040      	lsls	r0, r0, #1
 80006fc:	eb41 0101 	adc.w	r1, r1, r1
 8000700:	f411 1f80 	tst.w	r1, #1048576	; 0x100000
 8000704:	bf08      	it	eq
 8000706:	3c01      	subeq	r4, #1
 8000708:	d0f7      	beq.n	80006fa <__aeabi_dmul+0x1a6>
 800070a:	ea41 0106 	orr.w	r1, r1, r6
 800070e:	f095 0f00 	teq	r5, #0
 8000712:	bf18      	it	ne
 8000714:	4770      	bxne	lr
 8000716:	f003 4600 	and.w	r6, r3, #2147483648	; 0x80000000
 800071a:	0052      	lsls	r2, r2, #1
 800071c:	eb43 0303 	adc.w	r3, r3, r3
 8000720:	f413 1f80 	tst.w	r3, #1048576	; 0x100000
 8000724:	bf08      	it	eq
 8000726:	3d01      	subeq	r5, #1
 8000728:	d0f7      	beq.n	800071a <__aeabi_dmul+0x1c6>
 800072a:	ea43 0306 	orr.w	r3, r3, r6
 800072e:	4770      	bx	lr
 8000730:	ea94 0f0c 	teq	r4, ip
 8000734:	ea0c 5513 	and.w	r5, ip, r3, lsr #20
 8000738:	bf18      	it	ne
 800073a:	ea95 0f0c 	teqne	r5, ip
 800073e:	d00c      	beq.n	800075a <__aeabi_dmul+0x206>
 8000740:	ea50 0641 	orrs.w	r6, r0, r1, lsl #1
 8000744:	bf18      	it	ne
 8000746:	ea52 0643 	orrsne.w	r6, r2, r3, lsl #1
 800074a:	d1d1      	bne.n	80006f0 <__aeabi_dmul+0x19c>
 800074c:	ea81 0103 	eor.w	r1, r1, r3
 8000750:	f001 4100 	and.w	r1, r1, #2147483648	; 0x80000000
 8000754:	f04f 0000 	mov.w	r0, #0
 8000758:	bd70      	pop	{r4, r5, r6, pc}
 800075a:	ea50 0641 	orrs.w	r6, r0, r1, lsl #1
 800075e:	bf06      	itte	eq
 8000760:	4610      	moveq	r0, r2
 8000762:	4619      	moveq	r1, r3
 8000764:	ea52 0643 	orrsne.w	r6, r2, r3, lsl #1
 8000768:	d019      	beq.n	800079e <__aeabi_dmul+0x24a>
 800076a:	ea94 0f0c 	teq	r4, ip
 800076e:	d102      	bne.n	8000776 <__aeabi_dmul+0x222>
 8000770:	ea50 3601 	orrs.w	r6, r0, r1, lsl #12
 8000774:	d113      	bne.n	800079e <__aeabi_dmul+0x24a>
 8000776:	ea95 0f0c 	teq	r5, ip
 800077a:	d105      	bne.n	8000788 <__aeabi_dmul+0x234>
 800077c:	ea52 3603 	orrs.w	r6, r2, r3, lsl #12
 8000780:	bf1c      	itt	ne
 8000782:	4610      	movne	r0, r2
 8000784:	4619      	movne	r1, r3
 8000786:	d10a      	bne.n	800079e <__aeabi_dmul+0x24a>
 8000788:	ea81 0103 	eor.w	r1, r1, r3
 800078c:	f001 4100 	and.w	r1, r1, #2147483648	; 0x80000000
 8000790:	f041 41fe 	orr.w	r1, r1, #2130706432	; 0x7f000000
 8000794:	f441 0170 	orr.w	r1, r1, #15728640	; 0xf00000
 8000798:	f04f 0000 	mov.w	r0, #0
 800079c:	bd70      	pop	{r4, r5, r6, pc}
 800079e:	f041 41fe 	orr.w	r1, r1, #2130706432	; 0x7f000000
 80007a2:	f441 0178 	orr.w	r1, r1, #16252928	; 0xf80000
 80007a6:	bd70      	pop	{r4, r5, r6, pc}

080007a8 <__aeabi_ddiv>:
__aeabi_ddiv():
 80007a8:	b570      	push	{r4, r5, r6, lr}
 80007aa:	f04f 0cff 	mov.w	ip, #255	; 0xff
 80007ae:	f44c 6ce0 	orr.w	ip, ip, #1792	; 0x700
 80007b2:	ea1c 5411 	ands.w	r4, ip, r1, lsr #20
 80007b6:	bf1d      	ittte	ne
 80007b8:	ea1c 5513 	andsne.w	r5, ip, r3, lsr #20
 80007bc:	ea94 0f0c 	teqne	r4, ip
 80007c0:	ea95 0f0c 	teqne	r5, ip
 80007c4:	f000 f8a7 	bleq	8000916 <__aeabi_ddiv+0x16e>
 80007c8:	eba4 0405 	sub.w	r4, r4, r5
 80007cc:	ea81 0e03 	eor.w	lr, r1, r3
 80007d0:	ea52 3503 	orrs.w	r5, r2, r3, lsl #12
 80007d4:	ea4f 3101 	mov.w	r1, r1, lsl #12
 80007d8:	f000 8088 	beq.w	80008ec <__aeabi_ddiv+0x144>
 80007dc:	ea4f 3303 	mov.w	r3, r3, lsl #12
 80007e0:	f04f 5580 	mov.w	r5, #268435456	; 0x10000000
 80007e4:	ea45 1313 	orr.w	r3, r5, r3, lsr #4
 80007e8:	ea43 6312 	orr.w	r3, r3, r2, lsr #24
 80007ec:	ea4f 2202 	mov.w	r2, r2, lsl #8
 80007f0:	ea45 1511 	orr.w	r5, r5, r1, lsr #4
 80007f4:	ea45 6510 	orr.w	r5, r5, r0, lsr #24
 80007f8:	ea4f 2600 	mov.w	r6, r0, lsl #8
 80007fc:	f00e 4100 	and.w	r1, lr, #2147483648	; 0x80000000
 8000800:	429d      	cmp	r5, r3
 8000802:	bf08      	it	eq
 8000804:	4296      	cmpeq	r6, r2
 8000806:	f144 04fd 	adc.w	r4, r4, #253	; 0xfd
 800080a:	f504 7440 	add.w	r4, r4, #768	; 0x300
 800080e:	d202      	bcs.n	8000816 <__aeabi_ddiv+0x6e>
 8000810:	085b      	lsrs	r3, r3, #1
 8000812:	ea4f 0232 	mov.w	r2, r2, rrx
 8000816:	1ab6      	subs	r6, r6, r2
 8000818:	eb65 0503 	sbc.w	r5, r5, r3
 800081c:	085b      	lsrs	r3, r3, #1
 800081e:	ea4f 0232 	mov.w	r2, r2, rrx
 8000822:	f44f 1080 	mov.w	r0, #1048576	; 0x100000
 8000826:	f44f 2c00 	mov.w	ip, #524288	; 0x80000
 800082a:	ebb6 0e02 	subs.w	lr, r6, r2
 800082e:	eb75 0e03 	sbcs.w	lr, r5, r3
 8000832:	bf22      	ittt	cs
 8000834:	1ab6      	subcs	r6, r6, r2
 8000836:	4675      	movcs	r5, lr
 8000838:	ea40 000c 	orrcs.w	r0, r0, ip
 800083c:	085b      	lsrs	r3, r3, #1
 800083e:	ea4f 0232 	mov.w	r2, r2, rrx
 8000842:	ebb6 0e02 	subs.w	lr, r6, r2
 8000846:	eb75 0e03 	sbcs.w	lr, r5, r3
 800084a:	bf22      	ittt	cs
 800084c:	1ab6      	subcs	r6, r6, r2
 800084e:	4675      	movcs	r5, lr
 8000850:	ea40 005c 	orrcs.w	r0, r0, ip, lsr #1
 8000854:	085b      	lsrs	r3, r3, #1
 8000856:	ea4f 0232 	mov.w	r2, r2, rrx
 800085a:	ebb6 0e02 	subs.w	lr, r6, r2
 800085e:	eb75 0e03 	sbcs.w	lr, r5, r3
 8000862:	bf22      	ittt	cs
 8000864:	1ab6      	subcs	r6, r6, r2
 8000866:	4675      	movcs	r5, lr
 8000868:	ea40 009c 	orrcs.w	r0, r0, ip, lsr #2
 800086c:	085b      	lsrs	r3, r3, #1
 800086e:	ea4f 0232 	mov.w	r2, r2, rrx
 8000872:	ebb6 0e02 	subs.w	lr, r6, r2
 8000876:	eb75 0e03 	sbcs.w	lr, r5, r3
 800087a:	bf22      	ittt	cs
 800087c:	1ab6      	subcs	r6, r6, r2
 800087e:	4675      	movcs	r5, lr
 8000880:	ea40 00dc 	orrcs.w	r0, r0, ip, lsr #3
 8000884:	ea55 0e06 	orrs.w	lr, r5, r6
 8000888:	d018      	beq.n	80008bc <__aeabi_ddiv+0x114>
 800088a:	ea4f 1505 	mov.w	r5, r5, lsl #4
 800088e:	ea45 7516 	orr.w	r5, r5, r6, lsr #28
 8000892:	ea4f 1606 	mov.w	r6, r6, lsl #4
 8000896:	ea4f 03c3 	mov.w	r3, r3, lsl #3
 800089a:	ea43 7352 	orr.w	r3, r3, r2, lsr #29
 800089e:	ea4f 02c2 	mov.w	r2, r2, lsl #3
 80008a2:	ea5f 1c1c 	movs.w	ip, ip, lsr #4
 80008a6:	d1c0      	bne.n	800082a <__aeabi_ddiv+0x82>
 80008a8:	f411 1f80 	tst.w	r1, #1048576	; 0x100000
 80008ac:	d10b      	bne.n	80008c6 <__aeabi_ddiv+0x11e>
 80008ae:	ea41 0100 	orr.w	r1, r1, r0
 80008b2:	f04f 0000 	mov.w	r0, #0
 80008b6:	f04f 4c00 	mov.w	ip, #2147483648	; 0x80000000
 80008ba:	e7b6      	b.n	800082a <__aeabi_ddiv+0x82>
 80008bc:	f411 1f80 	tst.w	r1, #1048576	; 0x100000
 80008c0:	bf04      	itt	eq
 80008c2:	4301      	orreq	r1, r0
 80008c4:	2000      	moveq	r0, #0
 80008c6:	f1b4 0cfd 	subs.w	ip, r4, #253	; 0xfd
 80008ca:	bf88      	it	hi
 80008cc:	f5bc 6fe0 	cmphi.w	ip, #1792	; 0x700
 80008d0:	f63f aeaf 	bhi.w	8000632 <__aeabi_dmul+0xde>
 80008d4:	ebb5 0c03 	subs.w	ip, r5, r3
 80008d8:	bf04      	itt	eq
 80008da:	ebb6 0c02 	subseq.w	ip, r6, r2
 80008de:	ea5f 0c50 	movseq.w	ip, r0, lsr #1
 80008e2:	f150 0000 	adcs.w	r0, r0, #0
 80008e6:	eb41 5104 	adc.w	r1, r1, r4, lsl #20
 80008ea:	bd70      	pop	{r4, r5, r6, pc}
 80008ec:	f00e 4e00 	and.w	lr, lr, #2147483648	; 0x80000000
 80008f0:	ea4e 3111 	orr.w	r1, lr, r1, lsr #12
 80008f4:	eb14 045c 	adds.w	r4, r4, ip, lsr #1
 80008f8:	bfc2      	ittt	gt
 80008fa:	ebd4 050c 	rsbsgt	r5, r4, ip
 80008fe:	ea41 5104 	orrgt.w	r1, r1, r4, lsl #20
 8000902:	bd70      	popgt	{r4, r5, r6, pc}
 8000904:	f441 1180 	orr.w	r1, r1, #1048576	; 0x100000
 8000908:	f04f 0e00 	mov.w	lr, #0
 800090c:	3c01      	subs	r4, #1
 800090e:	e690      	b.n	8000632 <__aeabi_dmul+0xde>
 8000910:	ea45 0e06 	orr.w	lr, r5, r6
 8000914:	e68d      	b.n	8000632 <__aeabi_dmul+0xde>
 8000916:	ea0c 5513 	and.w	r5, ip, r3, lsr #20
 800091a:	ea94 0f0c 	teq	r4, ip
 800091e:	bf08      	it	eq
 8000920:	ea95 0f0c 	teqeq	r5, ip
 8000924:	f43f af3b 	beq.w	800079e <__aeabi_dmul+0x24a>
 8000928:	ea94 0f0c 	teq	r4, ip
 800092c:	d10a      	bne.n	8000944 <__aeabi_ddiv+0x19c>
 800092e:	ea50 3401 	orrs.w	r4, r0, r1, lsl #12
 8000932:	f47f af34 	bne.w	800079e <__aeabi_dmul+0x24a>
 8000936:	ea95 0f0c 	teq	r5, ip
 800093a:	f47f af25 	bne.w	8000788 <__aeabi_dmul+0x234>
 800093e:	4610      	mov	r0, r2
 8000940:	4619      	mov	r1, r3
 8000942:	e72c      	b.n	800079e <__aeabi_dmul+0x24a>
 8000944:	ea95 0f0c 	teq	r5, ip
 8000948:	d106      	bne.n	8000958 <__aeabi_ddiv+0x1b0>
 800094a:	ea52 3503 	orrs.w	r5, r2, r3, lsl #12
 800094e:	f43f aefd 	beq.w	800074c <__aeabi_dmul+0x1f8>
 8000952:	4610      	mov	r0, r2
 8000954:	4619      	mov	r1, r3
 8000956:	e722      	b.n	800079e <__aeabi_dmul+0x24a>
 8000958:	ea50 0641 	orrs.w	r6, r0, r1, lsl #1
 800095c:	bf18      	it	ne
 800095e:	ea52 0643 	orrsne.w	r6, r2, r3, lsl #1
 8000962:	f47f aec5 	bne.w	80006f0 <__aeabi_dmul+0x19c>
 8000966:	ea50 0441 	orrs.w	r4, r0, r1, lsl #1
 800096a:	f47f af0d 	bne.w	8000788 <__aeabi_dmul+0x234>
 800096e:	ea52 0543 	orrs.w	r5, r2, r3, lsl #1
 8000972:	f47f aeeb 	bne.w	800074c <__aeabi_dmul+0x1f8>
 8000976:	e712      	b.n	800079e <__aeabi_dmul+0x24a>

08000978 <__gedf2>:
__gtdf2():
 8000978:	f04f 3cff 	mov.w	ip, #4294967295
 800097c:	e006      	b.n	800098c <__cmpdf2+0x4>
 800097e:	bf00      	nop

08000980 <__ledf2>:
 8000980:	f04f 0c01 	mov.w	ip, #1
 8000984:	e002      	b.n	800098c <__cmpdf2+0x4>
 8000986:	bf00      	nop

08000988 <__cmpdf2>:
 8000988:	f04f 0c01 	mov.w	ip, #1
 800098c:	f84d cd04 	str.w	ip, [sp, #-4]!
 8000990:	ea4f 0c41 	mov.w	ip, r1, lsl #1
 8000994:	ea7f 5c6c 	mvns.w	ip, ip, asr #21
 8000998:	ea4f 0c43 	mov.w	ip, r3, lsl #1
 800099c:	bf18      	it	ne
 800099e:	ea7f 5c6c 	mvnsne.w	ip, ip, asr #21
 80009a2:	d01b      	beq.n	80009dc <__cmpdf2+0x54>
 80009a4:	b001      	add	sp, #4
 80009a6:	ea50 0c41 	orrs.w	ip, r0, r1, lsl #1
 80009aa:	bf0c      	ite	eq
 80009ac:	ea52 0c43 	orrseq.w	ip, r2, r3, lsl #1
 80009b0:	ea91 0f03 	teqne	r1, r3
 80009b4:	bf02      	ittt	eq
 80009b6:	ea90 0f02 	teqeq	r0, r2
 80009ba:	2000      	moveq	r0, #0
 80009bc:	4770      	bxeq	lr
 80009be:	f110 0f00 	cmn.w	r0, #0
 80009c2:	ea91 0f03 	teq	r1, r3
 80009c6:	bf58      	it	pl
 80009c8:	4299      	cmppl	r1, r3
 80009ca:	bf08      	it	eq
 80009cc:	4290      	cmpeq	r0, r2
 80009ce:	bf2c      	ite	cs
 80009d0:	17d8      	asrcs	r0, r3, #31
 80009d2:	ea6f 70e3 	mvncc.w	r0, r3, asr #31
 80009d6:	f040 0001 	orr.w	r0, r0, #1
 80009da:	4770      	bx	lr
 80009dc:	ea4f 0c41 	mov.w	ip, r1, lsl #1
 80009e0:	ea7f 5c6c 	mvns.w	ip, ip, asr #21
 80009e4:	d102      	bne.n	80009ec <__cmpdf2+0x64>
 80009e6:	ea50 3c01 	orrs.w	ip, r0, r1, lsl #12
 80009ea:	d107      	bne.n	80009fc <__cmpdf2+0x74>
 80009ec:	ea4f 0c43 	mov.w	ip, r3, lsl #1
 80009f0:	ea7f 5c6c 	mvns.w	ip, ip, asr #21
 80009f4:	d1d6      	bne.n	80009a4 <__cmpdf2+0x1c>
 80009f6:	ea52 3c03 	orrs.w	ip, r2, r3, lsl #12
 80009fa:	d0d3      	beq.n	80009a4 <__cmpdf2+0x1c>
 80009fc:	f85d 0b04 	ldr.w	r0, [sp], #4
 8000a00:	4770      	bx	lr
__cmpdf2():
 8000a02:	bf00      	nop

08000a04 <__aeabi_cdrcmple>:
__aeabi_cdrcmple():
 8000a04:	4684      	mov	ip, r0
 8000a06:	4610      	mov	r0, r2
 8000a08:	4662      	mov	r2, ip
 8000a0a:	468c      	mov	ip, r1
 8000a0c:	4619      	mov	r1, r3
 8000a0e:	4663      	mov	r3, ip
 8000a10:	e000      	b.n	8000a14 <__aeabi_cdcmpeq>
 8000a12:	bf00      	nop

08000a14 <__aeabi_cdcmpeq>:
 8000a14:	b501      	push	{r0, lr}
 8000a16:	f7ff ffb7 	bl	8000988 <__cmpdf2>
 8000a1a:	2800      	cmp	r0, #0
 8000a1c:	bf48      	it	mi
 8000a1e:	f110 0f00 	cmnmi.w	r0, #0
 8000a22:	bd01      	pop	{r0, pc}

08000a24 <__aeabi_dcmpeq>:
__aeabi_dcmpeq():
 8000a24:	f84d ed08 	str.w	lr, [sp, #-8]!
 8000a28:	f7ff fff4 	bl	8000a14 <__aeabi_cdcmpeq>
 8000a2c:	bf0c      	ite	eq
 8000a2e:	2001      	moveq	r0, #1
 8000a30:	2000      	movne	r0, #0
 8000a32:	f85d fb08 	ldr.w	pc, [sp], #8
 8000a36:	bf00      	nop

08000a38 <__aeabi_dcmplt>:
__aeabi_dcmplt():
 8000a38:	f84d ed08 	str.w	lr, [sp, #-8]!
 8000a3c:	f7ff ffea 	bl	8000a14 <__aeabi_cdcmpeq>
 8000a40:	bf34      	ite	cc
 8000a42:	2001      	movcc	r0, #1
 8000a44:	2000      	movcs	r0, #0
 8000a46:	f85d fb08 	ldr.w	pc, [sp], #8
 8000a4a:	bf00      	nop

08000a4c <__aeabi_dcmple>:
__aeabi_dcmple():
 8000a4c:	f84d ed08 	str.w	lr, [sp, #-8]!
 8000a50:	f7ff ffe0 	bl	8000a14 <__aeabi_cdcmpeq>
 8000a54:	bf94      	ite	ls
 8000a56:	2001      	movls	r0, #1
 8000a58:	2000      	movhi	r0, #0
 8000a5a:	f85d fb08 	ldr.w	pc, [sp], #8
 8000a5e:	bf00      	nop

08000a60 <__aeabi_dcmpge>:
__aeabi_dcmpge():
 8000a60:	f84d ed08 	str.w	lr, [sp, #-8]!
 8000a64:	f7ff ffce 	bl	8000a04 <__aeabi_cdrcmple>
 8000a68:	bf94      	ite	ls
 8000a6a:	2001      	movls	r0, #1
 8000a6c:	2000      	movhi	r0, #0
 8000a6e:	f85d fb08 	ldr.w	pc, [sp], #8
 8000a72:	bf00      	nop

08000a74 <__aeabi_dcmpgt>:
__aeabi_dcmpgt():
 8000a74:	f84d ed08 	str.w	lr, [sp, #-8]!
 8000a78:	f7ff ffc4 	bl	8000a04 <__aeabi_cdrcmple>
 8000a7c:	bf34      	ite	cc
 8000a7e:	2001      	movcc	r0, #1
 8000a80:	2000      	movcs	r0, #0
 8000a82:	f85d fb08 	ldr.w	pc, [sp], #8
 8000a86:	bf00      	nop

08000a88 <__aeabi_d2f>:
__aeabi_d2f():
 8000a88:	ea4f 0241 	mov.w	r2, r1, lsl #1
 8000a8c:	f1b2 43e0 	subs.w	r3, r2, #1879048192	; 0x70000000
 8000a90:	bf24      	itt	cs
 8000a92:	f5b3 1c00 	subscs.w	ip, r3, #2097152	; 0x200000
 8000a96:	f1dc 5cfe 	rsbscs	ip, ip, #532676608	; 0x1fc00000
 8000a9a:	d90d      	bls.n	8000ab8 <__aeabi_d2f+0x30>
 8000a9c:	f001 4c00 	and.w	ip, r1, #2147483648	; 0x80000000
 8000aa0:	ea4f 02c0 	mov.w	r2, r0, lsl #3
 8000aa4:	ea4c 7050 	orr.w	r0, ip, r0, lsr #29
 8000aa8:	f1b2 4f00 	cmp.w	r2, #2147483648	; 0x80000000
 8000aac:	eb40 0083 	adc.w	r0, r0, r3, lsl #2
 8000ab0:	bf08      	it	eq
 8000ab2:	f020 0001 	biceq.w	r0, r0, #1
 8000ab6:	4770      	bx	lr
 8000ab8:	f011 4f80 	tst.w	r1, #1073741824	; 0x40000000
 8000abc:	d121      	bne.n	8000b02 <__aeabi_d2f+0x7a>
 8000abe:	f113 7238 	adds.w	r2, r3, #48234496	; 0x2e00000
 8000ac2:	bfbc      	itt	lt
 8000ac4:	f001 4000 	andlt.w	r0, r1, #2147483648	; 0x80000000
 8000ac8:	4770      	bxlt	lr
 8000aca:	f441 1180 	orr.w	r1, r1, #1048576	; 0x100000
 8000ace:	ea4f 5252 	mov.w	r2, r2, lsr #21
 8000ad2:	f1c2 0218 	rsb	r2, r2, #24
 8000ad6:	f1c2 0c20 	rsb	ip, r2, #32
 8000ada:	fa10 f30c 	lsls.w	r3, r0, ip
 8000ade:	fa20 f002 	lsr.w	r0, r0, r2
 8000ae2:	bf18      	it	ne
 8000ae4:	f040 0001 	orrne.w	r0, r0, #1
 8000ae8:	ea4f 23c1 	mov.w	r3, r1, lsl #11
 8000aec:	ea4f 23d3 	mov.w	r3, r3, lsr #11
 8000af0:	fa03 fc0c 	lsl.w	ip, r3, ip
 8000af4:	ea40 000c 	orr.w	r0, r0, ip
 8000af8:	fa23 f302 	lsr.w	r3, r3, r2
 8000afc:	ea4f 0343 	mov.w	r3, r3, lsl #1
 8000b00:	e7cc      	b.n	8000a9c <__aeabi_d2f+0x14>
 8000b02:	ea7f 5362 	mvns.w	r3, r2, asr #21
 8000b06:	d107      	bne.n	8000b18 <__aeabi_d2f+0x90>
 8000b08:	ea50 3301 	orrs.w	r3, r0, r1, lsl #12
 8000b0c:	bf1e      	ittt	ne
 8000b0e:	f04f 40fe 	movne.w	r0, #2130706432	; 0x7f000000
 8000b12:	f440 0040 	orrne.w	r0, r0, #12582912	; 0xc00000
 8000b16:	4770      	bxne	lr
 8000b18:	f001 4000 	and.w	r0, r1, #2147483648	; 0x80000000
 8000b1c:	f040 40fe 	orr.w	r0, r0, #2130706432	; 0x7f000000
 8000b20:	f440 0000 	orr.w	r0, r0, #8388608	; 0x800000
 8000b24:	4770      	bx	lr
 8000b26:	bf00      	nop

08000b28 <memcpy>:
memcpy():
 8000b28:	4684      	mov	ip, r0
 8000b2a:	ea41 0300 	orr.w	r3, r1, r0
 8000b2e:	f013 0303 	ands.w	r3, r3, #3
 8000b32:	d16d      	bne.n	8000c10 <memcpy+0xe8>
 8000b34:	3a40      	subs	r2, #64	; 0x40
 8000b36:	d341      	bcc.n	8000bbc <memcpy+0x94>
 8000b38:	f851 3b04 	ldr.w	r3, [r1], #4
 8000b3c:	f840 3b04 	str.w	r3, [r0], #4
 8000b40:	f851 3b04 	ldr.w	r3, [r1], #4
 8000b44:	f840 3b04 	str.w	r3, [r0], #4
 8000b48:	f851 3b04 	ldr.w	r3, [r1], #4
 8000b4c:	f840 3b04 	str.w	r3, [r0], #4
 8000b50:	f851 3b04 	ldr.w	r3, [r1], #4
 8000b54:	f840 3b04 	str.w	r3, [r0], #4
 8000b58:	f851 3b04 	ldr.w	r3, [r1], #4
 8000b5c:	f840 3b04 	str.w	r3, [r0], #4
 8000b60:	f851 3b04 	ldr.w	r3, [r1], #4
 8000b64:	f840 3b04 	str.w	r3, [r0], #4
 8000b68:	f851 3b04 	ldr.w	r3, [r1], #4
 8000b6c:	f840 3b04 	str.w	r3, [r0], #4
 8000b70:	f851 3b04 	ldr.w	r3, [r1], #4
 8000b74:	f840 3b04 	str.w	r3, [r0], #4
 8000b78:	f851 3b04 	ldr.w	r3, [r1], #4
 8000b7c:	f840 3b04 	str.w	r3, [r0], #4
 8000b80:	f851 3b04 	ldr.w	r3, [r1], #4
 8000b84:	f840 3b04 	str.w	r3, [r0], #4
 8000b88:	f851 3b04 	ldr.w	r3, [r1], #4
 8000b8c:	f840 3b04 	str.w	r3, [r0], #4
 8000b90:	f851 3b04 	ldr.w	r3, [r1], #4
 8000b94:	f840 3b04 	str.w	r3, [r0], #4
 8000b98:	f851 3b04 	ldr.w	r3, [r1], #4
 8000b9c:	f840 3b04 	str.w	r3, [r0], #4
 8000ba0:	f851 3b04 	ldr.w	r3, [r1], #4
 8000ba4:	f840 3b04 	str.w	r3, [r0], #4
 8000ba8:	f851 3b04 	ldr.w	r3, [r1], #4
 8000bac:	f840 3b04 	str.w	r3, [r0], #4
 8000bb0:	f851 3b04 	ldr.w	r3, [r1], #4
 8000bb4:	f840 3b04 	str.w	r3, [r0], #4
 8000bb8:	3a40      	subs	r2, #64	; 0x40
 8000bba:	d2bd      	bcs.n	8000b38 <memcpy+0x10>
 8000bbc:	3230      	adds	r2, #48	; 0x30
 8000bbe:	d311      	bcc.n	8000be4 <memcpy+0xbc>
 8000bc0:	f851 3b04 	ldr.w	r3, [r1], #4
 8000bc4:	f840 3b04 	str.w	r3, [r0], #4
 8000bc8:	f851 3b04 	ldr.w	r3, [r1], #4
 8000bcc:	f840 3b04 	str.w	r3, [r0], #4
 8000bd0:	f851 3b04 	ldr.w	r3, [r1], #4
 8000bd4:	f840 3b04 	str.w	r3, [r0], #4
 8000bd8:	f851 3b04 	ldr.w	r3, [r1], #4
 8000bdc:	f840 3b04 	str.w	r3, [r0], #4
 8000be0:	3a10      	subs	r2, #16
 8000be2:	d2ed      	bcs.n	8000bc0 <memcpy+0x98>
 8000be4:	320c      	adds	r2, #12
 8000be6:	d305      	bcc.n	8000bf4 <memcpy+0xcc>
 8000be8:	f851 3b04 	ldr.w	r3, [r1], #4
 8000bec:	f840 3b04 	str.w	r3, [r0], #4
 8000bf0:	3a04      	subs	r2, #4
 8000bf2:	d2f9      	bcs.n	8000be8 <memcpy+0xc0>
 8000bf4:	3204      	adds	r2, #4
 8000bf6:	d008      	beq.n	8000c0a <memcpy+0xe2>
 8000bf8:	07d2      	lsls	r2, r2, #31
 8000bfa:	bf1c      	itt	ne
 8000bfc:	f811 3b01 	ldrbne.w	r3, [r1], #1
 8000c00:	f800 3b01 	strbne.w	r3, [r0], #1
 8000c04:	d301      	bcc.n	8000c0a <memcpy+0xe2>
 8000c06:	880b      	ldrh	r3, [r1, #0]
 8000c08:	8003      	strh	r3, [r0, #0]
 8000c0a:	4660      	mov	r0, ip
 8000c0c:	4770      	bx	lr
 8000c0e:	bf00      	nop
 8000c10:	2a08      	cmp	r2, #8
 8000c12:	d313      	bcc.n	8000c3c <memcpy+0x114>
 8000c14:	078b      	lsls	r3, r1, #30
 8000c16:	d08d      	beq.n	8000b34 <memcpy+0xc>
 8000c18:	f010 0303 	ands.w	r3, r0, #3
 8000c1c:	d08a      	beq.n	8000b34 <memcpy+0xc>
 8000c1e:	f1c3 0304 	rsb	r3, r3, #4
 8000c22:	1ad2      	subs	r2, r2, r3
 8000c24:	07db      	lsls	r3, r3, #31
 8000c26:	bf1c      	itt	ne
 8000c28:	f811 3b01 	ldrbne.w	r3, [r1], #1
 8000c2c:	f800 3b01 	strbne.w	r3, [r0], #1
 8000c30:	d380      	bcc.n	8000b34 <memcpy+0xc>
 8000c32:	f831 3b02 	ldrh.w	r3, [r1], #2
 8000c36:	f820 3b02 	strh.w	r3, [r0], #2
 8000c3a:	e77b      	b.n	8000b34 <memcpy+0xc>
 8000c3c:	3a04      	subs	r2, #4
 8000c3e:	d3d9      	bcc.n	8000bf4 <memcpy+0xcc>
 8000c40:	3a01      	subs	r2, #1
 8000c42:	f811 3b01 	ldrb.w	r3, [r1], #1
 8000c46:	f800 3b01 	strb.w	r3, [r0], #1
 8000c4a:	d2f9      	bcs.n	8000c40 <memcpy+0x118>
 8000c4c:	780b      	ldrb	r3, [r1, #0]
 8000c4e:	7003      	strb	r3, [r0, #0]
 8000c50:	784b      	ldrb	r3, [r1, #1]
 8000c52:	7043      	strb	r3, [r0, #1]
 8000c54:	788b      	ldrb	r3, [r1, #2]
 8000c56:	7083      	strb	r3, [r0, #2]
 8000c58:	4660      	mov	r0, ip
 8000c5a:	4770      	bx	lr

08000c5c <USBH_MIDI_ClassRequest>:
USBH_MIDI_ClassRequest():
 8000c5c:	b508      	push	{r3, lr}
 8000c5e:	2102      	movs	r1, #2
 8000c60:	f8d0 3614 	ldr.w	r3, [r0, #1556]	; 0x614
 8000c64:	4798      	blx	r3
 8000c66:	2000      	movs	r0, #0
 8000c68:	bd08      	pop	{r3, pc}
 8000c6a:	bf00      	nop

08000c6c <USBH_MIDI_SOFProcess>:
USBH_MIDI_SOFProcess():
 8000c6c:	2000      	movs	r0, #0
 8000c6e:	4770      	bx	lr

08000c70 <USBH_MIDI_InterfaceDeInit>:
USBH_MIDI_InterfaceDeInit():
 8000c70:	b538      	push	{r3, r4, r5, lr}
 8000c72:	f8d0 35c4 	ldr.w	r3, [r0, #1476]	; 0x5c4
 8000c76:	69dd      	ldr	r5, [r3, #28]
 8000c78:	78a9      	ldrb	r1, [r5, #2]
 8000c7a:	4604      	mov	r4, r0
 8000c7c:	b969      	cbnz	r1, 8000c9a <USBH_MIDI_InterfaceDeInit+0x2a>
 8000c7e:	7869      	ldrb	r1, [r5, #1]
 8000c80:	b9b1      	cbnz	r1, 8000cb0 <USBH_MIDI_InterfaceDeInit+0x40>
 8000c82:	f8d4 35c4 	ldr.w	r3, [r4, #1476]	; 0x5c4
 8000c86:	69d8      	ldr	r0, [r3, #28]
 8000c88:	b128      	cbz	r0, 8000c96 <USBH_MIDI_InterfaceDeInit+0x26>
 8000c8a:	f00d fbb3 	bl	800e3f4 <free>
 8000c8e:	f8d4 35c4 	ldr.w	r3, [r4, #1476]	; 0x5c4
 8000c92:	2200      	movs	r2, #0
 8000c94:	61da      	str	r2, [r3, #28]
 8000c96:	2000      	movs	r0, #0
 8000c98:	bd38      	pop	{r3, r4, r5, pc}
 8000c9a:	f001 fc6f 	bl	800257c <USBH_ClosePipe>
 8000c9e:	78a9      	ldrb	r1, [r5, #2]
 8000ca0:	4620      	mov	r0, r4
 8000ca2:	f001 fcc7 	bl	8002634 <USBH_FreePipe>
 8000ca6:	7869      	ldrb	r1, [r5, #1]
 8000ca8:	2300      	movs	r3, #0
 8000caa:	70ab      	strb	r3, [r5, #2]
 8000cac:	2900      	cmp	r1, #0
 8000cae:	d0e8      	beq.n	8000c82 <USBH_MIDI_InterfaceDeInit+0x12>
 8000cb0:	4620      	mov	r0, r4
 8000cb2:	f001 fc63 	bl	800257c <USBH_ClosePipe>
 8000cb6:	4620      	mov	r0, r4
 8000cb8:	7869      	ldrb	r1, [r5, #1]
 8000cba:	f001 fcbb 	bl	8002634 <USBH_FreePipe>
 8000cbe:	2300      	movs	r3, #0
 8000cc0:	706b      	strb	r3, [r5, #1]
 8000cc2:	e7de      	b.n	8000c82 <USBH_MIDI_InterfaceDeInit+0x12>

08000cc4 <USBH_MIDI_InterfaceInit>:
USBH_MIDI_InterfaceInit():
 8000cc4:	b5f0      	push	{r4, r5, r6, r7, lr}
 8000cc6:	2101      	movs	r1, #1
 8000cc8:	b085      	sub	sp, #20
 8000cca:	2203      	movs	r2, #3
 8000ccc:	23ff      	movs	r3, #255	; 0xff
 8000cce:	4605      	mov	r5, r0
 8000cd0:	f000 f974 	bl	8000fbc <USBH_FindInterface>
 8000cd4:	28ff      	cmp	r0, #255	; 0xff
 8000cd6:	d102      	bne.n	8000cde <USBH_MIDI_InterfaceInit+0x1a>
 8000cd8:	2002      	movs	r0, #2
 8000cda:	b005      	add	sp, #20
 8000cdc:	bdf0      	pop	{r4, r5, r6, r7, pc}
 8000cde:	4601      	mov	r1, r0
 8000ce0:	4628      	mov	r0, r5
 8000ce2:	f000 f961 	bl	8000fa8 <USBH_SelectInterface>
 8000ce6:	201c      	movs	r0, #28
 8000ce8:	f8d5 65c4 	ldr.w	r6, [r5, #1476]	; 0x5c4
 8000cec:	f00d fb7a 	bl	800e3e4 <malloc>
 8000cf0:	61f0      	str	r0, [r6, #28]
 8000cf2:	f895 321f 	ldrb.w	r3, [r5, #543]	; 0x21f
 8000cf6:	225a      	movs	r2, #90	; 0x5a
 8000cf8:	fb02 5203 	mla	r2, r2, r3, r5
 8000cfc:	f502 720e 	add.w	r2, r2, #568	; 0x238
 8000d00:	7c11      	ldrb	r1, [r2, #16]
 8000d02:	8a52      	ldrh	r2, [r2, #18]
 8000d04:	4604      	mov	r4, r0
 8000d06:	0608      	lsls	r0, r1, #24
 8000d08:	bf4c      	ite	mi
 8000d0a:	8122      	strhmi	r2, [r4, #8]
 8000d0c:	80e2      	strhpl	r2, [r4, #6]
 8000d0e:	f04f 025a 	mov.w	r2, #90	; 0x5a
 8000d12:	fb02 5303 	mla	r3, r2, r3, r5
 8000d16:	f503 7310 	add.w	r3, r3, #576	; 0x240
 8000d1a:	bf4c      	ite	mi
 8000d1c:	7121      	strbmi	r1, [r4, #4]
 8000d1e:	70e1      	strbpl	r1, [r4, #3]
 8000d20:	7c19      	ldrb	r1, [r3, #16]
 8000d22:	8a5b      	ldrh	r3, [r3, #18]
 8000d24:	060a      	lsls	r2, r1, #24
 8000d26:	d435      	bmi.n	8000d94 <USBH_MIDI_InterfaceInit+0xd0>
 8000d28:	80e3      	strh	r3, [r4, #6]
 8000d2a:	70e1      	strb	r1, [r4, #3]
 8000d2c:	4628      	mov	r0, r5
 8000d2e:	f001 fc2b 	bl	8002588 <USBH_AllocPipe>
 8000d32:	7921      	ldrb	r1, [r4, #4]
 8000d34:	70a0      	strb	r0, [r4, #2]
 8000d36:	4628      	mov	r0, r5
 8000d38:	f001 fc26 	bl	8002588 <USBH_AllocPipe>
 8000d3c:	2602      	movs	r6, #2
 8000d3e:	f895 e21d 	ldrb.w	lr, [r5, #541]	; 0x21d
 8000d42:	88e7      	ldrh	r7, [r4, #6]
 8000d44:	f895 321c 	ldrb.w	r3, [r5, #540]	; 0x21c
 8000d48:	78a1      	ldrb	r1, [r4, #2]
 8000d4a:	f8cd e000 	str.w	lr, [sp]
 8000d4e:	78e2      	ldrb	r2, [r4, #3]
 8000d50:	7060      	strb	r0, [r4, #1]
 8000d52:	9601      	str	r6, [sp, #4]
 8000d54:	9702      	str	r7, [sp, #8]
 8000d56:	4628      	mov	r0, r5
 8000d58:	f001 fc00 	bl	800255c <USBH_OpenPipe>
 8000d5c:	f895 721d 	ldrb.w	r7, [r5, #541]	; 0x21d
 8000d60:	8920      	ldrh	r0, [r4, #8]
 8000d62:	f895 321c 	ldrb.w	r3, [r5, #540]	; 0x21c
 8000d66:	7861      	ldrb	r1, [r4, #1]
 8000d68:	7922      	ldrb	r2, [r4, #4]
 8000d6a:	9601      	str	r6, [sp, #4]
 8000d6c:	9002      	str	r0, [sp, #8]
 8000d6e:	2600      	movs	r6, #0
 8000d70:	9700      	str	r7, [sp, #0]
 8000d72:	4628      	mov	r0, r5
 8000d74:	f001 fbf2 	bl	800255c <USBH_OpenPipe>
 8000d78:	4632      	mov	r2, r6
 8000d7a:	7861      	ldrb	r1, [r4, #1]
 8000d7c:	7026      	strb	r6, [r4, #0]
 8000d7e:	4628      	mov	r0, r5
 8000d80:	f006 f94a 	bl	8007018 <USBH_LL_SetToggle>
 8000d84:	4628      	mov	r0, r5
 8000d86:	78a1      	ldrb	r1, [r4, #2]
 8000d88:	4632      	mov	r2, r6
 8000d8a:	f006 f945 	bl	8007018 <USBH_LL_SetToggle>
 8000d8e:	4630      	mov	r0, r6
 8000d90:	b005      	add	sp, #20
 8000d92:	bdf0      	pop	{r4, r5, r6, r7, pc}
 8000d94:	7121      	strb	r1, [r4, #4]
 8000d96:	8123      	strh	r3, [r4, #8]
 8000d98:	78e1      	ldrb	r1, [r4, #3]
 8000d9a:	e7c7      	b.n	8000d2c <USBH_MIDI_InterfaceInit+0x68>

08000d9c <USBH_MIDI_Stop>:
USBH_MIDI_Stop():
 8000d9c:	7802      	ldrb	r2, [r0, #0]
 8000d9e:	f8d0 15c4 	ldr.w	r1, [r0, #1476]	; 0x5c4
 8000da2:	2a0a      	cmp	r2, #10
 8000da4:	b538      	push	{r3, r4, r5, lr}
 8000da6:	69cd      	ldr	r5, [r1, #28]
 8000da8:	d001      	beq.n	8000dae <USBH_MIDI_Stop+0x12>
 8000daa:	2000      	movs	r0, #0
 8000dac:	bd38      	pop	{r3, r4, r5, pc}
 8000dae:	2300      	movs	r3, #0
 8000db0:	4604      	mov	r4, r0
 8000db2:	702b      	strb	r3, [r5, #0]
 8000db4:	7869      	ldrb	r1, [r5, #1]
 8000db6:	f001 fbe1 	bl	800257c <USBH_ClosePipe>
 8000dba:	4620      	mov	r0, r4
 8000dbc:	78a9      	ldrb	r1, [r5, #2]
 8000dbe:	f001 fbdd 	bl	800257c <USBH_ClosePipe>
 8000dc2:	2000      	movs	r0, #0
 8000dc4:	bd38      	pop	{r3, r4, r5, pc}
 8000dc6:	bf00      	nop

08000dc8 <USBH_MIDI_GetLastReceivedDataSize>:
USBH_MIDI_GetLastReceivedDataSize():
 8000dc8:	b508      	push	{r3, lr}
 8000dca:	7803      	ldrb	r3, [r0, #0]
 8000dcc:	f8d0 25c4 	ldr.w	r2, [r0, #1476]	; 0x5c4
 8000dd0:	2b0a      	cmp	r3, #10
 8000dd2:	69d2      	ldr	r2, [r2, #28]
 8000dd4:	d001      	beq.n	8000dda <USBH_MIDI_GetLastReceivedDataSize+0x12>
 8000dd6:	2000      	movs	r0, #0
 8000dd8:	bd08      	pop	{r3, pc}
 8000dda:	7851      	ldrb	r1, [r2, #1]
 8000ddc:	f006 f8ce 	bl	8006f7c <USBH_LL_GetLastXferSize>
 8000de0:	b280      	uxth	r0, r0
 8000de2:	bd08      	pop	{r3, pc}

08000de4 <USBH_MIDI_Receive>:
USBH_MIDI_Receive():
 8000de4:	f8d0 35c4 	ldr.w	r3, [r0, #1476]	; 0x5c4
 8000de8:	69db      	ldr	r3, [r3, #28]
 8000dea:	7818      	ldrb	r0, [r3, #0]
 8000dec:	2801      	cmp	r0, #1
 8000dee:	d901      	bls.n	8000df4 <USBH_MIDI_Receive+0x10>
 8000df0:	2001      	movs	r0, #1
 8000df2:	4770      	bx	lr
 8000df4:	b410      	push	{r4}
 8000df6:	2003      	movs	r0, #3
 8000df8:	2401      	movs	r4, #1
 8000dfa:	701c      	strb	r4, [r3, #0]
 8000dfc:	7658      	strb	r0, [r3, #25]
 8000dfe:	6119      	str	r1, [r3, #16]
 8000e00:	2000      	movs	r0, #0
 8000e02:	82da      	strh	r2, [r3, #22]
 8000e04:	f85d 4b04 	ldr.w	r4, [sp], #4
 8000e08:	4770      	bx	lr
 8000e0a:	bf00      	nop

08000e0c <USBH_MIDI_TransmitCallback>:
USBH_MIDI_TransmitCallback():
 8000e0c:	4770      	bx	lr
 8000e0e:	bf00      	nop

08000e10 <USBH_MIDI_Process>:
USBH_MIDI_Process():
 8000e10:	f8d0 35c4 	ldr.w	r3, [r0, #1476]	; 0x5c4
 8000e14:	b5f0      	push	{r4, r5, r6, r7, lr}
 8000e16:	69dc      	ldr	r4, [r3, #28]
 8000e18:	7825      	ldrb	r5, [r4, #0]
 8000e1a:	2d01      	cmp	r5, #1
 8000e1c:	b083      	sub	sp, #12
 8000e1e:	4606      	mov	r6, r0
 8000e20:	d011      	beq.n	8000e46 <USBH_MIDI_Process+0x36>
 8000e22:	d30d      	bcc.n	8000e40 <USBH_MIDI_Process+0x30>
 8000e24:	2d02      	cmp	r5, #2
 8000e26:	d002      	beq.n	8000e2e <USBH_MIDI_Process+0x1e>
 8000e28:	2001      	movs	r0, #1
 8000e2a:	b003      	add	sp, #12
 8000e2c:	bdf0      	pop	{r4, r5, r6, r7, pc}
 8000e2e:	2100      	movs	r1, #0
 8000e30:	f001 fa5a 	bl	80022e8 <USBH_ClrFeature>
 8000e34:	2800      	cmp	r0, #0
 8000e36:	d1f7      	bne.n	8000e28 <USBH_MIDI_Process+0x18>
 8000e38:	7020      	strb	r0, [r4, #0]
 8000e3a:	2001      	movs	r0, #1
 8000e3c:	b003      	add	sp, #12
 8000e3e:	bdf0      	pop	{r4, r5, r6, r7, pc}
 8000e40:	2000      	movs	r0, #0
 8000e42:	b003      	add	sp, #12
 8000e44:	bdf0      	pop	{r4, r5, r6, r7, pc}
 8000e46:	7e27      	ldrb	r7, [r4, #24]
 8000e48:	2f01      	cmp	r7, #1
 8000e4a:	d02b      	beq.n	8000ea4 <USBH_MIDI_Process+0x94>
 8000e4c:	2f02      	cmp	r7, #2
 8000e4e:	d143      	bne.n	8000ed8 <USBH_MIDI_Process+0xc8>
 8000e50:	78a1      	ldrb	r1, [r4, #2]
 8000e52:	f006 f8c5 	bl	8006fe0 <USBH_LL_GetURBState>
 8000e56:	2801      	cmp	r0, #1
 8000e58:	d040      	beq.n	8000edc <USBH_MIDI_Process+0xcc>
 8000e5a:	f8d6 35c4 	ldr.w	r3, [r6, #1476]	; 0x5c4
 8000e5e:	2802      	cmp	r0, #2
 8000e60:	bf08      	it	eq
 8000e62:	7625      	strbeq	r5, [r4, #24]
 8000e64:	69dd      	ldr	r5, [r3, #28]
 8000e66:	7e6b      	ldrb	r3, [r5, #25]
 8000e68:	2b03      	cmp	r3, #3
 8000e6a:	d02b      	beq.n	8000ec4 <USBH_MIDI_Process+0xb4>
 8000e6c:	2b04      	cmp	r3, #4
 8000e6e:	d1db      	bne.n	8000e28 <USBH_MIDI_Process+0x18>
 8000e70:	4630      	mov	r0, r6
 8000e72:	7869      	ldrb	r1, [r5, #1]
 8000e74:	f006 f8b4 	bl	8006fe0 <USBH_LL_GetURBState>
 8000e78:	2801      	cmp	r0, #1
 8000e7a:	4604      	mov	r4, r0
 8000e7c:	d1d4      	bne.n	8000e28 <USBH_MIDI_Process+0x18>
 8000e7e:	4630      	mov	r0, r6
 8000e80:	7869      	ldrb	r1, [r5, #1]
 8000e82:	f006 f87b 	bl	8006f7c <USBH_LL_GetLastXferSize>
 8000e86:	8aeb      	ldrh	r3, [r5, #22]
 8000e88:	b280      	uxth	r0, r0
 8000e8a:	1a1b      	subs	r3, r3, r0
 8000e8c:	2b00      	cmp	r3, #0
 8000e8e:	dd02      	ble.n	8000e96 <USBH_MIDI_Process+0x86>
 8000e90:	892a      	ldrh	r2, [r5, #8]
 8000e92:	4282      	cmp	r2, r0
 8000e94:	d33d      	bcc.n	8000f12 <USBH_MIDI_Process+0x102>
 8000e96:	2300      	movs	r3, #0
 8000e98:	4630      	mov	r0, r6
 8000e9a:	766b      	strb	r3, [r5, #25]
 8000e9c:	f006 fa14 	bl	80072c8 <USBH_MIDI_ReceiveCallback>
 8000ea0:	2001      	movs	r0, #1
 8000ea2:	e7c2      	b.n	8000e2a <USBH_MIDI_Process+0x1a>
 8000ea4:	8aa2      	ldrh	r2, [r4, #20]
 8000ea6:	88e5      	ldrh	r5, [r4, #6]
 8000ea8:	78a3      	ldrb	r3, [r4, #2]
 8000eaa:	68e1      	ldr	r1, [r4, #12]
 8000eac:	9700      	str	r7, [sp, #0]
 8000eae:	42aa      	cmp	r2, r5
 8000eb0:	bf88      	it	hi
 8000eb2:	462a      	movhi	r2, r5
 8000eb4:	f001 fb2c 	bl	8002510 <USBH_BulkSendData>
 8000eb8:	f8d6 25c4 	ldr.w	r2, [r6, #1476]	; 0x5c4
 8000ebc:	2302      	movs	r3, #2
 8000ebe:	69d5      	ldr	r5, [r2, #28]
 8000ec0:	7623      	strb	r3, [r4, #24]
 8000ec2:	e7d0      	b.n	8000e66 <USBH_MIDI_Process+0x56>
 8000ec4:	786b      	ldrb	r3, [r5, #1]
 8000ec6:	6929      	ldr	r1, [r5, #16]
 8000ec8:	892a      	ldrh	r2, [r5, #8]
 8000eca:	4630      	mov	r0, r6
 8000ecc:	f001 fb36 	bl	800253c <USBH_BulkReceiveData>
 8000ed0:	2304      	movs	r3, #4
 8000ed2:	766b      	strb	r3, [r5, #25]
 8000ed4:	2001      	movs	r0, #1
 8000ed6:	e7a8      	b.n	8000e2a <USBH_MIDI_Process+0x1a>
 8000ed8:	4625      	mov	r5, r4
 8000eda:	e7c4      	b.n	8000e66 <USBH_MIDI_Process+0x56>
 8000edc:	8aa3      	ldrh	r3, [r4, #20]
 8000ede:	88e2      	ldrh	r2, [r4, #6]
 8000ee0:	4293      	cmp	r3, r2
 8000ee2:	d90b      	bls.n	8000efc <USBH_MIDI_Process+0xec>
 8000ee4:	68e1      	ldr	r1, [r4, #12]
 8000ee6:	1a9b      	subs	r3, r3, r2
 8000ee8:	b29b      	uxth	r3, r3
 8000eea:	440a      	add	r2, r1
 8000eec:	82a3      	strh	r3, [r4, #20]
 8000eee:	60e2      	str	r2, [r4, #12]
 8000ef0:	b133      	cbz	r3, 8000f00 <USBH_MIDI_Process+0xf0>
 8000ef2:	f8d6 35c4 	ldr.w	r3, [r6, #1476]	; 0x5c4
 8000ef6:	7620      	strb	r0, [r4, #24]
 8000ef8:	69dd      	ldr	r5, [r3, #28]
 8000efa:	e7b4      	b.n	8000e66 <USBH_MIDI_Process+0x56>
 8000efc:	2300      	movs	r3, #0
 8000efe:	82a3      	strh	r3, [r4, #20]
 8000f00:	2300      	movs	r3, #0
 8000f02:	7623      	strb	r3, [r4, #24]
 8000f04:	4630      	mov	r0, r6
 8000f06:	f7ff ff81 	bl	8000e0c <USBH_MIDI_TransmitCallback>
 8000f0a:	f8d6 35c4 	ldr.w	r3, [r6, #1476]	; 0x5c4
 8000f0e:	69dd      	ldr	r5, [r3, #28]
 8000f10:	e7a9      	b.n	8000e66 <USBH_MIDI_Process+0x56>
 8000f12:	692a      	ldr	r2, [r5, #16]
 8000f14:	82eb      	strh	r3, [r5, #22]
 8000f16:	1813      	adds	r3, r2, r0
 8000f18:	2203      	movs	r2, #3
 8000f1a:	4620      	mov	r0, r4
 8000f1c:	612b      	str	r3, [r5, #16]
 8000f1e:	766a      	strb	r2, [r5, #25]
 8000f20:	e783      	b.n	8000e2a <USBH_MIDI_Process+0x1a>
 8000f22:	bf00      	nop

08000f24 <USBH_Init>:
USBH_Init():
 8000f24:	b570      	push	{r4, r5, r6, lr}
 8000f26:	4604      	mov	r4, r0
 8000f28:	b350      	cbz	r0, 8000f80 <USBH_Init+0x5c>
 8000f2a:	2500      	movs	r5, #0
 8000f2c:	f880 260c 	strb.w	r2, [r0, #1548]	; 0x60c
 8000f30:	f8c0 55c4 	str.w	r5, [r0, #1476]	; 0x5c4
 8000f34:	f8c0 55c8 	str.w	r5, [r0, #1480]	; 0x5c8
 8000f38:	223c      	movs	r2, #60	; 0x3c
 8000f3a:	460e      	mov	r6, r1
 8000f3c:	f200 50cc 	addw	r0, r0, #1484	; 0x5cc
 8000f40:	4629      	mov	r1, r5
 8000f42:	f00d fced 	bl	800e920 <memset>
 8000f46:	f44f 7200 	mov.w	r2, #512	; 0x200
 8000f4a:	4629      	mov	r1, r5
 8000f4c:	f104 001c 	add.w	r0, r4, #28
 8000f50:	f00d fce6 	bl	800e920 <memset>
 8000f54:	2301      	movs	r3, #1
 8000f56:	2240      	movs	r2, #64	; 0x40
 8000f58:	7025      	strb	r5, [r4, #0]
 8000f5a:	7065      	strb	r5, [r4, #1]
 8000f5c:	f8c4 5608 	str.w	r5, [r4, #1544]	; 0x608
 8000f60:	7665      	strb	r5, [r4, #25]
 8000f62:	f884 521c 	strb.w	r5, [r4, #540]	; 0x21c
 8000f66:	70a3      	strb	r3, [r4, #2]
 8000f68:	7623      	strb	r3, [r4, #24]
 8000f6a:	f884 321d 	strb.w	r3, [r4, #541]	; 0x21d
 8000f6e:	71a2      	strb	r2, [r4, #6]
 8000f70:	b10e      	cbz	r6, 8000f76 <USBH_Init+0x52>
 8000f72:	f8c4 6614 	str.w	r6, [r4, #1556]	; 0x614
 8000f76:	4620      	mov	r0, r4
 8000f78:	f005 ffb0 	bl	8006edc <USBH_LL_Init>
 8000f7c:	2000      	movs	r0, #0
 8000f7e:	bd70      	pop	{r4, r5, r6, pc}
 8000f80:	2002      	movs	r0, #2
 8000f82:	bd70      	pop	{r4, r5, r6, pc}

08000f84 <USBH_RegisterClass>:
USBH_RegisterClass():
 8000f84:	b119      	cbz	r1, 8000f8e <USBH_RegisterClass+0xa>
 8000f86:	f8d0 35c8 	ldr.w	r3, [r0, #1480]	; 0x5c8
 8000f8a:	4602      	mov	r2, r0
 8000f8c:	b10b      	cbz	r3, 8000f92 <USBH_RegisterClass+0xe>
 8000f8e:	2002      	movs	r0, #2
 8000f90:	4770      	bx	lr
 8000f92:	b410      	push	{r4}
 8000f94:	2401      	movs	r4, #1
 8000f96:	f8c0 15c0 	str.w	r1, [r0, #1472]	; 0x5c0
 8000f9a:	4618      	mov	r0, r3
 8000f9c:	f8c2 45c8 	str.w	r4, [r2, #1480]	; 0x5c8
 8000fa0:	f85d 4b04 	ldr.w	r4, [sp], #4
 8000fa4:	4770      	bx	lr
 8000fa6:	bf00      	nop

08000fa8 <USBH_SelectInterface>:
USBH_SelectInterface():
 8000fa8:	f890 3236 	ldrb.w	r3, [r0, #566]	; 0x236
 8000fac:	428b      	cmp	r3, r1
 8000fae:	bf86      	itte	hi
 8000fb0:	f880 121f 	strbhi.w	r1, [r0, #543]	; 0x21f
 8000fb4:	2000      	movhi	r0, #0
 8000fb6:	2002      	movls	r0, #2
 8000fb8:	4770      	bx	lr
 8000fba:	bf00      	nop

08000fbc <USBH_FindInterface>:
USBH_FindInterface():
 8000fbc:	2aff      	cmp	r2, #255	; 0xff
 8000fbe:	d042      	beq.n	8001046 <USBH_FindInterface+0x8a>
 8000fc0:	2bff      	cmp	r3, #255	; 0xff
 8000fc2:	f000 81e2 	beq.w	800138a <USBH_FindInterface+0x3ce>
 8000fc6:	29ff      	cmp	r1, #255	; 0xff
 8000fc8:	f000 80df 	beq.w	800118a <USBH_FindInterface+0x1ce>
 8000fcc:	b410      	push	{r4}
 8000fce:	f890 4241 	ldrb.w	r4, [r0, #577]	; 0x241
 8000fd2:	428c      	cmp	r4, r1
 8000fd4:	d02d      	beq.n	8001032 <USBH_FindInterface+0x76>
 8000fd6:	f890 429b 	ldrb.w	r4, [r0, #667]	; 0x29b
 8000fda:	428c      	cmp	r4, r1
 8000fdc:	d06d      	beq.n	80010ba <USBH_FindInterface+0xfe>
 8000fde:	f890 42f5 	ldrb.w	r4, [r0, #757]	; 0x2f5
 8000fe2:	428c      	cmp	r4, r1
 8000fe4:	d073      	beq.n	80010ce <USBH_FindInterface+0x112>
 8000fe6:	f890 434f 	ldrb.w	r4, [r0, #847]	; 0x34f
 8000fea:	428c      	cmp	r4, r1
 8000fec:	d07a      	beq.n	80010e4 <USBH_FindInterface+0x128>
 8000fee:	f890 43a9 	ldrb.w	r4, [r0, #937]	; 0x3a9
 8000ff2:	428c      	cmp	r4, r1
 8000ff4:	f000 8081 	beq.w	80010fa <USBH_FindInterface+0x13e>
 8000ff8:	f890 4403 	ldrb.w	r4, [r0, #1027]	; 0x403
 8000ffc:	428c      	cmp	r4, r1
 8000ffe:	f000 8088 	beq.w	8001112 <USBH_FindInterface+0x156>
 8001002:	f890 445d 	ldrb.w	r4, [r0, #1117]	; 0x45d
 8001006:	428c      	cmp	r4, r1
 8001008:	f000 808f 	beq.w	800112a <USBH_FindInterface+0x16e>
 800100c:	f890 44b7 	ldrb.w	r4, [r0, #1207]	; 0x4b7
 8001010:	428c      	cmp	r4, r1
 8001012:	f000 8096 	beq.w	8001142 <USBH_FindInterface+0x186>
 8001016:	f890 4511 	ldrb.w	r4, [r0, #1297]	; 0x511
 800101a:	428c      	cmp	r4, r1
 800101c:	f000 809d 	beq.w	800115a <USBH_FindInterface+0x19e>
 8001020:	f890 456b 	ldrb.w	r4, [r0, #1387]	; 0x56b
 8001024:	428c      	cmp	r4, r1
 8001026:	f000 80a4 	beq.w	8001172 <USBH_FindInterface+0x1b6>
 800102a:	20ff      	movs	r0, #255	; 0xff
 800102c:	f85d 4b04 	ldr.w	r4, [sp], #4
 8001030:	4770      	bx	lr
 8001032:	f890 4242 	ldrb.w	r4, [r0, #578]	; 0x242
 8001036:	4294      	cmp	r4, r2
 8001038:	d1cd      	bne.n	8000fd6 <USBH_FindInterface+0x1a>
 800103a:	f890 4243 	ldrb.w	r4, [r0, #579]	; 0x243
 800103e:	429c      	cmp	r4, r3
 8001040:	d1c9      	bne.n	8000fd6 <USBH_FindInterface+0x1a>
 8001042:	2000      	movs	r0, #0
 8001044:	e04c      	b.n	80010e0 <USBH_FindInterface+0x124>
 8001046:	29ff      	cmp	r1, #255	; 0xff
 8001048:	f000 8118 	beq.w	800127c <USBH_FindInterface+0x2c0>
 800104c:	2bff      	cmp	r3, #255	; 0xff
 800104e:	f000 813c 	beq.w	80012ca <USBH_FindInterface+0x30e>
 8001052:	f890 2241 	ldrb.w	r2, [r0, #577]	; 0x241
 8001056:	428a      	cmp	r2, r1
 8001058:	f000 80d1 	beq.w	80011fe <USBH_FindInterface+0x242>
 800105c:	f890 229b 	ldrb.w	r2, [r0, #667]	; 0x29b
 8001060:	428a      	cmp	r2, r1
 8001062:	f000 80d3 	beq.w	800120c <USBH_FindInterface+0x250>
 8001066:	f890 22f5 	ldrb.w	r2, [r0, #757]	; 0x2f5
 800106a:	428a      	cmp	r2, r1
 800106c:	f000 80d5 	beq.w	800121a <USBH_FindInterface+0x25e>
 8001070:	f890 234f 	ldrb.w	r2, [r0, #847]	; 0x34f
 8001074:	428a      	cmp	r2, r1
 8001076:	f000 80d7 	beq.w	8001228 <USBH_FindInterface+0x26c>
 800107a:	f890 23a9 	ldrb.w	r2, [r0, #937]	; 0x3a9
 800107e:	428a      	cmp	r2, r1
 8001080:	f000 80d9 	beq.w	8001236 <USBH_FindInterface+0x27a>
 8001084:	f890 2403 	ldrb.w	r2, [r0, #1027]	; 0x403
 8001088:	428a      	cmp	r2, r1
 800108a:	f000 80db 	beq.w	8001244 <USBH_FindInterface+0x288>
 800108e:	f890 245d 	ldrb.w	r2, [r0, #1117]	; 0x45d
 8001092:	428a      	cmp	r2, r1
 8001094:	f000 80dd 	beq.w	8001252 <USBH_FindInterface+0x296>
 8001098:	f890 24b7 	ldrb.w	r2, [r0, #1207]	; 0x4b7
 800109c:	428a      	cmp	r2, r1
 800109e:	f000 80df 	beq.w	8001260 <USBH_FindInterface+0x2a4>
 80010a2:	f890 2511 	ldrb.w	r2, [r0, #1297]	; 0x511
 80010a6:	428a      	cmp	r2, r1
 80010a8:	f000 80e1 	beq.w	800126e <USBH_FindInterface+0x2b2>
 80010ac:	f890 256b 	ldrb.w	r2, [r0, #1387]	; 0x56b
 80010b0:	428a      	cmp	r2, r1
 80010b2:	f000 809c 	beq.w	80011ee <USBH_FindInterface+0x232>
 80010b6:	20ff      	movs	r0, #255	; 0xff
 80010b8:	4770      	bx	lr
 80010ba:	f890 429c 	ldrb.w	r4, [r0, #668]	; 0x29c
 80010be:	4294      	cmp	r4, r2
 80010c0:	d18d      	bne.n	8000fde <USBH_FindInterface+0x22>
 80010c2:	f890 429d 	ldrb.w	r4, [r0, #669]	; 0x29d
 80010c6:	429c      	cmp	r4, r3
 80010c8:	d189      	bne.n	8000fde <USBH_FindInterface+0x22>
 80010ca:	2001      	movs	r0, #1
 80010cc:	e008      	b.n	80010e0 <USBH_FindInterface+0x124>
 80010ce:	f890 42f6 	ldrb.w	r4, [r0, #758]	; 0x2f6
 80010d2:	4294      	cmp	r4, r2
 80010d4:	d187      	bne.n	8000fe6 <USBH_FindInterface+0x2a>
 80010d6:	f890 42f7 	ldrb.w	r4, [r0, #759]	; 0x2f7
 80010da:	429c      	cmp	r4, r3
 80010dc:	d183      	bne.n	8000fe6 <USBH_FindInterface+0x2a>
 80010de:	2002      	movs	r0, #2
 80010e0:	b2c0      	uxtb	r0, r0
 80010e2:	e7a3      	b.n	800102c <USBH_FindInterface+0x70>
 80010e4:	f890 4350 	ldrb.w	r4, [r0, #848]	; 0x350
 80010e8:	4294      	cmp	r4, r2
 80010ea:	d180      	bne.n	8000fee <USBH_FindInterface+0x32>
 80010ec:	f890 4351 	ldrb.w	r4, [r0, #849]	; 0x351
 80010f0:	429c      	cmp	r4, r3
 80010f2:	f47f af7c 	bne.w	8000fee <USBH_FindInterface+0x32>
 80010f6:	2003      	movs	r0, #3
 80010f8:	e7f2      	b.n	80010e0 <USBH_FindInterface+0x124>
 80010fa:	f890 43aa 	ldrb.w	r4, [r0, #938]	; 0x3aa
 80010fe:	4294      	cmp	r4, r2
 8001100:	f47f af7a 	bne.w	8000ff8 <USBH_FindInterface+0x3c>
 8001104:	f890 43ab 	ldrb.w	r4, [r0, #939]	; 0x3ab
 8001108:	429c      	cmp	r4, r3
 800110a:	f47f af75 	bne.w	8000ff8 <USBH_FindInterface+0x3c>
 800110e:	2004      	movs	r0, #4
 8001110:	e7e6      	b.n	80010e0 <USBH_FindInterface+0x124>
 8001112:	f890 4404 	ldrb.w	r4, [r0, #1028]	; 0x404
 8001116:	4294      	cmp	r4, r2
 8001118:	f47f af73 	bne.w	8001002 <USBH_FindInterface+0x46>
 800111c:	f890 4405 	ldrb.w	r4, [r0, #1029]	; 0x405
 8001120:	429c      	cmp	r4, r3
 8001122:	f47f af6e 	bne.w	8001002 <USBH_FindInterface+0x46>
 8001126:	2005      	movs	r0, #5
 8001128:	e7da      	b.n	80010e0 <USBH_FindInterface+0x124>
 800112a:	f890 445e 	ldrb.w	r4, [r0, #1118]	; 0x45e
 800112e:	4294      	cmp	r4, r2
 8001130:	f47f af6c 	bne.w	800100c <USBH_FindInterface+0x50>
 8001134:	f890 445f 	ldrb.w	r4, [r0, #1119]	; 0x45f
 8001138:	429c      	cmp	r4, r3
 800113a:	f47f af67 	bne.w	800100c <USBH_FindInterface+0x50>
 800113e:	2006      	movs	r0, #6
 8001140:	e7ce      	b.n	80010e0 <USBH_FindInterface+0x124>
 8001142:	f890 44b8 	ldrb.w	r4, [r0, #1208]	; 0x4b8
 8001146:	4294      	cmp	r4, r2
 8001148:	f47f af65 	bne.w	8001016 <USBH_FindInterface+0x5a>
 800114c:	f890 44b9 	ldrb.w	r4, [r0, #1209]	; 0x4b9
 8001150:	429c      	cmp	r4, r3
 8001152:	f47f af60 	bne.w	8001016 <USBH_FindInterface+0x5a>
 8001156:	2007      	movs	r0, #7
 8001158:	e7c2      	b.n	80010e0 <USBH_FindInterface+0x124>
 800115a:	f890 4512 	ldrb.w	r4, [r0, #1298]	; 0x512
 800115e:	4294      	cmp	r4, r2
 8001160:	f47f af5e 	bne.w	8001020 <USBH_FindInterface+0x64>
 8001164:	f890 4513 	ldrb.w	r4, [r0, #1299]	; 0x513
 8001168:	429c      	cmp	r4, r3
 800116a:	f47f af59 	bne.w	8001020 <USBH_FindInterface+0x64>
 800116e:	2008      	movs	r0, #8
 8001170:	e7b6      	b.n	80010e0 <USBH_FindInterface+0x124>
 8001172:	f890 156c 	ldrb.w	r1, [r0, #1388]	; 0x56c
 8001176:	4291      	cmp	r1, r2
 8001178:	f47f af57 	bne.w	800102a <USBH_FindInterface+0x6e>
 800117c:	f890 256d 	ldrb.w	r2, [r0, #1389]	; 0x56d
 8001180:	429a      	cmp	r2, r3
 8001182:	f47f af52 	bne.w	800102a <USBH_FindInterface+0x6e>
 8001186:	2009      	movs	r0, #9
 8001188:	e7aa      	b.n	80010e0 <USBH_FindInterface+0x124>
 800118a:	f890 1242 	ldrb.w	r1, [r0, #578]	; 0x242
 800118e:	4291      	cmp	r1, r2
 8001190:	f000 80c5 	beq.w	800131e <USBH_FindInterface+0x362>
 8001194:	f890 129c 	ldrb.w	r1, [r0, #668]	; 0x29c
 8001198:	4291      	cmp	r1, r2
 800119a:	f000 80cc 	beq.w	8001336 <USBH_FindInterface+0x37a>
 800119e:	f890 12f6 	ldrb.w	r1, [r0, #758]	; 0x2f6
 80011a2:	4291      	cmp	r1, r2
 80011a4:	f000 80c1 	beq.w	800132a <USBH_FindInterface+0x36e>
 80011a8:	f890 1350 	ldrb.w	r1, [r0, #848]	; 0x350
 80011ac:	4291      	cmp	r1, r2
 80011ae:	f000 80c8 	beq.w	8001342 <USBH_FindInterface+0x386>
 80011b2:	f890 13aa 	ldrb.w	r1, [r0, #938]	; 0x3aa
 80011b6:	4291      	cmp	r1, r2
 80011b8:	f000 80cf 	beq.w	800135a <USBH_FindInterface+0x39e>
 80011bc:	f890 1404 	ldrb.w	r1, [r0, #1028]	; 0x404
 80011c0:	4291      	cmp	r1, r2
 80011c2:	f000 80c4 	beq.w	800134e <USBH_FindInterface+0x392>
 80011c6:	f890 145e 	ldrb.w	r1, [r0, #1118]	; 0x45e
 80011ca:	4291      	cmp	r1, r2
 80011cc:	f000 80cb 	beq.w	8001366 <USBH_FindInterface+0x3aa>
 80011d0:	f890 14b8 	ldrb.w	r1, [r0, #1208]	; 0x4b8
 80011d4:	4291      	cmp	r1, r2
 80011d6:	f000 80d2 	beq.w	800137e <USBH_FindInterface+0x3c2>
 80011da:	f890 1512 	ldrb.w	r1, [r0, #1298]	; 0x512
 80011de:	4291      	cmp	r1, r2
 80011e0:	f000 80c7 	beq.w	8001372 <USBH_FindInterface+0x3b6>
 80011e4:	f890 156c 	ldrb.w	r1, [r0, #1388]	; 0x56c
 80011e8:	4291      	cmp	r1, r2
 80011ea:	f47f af64 	bne.w	80010b6 <USBH_FindInterface+0xfa>
 80011ee:	f890 256d 	ldrb.w	r2, [r0, #1389]	; 0x56d
 80011f2:	429a      	cmp	r2, r3
 80011f4:	f47f af5f 	bne.w	80010b6 <USBH_FindInterface+0xfa>
 80011f8:	2009      	movs	r0, #9
 80011fa:	b2c0      	uxtb	r0, r0
 80011fc:	4770      	bx	lr
 80011fe:	f890 2243 	ldrb.w	r2, [r0, #579]	; 0x243
 8001202:	429a      	cmp	r2, r3
 8001204:	f47f af2a 	bne.w	800105c <USBH_FindInterface+0xa0>
 8001208:	2000      	movs	r0, #0
 800120a:	e7f6      	b.n	80011fa <USBH_FindInterface+0x23e>
 800120c:	f890 229d 	ldrb.w	r2, [r0, #669]	; 0x29d
 8001210:	429a      	cmp	r2, r3
 8001212:	f47f af28 	bne.w	8001066 <USBH_FindInterface+0xaa>
 8001216:	2001      	movs	r0, #1
 8001218:	e7ef      	b.n	80011fa <USBH_FindInterface+0x23e>
 800121a:	f890 22f7 	ldrb.w	r2, [r0, #759]	; 0x2f7
 800121e:	429a      	cmp	r2, r3
 8001220:	f47f af26 	bne.w	8001070 <USBH_FindInterface+0xb4>
 8001224:	2002      	movs	r0, #2
 8001226:	e7e8      	b.n	80011fa <USBH_FindInterface+0x23e>
 8001228:	f890 2351 	ldrb.w	r2, [r0, #849]	; 0x351
 800122c:	429a      	cmp	r2, r3
 800122e:	f47f af24 	bne.w	800107a <USBH_FindInterface+0xbe>
 8001232:	2003      	movs	r0, #3
 8001234:	e7e1      	b.n	80011fa <USBH_FindInterface+0x23e>
 8001236:	f890 23ab 	ldrb.w	r2, [r0, #939]	; 0x3ab
 800123a:	429a      	cmp	r2, r3
 800123c:	f47f af22 	bne.w	8001084 <USBH_FindInterface+0xc8>
 8001240:	2004      	movs	r0, #4
 8001242:	e7da      	b.n	80011fa <USBH_FindInterface+0x23e>
 8001244:	f890 2405 	ldrb.w	r2, [r0, #1029]	; 0x405
 8001248:	429a      	cmp	r2, r3
 800124a:	f47f af20 	bne.w	800108e <USBH_FindInterface+0xd2>
 800124e:	2005      	movs	r0, #5
 8001250:	e7d3      	b.n	80011fa <USBH_FindInterface+0x23e>
 8001252:	f890 245f 	ldrb.w	r2, [r0, #1119]	; 0x45f
 8001256:	429a      	cmp	r2, r3
 8001258:	f47f af1e 	bne.w	8001098 <USBH_FindInterface+0xdc>
 800125c:	2006      	movs	r0, #6
 800125e:	e7cc      	b.n	80011fa <USBH_FindInterface+0x23e>
 8001260:	f890 24b9 	ldrb.w	r2, [r0, #1209]	; 0x4b9
 8001264:	429a      	cmp	r2, r3
 8001266:	f47f af1c 	bne.w	80010a2 <USBH_FindInterface+0xe6>
 800126a:	2007      	movs	r0, #7
 800126c:	e7c5      	b.n	80011fa <USBH_FindInterface+0x23e>
 800126e:	f890 2513 	ldrb.w	r2, [r0, #1299]	; 0x513
 8001272:	429a      	cmp	r2, r3
 8001274:	f47f af1a 	bne.w	80010ac <USBH_FindInterface+0xf0>
 8001278:	2008      	movs	r0, #8
 800127a:	e7be      	b.n	80011fa <USBH_FindInterface+0x23e>
 800127c:	2bff      	cmp	r3, #255	; 0xff
 800127e:	d0c3      	beq.n	8001208 <USBH_FindInterface+0x24c>
 8001280:	f890 2243 	ldrb.w	r2, [r0, #579]	; 0x243
 8001284:	429a      	cmp	r2, r3
 8001286:	d0bf      	beq.n	8001208 <USBH_FindInterface+0x24c>
 8001288:	f890 229d 	ldrb.w	r2, [r0, #669]	; 0x29d
 800128c:	429a      	cmp	r2, r3
 800128e:	d0c2      	beq.n	8001216 <USBH_FindInterface+0x25a>
 8001290:	f890 22f7 	ldrb.w	r2, [r0, #759]	; 0x2f7
 8001294:	429a      	cmp	r2, r3
 8001296:	d0c5      	beq.n	8001224 <USBH_FindInterface+0x268>
 8001298:	f890 2351 	ldrb.w	r2, [r0, #849]	; 0x351
 800129c:	429a      	cmp	r2, r3
 800129e:	d0c8      	beq.n	8001232 <USBH_FindInterface+0x276>
 80012a0:	f890 23ab 	ldrb.w	r2, [r0, #939]	; 0x3ab
 80012a4:	429a      	cmp	r2, r3
 80012a6:	d0cb      	beq.n	8001240 <USBH_FindInterface+0x284>
 80012a8:	f890 2405 	ldrb.w	r2, [r0, #1029]	; 0x405
 80012ac:	429a      	cmp	r2, r3
 80012ae:	d0ce      	beq.n	800124e <USBH_FindInterface+0x292>
 80012b0:	f890 245f 	ldrb.w	r2, [r0, #1119]	; 0x45f
 80012b4:	429a      	cmp	r2, r3
 80012b6:	d0d1      	beq.n	800125c <USBH_FindInterface+0x2a0>
 80012b8:	f890 24b9 	ldrb.w	r2, [r0, #1209]	; 0x4b9
 80012bc:	429a      	cmp	r2, r3
 80012be:	d0d4      	beq.n	800126a <USBH_FindInterface+0x2ae>
 80012c0:	f890 2513 	ldrb.w	r2, [r0, #1299]	; 0x513
 80012c4:	429a      	cmp	r2, r3
 80012c6:	d192      	bne.n	80011ee <USBH_FindInterface+0x232>
 80012c8:	e7d6      	b.n	8001278 <USBH_FindInterface+0x2bc>
 80012ca:	f890 3241 	ldrb.w	r3, [r0, #577]	; 0x241
 80012ce:	428b      	cmp	r3, r1
 80012d0:	d09a      	beq.n	8001208 <USBH_FindInterface+0x24c>
 80012d2:	f890 329b 	ldrb.w	r3, [r0, #667]	; 0x29b
 80012d6:	428b      	cmp	r3, r1
 80012d8:	d09d      	beq.n	8001216 <USBH_FindInterface+0x25a>
 80012da:	f890 32f5 	ldrb.w	r3, [r0, #757]	; 0x2f5
 80012de:	428b      	cmp	r3, r1
 80012e0:	d0a0      	beq.n	8001224 <USBH_FindInterface+0x268>
 80012e2:	f890 334f 	ldrb.w	r3, [r0, #847]	; 0x34f
 80012e6:	428b      	cmp	r3, r1
 80012e8:	d0a3      	beq.n	8001232 <USBH_FindInterface+0x276>
 80012ea:	f890 33a9 	ldrb.w	r3, [r0, #937]	; 0x3a9
 80012ee:	428b      	cmp	r3, r1
 80012f0:	d0a6      	beq.n	8001240 <USBH_FindInterface+0x284>
 80012f2:	f890 3403 	ldrb.w	r3, [r0, #1027]	; 0x403
 80012f6:	428b      	cmp	r3, r1
 80012f8:	d0a9      	beq.n	800124e <USBH_FindInterface+0x292>
 80012fa:	f890 345d 	ldrb.w	r3, [r0, #1117]	; 0x45d
 80012fe:	428b      	cmp	r3, r1
 8001300:	d0ac      	beq.n	800125c <USBH_FindInterface+0x2a0>
 8001302:	f890 34b7 	ldrb.w	r3, [r0, #1207]	; 0x4b7
 8001306:	428b      	cmp	r3, r1
 8001308:	d0af      	beq.n	800126a <USBH_FindInterface+0x2ae>
 800130a:	f890 3511 	ldrb.w	r3, [r0, #1297]	; 0x511
 800130e:	428b      	cmp	r3, r1
 8001310:	d0b2      	beq.n	8001278 <USBH_FindInterface+0x2bc>
 8001312:	f890 356b 	ldrb.w	r3, [r0, #1387]	; 0x56b
 8001316:	428b      	cmp	r3, r1
 8001318:	f47f aecd 	bne.w	80010b6 <USBH_FindInterface+0xfa>
 800131c:	e76c      	b.n	80011f8 <USBH_FindInterface+0x23c>
 800131e:	f890 1243 	ldrb.w	r1, [r0, #579]	; 0x243
 8001322:	4299      	cmp	r1, r3
 8001324:	f47f af36 	bne.w	8001194 <USBH_FindInterface+0x1d8>
 8001328:	e76e      	b.n	8001208 <USBH_FindInterface+0x24c>
 800132a:	f890 12f7 	ldrb.w	r1, [r0, #759]	; 0x2f7
 800132e:	4299      	cmp	r1, r3
 8001330:	f47f af3a 	bne.w	80011a8 <USBH_FindInterface+0x1ec>
 8001334:	e776      	b.n	8001224 <USBH_FindInterface+0x268>
 8001336:	f890 129d 	ldrb.w	r1, [r0, #669]	; 0x29d
 800133a:	4299      	cmp	r1, r3
 800133c:	f47f af2f 	bne.w	800119e <USBH_FindInterface+0x1e2>
 8001340:	e769      	b.n	8001216 <USBH_FindInterface+0x25a>
 8001342:	f890 1351 	ldrb.w	r1, [r0, #849]	; 0x351
 8001346:	4299      	cmp	r1, r3
 8001348:	f47f af33 	bne.w	80011b2 <USBH_FindInterface+0x1f6>
 800134c:	e771      	b.n	8001232 <USBH_FindInterface+0x276>
 800134e:	f890 1405 	ldrb.w	r1, [r0, #1029]	; 0x405
 8001352:	4299      	cmp	r1, r3
 8001354:	f47f af37 	bne.w	80011c6 <USBH_FindInterface+0x20a>
 8001358:	e779      	b.n	800124e <USBH_FindInterface+0x292>
 800135a:	f890 13ab 	ldrb.w	r1, [r0, #939]	; 0x3ab
 800135e:	4299      	cmp	r1, r3
 8001360:	f47f af2c 	bne.w	80011bc <USBH_FindInterface+0x200>
 8001364:	e76c      	b.n	8001240 <USBH_FindInterface+0x284>
 8001366:	f890 145f 	ldrb.w	r1, [r0, #1119]	; 0x45f
 800136a:	4299      	cmp	r1, r3
 800136c:	f47f af30 	bne.w	80011d0 <USBH_FindInterface+0x214>
 8001370:	e774      	b.n	800125c <USBH_FindInterface+0x2a0>
 8001372:	f890 1513 	ldrb.w	r1, [r0, #1299]	; 0x513
 8001376:	4299      	cmp	r1, r3
 8001378:	f47f af34 	bne.w	80011e4 <USBH_FindInterface+0x228>
 800137c:	e77c      	b.n	8001278 <USBH_FindInterface+0x2bc>
 800137e:	f890 14b9 	ldrb.w	r1, [r0, #1209]	; 0x4b9
 8001382:	4299      	cmp	r1, r3
 8001384:	f47f af29 	bne.w	80011da <USBH_FindInterface+0x21e>
 8001388:	e76f      	b.n	800126a <USBH_FindInterface+0x2ae>
 800138a:	29ff      	cmp	r1, #255	; 0xff
 800138c:	d05b      	beq.n	8001446 <USBH_FindInterface+0x48a>
 800138e:	f890 3241 	ldrb.w	r3, [r0, #577]	; 0x241
 8001392:	428b      	cmp	r3, r1
 8001394:	d02a      	beq.n	80013ec <USBH_FindInterface+0x430>
 8001396:	f890 329b 	ldrb.w	r3, [r0, #667]	; 0x29b
 800139a:	428b      	cmp	r3, r1
 800139c:	d02b      	beq.n	80013f6 <USBH_FindInterface+0x43a>
 800139e:	f890 32f5 	ldrb.w	r3, [r0, #757]	; 0x2f5
 80013a2:	428b      	cmp	r3, r1
 80013a4:	d02c      	beq.n	8001400 <USBH_FindInterface+0x444>
 80013a6:	f890 334f 	ldrb.w	r3, [r0, #847]	; 0x34f
 80013aa:	428b      	cmp	r3, r1
 80013ac:	d032      	beq.n	8001414 <USBH_FindInterface+0x458>
 80013ae:	f890 33a9 	ldrb.w	r3, [r0, #937]	; 0x3a9
 80013b2:	428b      	cmp	r3, r1
 80013b4:	d029      	beq.n	800140a <USBH_FindInterface+0x44e>
 80013b6:	f890 3403 	ldrb.w	r3, [r0, #1027]	; 0x403
 80013ba:	428b      	cmp	r3, r1
 80013bc:	d03e      	beq.n	800143c <USBH_FindInterface+0x480>
 80013be:	f890 345d 	ldrb.w	r3, [r0, #1117]	; 0x45d
 80013c2:	428b      	cmp	r3, r1
 80013c4:	d035      	beq.n	8001432 <USBH_FindInterface+0x476>
 80013c6:	f890 34b7 	ldrb.w	r3, [r0, #1207]	; 0x4b7
 80013ca:	428b      	cmp	r3, r1
 80013cc:	d02c      	beq.n	8001428 <USBH_FindInterface+0x46c>
 80013ce:	f890 3511 	ldrb.w	r3, [r0, #1297]	; 0x511
 80013d2:	428b      	cmp	r3, r1
 80013d4:	d023      	beq.n	800141e <USBH_FindInterface+0x462>
 80013d6:	f890 356b 	ldrb.w	r3, [r0, #1387]	; 0x56b
 80013da:	428b      	cmp	r3, r1
 80013dc:	f47f ae6b 	bne.w	80010b6 <USBH_FindInterface+0xfa>
 80013e0:	f890 356c 	ldrb.w	r3, [r0, #1388]	; 0x56c
 80013e4:	4293      	cmp	r3, r2
 80013e6:	f47f ae66 	bne.w	80010b6 <USBH_FindInterface+0xfa>
 80013ea:	e705      	b.n	80011f8 <USBH_FindInterface+0x23c>
 80013ec:	f890 3242 	ldrb.w	r3, [r0, #578]	; 0x242
 80013f0:	4293      	cmp	r3, r2
 80013f2:	d1d0      	bne.n	8001396 <USBH_FindInterface+0x3da>
 80013f4:	e708      	b.n	8001208 <USBH_FindInterface+0x24c>
 80013f6:	f890 329c 	ldrb.w	r3, [r0, #668]	; 0x29c
 80013fa:	4293      	cmp	r3, r2
 80013fc:	d1cf      	bne.n	800139e <USBH_FindInterface+0x3e2>
 80013fe:	e70a      	b.n	8001216 <USBH_FindInterface+0x25a>
 8001400:	f890 32f6 	ldrb.w	r3, [r0, #758]	; 0x2f6
 8001404:	4293      	cmp	r3, r2
 8001406:	d1ce      	bne.n	80013a6 <USBH_FindInterface+0x3ea>
 8001408:	e70c      	b.n	8001224 <USBH_FindInterface+0x268>
 800140a:	f890 33aa 	ldrb.w	r3, [r0, #938]	; 0x3aa
 800140e:	4293      	cmp	r3, r2
 8001410:	d1d1      	bne.n	80013b6 <USBH_FindInterface+0x3fa>
 8001412:	e715      	b.n	8001240 <USBH_FindInterface+0x284>
 8001414:	f890 3350 	ldrb.w	r3, [r0, #848]	; 0x350
 8001418:	4293      	cmp	r3, r2
 800141a:	d1c8      	bne.n	80013ae <USBH_FindInterface+0x3f2>
 800141c:	e709      	b.n	8001232 <USBH_FindInterface+0x276>
 800141e:	f890 3512 	ldrb.w	r3, [r0, #1298]	; 0x512
 8001422:	4293      	cmp	r3, r2
 8001424:	d1d7      	bne.n	80013d6 <USBH_FindInterface+0x41a>
 8001426:	e727      	b.n	8001278 <USBH_FindInterface+0x2bc>
 8001428:	f890 34b8 	ldrb.w	r3, [r0, #1208]	; 0x4b8
 800142c:	4293      	cmp	r3, r2
 800142e:	d1ce      	bne.n	80013ce <USBH_FindInterface+0x412>
 8001430:	e71b      	b.n	800126a <USBH_FindInterface+0x2ae>
 8001432:	f890 345e 	ldrb.w	r3, [r0, #1118]	; 0x45e
 8001436:	4293      	cmp	r3, r2
 8001438:	d1c5      	bne.n	80013c6 <USBH_FindInterface+0x40a>
 800143a:	e70f      	b.n	800125c <USBH_FindInterface+0x2a0>
 800143c:	f890 3404 	ldrb.w	r3, [r0, #1028]	; 0x404
 8001440:	4293      	cmp	r3, r2
 8001442:	d1bc      	bne.n	80013be <USBH_FindInterface+0x402>
 8001444:	e703      	b.n	800124e <USBH_FindInterface+0x292>
 8001446:	f890 3242 	ldrb.w	r3, [r0, #578]	; 0x242
 800144a:	4293      	cmp	r3, r2
 800144c:	f43f aedc 	beq.w	8001208 <USBH_FindInterface+0x24c>
 8001450:	f890 329c 	ldrb.w	r3, [r0, #668]	; 0x29c
 8001454:	4293      	cmp	r3, r2
 8001456:	f43f aede 	beq.w	8001216 <USBH_FindInterface+0x25a>
 800145a:	f890 32f6 	ldrb.w	r3, [r0, #758]	; 0x2f6
 800145e:	4293      	cmp	r3, r2
 8001460:	f43f aee0 	beq.w	8001224 <USBH_FindInterface+0x268>
 8001464:	f890 3350 	ldrb.w	r3, [r0, #848]	; 0x350
 8001468:	4293      	cmp	r3, r2
 800146a:	f43f aee2 	beq.w	8001232 <USBH_FindInterface+0x276>
 800146e:	f890 33aa 	ldrb.w	r3, [r0, #938]	; 0x3aa
 8001472:	4293      	cmp	r3, r2
 8001474:	f43f aee4 	beq.w	8001240 <USBH_FindInterface+0x284>
 8001478:	f890 3404 	ldrb.w	r3, [r0, #1028]	; 0x404
 800147c:	4293      	cmp	r3, r2
 800147e:	f43f aee6 	beq.w	800124e <USBH_FindInterface+0x292>
 8001482:	f890 345e 	ldrb.w	r3, [r0, #1118]	; 0x45e
 8001486:	4293      	cmp	r3, r2
 8001488:	f43f aee8 	beq.w	800125c <USBH_FindInterface+0x2a0>
 800148c:	f890 34b8 	ldrb.w	r3, [r0, #1208]	; 0x4b8
 8001490:	4293      	cmp	r3, r2
 8001492:	f43f aeea 	beq.w	800126a <USBH_FindInterface+0x2ae>
 8001496:	f890 3512 	ldrb.w	r3, [r0, #1298]	; 0x512
 800149a:	4293      	cmp	r3, r2
 800149c:	d1a0      	bne.n	80013e0 <USBH_FindInterface+0x424>
 800149e:	e6eb      	b.n	8001278 <USBH_FindInterface+0x2bc>

080014a0 <USBH_Start>:
USBH_Start():
 80014a0:	b510      	push	{r4, lr}
 80014a2:	4604      	mov	r4, r0
 80014a4:	f005 fd44 	bl	8006f30 <USBH_LL_Start>
 80014a8:	4620      	mov	r0, r4
 80014aa:	2101      	movs	r1, #1
 80014ac:	f005 fd9c 	bl	8006fe8 <USBH_LL_DriverVBUS>
 80014b0:	2000      	movs	r0, #0
 80014b2:	bd10      	pop	{r4, pc}

080014b4 <USBH_Process>:
USBH_Process():
 80014b4:	b570      	push	{r4, r5, r6, lr}
 80014b6:	b086      	sub	sp, #24
 80014b8:	2302      	movs	r3, #2
 80014ba:	f88d 3017 	strb.w	r3, [sp, #23]
 80014be:	7803      	ldrb	r3, [r0, #0]
 80014c0:	4604      	mov	r4, r0
 80014c2:	2b0a      	cmp	r3, #10
 80014c4:	d815      	bhi.n	80014f2 <USBH_Process+0x3e>
 80014c6:	e8df f003 	tbb	[pc, r3]
 80014ca:	1429      	.short	0x1429
 80014cc:	3614a06e 	.word	0x3614a06e
 80014d0:	17655c4d 	.word	0x17655c4d
 80014d4:	c7          	.byte	0xc7
 80014d5:	00          	.byte	0x00
 80014d6:	f890 1230 	ldrb.w	r1, [r0, #560]	; 0x230
 80014da:	2900      	cmp	r1, #0
 80014dc:	f040 8131 	bne.w	8001742 <USBH_Process+0x28e>
 80014e0:	f894 3231 	ldrb.w	r3, [r4, #561]	; 0x231
 80014e4:	2200      	movs	r2, #0
 80014e6:	2b01      	cmp	r3, #1
 80014e8:	f884 221f 	strb.w	r2, [r4, #543]	; 0x21f
 80014ec:	d04f      	beq.n	800158e <USBH_Process+0xda>
 80014ee:	2307      	movs	r3, #7
 80014f0:	7023      	strb	r3, [r4, #0]
 80014f2:	2000      	movs	r0, #0
 80014f4:	b006      	add	sp, #24
 80014f6:	bd70      	pop	{r4, r5, r6, pc}
 80014f8:	f8d0 35c8 	ldr.w	r3, [r0, #1480]	; 0x5c8
 80014fc:	2b00      	cmp	r3, #0
 80014fe:	d0f8      	beq.n	80014f2 <USBH_Process+0x3e>
 8001500:	2200      	movs	r2, #0
 8001502:	f8d0 35c0 	ldr.w	r3, [r0, #1472]	; 0x5c0
 8001506:	f8c0 25c4 	str.w	r2, [r0, #1476]	; 0x5c4
 800150a:	7919      	ldrb	r1, [r3, #4]
 800150c:	f890 2241 	ldrb.w	r2, [r0, #577]	; 0x241
 8001510:	4291      	cmp	r1, r2
 8001512:	f000 80a9 	beq.w	8001668 <USBH_Process+0x1b4>
 8001516:	230c      	movs	r3, #12
 8001518:	7023      	strb	r3, [r4, #0]
 800151a:	e7ea      	b.n	80014f2 <USBH_Process+0x3e>
 800151c:	f890 321e 	ldrb.w	r3, [r0, #542]	; 0x21e
 8001520:	2b00      	cmp	r3, #0
 8001522:	d0e6      	beq.n	80014f2 <USBH_Process+0x3e>
 8001524:	2301      	movs	r3, #1
 8001526:	7003      	strb	r3, [r0, #0]
 8001528:	20c8      	movs	r0, #200	; 0xc8
 800152a:	f005 fd87 	bl	800703c <USBH_Delay>
 800152e:	4620      	mov	r0, r4
 8001530:	f005 fd1c 	bl	8006f6c <USBH_LL_ResetPort>
 8001534:	e7dd      	b.n	80014f2 <USBH_Process+0x3e>
 8001536:	7843      	ldrb	r3, [r0, #1]
 8001538:	2b07      	cmp	r3, #7
 800153a:	d8da      	bhi.n	80014f2 <USBH_Process+0x3e>
 800153c:	a201      	add	r2, pc, #4	; (adr r2, 8001544 <USBH_Process+0x90>)
 800153e:	f852 f023 	ldr.w	pc, [r2, r3, lsl #2]
 8001542:	bf00      	nop
 8001544:	080016a7 	.word	0x080016a7
 8001548:	08001695 	.word	0x08001695
 800154c:	08001703 	.word	0x08001703
 8001550:	080016f1 	.word	0x080016f1
 8001554:	080016dd 	.word	0x080016dd
 8001558:	080016d1 	.word	0x080016d1
 800155c:	08001687 	.word	0x08001687
 8001560:	080014d7 	.word	0x080014d7
 8001564:	f8d0 35c4 	ldr.w	r3, [r0, #1476]	; 0x5c4
 8001568:	2b00      	cmp	r3, #0
 800156a:	d0d4      	beq.n	8001516 <USBH_Process+0x62>
 800156c:	691b      	ldr	r3, [r3, #16]
 800156e:	4798      	blx	r3
 8001570:	f88d 0017 	strb.w	r0, [sp, #23]
 8001574:	f89d 3017 	ldrb.w	r3, [sp, #23]
 8001578:	2b00      	cmp	r3, #0
 800157a:	d1ba      	bne.n	80014f2 <USBH_Process+0x3e>
 800157c:	230a      	movs	r3, #10
 800157e:	7023      	strb	r3, [r4, #0]
 8001580:	e7b7      	b.n	80014f2 <USBH_Process+0x3e>
 8001582:	f8d0 3614 	ldr.w	r3, [r0, #1556]	; 0x614
 8001586:	2b00      	cmp	r3, #0
 8001588:	d0b3      	beq.n	80014f2 <USBH_Process+0x3e>
 800158a:	2101      	movs	r1, #1
 800158c:	4798      	blx	r3
 800158e:	2308      	movs	r3, #8
 8001590:	7023      	strb	r3, [r4, #0]
 8001592:	e7ae      	b.n	80014f2 <USBH_Process+0x3e>
 8001594:	f894 1237 	ldrb.w	r1, [r4, #567]	; 0x237
 8001598:	f000 fdc6 	bl	8002128 <USBH_SetCfg>
 800159c:	2800      	cmp	r0, #0
 800159e:	d1a8      	bne.n	80014f2 <USBH_Process+0x3e>
 80015a0:	2309      	movs	r3, #9
 80015a2:	7023      	strb	r3, [r4, #0]
 80015a4:	e7a5      	b.n	80014f2 <USBH_Process+0x3e>
 80015a6:	2064      	movs	r0, #100	; 0x64
 80015a8:	f005 fd48 	bl	800703c <USBH_Delay>
 80015ac:	4620      	mov	r0, r4
 80015ae:	f005 fccf 	bl	8006f50 <USBH_LL_GetSpeed>
 80015b2:	2305      	movs	r3, #5
 80015b4:	7023      	strb	r3, [r4, #0]
 80015b6:	f884 021d 	strb.w	r0, [r4, #541]	; 0x21d
 80015ba:	2100      	movs	r1, #0
 80015bc:	4620      	mov	r0, r4
 80015be:	f000 ffe3 	bl	8002588 <USBH_AllocPipe>
 80015c2:	2180      	movs	r1, #128	; 0x80
 80015c4:	7160      	strb	r0, [r4, #5]
 80015c6:	4620      	mov	r0, r4
 80015c8:	f000 ffde 	bl	8002588 <USBH_AllocPipe>
 80015cc:	4601      	mov	r1, r0
 80015ce:	f894 021d 	ldrb.w	r0, [r4, #541]	; 0x21d
 80015d2:	f894 321c 	ldrb.w	r3, [r4, #540]	; 0x21c
 80015d6:	79a2      	ldrb	r2, [r4, #6]
 80015d8:	7121      	strb	r1, [r4, #4]
 80015da:	2500      	movs	r5, #0
 80015dc:	e88d 0021 	stmia.w	sp, {r0, r5}
 80015e0:	9202      	str	r2, [sp, #8]
 80015e2:	4620      	mov	r0, r4
 80015e4:	2280      	movs	r2, #128	; 0x80
 80015e6:	f000 ffb9 	bl	800255c <USBH_OpenPipe>
 80015ea:	79a0      	ldrb	r0, [r4, #6]
 80015ec:	f894 621d 	ldrb.w	r6, [r4, #541]	; 0x21d
 80015f0:	7961      	ldrb	r1, [r4, #5]
 80015f2:	f894 321c 	ldrb.w	r3, [r4, #540]	; 0x21c
 80015f6:	9002      	str	r0, [sp, #8]
 80015f8:	9501      	str	r5, [sp, #4]
 80015fa:	462a      	mov	r2, r5
 80015fc:	9600      	str	r6, [sp, #0]
 80015fe:	4620      	mov	r0, r4
 8001600:	f000 ffac 	bl	800255c <USBH_OpenPipe>
 8001604:	2000      	movs	r0, #0
 8001606:	b006      	add	sp, #24
 8001608:	bd70      	pop	{r4, r5, r6, pc}
 800160a:	2100      	movs	r1, #0
 800160c:	223c      	movs	r2, #60	; 0x3c
 800160e:	f200 50cc 	addw	r0, r0, #1484	; 0x5cc
 8001612:	f00d f985 	bl	800e920 <memset>
 8001616:	2100      	movs	r1, #0
 8001618:	f44f 7200 	mov.w	r2, #512	; 0x200
 800161c:	f104 001c 	add.w	r0, r4, #28
 8001620:	f00d f97e 	bl	800e920 <memset>
 8001624:	f8d4 25c4 	ldr.w	r2, [r4, #1476]	; 0x5c4
 8001628:	2500      	movs	r5, #0
 800162a:	2301      	movs	r3, #1
 800162c:	2140      	movs	r1, #64	; 0x40
 800162e:	7025      	strb	r5, [r4, #0]
 8001630:	7065      	strb	r5, [r4, #1]
 8001632:	f8c4 5608 	str.w	r5, [r4, #1544]	; 0x608
 8001636:	7665      	strb	r5, [r4, #25]
 8001638:	f884 521c 	strb.w	r5, [r4, #540]	; 0x21c
 800163c:	70a3      	strb	r3, [r4, #2]
 800163e:	7623      	strb	r3, [r4, #24]
 8001640:	f884 321d 	strb.w	r3, [r4, #541]	; 0x21d
 8001644:	71a1      	strb	r1, [r4, #6]
 8001646:	2a00      	cmp	r2, #0
 8001648:	f43f af53 	beq.w	80014f2 <USBH_Process+0x3e>
 800164c:	68d3      	ldr	r3, [r2, #12]
 800164e:	4620      	mov	r0, r4
 8001650:	4798      	blx	r3
 8001652:	f8c4 55c4 	str.w	r5, [r4, #1476]	; 0x5c4
 8001656:	e74c      	b.n	80014f2 <USBH_Process+0x3e>
 8001658:	f8d0 35c4 	ldr.w	r3, [r0, #1476]	; 0x5c4
 800165c:	2b00      	cmp	r3, #0
 800165e:	f43f af48 	beq.w	80014f2 <USBH_Process+0x3e>
 8001662:	695b      	ldr	r3, [r3, #20]
 8001664:	4798      	blx	r3
 8001666:	e744      	b.n	80014f2 <USBH_Process+0x3e>
 8001668:	f8c0 35c4 	str.w	r3, [r0, #1476]	; 0x5c4
 800166c:	689b      	ldr	r3, [r3, #8]
 800166e:	4798      	blx	r3
 8001670:	2800      	cmp	r0, #0
 8001672:	f47f af50 	bne.w	8001516 <USBH_Process+0x62>
 8001676:	2306      	movs	r3, #6
 8001678:	7023      	strb	r3, [r4, #0]
 800167a:	4620      	mov	r0, r4
 800167c:	f8d4 3614 	ldr.w	r3, [r4, #1556]	; 0x614
 8001680:	2103      	movs	r1, #3
 8001682:	4798      	blx	r3
 8001684:	e735      	b.n	80014f2 <USBH_Process+0x3e>
 8001686:	f890 122f 	ldrb.w	r1, [r0, #559]	; 0x22f
 800168a:	2900      	cmp	r1, #0
 800168c:	d162      	bne.n	8001754 <USBH_Process+0x2a0>
 800168e:	2307      	movs	r3, #7
 8001690:	7063      	strb	r3, [r4, #1]
 8001692:	e72e      	b.n	80014f2 <USBH_Process+0x3e>
 8001694:	2112      	movs	r1, #18
 8001696:	f000 f8af 	bl	80017f8 <USBH_Get_DevDesc>
 800169a:	2800      	cmp	r0, #0
 800169c:	f47f af29 	bne.w	80014f2 <USBH_Process+0x3e>
 80016a0:	2302      	movs	r3, #2
 80016a2:	7063      	strb	r3, [r4, #1]
 80016a4:	e725      	b.n	80014f2 <USBH_Process+0x3e>
 80016a6:	2108      	movs	r1, #8
 80016a8:	f000 f8a6 	bl	80017f8 <USBH_Get_DevDesc>
 80016ac:	4605      	mov	r5, r0
 80016ae:	2800      	cmp	r0, #0
 80016b0:	f47f af1f 	bne.w	80014f2 <USBH_Process+0x3e>
 80016b4:	f894 2227 	ldrb.w	r2, [r4, #551]	; 0x227
 80016b8:	f894 021d 	ldrb.w	r0, [r4, #541]	; 0x21d
 80016bc:	7921      	ldrb	r1, [r4, #4]
 80016be:	f894 321c 	ldrb.w	r3, [r4, #540]	; 0x21c
 80016c2:	9501      	str	r5, [sp, #4]
 80016c4:	2601      	movs	r6, #1
 80016c6:	71a2      	strb	r2, [r4, #6]
 80016c8:	9202      	str	r2, [sp, #8]
 80016ca:	7066      	strb	r6, [r4, #1]
 80016cc:	9000      	str	r0, [sp, #0]
 80016ce:	e788      	b.n	80015e2 <USBH_Process+0x12e>
 80016d0:	f890 122e 	ldrb.w	r1, [r0, #558]	; 0x22e
 80016d4:	bb61      	cbnz	r1, 8001730 <USBH_Process+0x27c>
 80016d6:	2306      	movs	r3, #6
 80016d8:	7063      	strb	r3, [r4, #1]
 80016da:	e70a      	b.n	80014f2 <USBH_Process+0x3e>
 80016dc:	f8b4 1234 	ldrh.w	r1, [r4, #564]	; 0x234
 80016e0:	f000 f9c2 	bl	8001a68 <USBH_Get_CfgDesc>
 80016e4:	2800      	cmp	r0, #0
 80016e6:	f47f af04 	bne.w	80014f2 <USBH_Process+0x3e>
 80016ea:	2305      	movs	r3, #5
 80016ec:	7063      	strb	r3, [r4, #1]
 80016ee:	e700      	b.n	80014f2 <USBH_Process+0x3e>
 80016f0:	2109      	movs	r1, #9
 80016f2:	f000 f9b9 	bl	8001a68 <USBH_Get_CfgDesc>
 80016f6:	2800      	cmp	r0, #0
 80016f8:	f47f aefb 	bne.w	80014f2 <USBH_Process+0x3e>
 80016fc:	2304      	movs	r3, #4
 80016fe:	7063      	strb	r3, [r4, #1]
 8001700:	e6f7      	b.n	80014f2 <USBH_Process+0x3e>
 8001702:	2101      	movs	r1, #1
 8001704:	f000 fc30 	bl	8001f68 <USBH_SetAddress>
 8001708:	4605      	mov	r5, r0
 800170a:	2800      	cmp	r0, #0
 800170c:	f47f aef1 	bne.w	80014f2 <USBH_Process+0x3e>
 8001710:	2002      	movs	r0, #2
 8001712:	f005 fc93 	bl	800703c <USBH_Delay>
 8001716:	2603      	movs	r6, #3
 8001718:	f894 021d 	ldrb.w	r0, [r4, #541]	; 0x21d
 800171c:	79a2      	ldrb	r2, [r4, #6]
 800171e:	7921      	ldrb	r1, [r4, #4]
 8001720:	9501      	str	r5, [sp, #4]
 8001722:	2301      	movs	r3, #1
 8001724:	f884 321c 	strb.w	r3, [r4, #540]	; 0x21c
 8001728:	7066      	strb	r6, [r4, #1]
 800172a:	9000      	str	r0, [sp, #0]
 800172c:	9202      	str	r2, [sp, #8]
 800172e:	e758      	b.n	80015e2 <USBH_Process+0x12e>
 8001730:	f104 021c 	add.w	r2, r4, #28
 8001734:	23ff      	movs	r3, #255	; 0xff
 8001736:	f000 fb11 	bl	8001d5c <USBH_Get_StringDesc>
 800173a:	2800      	cmp	r0, #0
 800173c:	f47f aed9 	bne.w	80014f2 <USBH_Process+0x3e>
 8001740:	e7c9      	b.n	80016d6 <USBH_Process+0x222>
 8001742:	f104 021c 	add.w	r2, r4, #28
 8001746:	23ff      	movs	r3, #255	; 0xff
 8001748:	f000 fb08 	bl	8001d5c <USBH_Get_StringDesc>
 800174c:	2800      	cmp	r0, #0
 800174e:	f43f aec7 	beq.w	80014e0 <USBH_Process+0x2c>
 8001752:	e6ce      	b.n	80014f2 <USBH_Process+0x3e>
 8001754:	f104 021c 	add.w	r2, r4, #28
 8001758:	23ff      	movs	r3, #255	; 0xff
 800175a:	f000 faff 	bl	8001d5c <USBH_Get_StringDesc>
 800175e:	2800      	cmp	r0, #0
 8001760:	f47f aec7 	bne.w	80014f2 <USBH_Process+0x3e>
 8001764:	e793      	b.n	800168e <USBH_Process+0x1da>
$t():
 8001766:	bf00      	nop

08001768 <USBH_LL_SetTimer>:
USBH_LL_SetTimer():
 8001768:	f8c0 1608 	str.w	r1, [r0, #1544]	; 0x608
 800176c:	4770      	bx	lr
 800176e:	bf00      	nop

08001770 <USBH_LL_IncTimer>:
USBH_LL_IncTimer():
 8001770:	f8d0 2608 	ldr.w	r2, [r0, #1544]	; 0x608
 8001774:	3201      	adds	r2, #1
 8001776:	f8c0 2608 	str.w	r2, [r0, #1544]	; 0x608
 800177a:	7802      	ldrb	r2, [r0, #0]
 800177c:	2a0a      	cmp	r2, #10
 800177e:	d000      	beq.n	8001782 <USBH_LL_IncTimer+0x12>
 8001780:	4770      	bx	lr
 8001782:	f8d0 35c4 	ldr.w	r3, [r0, #1476]	; 0x5c4
 8001786:	2b00      	cmp	r3, #0
 8001788:	d0fa      	beq.n	8001780 <USBH_LL_IncTimer+0x10>
 800178a:	699b      	ldr	r3, [r3, #24]
 800178c:	4718      	bx	r3
 800178e:	bf00      	nop

08001790 <USBH_LL_Connect>:
USBH_LL_Connect():
 8001790:	7802      	ldrb	r2, [r0, #0]
 8001792:	f002 01ff 	and.w	r1, r2, #255	; 0xff
 8001796:	b95a      	cbnz	r2, 80017b0 <USBH_LL_Connect+0x20>
 8001798:	f8d0 2614 	ldr.w	r2, [r0, #1556]	; 0x614
 800179c:	b510      	push	{r4, lr}
 800179e:	2401      	movs	r4, #1
 80017a0:	f880 421e 	strb.w	r4, [r0, #542]	; 0x21e
 80017a4:	7001      	strb	r1, [r0, #0]
 80017a6:	b10a      	cbz	r2, 80017ac <USBH_LL_Connect+0x1c>
 80017a8:	2104      	movs	r1, #4
 80017aa:	4790      	blx	r2
 80017ac:	2000      	movs	r0, #0
 80017ae:	bd10      	pop	{r4, pc}
 80017b0:	7802      	ldrb	r2, [r0, #0]
 80017b2:	2a01      	cmp	r2, #1
 80017b4:	bf04      	itt	eq
 80017b6:	2202      	moveq	r2, #2
 80017b8:	7002      	strbeq	r2, [r0, #0]
 80017ba:	2000      	movs	r0, #0
 80017bc:	4770      	bx	lr
 80017be:	bf00      	nop

080017c0 <USBH_LL_Disconnect>:
USBH_LL_Disconnect():
 80017c0:	b510      	push	{r4, lr}
 80017c2:	4604      	mov	r4, r0
 80017c4:	f005 fbbc 	bl	8006f40 <USBH_LL_Stop>
 80017c8:	7921      	ldrb	r1, [r4, #4]
 80017ca:	4620      	mov	r0, r4
 80017cc:	f000 ff32 	bl	8002634 <USBH_FreePipe>
 80017d0:	4620      	mov	r0, r4
 80017d2:	7961      	ldrb	r1, [r4, #5]
 80017d4:	f000 ff2e 	bl	8002634 <USBH_FreePipe>
 80017d8:	f8d4 3614 	ldr.w	r3, [r4, #1556]	; 0x614
 80017dc:	2200      	movs	r2, #0
 80017de:	f884 221e 	strb.w	r2, [r4, #542]	; 0x21e
 80017e2:	b113      	cbz	r3, 80017ea <USBH_LL_Disconnect+0x2a>
 80017e4:	4620      	mov	r0, r4
 80017e6:	2105      	movs	r1, #5
 80017e8:	4798      	blx	r3
 80017ea:	4620      	mov	r0, r4
 80017ec:	f005 fba0 	bl	8006f30 <USBH_LL_Start>
 80017f0:	2303      	movs	r3, #3
 80017f2:	7023      	strb	r3, [r4, #0]
 80017f4:	2000      	movs	r0, #0
 80017f6:	bd10      	pop	{r4, pc}

080017f8 <USBH_Get_DevDesc>:
USBH_Get_DevDesc():
 80017f8:	e92d 43f0 	stmdb	sp!, {r4, r5, r6, r7, r8, r9, lr}
 80017fc:	4604      	mov	r4, r0
 80017fe:	7880      	ldrb	r0, [r0, #2]
 8001800:	2801      	cmp	r0, #1
 8001802:	b083      	sub	sp, #12
 8001804:	460d      	mov	r5, r1
 8001806:	d011      	beq.n	800182c <USBH_Get_DevDesc+0x34>
 8001808:	2802      	cmp	r0, #2
 800180a:	d003      	beq.n	8001814 <USBH_Get_DevDesc+0x1c>
 800180c:	2001      	movs	r0, #1
 800180e:	b003      	add	sp, #12
 8001810:	e8bd 83f0 	ldmia.w	sp!, {r4, r5, r6, r7, r8, r9, pc}
 8001814:	7e23      	ldrb	r3, [r4, #24]
 8001816:	3b01      	subs	r3, #1
 8001818:	2b0a      	cmp	r3, #10
 800181a:	d8f7      	bhi.n	800180c <USBH_Get_DevDesc+0x14>
 800181c:	e8df f003 	tbb	[pc, r3]
 8001820:	a545382e 	.word	0xa545382e
 8001824:	5f529586 	.word	0x5f529586
 8001828:	7a6b      	.short	0x7a6b
 800182a:	1c          	.byte	0x1c
 800182b:	00          	.byte	0x00
 800182c:	f04f 0e80 	mov.w	lr, #128	; 0x80
 8001830:	2706      	movs	r7, #6
 8001832:	f44f 7680 	mov.w	r6, #256	; 0x100
 8001836:	2100      	movs	r1, #0
 8001838:	f104 021c 	add.w	r2, r4, #28
 800183c:	2302      	movs	r3, #2
 800183e:	82e5      	strh	r5, [r4, #22]
 8001840:	81a5      	strh	r5, [r4, #12]
 8001842:	7620      	strb	r0, [r4, #24]
 8001844:	f884 e010 	strb.w	lr, [r4, #16]
 8001848:	7467      	strb	r7, [r4, #17]
 800184a:	8266      	strh	r6, [r4, #18]
 800184c:	82a1      	strh	r1, [r4, #20]
 800184e:	60a2      	str	r2, [r4, #8]
 8001850:	70a3      	strb	r3, [r4, #2]
 8001852:	b003      	add	sp, #12
 8001854:	e8bd 83f0 	ldmia.w	sp!, {r4, r5, r6, r7, r8, r9, pc}
 8001858:	7e63      	ldrb	r3, [r4, #25]
 800185a:	3301      	adds	r3, #1
 800185c:	b2db      	uxtb	r3, r3
 800185e:	2b02      	cmp	r3, #2
 8001860:	7663      	strb	r3, [r4, #25]
 8001862:	f240 80e1 	bls.w	8001a28 <USBH_Get_DevDesc+0x230>
 8001866:	f8d4 3614 	ldr.w	r3, [r4, #1556]	; 0x614
 800186a:	4620      	mov	r0, r4
 800186c:	2106      	movs	r1, #6
 800186e:	4798      	blx	r3
 8001870:	2300      	movs	r3, #0
 8001872:	7663      	strb	r3, [r4, #25]
 8001874:	2301      	movs	r3, #1
 8001876:	70a3      	strb	r3, [r4, #2]
 8001878:	2002      	movs	r0, #2
 800187a:	e7c8      	b.n	800180e <USBH_Get_DevDesc+0x16>
 800187c:	4620      	mov	r0, r4
 800187e:	f104 0110 	add.w	r1, r4, #16
 8001882:	7962      	ldrb	r2, [r4, #5]
 8001884:	f000 fe0e 	bl	80024a4 <USBH_CtlSendSetup>
 8001888:	2302      	movs	r3, #2
 800188a:	7623      	strb	r3, [r4, #24]
 800188c:	2001      	movs	r0, #1
 800188e:	e7be      	b.n	800180e <USBH_Get_DevDesc+0x16>
 8001890:	4620      	mov	r0, r4
 8001892:	7961      	ldrb	r1, [r4, #5]
 8001894:	f005 fba4 	bl	8006fe0 <USBH_LL_GetURBState>
 8001898:	2801      	cmp	r0, #1
 800189a:	f000 80d6 	beq.w	8001a4a <USBH_Get_DevDesc+0x252>
 800189e:	2804      	cmp	r0, #4
 80018a0:	d1b4      	bne.n	800180c <USBH_Get_DevDesc+0x14>
 80018a2:	230b      	movs	r3, #11
 80018a4:	7623      	strb	r3, [r4, #24]
 80018a6:	2001      	movs	r0, #1
 80018a8:	e7b1      	b.n	800180e <USBH_Get_DevDesc+0x16>
 80018aa:	f8d4 3608 	ldr.w	r3, [r4, #1544]	; 0x608
 80018ae:	81e3      	strh	r3, [r4, #14]
 80018b0:	4620      	mov	r0, r4
 80018b2:	7923      	ldrb	r3, [r4, #4]
 80018b4:	68a1      	ldr	r1, [r4, #8]
 80018b6:	89a2      	ldrh	r2, [r4, #12]
 80018b8:	f000 fe1a 	bl	80024f0 <USBH_CtlReceiveData>
 80018bc:	2304      	movs	r3, #4
 80018be:	7623      	strb	r3, [r4, #24]
 80018c0:	2001      	movs	r0, #1
 80018c2:	e7a4      	b.n	800180e <USBH_Get_DevDesc+0x16>
 80018c4:	2100      	movs	r1, #0
 80018c6:	7923      	ldrb	r3, [r4, #4]
 80018c8:	460a      	mov	r2, r1
 80018ca:	4620      	mov	r0, r4
 80018cc:	f000 fe10 	bl	80024f0 <USBH_CtlReceiveData>
 80018d0:	f8d4 3608 	ldr.w	r3, [r4, #1544]	; 0x608
 80018d4:	81e3      	strh	r3, [r4, #14]
 80018d6:	2308      	movs	r3, #8
 80018d8:	7623      	strb	r3, [r4, #24]
 80018da:	2001      	movs	r0, #1
 80018dc:	e797      	b.n	800180e <USBH_Get_DevDesc+0x16>
 80018de:	4620      	mov	r0, r4
 80018e0:	7921      	ldrb	r1, [r4, #4]
 80018e2:	f005 fb7d 	bl	8006fe0 <USBH_LL_GetURBState>
 80018e6:	2801      	cmp	r0, #1
 80018e8:	d048      	beq.n	800197c <USBH_Get_DevDesc+0x184>
 80018ea:	2804      	cmp	r0, #4
 80018ec:	d0d9      	beq.n	80018a2 <USBH_Get_DevDesc+0xaa>
 80018ee:	2805      	cmp	r0, #5
 80018f0:	d18c      	bne.n	800180c <USBH_Get_DevDesc+0x14>
 80018f2:	2003      	movs	r0, #3
 80018f4:	e78b      	b.n	800180e <USBH_Get_DevDesc+0x16>
 80018f6:	2501      	movs	r5, #1
 80018f8:	2100      	movs	r1, #0
 80018fa:	7963      	ldrb	r3, [r4, #5]
 80018fc:	9500      	str	r5, [sp, #0]
 80018fe:	460a      	mov	r2, r1
 8001900:	4620      	mov	r0, r4
 8001902:	f000 fddf 	bl	80024c4 <USBH_CtlSendData>
 8001906:	f8d4 3608 	ldr.w	r3, [r4, #1544]	; 0x608
 800190a:	81e3      	strh	r3, [r4, #14]
 800190c:	230a      	movs	r3, #10
 800190e:	4628      	mov	r0, r5
 8001910:	7623      	strb	r3, [r4, #24]
 8001912:	e77c      	b.n	800180e <USBH_Get_DevDesc+0x16>
 8001914:	4620      	mov	r0, r4
 8001916:	7961      	ldrb	r1, [r4, #5]
 8001918:	f005 fb62 	bl	8006fe0 <USBH_LL_GetURBState>
 800191c:	2801      	cmp	r0, #1
 800191e:	d02d      	beq.n	800197c <USBH_Get_DevDesc+0x184>
 8001920:	2802      	cmp	r0, #2
 8001922:	d1bc      	bne.n	800189e <USBH_Get_DevDesc+0xa6>
 8001924:	2309      	movs	r3, #9
 8001926:	7623      	strb	r3, [r4, #24]
 8001928:	2001      	movs	r0, #1
 800192a:	e770      	b.n	800180e <USBH_Get_DevDesc+0x16>
 800192c:	2501      	movs	r5, #1
 800192e:	7963      	ldrb	r3, [r4, #5]
 8001930:	68a1      	ldr	r1, [r4, #8]
 8001932:	89a2      	ldrh	r2, [r4, #12]
 8001934:	9500      	str	r5, [sp, #0]
 8001936:	4620      	mov	r0, r4
 8001938:	f000 fdc4 	bl	80024c4 <USBH_CtlSendData>
 800193c:	f8d4 3608 	ldr.w	r3, [r4, #1544]	; 0x608
 8001940:	81e3      	strh	r3, [r4, #14]
 8001942:	2306      	movs	r3, #6
 8001944:	4628      	mov	r0, r5
 8001946:	7623      	strb	r3, [r4, #24]
 8001948:	e761      	b.n	800180e <USBH_Get_DevDesc+0x16>
 800194a:	4620      	mov	r0, r4
 800194c:	7961      	ldrb	r1, [r4, #5]
 800194e:	f005 fb47 	bl	8006fe0 <USBH_LL_GetURBState>
 8001952:	2801      	cmp	r0, #1
 8001954:	d072      	beq.n	8001a3c <USBH_Get_DevDesc+0x244>
 8001956:	2805      	cmp	r0, #5
 8001958:	d062      	beq.n	8001a20 <USBH_Get_DevDesc+0x228>
 800195a:	2802      	cmp	r0, #2
 800195c:	d07d      	beq.n	8001a5a <USBH_Get_DevDesc+0x262>
 800195e:	2804      	cmp	r0, #4
 8001960:	f47f af54 	bne.w	800180c <USBH_Get_DevDesc+0x14>
 8001964:	230b      	movs	r3, #11
 8001966:	7623      	strb	r3, [r4, #24]
 8001968:	e784      	b.n	8001874 <USBH_Get_DevDesc+0x7c>
 800196a:	4620      	mov	r0, r4
 800196c:	7921      	ldrb	r1, [r4, #4]
 800196e:	f005 fb37 	bl	8006fe0 <USBH_LL_GetURBState>
 8001972:	2801      	cmp	r0, #1
 8001974:	d066      	beq.n	8001a44 <USBH_Get_DevDesc+0x24c>
 8001976:	2805      	cmp	r0, #5
 8001978:	d0bb      	beq.n	80018f2 <USBH_Get_DevDesc+0xfa>
 800197a:	e790      	b.n	800189e <USBH_Get_DevDesc+0xa6>
 800197c:	7fe0      	ldrb	r0, [r4, #31]
 800197e:	7fa3      	ldrb	r3, [r4, #30]
 8001980:	f894 c01c 	ldrb.w	ip, [r4, #28]
 8001984:	f894 e01d 	ldrb.w	lr, [r4, #29]
 8001988:	f894 7020 	ldrb.w	r7, [r4, #32]
 800198c:	f894 6021 	ldrb.w	r6, [r4, #33]	; 0x21
 8001990:	f894 1022 	ldrb.w	r1, [r4, #34]	; 0x22
 8001994:	f894 2023 	ldrb.w	r2, [r4, #35]	; 0x23
 8001998:	f884 c220 	strb.w	ip, [r4, #544]	; 0x220
 800199c:	eb03 2300 	add.w	r3, r3, r0, lsl #8
 80019a0:	f04f 0c01 	mov.w	ip, #1
 80019a4:	2000      	movs	r0, #0
 80019a6:	2d08      	cmp	r5, #8
 80019a8:	f8a4 3222 	strh.w	r3, [r4, #546]	; 0x222
 80019ac:	f884 c002 	strb.w	ip, [r4, #2]
 80019b0:	7620      	strb	r0, [r4, #24]
 80019b2:	f884 e221 	strb.w	lr, [r4, #545]	; 0x221
 80019b6:	f884 7224 	strb.w	r7, [r4, #548]	; 0x224
 80019ba:	f884 6225 	strb.w	r6, [r4, #549]	; 0x225
 80019be:	f884 1226 	strb.w	r1, [r4, #550]	; 0x226
 80019c2:	f884 2227 	strb.w	r2, [r4, #551]	; 0x227
 80019c6:	f67f af22 	bls.w	800180e <USBH_Get_DevDesc+0x16>
 80019ca:	f894 8025 	ldrb.w	r8, [r4, #37]	; 0x25
 80019ce:	f894 1024 	ldrb.w	r1, [r4, #36]	; 0x24
 80019d2:	f894 c027 	ldrb.w	ip, [r4, #39]	; 0x27
 80019d6:	f894 2026 	ldrb.w	r2, [r4, #38]	; 0x26
 80019da:	f894 e029 	ldrb.w	lr, [r4, #41]	; 0x29
 80019de:	f894 3028 	ldrb.w	r3, [r4, #40]	; 0x28
 80019e2:	f894 902a 	ldrb.w	r9, [r4, #42]	; 0x2a
 80019e6:	f894 702b 	ldrb.w	r7, [r4, #43]	; 0x2b
 80019ea:	f894 602c 	ldrb.w	r6, [r4, #44]	; 0x2c
 80019ee:	f894 502d 	ldrb.w	r5, [r4, #45]	; 0x2d
 80019f2:	f884 922e 	strb.w	r9, [r4, #558]	; 0x22e
 80019f6:	eb01 2108 	add.w	r1, r1, r8, lsl #8
 80019fa:	eb02 220c 	add.w	r2, r2, ip, lsl #8
 80019fe:	eb03 230e 	add.w	r3, r3, lr, lsl #8
 8001a02:	f8a4 1228 	strh.w	r1, [r4, #552]	; 0x228
 8001a06:	f8a4 222a 	strh.w	r2, [r4, #554]	; 0x22a
 8001a0a:	f8a4 322c 	strh.w	r3, [r4, #556]	; 0x22c
 8001a0e:	f884 722f 	strb.w	r7, [r4, #559]	; 0x22f
 8001a12:	f884 6230 	strb.w	r6, [r4, #560]	; 0x230
 8001a16:	f884 5231 	strb.w	r5, [r4, #561]	; 0x231
 8001a1a:	b003      	add	sp, #12
 8001a1c:	e8bd 83f0 	ldmia.w	sp!, {r4, r5, r6, r7, r8, r9, pc}
 8001a20:	230c      	movs	r3, #12
 8001a22:	7623      	strb	r3, [r4, #24]
 8001a24:	2003      	movs	r0, #3
 8001a26:	e6f2      	b.n	800180e <USBH_Get_DevDesc+0x16>
 8001a28:	4620      	mov	r0, r4
 8001a2a:	f005 fa89 	bl	8006f40 <USBH_LL_Stop>
 8001a2e:	2001      	movs	r0, #1
 8001a30:	7620      	strb	r0, [r4, #24]
 8001a32:	70a0      	strb	r0, [r4, #2]
 8001a34:	e6eb      	b.n	800180e <USBH_Get_DevDesc+0x16>
 8001a36:	2b00      	cmp	r3, #0
 8001a38:	f47f af74 	bne.w	8001924 <USBH_Get_DevDesc+0x12c>
 8001a3c:	2307      	movs	r3, #7
 8001a3e:	7623      	strb	r3, [r4, #24]
 8001a40:	2001      	movs	r0, #1
 8001a42:	e6e4      	b.n	800180e <USBH_Get_DevDesc+0x16>
 8001a44:	2309      	movs	r3, #9
 8001a46:	7623      	strb	r3, [r4, #24]
 8001a48:	e6e0      	b.n	800180c <USBH_Get_DevDesc+0x14>
 8001a4a:	7c23      	ldrb	r3, [r4, #16]
 8001a4c:	8ae2      	ldrh	r2, [r4, #22]
 8001a4e:	f023 037f 	bic.w	r3, r3, #127	; 0x7f
 8001a52:	b2db      	uxtb	r3, r3
 8001a54:	2a00      	cmp	r2, #0
 8001a56:	d0ee      	beq.n	8001a36 <USBH_Get_DevDesc+0x23e>
 8001a58:	b91b      	cbnz	r3, 8001a62 <USBH_Get_DevDesc+0x26a>
 8001a5a:	2305      	movs	r3, #5
 8001a5c:	7623      	strb	r3, [r4, #24]
 8001a5e:	2001      	movs	r0, #1
 8001a60:	e6d5      	b.n	800180e <USBH_Get_DevDesc+0x16>
 8001a62:	2303      	movs	r3, #3
 8001a64:	7623      	strb	r3, [r4, #24]
 8001a66:	e6d2      	b.n	800180e <USBH_Get_DevDesc+0x16>

08001a68 <USBH_Get_CfgDesc>:
USBH_Get_CfgDesc():
 8001a68:	e92d 47f0 	stmdb	sp!, {r4, r5, r6, r7, r8, r9, sl, lr}
 8001a6c:	4605      	mov	r5, r0
 8001a6e:	7880      	ldrb	r0, [r0, #2]
 8001a70:	2801      	cmp	r0, #1
 8001a72:	b082      	sub	sp, #8
 8001a74:	460e      	mov	r6, r1
 8001a76:	f105 041c 	add.w	r4, r5, #28
 8001a7a:	d011      	beq.n	8001aa0 <USBH_Get_CfgDesc+0x38>
 8001a7c:	2802      	cmp	r0, #2
 8001a7e:	d003      	beq.n	8001a88 <USBH_Get_CfgDesc+0x20>
 8001a80:	2001      	movs	r0, #1
 8001a82:	b002      	add	sp, #8
 8001a84:	e8bd 87f0 	ldmia.w	sp!, {r4, r5, r6, r7, r8, r9, sl, pc}
 8001a88:	7e2b      	ldrb	r3, [r5, #24]
 8001a8a:	3b01      	subs	r3, #1
 8001a8c:	2b0a      	cmp	r3, #10
 8001a8e:	d8f7      	bhi.n	8001a80 <USBH_Get_CfgDesc+0x18>
 8001a90:	e8df f003 	tbb	[pc, r3]
 8001a94:	a643362c 	.word	0xa643362c
 8001a98:	5d509384 	.word	0x5d509384
 8001a9c:	7869      	.short	0x7869
 8001a9e:	1a          	.byte	0x1a
 8001a9f:	00          	.byte	0x00
 8001aa0:	f04f 0e80 	mov.w	lr, #128	; 0x80
 8001aa4:	2706      	movs	r7, #6
 8001aa6:	f44f 7100 	mov.w	r1, #512	; 0x200
 8001aaa:	2200      	movs	r2, #0
 8001aac:	2302      	movs	r3, #2
 8001aae:	82ee      	strh	r6, [r5, #22]
 8001ab0:	60ac      	str	r4, [r5, #8]
 8001ab2:	81ae      	strh	r6, [r5, #12]
 8001ab4:	7628      	strb	r0, [r5, #24]
 8001ab6:	f885 e010 	strb.w	lr, [r5, #16]
 8001aba:	746f      	strb	r7, [r5, #17]
 8001abc:	8269      	strh	r1, [r5, #18]
 8001abe:	82aa      	strh	r2, [r5, #20]
 8001ac0:	70ab      	strb	r3, [r5, #2]
 8001ac2:	b002      	add	sp, #8
 8001ac4:	e8bd 87f0 	ldmia.w	sp!, {r4, r5, r6, r7, r8, r9, sl, pc}
 8001ac8:	7e6b      	ldrb	r3, [r5, #25]
 8001aca:	3301      	adds	r3, #1
 8001acc:	b2db      	uxtb	r3, r3
 8001ace:	2b02      	cmp	r3, #2
 8001ad0:	766b      	strb	r3, [r5, #25]
 8001ad2:	f240 8123 	bls.w	8001d1c <USBH_Get_CfgDesc+0x2b4>
 8001ad6:	f8d5 3614 	ldr.w	r3, [r5, #1556]	; 0x614
 8001ada:	4628      	mov	r0, r5
 8001adc:	2106      	movs	r1, #6
 8001ade:	4798      	blx	r3
 8001ae0:	2300      	movs	r3, #0
 8001ae2:	766b      	strb	r3, [r5, #25]
 8001ae4:	2301      	movs	r3, #1
 8001ae6:	70ab      	strb	r3, [r5, #2]
 8001ae8:	2002      	movs	r0, #2
 8001aea:	e7ca      	b.n	8001a82 <USBH_Get_CfgDesc+0x1a>
 8001aec:	4628      	mov	r0, r5
 8001aee:	f105 0110 	add.w	r1, r5, #16
 8001af2:	796a      	ldrb	r2, [r5, #5]
 8001af4:	f000 fcd6 	bl	80024a4 <USBH_CtlSendSetup>
 8001af8:	2302      	movs	r3, #2
 8001afa:	762b      	strb	r3, [r5, #24]
 8001afc:	2001      	movs	r0, #1
 8001afe:	e7c0      	b.n	8001a82 <USBH_Get_CfgDesc+0x1a>
 8001b00:	4628      	mov	r0, r5
 8001b02:	7969      	ldrb	r1, [r5, #5]
 8001b04:	f005 fa6c 	bl	8006fe0 <USBH_LL_GetURBState>
 8001b08:	2801      	cmp	r0, #1
 8001b0a:	f000 8118 	beq.w	8001d3e <USBH_Get_CfgDesc+0x2d6>
 8001b0e:	2804      	cmp	r0, #4
 8001b10:	d1b6      	bne.n	8001a80 <USBH_Get_CfgDesc+0x18>
 8001b12:	230b      	movs	r3, #11
 8001b14:	762b      	strb	r3, [r5, #24]
 8001b16:	2001      	movs	r0, #1
 8001b18:	e7b3      	b.n	8001a82 <USBH_Get_CfgDesc+0x1a>
 8001b1a:	f8d5 3608 	ldr.w	r3, [r5, #1544]	; 0x608
 8001b1e:	81eb      	strh	r3, [r5, #14]
 8001b20:	4628      	mov	r0, r5
 8001b22:	792b      	ldrb	r3, [r5, #4]
 8001b24:	68a9      	ldr	r1, [r5, #8]
 8001b26:	89aa      	ldrh	r2, [r5, #12]
 8001b28:	f000 fce2 	bl	80024f0 <USBH_CtlReceiveData>
 8001b2c:	2304      	movs	r3, #4
 8001b2e:	762b      	strb	r3, [r5, #24]
 8001b30:	2001      	movs	r0, #1
 8001b32:	e7a6      	b.n	8001a82 <USBH_Get_CfgDesc+0x1a>
 8001b34:	2100      	movs	r1, #0
 8001b36:	792b      	ldrb	r3, [r5, #4]
 8001b38:	460a      	mov	r2, r1
 8001b3a:	4628      	mov	r0, r5
 8001b3c:	f000 fcd8 	bl	80024f0 <USBH_CtlReceiveData>
 8001b40:	f8d5 3608 	ldr.w	r3, [r5, #1544]	; 0x608
 8001b44:	81eb      	strh	r3, [r5, #14]
 8001b46:	2308      	movs	r3, #8
 8001b48:	762b      	strb	r3, [r5, #24]
 8001b4a:	2001      	movs	r0, #1
 8001b4c:	e799      	b.n	8001a82 <USBH_Get_CfgDesc+0x1a>
 8001b4e:	4628      	mov	r0, r5
 8001b50:	7929      	ldrb	r1, [r5, #4]
 8001b52:	f005 fa45 	bl	8006fe0 <USBH_LL_GetURBState>
 8001b56:	2801      	cmp	r0, #1
 8001b58:	d04c      	beq.n	8001bf4 <USBH_Get_CfgDesc+0x18c>
 8001b5a:	2804      	cmp	r0, #4
 8001b5c:	d0d9      	beq.n	8001b12 <USBH_Get_CfgDesc+0xaa>
 8001b5e:	2805      	cmp	r0, #5
 8001b60:	d18e      	bne.n	8001a80 <USBH_Get_CfgDesc+0x18>
 8001b62:	2003      	movs	r0, #3
 8001b64:	e78d      	b.n	8001a82 <USBH_Get_CfgDesc+0x1a>
 8001b66:	2401      	movs	r4, #1
 8001b68:	2100      	movs	r1, #0
 8001b6a:	796b      	ldrb	r3, [r5, #5]
 8001b6c:	9400      	str	r4, [sp, #0]
 8001b6e:	460a      	mov	r2, r1
 8001b70:	4628      	mov	r0, r5
 8001b72:	f000 fca7 	bl	80024c4 <USBH_CtlSendData>
 8001b76:	f8d5 3608 	ldr.w	r3, [r5, #1544]	; 0x608
 8001b7a:	81eb      	strh	r3, [r5, #14]
 8001b7c:	230a      	movs	r3, #10
 8001b7e:	4620      	mov	r0, r4
 8001b80:	762b      	strb	r3, [r5, #24]
 8001b82:	e77e      	b.n	8001a82 <USBH_Get_CfgDesc+0x1a>
 8001b84:	4628      	mov	r0, r5
 8001b86:	7969      	ldrb	r1, [r5, #5]
 8001b88:	f005 fa2a 	bl	8006fe0 <USBH_LL_GetURBState>
 8001b8c:	2801      	cmp	r0, #1
 8001b8e:	d031      	beq.n	8001bf4 <USBH_Get_CfgDesc+0x18c>
 8001b90:	2802      	cmp	r0, #2
 8001b92:	d1bc      	bne.n	8001b0e <USBH_Get_CfgDesc+0xa6>
 8001b94:	2309      	movs	r3, #9
 8001b96:	762b      	strb	r3, [r5, #24]
 8001b98:	2001      	movs	r0, #1
 8001b9a:	e772      	b.n	8001a82 <USBH_Get_CfgDesc+0x1a>
 8001b9c:	2401      	movs	r4, #1
 8001b9e:	796b      	ldrb	r3, [r5, #5]
 8001ba0:	68a9      	ldr	r1, [r5, #8]
 8001ba2:	89aa      	ldrh	r2, [r5, #12]
 8001ba4:	9400      	str	r4, [sp, #0]
 8001ba6:	4628      	mov	r0, r5
 8001ba8:	f000 fc8c 	bl	80024c4 <USBH_CtlSendData>
 8001bac:	f8d5 3608 	ldr.w	r3, [r5, #1544]	; 0x608
 8001bb0:	81eb      	strh	r3, [r5, #14]
 8001bb2:	2306      	movs	r3, #6
 8001bb4:	4620      	mov	r0, r4
 8001bb6:	762b      	strb	r3, [r5, #24]
 8001bb8:	e763      	b.n	8001a82 <USBH_Get_CfgDesc+0x1a>
 8001bba:	4628      	mov	r0, r5
 8001bbc:	7969      	ldrb	r1, [r5, #5]
 8001bbe:	f005 fa0f 	bl	8006fe0 <USBH_LL_GetURBState>
 8001bc2:	2801      	cmp	r0, #1
 8001bc4:	f000 80b4 	beq.w	8001d30 <USBH_Get_CfgDesc+0x2c8>
 8001bc8:	2805      	cmp	r0, #5
 8001bca:	f000 80a3 	beq.w	8001d14 <USBH_Get_CfgDesc+0x2ac>
 8001bce:	2802      	cmp	r0, #2
 8001bd0:	f000 80bd 	beq.w	8001d4e <USBH_Get_CfgDesc+0x2e6>
 8001bd4:	2804      	cmp	r0, #4
 8001bd6:	f47f af53 	bne.w	8001a80 <USBH_Get_CfgDesc+0x18>
 8001bda:	230b      	movs	r3, #11
 8001bdc:	762b      	strb	r3, [r5, #24]
 8001bde:	e781      	b.n	8001ae4 <USBH_Get_CfgDesc+0x7c>
 8001be0:	4628      	mov	r0, r5
 8001be2:	7929      	ldrb	r1, [r5, #4]
 8001be4:	f005 f9fc 	bl	8006fe0 <USBH_LL_GetURBState>
 8001be8:	2801      	cmp	r0, #1
 8001bea:	f000 80a5 	beq.w	8001d38 <USBH_Get_CfgDesc+0x2d0>
 8001bee:	2805      	cmp	r0, #5
 8001bf0:	d0b7      	beq.n	8001b62 <USBH_Get_CfgDesc+0xfa>
 8001bf2:	e78c      	b.n	8001b0e <USBH_Get_CfgDesc+0xa6>
 8001bf4:	7fab      	ldrb	r3, [r5, #30]
 8001bf6:	7fe8      	ldrb	r0, [r5, #31]
 8001bf8:	7f2f      	ldrb	r7, [r5, #28]
 8001bfa:	f895 901d 	ldrb.w	r9, [r5, #29]
 8001bfe:	f895 8020 	ldrb.w	r8, [r5, #32]
 8001c02:	f895 c021 	ldrb.w	ip, [r5, #33]	; 0x21
 8001c06:	f895 e022 	ldrb.w	lr, [r5, #34]	; 0x22
 8001c0a:	f895 1023 	ldrb.w	r1, [r5, #35]	; 0x23
 8001c0e:	f895 2024 	ldrb.w	r2, [r5, #36]	; 0x24
 8001c12:	f885 7232 	strb.w	r7, [r5, #562]	; 0x232
 8001c16:	eb03 2000 	add.w	r0, r3, r0, lsl #8
 8001c1a:	b280      	uxth	r0, r0
 8001c1c:	2301      	movs	r3, #1
 8001c1e:	2700      	movs	r7, #0
 8001c20:	2e09      	cmp	r6, #9
 8001c22:	f8a5 0234 	strh.w	r0, [r5, #564]	; 0x234
 8001c26:	70ab      	strb	r3, [r5, #2]
 8001c28:	762f      	strb	r7, [r5, #24]
 8001c2a:	f885 9233 	strb.w	r9, [r5, #563]	; 0x233
 8001c2e:	f885 8236 	strb.w	r8, [r5, #566]	; 0x236
 8001c32:	f885 c237 	strb.w	ip, [r5, #567]	; 0x237
 8001c36:	f885 e238 	strb.w	lr, [r5, #568]	; 0x238
 8001c3a:	f885 1239 	strb.w	r1, [r5, #569]	; 0x239
 8001c3e:	f885 223a 	strb.w	r2, [r5, #570]	; 0x23a
 8001c42:	d90d      	bls.n	8001c60 <USBH_Get_CfgDesc+0x1f8>
 8001c44:	462e      	mov	r6, r5
 8001c46:	2209      	movs	r2, #9
 8001c48:	f04f 0e5a 	mov.w	lr, #90	; 0x5a
 8001c4c:	e006      	b.n	8001c5c <USBH_Get_CfgDesc+0x1f4>
 8001c4e:	7823      	ldrb	r3, [r4, #0]
 8001c50:	441c      	add	r4, r3
 8001c52:	4413      	add	r3, r2
 8001c54:	7861      	ldrb	r1, [r4, #1]
 8001c56:	2904      	cmp	r1, #4
 8001c58:	b29a      	uxth	r2, r3
 8001c5a:	d003      	beq.n	8001c64 <USBH_Get_CfgDesc+0x1fc>
 8001c5c:	4290      	cmp	r0, r2
 8001c5e:	d8f6      	bhi.n	8001c4e <USBH_Get_CfgDesc+0x1e6>
 8001c60:	2000      	movs	r0, #0
 8001c62:	e70e      	b.n	8001a82 <USBH_Get_CfgDesc+0x1a>
 8001c64:	7823      	ldrb	r3, [r4, #0]
 8001c66:	f886 323c 	strb.w	r3, [r6, #572]	; 0x23c
 8001c6a:	7863      	ldrb	r3, [r4, #1]
 8001c6c:	f886 323d 	strb.w	r3, [r6, #573]	; 0x23d
 8001c70:	78a3      	ldrb	r3, [r4, #2]
 8001c72:	f886 323e 	strb.w	r3, [r6, #574]	; 0x23e
 8001c76:	78e3      	ldrb	r3, [r4, #3]
 8001c78:	f886 323f 	strb.w	r3, [r6, #575]	; 0x23f
 8001c7c:	7923      	ldrb	r3, [r4, #4]
 8001c7e:	f886 3240 	strb.w	r3, [r6, #576]	; 0x240
 8001c82:	7963      	ldrb	r3, [r4, #5]
 8001c84:	f886 3241 	strb.w	r3, [r6, #577]	; 0x241
 8001c88:	79a3      	ldrb	r3, [r4, #6]
 8001c8a:	f886 3242 	strb.w	r3, [r6, #578]	; 0x242
 8001c8e:	79e3      	ldrb	r3, [r4, #7]
 8001c90:	f886 3243 	strb.w	r3, [r6, #579]	; 0x243
 8001c94:	7a23      	ldrb	r3, [r4, #8]
 8001c96:	f896 a240 	ldrb.w	sl, [r6, #576]	; 0x240
 8001c9a:	f886 3244 	strb.w	r3, [r6, #580]	; 0x244
 8001c9e:	f04f 0c00 	mov.w	ip, #0
 8001ca2:	4661      	mov	r1, ip
 8001ca4:	fb0e f807 	mul.w	r8, lr, r7
 8001ca8:	4551      	cmp	r1, sl
 8001caa:	da2d      	bge.n	8001d08 <USBH_Get_CfgDesc+0x2a0>
 8001cac:	4290      	cmp	r0, r2
 8001cae:	d92b      	bls.n	8001d08 <USBH_Get_CfgDesc+0x2a0>
 8001cb0:	7823      	ldrb	r3, [r4, #0]
 8001cb2:	441c      	add	r4, r3
 8001cb4:	4413      	add	r3, r2
 8001cb6:	f894 9001 	ldrb.w	r9, [r4, #1]
 8001cba:	f1b9 0f05 	cmp.w	r9, #5
 8001cbe:	b29a      	uxth	r2, r3
 8001cc0:	d1f2      	bne.n	8001ca8 <USBH_Get_CfgDesc+0x240>
 8001cc2:	1c4b      	adds	r3, r1, #1
 8001cc4:	eb08 03c3 	add.w	r3, r8, r3, lsl #3
 8001cc8:	442b      	add	r3, r5
 8001cca:	7821      	ldrb	r1, [r4, #0]
 8001ccc:	f883 123e 	strb.w	r1, [r3, #574]	; 0x23e
 8001cd0:	7861      	ldrb	r1, [r4, #1]
 8001cd2:	f883 123f 	strb.w	r1, [r3, #575]	; 0x23f
 8001cd6:	78a1      	ldrb	r1, [r4, #2]
 8001cd8:	f883 1240 	strb.w	r1, [r3, #576]	; 0x240
 8001cdc:	78e1      	ldrb	r1, [r4, #3]
 8001cde:	f883 1241 	strb.w	r1, [r3, #577]	; 0x241
 8001ce2:	f894 9005 	ldrb.w	r9, [r4, #5]
 8001ce6:	7921      	ldrb	r1, [r4, #4]
 8001ce8:	eb01 2109 	add.w	r1, r1, r9, lsl #8
 8001cec:	f8a3 1242 	strh.w	r1, [r3, #578]	; 0x242
 8001cf0:	79a1      	ldrb	r1, [r4, #6]
 8001cf2:	f883 1244 	strb.w	r1, [r3, #580]	; 0x244
 8001cf6:	f10c 0c01 	add.w	ip, ip, #1
 8001cfa:	fa5f fc8c 	uxtb.w	ip, ip
 8001cfe:	f896 a240 	ldrb.w	sl, [r6, #576]	; 0x240
 8001d02:	fa4f f18c 	sxtb.w	r1, ip
 8001d06:	e7cf      	b.n	8001ca8 <USBH_Get_CfgDesc+0x240>
 8001d08:	3701      	adds	r7, #1
 8001d0a:	2f0a      	cmp	r7, #10
 8001d0c:	f106 065a 	add.w	r6, r6, #90	; 0x5a
 8001d10:	d1a4      	bne.n	8001c5c <USBH_Get_CfgDesc+0x1f4>
 8001d12:	e7a5      	b.n	8001c60 <USBH_Get_CfgDesc+0x1f8>
 8001d14:	230c      	movs	r3, #12
 8001d16:	762b      	strb	r3, [r5, #24]
 8001d18:	2003      	movs	r0, #3
 8001d1a:	e6b2      	b.n	8001a82 <USBH_Get_CfgDesc+0x1a>
 8001d1c:	4628      	mov	r0, r5
 8001d1e:	f005 f90f 	bl	8006f40 <USBH_LL_Stop>
 8001d22:	2001      	movs	r0, #1
 8001d24:	7628      	strb	r0, [r5, #24]
 8001d26:	70a8      	strb	r0, [r5, #2]
 8001d28:	e6ab      	b.n	8001a82 <USBH_Get_CfgDesc+0x1a>
 8001d2a:	2b00      	cmp	r3, #0
 8001d2c:	f47f af32 	bne.w	8001b94 <USBH_Get_CfgDesc+0x12c>
 8001d30:	2307      	movs	r3, #7
 8001d32:	762b      	strb	r3, [r5, #24]
 8001d34:	2001      	movs	r0, #1
 8001d36:	e6a4      	b.n	8001a82 <USBH_Get_CfgDesc+0x1a>
 8001d38:	2309      	movs	r3, #9
 8001d3a:	762b      	strb	r3, [r5, #24]
 8001d3c:	e6a0      	b.n	8001a80 <USBH_Get_CfgDesc+0x18>
 8001d3e:	7c2b      	ldrb	r3, [r5, #16]
 8001d40:	8aea      	ldrh	r2, [r5, #22]
 8001d42:	f023 037f 	bic.w	r3, r3, #127	; 0x7f
 8001d46:	b2db      	uxtb	r3, r3
 8001d48:	2a00      	cmp	r2, #0
 8001d4a:	d0ee      	beq.n	8001d2a <USBH_Get_CfgDesc+0x2c2>
 8001d4c:	b91b      	cbnz	r3, 8001d56 <USBH_Get_CfgDesc+0x2ee>
 8001d4e:	2305      	movs	r3, #5
 8001d50:	762b      	strb	r3, [r5, #24]
 8001d52:	2001      	movs	r0, #1
 8001d54:	e695      	b.n	8001a82 <USBH_Get_CfgDesc+0x1a>
 8001d56:	2303      	movs	r3, #3
 8001d58:	762b      	strb	r3, [r5, #24]
 8001d5a:	e692      	b.n	8001a82 <USBH_Get_CfgDesc+0x1a>

08001d5c <USBH_Get_StringDesc>:
USBH_Get_StringDesc():
 8001d5c:	b5f0      	push	{r4, r5, r6, r7, lr}
 8001d5e:	4605      	mov	r5, r0
 8001d60:	7880      	ldrb	r0, [r0, #2]
 8001d62:	2801      	cmp	r0, #1
 8001d64:	b085      	sub	sp, #20
 8001d66:	f105 041c 	add.w	r4, r5, #28
 8001d6a:	d010      	beq.n	8001d8e <USBH_Get_StringDesc+0x32>
 8001d6c:	2802      	cmp	r0, #2
 8001d6e:	d002      	beq.n	8001d76 <USBH_Get_StringDesc+0x1a>
 8001d70:	2001      	movs	r0, #1
 8001d72:	b005      	add	sp, #20
 8001d74:	bdf0      	pop	{r4, r5, r6, r7, pc}
 8001d76:	7e29      	ldrb	r1, [r5, #24]
 8001d78:	3901      	subs	r1, #1
 8001d7a:	290a      	cmp	r1, #10
 8001d7c:	d8f8      	bhi.n	8001d70 <USBH_Get_StringDesc+0x14>
 8001d7e:	e8df f001 	tbb	[pc, r1]
 8001d82:	362c      	.short	0x362c
 8001d84:	9b8cab43 	.word	0x9b8cab43
 8001d88:	7c6d5d50 	.word	0x7c6d5d50
 8001d8c:	1a          	.byte	0x1a
 8001d8d:	00          	.byte	0x00
 8001d8e:	f441 7140 	orr.w	r1, r1, #768	; 0x300
 8001d92:	f04f 0e80 	mov.w	lr, #128	; 0x80
 8001d96:	2706      	movs	r7, #6
 8001d98:	f240 4609 	movw	r6, #1033	; 0x409
 8001d9c:	2202      	movs	r2, #2
 8001d9e:	8269      	strh	r1, [r5, #18]
 8001da0:	82eb      	strh	r3, [r5, #22]
 8001da2:	60ac      	str	r4, [r5, #8]
 8001da4:	81ab      	strh	r3, [r5, #12]
 8001da6:	7628      	strb	r0, [r5, #24]
 8001da8:	f885 e010 	strb.w	lr, [r5, #16]
 8001dac:	746f      	strb	r7, [r5, #17]
 8001dae:	82ae      	strh	r6, [r5, #20]
 8001db0:	70aa      	strb	r2, [r5, #2]
 8001db2:	b005      	add	sp, #20
 8001db4:	bdf0      	pop	{r4, r5, r6, r7, pc}
 8001db6:	7e6b      	ldrb	r3, [r5, #25]
 8001db8:	3301      	adds	r3, #1
 8001dba:	b2db      	uxtb	r3, r3
 8001dbc:	2b02      	cmp	r3, #2
 8001dbe:	766b      	strb	r3, [r5, #25]
 8001dc0:	f240 80b2 	bls.w	8001f28 <USBH_Get_StringDesc+0x1cc>
 8001dc4:	f8d5 3614 	ldr.w	r3, [r5, #1556]	; 0x614
 8001dc8:	4628      	mov	r0, r5
 8001dca:	2106      	movs	r1, #6
 8001dcc:	4798      	blx	r3
 8001dce:	2300      	movs	r3, #0
 8001dd0:	766b      	strb	r3, [r5, #25]
 8001dd2:	2301      	movs	r3, #1
 8001dd4:	70ab      	strb	r3, [r5, #2]
 8001dd6:	2002      	movs	r0, #2
 8001dd8:	e7cb      	b.n	8001d72 <USBH_Get_StringDesc+0x16>
 8001dda:	4628      	mov	r0, r5
 8001ddc:	f105 0110 	add.w	r1, r5, #16
 8001de0:	796a      	ldrb	r2, [r5, #5]
 8001de2:	f000 fb5f 	bl	80024a4 <USBH_CtlSendSetup>
 8001de6:	2302      	movs	r3, #2
 8001de8:	762b      	strb	r3, [r5, #24]
 8001dea:	2001      	movs	r0, #1
 8001dec:	e7c1      	b.n	8001d72 <USBH_Get_StringDesc+0x16>
 8001dee:	4628      	mov	r0, r5
 8001df0:	7969      	ldrb	r1, [r5, #5]
 8001df2:	f005 f8f5 	bl	8006fe0 <USBH_LL_GetURBState>
 8001df6:	2801      	cmp	r0, #1
 8001df8:	f000 80a6 	beq.w	8001f48 <USBH_Get_StringDesc+0x1ec>
 8001dfc:	2804      	cmp	r0, #4
 8001dfe:	d1b7      	bne.n	8001d70 <USBH_Get_StringDesc+0x14>
 8001e00:	230b      	movs	r3, #11
 8001e02:	762b      	strb	r3, [r5, #24]
 8001e04:	2001      	movs	r0, #1
 8001e06:	e7b4      	b.n	8001d72 <USBH_Get_StringDesc+0x16>
 8001e08:	f8d5 3608 	ldr.w	r3, [r5, #1544]	; 0x608
 8001e0c:	81eb      	strh	r3, [r5, #14]
 8001e0e:	4628      	mov	r0, r5
 8001e10:	792b      	ldrb	r3, [r5, #4]
 8001e12:	68a9      	ldr	r1, [r5, #8]
 8001e14:	89aa      	ldrh	r2, [r5, #12]
 8001e16:	f000 fb6b 	bl	80024f0 <USBH_CtlReceiveData>
 8001e1a:	2304      	movs	r3, #4
 8001e1c:	762b      	strb	r3, [r5, #24]
 8001e1e:	2001      	movs	r0, #1
 8001e20:	e7a7      	b.n	8001d72 <USBH_Get_StringDesc+0x16>
 8001e22:	2100      	movs	r1, #0
 8001e24:	792b      	ldrb	r3, [r5, #4]
 8001e26:	460a      	mov	r2, r1
 8001e28:	4628      	mov	r0, r5
 8001e2a:	f000 fb61 	bl	80024f0 <USBH_CtlReceiveData>
 8001e2e:	f8d5 3608 	ldr.w	r3, [r5, #1544]	; 0x608
 8001e32:	81eb      	strh	r3, [r5, #14]
 8001e34:	2308      	movs	r3, #8
 8001e36:	762b      	strb	r3, [r5, #24]
 8001e38:	2001      	movs	r0, #1
 8001e3a:	e79a      	b.n	8001d72 <USBH_Get_StringDesc+0x16>
 8001e3c:	4628      	mov	r0, r5
 8001e3e:	7929      	ldrb	r1, [r5, #4]
 8001e40:	9303      	str	r3, [sp, #12]
 8001e42:	9202      	str	r2, [sp, #8]
 8001e44:	f005 f8cc 	bl	8006fe0 <USBH_LL_GetURBState>
 8001e48:	2801      	cmp	r0, #1
 8001e4a:	9a02      	ldr	r2, [sp, #8]
 8001e4c:	9b03      	ldr	r3, [sp, #12]
 8001e4e:	d04c      	beq.n	8001eea <USBH_Get_StringDesc+0x18e>
 8001e50:	2804      	cmp	r0, #4
 8001e52:	d0d5      	beq.n	8001e00 <USBH_Get_StringDesc+0xa4>
 8001e54:	2805      	cmp	r0, #5
 8001e56:	d18b      	bne.n	8001d70 <USBH_Get_StringDesc+0x14>
 8001e58:	2003      	movs	r0, #3
 8001e5a:	e78a      	b.n	8001d72 <USBH_Get_StringDesc+0x16>
 8001e5c:	2401      	movs	r4, #1
 8001e5e:	2100      	movs	r1, #0
 8001e60:	796b      	ldrb	r3, [r5, #5]
 8001e62:	9400      	str	r4, [sp, #0]
 8001e64:	460a      	mov	r2, r1
 8001e66:	4628      	mov	r0, r5
 8001e68:	f000 fb2c 	bl	80024c4 <USBH_CtlSendData>
 8001e6c:	f8d5 3608 	ldr.w	r3, [r5, #1544]	; 0x608
 8001e70:	81eb      	strh	r3, [r5, #14]
 8001e72:	230a      	movs	r3, #10
 8001e74:	4620      	mov	r0, r4
 8001e76:	762b      	strb	r3, [r5, #24]
 8001e78:	e77b      	b.n	8001d72 <USBH_Get_StringDesc+0x16>
 8001e7a:	4628      	mov	r0, r5
 8001e7c:	7969      	ldrb	r1, [r5, #5]
 8001e7e:	9303      	str	r3, [sp, #12]
 8001e80:	9202      	str	r2, [sp, #8]
 8001e82:	f005 f8ad 	bl	8006fe0 <USBH_LL_GetURBState>
 8001e86:	2801      	cmp	r0, #1
 8001e88:	9a02      	ldr	r2, [sp, #8]
 8001e8a:	9b03      	ldr	r3, [sp, #12]
 8001e8c:	d02d      	beq.n	8001eea <USBH_Get_StringDesc+0x18e>
 8001e8e:	2802      	cmp	r0, #2
 8001e90:	d1b4      	bne.n	8001dfc <USBH_Get_StringDesc+0xa0>
 8001e92:	2309      	movs	r3, #9
 8001e94:	762b      	strb	r3, [r5, #24]
 8001e96:	2001      	movs	r0, #1
 8001e98:	e76b      	b.n	8001d72 <USBH_Get_StringDesc+0x16>
 8001e9a:	2401      	movs	r4, #1
 8001e9c:	796b      	ldrb	r3, [r5, #5]
 8001e9e:	68a9      	ldr	r1, [r5, #8]
 8001ea0:	89aa      	ldrh	r2, [r5, #12]
 8001ea2:	9400      	str	r4, [sp, #0]
 8001ea4:	4628      	mov	r0, r5
 8001ea6:	f000 fb0d 	bl	80024c4 <USBH_CtlSendData>
 8001eaa:	f8d5 3608 	ldr.w	r3, [r5, #1544]	; 0x608
 8001eae:	81eb      	strh	r3, [r5, #14]
 8001eb0:	2306      	movs	r3, #6
 8001eb2:	4620      	mov	r0, r4
 8001eb4:	762b      	strb	r3, [r5, #24]
 8001eb6:	e75c      	b.n	8001d72 <USBH_Get_StringDesc+0x16>
 8001eb8:	4628      	mov	r0, r5
 8001eba:	7969      	ldrb	r1, [r5, #5]
 8001ebc:	f005 f890 	bl	8006fe0 <USBH_LL_GetURBState>
 8001ec0:	2801      	cmp	r0, #1
 8001ec2:	d03a      	beq.n	8001f3a <USBH_Get_StringDesc+0x1de>
 8001ec4:	2805      	cmp	r0, #5
 8001ec6:	d02b      	beq.n	8001f20 <USBH_Get_StringDesc+0x1c4>
 8001ec8:	2802      	cmp	r0, #2
 8001eca:	d045      	beq.n	8001f58 <USBH_Get_StringDesc+0x1fc>
 8001ecc:	2804      	cmp	r0, #4
 8001ece:	f47f af4f 	bne.w	8001d70 <USBH_Get_StringDesc+0x14>
 8001ed2:	230b      	movs	r3, #11
 8001ed4:	762b      	strb	r3, [r5, #24]
 8001ed6:	e77c      	b.n	8001dd2 <USBH_Get_StringDesc+0x76>
 8001ed8:	4628      	mov	r0, r5
 8001eda:	7929      	ldrb	r1, [r5, #4]
 8001edc:	f005 f880 	bl	8006fe0 <USBH_LL_GetURBState>
 8001ee0:	2801      	cmp	r0, #1
 8001ee2:	d02e      	beq.n	8001f42 <USBH_Get_StringDesc+0x1e6>
 8001ee4:	2805      	cmp	r0, #5
 8001ee6:	d0b7      	beq.n	8001e58 <USBH_Get_StringDesc+0xfc>
 8001ee8:	e788      	b.n	8001dfc <USBH_Get_StringDesc+0xa0>
 8001eea:	7f69      	ldrb	r1, [r5, #29]
 8001eec:	2601      	movs	r6, #1
 8001eee:	2000      	movs	r0, #0
 8001ef0:	2903      	cmp	r1, #3
 8001ef2:	70ae      	strb	r6, [r5, #2]
 8001ef4:	7628      	strb	r0, [r5, #24]
 8001ef6:	f47f af3c 	bne.w	8001d72 <USBH_Get_StringDesc+0x16>
 8001efa:	7f29      	ldrb	r1, [r5, #28]
 8001efc:	3902      	subs	r1, #2
 8001efe:	428b      	cmp	r3, r1
 8001f00:	bfa8      	it	ge
 8001f02:	460b      	movge	r3, r1
 8001f04:	b29b      	uxth	r3, r3
 8001f06:	b13b      	cbz	r3, 8001f18 <USBH_Get_StringDesc+0x1bc>
 8001f08:	1821      	adds	r1, r4, r0
 8001f0a:	3002      	adds	r0, #2
 8001f0c:	b280      	uxth	r0, r0
 8001f0e:	7889      	ldrb	r1, [r1, #2]
 8001f10:	f802 1b01 	strb.w	r1, [r2], #1
 8001f14:	4283      	cmp	r3, r0
 8001f16:	d8f7      	bhi.n	8001f08 <USBH_Get_StringDesc+0x1ac>
 8001f18:	2000      	movs	r0, #0
 8001f1a:	7010      	strb	r0, [r2, #0]
 8001f1c:	b005      	add	sp, #20
 8001f1e:	bdf0      	pop	{r4, r5, r6, r7, pc}
 8001f20:	230c      	movs	r3, #12
 8001f22:	762b      	strb	r3, [r5, #24]
 8001f24:	2003      	movs	r0, #3
 8001f26:	e724      	b.n	8001d72 <USBH_Get_StringDesc+0x16>
 8001f28:	4628      	mov	r0, r5
 8001f2a:	f005 f809 	bl	8006f40 <USBH_LL_Stop>
 8001f2e:	2001      	movs	r0, #1
 8001f30:	7628      	strb	r0, [r5, #24]
 8001f32:	70a8      	strb	r0, [r5, #2]
 8001f34:	e71d      	b.n	8001d72 <USBH_Get_StringDesc+0x16>
 8001f36:	2b00      	cmp	r3, #0
 8001f38:	d1ab      	bne.n	8001e92 <USBH_Get_StringDesc+0x136>
 8001f3a:	2307      	movs	r3, #7
 8001f3c:	762b      	strb	r3, [r5, #24]
 8001f3e:	2001      	movs	r0, #1
 8001f40:	e717      	b.n	8001d72 <USBH_Get_StringDesc+0x16>
 8001f42:	2309      	movs	r3, #9
 8001f44:	762b      	strb	r3, [r5, #24]
 8001f46:	e713      	b.n	8001d70 <USBH_Get_StringDesc+0x14>
 8001f48:	7c2b      	ldrb	r3, [r5, #16]
 8001f4a:	8aea      	ldrh	r2, [r5, #22]
 8001f4c:	f023 037f 	bic.w	r3, r3, #127	; 0x7f
 8001f50:	b2db      	uxtb	r3, r3
 8001f52:	2a00      	cmp	r2, #0
 8001f54:	d0ef      	beq.n	8001f36 <USBH_Get_StringDesc+0x1da>
 8001f56:	b91b      	cbnz	r3, 8001f60 <USBH_Get_StringDesc+0x204>
 8001f58:	2305      	movs	r3, #5
 8001f5a:	762b      	strb	r3, [r5, #24]
 8001f5c:	2001      	movs	r0, #1
 8001f5e:	e708      	b.n	8001d72 <USBH_Get_StringDesc+0x16>
 8001f60:	2303      	movs	r3, #3
 8001f62:	762b      	strb	r3, [r5, #24]
 8001f64:	e705      	b.n	8001d72 <USBH_Get_StringDesc+0x16>
$t():
 8001f66:	bf00      	nop

08001f68 <USBH_SetAddress>:
USBH_SetAddress():
 8001f68:	b530      	push	{r4, r5, lr}
 8001f6a:	4604      	mov	r4, r0
 8001f6c:	7880      	ldrb	r0, [r0, #2]
 8001f6e:	2801      	cmp	r0, #1
 8001f70:	b083      	sub	sp, #12
 8001f72:	d010      	beq.n	8001f96 <USBH_SetAddress+0x2e>
 8001f74:	2802      	cmp	r0, #2
 8001f76:	d002      	beq.n	8001f7e <USBH_SetAddress+0x16>
 8001f78:	2001      	movs	r0, #1
 8001f7a:	b003      	add	sp, #12
 8001f7c:	bd30      	pop	{r4, r5, pc}
 8001f7e:	7e23      	ldrb	r3, [r4, #24]
 8001f80:	3b01      	subs	r3, #1
 8001f82:	2b0a      	cmp	r3, #10
 8001f84:	d8f8      	bhi.n	8001f78 <USBH_SetAddress+0x10>
 8001f86:	e8df f003 	tbb	[pc, r3]
 8001f8a:	3026      	.short	0x3026
 8001f8c:	8d7e9d3d 	.word	0x8d7e9d3d
 8001f90:	7263574a 	.word	0x7263574a
 8001f94:	14          	.byte	0x14
 8001f95:	00          	.byte	0x00
 8001f96:	2300      	movs	r3, #0
 8001f98:	2505      	movs	r5, #5
 8001f9a:	2202      	movs	r2, #2
 8001f9c:	8261      	strh	r1, [r4, #18]
 8001f9e:	7620      	strb	r0, [r4, #24]
 8001fa0:	7423      	strb	r3, [r4, #16]
 8001fa2:	82a3      	strh	r3, [r4, #20]
 8001fa4:	82e3      	strh	r3, [r4, #22]
 8001fa6:	60a3      	str	r3, [r4, #8]
 8001fa8:	81a3      	strh	r3, [r4, #12]
 8001faa:	7465      	strb	r5, [r4, #17]
 8001fac:	70a2      	strb	r2, [r4, #2]
 8001fae:	b003      	add	sp, #12
 8001fb0:	bd30      	pop	{r4, r5, pc}
 8001fb2:	7e63      	ldrb	r3, [r4, #25]
 8001fb4:	3301      	adds	r3, #1
 8001fb6:	b2db      	uxtb	r3, r3
 8001fb8:	2b02      	cmp	r3, #2
 8001fba:	7663      	strb	r3, [r4, #25]
 8001fbc:	f240 8094 	bls.w	80020e8 <USBH_SetAddress+0x180>
 8001fc0:	f8d4 3614 	ldr.w	r3, [r4, #1556]	; 0x614
 8001fc4:	4620      	mov	r0, r4
 8001fc6:	2106      	movs	r1, #6
 8001fc8:	4798      	blx	r3
 8001fca:	2300      	movs	r3, #0
 8001fcc:	7663      	strb	r3, [r4, #25]
 8001fce:	2301      	movs	r3, #1
 8001fd0:	70a3      	strb	r3, [r4, #2]
 8001fd2:	2002      	movs	r0, #2
 8001fd4:	e7d1      	b.n	8001f7a <USBH_SetAddress+0x12>
 8001fd6:	4620      	mov	r0, r4
 8001fd8:	f104 0110 	add.w	r1, r4, #16
 8001fdc:	7962      	ldrb	r2, [r4, #5]
 8001fde:	f000 fa61 	bl	80024a4 <USBH_CtlSendSetup>
 8001fe2:	2302      	movs	r3, #2
 8001fe4:	7623      	strb	r3, [r4, #24]
 8001fe6:	2001      	movs	r0, #1
 8001fe8:	e7c7      	b.n	8001f7a <USBH_SetAddress+0x12>
 8001fea:	4620      	mov	r0, r4
 8001fec:	7961      	ldrb	r1, [r4, #5]
 8001fee:	f004 fff7 	bl	8006fe0 <USBH_LL_GetURBState>
 8001ff2:	2801      	cmp	r0, #1
 8001ff4:	f000 8088 	beq.w	8002108 <USBH_SetAddress+0x1a0>
 8001ff8:	2804      	cmp	r0, #4
 8001ffa:	d1bd      	bne.n	8001f78 <USBH_SetAddress+0x10>
 8001ffc:	230b      	movs	r3, #11
 8001ffe:	7623      	strb	r3, [r4, #24]
 8002000:	2001      	movs	r0, #1
 8002002:	e7ba      	b.n	8001f7a <USBH_SetAddress+0x12>
 8002004:	f8d4 3608 	ldr.w	r3, [r4, #1544]	; 0x608
 8002008:	81e3      	strh	r3, [r4, #14]
 800200a:	4620      	mov	r0, r4
 800200c:	7923      	ldrb	r3, [r4, #4]
 800200e:	68a1      	ldr	r1, [r4, #8]
 8002010:	89a2      	ldrh	r2, [r4, #12]
 8002012:	f000 fa6d 	bl	80024f0 <USBH_CtlReceiveData>
 8002016:	2304      	movs	r3, #4
 8002018:	7623      	strb	r3, [r4, #24]
 800201a:	2001      	movs	r0, #1
 800201c:	e7ad      	b.n	8001f7a <USBH_SetAddress+0x12>
 800201e:	2100      	movs	r1, #0
 8002020:	7923      	ldrb	r3, [r4, #4]
 8002022:	460a      	mov	r2, r1
 8002024:	4620      	mov	r0, r4
 8002026:	f000 fa63 	bl	80024f0 <USBH_CtlReceiveData>
 800202a:	f8d4 3608 	ldr.w	r3, [r4, #1544]	; 0x608
 800202e:	81e3      	strh	r3, [r4, #14]
 8002030:	2308      	movs	r3, #8
 8002032:	7623      	strb	r3, [r4, #24]
 8002034:	2001      	movs	r0, #1
 8002036:	e7a0      	b.n	8001f7a <USBH_SetAddress+0x12>
 8002038:	4620      	mov	r0, r4
 800203a:	7921      	ldrb	r1, [r4, #4]
 800203c:	f004 ffd0 	bl	8006fe0 <USBH_LL_GetURBState>
 8002040:	2801      	cmp	r0, #1
 8002042:	d048      	beq.n	80020d6 <USBH_SetAddress+0x16e>
 8002044:	2804      	cmp	r0, #4
 8002046:	d0d9      	beq.n	8001ffc <USBH_SetAddress+0x94>
 8002048:	2805      	cmp	r0, #5
 800204a:	d195      	bne.n	8001f78 <USBH_SetAddress+0x10>
 800204c:	2003      	movs	r0, #3
 800204e:	e794      	b.n	8001f7a <USBH_SetAddress+0x12>
 8002050:	2501      	movs	r5, #1
 8002052:	2100      	movs	r1, #0
 8002054:	7963      	ldrb	r3, [r4, #5]
 8002056:	9500      	str	r5, [sp, #0]
 8002058:	460a      	mov	r2, r1
 800205a:	4620      	mov	r0, r4
 800205c:	f000 fa32 	bl	80024c4 <USBH_CtlSendData>
 8002060:	f8d4 3608 	ldr.w	r3, [r4, #1544]	; 0x608
 8002064:	81e3      	strh	r3, [r4, #14]
 8002066:	230a      	movs	r3, #10
 8002068:	4628      	mov	r0, r5
 800206a:	7623      	strb	r3, [r4, #24]
 800206c:	e785      	b.n	8001f7a <USBH_SetAddress+0x12>
 800206e:	4620      	mov	r0, r4
 8002070:	7961      	ldrb	r1, [r4, #5]
 8002072:	f004 ffb5 	bl	8006fe0 <USBH_LL_GetURBState>
 8002076:	2801      	cmp	r0, #1
 8002078:	d02d      	beq.n	80020d6 <USBH_SetAddress+0x16e>
 800207a:	2802      	cmp	r0, #2
 800207c:	d1bc      	bne.n	8001ff8 <USBH_SetAddress+0x90>
 800207e:	2309      	movs	r3, #9
 8002080:	7623      	strb	r3, [r4, #24]
 8002082:	2001      	movs	r0, #1
 8002084:	e779      	b.n	8001f7a <USBH_SetAddress+0x12>
 8002086:	2501      	movs	r5, #1
 8002088:	7963      	ldrb	r3, [r4, #5]
 800208a:	68a1      	ldr	r1, [r4, #8]
 800208c:	89a2      	ldrh	r2, [r4, #12]
 800208e:	9500      	str	r5, [sp, #0]
 8002090:	4620      	mov	r0, r4
 8002092:	f000 fa17 	bl	80024c4 <USBH_CtlSendData>
 8002096:	f8d4 3608 	ldr.w	r3, [r4, #1544]	; 0x608
 800209a:	81e3      	strh	r3, [r4, #14]
 800209c:	2306      	movs	r3, #6
 800209e:	4628      	mov	r0, r5
 80020a0:	7623      	strb	r3, [r4, #24]
 80020a2:	e76a      	b.n	8001f7a <USBH_SetAddress+0x12>
 80020a4:	4620      	mov	r0, r4
 80020a6:	7961      	ldrb	r1, [r4, #5]
 80020a8:	f004 ff9a 	bl	8006fe0 <USBH_LL_GetURBState>
 80020ac:	2801      	cmp	r0, #1
 80020ae:	d024      	beq.n	80020fa <USBH_SetAddress+0x192>
 80020b0:	2805      	cmp	r0, #5
 80020b2:	d015      	beq.n	80020e0 <USBH_SetAddress+0x178>
 80020b4:	2802      	cmp	r0, #2
 80020b6:	d02f      	beq.n	8002118 <USBH_SetAddress+0x1b0>
 80020b8:	2804      	cmp	r0, #4
 80020ba:	f47f af5d 	bne.w	8001f78 <USBH_SetAddress+0x10>
 80020be:	230b      	movs	r3, #11
 80020c0:	7623      	strb	r3, [r4, #24]
 80020c2:	e784      	b.n	8001fce <USBH_SetAddress+0x66>
 80020c4:	4620      	mov	r0, r4
 80020c6:	7921      	ldrb	r1, [r4, #4]
 80020c8:	f004 ff8a 	bl	8006fe0 <USBH_LL_GetURBState>
 80020cc:	2801      	cmp	r0, #1
 80020ce:	d018      	beq.n	8002102 <USBH_SetAddress+0x19a>
 80020d0:	2805      	cmp	r0, #5
 80020d2:	d0bb      	beq.n	800204c <USBH_SetAddress+0xe4>
 80020d4:	e790      	b.n	8001ff8 <USBH_SetAddress+0x90>
 80020d6:	2301      	movs	r3, #1
 80020d8:	2000      	movs	r0, #0
 80020da:	70a3      	strb	r3, [r4, #2]
 80020dc:	7620      	strb	r0, [r4, #24]
 80020de:	e74c      	b.n	8001f7a <USBH_SetAddress+0x12>
 80020e0:	230c      	movs	r3, #12
 80020e2:	7623      	strb	r3, [r4, #24]
 80020e4:	2003      	movs	r0, #3
 80020e6:	e748      	b.n	8001f7a <USBH_SetAddress+0x12>
 80020e8:	4620      	mov	r0, r4
 80020ea:	f004 ff29 	bl	8006f40 <USBH_LL_Stop>
 80020ee:	2001      	movs	r0, #1
 80020f0:	7620      	strb	r0, [r4, #24]
 80020f2:	70a0      	strb	r0, [r4, #2]
 80020f4:	e741      	b.n	8001f7a <USBH_SetAddress+0x12>
 80020f6:	2b00      	cmp	r3, #0
 80020f8:	d1c1      	bne.n	800207e <USBH_SetAddress+0x116>
 80020fa:	2307      	movs	r3, #7
 80020fc:	7623      	strb	r3, [r4, #24]
 80020fe:	2001      	movs	r0, #1
 8002100:	e73b      	b.n	8001f7a <USBH_SetAddress+0x12>
 8002102:	2309      	movs	r3, #9
 8002104:	7623      	strb	r3, [r4, #24]
 8002106:	e737      	b.n	8001f78 <USBH_SetAddress+0x10>
 8002108:	7c23      	ldrb	r3, [r4, #16]
 800210a:	8ae2      	ldrh	r2, [r4, #22]
 800210c:	f023 037f 	bic.w	r3, r3, #127	; 0x7f
 8002110:	b2db      	uxtb	r3, r3
 8002112:	2a00      	cmp	r2, #0
 8002114:	d0ef      	beq.n	80020f6 <USBH_SetAddress+0x18e>
 8002116:	b91b      	cbnz	r3, 8002120 <USBH_SetAddress+0x1b8>
 8002118:	2305      	movs	r3, #5
 800211a:	7623      	strb	r3, [r4, #24]
 800211c:	2001      	movs	r0, #1
 800211e:	e72c      	b.n	8001f7a <USBH_SetAddress+0x12>
 8002120:	2303      	movs	r3, #3
 8002122:	7623      	strb	r3, [r4, #24]
 8002124:	e729      	b.n	8001f7a <USBH_SetAddress+0x12>
$t():
 8002126:	bf00      	nop

08002128 <USBH_SetCfg>:
USBH_SetCfg():
 8002128:	b530      	push	{r4, r5, lr}
 800212a:	4604      	mov	r4, r0
 800212c:	7880      	ldrb	r0, [r0, #2]
 800212e:	2801      	cmp	r0, #1
 8002130:	b083      	sub	sp, #12
 8002132:	d010      	beq.n	8002156 <USBH_SetCfg+0x2e>
 8002134:	2802      	cmp	r0, #2
 8002136:	d002      	beq.n	800213e <USBH_SetCfg+0x16>
 8002138:	2001      	movs	r0, #1
 800213a:	b003      	add	sp, #12
 800213c:	bd30      	pop	{r4, r5, pc}
 800213e:	7e23      	ldrb	r3, [r4, #24]
 8002140:	3b01      	subs	r3, #1
 8002142:	2b0a      	cmp	r3, #10
 8002144:	d8f8      	bhi.n	8002138 <USBH_SetCfg+0x10>
 8002146:	e8df f003 	tbb	[pc, r3]
 800214a:	3026      	.short	0x3026
 800214c:	8d7e9d3d 	.word	0x8d7e9d3d
 8002150:	7263574a 	.word	0x7263574a
 8002154:	14          	.byte	0x14
 8002155:	00          	.byte	0x00
 8002156:	2300      	movs	r3, #0
 8002158:	2509      	movs	r5, #9
 800215a:	2202      	movs	r2, #2
 800215c:	8261      	strh	r1, [r4, #18]
 800215e:	7620      	strb	r0, [r4, #24]
 8002160:	7423      	strb	r3, [r4, #16]
 8002162:	82a3      	strh	r3, [r4, #20]
 8002164:	82e3      	strh	r3, [r4, #22]
 8002166:	60a3      	str	r3, [r4, #8]
 8002168:	81a3      	strh	r3, [r4, #12]
 800216a:	7465      	strb	r5, [r4, #17]
 800216c:	70a2      	strb	r2, [r4, #2]
 800216e:	b003      	add	sp, #12
 8002170:	bd30      	pop	{r4, r5, pc}
 8002172:	7e63      	ldrb	r3, [r4, #25]
 8002174:	3301      	adds	r3, #1
 8002176:	b2db      	uxtb	r3, r3
 8002178:	2b02      	cmp	r3, #2
 800217a:	7663      	strb	r3, [r4, #25]
 800217c:	f240 8094 	bls.w	80022a8 <USBH_SetCfg+0x180>
 8002180:	f8d4 3614 	ldr.w	r3, [r4, #1556]	; 0x614
 8002184:	4620      	mov	r0, r4
 8002186:	2106      	movs	r1, #6
 8002188:	4798      	blx	r3
 800218a:	2300      	movs	r3, #0
 800218c:	7663      	strb	r3, [r4, #25]
 800218e:	2301      	movs	r3, #1
 8002190:	70a3      	strb	r3, [r4, #2]
 8002192:	2002      	movs	r0, #2
 8002194:	e7d1      	b.n	800213a <USBH_SetCfg+0x12>
 8002196:	4620      	mov	r0, r4
 8002198:	f104 0110 	add.w	r1, r4, #16
 800219c:	7962      	ldrb	r2, [r4, #5]
 800219e:	f000 f981 	bl	80024a4 <USBH_CtlSendSetup>
 80021a2:	2302      	movs	r3, #2
 80021a4:	7623      	strb	r3, [r4, #24]
 80021a6:	2001      	movs	r0, #1
 80021a8:	e7c7      	b.n	800213a <USBH_SetCfg+0x12>
 80021aa:	4620      	mov	r0, r4
 80021ac:	7961      	ldrb	r1, [r4, #5]
 80021ae:	f004 ff17 	bl	8006fe0 <USBH_LL_GetURBState>
 80021b2:	2801      	cmp	r0, #1
 80021b4:	f000 8088 	beq.w	80022c8 <USBH_SetCfg+0x1a0>
 80021b8:	2804      	cmp	r0, #4
 80021ba:	d1bd      	bne.n	8002138 <USBH_SetCfg+0x10>
 80021bc:	230b      	movs	r3, #11
 80021be:	7623      	strb	r3, [r4, #24]
 80021c0:	2001      	movs	r0, #1
 80021c2:	e7ba      	b.n	800213a <USBH_SetCfg+0x12>
 80021c4:	f8d4 3608 	ldr.w	r3, [r4, #1544]	; 0x608
 80021c8:	81e3      	strh	r3, [r4, #14]
 80021ca:	4620      	mov	r0, r4
 80021cc:	7923      	ldrb	r3, [r4, #4]
 80021ce:	68a1      	ldr	r1, [r4, #8]
 80021d0:	89a2      	ldrh	r2, [r4, #12]
 80021d2:	f000 f98d 	bl	80024f0 <USBH_CtlReceiveData>
 80021d6:	2304      	movs	r3, #4
 80021d8:	7623      	strb	r3, [r4, #24]
 80021da:	2001      	movs	r0, #1
 80021dc:	e7ad      	b.n	800213a <USBH_SetCfg+0x12>
 80021de:	2100      	movs	r1, #0
 80021e0:	7923      	ldrb	r3, [r4, #4]
 80021e2:	460a      	mov	r2, r1
 80021e4:	4620      	mov	r0, r4
 80021e6:	f000 f983 	bl	80024f0 <USBH_CtlReceiveData>
 80021ea:	f8d4 3608 	ldr.w	r3, [r4, #1544]	; 0x608
 80021ee:	81e3      	strh	r3, [r4, #14]
 80021f0:	2308      	movs	r3, #8
 80021f2:	7623      	strb	r3, [r4, #24]
 80021f4:	2001      	movs	r0, #1
 80021f6:	e7a0      	b.n	800213a <USBH_SetCfg+0x12>
 80021f8:	4620      	mov	r0, r4
 80021fa:	7921      	ldrb	r1, [r4, #4]
 80021fc:	f004 fef0 	bl	8006fe0 <USBH_LL_GetURBState>
 8002200:	2801      	cmp	r0, #1
 8002202:	d048      	beq.n	8002296 <USBH_SetCfg+0x16e>
 8002204:	2804      	cmp	r0, #4
 8002206:	d0d9      	beq.n	80021bc <USBH_SetCfg+0x94>
 8002208:	2805      	cmp	r0, #5
 800220a:	d195      	bne.n	8002138 <USBH_SetCfg+0x10>
 800220c:	2003      	movs	r0, #3
 800220e:	e794      	b.n	800213a <USBH_SetCfg+0x12>
 8002210:	2501      	movs	r5, #1
 8002212:	2100      	movs	r1, #0
 8002214:	7963      	ldrb	r3, [r4, #5]
 8002216:	9500      	str	r5, [sp, #0]
 8002218:	460a      	mov	r2, r1
 800221a:	4620      	mov	r0, r4
 800221c:	f000 f952 	bl	80024c4 <USBH_CtlSendData>
 8002220:	f8d4 3608 	ldr.w	r3, [r4, #1544]	; 0x608
 8002224:	81e3      	strh	r3, [r4, #14]
 8002226:	230a      	movs	r3, #10
 8002228:	4628      	mov	r0, r5
 800222a:	7623      	strb	r3, [r4, #24]
 800222c:	e785      	b.n	800213a <USBH_SetCfg+0x12>
 800222e:	4620      	mov	r0, r4
 8002230:	7961      	ldrb	r1, [r4, #5]
 8002232:	f004 fed5 	bl	8006fe0 <USBH_LL_GetURBState>
 8002236:	2801      	cmp	r0, #1
 8002238:	d02d      	beq.n	8002296 <USBH_SetCfg+0x16e>
 800223a:	2802      	cmp	r0, #2
 800223c:	d1bc      	bne.n	80021b8 <USBH_SetCfg+0x90>
 800223e:	2309      	movs	r3, #9
 8002240:	7623      	strb	r3, [r4, #24]
 8002242:	2001      	movs	r0, #1
 8002244:	e779      	b.n	800213a <USBH_SetCfg+0x12>
 8002246:	2501      	movs	r5, #1
 8002248:	7963      	ldrb	r3, [r4, #5]
 800224a:	68a1      	ldr	r1, [r4, #8]
 800224c:	89a2      	ldrh	r2, [r4, #12]
 800224e:	9500      	str	r5, [sp, #0]
 8002250:	4620      	mov	r0, r4
 8002252:	f000 f937 	bl	80024c4 <USBH_CtlSendData>
 8002256:	f8d4 3608 	ldr.w	r3, [r4, #1544]	; 0x608
 800225a:	81e3      	strh	r3, [r4, #14]
 800225c:	2306      	movs	r3, #6
 800225e:	4628      	mov	r0, r5
 8002260:	7623      	strb	r3, [r4, #24]
 8002262:	e76a      	b.n	800213a <USBH_SetCfg+0x12>
 8002264:	4620      	mov	r0, r4
 8002266:	7961      	ldrb	r1, [r4, #5]
 8002268:	f004 feba 	bl	8006fe0 <USBH_LL_GetURBState>
 800226c:	2801      	cmp	r0, #1
 800226e:	d024      	beq.n	80022ba <USBH_SetCfg+0x192>
 8002270:	2805      	cmp	r0, #5
 8002272:	d015      	beq.n	80022a0 <USBH_SetCfg+0x178>
 8002274:	2802      	cmp	r0, #2
 8002276:	d02f      	beq.n	80022d8 <USBH_SetCfg+0x1b0>
 8002278:	2804      	cmp	r0, #4
 800227a:	f47f af5d 	bne.w	8002138 <USBH_SetCfg+0x10>
 800227e:	230b      	movs	r3, #11
 8002280:	7623      	strb	r3, [r4, #24]
 8002282:	e784      	b.n	800218e <USBH_SetCfg+0x66>
 8002284:	4620      	mov	r0, r4
 8002286:	7921      	ldrb	r1, [r4, #4]
 8002288:	f004 feaa 	bl	8006fe0 <USBH_LL_GetURBState>
 800228c:	2801      	cmp	r0, #1
 800228e:	d018      	beq.n	80022c2 <USBH_SetCfg+0x19a>
 8002290:	2805      	cmp	r0, #5
 8002292:	d0bb      	beq.n	800220c <USBH_SetCfg+0xe4>
 8002294:	e790      	b.n	80021b8 <USBH_SetCfg+0x90>
 8002296:	2301      	movs	r3, #1
 8002298:	2000      	movs	r0, #0
 800229a:	70a3      	strb	r3, [r4, #2]
 800229c:	7620      	strb	r0, [r4, #24]
 800229e:	e74c      	b.n	800213a <USBH_SetCfg+0x12>
 80022a0:	230c      	movs	r3, #12
 80022a2:	7623      	strb	r3, [r4, #24]
 80022a4:	2003      	movs	r0, #3
 80022a6:	e748      	b.n	800213a <USBH_SetCfg+0x12>
 80022a8:	4620      	mov	r0, r4
 80022aa:	f004 fe49 	bl	8006f40 <USBH_LL_Stop>
 80022ae:	2001      	movs	r0, #1
 80022b0:	7620      	strb	r0, [r4, #24]
 80022b2:	70a0      	strb	r0, [r4, #2]
 80022b4:	e741      	b.n	800213a <USBH_SetCfg+0x12>
 80022b6:	2b00      	cmp	r3, #0
 80022b8:	d1c1      	bne.n	800223e <USBH_SetCfg+0x116>
 80022ba:	2307      	movs	r3, #7
 80022bc:	7623      	strb	r3, [r4, #24]
 80022be:	2001      	movs	r0, #1
 80022c0:	e73b      	b.n	800213a <USBH_SetCfg+0x12>
 80022c2:	2309      	movs	r3, #9
 80022c4:	7623      	strb	r3, [r4, #24]
 80022c6:	e737      	b.n	8002138 <USBH_SetCfg+0x10>
 80022c8:	7c23      	ldrb	r3, [r4, #16]
 80022ca:	8ae2      	ldrh	r2, [r4, #22]
 80022cc:	f023 037f 	bic.w	r3, r3, #127	; 0x7f
 80022d0:	b2db      	uxtb	r3, r3
 80022d2:	2a00      	cmp	r2, #0
 80022d4:	d0ef      	beq.n	80022b6 <USBH_SetCfg+0x18e>
 80022d6:	b91b      	cbnz	r3, 80022e0 <USBH_SetCfg+0x1b8>
 80022d8:	2305      	movs	r3, #5
 80022da:	7623      	strb	r3, [r4, #24]
 80022dc:	2001      	movs	r0, #1
 80022de:	e72c      	b.n	800213a <USBH_SetCfg+0x12>
 80022e0:	2303      	movs	r3, #3
 80022e2:	7623      	strb	r3, [r4, #24]
 80022e4:	e729      	b.n	800213a <USBH_SetCfg+0x12>
$t():
 80022e6:	bf00      	nop

080022e8 <USBH_ClrFeature>:
USBH_ClrFeature():
 80022e8:	b530      	push	{r4, r5, lr}
 80022ea:	4604      	mov	r4, r0
 80022ec:	7880      	ldrb	r0, [r0, #2]
 80022ee:	2801      	cmp	r0, #1
 80022f0:	b083      	sub	sp, #12
 80022f2:	d010      	beq.n	8002316 <USBH_ClrFeature+0x2e>
 80022f4:	2802      	cmp	r0, #2
 80022f6:	d002      	beq.n	80022fe <USBH_ClrFeature+0x16>
 80022f8:	2001      	movs	r0, #1
 80022fa:	b003      	add	sp, #12
 80022fc:	bd30      	pop	{r4, r5, pc}
 80022fe:	7e23      	ldrb	r3, [r4, #24]
 8002300:	3b01      	subs	r3, #1
 8002302:	2b0a      	cmp	r3, #10
 8002304:	d8f8      	bhi.n	80022f8 <USBH_ClrFeature+0x10>
 8002306:	e8df f003 	tbb	[pc, r3]
 800230a:	2f25      	.short	0x2f25
 800230c:	8c7d9c3c 	.word	0x8c7d9c3c
 8002310:	71625649 	.word	0x71625649
 8002314:	13          	.byte	0x13
 8002315:	00          	.byte	0x00
 8002316:	2300      	movs	r3, #0
 8002318:	2202      	movs	r2, #2
 800231a:	7460      	strb	r0, [r4, #17]
 800231c:	82a1      	strh	r1, [r4, #20]
 800231e:	7620      	strb	r0, [r4, #24]
 8002320:	7422      	strb	r2, [r4, #16]
 8002322:	70a2      	strb	r2, [r4, #2]
 8002324:	8263      	strh	r3, [r4, #18]
 8002326:	82e3      	strh	r3, [r4, #22]
 8002328:	60a3      	str	r3, [r4, #8]
 800232a:	81a3      	strh	r3, [r4, #12]
 800232c:	b003      	add	sp, #12
 800232e:	bd30      	pop	{r4, r5, pc}
 8002330:	7e63      	ldrb	r3, [r4, #25]
 8002332:	3301      	adds	r3, #1
 8002334:	b2db      	uxtb	r3, r3
 8002336:	2b02      	cmp	r3, #2
 8002338:	7663      	strb	r3, [r4, #25]
 800233a:	f240 8094 	bls.w	8002466 <USBH_ClrFeature+0x17e>
 800233e:	f8d4 3614 	ldr.w	r3, [r4, #1556]	; 0x614
 8002342:	4620      	mov	r0, r4
 8002344:	2106      	movs	r1, #6
 8002346:	4798      	blx	r3
 8002348:	2300      	movs	r3, #0
 800234a:	7663      	strb	r3, [r4, #25]
 800234c:	2301      	movs	r3, #1
 800234e:	70a3      	strb	r3, [r4, #2]
 8002350:	2002      	movs	r0, #2
 8002352:	e7d2      	b.n	80022fa <USBH_ClrFeature+0x12>
 8002354:	4620      	mov	r0, r4
 8002356:	f104 0110 	add.w	r1, r4, #16
 800235a:	7962      	ldrb	r2, [r4, #5]
 800235c:	f000 f8a2 	bl	80024a4 <USBH_CtlSendSetup>
 8002360:	2302      	movs	r3, #2
 8002362:	7623      	strb	r3, [r4, #24]
 8002364:	2001      	movs	r0, #1
 8002366:	e7c8      	b.n	80022fa <USBH_ClrFeature+0x12>
 8002368:	4620      	mov	r0, r4
 800236a:	7961      	ldrb	r1, [r4, #5]
 800236c:	f004 fe38 	bl	8006fe0 <USBH_LL_GetURBState>
 8002370:	2801      	cmp	r0, #1
 8002372:	f000 8088 	beq.w	8002486 <USBH_ClrFeature+0x19e>
 8002376:	2804      	cmp	r0, #4
 8002378:	d1be      	bne.n	80022f8 <USBH_ClrFeature+0x10>
 800237a:	230b      	movs	r3, #11
 800237c:	7623      	strb	r3, [r4, #24]
 800237e:	2001      	movs	r0, #1
 8002380:	e7bb      	b.n	80022fa <USBH_ClrFeature+0x12>
 8002382:	f8d4 3608 	ldr.w	r3, [r4, #1544]	; 0x608
 8002386:	81e3      	strh	r3, [r4, #14]
 8002388:	4620      	mov	r0, r4
 800238a:	7923      	ldrb	r3, [r4, #4]
 800238c:	68a1      	ldr	r1, [r4, #8]
 800238e:	89a2      	ldrh	r2, [r4, #12]
 8002390:	f000 f8ae 	bl	80024f0 <USBH_CtlReceiveData>
 8002394:	2304      	movs	r3, #4
 8002396:	7623      	strb	r3, [r4, #24]
 8002398:	2001      	movs	r0, #1
 800239a:	e7ae      	b.n	80022fa <USBH_ClrFeature+0x12>
 800239c:	2100      	movs	r1, #0
 800239e:	7923      	ldrb	r3, [r4, #4]
 80023a0:	460a      	mov	r2, r1
 80023a2:	4620      	mov	r0, r4
 80023a4:	f000 f8a4 	bl	80024f0 <USBH_CtlReceiveData>
 80023a8:	f8d4 3608 	ldr.w	r3, [r4, #1544]	; 0x608
 80023ac:	81e3      	strh	r3, [r4, #14]
 80023ae:	2308      	movs	r3, #8
 80023b0:	7623      	strb	r3, [r4, #24]
 80023b2:	2001      	movs	r0, #1
 80023b4:	e7a1      	b.n	80022fa <USBH_ClrFeature+0x12>
 80023b6:	4620      	mov	r0, r4
 80023b8:	7921      	ldrb	r1, [r4, #4]
 80023ba:	f004 fe11 	bl	8006fe0 <USBH_LL_GetURBState>
 80023be:	2801      	cmp	r0, #1
 80023c0:	d048      	beq.n	8002454 <USBH_ClrFeature+0x16c>
 80023c2:	2804      	cmp	r0, #4
 80023c4:	d0d9      	beq.n	800237a <USBH_ClrFeature+0x92>
 80023c6:	2805      	cmp	r0, #5
 80023c8:	d196      	bne.n	80022f8 <USBH_ClrFeature+0x10>
 80023ca:	2003      	movs	r0, #3
 80023cc:	e795      	b.n	80022fa <USBH_ClrFeature+0x12>
 80023ce:	2501      	movs	r5, #1
 80023d0:	2100      	movs	r1, #0
 80023d2:	7963      	ldrb	r3, [r4, #5]
 80023d4:	9500      	str	r5, [sp, #0]
 80023d6:	460a      	mov	r2, r1
 80023d8:	4620      	mov	r0, r4
 80023da:	f000 f873 	bl	80024c4 <USBH_CtlSendData>
 80023de:	f8d4 3608 	ldr.w	r3, [r4, #1544]	; 0x608
 80023e2:	81e3      	strh	r3, [r4, #14]
 80023e4:	230a      	movs	r3, #10
 80023e6:	4628      	mov	r0, r5
 80023e8:	7623      	strb	r3, [r4, #24]
 80023ea:	e786      	b.n	80022fa <USBH_ClrFeature+0x12>
 80023ec:	4620      	mov	r0, r4
 80023ee:	7961      	ldrb	r1, [r4, #5]
 80023f0:	f004 fdf6 	bl	8006fe0 <USBH_LL_GetURBState>
 80023f4:	2801      	cmp	r0, #1
 80023f6:	d02d      	beq.n	8002454 <USBH_ClrFeature+0x16c>
 80023f8:	2802      	cmp	r0, #2
 80023fa:	d1bc      	bne.n	8002376 <USBH_ClrFeature+0x8e>
 80023fc:	2309      	movs	r3, #9
 80023fe:	7623      	strb	r3, [r4, #24]
 8002400:	2001      	movs	r0, #1
 8002402:	e77a      	b.n	80022fa <USBH_ClrFeature+0x12>
 8002404:	2501      	movs	r5, #1
 8002406:	7963      	ldrb	r3, [r4, #5]
 8002408:	68a1      	ldr	r1, [r4, #8]
 800240a:	89a2      	ldrh	r2, [r4, #12]
 800240c:	9500      	str	r5, [sp, #0]
 800240e:	4620      	mov	r0, r4
 8002410:	f000 f858 	bl	80024c4 <USBH_CtlSendData>
 8002414:	f8d4 3608 	ldr.w	r3, [r4, #1544]	; 0x608
 8002418:	81e3      	strh	r3, [r4, #14]
 800241a:	2306      	movs	r3, #6
 800241c:	4628      	mov	r0, r5
 800241e:	7623      	strb	r3, [r4, #24]
 8002420:	e76b      	b.n	80022fa <USBH_ClrFeature+0x12>
 8002422:	4620      	mov	r0, r4
 8002424:	7961      	ldrb	r1, [r4, #5]
 8002426:	f004 fddb 	bl	8006fe0 <USBH_LL_GetURBState>
 800242a:	2801      	cmp	r0, #1
 800242c:	d024      	beq.n	8002478 <USBH_ClrFeature+0x190>
 800242e:	2805      	cmp	r0, #5
 8002430:	d015      	beq.n	800245e <USBH_ClrFeature+0x176>
 8002432:	2802      	cmp	r0, #2
 8002434:	d02f      	beq.n	8002496 <USBH_ClrFeature+0x1ae>
 8002436:	2804      	cmp	r0, #4
 8002438:	f47f af5e 	bne.w	80022f8 <USBH_ClrFeature+0x10>
 800243c:	230b      	movs	r3, #11
 800243e:	7623      	strb	r3, [r4, #24]
 8002440:	e784      	b.n	800234c <USBH_ClrFeature+0x64>
 8002442:	4620      	mov	r0, r4
 8002444:	7921      	ldrb	r1, [r4, #4]
 8002446:	f004 fdcb 	bl	8006fe0 <USBH_LL_GetURBState>
 800244a:	2801      	cmp	r0, #1
 800244c:	d018      	beq.n	8002480 <USBH_ClrFeature+0x198>
 800244e:	2805      	cmp	r0, #5
 8002450:	d0bb      	beq.n	80023ca <USBH_ClrFeature+0xe2>
 8002452:	e790      	b.n	8002376 <USBH_ClrFeature+0x8e>
 8002454:	2301      	movs	r3, #1
 8002456:	2000      	movs	r0, #0
 8002458:	70a3      	strb	r3, [r4, #2]
 800245a:	7620      	strb	r0, [r4, #24]
 800245c:	e74d      	b.n	80022fa <USBH_ClrFeature+0x12>
 800245e:	230c      	movs	r3, #12
 8002460:	7623      	strb	r3, [r4, #24]
 8002462:	2003      	movs	r0, #3
 8002464:	e749      	b.n	80022fa <USBH_ClrFeature+0x12>
 8002466:	4620      	mov	r0, r4
 8002468:	f004 fd6a 	bl	8006f40 <USBH_LL_Stop>
 800246c:	2001      	movs	r0, #1
 800246e:	7620      	strb	r0, [r4, #24]
 8002470:	70a0      	strb	r0, [r4, #2]
 8002472:	e742      	b.n	80022fa <USBH_ClrFeature+0x12>
 8002474:	2b00      	cmp	r3, #0
 8002476:	d1c1      	bne.n	80023fc <USBH_ClrFeature+0x114>
 8002478:	2307      	movs	r3, #7
 800247a:	7623      	strb	r3, [r4, #24]
 800247c:	2001      	movs	r0, #1
 800247e:	e73c      	b.n	80022fa <USBH_ClrFeature+0x12>
 8002480:	2309      	movs	r3, #9
 8002482:	7623      	strb	r3, [r4, #24]
 8002484:	e738      	b.n	80022f8 <USBH_ClrFeature+0x10>
 8002486:	7c23      	ldrb	r3, [r4, #16]
 8002488:	8ae2      	ldrh	r2, [r4, #22]
 800248a:	f023 037f 	bic.w	r3, r3, #127	; 0x7f
 800248e:	b2db      	uxtb	r3, r3
 8002490:	2a00      	cmp	r2, #0
 8002492:	d0ef      	beq.n	8002474 <USBH_ClrFeature+0x18c>
 8002494:	b91b      	cbnz	r3, 800249e <USBH_ClrFeature+0x1b6>
 8002496:	2305      	movs	r3, #5
 8002498:	7623      	strb	r3, [r4, #24]
 800249a:	2001      	movs	r0, #1
 800249c:	e72d      	b.n	80022fa <USBH_ClrFeature+0x12>
 800249e:	2303      	movs	r3, #3
 80024a0:	7623      	strb	r3, [r4, #24]
 80024a2:	e72a      	b.n	80022fa <USBH_ClrFeature+0x12>

080024a4 <USBH_CtlSendSetup>:
USBH_CtlSendSetup():
 80024a4:	b530      	push	{r4, r5, lr}
 80024a6:	b085      	sub	sp, #20
 80024a8:	2400      	movs	r4, #0
 80024aa:	2508      	movs	r5, #8
 80024ac:	9101      	str	r1, [sp, #4]
 80024ae:	9400      	str	r4, [sp, #0]
 80024b0:	4611      	mov	r1, r2
 80024b2:	9403      	str	r4, [sp, #12]
 80024b4:	4622      	mov	r2, r4
 80024b6:	4623      	mov	r3, r4
 80024b8:	9502      	str	r5, [sp, #8]
 80024ba:	f004 fd7d 	bl	8006fb8 <USBH_LL_SubmitURB>
 80024be:	4620      	mov	r0, r4
 80024c0:	b005      	add	sp, #20
 80024c2:	bd30      	pop	{r4, r5, pc}

080024c4 <USBH_CtlSendData>:
USBH_CtlSendData():
 80024c4:	b530      	push	{r4, r5, lr}
 80024c6:	f890 521d 	ldrb.w	r5, [r0, #541]	; 0x21d
 80024ca:	b085      	sub	sp, #20
 80024cc:	2d00      	cmp	r5, #0
 80024ce:	f89d 4020 	ldrb.w	r4, [sp, #32]
 80024d2:	9202      	str	r2, [sp, #8]
 80024d4:	bf18      	it	ne
 80024d6:	2400      	movne	r4, #0
 80024d8:	2200      	movs	r2, #0
 80024da:	2501      	movs	r5, #1
 80024dc:	9101      	str	r1, [sp, #4]
 80024de:	9403      	str	r4, [sp, #12]
 80024e0:	4619      	mov	r1, r3
 80024e2:	9500      	str	r5, [sp, #0]
 80024e4:	4613      	mov	r3, r2
 80024e6:	f004 fd67 	bl	8006fb8 <USBH_LL_SubmitURB>
 80024ea:	2000      	movs	r0, #0
 80024ec:	b005      	add	sp, #20
 80024ee:	bd30      	pop	{r4, r5, pc}

080024f0 <USBH_CtlReceiveData>:
USBH_CtlReceiveData():
 80024f0:	b530      	push	{r4, r5, lr}
 80024f2:	b085      	sub	sp, #20
 80024f4:	2400      	movs	r4, #0
 80024f6:	2501      	movs	r5, #1
 80024f8:	9101      	str	r1, [sp, #4]
 80024fa:	9202      	str	r2, [sp, #8]
 80024fc:	4619      	mov	r1, r3
 80024fe:	9500      	str	r5, [sp, #0]
 8002500:	462a      	mov	r2, r5
 8002502:	9403      	str	r4, [sp, #12]
 8002504:	4623      	mov	r3, r4
 8002506:	f004 fd57 	bl	8006fb8 <USBH_LL_SubmitURB>
 800250a:	4620      	mov	r0, r4
 800250c:	b005      	add	sp, #20
 800250e:	bd30      	pop	{r4, r5, pc}

08002510 <USBH_BulkSendData>:
USBH_BulkSendData():
 8002510:	b530      	push	{r4, r5, lr}
 8002512:	f890 521d 	ldrb.w	r5, [r0, #541]	; 0x21d
 8002516:	b085      	sub	sp, #20
 8002518:	2d00      	cmp	r5, #0
 800251a:	f89d 4020 	ldrb.w	r4, [sp, #32]
 800251e:	9101      	str	r1, [sp, #4]
 8002520:	bf18      	it	ne
 8002522:	2400      	movne	r4, #0
 8002524:	2501      	movs	r5, #1
 8002526:	9202      	str	r2, [sp, #8]
 8002528:	4619      	mov	r1, r3
 800252a:	9403      	str	r4, [sp, #12]
 800252c:	9500      	str	r5, [sp, #0]
 800252e:	2200      	movs	r2, #0
 8002530:	2302      	movs	r3, #2
 8002532:	f004 fd41 	bl	8006fb8 <USBH_LL_SubmitURB>
 8002536:	2000      	movs	r0, #0
 8002538:	b005      	add	sp, #20
 800253a:	bd30      	pop	{r4, r5, pc}

0800253c <USBH_BulkReceiveData>:
USBH_BulkReceiveData():
 800253c:	b530      	push	{r4, r5, lr}
 800253e:	b085      	sub	sp, #20
 8002540:	2501      	movs	r5, #1
 8002542:	2400      	movs	r4, #0
 8002544:	9101      	str	r1, [sp, #4]
 8002546:	9202      	str	r2, [sp, #8]
 8002548:	4619      	mov	r1, r3
 800254a:	9500      	str	r5, [sp, #0]
 800254c:	462a      	mov	r2, r5
 800254e:	9403      	str	r4, [sp, #12]
 8002550:	2302      	movs	r3, #2
 8002552:	f004 fd31 	bl	8006fb8 <USBH_LL_SubmitURB>
 8002556:	4620      	mov	r0, r4
 8002558:	b005      	add	sp, #20
 800255a:	bd30      	pop	{r4, r5, pc}

0800255c <USBH_OpenPipe>:
USBH_OpenPipe():
 800255c:	b570      	push	{r4, r5, r6, lr}
 800255e:	b084      	sub	sp, #16
 8002560:	f89d 6020 	ldrb.w	r6, [sp, #32]
 8002564:	f89d 5024 	ldrb.w	r5, [sp, #36]	; 0x24
 8002568:	f8bd 4028 	ldrh.w	r4, [sp, #40]	; 0x28
 800256c:	9600      	str	r6, [sp, #0]
 800256e:	9501      	str	r5, [sp, #4]
 8002570:	9402      	str	r4, [sp, #8]
 8002572:	f004 fd07 	bl	8006f84 <USBH_LL_OpenPipe>
 8002576:	2000      	movs	r0, #0
 8002578:	b004      	add	sp, #16
 800257a:	bd70      	pop	{r4, r5, r6, pc}

0800257c <USBH_ClosePipe>:
USBH_ClosePipe():
 800257c:	b508      	push	{r3, lr}
 800257e:	f004 fd13 	bl	8006fa8 <USBH_LL_ClosePipe>
 8002582:	2000      	movs	r0, #0
 8002584:	bd08      	pop	{r3, pc}
 8002586:	bf00      	nop

08002588 <USBH_AllocPipe>:
USBH_AllocPipe():
 8002588:	f8d0 35cc 	ldr.w	r3, [r0, #1484]	; 0x5cc
 800258c:	f413 4300 	ands.w	r3, r3, #32768	; 0x8000
 8002590:	d029      	beq.n	80025e6 <USBH_AllocPipe+0x5e>
 8002592:	f8d0 35d0 	ldr.w	r3, [r0, #1488]	; 0x5d0
 8002596:	041a      	lsls	r2, r3, #16
 8002598:	d52e      	bpl.n	80025f8 <USBH_AllocPipe+0x70>
 800259a:	f8d0 35d4 	ldr.w	r3, [r0, #1492]	; 0x5d4
 800259e:	041b      	lsls	r3, r3, #16
 80025a0:	d52d      	bpl.n	80025fe <USBH_AllocPipe+0x76>
 80025a2:	f8d0 35d8 	ldr.w	r3, [r0, #1496]	; 0x5d8
 80025a6:	041a      	lsls	r2, r3, #16
 80025a8:	d52c      	bpl.n	8002604 <USBH_AllocPipe+0x7c>
 80025aa:	f8d0 35dc 	ldr.w	r3, [r0, #1500]	; 0x5dc
 80025ae:	041b      	lsls	r3, r3, #16
 80025b0:	d52b      	bpl.n	800260a <USBH_AllocPipe+0x82>
 80025b2:	f8d0 35e0 	ldr.w	r3, [r0, #1504]	; 0x5e0
 80025b6:	041a      	lsls	r2, r3, #16
 80025b8:	d52a      	bpl.n	8002610 <USBH_AllocPipe+0x88>
 80025ba:	f8d0 35e4 	ldr.w	r3, [r0, #1508]	; 0x5e4
 80025be:	041b      	lsls	r3, r3, #16
 80025c0:	d529      	bpl.n	8002616 <USBH_AllocPipe+0x8e>
 80025c2:	f8d0 35e8 	ldr.w	r3, [r0, #1512]	; 0x5e8
 80025c6:	041a      	lsls	r2, r3, #16
 80025c8:	d528      	bpl.n	800261c <USBH_AllocPipe+0x94>
 80025ca:	f8d0 35ec 	ldr.w	r3, [r0, #1516]	; 0x5ec
 80025ce:	041b      	lsls	r3, r3, #16
 80025d0:	d527      	bpl.n	8002622 <USBH_AllocPipe+0x9a>
 80025d2:	f8d0 35f0 	ldr.w	r3, [r0, #1520]	; 0x5f0
 80025d6:	041a      	lsls	r2, r3, #16
 80025d8:	d526      	bpl.n	8002628 <USBH_AllocPipe+0xa0>
 80025da:	f8d0 35f4 	ldr.w	r3, [r0, #1524]	; 0x5f4
 80025de:	041b      	lsls	r3, r3, #16
 80025e0:	d525      	bpl.n	800262e <USBH_AllocPipe+0xa6>
 80025e2:	20ff      	movs	r0, #255	; 0xff
 80025e4:	4770      	bx	lr
 80025e6:	461a      	mov	r2, r3
 80025e8:	eb00 0383 	add.w	r3, r0, r3, lsl #2
 80025ec:	f441 4100 	orr.w	r1, r1, #32768	; 0x8000
 80025f0:	f8c3 15cc 	str.w	r1, [r3, #1484]	; 0x5cc
 80025f4:	4610      	mov	r0, r2
 80025f6:	4770      	bx	lr
 80025f8:	2201      	movs	r2, #1
 80025fa:	4613      	mov	r3, r2
 80025fc:	e7f4      	b.n	80025e8 <USBH_AllocPipe+0x60>
 80025fe:	2202      	movs	r2, #2
 8002600:	4613      	mov	r3, r2
 8002602:	e7f1      	b.n	80025e8 <USBH_AllocPipe+0x60>
 8002604:	2203      	movs	r2, #3
 8002606:	4613      	mov	r3, r2
 8002608:	e7ee      	b.n	80025e8 <USBH_AllocPipe+0x60>
 800260a:	2204      	movs	r2, #4
 800260c:	4613      	mov	r3, r2
 800260e:	e7eb      	b.n	80025e8 <USBH_AllocPipe+0x60>
 8002610:	2205      	movs	r2, #5
 8002612:	4613      	mov	r3, r2
 8002614:	e7e8      	b.n	80025e8 <USBH_AllocPipe+0x60>
 8002616:	2206      	movs	r2, #6
 8002618:	4613      	mov	r3, r2
 800261a:	e7e5      	b.n	80025e8 <USBH_AllocPipe+0x60>
 800261c:	2207      	movs	r2, #7
 800261e:	4613      	mov	r3, r2
 8002620:	e7e2      	b.n	80025e8 <USBH_AllocPipe+0x60>
 8002622:	2208      	movs	r2, #8
 8002624:	4613      	mov	r3, r2
 8002626:	e7df      	b.n	80025e8 <USBH_AllocPipe+0x60>
 8002628:	2209      	movs	r2, #9
 800262a:	4613      	mov	r3, r2
 800262c:	e7dc      	b.n	80025e8 <USBH_AllocPipe+0x60>
 800262e:	220a      	movs	r2, #10
 8002630:	4613      	mov	r3, r2
 8002632:	e7d9      	b.n	80025e8 <USBH_AllocPipe+0x60>

08002634 <USBH_FreePipe>:
USBH_FreePipe():
 8002634:	290a      	cmp	r1, #10
 8002636:	d807      	bhi.n	8002648 <USBH_FreePipe+0x14>
 8002638:	eb00 0081 	add.w	r0, r0, r1, lsl #2
 800263c:	f8d0 35cc 	ldr.w	r3, [r0, #1484]	; 0x5cc
 8002640:	f3c3 030e 	ubfx	r3, r3, #0, #15
 8002644:	f8c0 35cc 	str.w	r3, [r0, #1484]	; 0x5cc
 8002648:	2000      	movs	r0, #0
 800264a:	4770      	bx	lr

0800264c <HAL_MspInit>:
HAL_MspInit():
 800264c:	4770      	bx	lr
 800264e:	bf00      	nop

08002650 <HAL_InitTick>:
HAL_InitTick():
 8002650:	b510      	push	{r4, lr}
 8002652:	4604      	mov	r4, r0
 8002654:	f003 f81a 	bl	800568c <HAL_RCC_GetHCLKFreq>
 8002658:	4b06      	ldr	r3, [pc, #24]	; (8002674 <HAL_InitTick+0x24>)
 800265a:	fba3 3000 	umull	r3, r0, r3, r0
 800265e:	0980      	lsrs	r0, r0, #6
 8002660:	f000 f894 	bl	800278c <HAL_SYSTICK_Config>
 8002664:	4621      	mov	r1, r4
 8002666:	f04f 30ff 	mov.w	r0, #4294967295
 800266a:	2200      	movs	r2, #0
 800266c:	f000 f84c 	bl	8002708 <HAL_NVIC_SetPriority>
 8002670:	2000      	movs	r0, #0
 8002672:	bd10      	pop	{r4, pc}
 8002674:	10624dd3 	.word	0x10624dd3

08002678 <HAL_Init>:
HAL_Init():
 8002678:	b508      	push	{r3, lr}
 800267a:	4b0b      	ldr	r3, [pc, #44]	; (80026a8 <HAL_Init+0x30>)
 800267c:	681a      	ldr	r2, [r3, #0]
 800267e:	f442 7200 	orr.w	r2, r2, #512	; 0x200
 8002682:	601a      	str	r2, [r3, #0]
 8002684:	681a      	ldr	r2, [r3, #0]
 8002686:	f442 6280 	orr.w	r2, r2, #1024	; 0x400
 800268a:	601a      	str	r2, [r3, #0]
 800268c:	681a      	ldr	r2, [r3, #0]
 800268e:	f442 7280 	orr.w	r2, r2, #256	; 0x100
 8002692:	601a      	str	r2, [r3, #0]
 8002694:	2003      	movs	r0, #3
 8002696:	f000 f825 	bl	80026e4 <HAL_NVIC_SetPriorityGrouping>
 800269a:	200f      	movs	r0, #15
 800269c:	f7ff ffd8 	bl	8002650 <HAL_InitTick>
 80026a0:	f7ff ffd4 	bl	800264c <HAL_MspInit>
 80026a4:	2000      	movs	r0, #0
 80026a6:	bd08      	pop	{r3, pc}
 80026a8:	40023c00 	.word	0x40023c00

080026ac <HAL_IncTick>:
HAL_IncTick():
 80026ac:	4a02      	ldr	r2, [pc, #8]	; (80026b8 <HAL_IncTick+0xc>)
 80026ae:	6813      	ldr	r3, [r2, #0]
 80026b0:	3301      	adds	r3, #1
 80026b2:	6013      	str	r3, [r2, #0]
 80026b4:	4770      	bx	lr
 80026b6:	bf00      	nop
 80026b8:	200008e0 	.word	0x200008e0

080026bc <HAL_GetTick>:
HAL_GetTick():
 80026bc:	4b01      	ldr	r3, [pc, #4]	; (80026c4 <HAL_GetTick+0x8>)
 80026be:	6818      	ldr	r0, [r3, #0]
 80026c0:	4770      	bx	lr
 80026c2:	bf00      	nop
 80026c4:	200008e0 	.word	0x200008e0

080026c8 <HAL_Delay>:
HAL_Delay():
 80026c8:	b510      	push	{r4, lr}
 80026ca:	b082      	sub	sp, #8
 80026cc:	9001      	str	r0, [sp, #4]
 80026ce:	f7ff fff5 	bl	80026bc <HAL_GetTick>
 80026d2:	4604      	mov	r4, r0
 80026d4:	f7ff fff2 	bl	80026bc <HAL_GetTick>
 80026d8:	9b01      	ldr	r3, [sp, #4]
 80026da:	1b00      	subs	r0, r0, r4
 80026dc:	4298      	cmp	r0, r3
 80026de:	d3f9      	bcc.n	80026d4 <HAL_Delay+0xc>
 80026e0:	b002      	add	sp, #8
 80026e2:	bd10      	pop	{r4, pc}

080026e4 <HAL_NVIC_SetPriorityGrouping>:
HAL_NVIC_SetPriorityGrouping():
 80026e4:	4a07      	ldr	r2, [pc, #28]	; (8002704 <HAL_NVIC_SetPriorityGrouping+0x20>)
 80026e6:	68d1      	ldr	r1, [r2, #12]
 80026e8:	f64f 03ff 	movw	r3, #63743	; 0xf8ff
 80026ec:	400b      	ands	r3, r1
 80026ee:	f043 63bf 	orr.w	r3, r3, #100139008	; 0x5f80000
 80026f2:	f000 0007 	and.w	r0, r0, #7
 80026f6:	f443 3300 	orr.w	r3, r3, #131072	; 0x20000
 80026fa:	ea43 2300 	orr.w	r3, r3, r0, lsl #8
 80026fe:	60d3      	str	r3, [r2, #12]
 8002700:	4770      	bx	lr
 8002702:	bf00      	nop
 8002704:	e000ed00 	.word	0xe000ed00

08002708 <HAL_NVIC_SetPriority>:
HAL_NVIC_SetPriority():
 8002708:	4b18      	ldr	r3, [pc, #96]	; (800276c <HAL_NVIC_SetPriority+0x64>)
 800270a:	68db      	ldr	r3, [r3, #12]
 800270c:	f3c3 2302 	ubfx	r3, r3, #8, #3
 8002710:	b430      	push	{r4, r5}
 8002712:	f1c3 0507 	rsb	r5, r3, #7
 8002716:	2d04      	cmp	r5, #4
 8002718:	f103 0404 	add.w	r4, r3, #4
 800271c:	bf28      	it	cs
 800271e:	2504      	movcs	r5, #4
 8002720:	2c06      	cmp	r4, #6
 8002722:	d917      	bls.n	8002754 <HAL_NVIC_SetPriority+0x4c>
 8002724:	3b03      	subs	r3, #3
 8002726:	2401      	movs	r4, #1
 8002728:	409c      	lsls	r4, r3
 800272a:	3c01      	subs	r4, #1
 800272c:	4022      	ands	r2, r4
 800272e:	2401      	movs	r4, #1
 8002730:	40ac      	lsls	r4, r5
 8002732:	3c01      	subs	r4, #1
 8002734:	4021      	ands	r1, r4
 8002736:	4099      	lsls	r1, r3
 8002738:	2800      	cmp	r0, #0
 800273a:	ea42 0201 	orr.w	r2, r2, r1
 800273e:	db0c      	blt.n	800275a <HAL_NVIC_SetPriority+0x52>
 8002740:	f100 4060 	add.w	r0, r0, #3758096384	; 0xe0000000
 8002744:	f500 4061 	add.w	r0, r0, #57600	; 0xe100
 8002748:	0112      	lsls	r2, r2, #4
 800274a:	b2d2      	uxtb	r2, r2
 800274c:	f880 2300 	strb.w	r2, [r0, #768]	; 0x300
 8002750:	bc30      	pop	{r4, r5}
 8002752:	4770      	bx	lr
 8002754:	2200      	movs	r2, #0
 8002756:	4613      	mov	r3, r2
 8002758:	e7e9      	b.n	800272e <HAL_NVIC_SetPriority+0x26>
 800275a:	4b05      	ldr	r3, [pc, #20]	; (8002770 <HAL_NVIC_SetPriority+0x68>)
 800275c:	f000 000f 	and.w	r0, r0, #15
 8002760:	0112      	lsls	r2, r2, #4
 8002762:	4403      	add	r3, r0
 8002764:	b2d2      	uxtb	r2, r2
 8002766:	761a      	strb	r2, [r3, #24]
 8002768:	bc30      	pop	{r4, r5}
 800276a:	4770      	bx	lr
 800276c:	e000ed00 	.word	0xe000ed00
 8002770:	e000ecfc 	.word	0xe000ecfc

08002774 <HAL_NVIC_EnableIRQ>:
HAL_NVIC_EnableIRQ():
 8002774:	f000 011f 	and.w	r1, r0, #31
 8002778:	2301      	movs	r3, #1
 800277a:	0940      	lsrs	r0, r0, #5
 800277c:	4a02      	ldr	r2, [pc, #8]	; (8002788 <HAL_NVIC_EnableIRQ+0x14>)
 800277e:	408b      	lsls	r3, r1
 8002780:	f842 3020 	str.w	r3, [r2, r0, lsl #2]
 8002784:	4770      	bx	lr
 8002786:	bf00      	nop
 8002788:	e000e100 	.word	0xe000e100

0800278c <HAL_SYSTICK_Config>:
HAL_SYSTICK_Config():
 800278c:	3801      	subs	r0, #1
 800278e:	f1b0 7f80 	cmp.w	r0, #16777216	; 0x1000000
 8002792:	d20e      	bcs.n	80027b2 <HAL_SYSTICK_Config+0x26>
 8002794:	4b08      	ldr	r3, [pc, #32]	; (80027b8 <HAL_SYSTICK_Config+0x2c>)
 8002796:	b410      	push	{r4}
 8002798:	4c08      	ldr	r4, [pc, #32]	; (80027bc <HAL_SYSTICK_Config+0x30>)
 800279a:	6058      	str	r0, [r3, #4]
 800279c:	20f0      	movs	r0, #240	; 0xf0
 800279e:	f884 0023 	strb.w	r0, [r4, #35]	; 0x23
 80027a2:	2200      	movs	r2, #0
 80027a4:	2107      	movs	r1, #7
 80027a6:	4610      	mov	r0, r2
 80027a8:	609a      	str	r2, [r3, #8]
 80027aa:	6019      	str	r1, [r3, #0]
 80027ac:	f85d 4b04 	ldr.w	r4, [sp], #4
 80027b0:	4770      	bx	lr
 80027b2:	2001      	movs	r0, #1
 80027b4:	4770      	bx	lr
 80027b6:	bf00      	nop
 80027b8:	e000e010 	.word	0xe000e010
 80027bc:	e000ed00 	.word	0xe000ed00

080027c0 <HAL_DMA_Init>:
HAL_DMA_Init():
 80027c0:	2800      	cmp	r0, #0
 80027c2:	d048      	beq.n	8002856 <HAL_DMA_Init+0x96>
 80027c4:	e92d 41f0 	stmdb	sp!, {r4, r5, r6, r7, r8, lr}
 80027c8:	b082      	sub	sp, #8
 80027ca:	6a03      	ldr	r3, [r0, #32]
 80027cc:	9301      	str	r3, [sp, #4]
 80027ce:	6847      	ldr	r7, [r0, #4]
 80027d0:	6883      	ldr	r3, [r0, #8]
 80027d2:	68c6      	ldr	r6, [r0, #12]
 80027d4:	6905      	ldr	r5, [r0, #16]
 80027d6:	6944      	ldr	r4, [r0, #20]
 80027d8:	6981      	ldr	r1, [r0, #24]
 80027da:	f8d0 8000 	ldr.w	r8, [r0]
 80027de:	69c2      	ldr	r2, [r0, #28]
 80027e0:	f8df e078 	ldr.w	lr, [pc, #120]	; 800285c <HAL_DMA_Init+0x9c>
 80027e4:	f8d0 c024 	ldr.w	ip, [r0, #36]	; 0x24
 80027e8:	431f      	orrs	r7, r3
 80027ea:	433e      	orrs	r6, r7
 80027ec:	4335      	orrs	r5, r6
 80027ee:	2602      	movs	r6, #2
 80027f0:	432c      	orrs	r4, r5
 80027f2:	f880 6035 	strb.w	r6, [r0, #53]	; 0x35
 80027f6:	4321      	orrs	r1, r4
 80027f8:	9b01      	ldr	r3, [sp, #4]
 80027fa:	f8d8 4000 	ldr.w	r4, [r8]
 80027fe:	430a      	orrs	r2, r1
 8002800:	4313      	orrs	r3, r2
 8002802:	ea04 0e0e 	and.w	lr, r4, lr
 8002806:	f1bc 0f04 	cmp.w	ip, #4
 800280a:	ea43 030e 	orr.w	r3, r3, lr
 800280e:	d012      	beq.n	8002836 <HAL_DMA_Init+0x76>
 8002810:	f8c8 3000 	str.w	r3, [r8]
 8002814:	f8d8 3014 	ldr.w	r3, [r8, #20]
 8002818:	f023 0307 	bic.w	r3, r3, #7
 800281c:	ea43 030c 	orr.w	r3, r3, ip
 8002820:	2200      	movs	r2, #0
 8002822:	2101      	movs	r1, #1
 8002824:	f8c8 3014 	str.w	r3, [r8, #20]
 8002828:	64c2      	str	r2, [r0, #76]	; 0x4c
 800282a:	f880 1035 	strb.w	r1, [r0, #53]	; 0x35
 800282e:	4610      	mov	r0, r2
 8002830:	b002      	add	sp, #8
 8002832:	e8bd 81f0 	ldmia.w	sp!, {r4, r5, r6, r7, r8, pc}
 8002836:	6b04      	ldr	r4, [r0, #48]	; 0x30
 8002838:	6ac1      	ldr	r1, [r0, #44]	; 0x2c
 800283a:	6a82      	ldr	r2, [r0, #40]	; 0x28
 800283c:	4321      	orrs	r1, r4
 800283e:	430b      	orrs	r3, r1
 8002840:	f8c8 3000 	str.w	r3, [r8]
 8002844:	f8d8 3014 	ldr.w	r3, [r8, #20]
 8002848:	f042 0c04 	orr.w	ip, r2, #4
 800284c:	f023 0307 	bic.w	r3, r3, #7
 8002850:	ea4c 0303 	orr.w	r3, ip, r3
 8002854:	e7e4      	b.n	8002820 <HAL_DMA_Init+0x60>
 8002856:	2301      	movs	r3, #1
 8002858:	4618      	mov	r0, r3
 800285a:	4770      	bx	lr
 800285c:	f014803f 	.word	0xf014803f

08002860 <HAL_DMA_DeInit>:
HAL_DMA_DeInit():
 8002860:	2800      	cmp	r0, #0
 8002862:	f000 80c9 	beq.w	80029f8 <HAL_DMA_DeInit+0x198>
 8002866:	f890 3035 	ldrb.w	r3, [r0, #53]	; 0x35
 800286a:	2b02      	cmp	r3, #2
 800286c:	f000 80c4 	beq.w	80029f8 <HAL_DMA_DeInit+0x198>
 8002870:	6803      	ldr	r3, [r0, #0]
 8002872:	b430      	push	{r4, r5}
 8002874:	6819      	ldr	r1, [r3, #0]
 8002876:	4c92      	ldr	r4, [pc, #584]	; (8002ac0 <HAL_DMA_DeInit+0x260>)
 8002878:	2200      	movs	r2, #0
 800287a:	f021 0101 	bic.w	r1, r1, #1
 800287e:	2521      	movs	r5, #33	; 0x21
 8002880:	42a3      	cmp	r3, r4
 8002882:	6019      	str	r1, [r3, #0]
 8002884:	601a      	str	r2, [r3, #0]
 8002886:	605a      	str	r2, [r3, #4]
 8002888:	609a      	str	r2, [r3, #8]
 800288a:	60da      	str	r2, [r3, #12]
 800288c:	611a      	str	r2, [r3, #16]
 800288e:	615d      	str	r5, [r3, #20]
 8002890:	d958      	bls.n	8002944 <HAL_DMA_DeInit+0xe4>
 8002892:	4a8c      	ldr	r2, [pc, #560]	; (8002ac4 <HAL_DMA_DeInit+0x264>)
 8002894:	4293      	cmp	r3, r2
 8002896:	f000 8198 	beq.w	8002bca <HAL_DMA_DeInit+0x36a>
 800289a:	3218      	adds	r2, #24
 800289c:	4293      	cmp	r3, r2
 800289e:	f000 818b 	beq.w	8002bb8 <HAL_DMA_DeInit+0x358>
 80028a2:	3448      	adds	r4, #72	; 0x48
 80028a4:	42a3      	cmp	r3, r4
 80028a6:	bf14      	ite	ne
 80028a8:	f04f 7480 	movne.w	r4, #16777216	; 0x1000000
 80028ac:	f44f 2480 	moveq.w	r4, #262144	; 0x40000
 80028b0:	4a84      	ldr	r2, [pc, #528]	; (8002ac4 <HAL_DMA_DeInit+0x264>)
 80028b2:	4985      	ldr	r1, [pc, #532]	; (8002ac8 <HAL_DMA_DeInit+0x268>)
 80028b4:	4293      	cmp	r3, r2
 80028b6:	60cc      	str	r4, [r1, #12]
 80028b8:	f000 818a 	beq.w	8002bd0 <HAL_DMA_DeInit+0x370>
 80028bc:	4a83      	ldr	r2, [pc, #524]	; (8002acc <HAL_DMA_DeInit+0x26c>)
 80028be:	4293      	cmp	r3, r2
 80028c0:	f000 81b0 	beq.w	8002c24 <HAL_DMA_DeInit+0x3c4>
 80028c4:	4c82      	ldr	r4, [pc, #520]	; (8002ad0 <HAL_DMA_DeInit+0x270>)
 80028c6:	42a3      	cmp	r3, r4
 80028c8:	bf14      	ite	ne
 80028ca:	f04f 6400 	movne.w	r4, #134217728	; 0x8000000
 80028ce:	f44f 1400 	moveq.w	r4, #2097152	; 0x200000
 80028d2:	4a7c      	ldr	r2, [pc, #496]	; (8002ac4 <HAL_DMA_DeInit+0x264>)
 80028d4:	497c      	ldr	r1, [pc, #496]	; (8002ac8 <HAL_DMA_DeInit+0x268>)
 80028d6:	4293      	cmp	r3, r2
 80028d8:	60cc      	str	r4, [r1, #12]
 80028da:	bf08      	it	eq
 80028dc:	2308      	moveq	r3, #8
 80028de:	f000 817b 	beq.w	8002bd8 <HAL_DMA_DeInit+0x378>
 80028e2:	4a7a      	ldr	r2, [pc, #488]	; (8002acc <HAL_DMA_DeInit+0x26c>)
 80028e4:	4293      	cmp	r3, r2
 80028e6:	f000 81a0 	beq.w	8002c2a <HAL_DMA_DeInit+0x3ca>
 80028ea:	4c79      	ldr	r4, [pc, #484]	; (8002ad0 <HAL_DMA_DeInit+0x270>)
 80028ec:	42a3      	cmp	r3, r4
 80028ee:	bf14      	ite	ne
 80028f0:	f04f 7400 	movne.w	r4, #33554432	; 0x2000000
 80028f4:	f44f 2400 	moveq.w	r4, #524288	; 0x80000
 80028f8:	4a72      	ldr	r2, [pc, #456]	; (8002ac4 <HAL_DMA_DeInit+0x264>)
 80028fa:	4973      	ldr	r1, [pc, #460]	; (8002ac8 <HAL_DMA_DeInit+0x268>)
 80028fc:	4293      	cmp	r3, r2
 80028fe:	60cc      	str	r4, [r1, #12]
 8002900:	f000 81ce 	beq.w	8002ca0 <HAL_DMA_DeInit+0x440>
 8002904:	4a71      	ldr	r2, [pc, #452]	; (8002acc <HAL_DMA_DeInit+0x26c>)
 8002906:	4293      	cmp	r3, r2
 8002908:	f000 8192 	beq.w	8002c30 <HAL_DMA_DeInit+0x3d0>
 800290c:	4c70      	ldr	r4, [pc, #448]	; (8002ad0 <HAL_DMA_DeInit+0x270>)
 800290e:	42a3      	cmp	r3, r4
 8002910:	bf14      	ite	ne
 8002912:	f44f 0480 	movne.w	r4, #4194304	; 0x400000
 8002916:	f44f 3480 	moveq.w	r4, #65536	; 0x10000
 800291a:	4a6a      	ldr	r2, [pc, #424]	; (8002ac4 <HAL_DMA_DeInit+0x264>)
 800291c:	496a      	ldr	r1, [pc, #424]	; (8002ac8 <HAL_DMA_DeInit+0x268>)
 800291e:	4293      	cmp	r3, r2
 8002920:	60cc      	str	r4, [r1, #12]
 8002922:	bf08      	it	eq
 8002924:	2310      	moveq	r3, #16
 8002926:	d00a      	beq.n	800293e <HAL_DMA_DeInit+0xde>
 8002928:	4a68      	ldr	r2, [pc, #416]	; (8002acc <HAL_DMA_DeInit+0x26c>)
 800292a:	4293      	cmp	r3, r2
 800292c:	f000 8177 	beq.w	8002c1e <HAL_DMA_DeInit+0x3be>
 8002930:	3218      	adds	r2, #24
 8002932:	4293      	cmp	r3, r2
 8002934:	bf0c      	ite	eq
 8002936:	f44f 1380 	moveq.w	r3, #1048576	; 0x100000
 800293a:	f04f 6380 	movne.w	r3, #67108864	; 0x4000000
 800293e:	4a62      	ldr	r2, [pc, #392]	; (8002ac8 <HAL_DMA_DeInit+0x268>)
 8002940:	60d3      	str	r3, [r2, #12]
 8002942:	e0b3      	b.n	8002aac <HAL_DMA_DeInit+0x24c>
 8002944:	4a63      	ldr	r2, [pc, #396]	; (8002ad4 <HAL_DMA_DeInit+0x274>)
 8002946:	4293      	cmp	r3, r2
 8002948:	d958      	bls.n	80029fc <HAL_DMA_DeInit+0x19c>
 800294a:	f502 7256 	add.w	r2, r2, #856	; 0x358
 800294e:	4293      	cmp	r3, r2
 8002950:	f000 8149 	beq.w	8002be6 <HAL_DMA_DeInit+0x386>
 8002954:	3218      	adds	r2, #24
 8002956:	4293      	cmp	r3, r2
 8002958:	f000 8131 	beq.w	8002bbe <HAL_DMA_DeInit+0x35e>
 800295c:	4c5e      	ldr	r4, [pc, #376]	; (8002ad8 <HAL_DMA_DeInit+0x278>)
 800295e:	42a3      	cmp	r3, r4
 8002960:	bf14      	ite	ne
 8002962:	f04f 7480 	movne.w	r4, #16777216	; 0x1000000
 8002966:	f44f 2480 	moveq.w	r4, #262144	; 0x40000
 800296a:	4a5c      	ldr	r2, [pc, #368]	; (8002adc <HAL_DMA_DeInit+0x27c>)
 800296c:	4956      	ldr	r1, [pc, #344]	; (8002ac8 <HAL_DMA_DeInit+0x268>)
 800296e:	4293      	cmp	r3, r2
 8002970:	608c      	str	r4, [r1, #8]
 8002972:	f000 813b 	beq.w	8002bec <HAL_DMA_DeInit+0x38c>
 8002976:	4a5a      	ldr	r2, [pc, #360]	; (8002ae0 <HAL_DMA_DeInit+0x280>)
 8002978:	4293      	cmp	r3, r2
 800297a:	f000 815b 	beq.w	8002c34 <HAL_DMA_DeInit+0x3d4>
 800297e:	4c56      	ldr	r4, [pc, #344]	; (8002ad8 <HAL_DMA_DeInit+0x278>)
 8002980:	42a3      	cmp	r3, r4
 8002982:	bf14      	ite	ne
 8002984:	f04f 6400 	movne.w	r4, #134217728	; 0x8000000
 8002988:	f44f 1400 	moveq.w	r4, #2097152	; 0x200000
 800298c:	4a53      	ldr	r2, [pc, #332]	; (8002adc <HAL_DMA_DeInit+0x27c>)
 800298e:	494e      	ldr	r1, [pc, #312]	; (8002ac8 <HAL_DMA_DeInit+0x268>)
 8002990:	4293      	cmp	r3, r2
 8002992:	608c      	str	r4, [r1, #8]
 8002994:	f000 8182 	beq.w	8002c9c <HAL_DMA_DeInit+0x43c>
 8002998:	4a51      	ldr	r2, [pc, #324]	; (8002ae0 <HAL_DMA_DeInit+0x280>)
 800299a:	4293      	cmp	r3, r2
 800299c:	f000 8152 	beq.w	8002c44 <HAL_DMA_DeInit+0x3e4>
 80029a0:	4c4d      	ldr	r4, [pc, #308]	; (8002ad8 <HAL_DMA_DeInit+0x278>)
 80029a2:	42a3      	cmp	r3, r4
 80029a4:	bf14      	ite	ne
 80029a6:	f04f 7400 	movne.w	r4, #33554432	; 0x2000000
 80029aa:	f44f 2400 	moveq.w	r4, #524288	; 0x80000
 80029ae:	4a4b      	ldr	r2, [pc, #300]	; (8002adc <HAL_DMA_DeInit+0x27c>)
 80029b0:	4945      	ldr	r1, [pc, #276]	; (8002ac8 <HAL_DMA_DeInit+0x268>)
 80029b2:	4293      	cmp	r3, r2
 80029b4:	608c      	str	r4, [r1, #8]
 80029b6:	f000 816b 	beq.w	8002c90 <HAL_DMA_DeInit+0x430>
 80029ba:	4a49      	ldr	r2, [pc, #292]	; (8002ae0 <HAL_DMA_DeInit+0x280>)
 80029bc:	4293      	cmp	r3, r2
 80029be:	f000 813f 	beq.w	8002c40 <HAL_DMA_DeInit+0x3e0>
 80029c2:	4c45      	ldr	r4, [pc, #276]	; (8002ad8 <HAL_DMA_DeInit+0x278>)
 80029c4:	42a3      	cmp	r3, r4
 80029c6:	bf14      	ite	ne
 80029c8:	f44f 0480 	movne.w	r4, #4194304	; 0x400000
 80029cc:	f44f 3480 	moveq.w	r4, #65536	; 0x10000
 80029d0:	4a42      	ldr	r2, [pc, #264]	; (8002adc <HAL_DMA_DeInit+0x27c>)
 80029d2:	493d      	ldr	r1, [pc, #244]	; (8002ac8 <HAL_DMA_DeInit+0x268>)
 80029d4:	4293      	cmp	r3, r2
 80029d6:	608c      	str	r4, [r1, #8]
 80029d8:	f000 8158 	beq.w	8002c8c <HAL_DMA_DeInit+0x42c>
 80029dc:	4a40      	ldr	r2, [pc, #256]	; (8002ae0 <HAL_DMA_DeInit+0x280>)
 80029de:	4293      	cmp	r3, r2
 80029e0:	f000 812b 	beq.w	8002c3a <HAL_DMA_DeInit+0x3da>
 80029e4:	3218      	adds	r2, #24
 80029e6:	4293      	cmp	r3, r2
 80029e8:	bf0c      	ite	eq
 80029ea:	f44f 1380 	moveq.w	r3, #1048576	; 0x100000
 80029ee:	f04f 6380 	movne.w	r3, #67108864	; 0x4000000
 80029f2:	4a35      	ldr	r2, [pc, #212]	; (8002ac8 <HAL_DMA_DeInit+0x268>)
 80029f4:	6093      	str	r3, [r2, #8]
 80029f6:	e059      	b.n	8002aac <HAL_DMA_DeInit+0x24c>
 80029f8:	2001      	movs	r0, #1
 80029fa:	4770      	bx	lr
 80029fc:	4a39      	ldr	r2, [pc, #228]	; (8002ae4 <HAL_DMA_DeInit+0x284>)
 80029fe:	4293      	cmp	r3, r2
 8002a00:	d97a      	bls.n	8002af8 <HAL_DMA_DeInit+0x298>
 8002a02:	3218      	adds	r2, #24
 8002a04:	4293      	cmp	r3, r2
 8002a06:	f000 80c9 	beq.w	8002b9c <HAL_DMA_DeInit+0x33c>
 8002a0a:	3218      	adds	r2, #24
 8002a0c:	4293      	cmp	r3, r2
 8002a0e:	f000 812a 	beq.w	8002c66 <HAL_DMA_DeInit+0x406>
 8002a12:	4c35      	ldr	r4, [pc, #212]	; (8002ae8 <HAL_DMA_DeInit+0x288>)
 8002a14:	42a3      	cmp	r3, r4
 8002a16:	bf14      	ite	ne
 8002a18:	f04f 7480 	movne.w	r4, #16777216	; 0x1000000
 8002a1c:	f44f 2480 	moveq.w	r4, #262144	; 0x40000
 8002a20:	4a32      	ldr	r2, [pc, #200]	; (8002aec <HAL_DMA_DeInit+0x28c>)
 8002a22:	4933      	ldr	r1, [pc, #204]	; (8002af0 <HAL_DMA_DeInit+0x290>)
 8002a24:	4293      	cmp	r3, r2
 8002a26:	60cc      	str	r4, [r1, #12]
 8002a28:	f000 80bb 	beq.w	8002ba2 <HAL_DMA_DeInit+0x342>
 8002a2c:	4a31      	ldr	r2, [pc, #196]	; (8002af4 <HAL_DMA_DeInit+0x294>)
 8002a2e:	4293      	cmp	r3, r2
 8002a30:	f000 8116 	beq.w	8002c60 <HAL_DMA_DeInit+0x400>
 8002a34:	4c2c      	ldr	r4, [pc, #176]	; (8002ae8 <HAL_DMA_DeInit+0x288>)
 8002a36:	42a3      	cmp	r3, r4
 8002a38:	bf14      	ite	ne
 8002a3a:	f04f 6400 	movne.w	r4, #134217728	; 0x8000000
 8002a3e:	f44f 1400 	moveq.w	r4, #2097152	; 0x200000
 8002a42:	4a2a      	ldr	r2, [pc, #168]	; (8002aec <HAL_DMA_DeInit+0x28c>)
 8002a44:	492a      	ldr	r1, [pc, #168]	; (8002af0 <HAL_DMA_DeInit+0x290>)
 8002a46:	4293      	cmp	r3, r2
 8002a48:	60cc      	str	r4, [r1, #12]
 8002a4a:	f000 811d 	beq.w	8002c88 <HAL_DMA_DeInit+0x428>
 8002a4e:	4a29      	ldr	r2, [pc, #164]	; (8002af4 <HAL_DMA_DeInit+0x294>)
 8002a50:	4293      	cmp	r3, r2
 8002a52:	f000 8110 	beq.w	8002c76 <HAL_DMA_DeInit+0x416>
 8002a56:	4c24      	ldr	r4, [pc, #144]	; (8002ae8 <HAL_DMA_DeInit+0x288>)
 8002a58:	42a3      	cmp	r3, r4
 8002a5a:	bf14      	ite	ne
 8002a5c:	f04f 7400 	movne.w	r4, #33554432	; 0x2000000
 8002a60:	f44f 2400 	moveq.w	r4, #524288	; 0x80000
 8002a64:	4a21      	ldr	r2, [pc, #132]	; (8002aec <HAL_DMA_DeInit+0x28c>)
 8002a66:	4922      	ldr	r1, [pc, #136]	; (8002af0 <HAL_DMA_DeInit+0x290>)
 8002a68:	4293      	cmp	r3, r2
 8002a6a:	60cc      	str	r4, [r1, #12]
 8002a6c:	f000 8108 	beq.w	8002c80 <HAL_DMA_DeInit+0x420>
 8002a70:	4a20      	ldr	r2, [pc, #128]	; (8002af4 <HAL_DMA_DeInit+0x294>)
 8002a72:	4293      	cmp	r3, r2
 8002a74:	f000 80fd 	beq.w	8002c72 <HAL_DMA_DeInit+0x412>
 8002a78:	4c1b      	ldr	r4, [pc, #108]	; (8002ae8 <HAL_DMA_DeInit+0x288>)
 8002a7a:	42a3      	cmp	r3, r4
 8002a7c:	bf14      	ite	ne
 8002a7e:	f44f 0480 	movne.w	r4, #4194304	; 0x400000
 8002a82:	f44f 3480 	moveq.w	r4, #65536	; 0x10000
 8002a86:	4a19      	ldr	r2, [pc, #100]	; (8002aec <HAL_DMA_DeInit+0x28c>)
 8002a88:	4919      	ldr	r1, [pc, #100]	; (8002af0 <HAL_DMA_DeInit+0x290>)
 8002a8a:	4293      	cmp	r3, r2
 8002a8c:	60cc      	str	r4, [r1, #12]
 8002a8e:	f000 80f5 	beq.w	8002c7c <HAL_DMA_DeInit+0x41c>
 8002a92:	4a18      	ldr	r2, [pc, #96]	; (8002af4 <HAL_DMA_DeInit+0x294>)
 8002a94:	4293      	cmp	r3, r2
 8002a96:	f000 80e9 	beq.w	8002c6c <HAL_DMA_DeInit+0x40c>
 8002a9a:	3218      	adds	r2, #24
 8002a9c:	4293      	cmp	r3, r2
 8002a9e:	bf0c      	ite	eq
 8002aa0:	f44f 1380 	moveq.w	r3, #1048576	; 0x100000
 8002aa4:	f04f 6380 	movne.w	r3, #67108864	; 0x4000000
 8002aa8:	4a11      	ldr	r2, [pc, #68]	; (8002af0 <HAL_DMA_DeInit+0x290>)
 8002aaa:	60d3      	str	r3, [r2, #12]
 8002aac:	2300      	movs	r3, #0
 8002aae:	64c3      	str	r3, [r0, #76]	; 0x4c
 8002ab0:	f880 3034 	strb.w	r3, [r0, #52]	; 0x34
 8002ab4:	f880 3035 	strb.w	r3, [r0, #53]	; 0x35
 8002ab8:	bc30      	pop	{r4, r5}
 8002aba:	4618      	mov	r0, r3
 8002abc:	4770      	bx	lr
 8002abe:	bf00      	nop
 8002ac0:	40026458 	.word	0x40026458
 8002ac4:	40026470 	.word	0x40026470
 8002ac8:	40026400 	.word	0x40026400
 8002acc:	40026488 	.word	0x40026488
 8002ad0:	400264a0 	.word	0x400264a0
 8002ad4:	400260b8 	.word	0x400260b8
 8002ad8:	40026440 	.word	0x40026440
 8002adc:	40026410 	.word	0x40026410
 8002ae0:	40026428 	.word	0x40026428
 8002ae4:	40026058 	.word	0x40026058
 8002ae8:	400260a0 	.word	0x400260a0
 8002aec:	40026070 	.word	0x40026070
 8002af0:	40026000 	.word	0x40026000
 8002af4:	40026088 	.word	0x40026088
 8002af8:	4a6a      	ldr	r2, [pc, #424]	; (8002ca4 <HAL_DMA_DeInit+0x444>)
 8002afa:	4293      	cmp	r3, r2
 8002afc:	f000 8081 	beq.w	8002c02 <HAL_DMA_DeInit+0x3a2>
 8002b00:	3218      	adds	r2, #24
 8002b02:	4293      	cmp	r3, r2
 8002b04:	d05e      	beq.n	8002bc4 <HAL_DMA_DeInit+0x364>
 8002b06:	4c68      	ldr	r4, [pc, #416]	; (8002ca8 <HAL_DMA_DeInit+0x448>)
 8002b08:	42a3      	cmp	r3, r4
 8002b0a:	bf14      	ite	ne
 8002b0c:	f04f 7480 	movne.w	r4, #16777216	; 0x1000000
 8002b10:	f44f 2480 	moveq.w	r4, #262144	; 0x40000
 8002b14:	4a63      	ldr	r2, [pc, #396]	; (8002ca4 <HAL_DMA_DeInit+0x444>)
 8002b16:	4965      	ldr	r1, [pc, #404]	; (8002cac <HAL_DMA_DeInit+0x44c>)
 8002b18:	4293      	cmp	r3, r2
 8002b1a:	608c      	str	r4, [r1, #8]
 8002b1c:	d074      	beq.n	8002c08 <HAL_DMA_DeInit+0x3a8>
 8002b1e:	4a64      	ldr	r2, [pc, #400]	; (8002cb0 <HAL_DMA_DeInit+0x450>)
 8002b20:	4293      	cmp	r3, r2
 8002b22:	f000 8092 	beq.w	8002c4a <HAL_DMA_DeInit+0x3ea>
 8002b26:	4c60      	ldr	r4, [pc, #384]	; (8002ca8 <HAL_DMA_DeInit+0x448>)
 8002b28:	42a3      	cmp	r3, r4
 8002b2a:	bf14      	ite	ne
 8002b2c:	f04f 6400 	movne.w	r4, #134217728	; 0x8000000
 8002b30:	f44f 1400 	moveq.w	r4, #2097152	; 0x200000
 8002b34:	4a5b      	ldr	r2, [pc, #364]	; (8002ca4 <HAL_DMA_DeInit+0x444>)
 8002b36:	495d      	ldr	r1, [pc, #372]	; (8002cac <HAL_DMA_DeInit+0x44c>)
 8002b38:	4293      	cmp	r3, r2
 8002b3a:	608c      	str	r4, [r1, #8]
 8002b3c:	f000 80aa 	beq.w	8002c94 <HAL_DMA_DeInit+0x434>
 8002b40:	4a5b      	ldr	r2, [pc, #364]	; (8002cb0 <HAL_DMA_DeInit+0x450>)
 8002b42:	4293      	cmp	r3, r2
 8002b44:	f000 8084 	beq.w	8002c50 <HAL_DMA_DeInit+0x3f0>
 8002b48:	4c57      	ldr	r4, [pc, #348]	; (8002ca8 <HAL_DMA_DeInit+0x448>)
 8002b4a:	42a3      	cmp	r3, r4
 8002b4c:	bf14      	ite	ne
 8002b4e:	f04f 7400 	movne.w	r4, #33554432	; 0x2000000
 8002b52:	f44f 2400 	moveq.w	r4, #524288	; 0x80000
 8002b56:	4a53      	ldr	r2, [pc, #332]	; (8002ca4 <HAL_DMA_DeInit+0x444>)
 8002b58:	4954      	ldr	r1, [pc, #336]	; (8002cac <HAL_DMA_DeInit+0x44c>)
 8002b5a:	4293      	cmp	r3, r2
 8002b5c:	608c      	str	r4, [r1, #8]
 8002b5e:	f000 8091 	beq.w	8002c84 <HAL_DMA_DeInit+0x424>
 8002b62:	4a53      	ldr	r2, [pc, #332]	; (8002cb0 <HAL_DMA_DeInit+0x450>)
 8002b64:	4293      	cmp	r3, r2
 8002b66:	d079      	beq.n	8002c5c <HAL_DMA_DeInit+0x3fc>
 8002b68:	4c4f      	ldr	r4, [pc, #316]	; (8002ca8 <HAL_DMA_DeInit+0x448>)
 8002b6a:	42a3      	cmp	r3, r4
 8002b6c:	bf14      	ite	ne
 8002b6e:	f44f 0480 	movne.w	r4, #4194304	; 0x400000
 8002b72:	f44f 3480 	moveq.w	r4, #65536	; 0x10000
 8002b76:	4a4b      	ldr	r2, [pc, #300]	; (8002ca4 <HAL_DMA_DeInit+0x444>)
 8002b78:	494c      	ldr	r1, [pc, #304]	; (8002cac <HAL_DMA_DeInit+0x44c>)
 8002b7a:	4293      	cmp	r3, r2
 8002b7c:	608c      	str	r4, [r1, #8]
 8002b7e:	f000 808b 	beq.w	8002c98 <HAL_DMA_DeInit+0x438>
 8002b82:	4a4b      	ldr	r2, [pc, #300]	; (8002cb0 <HAL_DMA_DeInit+0x450>)
 8002b84:	4293      	cmp	r3, r2
 8002b86:	d066      	beq.n	8002c56 <HAL_DMA_DeInit+0x3f6>
 8002b88:	3218      	adds	r2, #24
 8002b8a:	4293      	cmp	r3, r2
 8002b8c:	bf0c      	ite	eq
 8002b8e:	f44f 1380 	moveq.w	r3, #1048576	; 0x100000
 8002b92:	f04f 6380 	movne.w	r3, #67108864	; 0x4000000
 8002b96:	4a45      	ldr	r2, [pc, #276]	; (8002cac <HAL_DMA_DeInit+0x44c>)
 8002b98:	6093      	str	r3, [r2, #8]
 8002b9a:	e787      	b.n	8002aac <HAL_DMA_DeInit+0x24c>
 8002b9c:	4b43      	ldr	r3, [pc, #268]	; (8002cac <HAL_DMA_DeInit+0x44c>)
 8002b9e:	4a45      	ldr	r2, [pc, #276]	; (8002cb4 <HAL_DMA_DeInit+0x454>)
 8002ba0:	60da      	str	r2, [r3, #12]
 8002ba2:	4a42      	ldr	r2, [pc, #264]	; (8002cac <HAL_DMA_DeInit+0x44c>)
 8002ba4:	2120      	movs	r1, #32
 8002ba6:	2308      	movs	r3, #8
 8002ba8:	60d1      	str	r1, [r2, #12]
 8002baa:	4940      	ldr	r1, [pc, #256]	; (8002cac <HAL_DMA_DeInit+0x44c>)
 8002bac:	4a42      	ldr	r2, [pc, #264]	; (8002cb8 <HAL_DMA_DeInit+0x458>)
 8002bae:	60cb      	str	r3, [r1, #12]
 8002bb0:	493e      	ldr	r1, [pc, #248]	; (8002cac <HAL_DMA_DeInit+0x44c>)
 8002bb2:	2310      	movs	r3, #16
 8002bb4:	60ca      	str	r2, [r1, #12]
 8002bb6:	e777      	b.n	8002aa8 <HAL_DMA_DeInit+0x248>
 8002bb8:	f44f 7480 	mov.w	r4, #256	; 0x100
 8002bbc:	e678      	b.n	80028b0 <HAL_DMA_DeInit+0x50>
 8002bbe:	f44f 7480 	mov.w	r4, #256	; 0x100
 8002bc2:	e6d2      	b.n	800296a <HAL_DMA_DeInit+0x10a>
 8002bc4:	f44f 7480 	mov.w	r4, #256	; 0x100
 8002bc8:	e7a4      	b.n	8002b14 <HAL_DMA_DeInit+0x2b4>
 8002bca:	4b3c      	ldr	r3, [pc, #240]	; (8002cbc <HAL_DMA_DeInit+0x45c>)
 8002bcc:	4a39      	ldr	r2, [pc, #228]	; (8002cb4 <HAL_DMA_DeInit+0x454>)
 8002bce:	60da      	str	r2, [r3, #12]
 8002bd0:	4a3a      	ldr	r2, [pc, #232]	; (8002cbc <HAL_DMA_DeInit+0x45c>)
 8002bd2:	2120      	movs	r1, #32
 8002bd4:	2308      	movs	r3, #8
 8002bd6:	60d1      	str	r1, [r2, #12]
 8002bd8:	4938      	ldr	r1, [pc, #224]	; (8002cbc <HAL_DMA_DeInit+0x45c>)
 8002bda:	4a37      	ldr	r2, [pc, #220]	; (8002cb8 <HAL_DMA_DeInit+0x458>)
 8002bdc:	60cb      	str	r3, [r1, #12]
 8002bde:	4937      	ldr	r1, [pc, #220]	; (8002cbc <HAL_DMA_DeInit+0x45c>)
 8002be0:	2310      	movs	r3, #16
 8002be2:	60ca      	str	r2, [r1, #12]
 8002be4:	e6ab      	b.n	800293e <HAL_DMA_DeInit+0xde>
 8002be6:	4b35      	ldr	r3, [pc, #212]	; (8002cbc <HAL_DMA_DeInit+0x45c>)
 8002be8:	4a32      	ldr	r2, [pc, #200]	; (8002cb4 <HAL_DMA_DeInit+0x454>)
 8002bea:	609a      	str	r2, [r3, #8]
 8002bec:	4a33      	ldr	r2, [pc, #204]	; (8002cbc <HAL_DMA_DeInit+0x45c>)
 8002bee:	2120      	movs	r1, #32
 8002bf0:	2308      	movs	r3, #8
 8002bf2:	6091      	str	r1, [r2, #8]
 8002bf4:	4931      	ldr	r1, [pc, #196]	; (8002cbc <HAL_DMA_DeInit+0x45c>)
 8002bf6:	4a30      	ldr	r2, [pc, #192]	; (8002cb8 <HAL_DMA_DeInit+0x458>)
 8002bf8:	608b      	str	r3, [r1, #8]
 8002bfa:	4930      	ldr	r1, [pc, #192]	; (8002cbc <HAL_DMA_DeInit+0x45c>)
 8002bfc:	2310      	movs	r3, #16
 8002bfe:	608a      	str	r2, [r1, #8]
 8002c00:	e6f7      	b.n	80029f2 <HAL_DMA_DeInit+0x192>
 8002c02:	4b2a      	ldr	r3, [pc, #168]	; (8002cac <HAL_DMA_DeInit+0x44c>)
 8002c04:	4a2b      	ldr	r2, [pc, #172]	; (8002cb4 <HAL_DMA_DeInit+0x454>)
 8002c06:	609a      	str	r2, [r3, #8]
 8002c08:	4928      	ldr	r1, [pc, #160]	; (8002cac <HAL_DMA_DeInit+0x44c>)
 8002c0a:	2220      	movs	r2, #32
 8002c0c:	2308      	movs	r3, #8
 8002c0e:	608a      	str	r2, [r1, #8]
 8002c10:	4926      	ldr	r1, [pc, #152]	; (8002cac <HAL_DMA_DeInit+0x44c>)
 8002c12:	4a29      	ldr	r2, [pc, #164]	; (8002cb8 <HAL_DMA_DeInit+0x458>)
 8002c14:	608b      	str	r3, [r1, #8]
 8002c16:	4925      	ldr	r1, [pc, #148]	; (8002cac <HAL_DMA_DeInit+0x44c>)
 8002c18:	2310      	movs	r3, #16
 8002c1a:	608a      	str	r2, [r1, #8]
 8002c1c:	e7bb      	b.n	8002b96 <HAL_DMA_DeInit+0x336>
 8002c1e:	f44f 6380 	mov.w	r3, #1024	; 0x400
 8002c22:	e68c      	b.n	800293e <HAL_DMA_DeInit+0xde>
 8002c24:	f44f 6400 	mov.w	r4, #2048	; 0x800
 8002c28:	e653      	b.n	80028d2 <HAL_DMA_DeInit+0x72>
 8002c2a:	f44f 7400 	mov.w	r4, #512	; 0x200
 8002c2e:	e663      	b.n	80028f8 <HAL_DMA_DeInit+0x98>
 8002c30:	2440      	movs	r4, #64	; 0x40
 8002c32:	e672      	b.n	800291a <HAL_DMA_DeInit+0xba>
 8002c34:	f44f 6400 	mov.w	r4, #2048	; 0x800
 8002c38:	e6a8      	b.n	800298c <HAL_DMA_DeInit+0x12c>
 8002c3a:	f44f 6380 	mov.w	r3, #1024	; 0x400
 8002c3e:	e6d8      	b.n	80029f2 <HAL_DMA_DeInit+0x192>
 8002c40:	2440      	movs	r4, #64	; 0x40
 8002c42:	e6c5      	b.n	80029d0 <HAL_DMA_DeInit+0x170>
 8002c44:	f44f 7400 	mov.w	r4, #512	; 0x200
 8002c48:	e6b1      	b.n	80029ae <HAL_DMA_DeInit+0x14e>
 8002c4a:	f44f 6400 	mov.w	r4, #2048	; 0x800
 8002c4e:	e771      	b.n	8002b34 <HAL_DMA_DeInit+0x2d4>
 8002c50:	f44f 7400 	mov.w	r4, #512	; 0x200
 8002c54:	e77f      	b.n	8002b56 <HAL_DMA_DeInit+0x2f6>
 8002c56:	f44f 6380 	mov.w	r3, #1024	; 0x400
 8002c5a:	e79c      	b.n	8002b96 <HAL_DMA_DeInit+0x336>
 8002c5c:	2440      	movs	r4, #64	; 0x40
 8002c5e:	e78a      	b.n	8002b76 <HAL_DMA_DeInit+0x316>
 8002c60:	f44f 6400 	mov.w	r4, #2048	; 0x800
 8002c64:	e6ed      	b.n	8002a42 <HAL_DMA_DeInit+0x1e2>
 8002c66:	f44f 7480 	mov.w	r4, #256	; 0x100
 8002c6a:	e6d9      	b.n	8002a20 <HAL_DMA_DeInit+0x1c0>
 8002c6c:	f44f 6380 	mov.w	r3, #1024	; 0x400
 8002c70:	e71a      	b.n	8002aa8 <HAL_DMA_DeInit+0x248>
 8002c72:	2440      	movs	r4, #64	; 0x40
 8002c74:	e707      	b.n	8002a86 <HAL_DMA_DeInit+0x226>
 8002c76:	f44f 7400 	mov.w	r4, #512	; 0x200
 8002c7a:	e6f3      	b.n	8002a64 <HAL_DMA_DeInit+0x204>
 8002c7c:	2310      	movs	r3, #16
 8002c7e:	e713      	b.n	8002aa8 <HAL_DMA_DeInit+0x248>
 8002c80:	4a0d      	ldr	r2, [pc, #52]	; (8002cb8 <HAL_DMA_DeInit+0x458>)
 8002c82:	e795      	b.n	8002bb0 <HAL_DMA_DeInit+0x350>
 8002c84:	4a0c      	ldr	r2, [pc, #48]	; (8002cb8 <HAL_DMA_DeInit+0x458>)
 8002c86:	e7c6      	b.n	8002c16 <HAL_DMA_DeInit+0x3b6>
 8002c88:	2308      	movs	r3, #8
 8002c8a:	e78e      	b.n	8002baa <HAL_DMA_DeInit+0x34a>
 8002c8c:	2310      	movs	r3, #16
 8002c8e:	e6b0      	b.n	80029f2 <HAL_DMA_DeInit+0x192>
 8002c90:	4a09      	ldr	r2, [pc, #36]	; (8002cb8 <HAL_DMA_DeInit+0x458>)
 8002c92:	e7b2      	b.n	8002bfa <HAL_DMA_DeInit+0x39a>
 8002c94:	2308      	movs	r3, #8
 8002c96:	e7bb      	b.n	8002c10 <HAL_DMA_DeInit+0x3b0>
 8002c98:	2310      	movs	r3, #16
 8002c9a:	e77c      	b.n	8002b96 <HAL_DMA_DeInit+0x336>
 8002c9c:	2308      	movs	r3, #8
 8002c9e:	e7a9      	b.n	8002bf4 <HAL_DMA_DeInit+0x394>
 8002ca0:	4a05      	ldr	r2, [pc, #20]	; (8002cb8 <HAL_DMA_DeInit+0x458>)
 8002ca2:	e79c      	b.n	8002bde <HAL_DMA_DeInit+0x37e>
 8002ca4:	40026010 	.word	0x40026010
 8002ca8:	40026040 	.word	0x40026040
 8002cac:	40026000 	.word	0x40026000
 8002cb0:	40026028 	.word	0x40026028
 8002cb4:	00800004 	.word	0x00800004
 8002cb8:	00800001 	.word	0x00800001
 8002cbc:	40026400 	.word	0x40026400

08002cc0 <HAL_DMA_Start_IT>:
HAL_DMA_Start_IT():
 8002cc0:	b4f0      	push	{r4, r5, r6, r7}
 8002cc2:	f890 4034 	ldrb.w	r4, [r0, #52]	; 0x34
 8002cc6:	2c01      	cmp	r4, #1
 8002cc8:	d02e      	beq.n	8002d28 <HAL_DMA_Start_IT+0x68>
 8002cca:	6804      	ldr	r4, [r0, #0]
 8002ccc:	6886      	ldr	r6, [r0, #8]
 8002cce:	2502      	movs	r5, #2
 8002cd0:	f880 5035 	strb.w	r5, [r0, #53]	; 0x35
 8002cd4:	6825      	ldr	r5, [r4, #0]
 8002cd6:	2e40      	cmp	r6, #64	; 0x40
 8002cd8:	f025 0501 	bic.w	r5, r5, #1
 8002cdc:	f04f 0701 	mov.w	r7, #1
 8002ce0:	f880 7034 	strb.w	r7, [r0, #52]	; 0x34
 8002ce4:	6025      	str	r5, [r4, #0]
 8002ce6:	6063      	str	r3, [r4, #4]
 8002ce8:	bf0b      	itete	eq
 8002cea:	60a2      	streq	r2, [r4, #8]
 8002cec:	60a1      	strne	r1, [r4, #8]
 8002cee:	60e1      	streq	r1, [r4, #12]
 8002cf0:	60e2      	strne	r2, [r4, #12]
 8002cf2:	6823      	ldr	r3, [r4, #0]
 8002cf4:	f043 0310 	orr.w	r3, r3, #16
 8002cf8:	6023      	str	r3, [r4, #0]
 8002cfa:	6823      	ldr	r3, [r4, #0]
 8002cfc:	f043 0308 	orr.w	r3, r3, #8
 8002d00:	6023      	str	r3, [r4, #0]
 8002d02:	6823      	ldr	r3, [r4, #0]
 8002d04:	f043 0304 	orr.w	r3, r3, #4
 8002d08:	6023      	str	r3, [r4, #0]
 8002d0a:	6963      	ldr	r3, [r4, #20]
 8002d0c:	f043 0380 	orr.w	r3, r3, #128	; 0x80
 8002d10:	6163      	str	r3, [r4, #20]
 8002d12:	6823      	ldr	r3, [r4, #0]
 8002d14:	f043 0302 	orr.w	r3, r3, #2
 8002d18:	6023      	str	r3, [r4, #0]
 8002d1a:	6823      	ldr	r3, [r4, #0]
 8002d1c:	f043 0301 	orr.w	r3, r3, #1
 8002d20:	6023      	str	r3, [r4, #0]
 8002d22:	2000      	movs	r0, #0
 8002d24:	bcf0      	pop	{r4, r5, r6, r7}
 8002d26:	4770      	bx	lr
 8002d28:	2002      	movs	r0, #2
 8002d2a:	bcf0      	pop	{r4, r5, r6, r7}
 8002d2c:	4770      	bx	lr
 8002d2e:	bf00      	nop

08002d30 <HAL_DMA_IRQHandler>:
HAL_DMA_IRQHandler():
 8002d30:	4ab1      	ldr	r2, [pc, #708]	; (8002ff8 <HAL_DMA_IRQHandler+0x2c8>)
 8002d32:	6803      	ldr	r3, [r0, #0]
 8002d34:	4293      	cmp	r3, r2
 8002d36:	b570      	push	{r4, r5, r6, lr}
 8002d38:	4604      	mov	r4, r0
 8002d3a:	f240 80b6 	bls.w	8002eaa <HAL_DMA_IRQHandler+0x17a>
 8002d3e:	49af      	ldr	r1, [pc, #700]	; (8002ffc <HAL_DMA_IRQHandler+0x2cc>)
 8002d40:	f852 0c54 	ldr.w	r0, [r2, #-84]
 8002d44:	3a58      	subs	r2, #88	; 0x58
 8002d46:	428b      	cmp	r3, r1
 8002d48:	f000 80e5 	beq.w	8002f16 <HAL_DMA_IRQHandler+0x1e6>
 8002d4c:	3118      	adds	r1, #24
 8002d4e:	428b      	cmp	r3, r1
 8002d50:	f000 84bb 	beq.w	80036ca <HAL_DMA_IRQHandler+0x99a>
 8002d54:	3118      	adds	r1, #24
 8002d56:	428b      	cmp	r3, r1
 8002d58:	f000 8591 	beq.w	800387e <HAL_DMA_IRQHandler+0xb4e>
 8002d5c:	0181      	lsls	r1, r0, #6
 8002d5e:	f100 8166 	bmi.w	800302e <HAL_DMA_IRQHandler+0x2fe>
 8002d62:	6851      	ldr	r1, [r2, #4]
 8002d64:	f44f 0280 	mov.w	r2, #4194304	; 0x400000
 8002d68:	420a      	tst	r2, r1
 8002d6a:	d02a      	beq.n	8002dc2 <HAL_DMA_IRQHandler+0x92>
 8002d6c:	695a      	ldr	r2, [r3, #20]
 8002d6e:	0612      	lsls	r2, r2, #24
 8002d70:	d523      	bpl.n	8002dba <HAL_DMA_IRQHandler+0x8a>
 8002d72:	695a      	ldr	r2, [r3, #20]
 8002d74:	49a1      	ldr	r1, [pc, #644]	; (8002ffc <HAL_DMA_IRQHandler+0x2cc>)
 8002d76:	f022 0280 	bic.w	r2, r2, #128	; 0x80
 8002d7a:	428b      	cmp	r3, r1
 8002d7c:	615a      	str	r2, [r3, #20]
 8002d7e:	f000 8611 	beq.w	80039a4 <HAL_DMA_IRQHandler+0xc74>
 8002d82:	4a9f      	ldr	r2, [pc, #636]	; (8003000 <HAL_DMA_IRQHandler+0x2d0>)
 8002d84:	4293      	cmp	r3, r2
 8002d86:	f000 8591 	beq.w	80038ac <HAL_DMA_IRQHandler+0xb7c>
 8002d8a:	499e      	ldr	r1, [pc, #632]	; (8003004 <HAL_DMA_IRQHandler+0x2d4>)
 8002d8c:	428b      	cmp	r3, r1
 8002d8e:	bf0c      	ite	eq
 8002d90:	f44f 3180 	moveq.w	r1, #65536	; 0x10000
 8002d94:	f44f 0180 	movne.w	r1, #4194304	; 0x400000
 8002d98:	4a9b      	ldr	r2, [pc, #620]	; (8003008 <HAL_DMA_IRQHandler+0x2d8>)
 8002d9a:	60d1      	str	r1, [r2, #12]
 8002d9c:	6ce2      	ldr	r2, [r4, #76]	; 0x4c
 8002d9e:	6ca1      	ldr	r1, [r4, #72]	; 0x48
 8002da0:	f042 0202 	orr.w	r2, r2, #2
 8002da4:	2004      	movs	r0, #4
 8002da6:	2500      	movs	r5, #0
 8002da8:	64e2      	str	r2, [r4, #76]	; 0x4c
 8002daa:	f884 5034 	strb.w	r5, [r4, #52]	; 0x34
 8002dae:	f884 0035 	strb.w	r0, [r4, #53]	; 0x35
 8002db2:	b111      	cbz	r1, 8002dba <HAL_DMA_IRQHandler+0x8a>
 8002db4:	4620      	mov	r0, r4
 8002db6:	4788      	blx	r1
 8002db8:	6823      	ldr	r3, [r4, #0]
 8002dba:	4a8f      	ldr	r2, [pc, #572]	; (8002ff8 <HAL_DMA_IRQHandler+0x2c8>)
 8002dbc:	4293      	cmp	r3, r2
 8002dbe:	f240 8218 	bls.w	80031f2 <HAL_DMA_IRQHandler+0x4c2>
 8002dc2:	4a8e      	ldr	r2, [pc, #568]	; (8002ffc <HAL_DMA_IRQHandler+0x2cc>)
 8002dc4:	4990      	ldr	r1, [pc, #576]	; (8003008 <HAL_DMA_IRQHandler+0x2d8>)
 8002dc6:	4293      	cmp	r3, r2
 8002dc8:	6849      	ldr	r1, [r1, #4]
 8002dca:	f000 85e5 	beq.w	8003998 <HAL_DMA_IRQHandler+0xc68>
 8002dce:	4a8c      	ldr	r2, [pc, #560]	; (8003000 <HAL_DMA_IRQHandler+0x2d0>)
 8002dd0:	4293      	cmp	r3, r2
 8002dd2:	f000 848b 	beq.w	80036ec <HAL_DMA_IRQHandler+0x9bc>
 8002dd6:	3218      	adds	r2, #24
 8002dd8:	4293      	cmp	r3, r2
 8002dda:	bf0c      	ite	eq
 8002ddc:	f44f 2280 	moveq.w	r2, #262144	; 0x40000
 8002de0:	f04f 7280 	movne.w	r2, #16777216	; 0x1000000
 8002de4:	420a      	tst	r2, r1
 8002de6:	d02e      	beq.n	8002e46 <HAL_DMA_IRQHandler+0x116>
 8002de8:	681a      	ldr	r2, [r3, #0]
 8002dea:	0790      	lsls	r0, r2, #30
 8002dec:	d527      	bpl.n	8002e3e <HAL_DMA_IRQHandler+0x10e>
 8002dee:	681a      	ldr	r2, [r3, #0]
 8002df0:	4981      	ldr	r1, [pc, #516]	; (8002ff8 <HAL_DMA_IRQHandler+0x2c8>)
 8002df2:	f022 0202 	bic.w	r2, r2, #2
 8002df6:	428b      	cmp	r3, r1
 8002df8:	601a      	str	r2, [r3, #0]
 8002dfa:	f240 8258 	bls.w	80032ae <HAL_DMA_IRQHandler+0x57e>
 8002dfe:	4a7f      	ldr	r2, [pc, #508]	; (8002ffc <HAL_DMA_IRQHandler+0x2cc>)
 8002e00:	4293      	cmp	r3, r2
 8002e02:	f000 8481 	beq.w	8003708 <HAL_DMA_IRQHandler+0x9d8>
 8002e06:	3218      	adds	r2, #24
 8002e08:	4293      	cmp	r3, r2
 8002e0a:	f000 8547 	beq.w	800389c <HAL_DMA_IRQHandler+0xb6c>
 8002e0e:	3148      	adds	r1, #72	; 0x48
 8002e10:	428b      	cmp	r3, r1
 8002e12:	bf0c      	ite	eq
 8002e14:	f44f 2180 	moveq.w	r1, #262144	; 0x40000
 8002e18:	f04f 7180 	movne.w	r1, #16777216	; 0x1000000
 8002e1c:	4a7a      	ldr	r2, [pc, #488]	; (8003008 <HAL_DMA_IRQHandler+0x2d8>)
 8002e1e:	60d1      	str	r1, [r2, #12]
 8002e20:	6ce2      	ldr	r2, [r4, #76]	; 0x4c
 8002e22:	6ca1      	ldr	r1, [r4, #72]	; 0x48
 8002e24:	f042 0204 	orr.w	r2, r2, #4
 8002e28:	2004      	movs	r0, #4
 8002e2a:	2500      	movs	r5, #0
 8002e2c:	64e2      	str	r2, [r4, #76]	; 0x4c
 8002e2e:	f884 5034 	strb.w	r5, [r4, #52]	; 0x34
 8002e32:	f884 0035 	strb.w	r0, [r4, #53]	; 0x35
 8002e36:	b111      	cbz	r1, 8002e3e <HAL_DMA_IRQHandler+0x10e>
 8002e38:	4620      	mov	r0, r4
 8002e3a:	4788      	blx	r1
 8002e3c:	6823      	ldr	r3, [r4, #0]
 8002e3e:	4a6e      	ldr	r2, [pc, #440]	; (8002ff8 <HAL_DMA_IRQHandler+0x2c8>)
 8002e40:	4293      	cmp	r3, r2
 8002e42:	f240 8218 	bls.w	8003276 <HAL_DMA_IRQHandler+0x546>
 8002e46:	4a6d      	ldr	r2, [pc, #436]	; (8002ffc <HAL_DMA_IRQHandler+0x2cc>)
 8002e48:	496f      	ldr	r1, [pc, #444]	; (8003008 <HAL_DMA_IRQHandler+0x2d8>)
 8002e4a:	4293      	cmp	r3, r2
 8002e4c:	6849      	ldr	r1, [r1, #4]
 8002e4e:	f000 85a6 	beq.w	800399e <HAL_DMA_IRQHandler+0xc6e>
 8002e52:	4a6b      	ldr	r2, [pc, #428]	; (8003000 <HAL_DMA_IRQHandler+0x2d0>)
 8002e54:	4293      	cmp	r3, r2
 8002e56:	f000 8445 	beq.w	80036e4 <HAL_DMA_IRQHandler+0x9b4>
 8002e5a:	3218      	adds	r2, #24
 8002e5c:	4293      	cmp	r3, r2
 8002e5e:	bf0c      	ite	eq
 8002e60:	f44f 1280 	moveq.w	r2, #1048576	; 0x100000
 8002e64:	f04f 6280 	movne.w	r2, #67108864	; 0x4000000
 8002e68:	420a      	tst	r2, r1
 8002e6a:	f000 82b1 	beq.w	80033d0 <HAL_DMA_IRQHandler+0x6a0>
 8002e6e:	681a      	ldr	r2, [r3, #0]
 8002e70:	0711      	lsls	r1, r2, #28
 8002e72:	f140 82aa 	bpl.w	80033ca <HAL_DMA_IRQHandler+0x69a>
 8002e76:	681a      	ldr	r2, [r3, #0]
 8002e78:	0352      	lsls	r2, r2, #13
 8002e7a:	f140 82e6 	bpl.w	800344a <HAL_DMA_IRQHandler+0x71a>
 8002e7e:	4a5e      	ldr	r2, [pc, #376]	; (8002ff8 <HAL_DMA_IRQHandler+0x2c8>)
 8002e80:	4293      	cmp	r3, r2
 8002e82:	f240 8327 	bls.w	80034d4 <HAL_DMA_IRQHandler+0x7a4>
 8002e86:	3218      	adds	r2, #24
 8002e88:	4293      	cmp	r3, r2
 8002e8a:	f000 8456 	beq.w	800373a <HAL_DMA_IRQHandler+0xa0a>
 8002e8e:	3218      	adds	r2, #24
 8002e90:	4293      	cmp	r3, r2
 8002e92:	f000 853b 	beq.w	800390c <HAL_DMA_IRQHandler+0xbdc>
 8002e96:	495b      	ldr	r1, [pc, #364]	; (8003004 <HAL_DMA_IRQHandler+0x2d4>)
 8002e98:	428b      	cmp	r3, r1
 8002e9a:	bf0c      	ite	eq
 8002e9c:	f44f 1180 	moveq.w	r1, #1048576	; 0x100000
 8002ea0:	f04f 6180 	movne.w	r1, #67108864	; 0x4000000
 8002ea4:	4a58      	ldr	r2, [pc, #352]	; (8003008 <HAL_DMA_IRQHandler+0x2d8>)
 8002ea6:	60d1      	str	r1, [r2, #12]
 8002ea8:	e32d      	b.n	8003506 <HAL_DMA_IRQHandler+0x7d6>
 8002eaa:	4a58      	ldr	r2, [pc, #352]	; (800300c <HAL_DMA_IRQHandler+0x2dc>)
 8002eac:	4293      	cmp	r3, r2
 8002eae:	d916      	bls.n	8002ede <HAL_DMA_IRQHandler+0x1ae>
 8002eb0:	4957      	ldr	r1, [pc, #348]	; (8003010 <HAL_DMA_IRQHandler+0x2e0>)
 8002eb2:	f8d2 0348 	ldr.w	r0, [r2, #840]	; 0x348
 8002eb6:	f502 7252 	add.w	r2, r2, #840	; 0x348
 8002eba:	428b      	cmp	r3, r1
 8002ebc:	f000 80b4 	beq.w	8003028 <HAL_DMA_IRQHandler+0x2f8>
 8002ec0:	3118      	adds	r1, #24
 8002ec2:	428b      	cmp	r3, r1
 8002ec4:	f000 84b7 	beq.w	8003836 <HAL_DMA_IRQHandler+0xb06>
 8002ec8:	3118      	adds	r1, #24
 8002eca:	428b      	cmp	r3, r1
 8002ecc:	f000 84df 	beq.w	800388e <HAL_DMA_IRQHandler+0xb5e>
 8002ed0:	0180      	lsls	r0, r0, #6
 8002ed2:	f100 80ac 	bmi.w	800302e <HAL_DMA_IRQHandler+0x2fe>
 8002ed6:	6812      	ldr	r2, [r2, #0]
 8002ed8:	f44f 0180 	mov.w	r1, #4194304	; 0x400000
 8002edc:	e169      	b.n	80031b2 <HAL_DMA_IRQHandler+0x482>
 8002ede:	4a4d      	ldr	r2, [pc, #308]	; (8003014 <HAL_DMA_IRQHandler+0x2e4>)
 8002ee0:	4293      	cmp	r3, r2
 8002ee2:	d91e      	bls.n	8002f22 <HAL_DMA_IRQHandler+0x1f2>
 8002ee4:	494c      	ldr	r1, [pc, #304]	; (8003018 <HAL_DMA_IRQHandler+0x2e8>)
 8002ee6:	f852 0c54 	ldr.w	r0, [r2, #-84]
 8002eea:	3a58      	subs	r2, #88	; 0x58
 8002eec:	428b      	cmp	r3, r1
 8002eee:	f000 8450 	beq.w	8003792 <HAL_DMA_IRQHandler+0xa62>
 8002ef2:	3118      	adds	r1, #24
 8002ef4:	428b      	cmp	r3, r1
 8002ef6:	f000 8425 	beq.w	8003744 <HAL_DMA_IRQHandler+0xa14>
 8002efa:	3118      	adds	r1, #24
 8002efc:	428b      	cmp	r3, r1
 8002efe:	f000 8518 	beq.w	8003932 <HAL_DMA_IRQHandler+0xc02>
 8002f02:	0186      	lsls	r6, r0, #6
 8002f04:	f100 8093 	bmi.w	800302e <HAL_DMA_IRQHandler+0x2fe>
 8002f08:	6852      	ldr	r2, [r2, #4]
 8002f0a:	f44f 0180 	mov.w	r1, #4194304	; 0x400000
 8002f0e:	4211      	tst	r1, r2
 8002f10:	f040 8151 	bne.w	80031b6 <HAL_DMA_IRQHandler+0x486>
 8002f14:	e185      	b.n	8003222 <HAL_DMA_IRQHandler+0x4f2>
 8002f16:	0700      	lsls	r0, r0, #28
 8002f18:	f100 8089 	bmi.w	800302e <HAL_DMA_IRQHandler+0x2fe>
 8002f1c:	6851      	ldr	r1, [r2, #4]
 8002f1e:	4a3f      	ldr	r2, [pc, #252]	; (800301c <HAL_DMA_IRQHandler+0x2ec>)
 8002f20:	e722      	b.n	8002d68 <HAL_DMA_IRQHandler+0x38>
 8002f22:	493f      	ldr	r1, [pc, #252]	; (8003020 <HAL_DMA_IRQHandler+0x2f0>)
 8002f24:	4a3f      	ldr	r2, [pc, #252]	; (8003024 <HAL_DMA_IRQHandler+0x2f4>)
 8002f26:	428b      	cmp	r3, r1
 8002f28:	6810      	ldr	r0, [r2, #0]
 8002f2a:	f000 8424 	beq.w	8003776 <HAL_DMA_IRQHandler+0xa46>
 8002f2e:	3118      	adds	r1, #24
 8002f30:	428b      	cmp	r3, r1
 8002f32:	f000 83fa 	beq.w	800372a <HAL_DMA_IRQHandler+0x9fa>
 8002f36:	3118      	adds	r1, #24
 8002f38:	428b      	cmp	r3, r1
 8002f3a:	f000 84cd 	beq.w	80038d8 <HAL_DMA_IRQHandler+0xba8>
 8002f3e:	0180      	lsls	r0, r0, #6
 8002f40:	d475      	bmi.n	800302e <HAL_DMA_IRQHandler+0x2fe>
 8002f42:	6812      	ldr	r2, [r2, #0]
 8002f44:	f44f 0180 	mov.w	r1, #4194304	; 0x400000
 8002f48:	4211      	tst	r1, r2
 8002f4a:	f040 8134 	bne.w	80031b6 <HAL_DMA_IRQHandler+0x486>
 8002f4e:	4934      	ldr	r1, [pc, #208]	; (8003020 <HAL_DMA_IRQHandler+0x2f0>)
 8002f50:	4a34      	ldr	r2, [pc, #208]	; (8003024 <HAL_DMA_IRQHandler+0x2f4>)
 8002f52:	428b      	cmp	r3, r1
 8002f54:	6812      	ldr	r2, [r2, #0]
 8002f56:	f000 8415 	beq.w	8003784 <HAL_DMA_IRQHandler+0xa54>
 8002f5a:	3118      	adds	r1, #24
 8002f5c:	428b      	cmp	r3, r1
 8002f5e:	f000 83e1 	beq.w	8003724 <HAL_DMA_IRQHandler+0x9f4>
 8002f62:	3118      	adds	r1, #24
 8002f64:	428b      	cmp	r3, r1
 8002f66:	bf0c      	ite	eq
 8002f68:	f44f 2180 	moveq.w	r1, #262144	; 0x40000
 8002f6c:	f04f 7180 	movne.w	r1, #16777216	; 0x1000000
 8002f70:	4211      	tst	r1, r2
 8002f72:	f47f af39 	bne.w	8002de8 <HAL_DMA_IRQHandler+0xb8>
 8002f76:	492a      	ldr	r1, [pc, #168]	; (8003020 <HAL_DMA_IRQHandler+0x2f0>)
 8002f78:	4a2a      	ldr	r2, [pc, #168]	; (8003024 <HAL_DMA_IRQHandler+0x2f4>)
 8002f7a:	428b      	cmp	r3, r1
 8002f7c:	6812      	ldr	r2, [r2, #0]
 8002f7e:	f000 840f 	beq.w	80037a0 <HAL_DMA_IRQHandler+0xa70>
 8002f82:	3118      	adds	r1, #24
 8002f84:	428b      	cmp	r3, r1
 8002f86:	f000 83ca 	beq.w	800371e <HAL_DMA_IRQHandler+0x9ee>
 8002f8a:	3118      	adds	r1, #24
 8002f8c:	428b      	cmp	r3, r1
 8002f8e:	bf0c      	ite	eq
 8002f90:	f44f 1180 	moveq.w	r1, #1048576	; 0x100000
 8002f94:	f04f 6180 	movne.w	r1, #67108864	; 0x4000000
 8002f98:	4211      	tst	r1, r2
 8002f9a:	f47f af68 	bne.w	8002e6e <HAL_DMA_IRQHandler+0x13e>
 8002f9e:	4920      	ldr	r1, [pc, #128]	; (8003020 <HAL_DMA_IRQHandler+0x2f0>)
 8002fa0:	4a20      	ldr	r2, [pc, #128]	; (8003024 <HAL_DMA_IRQHandler+0x2f4>)
 8002fa2:	428b      	cmp	r3, r1
 8002fa4:	6812      	ldr	r2, [r2, #0]
 8002fa6:	f040 81a3 	bne.w	80032f0 <HAL_DMA_IRQHandler+0x5c0>
 8002faa:	2120      	movs	r1, #32
 8002fac:	4211      	tst	r1, r2
 8002fae:	bf14      	ite	ne
 8002fb0:	2201      	movne	r2, #1
 8002fb2:	2200      	moveq	r2, #0
 8002fb4:	2a00      	cmp	r2, #0
 8002fb6:	f000 81e6 	beq.w	8003386 <HAL_DMA_IRQHandler+0x656>
 8002fba:	681a      	ldr	r2, [r3, #0]
 8002fbc:	06d1      	lsls	r1, r2, #27
 8002fbe:	f140 81e2 	bpl.w	8003386 <HAL_DMA_IRQHandler+0x656>
 8002fc2:	681a      	ldr	r2, [r3, #0]
 8002fc4:	0352      	lsls	r2, r2, #13
 8002fc6:	f140 8224 	bpl.w	8003412 <HAL_DMA_IRQHandler+0x6e2>
 8002fca:	4a0b      	ldr	r2, [pc, #44]	; (8002ff8 <HAL_DMA_IRQHandler+0x2c8>)
 8002fcc:	4293      	cmp	r3, r2
 8002fce:	f240 81b9 	bls.w	8003344 <HAL_DMA_IRQHandler+0x614>
 8002fd2:	3218      	adds	r2, #24
 8002fd4:	4293      	cmp	r3, r2
 8002fd6:	f000 839e 	beq.w	8003716 <HAL_DMA_IRQHandler+0x9e6>
 8002fda:	3218      	adds	r2, #24
 8002fdc:	4293      	cmp	r3, r2
 8002fde:	f000 8474 	beq.w	80038ca <HAL_DMA_IRQHandler+0xb9a>
 8002fe2:	4908      	ldr	r1, [pc, #32]	; (8003004 <HAL_DMA_IRQHandler+0x2d4>)
 8002fe4:	428b      	cmp	r3, r1
 8002fe6:	bf0c      	ite	eq
 8002fe8:	f44f 1100 	moveq.w	r1, #2097152	; 0x200000
 8002fec:	f04f 6100 	movne.w	r1, #134217728	; 0x8000000
 8002ff0:	4a05      	ldr	r2, [pc, #20]	; (8003008 <HAL_DMA_IRQHandler+0x2d8>)
 8002ff2:	60d1      	str	r1, [r2, #12]
 8002ff4:	e1bf      	b.n	8003376 <HAL_DMA_IRQHandler+0x646>
 8002ff6:	bf00      	nop
 8002ff8:	40026458 	.word	0x40026458
 8002ffc:	40026470 	.word	0x40026470
 8003000:	40026488 	.word	0x40026488
 8003004:	400264a0 	.word	0x400264a0
 8003008:	40026400 	.word	0x40026400
 800300c:	400260b8 	.word	0x400260b8
 8003010:	40026410 	.word	0x40026410
 8003014:	40026058 	.word	0x40026058
 8003018:	40026070 	.word	0x40026070
 800301c:	00800001 	.word	0x00800001
 8003020:	40026010 	.word	0x40026010
 8003024:	40026000 	.word	0x40026000
 8003028:	0706      	lsls	r6, r0, #28
 800302a:	f140 80c0 	bpl.w	80031ae <HAL_DMA_IRQHandler+0x47e>
 800302e:	681a      	ldr	r2, [r3, #0]
 8003030:	0755      	lsls	r5, r2, #29
 8003032:	d526      	bpl.n	8003082 <HAL_DMA_IRQHandler+0x352>
 8003034:	681a      	ldr	r2, [r3, #0]
 8003036:	49b4      	ldr	r1, [pc, #720]	; (8003308 <HAL_DMA_IRQHandler+0x5d8>)
 8003038:	f022 0204 	bic.w	r2, r2, #4
 800303c:	428b      	cmp	r3, r1
 800303e:	601a      	str	r2, [r3, #0]
 8003040:	d95d      	bls.n	80030fe <HAL_DMA_IRQHandler+0x3ce>
 8003042:	4ab2      	ldr	r2, [pc, #712]	; (800330c <HAL_DMA_IRQHandler+0x5dc>)
 8003044:	4293      	cmp	r3, r2
 8003046:	f000 835d 	beq.w	8003704 <HAL_DMA_IRQHandler+0x9d4>
 800304a:	3218      	adds	r2, #24
 800304c:	4293      	cmp	r3, r2
 800304e:	f000 8429 	beq.w	80038a4 <HAL_DMA_IRQHandler+0xb74>
 8003052:	48af      	ldr	r0, [pc, #700]	; (8003310 <HAL_DMA_IRQHandler+0x5e0>)
 8003054:	4283      	cmp	r3, r0
 8003056:	bf14      	ite	ne
 8003058:	f04f 7000 	movne.w	r0, #33554432	; 0x2000000
 800305c:	f44f 2000 	moveq.w	r0, #524288	; 0x80000
 8003060:	49ac      	ldr	r1, [pc, #688]	; (8003314 <HAL_DMA_IRQHandler+0x5e4>)
 8003062:	6ca2      	ldr	r2, [r4, #72]	; 0x48
 8003064:	60c8      	str	r0, [r1, #12]
 8003066:	6ce1      	ldr	r1, [r4, #76]	; 0x4c
 8003068:	2004      	movs	r0, #4
 800306a:	f041 0101 	orr.w	r1, r1, #1
 800306e:	2500      	movs	r5, #0
 8003070:	64e1      	str	r1, [r4, #76]	; 0x4c
 8003072:	f884 5034 	strb.w	r5, [r4, #52]	; 0x34
 8003076:	f884 0035 	strb.w	r0, [r4, #53]	; 0x35
 800307a:	b12a      	cbz	r2, 8003088 <HAL_DMA_IRQHandler+0x358>
 800307c:	4620      	mov	r0, r4
 800307e:	4790      	blx	r2
 8003080:	6823      	ldr	r3, [r4, #0]
 8003082:	4aa1      	ldr	r2, [pc, #644]	; (8003308 <HAL_DMA_IRQHandler+0x5d8>)
 8003084:	4293      	cmp	r3, r2
 8003086:	d911      	bls.n	80030ac <HAL_DMA_IRQHandler+0x37c>
 8003088:	4aa0      	ldr	r2, [pc, #640]	; (800330c <HAL_DMA_IRQHandler+0x5dc>)
 800308a:	49a2      	ldr	r1, [pc, #648]	; (8003314 <HAL_DMA_IRQHandler+0x5e4>)
 800308c:	4293      	cmp	r3, r2
 800308e:	6849      	ldr	r1, [r1, #4]
 8003090:	f43f af45 	beq.w	8002f1e <HAL_DMA_IRQHandler+0x1ee>
 8003094:	4aa0      	ldr	r2, [pc, #640]	; (8003318 <HAL_DMA_IRQHandler+0x5e8>)
 8003096:	4293      	cmp	r3, r2
 8003098:	f000 831e 	beq.w	80036d8 <HAL_DMA_IRQHandler+0x9a8>
 800309c:	3218      	adds	r2, #24
 800309e:	4293      	cmp	r3, r2
 80030a0:	bf0c      	ite	eq
 80030a2:	f44f 3280 	moveq.w	r2, #65536	; 0x10000
 80030a6:	f44f 0280 	movne.w	r2, #4194304	; 0x400000
 80030aa:	e65d      	b.n	8002d68 <HAL_DMA_IRQHandler+0x38>
 80030ac:	4a9b      	ldr	r2, [pc, #620]	; (800331c <HAL_DMA_IRQHandler+0x5ec>)
 80030ae:	4293      	cmp	r3, r2
 80030b0:	d910      	bls.n	80030d4 <HAL_DMA_IRQHandler+0x3a4>
 80030b2:	499b      	ldr	r1, [pc, #620]	; (8003320 <HAL_DMA_IRQHandler+0x5f0>)
 80030b4:	4a97      	ldr	r2, [pc, #604]	; (8003314 <HAL_DMA_IRQHandler+0x5e4>)
 80030b6:	428b      	cmp	r3, r1
 80030b8:	6812      	ldr	r2, [r2, #0]
 80030ba:	d079      	beq.n	80031b0 <HAL_DMA_IRQHandler+0x480>
 80030bc:	3118      	adds	r1, #24
 80030be:	428b      	cmp	r3, r1
 80030c0:	f000 8318 	beq.w	80036f4 <HAL_DMA_IRQHandler+0x9c4>
 80030c4:	3118      	adds	r1, #24
 80030c6:	428b      	cmp	r3, r1
 80030c8:	bf0c      	ite	eq
 80030ca:	f44f 3180 	moveq.w	r1, #65536	; 0x10000
 80030ce:	f44f 0180 	movne.w	r1, #4194304	; 0x400000
 80030d2:	e06e      	b.n	80031b2 <HAL_DMA_IRQHandler+0x482>
 80030d4:	4a93      	ldr	r2, [pc, #588]	; (8003324 <HAL_DMA_IRQHandler+0x5f4>)
 80030d6:	4293      	cmp	r3, r2
 80030d8:	d957      	bls.n	800318a <HAL_DMA_IRQHandler+0x45a>
 80030da:	4993      	ldr	r1, [pc, #588]	; (8003328 <HAL_DMA_IRQHandler+0x5f8>)
 80030dc:	4a93      	ldr	r2, [pc, #588]	; (800332c <HAL_DMA_IRQHandler+0x5fc>)
 80030de:	428b      	cmp	r3, r1
 80030e0:	6852      	ldr	r2, [r2, #4]
 80030e2:	f000 835a 	beq.w	800379a <HAL_DMA_IRQHandler+0xa6a>
 80030e6:	3118      	adds	r1, #24
 80030e8:	428b      	cmp	r3, r1
 80030ea:	f000 8332 	beq.w	8003752 <HAL_DMA_IRQHandler+0xa22>
 80030ee:	3118      	adds	r1, #24
 80030f0:	428b      	cmp	r3, r1
 80030f2:	bf0c      	ite	eq
 80030f4:	f44f 3180 	moveq.w	r1, #65536	; 0x10000
 80030f8:	f44f 0180 	movne.w	r1, #4194304	; 0x400000
 80030fc:	e707      	b.n	8002f0e <HAL_DMA_IRQHandler+0x1de>
 80030fe:	4a87      	ldr	r2, [pc, #540]	; (800331c <HAL_DMA_IRQHandler+0x5ec>)
 8003100:	4293      	cmp	r3, r2
 8003102:	d91f      	bls.n	8003144 <HAL_DMA_IRQHandler+0x414>
 8003104:	f502 7256 	add.w	r2, r2, #856	; 0x358
 8003108:	4293      	cmp	r3, r2
 800310a:	f000 8302 	beq.w	8003712 <HAL_DMA_IRQHandler+0x9e2>
 800310e:	3218      	adds	r2, #24
 8003110:	4293      	cmp	r3, r2
 8003112:	f000 83ce 	beq.w	80038b2 <HAL_DMA_IRQHandler+0xb82>
 8003116:	4886      	ldr	r0, [pc, #536]	; (8003330 <HAL_DMA_IRQHandler+0x600>)
 8003118:	4283      	cmp	r3, r0
 800311a:	bf14      	ite	ne
 800311c:	f04f 7000 	movne.w	r0, #33554432	; 0x2000000
 8003120:	f44f 2000 	moveq.w	r0, #524288	; 0x80000
 8003124:	497b      	ldr	r1, [pc, #492]	; (8003314 <HAL_DMA_IRQHandler+0x5e4>)
 8003126:	6ca2      	ldr	r2, [r4, #72]	; 0x48
 8003128:	6088      	str	r0, [r1, #8]
 800312a:	6ce1      	ldr	r1, [r4, #76]	; 0x4c
 800312c:	2004      	movs	r0, #4
 800312e:	f041 0101 	orr.w	r1, r1, #1
 8003132:	2500      	movs	r5, #0
 8003134:	64e1      	str	r1, [r4, #76]	; 0x4c
 8003136:	f884 5034 	strb.w	r5, [r4, #52]	; 0x34
 800313a:	f884 0035 	strb.w	r0, [r4, #53]	; 0x35
 800313e:	2a00      	cmp	r2, #0
 8003140:	d19c      	bne.n	800307c <HAL_DMA_IRQHandler+0x34c>
 8003142:	e7b6      	b.n	80030b2 <HAL_DMA_IRQHandler+0x382>
 8003144:	4a77      	ldr	r2, [pc, #476]	; (8003324 <HAL_DMA_IRQHandler+0x5f4>)
 8003146:	4293      	cmp	r3, r2
 8003148:	f200 829f 	bhi.w	800368a <HAL_DMA_IRQHandler+0x95a>
 800314c:	4a79      	ldr	r2, [pc, #484]	; (8003334 <HAL_DMA_IRQHandler+0x604>)
 800314e:	4293      	cmp	r3, r2
 8003150:	f000 837d 	beq.w	800384e <HAL_DMA_IRQHandler+0xb1e>
 8003154:	3218      	adds	r2, #24
 8003156:	4293      	cmp	r3, r2
 8003158:	f000 83d1 	beq.w	80038fe <HAL_DMA_IRQHandler+0xbce>
 800315c:	4876      	ldr	r0, [pc, #472]	; (8003338 <HAL_DMA_IRQHandler+0x608>)
 800315e:	4283      	cmp	r3, r0
 8003160:	bf14      	ite	ne
 8003162:	f04f 7000 	movne.w	r0, #33554432	; 0x2000000
 8003166:	f44f 2000 	moveq.w	r0, #524288	; 0x80000
 800316a:	4970      	ldr	r1, [pc, #448]	; (800332c <HAL_DMA_IRQHandler+0x5fc>)
 800316c:	6ca2      	ldr	r2, [r4, #72]	; 0x48
 800316e:	6088      	str	r0, [r1, #8]
 8003170:	6ce1      	ldr	r1, [r4, #76]	; 0x4c
 8003172:	2004      	movs	r0, #4
 8003174:	f041 0101 	orr.w	r1, r1, #1
 8003178:	2500      	movs	r5, #0
 800317a:	64e1      	str	r1, [r4, #76]	; 0x4c
 800317c:	f884 5034 	strb.w	r5, [r4, #52]	; 0x34
 8003180:	f884 0035 	strb.w	r0, [r4, #53]	; 0x35
 8003184:	2a00      	cmp	r2, #0
 8003186:	f47f af79 	bne.w	800307c <HAL_DMA_IRQHandler+0x34c>
 800318a:	496a      	ldr	r1, [pc, #424]	; (8003334 <HAL_DMA_IRQHandler+0x604>)
 800318c:	4a67      	ldr	r2, [pc, #412]	; (800332c <HAL_DMA_IRQHandler+0x5fc>)
 800318e:	428b      	cmp	r3, r1
 8003190:	6812      	ldr	r2, [r2, #0]
 8003192:	f000 82f4 	beq.w	800377e <HAL_DMA_IRQHandler+0xa4e>
 8003196:	3118      	adds	r1, #24
 8003198:	428b      	cmp	r3, r1
 800319a:	f000 82cc 	beq.w	8003736 <HAL_DMA_IRQHandler+0xa06>
 800319e:	3118      	adds	r1, #24
 80031a0:	428b      	cmp	r3, r1
 80031a2:	bf0c      	ite	eq
 80031a4:	f44f 3180 	moveq.w	r1, #65536	; 0x10000
 80031a8:	f44f 0180 	movne.w	r1, #4194304	; 0x400000
 80031ac:	e6cc      	b.n	8002f48 <HAL_DMA_IRQHandler+0x218>
 80031ae:	6812      	ldr	r2, [r2, #0]
 80031b0:	4962      	ldr	r1, [pc, #392]	; (800333c <HAL_DMA_IRQHandler+0x60c>)
 80031b2:	4211      	tst	r1, r2
 80031b4:	d020      	beq.n	80031f8 <HAL_DMA_IRQHandler+0x4c8>
 80031b6:	695a      	ldr	r2, [r3, #20]
 80031b8:	0611      	lsls	r1, r2, #24
 80031ba:	f57f adfe 	bpl.w	8002dba <HAL_DMA_IRQHandler+0x8a>
 80031be:	695a      	ldr	r2, [r3, #20]
 80031c0:	4956      	ldr	r1, [pc, #344]	; (800331c <HAL_DMA_IRQHandler+0x5ec>)
 80031c2:	f022 0280 	bic.w	r2, r2, #128	; 0x80
 80031c6:	428b      	cmp	r3, r1
 80031c8:	615a      	str	r2, [r3, #20]
 80031ca:	f240 81bd 	bls.w	8003548 <HAL_DMA_IRQHandler+0x818>
 80031ce:	4a54      	ldr	r2, [pc, #336]	; (8003320 <HAL_DMA_IRQHandler+0x5f0>)
 80031d0:	4293      	cmp	r3, r2
 80031d2:	f000 8336 	beq.w	8003842 <HAL_DMA_IRQHandler+0xb12>
 80031d6:	3218      	adds	r2, #24
 80031d8:	4293      	cmp	r3, r2
 80031da:	f000 8370 	beq.w	80038be <HAL_DMA_IRQHandler+0xb8e>
 80031de:	4954      	ldr	r1, [pc, #336]	; (8003330 <HAL_DMA_IRQHandler+0x600>)
 80031e0:	428b      	cmp	r3, r1
 80031e2:	bf0c      	ite	eq
 80031e4:	f44f 3180 	moveq.w	r1, #65536	; 0x10000
 80031e8:	f44f 0180 	movne.w	r1, #4194304	; 0x400000
 80031ec:	4a49      	ldr	r2, [pc, #292]	; (8003314 <HAL_DMA_IRQHandler+0x5e4>)
 80031ee:	6091      	str	r1, [r2, #8]
 80031f0:	e5d4      	b.n	8002d9c <HAL_DMA_IRQHandler+0x6c>
 80031f2:	4a4a      	ldr	r2, [pc, #296]	; (800331c <HAL_DMA_IRQHandler+0x5ec>)
 80031f4:	4293      	cmp	r3, r2
 80031f6:	d910      	bls.n	800321a <HAL_DMA_IRQHandler+0x4ea>
 80031f8:	4949      	ldr	r1, [pc, #292]	; (8003320 <HAL_DMA_IRQHandler+0x5f0>)
 80031fa:	4a46      	ldr	r2, [pc, #280]	; (8003314 <HAL_DMA_IRQHandler+0x5e4>)
 80031fc:	428b      	cmp	r3, r1
 80031fe:	6812      	ldr	r2, [r2, #0]
 8003200:	d024      	beq.n	800324c <HAL_DMA_IRQHandler+0x51c>
 8003202:	3118      	adds	r1, #24
 8003204:	428b      	cmp	r3, r1
 8003206:	f000 827a 	beq.w	80036fe <HAL_DMA_IRQHandler+0x9ce>
 800320a:	3118      	adds	r1, #24
 800320c:	428b      	cmp	r3, r1
 800320e:	bf0c      	ite	eq
 8003210:	f44f 2180 	moveq.w	r1, #262144	; 0x40000
 8003214:	f04f 7180 	movne.w	r1, #16777216	; 0x1000000
 8003218:	e019      	b.n	800324e <HAL_DMA_IRQHandler+0x51e>
 800321a:	4a42      	ldr	r2, [pc, #264]	; (8003324 <HAL_DMA_IRQHandler+0x5f4>)
 800321c:	4293      	cmp	r3, r2
 800321e:	f67f ae96 	bls.w	8002f4e <HAL_DMA_IRQHandler+0x21e>
 8003222:	4941      	ldr	r1, [pc, #260]	; (8003328 <HAL_DMA_IRQHandler+0x5f8>)
 8003224:	4a41      	ldr	r2, [pc, #260]	; (800332c <HAL_DMA_IRQHandler+0x5fc>)
 8003226:	428b      	cmp	r3, r1
 8003228:	6852      	ldr	r2, [r2, #4]
 800322a:	f000 82ae 	beq.w	800378a <HAL_DMA_IRQHandler+0xa5a>
 800322e:	3118      	adds	r1, #24
 8003230:	428b      	cmp	r3, r1
 8003232:	f000 8294 	beq.w	800375e <HAL_DMA_IRQHandler+0xa2e>
 8003236:	3118      	adds	r1, #24
 8003238:	428b      	cmp	r3, r1
 800323a:	bf0c      	ite	eq
 800323c:	f44f 2180 	moveq.w	r1, #262144	; 0x40000
 8003240:	f04f 7180 	movne.w	r1, #16777216	; 0x1000000
 8003244:	4211      	tst	r1, r2
 8003246:	f47f adcf 	bne.w	8002de8 <HAL_DMA_IRQHandler+0xb8>
 800324a:	e01b      	b.n	8003284 <HAL_DMA_IRQHandler+0x554>
 800324c:	493c      	ldr	r1, [pc, #240]	; (8003340 <HAL_DMA_IRQHandler+0x610>)
 800324e:	4211      	tst	r1, r2
 8003250:	f47f adca 	bne.w	8002de8 <HAL_DMA_IRQHandler+0xb8>
 8003254:	4932      	ldr	r1, [pc, #200]	; (8003320 <HAL_DMA_IRQHandler+0x5f0>)
 8003256:	4a2f      	ldr	r2, [pc, #188]	; (8003314 <HAL_DMA_IRQHandler+0x5e4>)
 8003258:	428b      	cmp	r3, r1
 800325a:	6812      	ldr	r2, [r2, #0]
 800325c:	d03e      	beq.n	80032dc <HAL_DMA_IRQHandler+0x5ac>
 800325e:	3118      	adds	r1, #24
 8003260:	428b      	cmp	r3, r1
 8003262:	f000 8249 	beq.w	80036f8 <HAL_DMA_IRQHandler+0x9c8>
 8003266:	3118      	adds	r1, #24
 8003268:	428b      	cmp	r3, r1
 800326a:	bf0c      	ite	eq
 800326c:	f44f 1180 	moveq.w	r1, #1048576	; 0x100000
 8003270:	f04f 6180 	movne.w	r1, #67108864	; 0x4000000
 8003274:	e033      	b.n	80032de <HAL_DMA_IRQHandler+0x5ae>
 8003276:	4a29      	ldr	r2, [pc, #164]	; (800331c <HAL_DMA_IRQHandler+0x5ec>)
 8003278:	4293      	cmp	r3, r2
 800327a:	d8eb      	bhi.n	8003254 <HAL_DMA_IRQHandler+0x524>
 800327c:	4a29      	ldr	r2, [pc, #164]	; (8003324 <HAL_DMA_IRQHandler+0x5f4>)
 800327e:	4293      	cmp	r3, r2
 8003280:	f67f ae79 	bls.w	8002f76 <HAL_DMA_IRQHandler+0x246>
 8003284:	4928      	ldr	r1, [pc, #160]	; (8003328 <HAL_DMA_IRQHandler+0x5f8>)
 8003286:	4a29      	ldr	r2, [pc, #164]	; (800332c <HAL_DMA_IRQHandler+0x5fc>)
 8003288:	428b      	cmp	r3, r1
 800328a:	6852      	ldr	r2, [r2, #4]
 800328c:	f000 827f 	beq.w	800378e <HAL_DMA_IRQHandler+0xa5e>
 8003290:	3118      	adds	r1, #24
 8003292:	428b      	cmp	r3, r1
 8003294:	f000 8260 	beq.w	8003758 <HAL_DMA_IRQHandler+0xa28>
 8003298:	3118      	adds	r1, #24
 800329a:	428b      	cmp	r3, r1
 800329c:	bf0c      	ite	eq
 800329e:	f44f 1180 	moveq.w	r1, #1048576	; 0x100000
 80032a2:	f04f 6180 	movne.w	r1, #67108864	; 0x4000000
 80032a6:	4211      	tst	r1, r2
 80032a8:	f47f ade1 	bne.w	8002e6e <HAL_DMA_IRQHandler+0x13e>
 80032ac:	e0aa      	b.n	8003404 <HAL_DMA_IRQHandler+0x6d4>
 80032ae:	4a1b      	ldr	r2, [pc, #108]	; (800331c <HAL_DMA_IRQHandler+0x5ec>)
 80032b0:	4293      	cmp	r3, r2
 80032b2:	f240 8134 	bls.w	800351e <HAL_DMA_IRQHandler+0x7ee>
 80032b6:	f502 7256 	add.w	r2, r2, #856	; 0x358
 80032ba:	4293      	cmp	r3, r2
 80032bc:	f000 8227 	beq.w	800370e <HAL_DMA_IRQHandler+0x9de>
 80032c0:	3218      	adds	r2, #24
 80032c2:	4293      	cmp	r3, r2
 80032c4:	f000 82f8 	beq.w	80038b8 <HAL_DMA_IRQHandler+0xb88>
 80032c8:	4919      	ldr	r1, [pc, #100]	; (8003330 <HAL_DMA_IRQHandler+0x600>)
 80032ca:	428b      	cmp	r3, r1
 80032cc:	bf0c      	ite	eq
 80032ce:	f44f 2180 	moveq.w	r1, #262144	; 0x40000
 80032d2:	f04f 7180 	movne.w	r1, #16777216	; 0x1000000
 80032d6:	4a0f      	ldr	r2, [pc, #60]	; (8003314 <HAL_DMA_IRQHandler+0x5e4>)
 80032d8:	6091      	str	r1, [r2, #8]
 80032da:	e5a1      	b.n	8002e20 <HAL_DMA_IRQHandler+0xf0>
 80032dc:	2110      	movs	r1, #16
 80032de:	4211      	tst	r1, r2
 80032e0:	f47f adc5 	bne.w	8002e6e <HAL_DMA_IRQHandler+0x13e>
 80032e4:	490e      	ldr	r1, [pc, #56]	; (8003320 <HAL_DMA_IRQHandler+0x5f0>)
 80032e6:	4a0b      	ldr	r2, [pc, #44]	; (8003314 <HAL_DMA_IRQHandler+0x5e4>)
 80032e8:	428b      	cmp	r3, r1
 80032ea:	6812      	ldr	r2, [r2, #0]
 80032ec:	f43f ae5d 	beq.w	8002faa <HAL_DMA_IRQHandler+0x27a>
 80032f0:	3118      	adds	r1, #24
 80032f2:	428b      	cmp	r3, r1
 80032f4:	f000 8257 	beq.w	80037a6 <HAL_DMA_IRQHandler+0xa76>
 80032f8:	3118      	adds	r1, #24
 80032fa:	428b      	cmp	r3, r1
 80032fc:	bf0c      	ite	eq
 80032fe:	f44f 1100 	moveq.w	r1, #2097152	; 0x200000
 8003302:	f04f 6100 	movne.w	r1, #134217728	; 0x8000000
 8003306:	e651      	b.n	8002fac <HAL_DMA_IRQHandler+0x27c>
 8003308:	40026458 	.word	0x40026458
 800330c:	40026470 	.word	0x40026470
 8003310:	400264a0 	.word	0x400264a0
 8003314:	40026400 	.word	0x40026400
 8003318:	40026488 	.word	0x40026488
 800331c:	400260b8 	.word	0x400260b8
 8003320:	40026410 	.word	0x40026410
 8003324:	40026058 	.word	0x40026058
 8003328:	40026070 	.word	0x40026070
 800332c:	40026000 	.word	0x40026000
 8003330:	40026440 	.word	0x40026440
 8003334:	40026010 	.word	0x40026010
 8003338:	40026040 	.word	0x40026040
 800333c:	00800001 	.word	0x00800001
 8003340:	00800004 	.word	0x00800004
 8003344:	4aba      	ldr	r2, [pc, #744]	; (8003630 <HAL_DMA_IRQHandler+0x900>)
 8003346:	4293      	cmp	r3, r2
 8003348:	f200 8113 	bhi.w	8003572 <HAL_DMA_IRQHandler+0x842>
 800334c:	4ab9      	ldr	r2, [pc, #740]	; (8003634 <HAL_DMA_IRQHandler+0x904>)
 800334e:	4293      	cmp	r3, r2
 8003350:	f240 822d 	bls.w	80037ae <HAL_DMA_IRQHandler+0xa7e>
 8003354:	3218      	adds	r2, #24
 8003356:	4293      	cmp	r3, r2
 8003358:	f000 82b5 	beq.w	80038c6 <HAL_DMA_IRQHandler+0xb96>
 800335c:	3218      	adds	r2, #24
 800335e:	4293      	cmp	r3, r2
 8003360:	f000 8311 	beq.w	8003986 <HAL_DMA_IRQHandler+0xc56>
 8003364:	49b4      	ldr	r1, [pc, #720]	; (8003638 <HAL_DMA_IRQHandler+0x908>)
 8003366:	428b      	cmp	r3, r1
 8003368:	bf0c      	ite	eq
 800336a:	f44f 1100 	moveq.w	r1, #2097152	; 0x200000
 800336e:	f04f 6100 	movne.w	r1, #134217728	; 0x8000000
 8003372:	4ab2      	ldr	r2, [pc, #712]	; (800363c <HAL_DMA_IRQHandler+0x90c>)
 8003374:	60d1      	str	r1, [r2, #12]
 8003376:	681a      	ldr	r2, [r3, #0]
 8003378:	0316      	lsls	r6, r2, #12
 800337a:	f100 81f3 	bmi.w	8003764 <HAL_DMA_IRQHandler+0xa34>
 800337e:	6c63      	ldr	r3, [r4, #68]	; 0x44
 8003380:	2b00      	cmp	r3, #0
 8003382:	f040 80a3 	bne.w	80034cc <HAL_DMA_IRQHandler+0x79c>
 8003386:	bd70      	pop	{r4, r5, r6, pc}
 8003388:	4aa9      	ldr	r2, [pc, #676]	; (8003630 <HAL_DMA_IRQHandler+0x900>)
 800338a:	4293      	cmp	r3, r2
 800338c:	f200 816a 	bhi.w	8003664 <HAL_DMA_IRQHandler+0x934>
 8003390:	4aa8      	ldr	r2, [pc, #672]	; (8003634 <HAL_DMA_IRQHandler+0x904>)
 8003392:	4293      	cmp	r3, r2
 8003394:	f240 822d 	bls.w	80037f2 <HAL_DMA_IRQHandler+0xac2>
 8003398:	3218      	adds	r2, #24
 800339a:	4293      	cmp	r3, r2
 800339c:	f000 82b2 	beq.w	8003904 <HAL_DMA_IRQHandler+0xbd4>
 80033a0:	3218      	adds	r2, #24
 80033a2:	4293      	cmp	r3, r2
 80033a4:	f000 82f5 	beq.w	8003992 <HAL_DMA_IRQHandler+0xc62>
 80033a8:	49a3      	ldr	r1, [pc, #652]	; (8003638 <HAL_DMA_IRQHandler+0x908>)
 80033aa:	428b      	cmp	r3, r1
 80033ac:	bf0c      	ite	eq
 80033ae:	f44f 1180 	moveq.w	r1, #1048576	; 0x100000
 80033b2:	f04f 6180 	movne.w	r1, #67108864	; 0x4000000
 80033b6:	4aa1      	ldr	r2, [pc, #644]	; (800363c <HAL_DMA_IRQHandler+0x90c>)
 80033b8:	60d1      	str	r1, [r2, #12]
 80033ba:	2231      	movs	r2, #49	; 0x31
 80033bc:	f884 2035 	strb.w	r2, [r4, #53]	; 0x35
 80033c0:	6c22      	ldr	r2, [r4, #64]	; 0x40
 80033c2:	b112      	cbz	r2, 80033ca <HAL_DMA_IRQHandler+0x69a>
 80033c4:	4620      	mov	r0, r4
 80033c6:	4790      	blx	r2
 80033c8:	6823      	ldr	r3, [r4, #0]
 80033ca:	4a9d      	ldr	r2, [pc, #628]	; (8003640 <HAL_DMA_IRQHandler+0x910>)
 80033cc:	4293      	cmp	r3, r2
 80033ce:	d911      	bls.n	80033f4 <HAL_DMA_IRQHandler+0x6c4>
 80033d0:	4a9c      	ldr	r2, [pc, #624]	; (8003644 <HAL_DMA_IRQHandler+0x914>)
 80033d2:	499d      	ldr	r1, [pc, #628]	; (8003648 <HAL_DMA_IRQHandler+0x918>)
 80033d4:	4293      	cmp	r3, r2
 80033d6:	6849      	ldr	r1, [r1, #4]
 80033d8:	f000 82e7 	beq.w	80039aa <HAL_DMA_IRQHandler+0xc7a>
 80033dc:	4a9b      	ldr	r2, [pc, #620]	; (800364c <HAL_DMA_IRQHandler+0x91c>)
 80033de:	4293      	cmp	r3, r2
 80033e0:	f000 817d 	beq.w	80036de <HAL_DMA_IRQHandler+0x9ae>
 80033e4:	3218      	adds	r2, #24
 80033e6:	4293      	cmp	r3, r2
 80033e8:	bf0c      	ite	eq
 80033ea:	f44f 1200 	moveq.w	r2, #2097152	; 0x200000
 80033ee:	f04f 6200 	movne.w	r2, #134217728	; 0x8000000
 80033f2:	e5db      	b.n	8002fac <HAL_DMA_IRQHandler+0x27c>
 80033f4:	4a8e      	ldr	r2, [pc, #568]	; (8003630 <HAL_DMA_IRQHandler+0x900>)
 80033f6:	4293      	cmp	r3, r2
 80033f8:	f63f af74 	bhi.w	80032e4 <HAL_DMA_IRQHandler+0x5b4>
 80033fc:	4a8d      	ldr	r2, [pc, #564]	; (8003634 <HAL_DMA_IRQHandler+0x904>)
 80033fe:	4293      	cmp	r3, r2
 8003400:	f67f adcd 	bls.w	8002f9e <HAL_DMA_IRQHandler+0x26e>
 8003404:	4992      	ldr	r1, [pc, #584]	; (8003650 <HAL_DMA_IRQHandler+0x920>)
 8003406:	4a8d      	ldr	r2, [pc, #564]	; (800363c <HAL_DMA_IRQHandler+0x90c>)
 8003408:	428b      	cmp	r3, r1
 800340a:	6852      	ldr	r2, [r2, #4]
 800340c:	f47f af70 	bne.w	80032f0 <HAL_DMA_IRQHandler+0x5c0>
 8003410:	e5cb      	b.n	8002faa <HAL_DMA_IRQHandler+0x27a>
 8003412:	681a      	ldr	r2, [r3, #0]
 8003414:	05d0      	lsls	r0, r2, #23
 8003416:	d403      	bmi.n	8003420 <HAL_DMA_IRQHandler+0x6f0>
 8003418:	681a      	ldr	r2, [r3, #0]
 800341a:	f022 0210 	bic.w	r2, r2, #16
 800341e:	601a      	str	r2, [r3, #0]
 8003420:	4a87      	ldr	r2, [pc, #540]	; (8003640 <HAL_DMA_IRQHandler+0x910>)
 8003422:	4293      	cmp	r3, r2
 8003424:	d92d      	bls.n	8003482 <HAL_DMA_IRQHandler+0x752>
 8003426:	4a87      	ldr	r2, [pc, #540]	; (8003644 <HAL_DMA_IRQHandler+0x914>)
 8003428:	4293      	cmp	r3, r2
 800342a:	f000 8176 	beq.w	800371a <HAL_DMA_IRQHandler+0x9ea>
 800342e:	3218      	adds	r2, #24
 8003430:	4293      	cmp	r3, r2
 8003432:	f000 824e 	beq.w	80038d2 <HAL_DMA_IRQHandler+0xba2>
 8003436:	3218      	adds	r2, #24
 8003438:	4293      	cmp	r3, r2
 800343a:	bf0c      	ite	eq
 800343c:	f44f 1300 	moveq.w	r3, #2097152	; 0x200000
 8003440:	f04f 6300 	movne.w	r3, #134217728	; 0x8000000
 8003444:	4a80      	ldr	r2, [pc, #512]	; (8003648 <HAL_DMA_IRQHandler+0x918>)
 8003446:	60d3      	str	r3, [r2, #12]
 8003448:	e034      	b.n	80034b4 <HAL_DMA_IRQHandler+0x784>
 800344a:	681a      	ldr	r2, [r3, #0]
 800344c:	05d0      	lsls	r0, r2, #23
 800344e:	d403      	bmi.n	8003458 <HAL_DMA_IRQHandler+0x728>
 8003450:	681a      	ldr	r2, [r3, #0]
 8003452:	f022 0208 	bic.w	r2, r2, #8
 8003456:	601a      	str	r2, [r3, #0]
 8003458:	4a79      	ldr	r2, [pc, #484]	; (8003640 <HAL_DMA_IRQHandler+0x910>)
 800345a:	4293      	cmp	r3, r2
 800345c:	d994      	bls.n	8003388 <HAL_DMA_IRQHandler+0x658>
 800345e:	4a79      	ldr	r2, [pc, #484]	; (8003644 <HAL_DMA_IRQHandler+0x914>)
 8003460:	4293      	cmp	r3, r2
 8003462:	f000 816d 	beq.w	8003740 <HAL_DMA_IRQHandler+0xa10>
 8003466:	3218      	adds	r2, #24
 8003468:	4293      	cmp	r3, r2
 800346a:	f000 8253 	beq.w	8003914 <HAL_DMA_IRQHandler+0xbe4>
 800346e:	4979      	ldr	r1, [pc, #484]	; (8003654 <HAL_DMA_IRQHandler+0x924>)
 8003470:	428b      	cmp	r3, r1
 8003472:	bf0c      	ite	eq
 8003474:	f44f 1180 	moveq.w	r1, #1048576	; 0x100000
 8003478:	f04f 6180 	movne.w	r1, #67108864	; 0x4000000
 800347c:	4a72      	ldr	r2, [pc, #456]	; (8003648 <HAL_DMA_IRQHandler+0x918>)
 800347e:	60d1      	str	r1, [r2, #12]
 8003480:	e79b      	b.n	80033ba <HAL_DMA_IRQHandler+0x68a>
 8003482:	4a6b      	ldr	r2, [pc, #428]	; (8003630 <HAL_DMA_IRQHandler+0x900>)
 8003484:	4293      	cmp	r3, r2
 8003486:	f200 8087 	bhi.w	8003598 <HAL_DMA_IRQHandler+0x868>
 800348a:	4a6a      	ldr	r2, [pc, #424]	; (8003634 <HAL_DMA_IRQHandler+0x904>)
 800348c:	4293      	cmp	r3, r2
 800348e:	f240 819f 	bls.w	80037d0 <HAL_DMA_IRQHandler+0xaa0>
 8003492:	3218      	adds	r2, #24
 8003494:	4293      	cmp	r3, r2
 8003496:	f000 8214 	beq.w	80038c2 <HAL_DMA_IRQHandler+0xb92>
 800349a:	3218      	adds	r2, #24
 800349c:	4293      	cmp	r3, r2
 800349e:	f000 826f 	beq.w	8003980 <HAL_DMA_IRQHandler+0xc50>
 80034a2:	3218      	adds	r2, #24
 80034a4:	4293      	cmp	r3, r2
 80034a6:	bf0c      	ite	eq
 80034a8:	f44f 1300 	moveq.w	r3, #2097152	; 0x200000
 80034ac:	f04f 6300 	movne.w	r3, #134217728	; 0x8000000
 80034b0:	4a62      	ldr	r2, [pc, #392]	; (800363c <HAL_DMA_IRQHandler+0x90c>)
 80034b2:	60d3      	str	r3, [r2, #12]
 80034b4:	6ce2      	ldr	r2, [r4, #76]	; 0x4c
 80034b6:	6be3      	ldr	r3, [r4, #60]	; 0x3c
 80034b8:	64e2      	str	r2, [r4, #76]	; 0x4c
 80034ba:	2111      	movs	r1, #17
 80034bc:	2200      	movs	r2, #0
 80034be:	f884 1035 	strb.w	r1, [r4, #53]	; 0x35
 80034c2:	f884 2034 	strb.w	r2, [r4, #52]	; 0x34
 80034c6:	2b00      	cmp	r3, #0
 80034c8:	f43f af5d 	beq.w	8003386 <HAL_DMA_IRQHandler+0x656>
 80034cc:	4620      	mov	r0, r4
 80034ce:	e8bd 4070 	ldmia.w	sp!, {r4, r5, r6, lr}
 80034d2:	4718      	bx	r3
 80034d4:	4a56      	ldr	r2, [pc, #344]	; (8003630 <HAL_DMA_IRQHandler+0x900>)
 80034d6:	4293      	cmp	r3, r2
 80034d8:	f200 8096 	bhi.w	8003608 <HAL_DMA_IRQHandler+0x8d8>
 80034dc:	4a55      	ldr	r2, [pc, #340]	; (8003634 <HAL_DMA_IRQHandler+0x904>)
 80034de:	4293      	cmp	r3, r2
 80034e0:	f240 8198 	bls.w	8003814 <HAL_DMA_IRQHandler+0xae4>
 80034e4:	3218      	adds	r2, #24
 80034e6:	4293      	cmp	r3, r2
 80034e8:	f000 820e 	beq.w	8003908 <HAL_DMA_IRQHandler+0xbd8>
 80034ec:	3218      	adds	r2, #24
 80034ee:	4293      	cmp	r3, r2
 80034f0:	f000 824c 	beq.w	800398c <HAL_DMA_IRQHandler+0xc5c>
 80034f4:	4950      	ldr	r1, [pc, #320]	; (8003638 <HAL_DMA_IRQHandler+0x908>)
 80034f6:	428b      	cmp	r3, r1
 80034f8:	bf0c      	ite	eq
 80034fa:	f44f 1180 	moveq.w	r1, #1048576	; 0x100000
 80034fe:	f04f 6180 	movne.w	r1, #67108864	; 0x4000000
 8003502:	4a4e      	ldr	r2, [pc, #312]	; (800363c <HAL_DMA_IRQHandler+0x90c>)
 8003504:	60d1      	str	r1, [r2, #12]
 8003506:	681a      	ldr	r2, [r3, #0]
 8003508:	0316      	lsls	r6, r2, #12
 800350a:	f57f af56 	bpl.w	80033ba <HAL_DMA_IRQHandler+0x68a>
 800350e:	681a      	ldr	r2, [r3, #0]
 8003510:	0315      	lsls	r5, r2, #12
 8003512:	f57f af55 	bpl.w	80033c0 <HAL_DMA_IRQHandler+0x690>
 8003516:	2241      	movs	r2, #65	; 0x41
 8003518:	f884 2035 	strb.w	r2, [r4, #53]	; 0x35
 800351c:	e750      	b.n	80033c0 <HAL_DMA_IRQHandler+0x690>
 800351e:	4a45      	ldr	r2, [pc, #276]	; (8003634 <HAL_DMA_IRQHandler+0x904>)
 8003520:	4293      	cmp	r3, r2
 8003522:	d95f      	bls.n	80035e4 <HAL_DMA_IRQHandler+0x8b4>
 8003524:	3218      	adds	r2, #24
 8003526:	4293      	cmp	r3, r2
 8003528:	f000 81a3 	beq.w	8003872 <HAL_DMA_IRQHandler+0xb42>
 800352c:	3218      	adds	r2, #24
 800352e:	4293      	cmp	r3, r2
 8003530:	f000 8207 	beq.w	8003942 <HAL_DMA_IRQHandler+0xc12>
 8003534:	4940      	ldr	r1, [pc, #256]	; (8003638 <HAL_DMA_IRQHandler+0x908>)
 8003536:	428b      	cmp	r3, r1
 8003538:	bf0c      	ite	eq
 800353a:	f44f 2180 	moveq.w	r1, #262144	; 0x40000
 800353e:	f04f 7180 	movne.w	r1, #16777216	; 0x1000000
 8003542:	4a3e      	ldr	r2, [pc, #248]	; (800363c <HAL_DMA_IRQHandler+0x90c>)
 8003544:	60d1      	str	r1, [r2, #12]
 8003546:	e46b      	b.n	8002e20 <HAL_DMA_IRQHandler+0xf0>
 8003548:	4a3a      	ldr	r2, [pc, #232]	; (8003634 <HAL_DMA_IRQHandler+0x904>)
 800354a:	4293      	cmp	r3, r2
 800354c:	d937      	bls.n	80035be <HAL_DMA_IRQHandler+0x88e>
 800354e:	3218      	adds	r2, #24
 8003550:	4293      	cmp	r3, r2
 8003552:	f000 818a 	beq.w	800386a <HAL_DMA_IRQHandler+0xb3a>
 8003556:	3218      	adds	r2, #24
 8003558:	4293      	cmp	r3, r2
 800355a:	f000 81fb 	beq.w	8003954 <HAL_DMA_IRQHandler+0xc24>
 800355e:	4936      	ldr	r1, [pc, #216]	; (8003638 <HAL_DMA_IRQHandler+0x908>)
 8003560:	428b      	cmp	r3, r1
 8003562:	bf0c      	ite	eq
 8003564:	f44f 3180 	moveq.w	r1, #65536	; 0x10000
 8003568:	f44f 0180 	movne.w	r1, #4194304	; 0x400000
 800356c:	4a33      	ldr	r2, [pc, #204]	; (800363c <HAL_DMA_IRQHandler+0x90c>)
 800356e:	60d1      	str	r1, [r2, #12]
 8003570:	e414      	b.n	8002d9c <HAL_DMA_IRQHandler+0x6c>
 8003572:	f502 7256 	add.w	r2, r2, #856	; 0x358
 8003576:	4293      	cmp	r3, r2
 8003578:	f000 8167 	beq.w	800384a <HAL_DMA_IRQHandler+0xb1a>
 800357c:	3218      	adds	r2, #24
 800357e:	4293      	cmp	r3, r2
 8003580:	f000 81b2 	beq.w	80038e8 <HAL_DMA_IRQHandler+0xbb8>
 8003584:	4934      	ldr	r1, [pc, #208]	; (8003658 <HAL_DMA_IRQHandler+0x928>)
 8003586:	428b      	cmp	r3, r1
 8003588:	bf0c      	ite	eq
 800358a:	f44f 1100 	moveq.w	r1, #2097152	; 0x200000
 800358e:	f04f 6100 	movne.w	r1, #134217728	; 0x8000000
 8003592:	4a2d      	ldr	r2, [pc, #180]	; (8003648 <HAL_DMA_IRQHandler+0x918>)
 8003594:	6091      	str	r1, [r2, #8]
 8003596:	e6ee      	b.n	8003376 <HAL_DMA_IRQHandler+0x646>
 8003598:	f502 7256 	add.w	r2, r2, #856	; 0x358
 800359c:	4293      	cmp	r3, r2
 800359e:	f000 8152 	beq.w	8003846 <HAL_DMA_IRQHandler+0xb16>
 80035a2:	3218      	adds	r2, #24
 80035a4:	4293      	cmp	r3, r2
 80035a6:	f000 81a2 	beq.w	80038ee <HAL_DMA_IRQHandler+0xbbe>
 80035aa:	3218      	adds	r2, #24
 80035ac:	4293      	cmp	r3, r2
 80035ae:	bf0c      	ite	eq
 80035b0:	f44f 1300 	moveq.w	r3, #2097152	; 0x200000
 80035b4:	f04f 6300 	movne.w	r3, #134217728	; 0x8000000
 80035b8:	4a23      	ldr	r2, [pc, #140]	; (8003648 <HAL_DMA_IRQHandler+0x918>)
 80035ba:	6093      	str	r3, [r2, #8]
 80035bc:	e77a      	b.n	80034b4 <HAL_DMA_IRQHandler+0x784>
 80035be:	4a27      	ldr	r2, [pc, #156]	; (800365c <HAL_DMA_IRQHandler+0x92c>)
 80035c0:	4293      	cmp	r3, r2
 80035c2:	f000 8146 	beq.w	8003852 <HAL_DMA_IRQHandler+0xb22>
 80035c6:	3218      	adds	r2, #24
 80035c8:	4293      	cmp	r3, r2
 80035ca:	f000 8193 	beq.w	80038f4 <HAL_DMA_IRQHandler+0xbc4>
 80035ce:	4924      	ldr	r1, [pc, #144]	; (8003660 <HAL_DMA_IRQHandler+0x930>)
 80035d0:	428b      	cmp	r3, r1
 80035d2:	bf0c      	ite	eq
 80035d4:	f44f 3180 	moveq.w	r1, #65536	; 0x10000
 80035d8:	f44f 0180 	movne.w	r1, #4194304	; 0x400000
 80035dc:	4a17      	ldr	r2, [pc, #92]	; (800363c <HAL_DMA_IRQHandler+0x90c>)
 80035de:	6091      	str	r1, [r2, #8]
 80035e0:	f7ff bbdc 	b.w	8002d9c <HAL_DMA_IRQHandler+0x6c>
 80035e4:	4a1d      	ldr	r2, [pc, #116]	; (800365c <HAL_DMA_IRQHandler+0x92c>)
 80035e6:	4293      	cmp	r3, r2
 80035e8:	f000 8135 	beq.w	8003856 <HAL_DMA_IRQHandler+0xb26>
 80035ec:	3218      	adds	r2, #24
 80035ee:	4293      	cmp	r3, r2
 80035f0:	f000 8182 	beq.w	80038f8 <HAL_DMA_IRQHandler+0xbc8>
 80035f4:	491a      	ldr	r1, [pc, #104]	; (8003660 <HAL_DMA_IRQHandler+0x930>)
 80035f6:	428b      	cmp	r3, r1
 80035f8:	bf0c      	ite	eq
 80035fa:	f44f 2180 	moveq.w	r1, #262144	; 0x40000
 80035fe:	f04f 7180 	movne.w	r1, #16777216	; 0x1000000
 8003602:	4a0e      	ldr	r2, [pc, #56]	; (800363c <HAL_DMA_IRQHandler+0x90c>)
 8003604:	6091      	str	r1, [r2, #8]
 8003606:	e40b      	b.n	8002e20 <HAL_DMA_IRQHandler+0xf0>
 8003608:	f502 7256 	add.w	r2, r2, #856	; 0x358
 800360c:	4293      	cmp	r3, r2
 800360e:	f000 812a 	beq.w	8003866 <HAL_DMA_IRQHandler+0xb36>
 8003612:	3218      	adds	r2, #24
 8003614:	4293      	cmp	r3, r2
 8003616:	f000 8183 	beq.w	8003920 <HAL_DMA_IRQHandler+0xbf0>
 800361a:	490f      	ldr	r1, [pc, #60]	; (8003658 <HAL_DMA_IRQHandler+0x928>)
 800361c:	428b      	cmp	r3, r1
 800361e:	bf0c      	ite	eq
 8003620:	f44f 1180 	moveq.w	r1, #1048576	; 0x100000
 8003624:	f04f 6180 	movne.w	r1, #67108864	; 0x4000000
 8003628:	4a07      	ldr	r2, [pc, #28]	; (8003648 <HAL_DMA_IRQHandler+0x918>)
 800362a:	6091      	str	r1, [r2, #8]
 800362c:	e76b      	b.n	8003506 <HAL_DMA_IRQHandler+0x7d6>
 800362e:	bf00      	nop
 8003630:	400260b8 	.word	0x400260b8
 8003634:	40026058 	.word	0x40026058
 8003638:	400260a0 	.word	0x400260a0
 800363c:	40026000 	.word	0x40026000
 8003640:	40026458 	.word	0x40026458
 8003644:	40026470 	.word	0x40026470
 8003648:	40026400 	.word	0x40026400
 800364c:	40026488 	.word	0x40026488
 8003650:	40026070 	.word	0x40026070
 8003654:	400264a0 	.word	0x400264a0
 8003658:	40026440 	.word	0x40026440
 800365c:	40026010 	.word	0x40026010
 8003660:	40026040 	.word	0x40026040
 8003664:	f502 7256 	add.w	r2, r2, #856	; 0x358
 8003668:	4293      	cmp	r3, r2
 800366a:	f000 80fa 	beq.w	8003862 <HAL_DMA_IRQHandler+0xb32>
 800366e:	3218      	adds	r2, #24
 8003670:	4293      	cmp	r3, r2
 8003672:	f000 8152 	beq.w	800391a <HAL_DMA_IRQHandler+0xbea>
 8003676:	49ba      	ldr	r1, [pc, #744]	; (8003960 <HAL_DMA_IRQHandler+0xc30>)
 8003678:	428b      	cmp	r3, r1
 800367a:	bf0c      	ite	eq
 800367c:	f44f 1180 	moveq.w	r1, #1048576	; 0x100000
 8003680:	f04f 6180 	movne.w	r1, #67108864	; 0x4000000
 8003684:	4ab7      	ldr	r2, [pc, #732]	; (8003964 <HAL_DMA_IRQHandler+0xc34>)
 8003686:	6091      	str	r1, [r2, #8]
 8003688:	e697      	b.n	80033ba <HAL_DMA_IRQHandler+0x68a>
 800368a:	3218      	adds	r2, #24
 800368c:	4293      	cmp	r3, r2
 800368e:	f000 80ee 	beq.w	800386e <HAL_DMA_IRQHandler+0xb3e>
 8003692:	3218      	adds	r2, #24
 8003694:	4293      	cmp	r3, r2
 8003696:	f000 815f 	beq.w	8003958 <HAL_DMA_IRQHandler+0xc28>
 800369a:	48b3      	ldr	r0, [pc, #716]	; (8003968 <HAL_DMA_IRQHandler+0xc38>)
 800369c:	4283      	cmp	r3, r0
 800369e:	bf14      	ite	ne
 80036a0:	f04f 7000 	movne.w	r0, #33554432	; 0x2000000
 80036a4:	f44f 2000 	moveq.w	r0, #524288	; 0x80000
 80036a8:	49b0      	ldr	r1, [pc, #704]	; (800396c <HAL_DMA_IRQHandler+0xc3c>)
 80036aa:	6ca2      	ldr	r2, [r4, #72]	; 0x48
 80036ac:	60c8      	str	r0, [r1, #12]
 80036ae:	6ce1      	ldr	r1, [r4, #76]	; 0x4c
 80036b0:	2004      	movs	r0, #4
 80036b2:	f041 0101 	orr.w	r1, r1, #1
 80036b6:	2500      	movs	r5, #0
 80036b8:	64e1      	str	r1, [r4, #76]	; 0x4c
 80036ba:	f884 5034 	strb.w	r5, [r4, #52]	; 0x34
 80036be:	f884 0035 	strb.w	r0, [r4, #53]	; 0x35
 80036c2:	2a00      	cmp	r2, #0
 80036c4:	f47f acda 	bne.w	800307c <HAL_DMA_IRQHandler+0x34c>
 80036c8:	e507      	b.n	80030da <HAL_DMA_IRQHandler+0x3aa>
 80036ca:	0585      	lsls	r5, r0, #22
 80036cc:	f53f acaf 	bmi.w	800302e <HAL_DMA_IRQHandler+0x2fe>
 80036d0:	6851      	ldr	r1, [r2, #4]
 80036d2:	2240      	movs	r2, #64	; 0x40
 80036d4:	f7ff bb48 	b.w	8002d68 <HAL_DMA_IRQHandler+0x38>
 80036d8:	2240      	movs	r2, #64	; 0x40
 80036da:	f7ff bb45 	b.w	8002d68 <HAL_DMA_IRQHandler+0x38>
 80036de:	f44f 6200 	mov.w	r2, #2048	; 0x800
 80036e2:	e463      	b.n	8002fac <HAL_DMA_IRQHandler+0x27c>
 80036e4:	f44f 6280 	mov.w	r2, #1024	; 0x400
 80036e8:	f7ff bbbe 	b.w	8002e68 <HAL_DMA_IRQHandler+0x138>
 80036ec:	f44f 7280 	mov.w	r2, #256	; 0x100
 80036f0:	f7ff bb78 	b.w	8002de4 <HAL_DMA_IRQHandler+0xb4>
 80036f4:	2140      	movs	r1, #64	; 0x40
 80036f6:	e55c      	b.n	80031b2 <HAL_DMA_IRQHandler+0x482>
 80036f8:	f44f 6180 	mov.w	r1, #1024	; 0x400
 80036fc:	e5ef      	b.n	80032de <HAL_DMA_IRQHandler+0x5ae>
 80036fe:	f44f 7180 	mov.w	r1, #256	; 0x100
 8003702:	e5a4      	b.n	800324e <HAL_DMA_IRQHandler+0x51e>
 8003704:	2008      	movs	r0, #8
 8003706:	e4ab      	b.n	8003060 <HAL_DMA_IRQHandler+0x330>
 8003708:	4999      	ldr	r1, [pc, #612]	; (8003970 <HAL_DMA_IRQHandler+0xc40>)
 800370a:	f7ff bb87 	b.w	8002e1c <HAL_DMA_IRQHandler+0xec>
 800370e:	4998      	ldr	r1, [pc, #608]	; (8003970 <HAL_DMA_IRQHandler+0xc40>)
 8003710:	e5e1      	b.n	80032d6 <HAL_DMA_IRQHandler+0x5a6>
 8003712:	2008      	movs	r0, #8
 8003714:	e506      	b.n	8003124 <HAL_DMA_IRQHandler+0x3f4>
 8003716:	2120      	movs	r1, #32
 8003718:	e46a      	b.n	8002ff0 <HAL_DMA_IRQHandler+0x2c0>
 800371a:	2320      	movs	r3, #32
 800371c:	e692      	b.n	8003444 <HAL_DMA_IRQHandler+0x714>
 800371e:	f44f 6180 	mov.w	r1, #1024	; 0x400
 8003722:	e439      	b.n	8002f98 <HAL_DMA_IRQHandler+0x268>
 8003724:	f44f 7180 	mov.w	r1, #256	; 0x100
 8003728:	e422      	b.n	8002f70 <HAL_DMA_IRQHandler+0x240>
 800372a:	0586      	lsls	r6, r0, #22
 800372c:	f53f ac7f 	bmi.w	800302e <HAL_DMA_IRQHandler+0x2fe>
 8003730:	6812      	ldr	r2, [r2, #0]
 8003732:	2140      	movs	r1, #64	; 0x40
 8003734:	e408      	b.n	8002f48 <HAL_DMA_IRQHandler+0x218>
 8003736:	2140      	movs	r1, #64	; 0x40
 8003738:	e406      	b.n	8002f48 <HAL_DMA_IRQHandler+0x218>
 800373a:	2110      	movs	r1, #16
 800373c:	f7ff bbb2 	b.w	8002ea4 <HAL_DMA_IRQHandler+0x174>
 8003740:	2110      	movs	r1, #16
 8003742:	e69b      	b.n	800347c <HAL_DMA_IRQHandler+0x74c>
 8003744:	0580      	lsls	r0, r0, #22
 8003746:	f53f ac72 	bmi.w	800302e <HAL_DMA_IRQHandler+0x2fe>
 800374a:	6852      	ldr	r2, [r2, #4]
 800374c:	2140      	movs	r1, #64	; 0x40
 800374e:	f7ff bbde 	b.w	8002f0e <HAL_DMA_IRQHandler+0x1de>
 8003752:	2140      	movs	r1, #64	; 0x40
 8003754:	f7ff bbdb 	b.w	8002f0e <HAL_DMA_IRQHandler+0x1de>
 8003758:	f44f 6180 	mov.w	r1, #1024	; 0x400
 800375c:	e5a3      	b.n	80032a6 <HAL_DMA_IRQHandler+0x576>
 800375e:	f44f 7180 	mov.w	r1, #256	; 0x100
 8003762:	e56f      	b.n	8003244 <HAL_DMA_IRQHandler+0x514>
 8003764:	681b      	ldr	r3, [r3, #0]
 8003766:	031d      	lsls	r5, r3, #12
 8003768:	f57f ae0d 	bpl.w	8003386 <HAL_DMA_IRQHandler+0x656>
 800376c:	6be3      	ldr	r3, [r4, #60]	; 0x3c
 800376e:	2b00      	cmp	r3, #0
 8003770:	f47f aeac 	bne.w	80034cc <HAL_DMA_IRQHandler+0x79c>
 8003774:	e607      	b.n	8003386 <HAL_DMA_IRQHandler+0x656>
 8003776:	0705      	lsls	r5, r0, #28
 8003778:	f53f ac59 	bmi.w	800302e <HAL_DMA_IRQHandler+0x2fe>
 800377c:	6812      	ldr	r2, [r2, #0]
 800377e:	497d      	ldr	r1, [pc, #500]	; (8003974 <HAL_DMA_IRQHandler+0xc44>)
 8003780:	f7ff bbe2 	b.w	8002f48 <HAL_DMA_IRQHandler+0x218>
 8003784:	497a      	ldr	r1, [pc, #488]	; (8003970 <HAL_DMA_IRQHandler+0xc40>)
 8003786:	f7ff bbf3 	b.w	8002f70 <HAL_DMA_IRQHandler+0x240>
 800378a:	4979      	ldr	r1, [pc, #484]	; (8003970 <HAL_DMA_IRQHandler+0xc40>)
 800378c:	e55a      	b.n	8003244 <HAL_DMA_IRQHandler+0x514>
 800378e:	2110      	movs	r1, #16
 8003790:	e589      	b.n	80032a6 <HAL_DMA_IRQHandler+0x576>
 8003792:	0701      	lsls	r1, r0, #28
 8003794:	f53f ac4b 	bmi.w	800302e <HAL_DMA_IRQHandler+0x2fe>
 8003798:	6852      	ldr	r2, [r2, #4]
 800379a:	4976      	ldr	r1, [pc, #472]	; (8003974 <HAL_DMA_IRQHandler+0xc44>)
 800379c:	f7ff bbb7 	b.w	8002f0e <HAL_DMA_IRQHandler+0x1de>
 80037a0:	2110      	movs	r1, #16
 80037a2:	f7ff bbf9 	b.w	8002f98 <HAL_DMA_IRQHandler+0x268>
 80037a6:	f44f 6100 	mov.w	r1, #2048	; 0x800
 80037aa:	f7ff bbff 	b.w	8002fac <HAL_DMA_IRQHandler+0x27c>
 80037ae:	4a72      	ldr	r2, [pc, #456]	; (8003978 <HAL_DMA_IRQHandler+0xc48>)
 80037b0:	4293      	cmp	r3, r2
 80037b2:	d054      	beq.n	800385e <HAL_DMA_IRQHandler+0xb2e>
 80037b4:	3218      	adds	r2, #24
 80037b6:	4293      	cmp	r3, r2
 80037b8:	f000 80b8 	beq.w	800392c <HAL_DMA_IRQHandler+0xbfc>
 80037bc:	496f      	ldr	r1, [pc, #444]	; (800397c <HAL_DMA_IRQHandler+0xc4c>)
 80037be:	428b      	cmp	r3, r1
 80037c0:	bf0c      	ite	eq
 80037c2:	f44f 1100 	moveq.w	r1, #2097152	; 0x200000
 80037c6:	f04f 6100 	movne.w	r1, #134217728	; 0x8000000
 80037ca:	4a68      	ldr	r2, [pc, #416]	; (800396c <HAL_DMA_IRQHandler+0xc3c>)
 80037cc:	6091      	str	r1, [r2, #8]
 80037ce:	e5d2      	b.n	8003376 <HAL_DMA_IRQHandler+0x646>
 80037d0:	4a69      	ldr	r2, [pc, #420]	; (8003978 <HAL_DMA_IRQHandler+0xc48>)
 80037d2:	4293      	cmp	r3, r2
 80037d4:	d041      	beq.n	800385a <HAL_DMA_IRQHandler+0xb2a>
 80037d6:	3218      	adds	r2, #24
 80037d8:	4293      	cmp	r3, r2
 80037da:	f000 80a4 	beq.w	8003926 <HAL_DMA_IRQHandler+0xbf6>
 80037de:	3218      	adds	r2, #24
 80037e0:	4293      	cmp	r3, r2
 80037e2:	bf0c      	ite	eq
 80037e4:	f44f 1300 	moveq.w	r3, #2097152	; 0x200000
 80037e8:	f04f 6300 	movne.w	r3, #134217728	; 0x8000000
 80037ec:	4a5f      	ldr	r2, [pc, #380]	; (800396c <HAL_DMA_IRQHandler+0xc3c>)
 80037ee:	6093      	str	r3, [r2, #8]
 80037f0:	e660      	b.n	80034b4 <HAL_DMA_IRQHandler+0x784>
 80037f2:	4a61      	ldr	r2, [pc, #388]	; (8003978 <HAL_DMA_IRQHandler+0xc48>)
 80037f4:	4293      	cmp	r3, r2
 80037f6:	d03e      	beq.n	8003876 <HAL_DMA_IRQHandler+0xb46>
 80037f8:	3218      	adds	r2, #24
 80037fa:	4293      	cmp	r3, r2
 80037fc:	f000 80a4 	beq.w	8003948 <HAL_DMA_IRQHandler+0xc18>
 8003800:	495e      	ldr	r1, [pc, #376]	; (800397c <HAL_DMA_IRQHandler+0xc4c>)
 8003802:	428b      	cmp	r3, r1
 8003804:	bf0c      	ite	eq
 8003806:	f44f 1180 	moveq.w	r1, #1048576	; 0x100000
 800380a:	f04f 6180 	movne.w	r1, #67108864	; 0x4000000
 800380e:	4a57      	ldr	r2, [pc, #348]	; (800396c <HAL_DMA_IRQHandler+0xc3c>)
 8003810:	6091      	str	r1, [r2, #8]
 8003812:	e5d2      	b.n	80033ba <HAL_DMA_IRQHandler+0x68a>
 8003814:	4a58      	ldr	r2, [pc, #352]	; (8003978 <HAL_DMA_IRQHandler+0xc48>)
 8003816:	4293      	cmp	r3, r2
 8003818:	d02f      	beq.n	800387a <HAL_DMA_IRQHandler+0xb4a>
 800381a:	3218      	adds	r2, #24
 800381c:	4293      	cmp	r3, r2
 800381e:	f000 8096 	beq.w	800394e <HAL_DMA_IRQHandler+0xc1e>
 8003822:	4956      	ldr	r1, [pc, #344]	; (800397c <HAL_DMA_IRQHandler+0xc4c>)
 8003824:	428b      	cmp	r3, r1
 8003826:	bf0c      	ite	eq
 8003828:	f44f 1180 	moveq.w	r1, #1048576	; 0x100000
 800382c:	f04f 6180 	movne.w	r1, #67108864	; 0x4000000
 8003830:	4a4e      	ldr	r2, [pc, #312]	; (800396c <HAL_DMA_IRQHandler+0xc3c>)
 8003832:	6091      	str	r1, [r2, #8]
 8003834:	e667      	b.n	8003506 <HAL_DMA_IRQHandler+0x7d6>
 8003836:	0581      	lsls	r1, r0, #22
 8003838:	f53f abf9 	bmi.w	800302e <HAL_DMA_IRQHandler+0x2fe>
 800383c:	6812      	ldr	r2, [r2, #0]
 800383e:	2140      	movs	r1, #64	; 0x40
 8003840:	e4b7      	b.n	80031b2 <HAL_DMA_IRQHandler+0x482>
 8003842:	494c      	ldr	r1, [pc, #304]	; (8003974 <HAL_DMA_IRQHandler+0xc44>)
 8003844:	e4d2      	b.n	80031ec <HAL_DMA_IRQHandler+0x4bc>
 8003846:	2320      	movs	r3, #32
 8003848:	e6b6      	b.n	80035b8 <HAL_DMA_IRQHandler+0x888>
 800384a:	2120      	movs	r1, #32
 800384c:	e6a1      	b.n	8003592 <HAL_DMA_IRQHandler+0x862>
 800384e:	2008      	movs	r0, #8
 8003850:	e48b      	b.n	800316a <HAL_DMA_IRQHandler+0x43a>
 8003852:	4948      	ldr	r1, [pc, #288]	; (8003974 <HAL_DMA_IRQHandler+0xc44>)
 8003854:	e6c2      	b.n	80035dc <HAL_DMA_IRQHandler+0x8ac>
 8003856:	4946      	ldr	r1, [pc, #280]	; (8003970 <HAL_DMA_IRQHandler+0xc40>)
 8003858:	e6d3      	b.n	8003602 <HAL_DMA_IRQHandler+0x8d2>
 800385a:	2320      	movs	r3, #32
 800385c:	e7c6      	b.n	80037ec <HAL_DMA_IRQHandler+0xabc>
 800385e:	2120      	movs	r1, #32
 8003860:	e7b3      	b.n	80037ca <HAL_DMA_IRQHandler+0xa9a>
 8003862:	2110      	movs	r1, #16
 8003864:	e70e      	b.n	8003684 <HAL_DMA_IRQHandler+0x954>
 8003866:	2110      	movs	r1, #16
 8003868:	e6de      	b.n	8003628 <HAL_DMA_IRQHandler+0x8f8>
 800386a:	4942      	ldr	r1, [pc, #264]	; (8003974 <HAL_DMA_IRQHandler+0xc44>)
 800386c:	e67e      	b.n	800356c <HAL_DMA_IRQHandler+0x83c>
 800386e:	2008      	movs	r0, #8
 8003870:	e71a      	b.n	80036a8 <HAL_DMA_IRQHandler+0x978>
 8003872:	493f      	ldr	r1, [pc, #252]	; (8003970 <HAL_DMA_IRQHandler+0xc40>)
 8003874:	e665      	b.n	8003542 <HAL_DMA_IRQHandler+0x812>
 8003876:	2110      	movs	r1, #16
 8003878:	e7c9      	b.n	800380e <HAL_DMA_IRQHandler+0xade>
 800387a:	2110      	movs	r1, #16
 800387c:	e7d8      	b.n	8003830 <HAL_DMA_IRQHandler+0xb00>
 800387e:	0306      	lsls	r6, r0, #12
 8003880:	f53f abd5 	bmi.w	800302e <HAL_DMA_IRQHandler+0x2fe>
 8003884:	6851      	ldr	r1, [r2, #4]
 8003886:	f44f 3280 	mov.w	r2, #65536	; 0x10000
 800388a:	f7ff ba6d 	b.w	8002d68 <HAL_DMA_IRQHandler+0x38>
 800388e:	0305      	lsls	r5, r0, #12
 8003890:	f53f abcd 	bmi.w	800302e <HAL_DMA_IRQHandler+0x2fe>
 8003894:	6812      	ldr	r2, [r2, #0]
 8003896:	f44f 3180 	mov.w	r1, #65536	; 0x10000
 800389a:	e48a      	b.n	80031b2 <HAL_DMA_IRQHandler+0x482>
 800389c:	f44f 7180 	mov.w	r1, #256	; 0x100
 80038a0:	f7ff babc 	b.w	8002e1c <HAL_DMA_IRQHandler+0xec>
 80038a4:	f44f 7000 	mov.w	r0, #512	; 0x200
 80038a8:	f7ff bbda 	b.w	8003060 <HAL_DMA_IRQHandler+0x330>
 80038ac:	2140      	movs	r1, #64	; 0x40
 80038ae:	f7ff ba73 	b.w	8002d98 <HAL_DMA_IRQHandler+0x68>
 80038b2:	f44f 7000 	mov.w	r0, #512	; 0x200
 80038b6:	e435      	b.n	8003124 <HAL_DMA_IRQHandler+0x3f4>
 80038b8:	f44f 7180 	mov.w	r1, #256	; 0x100
 80038bc:	e50b      	b.n	80032d6 <HAL_DMA_IRQHandler+0x5a6>
 80038be:	2140      	movs	r1, #64	; 0x40
 80038c0:	e494      	b.n	80031ec <HAL_DMA_IRQHandler+0x4bc>
 80038c2:	2320      	movs	r3, #32
 80038c4:	e5f4      	b.n	80034b0 <HAL_DMA_IRQHandler+0x780>
 80038c6:	2120      	movs	r1, #32
 80038c8:	e553      	b.n	8003372 <HAL_DMA_IRQHandler+0x642>
 80038ca:	f44f 6100 	mov.w	r1, #2048	; 0x800
 80038ce:	f7ff bb8f 	b.w	8002ff0 <HAL_DMA_IRQHandler+0x2c0>
 80038d2:	f44f 6300 	mov.w	r3, #2048	; 0x800
 80038d6:	e5b5      	b.n	8003444 <HAL_DMA_IRQHandler+0x714>
 80038d8:	0301      	lsls	r1, r0, #12
 80038da:	f53f aba8 	bmi.w	800302e <HAL_DMA_IRQHandler+0x2fe>
 80038de:	6812      	ldr	r2, [r2, #0]
 80038e0:	f44f 3180 	mov.w	r1, #65536	; 0x10000
 80038e4:	f7ff bb30 	b.w	8002f48 <HAL_DMA_IRQHandler+0x218>
 80038e8:	f44f 6100 	mov.w	r1, #2048	; 0x800
 80038ec:	e651      	b.n	8003592 <HAL_DMA_IRQHandler+0x862>
 80038ee:	f44f 6300 	mov.w	r3, #2048	; 0x800
 80038f2:	e661      	b.n	80035b8 <HAL_DMA_IRQHandler+0x888>
 80038f4:	2140      	movs	r1, #64	; 0x40
 80038f6:	e671      	b.n	80035dc <HAL_DMA_IRQHandler+0x8ac>
 80038f8:	f44f 7180 	mov.w	r1, #256	; 0x100
 80038fc:	e681      	b.n	8003602 <HAL_DMA_IRQHandler+0x8d2>
 80038fe:	f44f 7000 	mov.w	r0, #512	; 0x200
 8003902:	e432      	b.n	800316a <HAL_DMA_IRQHandler+0x43a>
 8003904:	2110      	movs	r1, #16
 8003906:	e556      	b.n	80033b6 <HAL_DMA_IRQHandler+0x686>
 8003908:	2110      	movs	r1, #16
 800390a:	e5fa      	b.n	8003502 <HAL_DMA_IRQHandler+0x7d2>
 800390c:	f44f 6180 	mov.w	r1, #1024	; 0x400
 8003910:	f7ff bac8 	b.w	8002ea4 <HAL_DMA_IRQHandler+0x174>
 8003914:	f44f 6180 	mov.w	r1, #1024	; 0x400
 8003918:	e5b0      	b.n	800347c <HAL_DMA_IRQHandler+0x74c>
 800391a:	f44f 6180 	mov.w	r1, #1024	; 0x400
 800391e:	e6b1      	b.n	8003684 <HAL_DMA_IRQHandler+0x954>
 8003920:	f44f 6180 	mov.w	r1, #1024	; 0x400
 8003924:	e680      	b.n	8003628 <HAL_DMA_IRQHandler+0x8f8>
 8003926:	f44f 6300 	mov.w	r3, #2048	; 0x800
 800392a:	e75f      	b.n	80037ec <HAL_DMA_IRQHandler+0xabc>
 800392c:	f44f 6100 	mov.w	r1, #2048	; 0x800
 8003930:	e74b      	b.n	80037ca <HAL_DMA_IRQHandler+0xa9a>
 8003932:	0305      	lsls	r5, r0, #12
 8003934:	f53f ab7b 	bmi.w	800302e <HAL_DMA_IRQHandler+0x2fe>
 8003938:	6852      	ldr	r2, [r2, #4]
 800393a:	f44f 3180 	mov.w	r1, #65536	; 0x10000
 800393e:	f7ff bae6 	b.w	8002f0e <HAL_DMA_IRQHandler+0x1de>
 8003942:	f44f 7180 	mov.w	r1, #256	; 0x100
 8003946:	e5fc      	b.n	8003542 <HAL_DMA_IRQHandler+0x812>
 8003948:	f44f 6180 	mov.w	r1, #1024	; 0x400
 800394c:	e75f      	b.n	800380e <HAL_DMA_IRQHandler+0xade>
 800394e:	f44f 6180 	mov.w	r1, #1024	; 0x400
 8003952:	e76d      	b.n	8003830 <HAL_DMA_IRQHandler+0xb00>
 8003954:	2140      	movs	r1, #64	; 0x40
 8003956:	e609      	b.n	800356c <HAL_DMA_IRQHandler+0x83c>
 8003958:	f44f 7000 	mov.w	r0, #512	; 0x200
 800395c:	e6a4      	b.n	80036a8 <HAL_DMA_IRQHandler+0x978>
 800395e:	bf00      	nop
 8003960:	40026440 	.word	0x40026440
 8003964:	40026400 	.word	0x40026400
 8003968:	400260a0 	.word	0x400260a0
 800396c:	40026000 	.word	0x40026000
 8003970:	00800004 	.word	0x00800004
 8003974:	00800001 	.word	0x00800001
 8003978:	40026010 	.word	0x40026010
 800397c:	40026040 	.word	0x40026040
 8003980:	f44f 6300 	mov.w	r3, #2048	; 0x800
 8003984:	e594      	b.n	80034b0 <HAL_DMA_IRQHandler+0x780>
 8003986:	f44f 6100 	mov.w	r1, #2048	; 0x800
 800398a:	e4f2      	b.n	8003372 <HAL_DMA_IRQHandler+0x642>
 800398c:	f44f 6180 	mov.w	r1, #1024	; 0x400
 8003990:	e5b7      	b.n	8003502 <HAL_DMA_IRQHandler+0x7d2>
 8003992:	f44f 6180 	mov.w	r1, #1024	; 0x400
 8003996:	e50e      	b.n	80033b6 <HAL_DMA_IRQHandler+0x686>
 8003998:	4a05      	ldr	r2, [pc, #20]	; (80039b0 <HAL_DMA_IRQHandler+0xc80>)
 800399a:	f7ff ba23 	b.w	8002de4 <HAL_DMA_IRQHandler+0xb4>
 800399e:	2210      	movs	r2, #16
 80039a0:	f7ff ba62 	b.w	8002e68 <HAL_DMA_IRQHandler+0x138>
 80039a4:	4903      	ldr	r1, [pc, #12]	; (80039b4 <HAL_DMA_IRQHandler+0xc84>)
 80039a6:	f7ff b9f7 	b.w	8002d98 <HAL_DMA_IRQHandler+0x68>
 80039aa:	2220      	movs	r2, #32
 80039ac:	f7ff bafe 	b.w	8002fac <HAL_DMA_IRQHandler+0x27c>
 80039b0:	00800004 	.word	0x00800004
 80039b4:	00800001 	.word	0x00800001

080039b8 <HAL_GPIO_Init>:
HAL_GPIO_Init():
 80039b8:	e92d 4ff0 	stmdb	sp!, {r4, r5, r6, r7, r8, r9, sl, fp, lr}
 80039bc:	f8df c23c 	ldr.w	ip, [pc, #572]	; 8003bfc <HAL_GPIO_Init+0x244>
 80039c0:	f8df e23c 	ldr.w	lr, [pc, #572]	; 8003c00 <HAL_GPIO_Init+0x248>
 80039c4:	680f      	ldr	r7, [r1, #0]
 80039c6:	4e83      	ldr	r6, [pc, #524]	; (8003bd4 <HAL_GPIO_Init+0x21c>)
 80039c8:	b083      	sub	sp, #12
 80039ca:	2300      	movs	r3, #0
 80039cc:	e003      	b.n	80039d6 <HAL_GPIO_Init+0x1e>
 80039ce:	3301      	adds	r3, #1
 80039d0:	2b10      	cmp	r3, #16
 80039d2:	f000 80b4 	beq.w	8003b3e <HAL_GPIO_Init+0x186>
 80039d6:	2201      	movs	r2, #1
 80039d8:	409a      	lsls	r2, r3
 80039da:	ea02 0407 	and.w	r4, r2, r7
 80039de:	4294      	cmp	r4, r2
 80039e0:	d1f5      	bne.n	80039ce <HAL_GPIO_Init+0x16>
 80039e2:	684d      	ldr	r5, [r1, #4]
 80039e4:	f025 0a10 	bic.w	sl, r5, #16
 80039e8:	f1ba 0f02 	cmp.w	sl, #2
 80039ec:	d064      	beq.n	8003ab8 <HAL_GPIO_Init+0x100>
 80039ee:	ea4f 0943 	mov.w	r9, r3, lsl #1
 80039f2:	2203      	movs	r2, #3
 80039f4:	f8d0 b000 	ldr.w	fp, [r0]
 80039f8:	fa02 f209 	lsl.w	r2, r2, r9
 80039fc:	43d2      	mvns	r2, r2
 80039fe:	f005 0803 	and.w	r8, r5, #3
 8003a02:	ea02 0b0b 	and.w	fp, r2, fp
 8003a06:	fa08 f809 	lsl.w	r8, r8, r9
 8003a0a:	f10a 3aff 	add.w	sl, sl, #4294967295
 8003a0e:	ea4b 0808 	orr.w	r8, fp, r8
 8003a12:	f1ba 0f01 	cmp.w	sl, #1
 8003a16:	9201      	str	r2, [sp, #4]
 8003a18:	f8c0 8000 	str.w	r8, [r0]
 8003a1c:	d976      	bls.n	8003b0c <HAL_GPIO_Init+0x154>
 8003a1e:	f8d0 800c 	ldr.w	r8, [r0, #12]
 8003a22:	ea02 0a08 	and.w	sl, r2, r8
 8003a26:	688a      	ldr	r2, [r1, #8]
 8003a28:	fa02 f809 	lsl.w	r8, r2, r9
 8003a2c:	ea4a 0208 	orr.w	r2, sl, r8
 8003a30:	60c2      	str	r2, [r0, #12]
 8003a32:	00ea      	lsls	r2, r5, #3
 8003a34:	d5cb      	bpl.n	80039ce <HAL_GPIO_Init+0x16>
 8003a36:	f8de 2044 	ldr.w	r2, [lr, #68]	; 0x44
 8003a3a:	f023 0903 	bic.w	r9, r3, #3
 8003a3e:	f109 4980 	add.w	r9, r9, #1073741824	; 0x40000000
 8003a42:	f442 4280 	orr.w	r2, r2, #16384	; 0x4000
 8003a46:	f509 399c 	add.w	r9, r9, #79872	; 0x13800
 8003a4a:	f8ce 2044 	str.w	r2, [lr, #68]	; 0x44
 8003a4e:	f003 0a03 	and.w	sl, r3, #3
 8003a52:	f8d9 8008 	ldr.w	r8, [r9, #8]
 8003a56:	ea4f 0a8a 	mov.w	sl, sl, lsl #2
 8003a5a:	220f      	movs	r2, #15
 8003a5c:	fa02 f20a 	lsl.w	r2, r2, sl
 8003a60:	4560      	cmp	r0, ip
 8003a62:	ea28 0802 	bic.w	r8, r8, r2
 8003a66:	d06d      	beq.n	8003b44 <HAL_GPIO_Init+0x18c>
 8003a68:	4a5b      	ldr	r2, [pc, #364]	; (8003bd8 <HAL_GPIO_Init+0x220>)
 8003a6a:	4290      	cmp	r0, r2
 8003a6c:	f000 8091 	beq.w	8003b92 <HAL_GPIO_Init+0x1da>
 8003a70:	4a5a      	ldr	r2, [pc, #360]	; (8003bdc <HAL_GPIO_Init+0x224>)
 8003a72:	4290      	cmp	r0, r2
 8003a74:	f000 8091 	beq.w	8003b9a <HAL_GPIO_Init+0x1e2>
 8003a78:	4a59      	ldr	r2, [pc, #356]	; (8003be0 <HAL_GPIO_Init+0x228>)
 8003a7a:	4290      	cmp	r0, r2
 8003a7c:	f000 8091 	beq.w	8003ba2 <HAL_GPIO_Init+0x1ea>
 8003a80:	4a58      	ldr	r2, [pc, #352]	; (8003be4 <HAL_GPIO_Init+0x22c>)
 8003a82:	4290      	cmp	r0, r2
 8003a84:	f000 8091 	beq.w	8003baa <HAL_GPIO_Init+0x1f2>
 8003a88:	4a57      	ldr	r2, [pc, #348]	; (8003be8 <HAL_GPIO_Init+0x230>)
 8003a8a:	4290      	cmp	r0, r2
 8003a8c:	f000 8095 	beq.w	8003bba <HAL_GPIO_Init+0x202>
 8003a90:	4a56      	ldr	r2, [pc, #344]	; (8003bec <HAL_GPIO_Init+0x234>)
 8003a92:	4290      	cmp	r0, r2
 8003a94:	f000 8095 	beq.w	8003bc2 <HAL_GPIO_Init+0x20a>
 8003a98:	4a55      	ldr	r2, [pc, #340]	; (8003bf0 <HAL_GPIO_Init+0x238>)
 8003a9a:	4290      	cmp	r0, r2
 8003a9c:	f000 8089 	beq.w	8003bb2 <HAL_GPIO_Init+0x1fa>
 8003aa0:	4a54      	ldr	r2, [pc, #336]	; (8003bf4 <HAL_GPIO_Init+0x23c>)
 8003aa2:	4290      	cmp	r0, r2
 8003aa4:	f000 8091 	beq.w	8003bca <HAL_GPIO_Init+0x212>
 8003aa8:	4a53      	ldr	r2, [pc, #332]	; (8003bf8 <HAL_GPIO_Init+0x240>)
 8003aaa:	4290      	cmp	r0, r2
 8003aac:	bf0c      	ite	eq
 8003aae:	2209      	moveq	r2, #9
 8003ab0:	220a      	movne	r2, #10
 8003ab2:	fa02 f20a 	lsl.w	r2, r2, sl
 8003ab6:	e046      	b.n	8003b46 <HAL_GPIO_Init+0x18e>
 8003ab8:	ea4f 09d3 	mov.w	r9, r3, lsr #3
 8003abc:	eb00 0989 	add.w	r9, r0, r9, lsl #2
 8003ac0:	f003 0807 	and.w	r8, r3, #7
 8003ac4:	f8d9 2020 	ldr.w	r2, [r9, #32]
 8003ac8:	ea4f 0888 	mov.w	r8, r8, lsl #2
 8003acc:	f04f 0a0f 	mov.w	sl, #15
 8003ad0:	fa0a fa08 	lsl.w	sl, sl, r8
 8003ad4:	ea22 0a0a 	bic.w	sl, r2, sl
 8003ad8:	690a      	ldr	r2, [r1, #16]
 8003ada:	fa02 f208 	lsl.w	r2, r2, r8
 8003ade:	ea4a 0202 	orr.w	r2, sl, r2
 8003ae2:	f8c9 2020 	str.w	r2, [r9, #32]
 8003ae6:	ea4f 0943 	mov.w	r9, r3, lsl #1
 8003aea:	2203      	movs	r2, #3
 8003aec:	f8d0 a000 	ldr.w	sl, [r0]
 8003af0:	fa02 f209 	lsl.w	r2, r2, r9
 8003af4:	43d2      	mvns	r2, r2
 8003af6:	f005 0803 	and.w	r8, r5, #3
 8003afa:	ea02 0a0a 	and.w	sl, r2, sl
 8003afe:	fa08 f809 	lsl.w	r8, r8, r9
 8003b02:	ea4a 0808 	orr.w	r8, sl, r8
 8003b06:	9201      	str	r2, [sp, #4]
 8003b08:	f8c0 8000 	str.w	r8, [r0]
 8003b0c:	f8d0 8008 	ldr.w	r8, [r0, #8]
 8003b10:	ea02 0a08 	and.w	sl, r2, r8
 8003b14:	68ca      	ldr	r2, [r1, #12]
 8003b16:	fa02 f809 	lsl.w	r8, r2, r9
 8003b1a:	ea4a 0808 	orr.w	r8, sl, r8
 8003b1e:	f8c0 8008 	str.w	r8, [r0, #8]
 8003b22:	f8d0 a004 	ldr.w	sl, [r0, #4]
 8003b26:	9a01      	ldr	r2, [sp, #4]
 8003b28:	f3c5 1800 	ubfx	r8, r5, #4, #1
 8003b2c:	ea2a 0a04 	bic.w	sl, sl, r4
 8003b30:	fa08 f803 	lsl.w	r8, r8, r3
 8003b34:	ea4a 0808 	orr.w	r8, sl, r8
 8003b38:	f8c0 8004 	str.w	r8, [r0, #4]
 8003b3c:	e76f      	b.n	8003a1e <HAL_GPIO_Init+0x66>
 8003b3e:	b003      	add	sp, #12
 8003b40:	e8bd 8ff0 	ldmia.w	sp!, {r4, r5, r6, r7, r8, r9, sl, fp, pc}
 8003b44:	2200      	movs	r2, #0
 8003b46:	ea42 0208 	orr.w	r2, r2, r8
 8003b4a:	f8c9 2008 	str.w	r2, [r9, #8]
 8003b4e:	6832      	ldr	r2, [r6, #0]
 8003b50:	ea6f 0804 	mvn.w	r8, r4
 8003b54:	f415 3f80 	tst.w	r5, #65536	; 0x10000
 8003b58:	bf14      	ite	ne
 8003b5a:	4322      	orrne	r2, r4
 8003b5c:	ea08 0202 	andeq.w	r2, r8, r2
 8003b60:	6032      	str	r2, [r6, #0]
 8003b62:	6872      	ldr	r2, [r6, #4]
 8003b64:	f415 3f00 	tst.w	r5, #131072	; 0x20000
 8003b68:	bf14      	ite	ne
 8003b6a:	4322      	orrne	r2, r4
 8003b6c:	ea08 0202 	andeq.w	r2, r8, r2
 8003b70:	6072      	str	r2, [r6, #4]
 8003b72:	68b2      	ldr	r2, [r6, #8]
 8003b74:	f415 1f80 	tst.w	r5, #1048576	; 0x100000
 8003b78:	bf14      	ite	ne
 8003b7a:	4322      	orrne	r2, r4
 8003b7c:	ea08 0202 	andeq.w	r2, r8, r2
 8003b80:	60b2      	str	r2, [r6, #8]
 8003b82:	68f2      	ldr	r2, [r6, #12]
 8003b84:	02ad      	lsls	r5, r5, #10
 8003b86:	bf54      	ite	pl
 8003b88:	ea08 0402 	andpl.w	r4, r8, r2
 8003b8c:	4314      	orrmi	r4, r2
 8003b8e:	60f4      	str	r4, [r6, #12]
 8003b90:	e71d      	b.n	80039ce <HAL_GPIO_Init+0x16>
 8003b92:	2201      	movs	r2, #1
 8003b94:	fa02 f20a 	lsl.w	r2, r2, sl
 8003b98:	e7d5      	b.n	8003b46 <HAL_GPIO_Init+0x18e>
 8003b9a:	2202      	movs	r2, #2
 8003b9c:	fa02 f20a 	lsl.w	r2, r2, sl
 8003ba0:	e7d1      	b.n	8003b46 <HAL_GPIO_Init+0x18e>
 8003ba2:	2203      	movs	r2, #3
 8003ba4:	fa02 f20a 	lsl.w	r2, r2, sl
 8003ba8:	e7cd      	b.n	8003b46 <HAL_GPIO_Init+0x18e>
 8003baa:	2204      	movs	r2, #4
 8003bac:	fa02 f20a 	lsl.w	r2, r2, sl
 8003bb0:	e7c9      	b.n	8003b46 <HAL_GPIO_Init+0x18e>
 8003bb2:	2207      	movs	r2, #7
 8003bb4:	fa02 f20a 	lsl.w	r2, r2, sl
 8003bb8:	e7c5      	b.n	8003b46 <HAL_GPIO_Init+0x18e>
 8003bba:	2205      	movs	r2, #5
 8003bbc:	fa02 f20a 	lsl.w	r2, r2, sl
 8003bc0:	e7c1      	b.n	8003b46 <HAL_GPIO_Init+0x18e>
 8003bc2:	2206      	movs	r2, #6
 8003bc4:	fa02 f20a 	lsl.w	r2, r2, sl
 8003bc8:	e7bd      	b.n	8003b46 <HAL_GPIO_Init+0x18e>
 8003bca:	2208      	movs	r2, #8
 8003bcc:	fa02 f20a 	lsl.w	r2, r2, sl
 8003bd0:	e7b9      	b.n	8003b46 <HAL_GPIO_Init+0x18e>
 8003bd2:	bf00      	nop
 8003bd4:	40013c00 	.word	0x40013c00
 8003bd8:	40020400 	.word	0x40020400
 8003bdc:	40020800 	.word	0x40020800
 8003be0:	40020c00 	.word	0x40020c00
 8003be4:	40021000 	.word	0x40021000
 8003be8:	40021400 	.word	0x40021400
 8003bec:	40021800 	.word	0x40021800
 8003bf0:	40021c00 	.word	0x40021c00
 8003bf4:	40022000 	.word	0x40022000
 8003bf8:	40022400 	.word	0x40022400
 8003bfc:	40020000 	.word	0x40020000
 8003c00:	40023800 	.word	0x40023800

08003c04 <HAL_GPIO_ReadPin>:
HAL_GPIO_ReadPin():
 8003c04:	6903      	ldr	r3, [r0, #16]
 8003c06:	4219      	tst	r1, r3
 8003c08:	bf14      	ite	ne
 8003c0a:	2001      	movne	r0, #1
 8003c0c:	2000      	moveq	r0, #0
 8003c0e:	4770      	bx	lr

08003c10 <HAL_GPIO_WritePin>:
HAL_GPIO_WritePin():
 8003c10:	b90a      	cbnz	r2, 8003c16 <HAL_GPIO_WritePin+0x6>
 8003c12:	8341      	strh	r1, [r0, #26]
 8003c14:	4770      	bx	lr
 8003c16:	8301      	strh	r1, [r0, #24]
 8003c18:	4770      	bx	lr
 8003c1a:	bf00      	nop

08003c1c <HAL_GPIO_TogglePin>:
HAL_GPIO_TogglePin():
 8003c1c:	6943      	ldr	r3, [r0, #20]
 8003c1e:	4059      	eors	r1, r3
 8003c20:	6141      	str	r1, [r0, #20]
 8003c22:	4770      	bx	lr

08003c24 <HAL_GPIO_EXTI_IRQHandler>:
HAL_GPIO_EXTI_IRQHandler():
 8003c24:	4a04      	ldr	r2, [pc, #16]	; (8003c38 <HAL_GPIO_EXTI_IRQHandler+0x14>)
 8003c26:	6951      	ldr	r1, [r2, #20]
 8003c28:	4208      	tst	r0, r1
 8003c2a:	b508      	push	{r3, lr}
 8003c2c:	d002      	beq.n	8003c34 <HAL_GPIO_EXTI_IRQHandler+0x10>
 8003c2e:	6150      	str	r0, [r2, #20]
 8003c30:	f005 ffde 	bl	8009bf0 <HAL_GPIO_EXTI_Callback>
 8003c34:	bd08      	pop	{r3, pc}
 8003c36:	bf00      	nop
 8003c38:	40013c00 	.word	0x40013c00

08003c3c <HAL_HCD_HC_Init>:
HAL_HCD_HC_Init():
 8003c3c:	e92d 4ff0 	stmdb	sp!, {r4, r5, r6, r7, r8, r9, sl, fp, lr}
 8003c40:	f890 5288 	ldrb.w	r5, [r0, #648]	; 0x288
 8003c44:	b085      	sub	sp, #20
 8003c46:	2d01      	cmp	r5, #1
 8003c48:	4604      	mov	r4, r0
 8003c4a:	f89d 8038 	ldrb.w	r8, [sp, #56]	; 0x38
 8003c4e:	f89d c03c 	ldrb.w	ip, [sp, #60]	; 0x3c
 8003c52:	f8bd e040 	ldrh.w	lr, [sp, #64]	; 0x40
 8003c56:	d103      	bne.n	8003c60 <HAL_HCD_HC_Init+0x24>
 8003c58:	2002      	movs	r0, #2
 8003c5a:	b005      	add	sp, #20
 8003c5c:	e8bd 8ff0 	ldmia.w	sp!, {r4, r5, r6, r7, r8, r9, sl, fp, pc}
 8003c60:	eb01 0681 	add.w	r6, r1, r1, lsl #2
 8003c64:	eb04 06c6 	add.w	r6, r4, r6, lsl #3
 8003c68:	09d0      	lsrs	r0, r2, #7
 8003c6a:	f002 0a7f 	and.w	sl, r2, #127	; 0x7f
 8003c6e:	f04f 0b01 	mov.w	fp, #1
 8003c72:	f884 b288 	strb.w	fp, [r4, #648]	; 0x288
 8003c76:	f886 3030 	strb.w	r3, [r6, #48]	; 0x30
 8003c7a:	f886 1031 	strb.w	r1, [r6, #49]	; 0x31
 8003c7e:	f886 c037 	strb.w	ip, [r6, #55]	; 0x37
 8003c82:	f886 8034 	strb.w	r8, [r6, #52]	; 0x34
 8003c86:	f886 a032 	strb.w	sl, [r6, #50]	; 0x32
 8003c8a:	f886 0033 	strb.w	r0, [r6, #51]	; 0x33
 8003c8e:	f8a6 e038 	strh.w	lr, [r6, #56]	; 0x38
 8003c92:	6820      	ldr	r0, [r4, #0]
 8003c94:	e88d 5100 	stmia.w	sp, {r8, ip, lr}
 8003c98:	f002 f8a2 	bl	8005de0 <USB_HC_Init>
 8003c9c:	2300      	movs	r3, #0
 8003c9e:	f884 3288 	strb.w	r3, [r4, #648]	; 0x288
 8003ca2:	b005      	add	sp, #20
 8003ca4:	e8bd 8ff0 	ldmia.w	sp!, {r4, r5, r6, r7, r8, r9, sl, fp, pc}

08003ca8 <HAL_HCD_HC_Halt>:
HAL_HCD_HC_Halt():
 8003ca8:	f890 3288 	ldrb.w	r3, [r0, #648]	; 0x288
 8003cac:	2b01      	cmp	r3, #1
 8003cae:	d101      	bne.n	8003cb4 <HAL_HCD_HC_Halt+0xc>
 8003cb0:	2002      	movs	r0, #2
 8003cb2:	4770      	bx	lr
 8003cb4:	b510      	push	{r4, lr}
 8003cb6:	2301      	movs	r3, #1
 8003cb8:	4604      	mov	r4, r0
 8003cba:	f880 3288 	strb.w	r3, [r0, #648]	; 0x288
 8003cbe:	6800      	ldr	r0, [r0, #0]
 8003cc0:	f002 f924 	bl	8005f0c <USB_HC_Halt>
 8003cc4:	2000      	movs	r0, #0
 8003cc6:	f884 0288 	strb.w	r0, [r4, #648]	; 0x288
 8003cca:	bd10      	pop	{r4, pc}

08003ccc <HAL_HCD_Init>:
HAL_HCD_Init():
 8003ccc:	b3b0      	cbz	r0, 8003d3c <HAL_HCD_Init+0x70>
 8003cce:	e92d 41f0 	stmdb	sp!, {r4, r5, r6, r7, r8, lr}
 8003cd2:	2303      	movs	r3, #3
 8003cd4:	4606      	mov	r6, r0
 8003cd6:	b088      	sub	sp, #32
 8003cd8:	f880 3289 	strb.w	r3, [r0, #649]	; 0x289
 8003cdc:	4604      	mov	r4, r0
 8003cde:	f003 f89b 	bl	8006e18 <HAL_HCD_MspInit>
 8003ce2:	6830      	ldr	r0, [r6, #0]
 8003ce4:	f001 ff0c 	bl	8005b00 <USB_DisableGlobalInt>
 8003ce8:	f854 7b10 	ldr.w	r7, [r4], #16
 8003cec:	cc0f      	ldmia	r4!, {r0, r1, r2, r3}
 8003cee:	466d      	mov	r5, sp
 8003cf0:	c50f      	stmia	r5!, {r0, r1, r2, r3}
 8003cf2:	e894 000f 	ldmia.w	r4, {r0, r1, r2, r3}
 8003cf6:	e885 000f 	stmia.w	r5, {r0, r1, r2, r3}
 8003cfa:	f106 0804 	add.w	r8, r6, #4
 8003cfe:	e898 000e 	ldmia.w	r8, {r1, r2, r3}
 8003d02:	4638      	mov	r0, r7
 8003d04:	4637      	mov	r7, r6
 8003d06:	f001 fe97 	bl	8005a38 <USB_CoreInit>
 8003d0a:	6830      	ldr	r0, [r6, #0]
 8003d0c:	2101      	movs	r1, #1
 8003d0e:	f001 feff 	bl	8005b10 <USB_SetCurrentMode>
 8003d12:	f857 eb10 	ldr.w	lr, [r7], #16
 8003d16:	cf0f      	ldmia	r7!, {r0, r1, r2, r3}
 8003d18:	466d      	mov	r5, sp
 8003d1a:	c50f      	stmia	r5!, {r0, r1, r2, r3}
 8003d1c:	e894 000f 	ldmia.w	r4, {r0, r1, r2, r3}
 8003d20:	e885 000f 	stmia.w	r5, {r0, r1, r2, r3}
 8003d24:	4670      	mov	r0, lr
 8003d26:	e898 000e 	ldmia.w	r8, {r1, r2, r3}
 8003d2a:	f001 ff5f 	bl	8005bec <USB_HostInit>
 8003d2e:	2301      	movs	r3, #1
 8003d30:	2000      	movs	r0, #0
 8003d32:	f886 3289 	strb.w	r3, [r6, #649]	; 0x289
 8003d36:	b008      	add	sp, #32
 8003d38:	e8bd 81f0 	ldmia.w	sp!, {r4, r5, r6, r7, r8, pc}
 8003d3c:	2001      	movs	r0, #1
 8003d3e:	4770      	bx	lr

08003d40 <HAL_HCD_HC_SubmitRequest>:
HAL_HCD_HC_SubmitRequest():
 8003d40:	e92d 43f0 	stmdb	sp!, {r4, r5, r6, r7, r8, r9, lr}
 8003d44:	008c      	lsls	r4, r1, #2
 8003d46:	f89d c01c 	ldrb.w	ip, [sp, #28]
 8003d4a:	9f08      	ldr	r7, [sp, #32]
 8003d4c:	f8bd 6024 	ldrh.w	r6, [sp, #36]	; 0x24
 8003d50:	f89d 8028 	ldrb.w	r8, [sp, #40]	; 0x28
 8003d54:	4605      	mov	r5, r0
 8003d56:	1860      	adds	r0, r4, r1
 8003d58:	eb05 00c0 	add.w	r0, r5, r0, lsl #3
 8003d5c:	f1bc 0f00 	cmp.w	ip, #0
 8003d60:	bf14      	ite	ne
 8003d62:	f04f 0902 	movne.w	r9, #2
 8003d66:	f04f 0903 	moveq.w	r9, #3
 8003d6a:	f880 2033 	strb.w	r2, [r0, #51]	; 0x33
 8003d6e:	f880 3037 	strb.w	r3, [r0, #55]	; 0x37
 8003d72:	f880 903a 	strb.w	r9, [r0, #58]	; 0x3a
 8003d76:	2b03      	cmp	r3, #3
 8003d78:	d809      	bhi.n	8003d8e <HAL_HCD_HC_SubmitRequest+0x4e>
 8003d7a:	e8df f003 	tbb	[pc, r3]
 8003d7e:	0239      	.short	0x0239
 8003d80:	1d27      	.short	0x1d27
 8003d82:	1863      	adds	r3, r4, r1
 8003d84:	eb05 03c3 	add.w	r3, r5, r3, lsl #3
 8003d88:	2200      	movs	r2, #0
 8003d8a:	f883 203a 	strb.w	r2, [r3, #58]	; 0x3a
 8003d8e:	440c      	add	r4, r1
 8003d90:	00e4      	lsls	r4, r4, #3
 8003d92:	192b      	adds	r3, r5, r4
 8003d94:	2200      	movs	r2, #0
 8003d96:	f883 1031 	strb.w	r1, [r3, #49]	; 0x31
 8003d9a:	3430      	adds	r4, #48	; 0x30
 8003d9c:	63df      	str	r7, [r3, #60]	; 0x3c
 8003d9e:	641e      	str	r6, [r3, #64]	; 0x40
 8003da0:	f883 2054 	strb.w	r2, [r3, #84]	; 0x54
 8003da4:	645a      	str	r2, [r3, #68]	; 0x44
 8003da6:	1929      	adds	r1, r5, r4
 8003da8:	f883 2055 	strb.w	r2, [r3, #85]	; 0x55
 8003dac:	6828      	ldr	r0, [r5, #0]
 8003dae:	7c2a      	ldrb	r2, [r5, #16]
 8003db0:	e8bd 43f0 	ldmia.w	sp!, {r4, r5, r6, r7, r8, r9, lr}
 8003db4:	f002 b9ec 	b.w	8006190 <USB_HC_StartXfer>
 8003db8:	1863      	adds	r3, r4, r1
 8003dba:	eb05 03c3 	add.w	r3, r5, r3, lsl #3
 8003dbe:	bb6a      	cbnz	r2, 8003e1c <HAL_HCD_HC_SubmitRequest+0xdc>
 8003dc0:	f893 0049 	ldrb.w	r0, [r3, #73]	; 0x49
 8003dc4:	2800      	cmp	r0, #0
 8003dc6:	d0e0      	beq.n	8003d8a <HAL_HCD_HC_SubmitRequest+0x4a>
 8003dc8:	2202      	movs	r2, #2
 8003dca:	e7de      	b.n	8003d8a <HAL_HCD_HC_SubmitRequest+0x4a>
 8003dcc:	1863      	adds	r3, r4, r1
 8003dce:	eb05 03c3 	add.w	r3, r5, r3, lsl #3
 8003dd2:	bb1a      	cbnz	r2, 8003e1c <HAL_HCD_HC_SubmitRequest+0xdc>
 8003dd4:	f893 2049 	ldrb.w	r2, [r3, #73]	; 0x49
 8003dd8:	f893 0054 	ldrb.w	r0, [r3, #84]	; 0x54
 8003ddc:	2a00      	cmp	r2, #0
 8003dde:	bf18      	it	ne
 8003de0:	2202      	movne	r2, #2
 8003de2:	2802      	cmp	r0, #2
 8003de4:	f883 203a 	strb.w	r2, [r3, #58]	; 0x3a
 8003de8:	d0d1      	beq.n	8003d8e <HAL_HCD_HC_SubmitRequest+0x4e>
 8003dea:	f883 8035 	strb.w	r8, [r3, #53]	; 0x35
 8003dee:	e7ce      	b.n	8003d8e <HAL_HCD_HC_SubmitRequest+0x4e>
 8003df0:	f1bc 0f01 	cmp.w	ip, #1
 8003df4:	d1cb      	bne.n	8003d8e <HAL_HCD_HC_SubmitRequest+0x4e>
 8003df6:	2a00      	cmp	r2, #0
 8003df8:	d1c9      	bne.n	8003d8e <HAL_HCD_HC_SubmitRequest+0x4e>
 8003dfa:	1863      	adds	r3, r4, r1
 8003dfc:	eb05 03c3 	add.w	r3, r5, r3, lsl #3
 8003e00:	b996      	cbnz	r6, 8003e28 <HAL_HCD_HC_SubmitRequest+0xe8>
 8003e02:	2202      	movs	r2, #2
 8003e04:	f883 c049 	strb.w	ip, [r3, #73]	; 0x49
 8003e08:	1863      	adds	r3, r4, r1
 8003e0a:	eb05 03c3 	add.w	r3, r5, r3, lsl #3
 8003e0e:	f893 0054 	ldrb.w	r0, [r3, #84]	; 0x54
 8003e12:	f883 203a 	strb.w	r2, [r3, #58]	; 0x3a
 8003e16:	2802      	cmp	r0, #2
 8003e18:	d1e7      	bne.n	8003dea <HAL_HCD_HC_SubmitRequest+0xaa>
 8003e1a:	e7b8      	b.n	8003d8e <HAL_HCD_HC_SubmitRequest+0x4e>
 8003e1c:	f893 2048 	ldrb.w	r2, [r3, #72]	; 0x48
 8003e20:	2a00      	cmp	r2, #0
 8003e22:	d0b2      	beq.n	8003d8a <HAL_HCD_HC_SubmitRequest+0x4a>
 8003e24:	2202      	movs	r2, #2
 8003e26:	e7b0      	b.n	8003d8a <HAL_HCD_HC_SubmitRequest+0x4a>
 8003e28:	f893 2049 	ldrb.w	r2, [r3, #73]	; 0x49
 8003e2c:	2a00      	cmp	r2, #0
 8003e2e:	bf18      	it	ne
 8003e30:	2202      	movne	r2, #2
 8003e32:	e7e9      	b.n	8003e08 <HAL_HCD_HC_SubmitRequest+0xc8>

08003e34 <HAL_HCD_IRQHandler>:
HAL_HCD_IRQHandler():
 8003e34:	e92d 4ff0 	stmdb	sp!, {r4, r5, r6, r7, r8, r9, sl, fp, lr}
 8003e38:	6805      	ldr	r5, [r0, #0]
 8003e3a:	b085      	sub	sp, #20
 8003e3c:	4604      	mov	r4, r0
 8003e3e:	4628      	mov	r0, r5
 8003e40:	f001 fed0 	bl	8005be4 <USB_GetMode>
 8003e44:	2801      	cmp	r0, #1
 8003e46:	d002      	beq.n	8003e4e <HAL_HCD_IRQHandler+0x1a>
 8003e48:	b005      	add	sp, #20
 8003e4a:	e8bd 8ff0 	ldmia.w	sp!, {r4, r5, r6, r7, r8, r9, sl, fp, pc}
 8003e4e:	6820      	ldr	r0, [r4, #0]
 8003e50:	f001 fec4 	bl	8005bdc <USB_ReadInterrupts>
 8003e54:	2800      	cmp	r0, #0
 8003e56:	d0f7      	beq.n	8003e48 <HAL_HCD_IRQHandler+0x14>
 8003e58:	6820      	ldr	r0, [r4, #0]
 8003e5a:	f001 febf 	bl	8005bdc <USB_ReadInterrupts>
 8003e5e:	f410 1f00 	tst.w	r0, #2097152	; 0x200000
 8003e62:	6820      	ldr	r0, [r4, #0]
 8003e64:	bf1c      	itt	ne
 8003e66:	f44f 1300 	movne.w	r3, #2097152	; 0x200000
 8003e6a:	6143      	strne	r3, [r0, #20]
 8003e6c:	f001 feb6 	bl	8005bdc <USB_ReadInterrupts>
 8003e70:	f410 1f80 	tst.w	r0, #1048576	; 0x100000
 8003e74:	6820      	ldr	r0, [r4, #0]
 8003e76:	bf1c      	itt	ne
 8003e78:	f44f 1380 	movne.w	r3, #1048576	; 0x100000
 8003e7c:	6143      	strne	r3, [r0, #20]
 8003e7e:	f001 fead 	bl	8005bdc <USB_ReadInterrupts>
 8003e82:	f010 6f80 	tst.w	r0, #67108864	; 0x4000000
 8003e86:	6820      	ldr	r0, [r4, #0]
 8003e88:	bf1c      	itt	ne
 8003e8a:	f04f 6380 	movne.w	r3, #67108864	; 0x4000000
 8003e8e:	6143      	strne	r3, [r0, #20]
 8003e90:	f001 fea4 	bl	8005bdc <USB_ReadInterrupts>
 8003e94:	f010 0f02 	tst.w	r0, #2
 8003e98:	6820      	ldr	r0, [r4, #0]
 8003e9a:	bf1c      	itt	ne
 8003e9c:	2302      	movne	r3, #2
 8003e9e:	6143      	strne	r3, [r0, #20]
 8003ea0:	f001 fe9c 	bl	8005bdc <USB_ReadInterrupts>
 8003ea4:	0080      	lsls	r0, r0, #2
 8003ea6:	f100 813d 	bmi.w	8004124 <HAL_HCD_IRQHandler+0x2f0>
 8003eaa:	6820      	ldr	r0, [r4, #0]
 8003eac:	f001 fe96 	bl	8005bdc <USB_ReadInterrupts>
 8003eb0:	01c1      	lsls	r1, r0, #7
 8003eb2:	6826      	ldr	r6, [r4, #0]
 8003eb4:	f100 8110 	bmi.w	80040d8 <HAL_HCD_IRQHandler+0x2a4>
 8003eb8:	4630      	mov	r0, r6
 8003eba:	f001 fe8f 	bl	8005bdc <USB_ReadInterrupts>
 8003ebe:	0703      	lsls	r3, r0, #28
 8003ec0:	f100 8142 	bmi.w	8004148 <HAL_HCD_IRQHandler+0x314>
 8003ec4:	6820      	ldr	r0, [r4, #0]
 8003ec6:	f001 fe89 	bl	8005bdc <USB_ReadInterrupts>
 8003eca:	f010 7f00 	tst.w	r0, #33554432	; 0x2000000
 8003ece:	6820      	ldr	r0, [r4, #0]
 8003ed0:	d143      	bne.n	8003f5a <HAL_HCD_IRQHandler+0x126>
 8003ed2:	f001 fe83 	bl	8005bdc <USB_ReadInterrupts>
 8003ed6:	06c3      	lsls	r3, r0, #27
 8003ed8:	d5b6      	bpl.n	8003e48 <HAL_HCD_IRQHandler+0x14>
 8003eda:	6825      	ldr	r5, [r4, #0]
 8003edc:	69ab      	ldr	r3, [r5, #24]
 8003ede:	f023 0310 	bic.w	r3, r3, #16
 8003ee2:	61ab      	str	r3, [r5, #24]
 8003ee4:	6a2b      	ldr	r3, [r5, #32]
 8003ee6:	f3c3 4243 	ubfx	r2, r3, #17, #4
 8003eea:	2a02      	cmp	r2, #2
 8003eec:	d130      	bne.n	8003f50 <HAL_HCD_IRQHandler+0x11c>
 8003eee:	f3c3 170a 	ubfx	r7, r3, #4, #11
 8003ef2:	b36f      	cbz	r7, 8003f50 <HAL_HCD_IRQHandler+0x11c>
 8003ef4:	f003 060f 	and.w	r6, r3, #15
 8003ef8:	eb06 0886 	add.w	r8, r6, r6, lsl #2
 8003efc:	eb04 08c8 	add.w	r8, r4, r8, lsl #3
 8003f00:	f8d8 103c 	ldr.w	r1, [r8, #60]	; 0x3c
 8003f04:	b321      	cbz	r1, 8003f50 <HAL_HCD_IRQHandler+0x11c>
 8003f06:	463a      	mov	r2, r7
 8003f08:	4628      	mov	r0, r5
 8003f0a:	f001 fe51 	bl	8005bb0 <USB_ReadPacket>
 8003f0e:	f505 63a0 	add.w	r3, r5, #1280	; 0x500
 8003f12:	eb03 1346 	add.w	r3, r3, r6, lsl #5
 8003f16:	f8d8 1044 	ldr.w	r1, [r8, #68]	; 0x44
 8003f1a:	691e      	ldr	r6, [r3, #16]
 8003f1c:	f8d8 003c 	ldr.w	r0, [r8, #60]	; 0x3c
 8003f20:	4ab8      	ldr	r2, [pc, #736]	; (8004204 <HAL_HCD_IRQHandler+0x3d0>)
 8003f22:	4439      	add	r1, r7
 8003f24:	4032      	ands	r2, r6
 8003f26:	4407      	add	r7, r0
 8003f28:	f8c8 703c 	str.w	r7, [r8, #60]	; 0x3c
 8003f2c:	f8c8 1044 	str.w	r1, [r8, #68]	; 0x44
 8003f30:	b16a      	cbz	r2, 8003f4e <HAL_HCD_IRQHandler+0x11a>
 8003f32:	681a      	ldr	r2, [r3, #0]
 8003f34:	f022 4280 	bic.w	r2, r2, #1073741824	; 0x40000000
 8003f38:	601a      	str	r2, [r3, #0]
 8003f3a:	681a      	ldr	r2, [r3, #0]
 8003f3c:	f042 4200 	orr.w	r2, r2, #2147483648	; 0x80000000
 8003f40:	601a      	str	r2, [r3, #0]
 8003f42:	f898 3048 	ldrb.w	r3, [r8, #72]	; 0x48
 8003f46:	f083 0301 	eor.w	r3, r3, #1
 8003f4a:	f888 3048 	strb.w	r3, [r8, #72]	; 0x48
 8003f4e:	6825      	ldr	r5, [r4, #0]
 8003f50:	69ab      	ldr	r3, [r5, #24]
 8003f52:	f043 0310 	orr.w	r3, r3, #16
 8003f56:	61ab      	str	r3, [r5, #24]
 8003f58:	e776      	b.n	8003e48 <HAL_HCD_IRQHandler+0x14>
 8003f5a:	f001 ffc7 	bl	8005eec <USB_HC_ReadInterrupt>
 8003f5e:	68a2      	ldr	r2, [r4, #8]
 8003f60:	4683      	mov	fp, r0
 8003f62:	6820      	ldr	r0, [r4, #0]
 8003f64:	2a00      	cmp	r2, #0
 8003f66:	f000 80b3 	beq.w	80040d0 <HAL_HCD_IRQHandler+0x29c>
 8003f6a:	f505 65a0 	add.w	r5, r5, #1280	; 0x500
 8003f6e:	2600      	movs	r6, #0
 8003f70:	f04f 0a01 	mov.w	sl, #1
 8003f74:	e049      	b.n	800400a <HAL_HCD_IRQHandler+0x1d6>
 8003f76:	ea4f 1c48 	mov.w	ip, r8, lsl #5
 8003f7a:	f500 63a0 	add.w	r3, r0, #1280	; 0x500
 8003f7e:	eb03 070c 	add.w	r7, r3, ip
 8003f82:	68ba      	ldr	r2, [r7, #8]
 8003f84:	0751      	lsls	r1, r2, #29
 8003f86:	d576      	bpl.n	8004076 <HAL_HCD_IRQHandler+0x242>
 8003f88:	2204      	movs	r2, #4
 8003f8a:	60ba      	str	r2, [r7, #8]
 8003f8c:	68fa      	ldr	r2, [r7, #12]
 8003f8e:	f042 0202 	orr.w	r2, r2, #2
 8003f92:	60fa      	str	r2, [r7, #12]
 8003f94:	68ba      	ldr	r2, [r7, #8]
 8003f96:	0591      	lsls	r1, r2, #22
 8003f98:	f100 8156 	bmi.w	8004248 <HAL_HCD_IRQHandler+0x414>
 8003f9c:	68ba      	ldr	r2, [r7, #8]
 8003f9e:	07d2      	lsls	r2, r2, #31
 8003fa0:	d570      	bpl.n	8004084 <HAL_HCD_IRQHandler+0x250>
 8003fa2:	6922      	ldr	r2, [r4, #16]
 8003fa4:	ea4f 0988 	mov.w	r9, r8, lsl #2
 8003fa8:	b14a      	cbz	r2, 8003fbe <HAL_HCD_IRQHandler+0x18a>
 8003faa:	eb09 0208 	add.w	r2, r9, r8
 8003fae:	eb04 02c2 	add.w	r2, r4, r2, lsl #3
 8003fb2:	6938      	ldr	r0, [r7, #16]
 8003fb4:	6c11      	ldr	r1, [r2, #64]	; 0x40
 8003fb6:	f3c0 0012 	ubfx	r0, r0, #0, #19
 8003fba:	1a09      	subs	r1, r1, r0
 8003fbc:	6451      	str	r1, [r2, #68]	; 0x44
 8003fbe:	eb09 0208 	add.w	r2, r9, r8
 8003fc2:	eb04 02c2 	add.w	r2, r4, r2, lsl #3
 8003fc6:	f102 0150 	add.w	r1, r2, #80	; 0x50
 8003fca:	2000      	movs	r0, #0
 8003fcc:	f881 a005 	strb.w	sl, [r1, #5]
 8003fd0:	6510      	str	r0, [r2, #80]	; 0x50
 8003fd2:	f8c7 a008 	str.w	sl, [r7, #8]
 8003fd6:	f892 2037 	ldrb.w	r2, [r2, #55]	; 0x37
 8003fda:	f012 0ffd 	tst.w	r2, #253	; 0xfd
 8003fde:	f000 818e 	beq.w	80042fe <HAL_HCD_IRQHandler+0x4ca>
 8003fe2:	2a03      	cmp	r2, #3
 8003fe4:	f000 820e 	beq.w	8004404 <HAL_HCD_IRQHandler+0x5d0>
 8003fe8:	eb09 0308 	add.w	r3, r9, r8
 8003fec:	eb04 03c3 	add.w	r3, r4, r3, lsl #3
 8003ff0:	f893 2048 	ldrb.w	r2, [r3, #72]	; 0x48
 8003ff4:	f082 0201 	eor.w	r2, r2, #1
 8003ff8:	f883 2048 	strb.w	r2, [r3, #72]	; 0x48
 8003ffc:	6820      	ldr	r0, [r4, #0]
 8003ffe:	68a2      	ldr	r2, [r4, #8]
 8004000:	3601      	adds	r6, #1
 8004002:	4296      	cmp	r6, r2
 8004004:	f105 0520 	add.w	r5, r5, #32
 8004008:	d262      	bcs.n	80040d0 <HAL_HCD_IRQHandler+0x29c>
 800400a:	fa0a f306 	lsl.w	r3, sl, r6
 800400e:	ea13 0f0b 	tst.w	r3, fp
 8004012:	d0f5      	beq.n	8004000 <HAL_HCD_IRQHandler+0x1cc>
 8004014:	682b      	ldr	r3, [r5, #0]
 8004016:	041f      	lsls	r7, r3, #16
 8004018:	fa5f f886 	uxtb.w	r8, r6
 800401c:	d4ab      	bmi.n	8003f76 <HAL_HCD_IRQHandler+0x142>
 800401e:	ea4f 1148 	mov.w	r1, r8, lsl #5
 8004022:	f500 6ea0 	add.w	lr, r0, #1280	; 0x500
 8004026:	eb0e 0701 	add.w	r7, lr, r1
 800402a:	68bb      	ldr	r3, [r7, #8]
 800402c:	075b      	lsls	r3, r3, #29
 800402e:	f100 8092 	bmi.w	8004156 <HAL_HCD_IRQHandler+0x322>
 8004032:	68bb      	ldr	r3, [r7, #8]
 8004034:	f013 0320 	ands.w	r3, r3, #32
 8004038:	f000 8094 	beq.w	8004164 <HAL_HCD_IRQHandler+0x330>
 800403c:	eb08 0388 	add.w	r3, r8, r8, lsl #2
 8004040:	2120      	movs	r1, #32
 8004042:	eb04 03c3 	add.w	r3, r4, r3, lsl #3
 8004046:	60b9      	str	r1, [r7, #8]
 8004048:	f893 1035 	ldrb.w	r1, [r3, #53]	; 0x35
 800404c:	2901      	cmp	r1, #1
 800404e:	d1d7      	bne.n	8004000 <HAL_HCD_IRQHandler+0x1cc>
 8004050:	68fa      	ldr	r2, [r7, #12]
 8004052:	f103 0950 	add.w	r9, r3, #80	; 0x50
 8004056:	f04f 0e04 	mov.w	lr, #4
 800405a:	f042 0302 	orr.w	r3, r2, #2
 800405e:	f889 e005 	strb.w	lr, [r9, #5]
 8004062:	4641      	mov	r1, r8
 8004064:	60fb      	str	r3, [r7, #12]
 8004066:	f001 ff51 	bl	8005f0c <USB_HC_Halt>
 800406a:	2302      	movs	r3, #2
 800406c:	f889 3004 	strb.w	r3, [r9, #4]
 8004070:	6820      	ldr	r0, [r4, #0]
 8004072:	68a2      	ldr	r2, [r4, #8]
 8004074:	e7c4      	b.n	8004000 <HAL_HCD_IRQHandler+0x1cc>
 8004076:	68ba      	ldr	r2, [r7, #8]
 8004078:	0692      	lsls	r2, r2, #26
 800407a:	f140 80c5 	bpl.w	8004208 <HAL_HCD_IRQHandler+0x3d4>
 800407e:	2220      	movs	r2, #32
 8004080:	60ba      	str	r2, [r7, #8]
 8004082:	e787      	b.n	8003f94 <HAL_HCD_IRQHandler+0x160>
 8004084:	68ba      	ldr	r2, [r7, #8]
 8004086:	0790      	lsls	r0, r2, #30
 8004088:	f140 80ec 	bpl.w	8004264 <HAL_HCD_IRQHandler+0x430>
 800408c:	ea4f 0988 	mov.w	r9, r8, lsl #2
 8004090:	eb09 0108 	add.w	r1, r9, r8
 8004094:	eb04 01c1 	add.w	r1, r4, r1, lsl #3
 8004098:	3150      	adds	r1, #80	; 0x50
 800409a:	68f8      	ldr	r0, [r7, #12]
 800409c:	794a      	ldrb	r2, [r1, #5]
 800409e:	f020 0002 	bic.w	r0, r0, #2
 80040a2:	2a01      	cmp	r2, #1
 80040a4:	60f8      	str	r0, [r7, #12]
 80040a6:	f000 813d 	beq.w	8004324 <HAL_HCD_IRQHandler+0x4f0>
 80040aa:	2a05      	cmp	r2, #5
 80040ac:	f000 813a 	beq.w	8004324 <HAL_HCD_IRQHandler+0x4f0>
 80040b0:	2a06      	cmp	r2, #6
 80040b2:	f000 816f 	beq.w	8004394 <HAL_HCD_IRQHandler+0x560>
 80040b6:	2a08      	cmp	r2, #8
 80040b8:	f000 816c 	beq.w	8004394 <HAL_HCD_IRQHandler+0x560>
 80040bc:	790a      	ldrb	r2, [r1, #4]
 80040be:	2302      	movs	r3, #2
 80040c0:	60bb      	str	r3, [r7, #8]
 80040c2:	4641      	mov	r1, r8
 80040c4:	4620      	mov	r0, r4
 80040c6:	f002 ff07 	bl	8006ed8 <HAL_HCD_HC_NotifyURBChange_Callback>
 80040ca:	6820      	ldr	r0, [r4, #0]
 80040cc:	68a2      	ldr	r2, [r4, #8]
 80040ce:	e797      	b.n	8004000 <HAL_HCD_IRQHandler+0x1cc>
 80040d0:	f04f 7300 	mov.w	r3, #33554432	; 0x2000000
 80040d4:	6143      	str	r3, [r0, #20]
 80040d6:	e6fc      	b.n	8003ed2 <HAL_HCD_IRQHandler+0x9e>
 80040d8:	f8d6 3440 	ldr.w	r3, [r6, #1088]	; 0x440
 80040dc:	9302      	str	r3, [sp, #8]
 80040de:	f8d6 3440 	ldr.w	r3, [r6, #1088]	; 0x440
 80040e2:	9303      	str	r3, [sp, #12]
 80040e4:	9b03      	ldr	r3, [sp, #12]
 80040e6:	f023 032e 	bic.w	r3, r3, #46	; 0x2e
 80040ea:	9303      	str	r3, [sp, #12]
 80040ec:	9b02      	ldr	r3, [sp, #8]
 80040ee:	079a      	lsls	r2, r3, #30
 80040f0:	4637      	mov	r7, r6
 80040f2:	d507      	bpl.n	8004104 <HAL_HCD_IRQHandler+0x2d0>
 80040f4:	9b02      	ldr	r3, [sp, #8]
 80040f6:	07db      	lsls	r3, r3, #31
 80040f8:	f100 8144 	bmi.w	8004384 <HAL_HCD_IRQHandler+0x550>
 80040fc:	9b03      	ldr	r3, [sp, #12]
 80040fe:	f043 0302 	orr.w	r3, r3, #2
 8004102:	9303      	str	r3, [sp, #12]
 8004104:	9b02      	ldr	r3, [sp, #8]
 8004106:	0718      	lsls	r0, r3, #28
 8004108:	f100 80da 	bmi.w	80042c0 <HAL_HCD_IRQHandler+0x48c>
 800410c:	6826      	ldr	r6, [r4, #0]
 800410e:	9b02      	ldr	r3, [sp, #8]
 8004110:	069a      	lsls	r2, r3, #26
 8004112:	d503      	bpl.n	800411c <HAL_HCD_IRQHandler+0x2e8>
 8004114:	9b03      	ldr	r3, [sp, #12]
 8004116:	f043 0320 	orr.w	r3, r3, #32
 800411a:	9303      	str	r3, [sp, #12]
 800411c:	9b03      	ldr	r3, [sp, #12]
 800411e:	f8c7 3440 	str.w	r3, [r7, #1088]	; 0x440
 8004122:	e6c9      	b.n	8003eb8 <HAL_HCD_IRQHandler+0x84>
 8004124:	f8d5 3440 	ldr.w	r3, [r5, #1088]	; 0x440
 8004128:	f023 032e 	bic.w	r3, r3, #46	; 0x2e
 800412c:	f8c5 3440 	str.w	r3, [r5, #1088]	; 0x440
 8004130:	4620      	mov	r0, r4
 8004132:	f002 fecd 	bl	8006ed0 <HAL_HCD_Disconnect_Callback>
 8004136:	6820      	ldr	r0, [r4, #0]
 8004138:	2101      	movs	r1, #1
 800413a:	f001 fde7 	bl	8005d0c <USB_InitFSLSPClkSel>
 800413e:	6820      	ldr	r0, [r4, #0]
 8004140:	f04f 5300 	mov.w	r3, #536870912	; 0x20000000
 8004144:	6143      	str	r3, [r0, #20]
 8004146:	e6b1      	b.n	8003eac <HAL_HCD_IRQHandler+0x78>
 8004148:	4620      	mov	r0, r4
 800414a:	f002 feb9 	bl	8006ec0 <HAL_HCD_SOF_Callback>
 800414e:	6820      	ldr	r0, [r4, #0]
 8004150:	2308      	movs	r3, #8
 8004152:	6143      	str	r3, [r0, #20]
 8004154:	e6b7      	b.n	8003ec6 <HAL_HCD_IRQHandler+0x92>
 8004156:	2304      	movs	r3, #4
 8004158:	60bb      	str	r3, [r7, #8]
 800415a:	68fb      	ldr	r3, [r7, #12]
 800415c:	f043 0302 	orr.w	r3, r3, #2
 8004160:	60fb      	str	r3, [r7, #12]
 8004162:	e74d      	b.n	8004000 <HAL_HCD_IRQHandler+0x1cc>
 8004164:	f8d7 c008 	ldr.w	ip, [r7, #8]
 8004168:	f01c 0f40 	tst.w	ip, #64	; 0x40
 800416c:	f040 80f4 	bne.w	8004358 <HAL_HCD_IRQHandler+0x524>
 8004170:	68bb      	ldr	r3, [r7, #8]
 8004172:	f413 7300 	ands.w	r3, r3, #512	; 0x200
 8004176:	f040 812a 	bne.w	80043ce <HAL_HCD_IRQHandler+0x59a>
 800417a:	f8d7 c008 	ldr.w	ip, [r7, #8]
 800417e:	f01c 0f01 	tst.w	ip, #1
 8004182:	f040 814d 	bne.w	8004420 <HAL_HCD_IRQHandler+0x5ec>
 8004186:	68bb      	ldr	r3, [r7, #8]
 8004188:	f013 0308 	ands.w	r3, r3, #8
 800418c:	f040 815e 	bne.w	800444c <HAL_HCD_IRQHandler+0x618>
 8004190:	f8d7 c008 	ldr.w	ip, [r7, #8]
 8004194:	f01c 0f10 	tst.w	ip, #16
 8004198:	f040 817a 	bne.w	8004490 <HAL_HCD_IRQHandler+0x65c>
 800419c:	68bb      	ldr	r3, [r7, #8]
 800419e:	061b      	lsls	r3, r3, #24
 80041a0:	f100 818d 	bmi.w	80044be <HAL_HCD_IRQHandler+0x68a>
 80041a4:	68bb      	ldr	r3, [r7, #8]
 80041a6:	f413 6c80 	ands.w	ip, r3, #1024	; 0x400
 80041aa:	f040 819b 	bne.w	80044e4 <HAL_HCD_IRQHandler+0x6b0>
 80041ae:	68bb      	ldr	r3, [r7, #8]
 80041b0:	079b      	lsls	r3, r3, #30
 80041b2:	f57f af25 	bpl.w	8004000 <HAL_HCD_IRQHandler+0x1cc>
 80041b6:	ea4f 0388 	mov.w	r3, r8, lsl #2
 80041ba:	eb03 0208 	add.w	r2, r3, r8
 80041be:	eb04 02c2 	add.w	r2, r4, r2, lsl #3
 80041c2:	68f8      	ldr	r0, [r7, #12]
 80041c4:	f892 2055 	ldrb.w	r2, [r2, #85]	; 0x55
 80041c8:	f020 0002 	bic.w	r0, r0, #2
 80041cc:	2a01      	cmp	r2, #1
 80041ce:	60f8      	str	r0, [r7, #12]
 80041d0:	f000 81a6 	beq.w	8004520 <HAL_HCD_IRQHandler+0x6ec>
 80041d4:	2a03      	cmp	r2, #3
 80041d6:	f000 81b4 	beq.w	8004542 <HAL_HCD_IRQHandler+0x70e>
 80041da:	2a04      	cmp	r2, #4
 80041dc:	f000 81b8 	beq.w	8004550 <HAL_HCD_IRQHandler+0x71c>
 80041e0:	2a05      	cmp	r2, #5
 80041e2:	f000 81da 	beq.w	800459a <HAL_HCD_IRQHandler+0x766>
 80041e6:	2a06      	cmp	r2, #6
 80041e8:	f000 81bb 	beq.w	8004562 <HAL_HCD_IRQHandler+0x72e>
 80041ec:	2a08      	cmp	r2, #8
 80041ee:	f000 81b8 	beq.w	8004562 <HAL_HCD_IRQHandler+0x72e>
 80041f2:	4443      	add	r3, r8
 80041f4:	eb04 03c3 	add.w	r3, r4, r3, lsl #3
 80041f8:	2202      	movs	r2, #2
 80041fa:	60ba      	str	r2, [r7, #8]
 80041fc:	f893 2054 	ldrb.w	r2, [r3, #84]	; 0x54
 8004200:	e75f      	b.n	80040c2 <HAL_HCD_IRQHandler+0x28e>
 8004202:	bf00      	nop
 8004204:	1ff80000 	.word	0x1ff80000
 8004208:	68ba      	ldr	r2, [r7, #8]
 800420a:	0711      	lsls	r1, r2, #28
 800420c:	f100 808c 	bmi.w	8004328 <HAL_HCD_IRQHandler+0x4f4>
 8004210:	68ba      	ldr	r2, [r7, #8]
 8004212:	0552      	lsls	r2, r2, #21
 8004214:	f57f aebe 	bpl.w	8003f94 <HAL_HCD_IRQHandler+0x160>
 8004218:	68fa      	ldr	r2, [r7, #12]
 800421a:	f042 0202 	orr.w	r2, r2, #2
 800421e:	60fa      	str	r2, [r7, #12]
 8004220:	4641      	mov	r1, r8
 8004222:	e88d 1008 	stmia.w	sp, {r3, ip}
 8004226:	f001 fe71 	bl	8005f0c <USB_HC_Halt>
 800422a:	eb08 0288 	add.w	r2, r8, r8, lsl #2
 800422e:	2110      	movs	r1, #16
 8004230:	eb04 02c2 	add.w	r2, r4, r2, lsl #3
 8004234:	60b9      	str	r1, [r7, #8]
 8004236:	2008      	movs	r0, #8
 8004238:	f44f 6180 	mov.w	r1, #1024	; 0x400
 800423c:	f882 0055 	strb.w	r0, [r2, #85]	; 0x55
 8004240:	e89d 1008 	ldmia.w	sp, {r3, ip}
 8004244:	60b9      	str	r1, [r7, #8]
 8004246:	e6a5      	b.n	8003f94 <HAL_HCD_IRQHandler+0x160>
 8004248:	68fb      	ldr	r3, [r7, #12]
 800424a:	6820      	ldr	r0, [r4, #0]
 800424c:	f043 0302 	orr.w	r3, r3, #2
 8004250:	60fb      	str	r3, [r7, #12]
 8004252:	4641      	mov	r1, r8
 8004254:	f001 fe5a 	bl	8005f0c <USB_HC_Halt>
 8004258:	f44f 7300 	mov.w	r3, #512	; 0x200
 800425c:	60bb      	str	r3, [r7, #8]
 800425e:	6820      	ldr	r0, [r4, #0]
 8004260:	68a2      	ldr	r2, [r4, #8]
 8004262:	e6cd      	b.n	8004000 <HAL_HCD_IRQHandler+0x1cc>
 8004264:	68ba      	ldr	r2, [r7, #8]
 8004266:	0611      	lsls	r1, r2, #24
 8004268:	f100 80b3 	bmi.w	80043d2 <HAL_HCD_IRQHandler+0x59e>
 800426c:	68ba      	ldr	r2, [r7, #8]
 800426e:	06d2      	lsls	r2, r2, #27
 8004270:	f57f af2b 	bpl.w	80040ca <HAL_HCD_IRQHandler+0x296>
 8004274:	ea4f 0988 	mov.w	r9, r8, lsl #2
 8004278:	eb09 0208 	add.w	r2, r9, r8
 800427c:	eb04 02c2 	add.w	r2, r4, r2, lsl #3
 8004280:	f892 2037 	ldrb.w	r2, [r2, #55]	; 0x37
 8004284:	2a03      	cmp	r2, #3
 8004286:	f000 8142 	beq.w	800450e <HAL_HCD_IRQHandler+0x6da>
 800428a:	f012 0ffd 	tst.w	r2, #253	; 0xfd
 800428e:	d10b      	bne.n	80042a8 <HAL_HCD_IRQHandler+0x474>
 8004290:	f853 200c 	ldr.w	r2, [r3, ip]
 8004294:	f022 4280 	bic.w	r2, r2, #1073741824	; 0x40000000
 8004298:	f843 200c 	str.w	r2, [r3, ip]
 800429c:	f853 200c 	ldr.w	r2, [r3, ip]
 80042a0:	f042 4200 	orr.w	r2, r2, #2147483648	; 0x80000000
 80042a4:	f843 200c 	str.w	r2, [r3, ip]
 80042a8:	eb09 0308 	add.w	r3, r9, r8
 80042ac:	eb04 03c3 	add.w	r3, r4, r3, lsl #3
 80042b0:	2210      	movs	r2, #16
 80042b2:	2103      	movs	r1, #3
 80042b4:	f883 1055 	strb.w	r1, [r3, #85]	; 0x55
 80042b8:	6820      	ldr	r0, [r4, #0]
 80042ba:	60ba      	str	r2, [r7, #8]
 80042bc:	68a2      	ldr	r2, [r4, #8]
 80042be:	e69f      	b.n	8004000 <HAL_HCD_IRQHandler+0x1cc>
 80042c0:	9b03      	ldr	r3, [sp, #12]
 80042c2:	f043 0308 	orr.w	r3, r3, #8
 80042c6:	9303      	str	r3, [sp, #12]
 80042c8:	9b02      	ldr	r3, [sp, #8]
 80042ca:	0759      	lsls	r1, r3, #29
 80042cc:	d522      	bpl.n	8004314 <HAL_HCD_IRQHandler+0x4e0>
 80042ce:	69a1      	ldr	r1, [r4, #24]
 80042d0:	2902      	cmp	r1, #2
 80042d2:	f000 80ce 	beq.w	8004472 <HAL_HCD_IRQHandler+0x63e>
 80042d6:	68e3      	ldr	r3, [r4, #12]
 80042d8:	2b03      	cmp	r3, #3
 80042da:	bf04      	itt	eq
 80042dc:	f64e 2360 	movweq	r3, #60000	; 0xea60
 80042e0:	f8c6 3404 	streq.w	r3, [r6, #1028]	; 0x404
 80042e4:	4620      	mov	r0, r4
 80042e6:	f002 fdef 	bl	8006ec8 <HAL_HCD_Connect_Callback>
 80042ea:	68e3      	ldr	r3, [r4, #12]
 80042ec:	6826      	ldr	r6, [r4, #0]
 80042ee:	2b00      	cmp	r3, #0
 80042f0:	f47f af0d 	bne.w	800410e <HAL_HCD_IRQHandler+0x2da>
 80042f4:	69b3      	ldr	r3, [r6, #24]
 80042f6:	f043 5300 	orr.w	r3, r3, #536870912	; 0x20000000
 80042fa:	61b3      	str	r3, [r6, #24]
 80042fc:	e707      	b.n	800410e <HAL_HCD_IRQHandler+0x2da>
 80042fe:	68fb      	ldr	r3, [r7, #12]
 8004300:	6820      	ldr	r0, [r4, #0]
 8004302:	f043 0302 	orr.w	r3, r3, #2
 8004306:	60fb      	str	r3, [r7, #12]
 8004308:	4641      	mov	r1, r8
 800430a:	f001 fdff 	bl	8005f0c <USB_HC_Halt>
 800430e:	2310      	movs	r3, #16
 8004310:	60bb      	str	r3, [r7, #8]
 8004312:	e669      	b.n	8003fe8 <HAL_HCD_IRQHandler+0x1b4>
 8004314:	f8d6 3440 	ldr.w	r3, [r6, #1088]	; 0x440
 8004318:	f023 032e 	bic.w	r3, r3, #46	; 0x2e
 800431c:	f8c6 3440 	str.w	r3, [r6, #1088]	; 0x440
 8004320:	6826      	ldr	r6, [r4, #0]
 8004322:	e7e7      	b.n	80042f4 <HAL_HCD_IRQHandler+0x4c0>
 8004324:	710a      	strb	r2, [r1, #4]
 8004326:	e6ca      	b.n	80040be <HAL_HCD_IRQHandler+0x28a>
 8004328:	68f9      	ldr	r1, [r7, #12]
 800432a:	eb08 0288 	add.w	r2, r8, r8, lsl #2
 800432e:	eb04 02c2 	add.w	r2, r4, r2, lsl #3
 8004332:	f041 0102 	orr.w	r1, r1, #2
 8004336:	f04f 0e05 	mov.w	lr, #5
 800433a:	60f9      	str	r1, [r7, #12]
 800433c:	f882 e055 	strb.w	lr, [r2, #85]	; 0x55
 8004340:	2110      	movs	r1, #16
 8004342:	2208      	movs	r2, #8
 8004344:	60b9      	str	r1, [r7, #8]
 8004346:	4641      	mov	r1, r8
 8004348:	60ba      	str	r2, [r7, #8]
 800434a:	e88d 1008 	stmia.w	sp, {r3, ip}
 800434e:	f001 fddd 	bl	8005f0c <USB_HC_Halt>
 8004352:	e89d 1008 	ldmia.w	sp, {r3, ip}
 8004356:	e61d      	b.n	8003f94 <HAL_HCD_IRQHandler+0x160>
 8004358:	68f9      	ldr	r1, [r7, #12]
 800435a:	eb08 0288 	add.w	r2, r8, r8, lsl #2
 800435e:	eb04 02c2 	add.w	r2, r4, r2, lsl #3
 8004362:	f041 0e02 	orr.w	lr, r1, #2
 8004366:	f04f 0c04 	mov.w	ip, #4
 800436a:	6513      	str	r3, [r2, #80]	; 0x50
 800436c:	f882 c055 	strb.w	ip, [r2, #85]	; 0x55
 8004370:	4641      	mov	r1, r8
 8004372:	f8c7 e00c 	str.w	lr, [r7, #12]
 8004376:	f001 fdc9 	bl	8005f0c <USB_HC_Halt>
 800437a:	2340      	movs	r3, #64	; 0x40
 800437c:	60bb      	str	r3, [r7, #8]
 800437e:	6820      	ldr	r0, [r4, #0]
 8004380:	68a2      	ldr	r2, [r4, #8]
 8004382:	e63d      	b.n	8004000 <HAL_HCD_IRQHandler+0x1cc>
 8004384:	69b3      	ldr	r3, [r6, #24]
 8004386:	f023 5300 	bic.w	r3, r3, #536870912	; 0x20000000
 800438a:	61b3      	str	r3, [r6, #24]
 800438c:	4620      	mov	r0, r4
 800438e:	f002 fd9b 	bl	8006ec8 <HAL_HCD_Connect_Callback>
 8004392:	e6b3      	b.n	80040fc <HAL_HCD_IRQHandler+0x2c8>
 8004394:	eb09 0208 	add.w	r2, r9, r8
 8004398:	eb04 02c2 	add.w	r2, r4, r2, lsl #3
 800439c:	6d11      	ldr	r1, [r2, #80]	; 0x50
 800439e:	2903      	cmp	r1, #3
 80043a0:	d872      	bhi.n	8004488 <HAL_HCD_IRQHandler+0x654>
 80043a2:	3101      	adds	r1, #1
 80043a4:	6511      	str	r1, [r2, #80]	; 0x50
 80043a6:	2202      	movs	r2, #2
 80043a8:	f853 100c 	ldr.w	r1, [r3, ip]
 80043ac:	eb09 0008 	add.w	r0, r9, r8
 80043b0:	eb04 00c0 	add.w	r0, r4, r0, lsl #3
 80043b4:	f021 4180 	bic.w	r1, r1, #1073741824	; 0x40000000
 80043b8:	f880 2054 	strb.w	r2, [r0, #84]	; 0x54
 80043bc:	f843 100c 	str.w	r1, [r3, ip]
 80043c0:	f853 100c 	ldr.w	r1, [r3, ip]
 80043c4:	f041 4100 	orr.w	r1, r1, #2147483648	; 0x80000000
 80043c8:	f843 100c 	str.w	r1, [r3, ip]
 80043cc:	e677      	b.n	80040be <HAL_HCD_IRQHandler+0x28a>
 80043ce:	68fb      	ldr	r3, [r7, #12]
 80043d0:	e73c      	b.n	800424c <HAL_HCD_IRQHandler+0x418>
 80043d2:	eb08 0388 	add.w	r3, r8, r8, lsl #2
 80043d6:	eb04 03c3 	add.w	r3, r4, r3, lsl #3
 80043da:	68f9      	ldr	r1, [r7, #12]
 80043dc:	6d1a      	ldr	r2, [r3, #80]	; 0x50
 80043de:	6820      	ldr	r0, [r4, #0]
 80043e0:	3201      	adds	r2, #1
 80043e2:	f041 0e02 	orr.w	lr, r1, #2
 80043e6:	f04f 0c06 	mov.w	ip, #6
 80043ea:	f8c7 e00c 	str.w	lr, [r7, #12]
 80043ee:	4641      	mov	r1, r8
 80043f0:	651a      	str	r2, [r3, #80]	; 0x50
 80043f2:	f883 c055 	strb.w	ip, [r3, #85]	; 0x55
 80043f6:	f001 fd89 	bl	8005f0c <USB_HC_Halt>
 80043fa:	2380      	movs	r3, #128	; 0x80
 80043fc:	60bb      	str	r3, [r7, #8]
 80043fe:	6820      	ldr	r0, [r4, #0]
 8004400:	68a2      	ldr	r2, [r4, #8]
 8004402:	e5fd      	b.n	8004000 <HAL_HCD_IRQHandler+0x1cc>
 8004404:	f853 200c 	ldr.w	r2, [r3, ip]
 8004408:	f042 5200 	orr.w	r2, r2, #536870912	; 0x20000000
 800440c:	f843 200c 	str.w	r2, [r3, ip]
 8004410:	4620      	mov	r0, r4
 8004412:	f881 a004 	strb.w	sl, [r1, #4]
 8004416:	2201      	movs	r2, #1
 8004418:	4641      	mov	r1, r8
 800441a:	f002 fd5d 	bl	8006ed8 <HAL_HCD_HC_NotifyURBChange_Callback>
 800441e:	e5e3      	b.n	8003fe8 <HAL_HCD_IRQHandler+0x1b4>
 8004420:	68f9      	ldr	r1, [r7, #12]
 8004422:	eb08 0288 	add.w	r2, r8, r8, lsl #2
 8004426:	eb04 02c2 	add.w	r2, r4, r2, lsl #3
 800442a:	f041 0e02 	orr.w	lr, r1, #2
 800442e:	f102 0950 	add.w	r9, r2, #80	; 0x50
 8004432:	6513      	str	r3, [r2, #80]	; 0x50
 8004434:	4641      	mov	r1, r8
 8004436:	f8c7 e00c 	str.w	lr, [r7, #12]
 800443a:	f001 fd67 	bl	8005f0c <USB_HC_Halt>
 800443e:	f8c7 a008 	str.w	sl, [r7, #8]
 8004442:	6820      	ldr	r0, [r4, #0]
 8004444:	68a2      	ldr	r2, [r4, #8]
 8004446:	f889 a005 	strb.w	sl, [r9, #5]
 800444a:	e5d9      	b.n	8004000 <HAL_HCD_IRQHandler+0x1cc>
 800444c:	2308      	movs	r3, #8
 800444e:	60bb      	str	r3, [r7, #8]
 8004450:	68fb      	ldr	r3, [r7, #12]
 8004452:	f043 0302 	orr.w	r3, r3, #2
 8004456:	60fb      	str	r3, [r7, #12]
 8004458:	4641      	mov	r1, r8
 800445a:	eb08 0888 	add.w	r8, r8, r8, lsl #2
 800445e:	f001 fd55 	bl	8005f0c <USB_HC_Halt>
 8004462:	eb04 03c8 	add.w	r3, r4, r8, lsl #3
 8004466:	2205      	movs	r2, #5
 8004468:	f883 2055 	strb.w	r2, [r3, #85]	; 0x55
 800446c:	6820      	ldr	r0, [r4, #0]
 800446e:	68a2      	ldr	r2, [r4, #8]
 8004470:	e5c6      	b.n	8004000 <HAL_HCD_IRQHandler+0x1cc>
 8004472:	9b02      	ldr	r3, [sp, #8]
 8004474:	6820      	ldr	r0, [r4, #0]
 8004476:	f403 23c0 	and.w	r3, r3, #393216	; 0x60000
 800447a:	f5b3 2f80 	cmp.w	r3, #262144	; 0x40000
 800447e:	bf18      	it	ne
 8004480:	2101      	movne	r1, #1
 8004482:	f001 fc43 	bl	8005d0c <USB_InitFSLSPClkSel>
 8004486:	e72d      	b.n	80042e4 <HAL_HCD_IRQHandler+0x4b0>
 8004488:	2100      	movs	r1, #0
 800448a:	6511      	str	r1, [r2, #80]	; 0x50
 800448c:	2204      	movs	r2, #4
 800448e:	e78b      	b.n	80043a8 <HAL_HCD_IRQHandler+0x574>
 8004490:	68f9      	ldr	r1, [r7, #12]
 8004492:	eb08 0288 	add.w	r2, r8, r8, lsl #2
 8004496:	eb04 02c2 	add.w	r2, r4, r2, lsl #3
 800449a:	f041 0e02 	orr.w	lr, r1, #2
 800449e:	6513      	str	r3, [r2, #80]	; 0x50
 80044a0:	f102 0950 	add.w	r9, r2, #80	; 0x50
 80044a4:	4641      	mov	r1, r8
 80044a6:	f8c7 e00c 	str.w	lr, [r7, #12]
 80044aa:	f001 fd2f 	bl	8005f0c <USB_HC_Halt>
 80044ae:	2203      	movs	r2, #3
 80044b0:	2310      	movs	r3, #16
 80044b2:	f889 2005 	strb.w	r2, [r9, #5]
 80044b6:	6820      	ldr	r0, [r4, #0]
 80044b8:	68a2      	ldr	r2, [r4, #8]
 80044ba:	60bb      	str	r3, [r7, #8]
 80044bc:	e5a0      	b.n	8004000 <HAL_HCD_IRQHandler+0x1cc>
 80044be:	68fb      	ldr	r3, [r7, #12]
 80044c0:	f043 0302 	orr.w	r3, r3, #2
 80044c4:	4641      	mov	r1, r8
 80044c6:	60fb      	str	r3, [r7, #12]
 80044c8:	eb08 0888 	add.w	r8, r8, r8, lsl #2
 80044cc:	f001 fd1e 	bl	8005f0c <USB_HC_Halt>
 80044d0:	eb04 03c8 	add.w	r3, r4, r8, lsl #3
 80044d4:	2280      	movs	r2, #128	; 0x80
 80044d6:	2106      	movs	r1, #6
 80044d8:	f883 1055 	strb.w	r1, [r3, #85]	; 0x55
 80044dc:	6820      	ldr	r0, [r4, #0]
 80044de:	60ba      	str	r2, [r7, #8]
 80044e0:	68a2      	ldr	r2, [r4, #8]
 80044e2:	e58d      	b.n	8004000 <HAL_HCD_IRQHandler+0x1cc>
 80044e4:	68fb      	ldr	r3, [r7, #12]
 80044e6:	f043 0302 	orr.w	r3, r3, #2
 80044ea:	4641      	mov	r1, r8
 80044ec:	60fb      	str	r3, [r7, #12]
 80044ee:	f001 fd0d 	bl	8005f0c <USB_HC_Halt>
 80044f2:	2328      	movs	r3, #40	; 0x28
 80044f4:	fb03 4808 	mla	r8, r3, r8, r4
 80044f8:	f44f 6280 	mov.w	r2, #1024	; 0x400
 80044fc:	2110      	movs	r1, #16
 80044fe:	2308      	movs	r3, #8
 8004500:	60b9      	str	r1, [r7, #8]
 8004502:	6820      	ldr	r0, [r4, #0]
 8004504:	60ba      	str	r2, [r7, #8]
 8004506:	68a2      	ldr	r2, [r4, #8]
 8004508:	f888 3055 	strb.w	r3, [r8, #85]	; 0x55
 800450c:	e578      	b.n	8004000 <HAL_HCD_IRQHandler+0x1cc>
 800450e:	68fb      	ldr	r3, [r7, #12]
 8004510:	6820      	ldr	r0, [r4, #0]
 8004512:	f043 0302 	orr.w	r3, r3, #2
 8004516:	60fb      	str	r3, [r7, #12]
 8004518:	4641      	mov	r1, r8
 800451a:	f001 fcf7 	bl	8005f0c <USB_HC_Halt>
 800451e:	e6c3      	b.n	80042a8 <HAL_HCD_IRQHandler+0x474>
 8004520:	2128      	movs	r1, #40	; 0x28
 8004522:	fb01 4108 	mla	r1, r1, r8, r4
 8004526:	f891 0037 	ldrb.w	r0, [r1, #55]	; 0x37
 800452a:	f881 2054 	strb.w	r2, [r1, #84]	; 0x54
 800452e:	2802      	cmp	r0, #2
 8004530:	f47f ae5f 	bne.w	80041f2 <HAL_HCD_IRQHandler+0x3be>
 8004534:	f891 2049 	ldrb.w	r2, [r1, #73]	; 0x49
 8004538:	f082 0201 	eor.w	r2, r2, #1
 800453c:	f881 2049 	strb.w	r2, [r1, #73]	; 0x49
 8004540:	e657      	b.n	80041f2 <HAL_HCD_IRQHandler+0x3be>
 8004542:	2228      	movs	r2, #40	; 0x28
 8004544:	fb02 4208 	mla	r2, r2, r8, r4
 8004548:	2102      	movs	r1, #2
 800454a:	f882 1054 	strb.w	r1, [r2, #84]	; 0x54
 800454e:	e650      	b.n	80041f2 <HAL_HCD_IRQHandler+0x3be>
 8004550:	2228      	movs	r2, #40	; 0x28
 8004552:	fb02 4208 	mla	r2, r2, r8, r4
 8004556:	2002      	movs	r0, #2
 8004558:	f882 0054 	strb.w	r0, [r2, #84]	; 0x54
 800455c:	f882 c035 	strb.w	ip, [r2, #53]	; 0x35
 8004560:	e647      	b.n	80041f2 <HAL_HCD_IRQHandler+0x3be>
 8004562:	2228      	movs	r2, #40	; 0x28
 8004564:	fb02 4008 	mla	r0, r2, r8, r4
 8004568:	6d02      	ldr	r2, [r0, #80]	; 0x50
 800456a:	2a03      	cmp	r2, #3
 800456c:	d91b      	bls.n	80045a6 <HAL_HCD_IRQHandler+0x772>
 800456e:	2200      	movs	r2, #0
 8004570:	6502      	str	r2, [r0, #80]	; 0x50
 8004572:	f04f 0c04 	mov.w	ip, #4
 8004576:	f85e 2001 	ldr.w	r2, [lr, r1]
 800457a:	2028      	movs	r0, #40	; 0x28
 800457c:	fb00 4008 	mla	r0, r0, r8, r4
 8004580:	f022 4280 	bic.w	r2, r2, #1073741824	; 0x40000000
 8004584:	f880 c054 	strb.w	ip, [r0, #84]	; 0x54
 8004588:	f84e 2001 	str.w	r2, [lr, r1]
 800458c:	f85e 2001 	ldr.w	r2, [lr, r1]
 8004590:	f042 4200 	orr.w	r2, r2, #2147483648	; 0x80000000
 8004594:	f84e 2001 	str.w	r2, [lr, r1]
 8004598:	e62b      	b.n	80041f2 <HAL_HCD_IRQHandler+0x3be>
 800459a:	2128      	movs	r1, #40	; 0x28
 800459c:	fb01 4108 	mla	r1, r1, r8, r4
 80045a0:	f881 2054 	strb.w	r2, [r1, #84]	; 0x54
 80045a4:	e625      	b.n	80041f2 <HAL_HCD_IRQHandler+0x3be>
 80045a6:	3201      	adds	r2, #1
 80045a8:	6502      	str	r2, [r0, #80]	; 0x50
 80045aa:	f04f 0c02 	mov.w	ip, #2
 80045ae:	e7e2      	b.n	8004576 <HAL_HCD_IRQHandler+0x742>

080045b0 <HAL_HCD_Start>:
HAL_HCD_Start():
 80045b0:	b538      	push	{r3, r4, r5, lr}
 80045b2:	f890 3288 	ldrb.w	r3, [r0, #648]	; 0x288
 80045b6:	2b01      	cmp	r3, #1
 80045b8:	d101      	bne.n	80045be <HAL_HCD_Start+0xe>
 80045ba:	2002      	movs	r0, #2
 80045bc:	bd38      	pop	{r3, r4, r5, pc}
 80045be:	4604      	mov	r4, r0
 80045c0:	2501      	movs	r5, #1
 80045c2:	f880 5288 	strb.w	r5, [r0, #648]	; 0x288
 80045c6:	6800      	ldr	r0, [r0, #0]
 80045c8:	f001 fa92 	bl	8005af0 <USB_EnableGlobalInt>
 80045cc:	4629      	mov	r1, r5
 80045ce:	6820      	ldr	r0, [r4, #0]
 80045d0:	f001 fbd4 	bl	8005d7c <USB_DriveVbus>
 80045d4:	2000      	movs	r0, #0
 80045d6:	f884 0288 	strb.w	r0, [r4, #648]	; 0x288
 80045da:	bd38      	pop	{r3, r4, r5, pc}

080045dc <HAL_HCD_Stop>:
HAL_HCD_Stop():
 80045dc:	f890 3288 	ldrb.w	r3, [r0, #648]	; 0x288
 80045e0:	2b01      	cmp	r3, #1
 80045e2:	d101      	bne.n	80045e8 <HAL_HCD_Stop+0xc>
 80045e4:	2002      	movs	r0, #2
 80045e6:	4770      	bx	lr
 80045e8:	b510      	push	{r4, lr}
 80045ea:	2301      	movs	r3, #1
 80045ec:	4604      	mov	r4, r0
 80045ee:	f880 3288 	strb.w	r3, [r0, #648]	; 0x288
 80045f2:	6800      	ldr	r0, [r0, #0]
 80045f4:	f001 ff10 	bl	8006418 <USB_StopHost>
 80045f8:	2000      	movs	r0, #0
 80045fa:	f884 0288 	strb.w	r0, [r4, #648]	; 0x288
 80045fe:	bd10      	pop	{r4, pc}

08004600 <HAL_HCD_ResetPort>:
HAL_HCD_ResetPort():
 8004600:	6800      	ldr	r0, [r0, #0]
 8004602:	f001 bba1 	b.w	8005d48 <USB_ResetPort>
 8004606:	bf00      	nop

08004608 <HAL_HCD_HC_GetURBState>:
HAL_HCD_HC_GetURBState():
 8004608:	eb01 0181 	add.w	r1, r1, r1, lsl #2
 800460c:	eb00 00c1 	add.w	r0, r0, r1, lsl #3
 8004610:	f890 0054 	ldrb.w	r0, [r0, #84]	; 0x54
 8004614:	4770      	bx	lr
 8004616:	bf00      	nop

08004618 <HAL_HCD_HC_GetXferCount>:
HAL_HCD_HC_GetXferCount():
 8004618:	eb01 0181 	add.w	r1, r1, r1, lsl #2
 800461c:	eb00 00c1 	add.w	r0, r0, r1, lsl #3
 8004620:	6c40      	ldr	r0, [r0, #68]	; 0x44
 8004622:	4770      	bx	lr

08004624 <HAL_HCD_GetCurrentFrame>:
HAL_HCD_GetCurrentFrame():
 8004624:	6800      	ldr	r0, [r0, #0]
 8004626:	f001 bbd5 	b.w	8005dd4 <USB_GetCurrentFrame>
 800462a:	bf00      	nop

0800462c <HAL_HCD_GetCurrentSpeed>:
HAL_HCD_GetCurrentSpeed():
 800462c:	6800      	ldr	r0, [r0, #0]
 800462e:	f001 bbc7 	b.w	8005dc0 <USB_GetHostSpeed>
 8004632:	bf00      	nop

08004634 <I2C_WaitOnFlagUntilTimeout.constprop.9>:
I2C_WaitOnFlagUntilTimeout.constprop.9():
 8004634:	b570      	push	{r4, r5, r6, lr}
 8004636:	4605      	mov	r5, r0
 8004638:	460c      	mov	r4, r1
 800463a:	f7fe f83f 	bl	80026bc <HAL_GetTick>
 800463e:	4606      	mov	r6, r0
 8004640:	1c60      	adds	r0, r4, #1
 8004642:	682a      	ldr	r2, [r5, #0]
 8004644:	d104      	bne.n	8004650 <I2C_WaitOnFlagUntilTimeout.constprop.9+0x1c>
 8004646:	6993      	ldr	r3, [r2, #24]
 8004648:	0799      	lsls	r1, r3, #30
 800464a:	d4fc      	bmi.n	8004646 <I2C_WaitOnFlagUntilTimeout.constprop.9+0x12>
 800464c:	2000      	movs	r0, #0
 800464e:	bd70      	pop	{r4, r5, r6, pc}
 8004650:	6993      	ldr	r3, [r2, #24]
 8004652:	079b      	lsls	r3, r3, #30
 8004654:	d5fa      	bpl.n	800464c <I2C_WaitOnFlagUntilTimeout.constprop.9+0x18>
 8004656:	b124      	cbz	r4, 8004662 <I2C_WaitOnFlagUntilTimeout.constprop.9+0x2e>
 8004658:	f7fe f830 	bl	80026bc <HAL_GetTick>
 800465c:	1b80      	subs	r0, r0, r6
 800465e:	4284      	cmp	r4, r0
 8004660:	d2ee      	bcs.n	8004640 <I2C_WaitOnFlagUntilTimeout.constprop.9+0xc>
 8004662:	2201      	movs	r2, #1
 8004664:	2300      	movs	r3, #0
 8004666:	f885 2035 	strb.w	r2, [r5, #53]	; 0x35
 800466a:	f885 3034 	strb.w	r3, [r5, #52]	; 0x34
 800466e:	2003      	movs	r0, #3
 8004670:	bd70      	pop	{r4, r5, r6, pc}
 8004672:	bf00      	nop

08004674 <I2C_RequestMemoryRead>:
I2C_RequestMemoryRead():
 8004674:	e92d 43f8 	stmdb	sp!, {r3, r4, r5, r6, r7, r8, r9, lr}
 8004678:	4688      	mov	r8, r1
 800467a:	6801      	ldr	r1, [r0, #0]
 800467c:	9c08      	ldr	r4, [sp, #32]
 800467e:	4605      	mov	r5, r0
 8004680:	6808      	ldr	r0, [r1, #0]
 8004682:	f440 6080 	orr.w	r0, r0, #1024	; 0x400
 8004686:	6008      	str	r0, [r1, #0]
 8004688:	6808      	ldr	r0, [r1, #0]
 800468a:	f440 7080 	orr.w	r0, r0, #256	; 0x100
 800468e:	6008      	str	r0, [r1, #0]
 8004690:	4616      	mov	r6, r2
 8004692:	461f      	mov	r7, r3
 8004694:	f7fe f812 	bl	80026bc <HAL_GetTick>
 8004698:	4681      	mov	r9, r0
 800469a:	1c61      	adds	r1, r4, #1
 800469c:	682a      	ldr	r2, [r5, #0]
 800469e:	d16c      	bne.n	800477a <I2C_RequestMemoryRead+0x106>
 80046a0:	6953      	ldr	r3, [r2, #20]
 80046a2:	07db      	lsls	r3, r3, #31
 80046a4:	d5fc      	bpl.n	80046a0 <I2C_RequestMemoryRead+0x2c>
 80046a6:	fa5f f888 	uxtb.w	r8, r8
 80046aa:	f008 03fe 	and.w	r3, r8, #254	; 0xfe
 80046ae:	6113      	str	r3, [r2, #16]
 80046b0:	f7fe f804 	bl	80026bc <HAL_GetTick>
 80046b4:	4681      	mov	r9, r0
 80046b6:	1c62      	adds	r2, r4, #1
 80046b8:	682b      	ldr	r3, [r5, #0]
 80046ba:	d016      	beq.n	80046ea <I2C_RequestMemoryRead+0x76>
 80046bc:	695a      	ldr	r2, [r3, #20]
 80046be:	0792      	lsls	r2, r2, #30
 80046c0:	d416      	bmi.n	80046f0 <I2C_RequestMemoryRead+0x7c>
 80046c2:	695a      	ldr	r2, [r3, #20]
 80046c4:	0551      	lsls	r1, r2, #21
 80046c6:	d46b      	bmi.n	80047a0 <I2C_RequestMemoryRead+0x12c>
 80046c8:	b12c      	cbz	r4, 80046d6 <I2C_RequestMemoryRead+0x62>
 80046ca:	f7fd fff7 	bl	80026bc <HAL_GetTick>
 80046ce:	ebc9 0000 	rsb	r0, r9, r0
 80046d2:	4284      	cmp	r4, r0
 80046d4:	d2ef      	bcs.n	80046b6 <I2C_RequestMemoryRead+0x42>
 80046d6:	2201      	movs	r2, #1
 80046d8:	2300      	movs	r3, #0
 80046da:	f885 2035 	strb.w	r2, [r5, #53]	; 0x35
 80046de:	f885 3034 	strb.w	r3, [r5, #52]	; 0x34
 80046e2:	e06d      	b.n	80047c0 <I2C_RequestMemoryRead+0x14c>
 80046e4:	695a      	ldr	r2, [r3, #20]
 80046e6:	0551      	lsls	r1, r2, #21
 80046e8:	d45a      	bmi.n	80047a0 <I2C_RequestMemoryRead+0x12c>
 80046ea:	695a      	ldr	r2, [r3, #20]
 80046ec:	0790      	lsls	r0, r2, #30
 80046ee:	d5f9      	bpl.n	80046e4 <I2C_RequestMemoryRead+0x70>
 80046f0:	695a      	ldr	r2, [r3, #20]
 80046f2:	699b      	ldr	r3, [r3, #24]
 80046f4:	f7fd ffe2 	bl	80026bc <HAL_GetTick>
 80046f8:	4681      	mov	r9, r0
 80046fa:	1c60      	adds	r0, r4, #1
 80046fc:	682a      	ldr	r2, [r5, #0]
 80046fe:	d166      	bne.n	80047ce <I2C_RequestMemoryRead+0x15a>
 8004700:	6953      	ldr	r3, [r2, #20]
 8004702:	0619      	lsls	r1, r3, #24
 8004704:	d5fc      	bpl.n	8004700 <I2C_RequestMemoryRead+0x8c>
 8004706:	2f01      	cmp	r7, #1
 8004708:	d00a      	beq.n	8004720 <I2C_RequestMemoryRead+0xac>
 800470a:	0a33      	lsrs	r3, r6, #8
 800470c:	6113      	str	r3, [r2, #16]
 800470e:	f7fd ffd5 	bl	80026bc <HAL_GetTick>
 8004712:	4607      	mov	r7, r0
 8004714:	1c60      	adds	r0, r4, #1
 8004716:	682a      	ldr	r2, [r5, #0]
 8004718:	d170      	bne.n	80047fc <I2C_RequestMemoryRead+0x188>
 800471a:	6953      	ldr	r3, [r2, #20]
 800471c:	0619      	lsls	r1, r3, #24
 800471e:	d5fc      	bpl.n	800471a <I2C_RequestMemoryRead+0xa6>
 8004720:	b2f6      	uxtb	r6, r6
 8004722:	6116      	str	r6, [r2, #16]
 8004724:	f7fd ffca 	bl	80026bc <HAL_GetTick>
 8004728:	4606      	mov	r6, r0
 800472a:	1c67      	adds	r7, r4, #1
 800472c:	682a      	ldr	r2, [r5, #0]
 800472e:	d15a      	bne.n	80047e6 <I2C_RequestMemoryRead+0x172>
 8004730:	6953      	ldr	r3, [r2, #20]
 8004732:	061e      	lsls	r6, r3, #24
 8004734:	d5fc      	bpl.n	8004730 <I2C_RequestMemoryRead+0xbc>
 8004736:	6813      	ldr	r3, [r2, #0]
 8004738:	f443 7380 	orr.w	r3, r3, #256	; 0x100
 800473c:	6013      	str	r3, [r2, #0]
 800473e:	f7fd ffbd 	bl	80026bc <HAL_GetTick>
 8004742:	4606      	mov	r6, r0
 8004744:	1c61      	adds	r1, r4, #1
 8004746:	682a      	ldr	r2, [r5, #0]
 8004748:	d163      	bne.n	8004812 <I2C_RequestMemoryRead+0x19e>
 800474a:	6953      	ldr	r3, [r2, #20]
 800474c:	07db      	lsls	r3, r3, #31
 800474e:	d5fc      	bpl.n	800474a <I2C_RequestMemoryRead+0xd6>
 8004750:	f048 0301 	orr.w	r3, r8, #1
 8004754:	6113      	str	r3, [r2, #16]
 8004756:	f7fd ffb1 	bl	80026bc <HAL_GetTick>
 800475a:	4606      	mov	r6, r0
 800475c:	1c61      	adds	r1, r4, #1
 800475e:	682a      	ldr	r2, [r5, #0]
 8004760:	d003      	beq.n	800476a <I2C_RequestMemoryRead+0xf6>
 8004762:	e072      	b.n	800484a <I2C_RequestMemoryRead+0x1d6>
 8004764:	6953      	ldr	r3, [r2, #20]
 8004766:	055b      	lsls	r3, r3, #21
 8004768:	d45e      	bmi.n	8004828 <I2C_RequestMemoryRead+0x1b4>
 800476a:	6953      	ldr	r3, [r2, #20]
 800476c:	43db      	mvns	r3, r3
 800476e:	f013 0302 	ands.w	r3, r3, #2
 8004772:	d1f7      	bne.n	8004764 <I2C_RequestMemoryRead+0xf0>
 8004774:	4618      	mov	r0, r3
 8004776:	e8bd 83f8 	ldmia.w	sp!, {r3, r4, r5, r6, r7, r8, r9, pc}
 800477a:	6953      	ldr	r3, [r2, #20]
 800477c:	07d8      	lsls	r0, r3, #31
 800477e:	d492      	bmi.n	80046a6 <I2C_RequestMemoryRead+0x32>
 8004780:	b12c      	cbz	r4, 800478e <I2C_RequestMemoryRead+0x11a>
 8004782:	f7fd ff9b 	bl	80026bc <HAL_GetTick>
 8004786:	ebc9 0000 	rsb	r0, r9, r0
 800478a:	4284      	cmp	r4, r0
 800478c:	d285      	bcs.n	800469a <I2C_RequestMemoryRead+0x26>
 800478e:	2201      	movs	r2, #1
 8004790:	2300      	movs	r3, #0
 8004792:	f885 2035 	strb.w	r2, [r5, #53]	; 0x35
 8004796:	f885 3034 	strb.w	r3, [r5, #52]	; 0x34
 800479a:	2003      	movs	r0, #3
 800479c:	e8bd 83f8 	ldmia.w	sp!, {r3, r4, r5, r6, r7, r8, r9, pc}
 80047a0:	681a      	ldr	r2, [r3, #0]
 80047a2:	f46f 6680 	mvn.w	r6, #1024	; 0x400
 80047a6:	f442 7200 	orr.w	r2, r2, #512	; 0x200
 80047aa:	2404      	movs	r4, #4
 80047ac:	2101      	movs	r1, #1
 80047ae:	2000      	movs	r0, #0
 80047b0:	601a      	str	r2, [r3, #0]
 80047b2:	615e      	str	r6, [r3, #20]
 80047b4:	f885 4036 	strb.w	r4, [r5, #54]	; 0x36
 80047b8:	f885 0034 	strb.w	r0, [r5, #52]	; 0x34
 80047bc:	f885 1035 	strb.w	r1, [r5, #53]	; 0x35
 80047c0:	f895 3036 	ldrb.w	r3, [r5, #54]	; 0x36
 80047c4:	2b04      	cmp	r3, #4
 80047c6:	d1e8      	bne.n	800479a <I2C_RequestMemoryRead+0x126>
 80047c8:	2001      	movs	r0, #1
 80047ca:	e8bd 83f8 	ldmia.w	sp!, {r3, r4, r5, r6, r7, r8, r9, pc}
 80047ce:	6953      	ldr	r3, [r2, #20]
 80047d0:	061b      	lsls	r3, r3, #24
 80047d2:	d498      	bmi.n	8004706 <I2C_RequestMemoryRead+0x92>
 80047d4:	2c00      	cmp	r4, #0
 80047d6:	d0da      	beq.n	800478e <I2C_RequestMemoryRead+0x11a>
 80047d8:	f7fd ff70 	bl	80026bc <HAL_GetTick>
 80047dc:	ebc9 0000 	rsb	r0, r9, r0
 80047e0:	4284      	cmp	r4, r0
 80047e2:	d28a      	bcs.n	80046fa <I2C_RequestMemoryRead+0x86>
 80047e4:	e7d3      	b.n	800478e <I2C_RequestMemoryRead+0x11a>
 80047e6:	6953      	ldr	r3, [r2, #20]
 80047e8:	0618      	lsls	r0, r3, #24
 80047ea:	d4a4      	bmi.n	8004736 <I2C_RequestMemoryRead+0xc2>
 80047ec:	2c00      	cmp	r4, #0
 80047ee:	d0ce      	beq.n	800478e <I2C_RequestMemoryRead+0x11a>
 80047f0:	f7fd ff64 	bl	80026bc <HAL_GetTick>
 80047f4:	1b80      	subs	r0, r0, r6
 80047f6:	4284      	cmp	r4, r0
 80047f8:	d297      	bcs.n	800472a <I2C_RequestMemoryRead+0xb6>
 80047fa:	e7c8      	b.n	800478e <I2C_RequestMemoryRead+0x11a>
 80047fc:	6953      	ldr	r3, [r2, #20]
 80047fe:	061b      	lsls	r3, r3, #24
 8004800:	d48e      	bmi.n	8004720 <I2C_RequestMemoryRead+0xac>
 8004802:	2c00      	cmp	r4, #0
 8004804:	d0c3      	beq.n	800478e <I2C_RequestMemoryRead+0x11a>
 8004806:	f7fd ff59 	bl	80026bc <HAL_GetTick>
 800480a:	1bc0      	subs	r0, r0, r7
 800480c:	4284      	cmp	r4, r0
 800480e:	d281      	bcs.n	8004714 <I2C_RequestMemoryRead+0xa0>
 8004810:	e7bd      	b.n	800478e <I2C_RequestMemoryRead+0x11a>
 8004812:	6953      	ldr	r3, [r2, #20]
 8004814:	07df      	lsls	r7, r3, #31
 8004816:	d49b      	bmi.n	8004750 <I2C_RequestMemoryRead+0xdc>
 8004818:	2c00      	cmp	r4, #0
 800481a:	d0b8      	beq.n	800478e <I2C_RequestMemoryRead+0x11a>
 800481c:	f7fd ff4e 	bl	80026bc <HAL_GetTick>
 8004820:	1b80      	subs	r0, r0, r6
 8004822:	4284      	cmp	r4, r0
 8004824:	d28e      	bcs.n	8004744 <I2C_RequestMemoryRead+0xd0>
 8004826:	e7b2      	b.n	800478e <I2C_RequestMemoryRead+0x11a>
 8004828:	6813      	ldr	r3, [r2, #0]
 800482a:	f46f 6680 	mvn.w	r6, #1024	; 0x400
 800482e:	f443 7300 	orr.w	r3, r3, #512	; 0x200
 8004832:	2404      	movs	r4, #4
 8004834:	2101      	movs	r1, #1
 8004836:	2000      	movs	r0, #0
 8004838:	6013      	str	r3, [r2, #0]
 800483a:	6156      	str	r6, [r2, #20]
 800483c:	f885 4036 	strb.w	r4, [r5, #54]	; 0x36
 8004840:	f885 0034 	strb.w	r0, [r5, #52]	; 0x34
 8004844:	f885 1035 	strb.w	r1, [r5, #53]	; 0x35
 8004848:	e7ba      	b.n	80047c0 <I2C_RequestMemoryRead+0x14c>
 800484a:	6953      	ldr	r3, [r2, #20]
 800484c:	43db      	mvns	r3, r3
 800484e:	f013 0302 	ands.w	r3, r3, #2
 8004852:	d08f      	beq.n	8004774 <I2C_RequestMemoryRead+0x100>
 8004854:	6953      	ldr	r3, [r2, #20]
 8004856:	0558      	lsls	r0, r3, #21
 8004858:	d4e6      	bmi.n	8004828 <I2C_RequestMemoryRead+0x1b4>
 800485a:	2c00      	cmp	r4, #0
 800485c:	f43f af3b 	beq.w	80046d6 <I2C_RequestMemoryRead+0x62>
 8004860:	f7fd ff2c 	bl	80026bc <HAL_GetTick>
 8004864:	1b80      	subs	r0, r0, r6
 8004866:	4284      	cmp	r4, r0
 8004868:	f4bf af78 	bcs.w	800475c <I2C_RequestMemoryRead+0xe8>
 800486c:	e733      	b.n	80046d6 <I2C_RequestMemoryRead+0x62>
 800486e:	bf00      	nop

08004870 <I2C_RequestMemoryWrite>:
I2C_RequestMemoryWrite():
 8004870:	e92d 43f8 	stmdb	sp!, {r3, r4, r5, r6, r7, r8, r9, lr}
 8004874:	4605      	mov	r5, r0
 8004876:	6800      	ldr	r0, [r0, #0]
 8004878:	9c08      	ldr	r4, [sp, #32]
 800487a:	4688      	mov	r8, r1
 800487c:	6801      	ldr	r1, [r0, #0]
 800487e:	f441 7180 	orr.w	r1, r1, #256	; 0x100
 8004882:	6001      	str	r1, [r0, #0]
 8004884:	4616      	mov	r6, r2
 8004886:	461f      	mov	r7, r3
 8004888:	f7fd ff18 	bl	80026bc <HAL_GetTick>
 800488c:	4681      	mov	r9, r0
 800488e:	1c61      	adds	r1, r4, #1
 8004890:	682a      	ldr	r2, [r5, #0]
 8004892:	d142      	bne.n	800491a <I2C_RequestMemoryWrite+0xaa>
 8004894:	6953      	ldr	r3, [r2, #20]
 8004896:	07db      	lsls	r3, r3, #31
 8004898:	d5fc      	bpl.n	8004894 <I2C_RequestMemoryWrite+0x24>
 800489a:	f008 03fe 	and.w	r3, r8, #254	; 0xfe
 800489e:	6113      	str	r3, [r2, #16]
 80048a0:	f7fd ff0c 	bl	80026bc <HAL_GetTick>
 80048a4:	4680      	mov	r8, r0
 80048a6:	1c62      	adds	r2, r4, #1
 80048a8:	682b      	ldr	r3, [r5, #0]
 80048aa:	d016      	beq.n	80048da <I2C_RequestMemoryWrite+0x6a>
 80048ac:	695a      	ldr	r2, [r3, #20]
 80048ae:	0792      	lsls	r2, r2, #30
 80048b0:	d416      	bmi.n	80048e0 <I2C_RequestMemoryWrite+0x70>
 80048b2:	695a      	ldr	r2, [r3, #20]
 80048b4:	0551      	lsls	r1, r2, #21
 80048b6:	d443      	bmi.n	8004940 <I2C_RequestMemoryWrite+0xd0>
 80048b8:	b12c      	cbz	r4, 80048c6 <I2C_RequestMemoryWrite+0x56>
 80048ba:	f7fd feff 	bl	80026bc <HAL_GetTick>
 80048be:	ebc8 0000 	rsb	r0, r8, r0
 80048c2:	4284      	cmp	r4, r0
 80048c4:	d2ef      	bcs.n	80048a6 <I2C_RequestMemoryWrite+0x36>
 80048c6:	2201      	movs	r2, #1
 80048c8:	2300      	movs	r3, #0
 80048ca:	f885 2035 	strb.w	r2, [r5, #53]	; 0x35
 80048ce:	f885 3034 	strb.w	r3, [r5, #52]	; 0x34
 80048d2:	e045      	b.n	8004960 <I2C_RequestMemoryWrite+0xf0>
 80048d4:	695a      	ldr	r2, [r3, #20]
 80048d6:	0551      	lsls	r1, r2, #21
 80048d8:	d432      	bmi.n	8004940 <I2C_RequestMemoryWrite+0xd0>
 80048da:	695a      	ldr	r2, [r3, #20]
 80048dc:	0790      	lsls	r0, r2, #30
 80048de:	d5f9      	bpl.n	80048d4 <I2C_RequestMemoryWrite+0x64>
 80048e0:	695a      	ldr	r2, [r3, #20]
 80048e2:	699b      	ldr	r3, [r3, #24]
 80048e4:	f7fd feea 	bl	80026bc <HAL_GetTick>
 80048e8:	4680      	mov	r8, r0
 80048ea:	1c60      	adds	r0, r4, #1
 80048ec:	682a      	ldr	r2, [r5, #0]
 80048ee:	d13f      	bne.n	8004970 <I2C_RequestMemoryWrite+0x100>
 80048f0:	6953      	ldr	r3, [r2, #20]
 80048f2:	0619      	lsls	r1, r3, #24
 80048f4:	d5fc      	bpl.n	80048f0 <I2C_RequestMemoryWrite+0x80>
 80048f6:	2f01      	cmp	r7, #1
 80048f8:	d00a      	beq.n	8004910 <I2C_RequestMemoryWrite+0xa0>
 80048fa:	0a33      	lsrs	r3, r6, #8
 80048fc:	6113      	str	r3, [r2, #16]
 80048fe:	f7fd fedd 	bl	80026bc <HAL_GetTick>
 8004902:	4607      	mov	r7, r0
 8004904:	1c60      	adds	r0, r4, #1
 8004906:	682a      	ldr	r2, [r5, #0]
 8004908:	d13e      	bne.n	8004988 <I2C_RequestMemoryWrite+0x118>
 800490a:	6953      	ldr	r3, [r2, #20]
 800490c:	0619      	lsls	r1, r3, #24
 800490e:	d5fc      	bpl.n	800490a <I2C_RequestMemoryWrite+0x9a>
 8004910:	b2f6      	uxtb	r6, r6
 8004912:	6116      	str	r6, [r2, #16]
 8004914:	2000      	movs	r0, #0
 8004916:	e8bd 83f8 	ldmia.w	sp!, {r3, r4, r5, r6, r7, r8, r9, pc}
 800491a:	6953      	ldr	r3, [r2, #20]
 800491c:	07d8      	lsls	r0, r3, #31
 800491e:	d4bc      	bmi.n	800489a <I2C_RequestMemoryWrite+0x2a>
 8004920:	b12c      	cbz	r4, 800492e <I2C_RequestMemoryWrite+0xbe>
 8004922:	f7fd fecb 	bl	80026bc <HAL_GetTick>
 8004926:	ebc9 0000 	rsb	r0, r9, r0
 800492a:	4284      	cmp	r4, r0
 800492c:	d2af      	bcs.n	800488e <I2C_RequestMemoryWrite+0x1e>
 800492e:	2201      	movs	r2, #1
 8004930:	2300      	movs	r3, #0
 8004932:	f885 2035 	strb.w	r2, [r5, #53]	; 0x35
 8004936:	f885 3034 	strb.w	r3, [r5, #52]	; 0x34
 800493a:	2003      	movs	r0, #3
 800493c:	e8bd 83f8 	ldmia.w	sp!, {r3, r4, r5, r6, r7, r8, r9, pc}
 8004940:	681a      	ldr	r2, [r3, #0]
 8004942:	f46f 6680 	mvn.w	r6, #1024	; 0x400
 8004946:	f442 7200 	orr.w	r2, r2, #512	; 0x200
 800494a:	2404      	movs	r4, #4
 800494c:	2101      	movs	r1, #1
 800494e:	2000      	movs	r0, #0
 8004950:	601a      	str	r2, [r3, #0]
 8004952:	615e      	str	r6, [r3, #20]
 8004954:	f885 4036 	strb.w	r4, [r5, #54]	; 0x36
 8004958:	f885 0034 	strb.w	r0, [r5, #52]	; 0x34
 800495c:	f885 1035 	strb.w	r1, [r5, #53]	; 0x35
 8004960:	f895 3036 	ldrb.w	r3, [r5, #54]	; 0x36
 8004964:	2b04      	cmp	r3, #4
 8004966:	bf0c      	ite	eq
 8004968:	2001      	moveq	r0, #1
 800496a:	2003      	movne	r0, #3
 800496c:	e8bd 83f8 	ldmia.w	sp!, {r3, r4, r5, r6, r7, r8, r9, pc}
 8004970:	6953      	ldr	r3, [r2, #20]
 8004972:	061b      	lsls	r3, r3, #24
 8004974:	d4bf      	bmi.n	80048f6 <I2C_RequestMemoryWrite+0x86>
 8004976:	2c00      	cmp	r4, #0
 8004978:	d0d9      	beq.n	800492e <I2C_RequestMemoryWrite+0xbe>
 800497a:	f7fd fe9f 	bl	80026bc <HAL_GetTick>
 800497e:	ebc8 0000 	rsb	r0, r8, r0
 8004982:	4284      	cmp	r4, r0
 8004984:	d2b1      	bcs.n	80048ea <I2C_RequestMemoryWrite+0x7a>
 8004986:	e7d2      	b.n	800492e <I2C_RequestMemoryWrite+0xbe>
 8004988:	6953      	ldr	r3, [r2, #20]
 800498a:	061b      	lsls	r3, r3, #24
 800498c:	d4c0      	bmi.n	8004910 <I2C_RequestMemoryWrite+0xa0>
 800498e:	2c00      	cmp	r4, #0
 8004990:	d0cd      	beq.n	800492e <I2C_RequestMemoryWrite+0xbe>
 8004992:	f7fd fe93 	bl	80026bc <HAL_GetTick>
 8004996:	1bc0      	subs	r0, r0, r7
 8004998:	4284      	cmp	r4, r0
 800499a:	d2b3      	bcs.n	8004904 <I2C_RequestMemoryWrite+0x94>
 800499c:	e7c7      	b.n	800492e <I2C_RequestMemoryWrite+0xbe>
 800499e:	bf00      	nop

080049a0 <HAL_I2C_MspInit>:
HAL_I2C_MspInit():
 80049a0:	4770      	bx	lr
 80049a2:	bf00      	nop

080049a4 <HAL_I2C_Init>:
HAL_I2C_Init():
 80049a4:	2800      	cmp	r0, #0
 80049a6:	d066      	beq.n	8004a76 <HAL_I2C_Init+0xd2>
 80049a8:	b5f8      	push	{r3, r4, r5, r6, r7, lr}
 80049aa:	f890 3035 	ldrb.w	r3, [r0, #53]	; 0x35
 80049ae:	4604      	mov	r4, r0
 80049b0:	2b00      	cmp	r3, #0
 80049b2:	d04d      	beq.n	8004a50 <HAL_I2C_Init+0xac>
 80049b4:	6822      	ldr	r2, [r4, #0]
 80049b6:	4d31      	ldr	r5, [pc, #196]	; (8004a7c <HAL_I2C_Init+0xd8>)
 80049b8:	2302      	movs	r3, #2
 80049ba:	f884 3035 	strb.w	r3, [r4, #53]	; 0x35
 80049be:	6813      	ldr	r3, [r2, #0]
 80049c0:	f023 0301 	bic.w	r3, r3, #1
 80049c4:	6013      	str	r3, [r2, #0]
 80049c6:	f000 fec3 	bl	8005750 <HAL_RCC_GetPCLK1Freq>
 80049ca:	4a2d      	ldr	r2, [pc, #180]	; (8004a80 <HAL_I2C_Init+0xdc>)
 80049cc:	6861      	ldr	r1, [r4, #4]
 80049ce:	6823      	ldr	r3, [r4, #0]
 80049d0:	fba2 6200 	umull	r6, r2, r2, r0
 80049d4:	0c92      	lsrs	r2, r2, #18
 80049d6:	42a9      	cmp	r1, r5
 80049d8:	605a      	str	r2, [r3, #4]
 80049da:	d824      	bhi.n	8004a26 <HAL_I2C_Init+0x82>
 80049dc:	0049      	lsls	r1, r1, #1
 80049de:	fbb0 f0f1 	udiv	r0, r0, r1
 80049e2:	f3c0 010b 	ubfx	r1, r0, #0, #12
 80049e6:	3201      	adds	r2, #1
 80049e8:	2903      	cmp	r1, #3
 80049ea:	621a      	str	r2, [r3, #32]
 80049ec:	bf98      	it	ls
 80049ee:	2004      	movls	r0, #4
 80049f0:	f104 0110 	add.w	r1, r4, #16
 80049f4:	c946      	ldmia	r1, {r1, r2, r6}
 80049f6:	69e5      	ldr	r5, [r4, #28]
 80049f8:	f8d4 e020 	ldr.w	lr, [r4, #32]
 80049fc:	68e7      	ldr	r7, [r4, #12]
 80049fe:	61d8      	str	r0, [r3, #28]
 8004a00:	4339      	orrs	r1, r7
 8004a02:	ea4e 0005 	orr.w	r0, lr, r5
 8004a06:	4332      	orrs	r2, r6
 8004a08:	6018      	str	r0, [r3, #0]
 8004a0a:	6099      	str	r1, [r3, #8]
 8004a0c:	60da      	str	r2, [r3, #12]
 8004a0e:	681a      	ldr	r2, [r3, #0]
 8004a10:	2100      	movs	r1, #0
 8004a12:	f042 0201 	orr.w	r2, r2, #1
 8004a16:	2501      	movs	r5, #1
 8004a18:	601a      	str	r2, [r3, #0]
 8004a1a:	4608      	mov	r0, r1
 8004a1c:	f884 1036 	strb.w	r1, [r4, #54]	; 0x36
 8004a20:	f884 5035 	strb.w	r5, [r4, #53]	; 0x35
 8004a24:	bdf8      	pop	{r3, r4, r5, r6, r7, pc}
 8004a26:	f44f 7596 	mov.w	r5, #300	; 0x12c
 8004a2a:	4f16      	ldr	r7, [pc, #88]	; (8004a84 <HAL_I2C_Init+0xe0>)
 8004a2c:	68a6      	ldr	r6, [r4, #8]
 8004a2e:	fb05 f202 	mul.w	r2, r5, r2
 8004a32:	fba7 5202 	umull	r5, r2, r7, r2
 8004a36:	0992      	lsrs	r2, r2, #6
 8004a38:	3201      	adds	r2, #1
 8004a3a:	621a      	str	r2, [r3, #32]
 8004a3c:	b95e      	cbnz	r6, 8004a56 <HAL_I2C_Init+0xb2>
 8004a3e:	eb01 0141 	add.w	r1, r1, r1, lsl #1
 8004a42:	fbb0 f0f1 	udiv	r0, r0, r1
 8004a46:	f3c0 020b 	ubfx	r2, r0, #0, #12
 8004a4a:	b98a      	cbnz	r2, 8004a70 <HAL_I2C_Init+0xcc>
 8004a4c:	2001      	movs	r0, #1
 8004a4e:	e7cf      	b.n	80049f0 <HAL_I2C_Init+0x4c>
 8004a50:	f7ff ffa6 	bl	80049a0 <HAL_I2C_MspInit>
 8004a54:	e7ae      	b.n	80049b4 <HAL_I2C_Init+0x10>
 8004a56:	eb01 0181 	add.w	r1, r1, r1, lsl #2
 8004a5a:	eb01 0181 	add.w	r1, r1, r1, lsl #2
 8004a5e:	fbb0 f0f1 	udiv	r0, r0, r1
 8004a62:	f3c0 020b 	ubfx	r2, r0, #0, #12
 8004a66:	2a00      	cmp	r2, #0
 8004a68:	d0f0      	beq.n	8004a4c <HAL_I2C_Init+0xa8>
 8004a6a:	f440 4040 	orr.w	r0, r0, #49152	; 0xc000
 8004a6e:	e7bf      	b.n	80049f0 <HAL_I2C_Init+0x4c>
 8004a70:	f440 4000 	orr.w	r0, r0, #32768	; 0x8000
 8004a74:	e7bc      	b.n	80049f0 <HAL_I2C_Init+0x4c>
 8004a76:	2001      	movs	r0, #1
 8004a78:	4770      	bx	lr
 8004a7a:	bf00      	nop
 8004a7c:	000186a0 	.word	0x000186a0
 8004a80:	431bde83 	.word	0x431bde83
 8004a84:	10624dd3 	.word	0x10624dd3

08004a88 <HAL_I2C_MspDeInit>:
HAL_I2C_MspDeInit():
 8004a88:	4770      	bx	lr
 8004a8a:	bf00      	nop

08004a8c <HAL_I2C_DeInit>:
HAL_I2C_DeInit():
 8004a8c:	b198      	cbz	r0, 8004ab6 <HAL_I2C_DeInit+0x2a>
 8004a8e:	6802      	ldr	r2, [r0, #0]
 8004a90:	2302      	movs	r3, #2
 8004a92:	b510      	push	{r4, lr}
 8004a94:	f880 3035 	strb.w	r3, [r0, #53]	; 0x35
 8004a98:	6813      	ldr	r3, [r2, #0]
 8004a9a:	f023 0301 	bic.w	r3, r3, #1
 8004a9e:	4604      	mov	r4, r0
 8004aa0:	6013      	str	r3, [r2, #0]
 8004aa2:	f7ff fff1 	bl	8004a88 <HAL_I2C_MspDeInit>
 8004aa6:	2000      	movs	r0, #0
 8004aa8:	f884 0036 	strb.w	r0, [r4, #54]	; 0x36
 8004aac:	f884 0034 	strb.w	r0, [r4, #52]	; 0x34
 8004ab0:	f884 0035 	strb.w	r0, [r4, #53]	; 0x35
 8004ab4:	bd10      	pop	{r4, pc}
 8004ab6:	2001      	movs	r0, #1
 8004ab8:	4770      	bx	lr
 8004aba:	bf00      	nop

08004abc <HAL_I2C_Mem_Write>:
HAL_I2C_Mem_Write():
 8004abc:	e92d 41f0 	stmdb	sp!, {r4, r5, r6, r7, r8, lr}
 8004ac0:	f890 4035 	ldrb.w	r4, [r0, #53]	; 0x35
 8004ac4:	b082      	sub	sp, #8
 8004ac6:	b2e4      	uxtb	r4, r4
 8004ac8:	2c01      	cmp	r4, #1
 8004aca:	4605      	mov	r5, r0
 8004acc:	f8bd 6024 	ldrh.w	r6, [sp, #36]	; 0x24
 8004ad0:	d003      	beq.n	8004ada <HAL_I2C_Mem_Write+0x1e>
 8004ad2:	2002      	movs	r0, #2
 8004ad4:	b002      	add	sp, #8
 8004ad6:	e8bd 81f0 	ldmia.w	sp!, {r4, r5, r6, r7, r8, pc}
 8004ada:	9f08      	ldr	r7, [sp, #32]
 8004adc:	b1ff      	cbz	r7, 8004b1e <HAL_I2C_Mem_Write+0x62>
 8004ade:	b1f6      	cbz	r6, 8004b1e <HAL_I2C_Mem_Write+0x62>
 8004ae0:	6807      	ldr	r7, [r0, #0]
 8004ae2:	69bf      	ldr	r7, [r7, #24]
 8004ae4:	f017 0802 	ands.w	r8, r7, #2
 8004ae8:	d1f3      	bne.n	8004ad2 <HAL_I2C_Mem_Write+0x16>
 8004aea:	f890 e034 	ldrb.w	lr, [r0, #52]	; 0x34
 8004aee:	f1be 0f01 	cmp.w	lr, #1
 8004af2:	d0ee      	beq.n	8004ad2 <HAL_I2C_Mem_Write+0x16>
 8004af4:	f04f 0e32 	mov.w	lr, #50	; 0x32
 8004af8:	9f0a      	ldr	r7, [sp, #40]	; 0x28
 8004afa:	f880 4034 	strb.w	r4, [r0, #52]	; 0x34
 8004afe:	9700      	str	r7, [sp, #0]
 8004b00:	f880 e035 	strb.w	lr, [r0, #53]	; 0x35
 8004b04:	f880 8036 	strb.w	r8, [r0, #54]	; 0x36
 8004b08:	f7ff feb2 	bl	8004870 <I2C_RequestMemoryWrite>
 8004b0c:	b148      	cbz	r0, 8004b22 <HAL_I2C_Mem_Write+0x66>
 8004b0e:	f895 3036 	ldrb.w	r3, [r5, #54]	; 0x36
 8004b12:	f885 8034 	strb.w	r8, [r5, #52]	; 0x34
 8004b16:	2b04      	cmp	r3, #4
 8004b18:	d001      	beq.n	8004b1e <HAL_I2C_Mem_Write+0x62>
 8004b1a:	2003      	movs	r0, #3
 8004b1c:	e7da      	b.n	8004ad4 <HAL_I2C_Mem_Write+0x18>
 8004b1e:	4620      	mov	r0, r4
 8004b20:	e7d8      	b.n	8004ad4 <HAL_I2C_Mem_Write+0x18>
 8004b22:	f7fd fdcb 	bl	80026bc <HAL_GetTick>
 8004b26:	9b0a      	ldr	r3, [sp, #40]	; 0x28
 8004b28:	4604      	mov	r4, r0
 8004b2a:	3301      	adds	r3, #1
 8004b2c:	682a      	ldr	r2, [r5, #0]
 8004b2e:	d12a      	bne.n	8004b86 <HAL_I2C_Mem_Write+0xca>
 8004b30:	6953      	ldr	r3, [r2, #20]
 8004b32:	061b      	lsls	r3, r3, #24
 8004b34:	d5fc      	bpl.n	8004b30 <HAL_I2C_Mem_Write+0x74>
 8004b36:	9b08      	ldr	r3, [sp, #32]
 8004b38:	781b      	ldrb	r3, [r3, #0]
 8004b3a:	6113      	str	r3, [r2, #16]
 8004b3c:	6951      	ldr	r1, [r2, #20]
 8004b3e:	1e73      	subs	r3, r6, #1
 8004b40:	0749      	lsls	r1, r1, #29
 8004b42:	b29b      	uxth	r3, r3
 8004b44:	d432      	bmi.n	8004bac <HAL_I2C_Mem_Write+0xf0>
 8004b46:	9a08      	ldr	r2, [sp, #32]
 8004b48:	3201      	adds	r2, #1
 8004b4a:	9208      	str	r2, [sp, #32]
 8004b4c:	461e      	mov	r6, r3
 8004b4e:	2e00      	cmp	r6, #0
 8004b50:	d1e7      	bne.n	8004b22 <HAL_I2C_Mem_Write+0x66>
 8004b52:	f7fd fdb3 	bl	80026bc <HAL_GetTick>
 8004b56:	9b0a      	ldr	r3, [sp, #40]	; 0x28
 8004b58:	4604      	mov	r4, r0
 8004b5a:	3301      	adds	r3, #1
 8004b5c:	682a      	ldr	r2, [r5, #0]
 8004b5e:	d130      	bne.n	8004bc2 <HAL_I2C_Mem_Write+0x106>
 8004b60:	6953      	ldr	r3, [r2, #20]
 8004b62:	061c      	lsls	r4, r3, #24
 8004b64:	d5fc      	bpl.n	8004b60 <HAL_I2C_Mem_Write+0xa4>
 8004b66:	6813      	ldr	r3, [r2, #0]
 8004b68:	990a      	ldr	r1, [sp, #40]	; 0x28
 8004b6a:	f443 7300 	orr.w	r3, r3, #512	; 0x200
 8004b6e:	6013      	str	r3, [r2, #0]
 8004b70:	4628      	mov	r0, r5
 8004b72:	f7ff fd5f 	bl	8004634 <I2C_WaitOnFlagUntilTimeout.constprop.9>
 8004b76:	2800      	cmp	r0, #0
 8004b78:	d1cf      	bne.n	8004b1a <HAL_I2C_Mem_Write+0x5e>
 8004b7a:	2301      	movs	r3, #1
 8004b7c:	f885 0034 	strb.w	r0, [r5, #52]	; 0x34
 8004b80:	f885 3035 	strb.w	r3, [r5, #53]	; 0x35
 8004b84:	e7a6      	b.n	8004ad4 <HAL_I2C_Mem_Write+0x18>
 8004b86:	6953      	ldr	r3, [r2, #20]
 8004b88:	061f      	lsls	r7, r3, #24
 8004b8a:	d4d4      	bmi.n	8004b36 <HAL_I2C_Mem_Write+0x7a>
 8004b8c:	9b0a      	ldr	r3, [sp, #40]	; 0x28
 8004b8e:	b12b      	cbz	r3, 8004b9c <HAL_I2C_Mem_Write+0xe0>
 8004b90:	f7fd fd94 	bl	80026bc <HAL_GetTick>
 8004b94:	9b0a      	ldr	r3, [sp, #40]	; 0x28
 8004b96:	1b00      	subs	r0, r0, r4
 8004b98:	4283      	cmp	r3, r0
 8004b9a:	d2c6      	bcs.n	8004b2a <HAL_I2C_Mem_Write+0x6e>
 8004b9c:	2201      	movs	r2, #1
 8004b9e:	2300      	movs	r3, #0
 8004ba0:	f885 2035 	strb.w	r2, [r5, #53]	; 0x35
 8004ba4:	f885 3034 	strb.w	r3, [r5, #52]	; 0x34
 8004ba8:	2003      	movs	r0, #3
 8004baa:	e793      	b.n	8004ad4 <HAL_I2C_Mem_Write+0x18>
 8004bac:	2b00      	cmp	r3, #0
 8004bae:	d0d0      	beq.n	8004b52 <HAL_I2C_Mem_Write+0x96>
 8004bb0:	9b08      	ldr	r3, [sp, #32]
 8004bb2:	785b      	ldrb	r3, [r3, #1]
 8004bb4:	6113      	str	r3, [r2, #16]
 8004bb6:	9b08      	ldr	r3, [sp, #32]
 8004bb8:	3e02      	subs	r6, #2
 8004bba:	3302      	adds	r3, #2
 8004bbc:	b2b6      	uxth	r6, r6
 8004bbe:	9308      	str	r3, [sp, #32]
 8004bc0:	e7c5      	b.n	8004b4e <HAL_I2C_Mem_Write+0x92>
 8004bc2:	6953      	ldr	r3, [r2, #20]
 8004bc4:	0618      	lsls	r0, r3, #24
 8004bc6:	d4ce      	bmi.n	8004b66 <HAL_I2C_Mem_Write+0xaa>
 8004bc8:	9b0a      	ldr	r3, [sp, #40]	; 0x28
 8004bca:	2b00      	cmp	r3, #0
 8004bcc:	d0e6      	beq.n	8004b9c <HAL_I2C_Mem_Write+0xe0>
 8004bce:	f7fd fd75 	bl	80026bc <HAL_GetTick>
 8004bd2:	9b0a      	ldr	r3, [sp, #40]	; 0x28
 8004bd4:	1b00      	subs	r0, r0, r4
 8004bd6:	4283      	cmp	r3, r0
 8004bd8:	d2bf      	bcs.n	8004b5a <HAL_I2C_Mem_Write+0x9e>
 8004bda:	e7df      	b.n	8004b9c <HAL_I2C_Mem_Write+0xe0>

08004bdc <HAL_I2C_Mem_Read>:
HAL_I2C_Mem_Read():
 8004bdc:	e92d 41f0 	stmdb	sp!, {r4, r5, r6, r7, r8, lr}
 8004be0:	f890 4035 	ldrb.w	r4, [r0, #53]	; 0x35
 8004be4:	b082      	sub	sp, #8
 8004be6:	b2e4      	uxtb	r4, r4
 8004be8:	2c01      	cmp	r4, #1
 8004bea:	4605      	mov	r5, r0
 8004bec:	f8bd 7024 	ldrh.w	r7, [sp, #36]	; 0x24
 8004bf0:	d004      	beq.n	8004bfc <HAL_I2C_Mem_Read+0x20>
 8004bf2:	2602      	movs	r6, #2
 8004bf4:	4630      	mov	r0, r6
 8004bf6:	b002      	add	sp, #8
 8004bf8:	e8bd 81f0 	ldmia.w	sp!, {r4, r5, r6, r7, r8, pc}
 8004bfc:	9e08      	ldr	r6, [sp, #32]
 8004bfe:	b1fe      	cbz	r6, 8004c40 <HAL_I2C_Mem_Read+0x64>
 8004c00:	b1f7      	cbz	r7, 8004c40 <HAL_I2C_Mem_Read+0x64>
 8004c02:	6806      	ldr	r6, [r0, #0]
 8004c04:	69b6      	ldr	r6, [r6, #24]
 8004c06:	f016 0802 	ands.w	r8, r6, #2
 8004c0a:	d1f2      	bne.n	8004bf2 <HAL_I2C_Mem_Read+0x16>
 8004c0c:	f890 6034 	ldrb.w	r6, [r0, #52]	; 0x34
 8004c10:	2e01      	cmp	r6, #1
 8004c12:	d0ee      	beq.n	8004bf2 <HAL_I2C_Mem_Read+0x16>
 8004c14:	9e0a      	ldr	r6, [sp, #40]	; 0x28
 8004c16:	f880 4034 	strb.w	r4, [r0, #52]	; 0x34
 8004c1a:	f04f 0e42 	mov.w	lr, #66	; 0x42
 8004c1e:	9600      	str	r6, [sp, #0]
 8004c20:	f880 e035 	strb.w	lr, [r0, #53]	; 0x35
 8004c24:	f880 8036 	strb.w	r8, [r0, #54]	; 0x36
 8004c28:	f7ff fd24 	bl	8004674 <I2C_RequestMemoryRead>
 8004c2c:	4606      	mov	r6, r0
 8004c2e:	b148      	cbz	r0, 8004c44 <HAL_I2C_Mem_Read+0x68>
 8004c30:	f895 3036 	ldrb.w	r3, [r5, #54]	; 0x36
 8004c34:	f885 8034 	strb.w	r8, [r5, #52]	; 0x34
 8004c38:	2b04      	cmp	r3, #4
 8004c3a:	d001      	beq.n	8004c40 <HAL_I2C_Mem_Read+0x64>
 8004c3c:	2603      	movs	r6, #3
 8004c3e:	e7d9      	b.n	8004bf4 <HAL_I2C_Mem_Read+0x18>
 8004c40:	4626      	mov	r6, r4
 8004c42:	e7d7      	b.n	8004bf4 <HAL_I2C_Mem_Read+0x18>
 8004c44:	2f01      	cmp	r7, #1
 8004c46:	682b      	ldr	r3, [r5, #0]
 8004c48:	f000 80e1 	beq.w	8004e0e <HAL_I2C_Mem_Read+0x232>
 8004c4c:	2f02      	cmp	r7, #2
 8004c4e:	f000 80e9 	beq.w	8004e24 <HAL_I2C_Mem_Read+0x248>
 8004c52:	695a      	ldr	r2, [r3, #20]
 8004c54:	699b      	ldr	r3, [r3, #24]
 8004c56:	2f03      	cmp	r7, #3
 8004c58:	d85f      	bhi.n	8004d1a <HAL_I2C_Mem_Read+0x13e>
 8004c5a:	2f01      	cmp	r7, #1
 8004c5c:	f000 80ac 	beq.w	8004db8 <HAL_I2C_Mem_Read+0x1dc>
 8004c60:	2f02      	cmp	r7, #2
 8004c62:	d07e      	beq.n	8004d62 <HAL_I2C_Mem_Read+0x186>
 8004c64:	f7fd fd2a 	bl	80026bc <HAL_GetTick>
 8004c68:	9b0a      	ldr	r3, [sp, #40]	; 0x28
 8004c6a:	4604      	mov	r4, r0
 8004c6c:	3301      	adds	r3, #1
 8004c6e:	682a      	ldr	r2, [r5, #0]
 8004c70:	d134      	bne.n	8004cdc <HAL_I2C_Mem_Read+0x100>
 8004c72:	6953      	ldr	r3, [r2, #20]
 8004c74:	075b      	lsls	r3, r3, #29
 8004c76:	d5fc      	bpl.n	8004c72 <HAL_I2C_Mem_Read+0x96>
 8004c78:	6813      	ldr	r3, [r2, #0]
 8004c7a:	f423 6380 	bic.w	r3, r3, #1024	; 0x400
 8004c7e:	6013      	str	r3, [r2, #0]
 8004c80:	6913      	ldr	r3, [r2, #16]
 8004c82:	9a08      	ldr	r2, [sp, #32]
 8004c84:	7013      	strb	r3, [r2, #0]
 8004c86:	f7fd fd19 	bl	80026bc <HAL_GetTick>
 8004c8a:	9b0a      	ldr	r3, [sp, #40]	; 0x28
 8004c8c:	4604      	mov	r4, r0
 8004c8e:	3301      	adds	r3, #1
 8004c90:	682a      	ldr	r2, [r5, #0]
 8004c92:	d135      	bne.n	8004d00 <HAL_I2C_Mem_Read+0x124>
 8004c94:	6953      	ldr	r3, [r2, #20]
 8004c96:	075c      	lsls	r4, r3, #29
 8004c98:	d5fc      	bpl.n	8004c94 <HAL_I2C_Mem_Read+0xb8>
 8004c9a:	6813      	ldr	r3, [r2, #0]
 8004c9c:	f443 7300 	orr.w	r3, r3, #512	; 0x200
 8004ca0:	6013      	str	r3, [r2, #0]
 8004ca2:	6913      	ldr	r3, [r2, #16]
 8004ca4:	9a08      	ldr	r2, [sp, #32]
 8004ca6:	7053      	strb	r3, [r2, #1]
 8004ca8:	682b      	ldr	r3, [r5, #0]
 8004caa:	691b      	ldr	r3, [r3, #16]
 8004cac:	7093      	strb	r3, [r2, #2]
 8004cae:	682a      	ldr	r2, [r5, #0]
 8004cb0:	6813      	ldr	r3, [r2, #0]
 8004cb2:	f423 6300 	bic.w	r3, r3, #2048	; 0x800
 8004cb6:	6013      	str	r3, [r2, #0]
 8004cb8:	f7fd fd00 	bl	80026bc <HAL_GetTick>
 8004cbc:	9b0a      	ldr	r3, [sp, #40]	; 0x28
 8004cbe:	4604      	mov	r4, r0
 8004cc0:	3301      	adds	r3, #1
 8004cc2:	682a      	ldr	r2, [r5, #0]
 8004cc4:	f040 8093 	bne.w	8004dee <HAL_I2C_Mem_Read+0x212>
 8004cc8:	6993      	ldr	r3, [r2, #24]
 8004cca:	0798      	lsls	r0, r3, #30
 8004ccc:	d4fc      	bmi.n	8004cc8 <HAL_I2C_Mem_Read+0xec>
 8004cce:	2201      	movs	r2, #1
 8004cd0:	2300      	movs	r3, #0
 8004cd2:	f885 2035 	strb.w	r2, [r5, #53]	; 0x35
 8004cd6:	f885 3034 	strb.w	r3, [r5, #52]	; 0x34
 8004cda:	e78b      	b.n	8004bf4 <HAL_I2C_Mem_Read+0x18>
 8004cdc:	6953      	ldr	r3, [r2, #20]
 8004cde:	075f      	lsls	r7, r3, #29
 8004ce0:	d4ca      	bmi.n	8004c78 <HAL_I2C_Mem_Read+0x9c>
 8004ce2:	9b0a      	ldr	r3, [sp, #40]	; 0x28
 8004ce4:	b12b      	cbz	r3, 8004cf2 <HAL_I2C_Mem_Read+0x116>
 8004ce6:	f7fd fce9 	bl	80026bc <HAL_GetTick>
 8004cea:	9b0a      	ldr	r3, [sp, #40]	; 0x28
 8004cec:	1b00      	subs	r0, r0, r4
 8004cee:	4283      	cmp	r3, r0
 8004cf0:	d2bc      	bcs.n	8004c6c <HAL_I2C_Mem_Read+0x90>
 8004cf2:	2201      	movs	r2, #1
 8004cf4:	2300      	movs	r3, #0
 8004cf6:	f885 2035 	strb.w	r2, [r5, #53]	; 0x35
 8004cfa:	f885 3034 	strb.w	r3, [r5, #52]	; 0x34
 8004cfe:	e79d      	b.n	8004c3c <HAL_I2C_Mem_Read+0x60>
 8004d00:	6953      	ldr	r3, [r2, #20]
 8004d02:	0758      	lsls	r0, r3, #29
 8004d04:	d4c9      	bmi.n	8004c9a <HAL_I2C_Mem_Read+0xbe>
 8004d06:	9b0a      	ldr	r3, [sp, #40]	; 0x28
 8004d08:	2b00      	cmp	r3, #0
 8004d0a:	d0f2      	beq.n	8004cf2 <HAL_I2C_Mem_Read+0x116>
 8004d0c:	f7fd fcd6 	bl	80026bc <HAL_GetTick>
 8004d10:	9b0a      	ldr	r3, [sp, #40]	; 0x28
 8004d12:	1b00      	subs	r0, r0, r4
 8004d14:	4283      	cmp	r3, r0
 8004d16:	d2ba      	bcs.n	8004c8e <HAL_I2C_Mem_Read+0xb2>
 8004d18:	e7eb      	b.n	8004cf2 <HAL_I2C_Mem_Read+0x116>
 8004d1a:	f7fd fccf 	bl	80026bc <HAL_GetTick>
 8004d1e:	9b0a      	ldr	r3, [sp, #40]	; 0x28
 8004d20:	4604      	mov	r4, r0
 8004d22:	3301      	adds	r3, #1
 8004d24:	682a      	ldr	r2, [r5, #0]
 8004d26:	d10f      	bne.n	8004d48 <HAL_I2C_Mem_Read+0x16c>
 8004d28:	6953      	ldr	r3, [r2, #20]
 8004d2a:	0659      	lsls	r1, r3, #25
 8004d2c:	d5fc      	bpl.n	8004d28 <HAL_I2C_Mem_Read+0x14c>
 8004d2e:	6913      	ldr	r3, [r2, #16]
 8004d30:	9a08      	ldr	r2, [sp, #32]
 8004d32:	7013      	strb	r3, [r2, #0]
 8004d34:	682b      	ldr	r3, [r5, #0]
 8004d36:	695a      	ldr	r2, [r3, #20]
 8004d38:	0752      	lsls	r2, r2, #29
 8004d3a:	d434      	bmi.n	8004da6 <HAL_I2C_Mem_Read+0x1ca>
 8004d3c:	9b08      	ldr	r3, [sp, #32]
 8004d3e:	3f01      	subs	r7, #1
 8004d40:	3301      	adds	r3, #1
 8004d42:	b2bf      	uxth	r7, r7
 8004d44:	9308      	str	r3, [sp, #32]
 8004d46:	e786      	b.n	8004c56 <HAL_I2C_Mem_Read+0x7a>
 8004d48:	6953      	ldr	r3, [r2, #20]
 8004d4a:	065b      	lsls	r3, r3, #25
 8004d4c:	d4ef      	bmi.n	8004d2e <HAL_I2C_Mem_Read+0x152>
 8004d4e:	9b0a      	ldr	r3, [sp, #40]	; 0x28
 8004d50:	2b00      	cmp	r3, #0
 8004d52:	d0ce      	beq.n	8004cf2 <HAL_I2C_Mem_Read+0x116>
 8004d54:	f7fd fcb2 	bl	80026bc <HAL_GetTick>
 8004d58:	9b0a      	ldr	r3, [sp, #40]	; 0x28
 8004d5a:	1b00      	subs	r0, r0, r4
 8004d5c:	4283      	cmp	r3, r0
 8004d5e:	d2e0      	bcs.n	8004d22 <HAL_I2C_Mem_Read+0x146>
 8004d60:	e7c7      	b.n	8004cf2 <HAL_I2C_Mem_Read+0x116>
 8004d62:	f7fd fcab 	bl	80026bc <HAL_GetTick>
 8004d66:	9b0a      	ldr	r3, [sp, #40]	; 0x28
 8004d68:	4604      	mov	r4, r0
 8004d6a:	3301      	adds	r3, #1
 8004d6c:	682a      	ldr	r2, [r5, #0]
 8004d6e:	d10d      	bne.n	8004d8c <HAL_I2C_Mem_Read+0x1b0>
 8004d70:	6953      	ldr	r3, [r2, #20]
 8004d72:	0758      	lsls	r0, r3, #29
 8004d74:	d5fc      	bpl.n	8004d70 <HAL_I2C_Mem_Read+0x194>
 8004d76:	6813      	ldr	r3, [r2, #0]
 8004d78:	f443 7300 	orr.w	r3, r3, #512	; 0x200
 8004d7c:	6013      	str	r3, [r2, #0]
 8004d7e:	6913      	ldr	r3, [r2, #16]
 8004d80:	9a08      	ldr	r2, [sp, #32]
 8004d82:	7013      	strb	r3, [r2, #0]
 8004d84:	682b      	ldr	r3, [r5, #0]
 8004d86:	691b      	ldr	r3, [r3, #16]
 8004d88:	7053      	strb	r3, [r2, #1]
 8004d8a:	e790      	b.n	8004cae <HAL_I2C_Mem_Read+0xd2>
 8004d8c:	6953      	ldr	r3, [r2, #20]
 8004d8e:	0759      	lsls	r1, r3, #29
 8004d90:	d4f1      	bmi.n	8004d76 <HAL_I2C_Mem_Read+0x19a>
 8004d92:	9b0a      	ldr	r3, [sp, #40]	; 0x28
 8004d94:	2b00      	cmp	r3, #0
 8004d96:	d0ac      	beq.n	8004cf2 <HAL_I2C_Mem_Read+0x116>
 8004d98:	f7fd fc90 	bl	80026bc <HAL_GetTick>
 8004d9c:	9b0a      	ldr	r3, [sp, #40]	; 0x28
 8004d9e:	1b00      	subs	r0, r0, r4
 8004da0:	4283      	cmp	r3, r0
 8004da2:	d2e2      	bcs.n	8004d6a <HAL_I2C_Mem_Read+0x18e>
 8004da4:	e7a5      	b.n	8004cf2 <HAL_I2C_Mem_Read+0x116>
 8004da6:	9a08      	ldr	r2, [sp, #32]
 8004da8:	691b      	ldr	r3, [r3, #16]
 8004daa:	7053      	strb	r3, [r2, #1]
 8004dac:	4613      	mov	r3, r2
 8004dae:	3f02      	subs	r7, #2
 8004db0:	3302      	adds	r3, #2
 8004db2:	b2bf      	uxth	r7, r7
 8004db4:	9308      	str	r3, [sp, #32]
 8004db6:	e74e      	b.n	8004c56 <HAL_I2C_Mem_Read+0x7a>
 8004db8:	f7fd fc80 	bl	80026bc <HAL_GetTick>
 8004dbc:	9b0a      	ldr	r3, [sp, #40]	; 0x28
 8004dbe:	4604      	mov	r4, r0
 8004dc0:	3301      	adds	r3, #1
 8004dc2:	682a      	ldr	r2, [r5, #0]
 8004dc4:	d106      	bne.n	8004dd4 <HAL_I2C_Mem_Read+0x1f8>
 8004dc6:	6953      	ldr	r3, [r2, #20]
 8004dc8:	065b      	lsls	r3, r3, #25
 8004dca:	d5fc      	bpl.n	8004dc6 <HAL_I2C_Mem_Read+0x1ea>
 8004dcc:	6913      	ldr	r3, [r2, #16]
 8004dce:	9a08      	ldr	r2, [sp, #32]
 8004dd0:	7013      	strb	r3, [r2, #0]
 8004dd2:	e76c      	b.n	8004cae <HAL_I2C_Mem_Read+0xd2>
 8004dd4:	6953      	ldr	r3, [r2, #20]
 8004dd6:	065f      	lsls	r7, r3, #25
 8004dd8:	d4f8      	bmi.n	8004dcc <HAL_I2C_Mem_Read+0x1f0>
 8004dda:	9b0a      	ldr	r3, [sp, #40]	; 0x28
 8004ddc:	2b00      	cmp	r3, #0
 8004dde:	d088      	beq.n	8004cf2 <HAL_I2C_Mem_Read+0x116>
 8004de0:	f7fd fc6c 	bl	80026bc <HAL_GetTick>
 8004de4:	9b0a      	ldr	r3, [sp, #40]	; 0x28
 8004de6:	1b00      	subs	r0, r0, r4
 8004de8:	4283      	cmp	r3, r0
 8004dea:	d2e9      	bcs.n	8004dc0 <HAL_I2C_Mem_Read+0x1e4>
 8004dec:	e781      	b.n	8004cf2 <HAL_I2C_Mem_Read+0x116>
 8004dee:	6993      	ldr	r3, [r2, #24]
 8004df0:	0799      	lsls	r1, r3, #30
 8004df2:	f57f af6c 	bpl.w	8004cce <HAL_I2C_Mem_Read+0xf2>
 8004df6:	9b0a      	ldr	r3, [sp, #40]	; 0x28
 8004df8:	2b00      	cmp	r3, #0
 8004dfa:	f43f af7a 	beq.w	8004cf2 <HAL_I2C_Mem_Read+0x116>
 8004dfe:	f7fd fc5d 	bl	80026bc <HAL_GetTick>
 8004e02:	9b0a      	ldr	r3, [sp, #40]	; 0x28
 8004e04:	1b00      	subs	r0, r0, r4
 8004e06:	4283      	cmp	r3, r0
 8004e08:	f4bf af5a 	bcs.w	8004cc0 <HAL_I2C_Mem_Read+0xe4>
 8004e0c:	e771      	b.n	8004cf2 <HAL_I2C_Mem_Read+0x116>
 8004e0e:	681a      	ldr	r2, [r3, #0]
 8004e10:	f422 6280 	bic.w	r2, r2, #1024	; 0x400
 8004e14:	601a      	str	r2, [r3, #0]
 8004e16:	695a      	ldr	r2, [r3, #20]
 8004e18:	699a      	ldr	r2, [r3, #24]
 8004e1a:	681a      	ldr	r2, [r3, #0]
 8004e1c:	f442 7200 	orr.w	r2, r2, #512	; 0x200
 8004e20:	601a      	str	r2, [r3, #0]
 8004e22:	e718      	b.n	8004c56 <HAL_I2C_Mem_Read+0x7a>
 8004e24:	681a      	ldr	r2, [r3, #0]
 8004e26:	f422 6280 	bic.w	r2, r2, #1024	; 0x400
 8004e2a:	601a      	str	r2, [r3, #0]
 8004e2c:	681a      	ldr	r2, [r3, #0]
 8004e2e:	f442 6200 	orr.w	r2, r2, #2048	; 0x800
 8004e32:	601a      	str	r2, [r3, #0]
 8004e34:	695a      	ldr	r2, [r3, #20]
 8004e36:	699b      	ldr	r3, [r3, #24]
 8004e38:	e70d      	b.n	8004c56 <HAL_I2C_Mem_Read+0x7a>
 8004e3a:	bf00      	nop

08004e3c <HAL_I2C_GetState>:
HAL_I2C_GetState():
 8004e3c:	f890 0035 	ldrb.w	r0, [r0, #53]	; 0x35
 8004e40:	4770      	bx	lr
 8004e42:	bf00      	nop

08004e44 <HAL_I2S_MspInit>:
HAL_I2S_MspInit():
 8004e44:	4770      	bx	lr
 8004e46:	bf00      	nop

08004e48 <HAL_I2S_Init>:
HAL_I2S_Init():
 8004e48:	2800      	cmp	r0, #0
 8004e4a:	f000 80b2 	beq.w	8004fb2 <HAL_I2S_Init+0x16a>
 8004e4e:	f890 303d 	ldrb.w	r3, [r0, #61]	; 0x3d
 8004e52:	e92d 41f0 	stmdb	sp!, {r4, r5, r6, r7, r8, lr}
 8004e56:	4604      	mov	r4, r0
 8004e58:	2b00      	cmp	r3, #0
 8004e5a:	d06f      	beq.n	8004f3c <HAL_I2S_Init+0xf4>
 8004e5c:	6821      	ldr	r1, [r4, #0]
 8004e5e:	6960      	ldr	r0, [r4, #20]
 8004e60:	68e5      	ldr	r5, [r4, #12]
 8004e62:	2202      	movs	r2, #2
 8004e64:	f884 203d 	strb.w	r2, [r4, #61]	; 0x3d
 8004e68:	69cb      	ldr	r3, [r1, #28]
 8004e6a:	f423 637b 	bic.w	r3, r3, #4016	; 0xfb0
 8004e6e:	f023 030f 	bic.w	r3, r3, #15
 8004e72:	61cb      	str	r3, [r1, #28]
 8004e74:	2802      	cmp	r0, #2
 8004e76:	620a      	str	r2, [r1, #32]
 8004e78:	69ca      	ldr	r2, [r1, #28]
 8004e7a:	d062      	beq.n	8004f42 <HAL_I2S_Init+0xfa>
 8004e7c:	69e6      	ldr	r6, [r4, #28]
 8004e7e:	2d00      	cmp	r5, #0
 8004e80:	bf14      	ite	ne
 8004e82:	2740      	movne	r7, #64	; 0x40
 8004e84:	2720      	moveq	r7, #32
 8004e86:	2e01      	cmp	r6, #1
 8004e88:	4e5f      	ldr	r6, [pc, #380]	; (8005008 <HAL_I2S_Init+0x1c0>)
 8004e8a:	d07d      	beq.n	8004f88 <HAL_I2S_Init+0x140>
 8004e8c:	6833      	ldr	r3, [r6, #0]
 8004e8e:	015b      	lsls	r3, r3, #5
 8004e90:	f140 808a 	bpl.w	8004fa8 <HAL_I2S_Init+0x160>
 8004e94:	68b3      	ldr	r3, [r6, #8]
 8004e96:	021b      	lsls	r3, r3, #8
 8004e98:	f100 8081 	bmi.w	8004f9e <HAL_I2S_Init+0x156>
 8004e9c:	4b5a      	ldr	r3, [pc, #360]	; (8005008 <HAL_I2S_Init+0x1c0>)
 8004e9e:	685e      	ldr	r6, [r3, #4]
 8004ea0:	f416 0f80 	tst.w	r6, #4194304	; 0x400000
 8004ea4:	685e      	ldr	r6, [r3, #4]
 8004ea6:	bf14      	ite	ne
 8004ea8:	4b58      	ldrne	r3, [pc, #352]	; (800500c <HAL_I2S_Init+0x1c4>)
 8004eaa:	4b59      	ldreq	r3, [pc, #356]	; (8005010 <HAL_I2S_Init+0x1c8>)
 8004eac:	f006 063f 	and.w	r6, r6, #63	; 0x3f
 8004eb0:	fbb3 fef6 	udiv	lr, r3, r6
 8004eb4:	4b54      	ldr	r3, [pc, #336]	; (8005008 <HAL_I2S_Init+0x1c0>)
 8004eb6:	f8d3 6084 	ldr.w	r6, [r3, #132]	; 0x84
 8004eba:	f8d3 3084 	ldr.w	r3, [r3, #132]	; 0x84
 8004ebe:	f3c6 1688 	ubfx	r6, r6, #6, #9
 8004ec2:	fb06 f60e 	mul.w	r6, r6, lr
 8004ec6:	f3c3 7302 	ubfx	r3, r3, #28, #3
 8004eca:	fbb6 f3f3 	udiv	r3, r6, r3
 8004ece:	f8d4 8010 	ldr.w	r8, [r4, #16]
 8004ed2:	f5b8 7f00 	cmp.w	r8, #512	; 0x200
 8004ed6:	bf0c      	ite	eq
 8004ed8:	0a1b      	lsreq	r3, r3, #8
 8004eda:	fbb3 f3f7 	udivne	r3, r3, r7
 8004ede:	eb03 0383 	add.w	r3, r3, r3, lsl #2
 8004ee2:	005b      	lsls	r3, r3, #1
 8004ee4:	fbb3 f0f0 	udiv	r0, r3, r0
 8004ee8:	4b4a      	ldr	r3, [pc, #296]	; (8005014 <HAL_I2S_Init+0x1cc>)
 8004eea:	3005      	adds	r0, #5
 8004eec:	fba3 0300 	umull	r0, r3, r3, r0
 8004ef0:	08db      	lsrs	r3, r3, #3
 8004ef2:	0858      	lsrs	r0, r3, #1
 8004ef4:	1e86      	subs	r6, r0, #2
 8004ef6:	2efd      	cmp	r6, #253	; 0xfd
 8004ef8:	f003 0701 	and.w	r7, r3, #1
 8004efc:	bf94      	ite	ls
 8004efe:	ea40 2007 	orrls.w	r0, r0, r7, lsl #8
 8004f02:	2002      	movhi	r0, #2
 8004f04:	6867      	ldr	r7, [r4, #4]
 8004f06:	68a6      	ldr	r6, [r4, #8]
 8004f08:	f8d4 e018 	ldr.w	lr, [r4, #24]
 8004f0c:	f8d4 c020 	ldr.w	ip, [r4, #32]
 8004f10:	433a      	orrs	r2, r7
 8004f12:	f442 6200 	orr.w	r2, r2, #2048	; 0x800
 8004f16:	4332      	orrs	r2, r6
 8004f18:	ea42 020e 	orr.w	r2, r2, lr
 8004f1c:	ea40 0008 	orr.w	r0, r0, r8
 8004f20:	432a      	orrs	r2, r5
 8004f22:	f1bc 0f01 	cmp.w	ip, #1
 8004f26:	6208      	str	r0, [r1, #32]
 8004f28:	61ca      	str	r2, [r1, #28]
 8004f2a:	d00e      	beq.n	8004f4a <HAL_I2S_Init+0x102>
 8004f2c:	2000      	movs	r0, #0
 8004f2e:	2301      	movs	r3, #1
 8004f30:	f884 003e 	strb.w	r0, [r4, #62]	; 0x3e
 8004f34:	f884 303d 	strb.w	r3, [r4, #61]	; 0x3d
 8004f38:	e8bd 81f0 	ldmia.w	sp!, {r4, r5, r6, r7, r8, pc}
 8004f3c:	f7ff ff82 	bl	8004e44 <HAL_I2S_MspInit>
 8004f40:	e78c      	b.n	8004e5c <HAL_I2S_Init+0x14>
 8004f42:	f8d4 8010 	ldr.w	r8, [r4, #16]
 8004f46:	2300      	movs	r3, #0
 8004f48:	e7dc      	b.n	8004f04 <HAL_I2S_Init+0xbc>
 8004f4a:	4a33      	ldr	r2, [pc, #204]	; (8005018 <HAL_I2S_Init+0x1d0>)
 8004f4c:	4291      	cmp	r1, r2
 8004f4e:	d049      	beq.n	8004fe4 <HAL_I2S_Init+0x19c>
 8004f50:	f04f 2240 	mov.w	r2, #1073758208	; 0x40004000
 8004f54:	f04f 0c02 	mov.w	ip, #2
 8004f58:	69d0      	ldr	r0, [r2, #28]
 8004f5a:	f420 607b 	bic.w	r0, r0, #4016	; 0xfb0
 8004f5e:	f020 000f 	bic.w	r0, r0, #15
 8004f62:	61d0      	str	r0, [r2, #28]
 8004f64:	f5b7 7f00 	cmp.w	r7, #512	; 0x200
 8004f68:	f8c2 c020 	str.w	ip, [r2, #32]
 8004f6c:	69d0      	ldr	r0, [r2, #28]
 8004f6e:	d042      	beq.n	8004ff6 <HAL_I2S_Init+0x1ae>
 8004f70:	bb1f      	cbnz	r7, 8004fba <HAL_I2S_Init+0x172>
 8004f72:	ea46 030e 	orr.w	r3, r6, lr
 8004f76:	f443 6300 	orr.w	r3, r3, #2048	; 0x800
 8004f7a:	432b      	orrs	r3, r5
 8004f7c:	4303      	orrs	r3, r0
 8004f7e:	f443 7380 	orr.w	r3, r3, #256	; 0x100
 8004f82:	4611      	mov	r1, r2
 8004f84:	61cb      	str	r3, [r1, #28]
 8004f86:	e7d1      	b.n	8004f2c <HAL_I2S_Init+0xe4>
 8004f88:	68b3      	ldr	r3, [r6, #8]
 8004f8a:	021b      	lsls	r3, r3, #8
 8004f8c:	d413      	bmi.n	8004fb6 <HAL_I2S_Init+0x16e>
 8004f8e:	f8d6 e008 	ldr.w	lr, [r6, #8]
 8004f92:	4b22      	ldr	r3, [pc, #136]	; (800501c <HAL_I2S_Init+0x1d4>)
 8004f94:	f44e 0e00 	orr.w	lr, lr, #8388608	; 0x800000
 8004f98:	f8c6 e008 	str.w	lr, [r6, #8]
 8004f9c:	e797      	b.n	8004ece <HAL_I2S_Init+0x86>
 8004f9e:	68b3      	ldr	r3, [r6, #8]
 8004fa0:	f423 0300 	bic.w	r3, r3, #8388608	; 0x800000
 8004fa4:	60b3      	str	r3, [r6, #8]
 8004fa6:	e779      	b.n	8004e9c <HAL_I2S_Init+0x54>
 8004fa8:	2001      	movs	r0, #1
 8004faa:	f884 003d 	strb.w	r0, [r4, #61]	; 0x3d
 8004fae:	e8bd 81f0 	ldmia.w	sp!, {r4, r5, r6, r7, r8, pc}
 8004fb2:	2001      	movs	r0, #1
 8004fb4:	4770      	bx	lr
 8004fb6:	4b19      	ldr	r3, [pc, #100]	; (800501c <HAL_I2S_Init+0x1d4>)
 8004fb8:	e789      	b.n	8004ece <HAL_I2S_Init+0x86>
 8004fba:	ea46 060e 	orr.w	r6, r6, lr
 8004fbe:	f446 6600 	orr.w	r6, r6, #2048	; 0x800
 8004fc2:	f427 7700 	bic.w	r7, r7, #512	; 0x200
 8004fc6:	4335      	orrs	r5, r6
 8004fc8:	f5b7 7f80 	cmp.w	r7, #256	; 0x100
 8004fcc:	4e12      	ldr	r6, [pc, #72]	; (8005018 <HAL_I2S_Init+0x1d0>)
 8004fce:	4a14      	ldr	r2, [pc, #80]	; (8005020 <HAL_I2S_Init+0x1d8>)
 8004fd0:	bf08      	it	eq
 8004fd2:	2300      	moveq	r3, #0
 8004fd4:	4305      	orrs	r5, r0
 8004fd6:	432b      	orrs	r3, r5
 8004fd8:	42b1      	cmp	r1, r6
 8004fda:	bf0c      	ite	eq
 8004fdc:	4611      	moveq	r1, r2
 8004fde:	f04f 2140 	movne.w	r1, #1073758208	; 0x40004000
 8004fe2:	e7cf      	b.n	8004f84 <HAL_I2S_Init+0x13c>
 8004fe4:	4a0e      	ldr	r2, [pc, #56]	; (8005020 <HAL_I2S_Init+0x1d8>)
 8004fe6:	69d0      	ldr	r0, [r2, #28]
 8004fe8:	f420 607b 	bic.w	r0, r0, #4016	; 0xfb0
 8004fec:	f020 000f 	bic.w	r0, r0, #15
 8004ff0:	f04f 0c02 	mov.w	ip, #2
 8004ff4:	e7b5      	b.n	8004f62 <HAL_I2S_Init+0x11a>
 8004ff6:	ea46 030e 	orr.w	r3, r6, lr
 8004ffa:	f443 6310 	orr.w	r3, r3, #2304	; 0x900
 8004ffe:	4303      	orrs	r3, r0
 8005000:	432b      	orrs	r3, r5
 8005002:	4611      	mov	r1, r2
 8005004:	e7be      	b.n	8004f84 <HAL_I2S_Init+0x13c>
 8005006:	bf00      	nop
 8005008:	40023800 	.word	0x40023800
 800500c:	007a1200 	.word	0x007a1200
 8005010:	00f42400 	.word	0x00f42400
 8005014:	cccccccd 	.word	0xcccccccd
 8005018:	40003800 	.word	0x40003800
 800501c:	00bb8000 	.word	0x00bb8000
 8005020:	40003400 	.word	0x40003400

08005024 <HAL_I2S_Transmit_DMA>:
HAL_I2S_Transmit_DMA():
 8005024:	b141      	cbz	r1, 8005038 <HAL_I2S_Transmit_DMA+0x14>
 8005026:	b13a      	cbz	r2, 8005038 <HAL_I2S_Transmit_DMA+0x14>
 8005028:	b5f8      	push	{r3, r4, r5, r6, r7, lr}
 800502a:	f890 303d 	ldrb.w	r3, [r0, #61]	; 0x3d
 800502e:	2b01      	cmp	r3, #1
 8005030:	4604      	mov	r4, r0
 8005032:	d003      	beq.n	800503c <HAL_I2S_Transmit_DMA+0x18>
 8005034:	2002      	movs	r0, #2
 8005036:	bdf8      	pop	{r3, r4, r5, r6, r7, pc}
 8005038:	2001      	movs	r0, #1
 800503a:	4770      	bx	lr
 800503c:	6805      	ldr	r5, [r0, #0]
 800503e:	6241      	str	r1, [r0, #36]	; 0x24
 8005040:	69eb      	ldr	r3, [r5, #28]
 8005042:	69e8      	ldr	r0, [r5, #28]
 8005044:	f003 0307 	and.w	r3, r3, #7
 8005048:	2b03      	cmp	r3, #3
 800504a:	d032      	beq.n	80050b2 <HAL_I2S_Transmit_DMA+0x8e>
 800504c:	f000 0007 	and.w	r0, r0, #7
 8005050:	2805      	cmp	r0, #5
 8005052:	d02e      	beq.n	80050b2 <HAL_I2S_Transmit_DMA+0x8e>
 8005054:	8522      	strh	r2, [r4, #40]	; 0x28
 8005056:	8562      	strh	r2, [r4, #42]	; 0x2a
 8005058:	f894 303c 	ldrb.w	r3, [r4, #60]	; 0x3c
 800505c:	2b01      	cmp	r3, #1
 800505e:	d0e9      	beq.n	8005034 <HAL_I2S_Transmit_DMA+0x10>
 8005060:	2001      	movs	r0, #1
 8005062:	2212      	movs	r2, #18
 8005064:	2300      	movs	r3, #0
 8005066:	f884 003c 	strb.w	r0, [r4, #60]	; 0x3c
 800506a:	f884 203d 	strb.w	r2, [r4, #61]	; 0x3d
 800506e:	f884 303e 	strb.w	r3, [r4, #62]	; 0x3e
 8005072:	8d23      	ldrh	r3, [r4, #40]	; 0x28
 8005074:	6b60      	ldr	r0, [r4, #52]	; 0x34
 8005076:	4a11      	ldr	r2, [pc, #68]	; (80050bc <HAL_I2S_Transmit_DMA+0x98>)
 8005078:	4f11      	ldr	r7, [pc, #68]	; (80050c0 <HAL_I2S_Transmit_DMA+0x9c>)
 800507a:	4e12      	ldr	r6, [pc, #72]	; (80050c4 <HAL_I2S_Transmit_DMA+0xa0>)
 800507c:	6402      	str	r2, [r0, #64]	; 0x40
 800507e:	b29b      	uxth	r3, r3
 8005080:	f105 020c 	add.w	r2, r5, #12
 8005084:	63c7      	str	r7, [r0, #60]	; 0x3c
 8005086:	6486      	str	r6, [r0, #72]	; 0x48
 8005088:	f7fd fe1a 	bl	8002cc0 <HAL_DMA_Start_IT>
 800508c:	6823      	ldr	r3, [r4, #0]
 800508e:	69da      	ldr	r2, [r3, #28]
 8005090:	0551      	lsls	r1, r2, #21
 8005092:	d403      	bmi.n	800509c <HAL_I2S_Transmit_DMA+0x78>
 8005094:	69da      	ldr	r2, [r3, #28]
 8005096:	f442 6280 	orr.w	r2, r2, #1024	; 0x400
 800509a:	61da      	str	r2, [r3, #28]
 800509c:	685a      	ldr	r2, [r3, #4]
 800509e:	0792      	lsls	r2, r2, #30
 80050a0:	d403      	bmi.n	80050aa <HAL_I2S_Transmit_DMA+0x86>
 80050a2:	685a      	ldr	r2, [r3, #4]
 80050a4:	f042 0202 	orr.w	r2, r2, #2
 80050a8:	605a      	str	r2, [r3, #4]
 80050aa:	2000      	movs	r0, #0
 80050ac:	f884 003c 	strb.w	r0, [r4, #60]	; 0x3c
 80050b0:	bdf8      	pop	{r3, r4, r5, r6, r7, pc}
 80050b2:	0053      	lsls	r3, r2, #1
 80050b4:	b29b      	uxth	r3, r3
 80050b6:	8523      	strh	r3, [r4, #40]	; 0x28
 80050b8:	8563      	strh	r3, [r4, #42]	; 0x2a
 80050ba:	e7cd      	b.n	8005058 <HAL_I2S_Transmit_DMA+0x34>
 80050bc:	080050c9 	.word	0x080050c9
 80050c0:	080050d5 	.word	0x080050d5
 80050c4:	0800513d 	.word	0x0800513d

080050c8 <I2S_DMATxHalfCplt>:
I2S_DMATxHalfCplt():
 80050c8:	b508      	push	{r3, lr}
 80050ca:	6b80      	ldr	r0, [r0, #56]	; 0x38
 80050cc:	f001 fe14 	bl	8006cf8 <HAL_I2S_TxHalfCpltCallback>
 80050d0:	bd08      	pop	{r3, pc}
 80050d2:	bf00      	nop

080050d4 <I2S_DMATxCplt>:
I2S_DMATxCplt():
 80050d4:	b508      	push	{r3, lr}
 80050d6:	6803      	ldr	r3, [r0, #0]
 80050d8:	6b80      	ldr	r0, [r0, #56]	; 0x38
 80050da:	681b      	ldr	r3, [r3, #0]
 80050dc:	f413 7380 	ands.w	r3, r3, #256	; 0x100
 80050e0:	d10f      	bne.n	8005102 <I2S_DMATxCplt+0x2e>
 80050e2:	6802      	ldr	r2, [r0, #0]
 80050e4:	8543      	strh	r3, [r0, #42]	; 0x2a
 80050e6:	6853      	ldr	r3, [r2, #4]
 80050e8:	6a01      	ldr	r1, [r0, #32]
 80050ea:	f023 0302 	bic.w	r3, r3, #2
 80050ee:	2901      	cmp	r1, #1
 80050f0:	6053      	str	r3, [r2, #4]
 80050f2:	d00e      	beq.n	8005112 <I2S_DMATxCplt+0x3e>
 80050f4:	f890 303d 	ldrb.w	r3, [r0, #61]	; 0x3d
 80050f8:	2b32      	cmp	r3, #50	; 0x32
 80050fa:	d005      	beq.n	8005108 <I2S_DMATxCplt+0x34>
 80050fc:	2301      	movs	r3, #1
 80050fe:	f880 303d 	strb.w	r3, [r0, #61]	; 0x3d
 8005102:	f001 fded 	bl	8006ce0 <HAL_I2S_TxCpltCallback>
 8005106:	bd08      	pop	{r3, pc}
 8005108:	8e43      	ldrh	r3, [r0, #50]	; 0x32
 800510a:	b29b      	uxth	r3, r3
 800510c:	2b00      	cmp	r3, #0
 800510e:	d1f8      	bne.n	8005102 <I2S_DMATxCplt+0x2e>
 8005110:	e7f4      	b.n	80050fc <I2S_DMATxCplt+0x28>
 8005112:	4b08      	ldr	r3, [pc, #32]	; (8005134 <I2S_DMATxCplt+0x60>)
 8005114:	4908      	ldr	r1, [pc, #32]	; (8005138 <I2S_DMATxCplt+0x64>)
 8005116:	428a      	cmp	r2, r1
 8005118:	bf0c      	ite	eq
 800511a:	461a      	moveq	r2, r3
 800511c:	f04f 2240 	movne.w	r2, #1073758208	; 0x40004000
 8005120:	6853      	ldr	r3, [r2, #4]
 8005122:	f023 0301 	bic.w	r3, r3, #1
 8005126:	6053      	str	r3, [r2, #4]
 8005128:	f890 303d 	ldrb.w	r3, [r0, #61]	; 0x3d
 800512c:	2b32      	cmp	r3, #50	; 0x32
 800512e:	d1e5      	bne.n	80050fc <I2S_DMATxCplt+0x28>
 8005130:	e7ea      	b.n	8005108 <I2S_DMATxCplt+0x34>
 8005132:	bf00      	nop
 8005134:	40003400 	.word	0x40003400
 8005138:	40003800 	.word	0x40003800

0800513c <I2S_DMAError>:
I2S_DMAError():
 800513c:	6b80      	ldr	r0, [r0, #56]	; 0x38
 800513e:	b508      	push	{r3, lr}
 8005140:	2201      	movs	r2, #1
 8005142:	2300      	movs	r3, #0
 8005144:	8543      	strh	r3, [r0, #42]	; 0x2a
 8005146:	8643      	strh	r3, [r0, #50]	; 0x32
 8005148:	f880 203d 	strb.w	r2, [r0, #61]	; 0x3d
 800514c:	f890 303e 	ldrb.w	r3, [r0, #62]	; 0x3e
 8005150:	f043 0320 	orr.w	r3, r3, #32
 8005154:	f880 303e 	strb.w	r3, [r0, #62]	; 0x3e
 8005158:	f001 fddc 	bl	8006d14 <HAL_I2S_ErrorCallback>
 800515c:	bd08      	pop	{r3, pc}
 800515e:	bf00      	nop

08005160 <HAL_I2S_GetState>:
HAL_I2S_GetState():
 8005160:	f890 003d 	ldrb.w	r0, [r0, #61]	; 0x3d
 8005164:	4770      	bx	lr
 8005166:	bf00      	nop

08005168 <HAL_RCC_OscConfig>:
HAL_RCC_OscConfig():
 8005168:	6803      	ldr	r3, [r0, #0]
 800516a:	e92d 41f0 	stmdb	sp!, {r4, r5, r6, r7, r8, lr}
 800516e:	07de      	lsls	r6, r3, #31
 8005170:	4604      	mov	r4, r0
 8005172:	d537      	bpl.n	80051e4 <HAL_RCC_OscConfig+0x7c>
 8005174:	499c      	ldr	r1, [pc, #624]	; (80053e8 <HAL_RCC_OscConfig+0x280>)
 8005176:	688a      	ldr	r2, [r1, #8]
 8005178:	f002 020c 	and.w	r2, r2, #12
 800517c:	2a04      	cmp	r2, #4
 800517e:	f000 8101 	beq.w	8005384 <HAL_RCC_OscConfig+0x21c>
 8005182:	688a      	ldr	r2, [r1, #8]
 8005184:	f002 020c 	and.w	r2, r2, #12
 8005188:	2a08      	cmp	r2, #8
 800518a:	f000 80f7 	beq.w	800537c <HAL_RCC_OscConfig+0x214>
 800518e:	4b97      	ldr	r3, [pc, #604]	; (80053ec <HAL_RCC_OscConfig+0x284>)
 8005190:	4d95      	ldr	r5, [pc, #596]	; (80053e8 <HAL_RCC_OscConfig+0x280>)
 8005192:	2200      	movs	r2, #0
 8005194:	701a      	strb	r2, [r3, #0]
 8005196:	f7fd fa91 	bl	80026bc <HAL_GetTick>
 800519a:	f241 3688 	movw	r6, #5000	; 0x1388
 800519e:	4607      	mov	r7, r0
 80051a0:	e005      	b.n	80051ae <HAL_RCC_OscConfig+0x46>
 80051a2:	f7fd fa8b 	bl	80026bc <HAL_GetTick>
 80051a6:	1bc0      	subs	r0, r0, r7
 80051a8:	42b0      	cmp	r0, r6
 80051aa:	f200 80c6 	bhi.w	800533a <HAL_RCC_OscConfig+0x1d2>
 80051ae:	682b      	ldr	r3, [r5, #0]
 80051b0:	0399      	lsls	r1, r3, #14
 80051b2:	d4f6      	bmi.n	80051a2 <HAL_RCC_OscConfig+0x3a>
 80051b4:	4b8d      	ldr	r3, [pc, #564]	; (80053ec <HAL_RCC_OscConfig+0x284>)
 80051b6:	7922      	ldrb	r2, [r4, #4]
 80051b8:	701a      	strb	r2, [r3, #0]
 80051ba:	6863      	ldr	r3, [r4, #4]
 80051bc:	2b01      	cmp	r3, #1
 80051be:	f000 8168 	beq.w	8005492 <HAL_RCC_OscConfig+0x32a>
 80051c2:	f7fd fa7b 	bl	80026bc <HAL_GetTick>
 80051c6:	4d88      	ldr	r5, [pc, #544]	; (80053e8 <HAL_RCC_OscConfig+0x280>)
 80051c8:	4607      	mov	r7, r0
 80051ca:	f241 3688 	movw	r6, #5000	; 0x1388
 80051ce:	e005      	b.n	80051dc <HAL_RCC_OscConfig+0x74>
 80051d0:	f7fd fa74 	bl	80026bc <HAL_GetTick>
 80051d4:	1bc0      	subs	r0, r0, r7
 80051d6:	42b0      	cmp	r0, r6
 80051d8:	f200 80af 	bhi.w	800533a <HAL_RCC_OscConfig+0x1d2>
 80051dc:	682b      	ldr	r3, [r5, #0]
 80051de:	039b      	lsls	r3, r3, #14
 80051e0:	d4f6      	bmi.n	80051d0 <HAL_RCC_OscConfig+0x68>
 80051e2:	6823      	ldr	r3, [r4, #0]
 80051e4:	079f      	lsls	r7, r3, #30
 80051e6:	d530      	bpl.n	800524a <HAL_RCC_OscConfig+0xe2>
 80051e8:	4a7f      	ldr	r2, [pc, #508]	; (80053e8 <HAL_RCC_OscConfig+0x280>)
 80051ea:	6891      	ldr	r1, [r2, #8]
 80051ec:	f011 0f0c 	tst.w	r1, #12
 80051f0:	f000 80aa 	beq.w	8005348 <HAL_RCC_OscConfig+0x1e0>
 80051f4:	6891      	ldr	r1, [r2, #8]
 80051f6:	f001 010c 	and.w	r1, r1, #12
 80051fa:	2908      	cmp	r1, #8
 80051fc:	f000 80a0 	beq.w	8005340 <HAL_RCC_OscConfig+0x1d8>
 8005200:	68e3      	ldr	r3, [r4, #12]
 8005202:	2b00      	cmp	r3, #0
 8005204:	f000 80da 	beq.w	80053bc <HAL_RCC_OscConfig+0x254>
 8005208:	4b79      	ldr	r3, [pc, #484]	; (80053f0 <HAL_RCC_OscConfig+0x288>)
 800520a:	4d77      	ldr	r5, [pc, #476]	; (80053e8 <HAL_RCC_OscConfig+0x280>)
 800520c:	2201      	movs	r2, #1
 800520e:	601a      	str	r2, [r3, #0]
 8005210:	f7fd fa54 	bl	80026bc <HAL_GetTick>
 8005214:	4606      	mov	r6, r0
 8005216:	e005      	b.n	8005224 <HAL_RCC_OscConfig+0xbc>
 8005218:	f7fd fa50 	bl	80026bc <HAL_GetTick>
 800521c:	1b80      	subs	r0, r0, r6
 800521e:	2864      	cmp	r0, #100	; 0x64
 8005220:	f200 808b 	bhi.w	800533a <HAL_RCC_OscConfig+0x1d2>
 8005224:	682b      	ldr	r3, [r5, #0]
 8005226:	4a70      	ldr	r2, [pc, #448]	; (80053e8 <HAL_RCC_OscConfig+0x280>)
 8005228:	0798      	lsls	r0, r3, #30
 800522a:	d5f5      	bpl.n	8005218 <HAL_RCC_OscConfig+0xb0>
 800522c:	6811      	ldr	r1, [r2, #0]
 800522e:	23f8      	movs	r3, #248	; 0xf8
 8005230:	fa93 f3a3 	rbit	r3, r3
 8005234:	fab3 f383 	clz	r3, r3
 8005238:	6920      	ldr	r0, [r4, #16]
 800523a:	b2db      	uxtb	r3, r3
 800523c:	f021 01f8 	bic.w	r1, r1, #248	; 0xf8
 8005240:	4098      	lsls	r0, r3
 8005242:	ea40 0301 	orr.w	r3, r0, r1
 8005246:	6013      	str	r3, [r2, #0]
 8005248:	6823      	ldr	r3, [r4, #0]
 800524a:	071a      	lsls	r2, r3, #28
 800524c:	d421      	bmi.n	8005292 <HAL_RCC_OscConfig+0x12a>
 800524e:	0758      	lsls	r0, r3, #29
 8005250:	d436      	bmi.n	80052c0 <HAL_RCC_OscConfig+0x158>
 8005252:	69a3      	ldr	r3, [r4, #24]
 8005254:	b1d3      	cbz	r3, 800528c <HAL_RCC_OscConfig+0x124>
 8005256:	4d64      	ldr	r5, [pc, #400]	; (80053e8 <HAL_RCC_OscConfig+0x280>)
 8005258:	68aa      	ldr	r2, [r5, #8]
 800525a:	f002 020c 	and.w	r2, r2, #12
 800525e:	2a08      	cmp	r2, #8
 8005260:	f000 8099 	beq.w	8005396 <HAL_RCC_OscConfig+0x22e>
 8005264:	2b02      	cmp	r3, #2
 8005266:	4b63      	ldr	r3, [pc, #396]	; (80053f4 <HAL_RCC_OscConfig+0x28c>)
 8005268:	f04f 0200 	mov.w	r2, #0
 800526c:	601a      	str	r2, [r3, #0]
 800526e:	f000 80b6 	beq.w	80053de <HAL_RCC_OscConfig+0x276>
 8005272:	f7fd fa23 	bl	80026bc <HAL_GetTick>
 8005276:	462c      	mov	r4, r5
 8005278:	4605      	mov	r5, r0
 800527a:	e004      	b.n	8005286 <HAL_RCC_OscConfig+0x11e>
 800527c:	f7fd fa1e 	bl	80026bc <HAL_GetTick>
 8005280:	1b40      	subs	r0, r0, r5
 8005282:	2864      	cmp	r0, #100	; 0x64
 8005284:	d859      	bhi.n	800533a <HAL_RCC_OscConfig+0x1d2>
 8005286:	6823      	ldr	r3, [r4, #0]
 8005288:	019b      	lsls	r3, r3, #6
 800528a:	d4f7      	bmi.n	800527c <HAL_RCC_OscConfig+0x114>
 800528c:	2000      	movs	r0, #0
 800528e:	e8bd 81f0 	ldmia.w	sp!, {r4, r5, r6, r7, r8, pc}
 8005292:	6963      	ldr	r3, [r4, #20]
 8005294:	2b00      	cmp	r3, #0
 8005296:	f000 8081 	beq.w	800539c <HAL_RCC_OscConfig+0x234>
 800529a:	4b57      	ldr	r3, [pc, #348]	; (80053f8 <HAL_RCC_OscConfig+0x290>)
 800529c:	4d52      	ldr	r5, [pc, #328]	; (80053e8 <HAL_RCC_OscConfig+0x280>)
 800529e:	2201      	movs	r2, #1
 80052a0:	601a      	str	r2, [r3, #0]
 80052a2:	f7fd fa0b 	bl	80026bc <HAL_GetTick>
 80052a6:	4606      	mov	r6, r0
 80052a8:	e004      	b.n	80052b4 <HAL_RCC_OscConfig+0x14c>
 80052aa:	f7fd fa07 	bl	80026bc <HAL_GetTick>
 80052ae:	1b80      	subs	r0, r0, r6
 80052b0:	2864      	cmp	r0, #100	; 0x64
 80052b2:	d842      	bhi.n	800533a <HAL_RCC_OscConfig+0x1d2>
 80052b4:	6f6b      	ldr	r3, [r5, #116]	; 0x74
 80052b6:	079b      	lsls	r3, r3, #30
 80052b8:	d5f7      	bpl.n	80052aa <HAL_RCC_OscConfig+0x142>
 80052ba:	6823      	ldr	r3, [r4, #0]
 80052bc:	0758      	lsls	r0, r3, #29
 80052be:	d5c8      	bpl.n	8005252 <HAL_RCC_OscConfig+0xea>
 80052c0:	4a49      	ldr	r2, [pc, #292]	; (80053e8 <HAL_RCC_OscConfig+0x280>)
 80052c2:	4d4e      	ldr	r5, [pc, #312]	; (80053fc <HAL_RCC_OscConfig+0x294>)
 80052c4:	6c13      	ldr	r3, [r2, #64]	; 0x40
 80052c6:	f043 5380 	orr.w	r3, r3, #268435456	; 0x10000000
 80052ca:	6413      	str	r3, [r2, #64]	; 0x40
 80052cc:	682b      	ldr	r3, [r5, #0]
 80052ce:	f443 7380 	orr.w	r3, r3, #256	; 0x100
 80052d2:	602b      	str	r3, [r5, #0]
 80052d4:	f7fd f9f2 	bl	80026bc <HAL_GetTick>
 80052d8:	4606      	mov	r6, r0
 80052da:	e004      	b.n	80052e6 <HAL_RCC_OscConfig+0x17e>
 80052dc:	f7fd f9ee 	bl	80026bc <HAL_GetTick>
 80052e0:	1b80      	subs	r0, r0, r6
 80052e2:	2864      	cmp	r0, #100	; 0x64
 80052e4:	d829      	bhi.n	800533a <HAL_RCC_OscConfig+0x1d2>
 80052e6:	682b      	ldr	r3, [r5, #0]
 80052e8:	05d9      	lsls	r1, r3, #23
 80052ea:	d5f7      	bpl.n	80052dc <HAL_RCC_OscConfig+0x174>
 80052ec:	4b44      	ldr	r3, [pc, #272]	; (8005400 <HAL_RCC_OscConfig+0x298>)
 80052ee:	4d3e      	ldr	r5, [pc, #248]	; (80053e8 <HAL_RCC_OscConfig+0x280>)
 80052f0:	2200      	movs	r2, #0
 80052f2:	701a      	strb	r2, [r3, #0]
 80052f4:	f7fd f9e2 	bl	80026bc <HAL_GetTick>
 80052f8:	f241 3688 	movw	r6, #5000	; 0x1388
 80052fc:	4607      	mov	r7, r0
 80052fe:	e004      	b.n	800530a <HAL_RCC_OscConfig+0x1a2>
 8005300:	f7fd f9dc 	bl	80026bc <HAL_GetTick>
 8005304:	1bc0      	subs	r0, r0, r7
 8005306:	42b0      	cmp	r0, r6
 8005308:	d817      	bhi.n	800533a <HAL_RCC_OscConfig+0x1d2>
 800530a:	6f2b      	ldr	r3, [r5, #112]	; 0x70
 800530c:	079a      	lsls	r2, r3, #30
 800530e:	d4f7      	bmi.n	8005300 <HAL_RCC_OscConfig+0x198>
 8005310:	4b3b      	ldr	r3, [pc, #236]	; (8005400 <HAL_RCC_OscConfig+0x298>)
 8005312:	7a22      	ldrb	r2, [r4, #8]
 8005314:	701a      	strb	r2, [r3, #0]
 8005316:	68a3      	ldr	r3, [r4, #8]
 8005318:	2b01      	cmp	r3, #1
 800531a:	f000 80cb 	beq.w	80054b4 <HAL_RCC_OscConfig+0x34c>
 800531e:	f7fd f9cd 	bl	80026bc <HAL_GetTick>
 8005322:	4d31      	ldr	r5, [pc, #196]	; (80053e8 <HAL_RCC_OscConfig+0x280>)
 8005324:	4607      	mov	r7, r0
 8005326:	f241 3688 	movw	r6, #5000	; 0x1388
 800532a:	6f2b      	ldr	r3, [r5, #112]	; 0x70
 800532c:	0798      	lsls	r0, r3, #30
 800532e:	d590      	bpl.n	8005252 <HAL_RCC_OscConfig+0xea>
 8005330:	f7fd f9c4 	bl	80026bc <HAL_GetTick>
 8005334:	1bc0      	subs	r0, r0, r7
 8005336:	42b0      	cmp	r0, r6
 8005338:	d9f7      	bls.n	800532a <HAL_RCC_OscConfig+0x1c2>
 800533a:	2003      	movs	r0, #3
 800533c:	e8bd 81f0 	ldmia.w	sp!, {r4, r5, r6, r7, r8, pc}
 8005340:	6852      	ldr	r2, [r2, #4]
 8005342:	0256      	lsls	r6, r2, #9
 8005344:	f53f af5c 	bmi.w	8005200 <HAL_RCC_OscConfig+0x98>
 8005348:	4a27      	ldr	r2, [pc, #156]	; (80053e8 <HAL_RCC_OscConfig+0x280>)
 800534a:	6812      	ldr	r2, [r2, #0]
 800534c:	0795      	lsls	r5, r2, #30
 800534e:	d502      	bpl.n	8005356 <HAL_RCC_OscConfig+0x1ee>
 8005350:	68e2      	ldr	r2, [r4, #12]
 8005352:	2a01      	cmp	r2, #1
 8005354:	d11f      	bne.n	8005396 <HAL_RCC_OscConfig+0x22e>
 8005356:	4d24      	ldr	r5, [pc, #144]	; (80053e8 <HAL_RCC_OscConfig+0x280>)
 8005358:	22f8      	movs	r2, #248	; 0xf8
 800535a:	6829      	ldr	r1, [r5, #0]
 800535c:	fa92 f2a2 	rbit	r2, r2
 8005360:	fab2 f282 	clz	r2, r2
 8005364:	6920      	ldr	r0, [r4, #16]
 8005366:	b2d2      	uxtb	r2, r2
 8005368:	f021 01f8 	bic.w	r1, r1, #248	; 0xf8
 800536c:	4090      	lsls	r0, r2
 800536e:	ea40 0201 	orr.w	r2, r0, r1
 8005372:	602a      	str	r2, [r5, #0]
 8005374:	071a      	lsls	r2, r3, #28
 8005376:	f57f af6a 	bpl.w	800524e <HAL_RCC_OscConfig+0xe6>
 800537a:	e78a      	b.n	8005292 <HAL_RCC_OscConfig+0x12a>
 800537c:	684a      	ldr	r2, [r1, #4]
 800537e:	0255      	lsls	r5, r2, #9
 8005380:	f57f af05 	bpl.w	800518e <HAL_RCC_OscConfig+0x26>
 8005384:	4a18      	ldr	r2, [pc, #96]	; (80053e8 <HAL_RCC_OscConfig+0x280>)
 8005386:	6812      	ldr	r2, [r2, #0]
 8005388:	0390      	lsls	r0, r2, #14
 800538a:	f57f af2b 	bpl.w	80051e4 <HAL_RCC_OscConfig+0x7c>
 800538e:	6862      	ldr	r2, [r4, #4]
 8005390:	2a01      	cmp	r2, #1
 8005392:	f43f af27 	beq.w	80051e4 <HAL_RCC_OscConfig+0x7c>
 8005396:	2001      	movs	r0, #1
 8005398:	e8bd 81f0 	ldmia.w	sp!, {r4, r5, r6, r7, r8, pc}
 800539c:	4a16      	ldr	r2, [pc, #88]	; (80053f8 <HAL_RCC_OscConfig+0x290>)
 800539e:	4d12      	ldr	r5, [pc, #72]	; (80053e8 <HAL_RCC_OscConfig+0x280>)
 80053a0:	6013      	str	r3, [r2, #0]
 80053a2:	f7fd f98b 	bl	80026bc <HAL_GetTick>
 80053a6:	4606      	mov	r6, r0
 80053a8:	e004      	b.n	80053b4 <HAL_RCC_OscConfig+0x24c>
 80053aa:	f7fd f987 	bl	80026bc <HAL_GetTick>
 80053ae:	1b80      	subs	r0, r0, r6
 80053b0:	2864      	cmp	r0, #100	; 0x64
 80053b2:	d8c2      	bhi.n	800533a <HAL_RCC_OscConfig+0x1d2>
 80053b4:	6f6b      	ldr	r3, [r5, #116]	; 0x74
 80053b6:	079f      	lsls	r7, r3, #30
 80053b8:	d4f7      	bmi.n	80053aa <HAL_RCC_OscConfig+0x242>
 80053ba:	e77e      	b.n	80052ba <HAL_RCC_OscConfig+0x152>
 80053bc:	4a0c      	ldr	r2, [pc, #48]	; (80053f0 <HAL_RCC_OscConfig+0x288>)
 80053be:	4d0a      	ldr	r5, [pc, #40]	; (80053e8 <HAL_RCC_OscConfig+0x280>)
 80053c0:	6013      	str	r3, [r2, #0]
 80053c2:	f7fd f97b 	bl	80026bc <HAL_GetTick>
 80053c6:	4606      	mov	r6, r0
 80053c8:	e004      	b.n	80053d4 <HAL_RCC_OscConfig+0x26c>
 80053ca:	f7fd f977 	bl	80026bc <HAL_GetTick>
 80053ce:	1b80      	subs	r0, r0, r6
 80053d0:	2864      	cmp	r0, #100	; 0x64
 80053d2:	d8b2      	bhi.n	800533a <HAL_RCC_OscConfig+0x1d2>
 80053d4:	682b      	ldr	r3, [r5, #0]
 80053d6:	0799      	lsls	r1, r3, #30
 80053d8:	d4f7      	bmi.n	80053ca <HAL_RCC_OscConfig+0x262>
 80053da:	6823      	ldr	r3, [r4, #0]
 80053dc:	e735      	b.n	800524a <HAL_RCC_OscConfig+0xe2>
 80053de:	f7fd f96d 	bl	80026bc <HAL_GetTick>
 80053e2:	4606      	mov	r6, r0
 80053e4:	e013      	b.n	800540e <HAL_RCC_OscConfig+0x2a6>
 80053e6:	bf00      	nop
 80053e8:	40023800 	.word	0x40023800
 80053ec:	40023802 	.word	0x40023802
 80053f0:	42470000 	.word	0x42470000
 80053f4:	42470060 	.word	0x42470060
 80053f8:	42470e80 	.word	0x42470e80
 80053fc:	40007000 	.word	0x40007000
 8005400:	40023870 	.word	0x40023870
 8005404:	f7fd f95a 	bl	80026bc <HAL_GetTick>
 8005408:	1b80      	subs	r0, r0, r6
 800540a:	2864      	cmp	r0, #100	; 0x64
 800540c:	d895      	bhi.n	800533a <HAL_RCC_OscConfig+0x1d2>
 800540e:	682b      	ldr	r3, [r5, #0]
 8005410:	4a30      	ldr	r2, [pc, #192]	; (80054d4 <HAL_RCC_OscConfig+0x36c>)
 8005412:	0199      	lsls	r1, r3, #6
 8005414:	d4f6      	bmi.n	8005404 <HAL_RCC_OscConfig+0x29c>
 8005416:	f647 7cc0 	movw	ip, #32704	; 0x7fc0
 800541a:	fa9c fcac 	rbit	ip, ip
 800541e:	fabc fc8c 	clz	ip, ip
 8005422:	f44f 3e40 	mov.w	lr, #196608	; 0x30000
 8005426:	fa9e feae 	rbit	lr, lr
 800542a:	fabe fe8e 	clz	lr, lr
 800542e:	f04f 6670 	mov.w	r6, #251658240	; 0xf000000
 8005432:	fa96 f6a6 	rbit	r6, r6
 8005436:	fab6 f786 	clz	r7, r6
 800543a:	69e6      	ldr	r6, [r4, #28]
 800543c:	6aa3      	ldr	r3, [r4, #40]	; 0x28
 800543e:	f8d4 8020 	ldr.w	r8, [r4, #32]
 8005442:	6a60      	ldr	r0, [r4, #36]	; 0x24
 8005444:	6ae1      	ldr	r1, [r4, #44]	; 0x2c
 8005446:	4d24      	ldr	r5, [pc, #144]	; (80054d8 <HAL_RCC_OscConfig+0x370>)
 8005448:	fa5f fc8c 	uxtb.w	ip, ip
 800544c:	ea48 0406 	orr.w	r4, r8, r6
 8005450:	085b      	lsrs	r3, r3, #1
 8005452:	fa5f fe8e 	uxtb.w	lr, lr
 8005456:	fa00 f00c 	lsl.w	r0, r0, ip
 800545a:	f044 5400 	orr.w	r4, r4, #536870912	; 0x20000000
 800545e:	3b01      	subs	r3, #1
 8005460:	4320      	orrs	r0, r4
 8005462:	fa03 f30e 	lsl.w	r3, r3, lr
 8005466:	b2fe      	uxtb	r6, r7
 8005468:	4303      	orrs	r3, r0
 800546a:	40b1      	lsls	r1, r6
 800546c:	430b      	orrs	r3, r1
 800546e:	2101      	movs	r1, #1
 8005470:	6053      	str	r3, [r2, #4]
 8005472:	6029      	str	r1, [r5, #0]
 8005474:	4614      	mov	r4, r2
 8005476:	f7fd f921 	bl	80026bc <HAL_GetTick>
 800547a:	4605      	mov	r5, r0
 800547c:	e005      	b.n	800548a <HAL_RCC_OscConfig+0x322>
 800547e:	f7fd f91d 	bl	80026bc <HAL_GetTick>
 8005482:	1b40      	subs	r0, r0, r5
 8005484:	2864      	cmp	r0, #100	; 0x64
 8005486:	f63f af58 	bhi.w	800533a <HAL_RCC_OscConfig+0x1d2>
 800548a:	6823      	ldr	r3, [r4, #0]
 800548c:	019a      	lsls	r2, r3, #6
 800548e:	d5f6      	bpl.n	800547e <HAL_RCC_OscConfig+0x316>
 8005490:	e6fc      	b.n	800528c <HAL_RCC_OscConfig+0x124>
 8005492:	f7fd f913 	bl	80026bc <HAL_GetTick>
 8005496:	4d0f      	ldr	r5, [pc, #60]	; (80054d4 <HAL_RCC_OscConfig+0x36c>)
 8005498:	4607      	mov	r7, r0
 800549a:	f241 3688 	movw	r6, #5000	; 0x1388
 800549e:	e005      	b.n	80054ac <HAL_RCC_OscConfig+0x344>
 80054a0:	f7fd f90c 	bl	80026bc <HAL_GetTick>
 80054a4:	1bc0      	subs	r0, r0, r7
 80054a6:	42b0      	cmp	r0, r6
 80054a8:	f63f af47 	bhi.w	800533a <HAL_RCC_OscConfig+0x1d2>
 80054ac:	682b      	ldr	r3, [r5, #0]
 80054ae:	039a      	lsls	r2, r3, #14
 80054b0:	d5f6      	bpl.n	80054a0 <HAL_RCC_OscConfig+0x338>
 80054b2:	e696      	b.n	80051e2 <HAL_RCC_OscConfig+0x7a>
 80054b4:	f7fd f902 	bl	80026bc <HAL_GetTick>
 80054b8:	4d06      	ldr	r5, [pc, #24]	; (80054d4 <HAL_RCC_OscConfig+0x36c>)
 80054ba:	4607      	mov	r7, r0
 80054bc:	f241 3688 	movw	r6, #5000	; 0x1388
 80054c0:	6f2b      	ldr	r3, [r5, #112]	; 0x70
 80054c2:	079b      	lsls	r3, r3, #30
 80054c4:	f53f aec5 	bmi.w	8005252 <HAL_RCC_OscConfig+0xea>
 80054c8:	f7fd f8f8 	bl	80026bc <HAL_GetTick>
 80054cc:	1bc0      	subs	r0, r0, r7
 80054ce:	42b0      	cmp	r0, r6
 80054d0:	d9f6      	bls.n	80054c0 <HAL_RCC_OscConfig+0x358>
 80054d2:	e732      	b.n	800533a <HAL_RCC_OscConfig+0x1d2>
 80054d4:	40023800 	.word	0x40023800
 80054d8:	42470060 	.word	0x42470060

080054dc <HAL_RCC_ClockConfig>:
HAL_RCC_ClockConfig():
 80054dc:	4a69      	ldr	r2, [pc, #420]	; (8005684 <HAL_RCC_ClockConfig+0x1a8>)
 80054de:	6813      	ldr	r3, [r2, #0]
 80054e0:	f003 030f 	and.w	r3, r3, #15
 80054e4:	428b      	cmp	r3, r1
 80054e6:	e92d 41f0 	stmdb	sp!, {r4, r5, r6, r7, r8, lr}
 80054ea:	460c      	mov	r4, r1
 80054ec:	4605      	mov	r5, r0
 80054ee:	d209      	bcs.n	8005504 <HAL_RCC_ClockConfig+0x28>
 80054f0:	b2cb      	uxtb	r3, r1
 80054f2:	7013      	strb	r3, [r2, #0]
 80054f4:	6813      	ldr	r3, [r2, #0]
 80054f6:	f003 030f 	and.w	r3, r3, #15
 80054fa:	428b      	cmp	r3, r1
 80054fc:	d055      	beq.n	80055aa <HAL_RCC_ClockConfig+0xce>
 80054fe:	2001      	movs	r0, #1
 8005500:	e8bd 81f0 	ldmia.w	sp!, {r4, r5, r6, r7, r8, pc}
 8005504:	6803      	ldr	r3, [r0, #0]
 8005506:	079a      	lsls	r2, r3, #30
 8005508:	d506      	bpl.n	8005518 <HAL_RCC_ClockConfig+0x3c>
 800550a:	485f      	ldr	r0, [pc, #380]	; (8005688 <HAL_RCC_ClockConfig+0x1ac>)
 800550c:	68aa      	ldr	r2, [r5, #8]
 800550e:	6881      	ldr	r1, [r0, #8]
 8005510:	f021 01f0 	bic.w	r1, r1, #240	; 0xf0
 8005514:	430a      	orrs	r2, r1
 8005516:	6082      	str	r2, [r0, #8]
 8005518:	07df      	lsls	r7, r3, #31
 800551a:	d524      	bpl.n	8005566 <HAL_RCC_ClockConfig+0x8a>
 800551c:	686b      	ldr	r3, [r5, #4]
 800551e:	4a5a      	ldr	r2, [pc, #360]	; (8005688 <HAL_RCC_ClockConfig+0x1ac>)
 8005520:	2b01      	cmp	r3, #1
 8005522:	6812      	ldr	r2, [r2, #0]
 8005524:	f000 8087 	beq.w	8005636 <HAL_RCC_ClockConfig+0x15a>
 8005528:	2b02      	cmp	r3, #2
 800552a:	f000 808b 	beq.w	8005644 <HAL_RCC_ClockConfig+0x168>
 800552e:	0791      	lsls	r1, r2, #30
 8005530:	d5e5      	bpl.n	80054fe <HAL_RCC_ClockConfig+0x22>
 8005532:	4e55      	ldr	r6, [pc, #340]	; (8005688 <HAL_RCC_ClockConfig+0x1ac>)
 8005534:	68b2      	ldr	r2, [r6, #8]
 8005536:	f022 0203 	bic.w	r2, r2, #3
 800553a:	4313      	orrs	r3, r2
 800553c:	60b3      	str	r3, [r6, #8]
 800553e:	f7fd f8bd 	bl	80026bc <HAL_GetTick>
 8005542:	686b      	ldr	r3, [r5, #4]
 8005544:	2b01      	cmp	r3, #1
 8005546:	4607      	mov	r7, r0
 8005548:	f241 3888 	movw	r8, #5000	; 0x1388
 800554c:	d062      	beq.n	8005614 <HAL_RCC_ClockConfig+0x138>
 800554e:	2b02      	cmp	r3, #2
 8005550:	d105      	bne.n	800555e <HAL_RCC_ClockConfig+0x82>
 8005552:	e06a      	b.n	800562a <HAL_RCC_ClockConfig+0x14e>
 8005554:	f7fd f8b2 	bl	80026bc <HAL_GetTick>
 8005558:	1bc0      	subs	r0, r0, r7
 800555a:	4540      	cmp	r0, r8
 800555c:	d86f      	bhi.n	800563e <HAL_RCC_ClockConfig+0x162>
 800555e:	68b3      	ldr	r3, [r6, #8]
 8005560:	f013 0f0c 	tst.w	r3, #12
 8005564:	d1f6      	bne.n	8005554 <HAL_RCC_ClockConfig+0x78>
 8005566:	4b47      	ldr	r3, [pc, #284]	; (8005684 <HAL_RCC_ClockConfig+0x1a8>)
 8005568:	b2e2      	uxtb	r2, r4
 800556a:	701a      	strb	r2, [r3, #0]
 800556c:	681b      	ldr	r3, [r3, #0]
 800556e:	f003 030f 	and.w	r3, r3, #15
 8005572:	42a3      	cmp	r3, r4
 8005574:	d1c3      	bne.n	80054fe <HAL_RCC_ClockConfig+0x22>
 8005576:	682b      	ldr	r3, [r5, #0]
 8005578:	075a      	lsls	r2, r3, #29
 800557a:	d506      	bpl.n	800558a <HAL_RCC_ClockConfig+0xae>
 800557c:	4842      	ldr	r0, [pc, #264]	; (8005688 <HAL_RCC_ClockConfig+0x1ac>)
 800557e:	68ea      	ldr	r2, [r5, #12]
 8005580:	6881      	ldr	r1, [r0, #8]
 8005582:	f421 51e0 	bic.w	r1, r1, #7168	; 0x1c00
 8005586:	430a      	orrs	r2, r1
 8005588:	6082      	str	r2, [r0, #8]
 800558a:	071b      	lsls	r3, r3, #28
 800558c:	d507      	bpl.n	800559e <HAL_RCC_ClockConfig+0xc2>
 800558e:	4a3e      	ldr	r2, [pc, #248]	; (8005688 <HAL_RCC_ClockConfig+0x1ac>)
 8005590:	6929      	ldr	r1, [r5, #16]
 8005592:	6893      	ldr	r3, [r2, #8]
 8005594:	f423 4360 	bic.w	r3, r3, #57344	; 0xe000
 8005598:	ea43 03c1 	orr.w	r3, r3, r1, lsl #3
 800559c:	6093      	str	r3, [r2, #8]
 800559e:	200f      	movs	r0, #15
 80055a0:	f7fd f856 	bl	8002650 <HAL_InitTick>
 80055a4:	2000      	movs	r0, #0
 80055a6:	e8bd 81f0 	ldmia.w	sp!, {r4, r5, r6, r7, r8, pc}
 80055aa:	6803      	ldr	r3, [r0, #0]
 80055ac:	079f      	lsls	r7, r3, #30
 80055ae:	d506      	bpl.n	80055be <HAL_RCC_ClockConfig+0xe2>
 80055b0:	4835      	ldr	r0, [pc, #212]	; (8005688 <HAL_RCC_ClockConfig+0x1ac>)
 80055b2:	68aa      	ldr	r2, [r5, #8]
 80055b4:	6881      	ldr	r1, [r0, #8]
 80055b6:	f021 01f0 	bic.w	r1, r1, #240	; 0xf0
 80055ba:	430a      	orrs	r2, r1
 80055bc:	6082      	str	r2, [r0, #8]
 80055be:	07de      	lsls	r6, r3, #31
 80055c0:	d5da      	bpl.n	8005578 <HAL_RCC_ClockConfig+0x9c>
 80055c2:	686b      	ldr	r3, [r5, #4]
 80055c4:	4a30      	ldr	r2, [pc, #192]	; (8005688 <HAL_RCC_ClockConfig+0x1ac>)
 80055c6:	2b01      	cmp	r3, #1
 80055c8:	6812      	ldr	r2, [r2, #0]
 80055ca:	d058      	beq.n	800567e <HAL_RCC_ClockConfig+0x1a2>
 80055cc:	2b02      	cmp	r3, #2
 80055ce:	d053      	beq.n	8005678 <HAL_RCC_ClockConfig+0x19c>
 80055d0:	0791      	lsls	r1, r2, #30
 80055d2:	d594      	bpl.n	80054fe <HAL_RCC_ClockConfig+0x22>
 80055d4:	4c2c      	ldr	r4, [pc, #176]	; (8005688 <HAL_RCC_ClockConfig+0x1ac>)
 80055d6:	68a2      	ldr	r2, [r4, #8]
 80055d8:	f022 0203 	bic.w	r2, r2, #3
 80055dc:	4313      	orrs	r3, r2
 80055de:	60a3      	str	r3, [r4, #8]
 80055e0:	f7fd f86c 	bl	80026bc <HAL_GetTick>
 80055e4:	686b      	ldr	r3, [r5, #4]
 80055e6:	2b01      	cmp	r3, #1
 80055e8:	4606      	mov	r6, r0
 80055ea:	f241 3788 	movw	r7, #5000	; 0x1388
 80055ee:	d032      	beq.n	8005656 <HAL_RCC_ClockConfig+0x17a>
 80055f0:	2b02      	cmp	r3, #2
 80055f2:	d105      	bne.n	8005600 <HAL_RCC_ClockConfig+0x124>
 80055f4:	e03a      	b.n	800566c <HAL_RCC_ClockConfig+0x190>
 80055f6:	f7fd f861 	bl	80026bc <HAL_GetTick>
 80055fa:	1b80      	subs	r0, r0, r6
 80055fc:	42b8      	cmp	r0, r7
 80055fe:	d81e      	bhi.n	800563e <HAL_RCC_ClockConfig+0x162>
 8005600:	68a3      	ldr	r3, [r4, #8]
 8005602:	f013 0f0c 	tst.w	r3, #12
 8005606:	d1f6      	bne.n	80055f6 <HAL_RCC_ClockConfig+0x11a>
 8005608:	e7b5      	b.n	8005576 <HAL_RCC_ClockConfig+0x9a>
 800560a:	f7fd f857 	bl	80026bc <HAL_GetTick>
 800560e:	1bc0      	subs	r0, r0, r7
 8005610:	4540      	cmp	r0, r8
 8005612:	d814      	bhi.n	800563e <HAL_RCC_ClockConfig+0x162>
 8005614:	68b3      	ldr	r3, [r6, #8]
 8005616:	f003 030c 	and.w	r3, r3, #12
 800561a:	2b04      	cmp	r3, #4
 800561c:	d1f5      	bne.n	800560a <HAL_RCC_ClockConfig+0x12e>
 800561e:	e7a2      	b.n	8005566 <HAL_RCC_ClockConfig+0x8a>
 8005620:	f7fd f84c 	bl	80026bc <HAL_GetTick>
 8005624:	1bc0      	subs	r0, r0, r7
 8005626:	4540      	cmp	r0, r8
 8005628:	d809      	bhi.n	800563e <HAL_RCC_ClockConfig+0x162>
 800562a:	68b3      	ldr	r3, [r6, #8]
 800562c:	f003 030c 	and.w	r3, r3, #12
 8005630:	2b08      	cmp	r3, #8
 8005632:	d1f5      	bne.n	8005620 <HAL_RCC_ClockConfig+0x144>
 8005634:	e797      	b.n	8005566 <HAL_RCC_ClockConfig+0x8a>
 8005636:	0396      	lsls	r6, r2, #14
 8005638:	f53f af7b 	bmi.w	8005532 <HAL_RCC_ClockConfig+0x56>
 800563c:	e75f      	b.n	80054fe <HAL_RCC_ClockConfig+0x22>
 800563e:	2003      	movs	r0, #3
 8005640:	e8bd 81f0 	ldmia.w	sp!, {r4, r5, r6, r7, r8, pc}
 8005644:	0190      	lsls	r0, r2, #6
 8005646:	f53f af74 	bmi.w	8005532 <HAL_RCC_ClockConfig+0x56>
 800564a:	e758      	b.n	80054fe <HAL_RCC_ClockConfig+0x22>
 800564c:	f7fd f836 	bl	80026bc <HAL_GetTick>
 8005650:	1b80      	subs	r0, r0, r6
 8005652:	42b8      	cmp	r0, r7
 8005654:	d8f3      	bhi.n	800563e <HAL_RCC_ClockConfig+0x162>
 8005656:	68a3      	ldr	r3, [r4, #8]
 8005658:	f003 030c 	and.w	r3, r3, #12
 800565c:	2b04      	cmp	r3, #4
 800565e:	d1f5      	bne.n	800564c <HAL_RCC_ClockConfig+0x170>
 8005660:	e789      	b.n	8005576 <HAL_RCC_ClockConfig+0x9a>
 8005662:	f7fd f82b 	bl	80026bc <HAL_GetTick>
 8005666:	1b80      	subs	r0, r0, r6
 8005668:	42b8      	cmp	r0, r7
 800566a:	d8e8      	bhi.n	800563e <HAL_RCC_ClockConfig+0x162>
 800566c:	68a3      	ldr	r3, [r4, #8]
 800566e:	f003 030c 	and.w	r3, r3, #12
 8005672:	2b08      	cmp	r3, #8
 8005674:	d1f5      	bne.n	8005662 <HAL_RCC_ClockConfig+0x186>
 8005676:	e77e      	b.n	8005576 <HAL_RCC_ClockConfig+0x9a>
 8005678:	0190      	lsls	r0, r2, #6
 800567a:	d4ab      	bmi.n	80055d4 <HAL_RCC_ClockConfig+0xf8>
 800567c:	e73f      	b.n	80054fe <HAL_RCC_ClockConfig+0x22>
 800567e:	0394      	lsls	r4, r2, #14
 8005680:	d4a8      	bmi.n	80055d4 <HAL_RCC_ClockConfig+0xf8>
 8005682:	e73c      	b.n	80054fe <HAL_RCC_ClockConfig+0x22>
 8005684:	40023c00 	.word	0x40023c00
 8005688:	40023800 	.word	0x40023800

0800568c <HAL_RCC_GetHCLKFreq>:
HAL_RCC_GetHCLKFreq():
 800568c:	492b      	ldr	r1, [pc, #172]	; (800573c <HAL_RCC_GetHCLKFreq+0xb0>)
 800568e:	688b      	ldr	r3, [r1, #8]
 8005690:	f003 030c 	and.w	r3, r3, #12
 8005694:	2b04      	cmp	r3, #4
 8005696:	b470      	push	{r4, r5, r6}
 8005698:	d04d      	beq.n	8005736 <HAL_RCC_GetHCLKFreq+0xaa>
 800569a:	2b08      	cmp	r3, #8
 800569c:	d013      	beq.n	80056c6 <HAL_RCC_GetHCLKFreq+0x3a>
 800569e:	4828      	ldr	r0, [pc, #160]	; (8005740 <HAL_RCC_GetHCLKFreq+0xb4>)
 80056a0:	4a26      	ldr	r2, [pc, #152]	; (800573c <HAL_RCC_GetHCLKFreq+0xb0>)
 80056a2:	23f0      	movs	r3, #240	; 0xf0
 80056a4:	6892      	ldr	r2, [r2, #8]
 80056a6:	fa93 f3a3 	rbit	r3, r3
 80056aa:	fab3 f383 	clz	r3, r3
 80056ae:	f002 02f0 	and.w	r2, r2, #240	; 0xf0
 80056b2:	b2db      	uxtb	r3, r3
 80056b4:	fa22 f303 	lsr.w	r3, r2, r3
 80056b8:	4922      	ldr	r1, [pc, #136]	; (8005744 <HAL_RCC_GetHCLKFreq+0xb8>)
 80056ba:	4a23      	ldr	r2, [pc, #140]	; (8005748 <HAL_RCC_GetHCLKFreq+0xbc>)
 80056bc:	5ccb      	ldrb	r3, [r1, r3]
 80056be:	40d8      	lsrs	r0, r3
 80056c0:	6010      	str	r0, [r2, #0]
 80056c2:	bc70      	pop	{r4, r5, r6}
 80056c4:	4770      	bx	lr
 80056c6:	684a      	ldr	r2, [r1, #4]
 80056c8:	684d      	ldr	r5, [r1, #4]
 80056ca:	f002 063f 	and.w	r6, r2, #63	; 0x3f
 80056ce:	f44f 0480 	mov.w	r4, #4194304	; 0x400000
 80056d2:	fa94 f4a4 	rbit	r4, r4
 80056d6:	fab4 f484 	clz	r4, r4
 80056da:	f405 0580 	and.w	r5, r5, #4194304	; 0x400000
 80056de:	b2e4      	uxtb	r4, r4
 80056e0:	fa35 f304 	lsrs.w	r3, r5, r4
 80056e4:	f647 72c0 	movw	r2, #32704	; 0x7fc0
 80056e8:	684b      	ldr	r3, [r1, #4]
 80056ea:	fa92 f2a2 	rbit	r2, r2
 80056ee:	fab2 f282 	clz	r2, r2
 80056f2:	f647 70c0 	movw	r0, #32704	; 0x7fc0
 80056f6:	b2d2      	uxtb	r2, r2
 80056f8:	ea00 0003 	and.w	r0, r0, r3
 80056fc:	fa20 f002 	lsr.w	r0, r0, r2
 8005700:	bf16      	itet	ne
 8005702:	4912      	ldrne	r1, [pc, #72]	; (800574c <HAL_RCC_GetHCLKFreq+0xc0>)
 8005704:	4a0e      	ldreq	r2, [pc, #56]	; (8005740 <HAL_RCC_GetHCLKFreq+0xb4>)
 8005706:	fbb1 f2f6 	udivne	r2, r1, r6
 800570a:	490c      	ldr	r1, [pc, #48]	; (800573c <HAL_RCC_GetHCLKFreq+0xb0>)
 800570c:	bf08      	it	eq
 800570e:	fbb2 f2f6 	udiveq	r2, r2, r6
 8005712:	fb02 f300 	mul.w	r3, r2, r0
 8005716:	f44f 3240 	mov.w	r2, #196608	; 0x30000
 800571a:	6848      	ldr	r0, [r1, #4]
 800571c:	fa92 f2a2 	rbit	r2, r2
 8005720:	fab2 f282 	clz	r2, r2
 8005724:	f400 3040 	and.w	r0, r0, #196608	; 0x30000
 8005728:	b2d2      	uxtb	r2, r2
 800572a:	40d0      	lsrs	r0, r2
 800572c:	3001      	adds	r0, #1
 800572e:	0040      	lsls	r0, r0, #1
 8005730:	fbb3 f0f0 	udiv	r0, r3, r0
 8005734:	e7b4      	b.n	80056a0 <HAL_RCC_GetHCLKFreq+0x14>
 8005736:	4805      	ldr	r0, [pc, #20]	; (800574c <HAL_RCC_GetHCLKFreq+0xc0>)
 8005738:	e7b2      	b.n	80056a0 <HAL_RCC_GetHCLKFreq+0x14>
 800573a:	bf00      	nop
 800573c:	40023800 	.word	0x40023800
 8005740:	00f42400 	.word	0x00f42400
 8005744:	0800edc8 	.word	0x0800edc8
 8005748:	20000068 	.word	0x20000068
 800574c:	007a1200 	.word	0x007a1200

08005750 <HAL_RCC_GetPCLK1Freq>:
HAL_RCC_GetPCLK1Freq():
 8005750:	4932      	ldr	r1, [pc, #200]	; (800581c <HAL_RCC_GetPCLK1Freq+0xcc>)
 8005752:	688b      	ldr	r3, [r1, #8]
 8005754:	f003 030c 	and.w	r3, r3, #12
 8005758:	2b04      	cmp	r3, #4
 800575a:	b470      	push	{r4, r5, r6}
 800575c:	d05b      	beq.n	8005816 <HAL_RCC_GetPCLK1Freq+0xc6>
 800575e:	2b08      	cmp	r3, #8
 8005760:	d021      	beq.n	80057a6 <HAL_RCC_GetPCLK1Freq+0x56>
 8005762:	482f      	ldr	r0, [pc, #188]	; (8005820 <HAL_RCC_GetPCLK1Freq+0xd0>)
 8005764:	4c2d      	ldr	r4, [pc, #180]	; (800581c <HAL_RCC_GetPCLK1Freq+0xcc>)
 8005766:	23f0      	movs	r3, #240	; 0xf0
 8005768:	68a2      	ldr	r2, [r4, #8]
 800576a:	fa93 f3a3 	rbit	r3, r3
 800576e:	fab3 f383 	clz	r3, r3
 8005772:	f002 02f0 	and.w	r2, r2, #240	; 0xf0
 8005776:	b2db      	uxtb	r3, r3
 8005778:	fa22 f303 	lsr.w	r3, r2, r3
 800577c:	4929      	ldr	r1, [pc, #164]	; (8005824 <HAL_RCC_GetPCLK1Freq+0xd4>)
 800577e:	4a2a      	ldr	r2, [pc, #168]	; (8005828 <HAL_RCC_GetPCLK1Freq+0xd8>)
 8005780:	5ccb      	ldrb	r3, [r1, r3]
 8005782:	40d8      	lsrs	r0, r3
 8005784:	6010      	str	r0, [r2, #0]
 8005786:	68a2      	ldr	r2, [r4, #8]
 8005788:	f44f 53e0 	mov.w	r3, #7168	; 0x1c00
 800578c:	fa93 f3a3 	rbit	r3, r3
 8005790:	fab3 f383 	clz	r3, r3
 8005794:	f402 52e0 	and.w	r2, r2, #7168	; 0x1c00
 8005798:	b2db      	uxtb	r3, r3
 800579a:	fa22 f303 	lsr.w	r3, r2, r3
 800579e:	bc70      	pop	{r4, r5, r6}
 80057a0:	5ccb      	ldrb	r3, [r1, r3]
 80057a2:	40d8      	lsrs	r0, r3
 80057a4:	4770      	bx	lr
 80057a6:	684a      	ldr	r2, [r1, #4]
 80057a8:	684d      	ldr	r5, [r1, #4]
 80057aa:	f002 063f 	and.w	r6, r2, #63	; 0x3f
 80057ae:	f44f 0480 	mov.w	r4, #4194304	; 0x400000
 80057b2:	fa94 f4a4 	rbit	r4, r4
 80057b6:	fab4 f484 	clz	r4, r4
 80057ba:	f405 0580 	and.w	r5, r5, #4194304	; 0x400000
 80057be:	b2e4      	uxtb	r4, r4
 80057c0:	fa35 f304 	lsrs.w	r3, r5, r4
 80057c4:	f647 72c0 	movw	r2, #32704	; 0x7fc0
 80057c8:	684b      	ldr	r3, [r1, #4]
 80057ca:	fa92 f2a2 	rbit	r2, r2
 80057ce:	fab2 f282 	clz	r2, r2
 80057d2:	f647 70c0 	movw	r0, #32704	; 0x7fc0
 80057d6:	b2d2      	uxtb	r2, r2
 80057d8:	ea00 0003 	and.w	r0, r0, r3
 80057dc:	fa20 f002 	lsr.w	r0, r0, r2
 80057e0:	bf16      	itet	ne
 80057e2:	4912      	ldrne	r1, [pc, #72]	; (800582c <HAL_RCC_GetPCLK1Freq+0xdc>)
 80057e4:	4a0e      	ldreq	r2, [pc, #56]	; (8005820 <HAL_RCC_GetPCLK1Freq+0xd0>)
 80057e6:	fbb1 f2f6 	udivne	r2, r1, r6
 80057ea:	490c      	ldr	r1, [pc, #48]	; (800581c <HAL_RCC_GetPCLK1Freq+0xcc>)
 80057ec:	bf08      	it	eq
 80057ee:	fbb2 f2f6 	udiveq	r2, r2, r6
 80057f2:	fb02 f300 	mul.w	r3, r2, r0
 80057f6:	f44f 3240 	mov.w	r2, #196608	; 0x30000
 80057fa:	6848      	ldr	r0, [r1, #4]
 80057fc:	fa92 f2a2 	rbit	r2, r2
 8005800:	fab2 f282 	clz	r2, r2
 8005804:	f400 3040 	and.w	r0, r0, #196608	; 0x30000
 8005808:	b2d2      	uxtb	r2, r2
 800580a:	40d0      	lsrs	r0, r2
 800580c:	3001      	adds	r0, #1
 800580e:	0040      	lsls	r0, r0, #1
 8005810:	fbb3 f0f0 	udiv	r0, r3, r0
 8005814:	e7a6      	b.n	8005764 <HAL_RCC_GetPCLK1Freq+0x14>
 8005816:	4805      	ldr	r0, [pc, #20]	; (800582c <HAL_RCC_GetPCLK1Freq+0xdc>)
 8005818:	e7a4      	b.n	8005764 <HAL_RCC_GetPCLK1Freq+0x14>
 800581a:	bf00      	nop
 800581c:	40023800 	.word	0x40023800
 8005820:	00f42400 	.word	0x00f42400
 8005824:	0800edc8 	.word	0x0800edc8
 8005828:	20000068 	.word	0x20000068
 800582c:	007a1200 	.word	0x007a1200

08005830 <HAL_RCCEx_PeriphCLKConfig>:
HAL_RCCEx_PeriphCLKConfig():
 8005830:	b5f8      	push	{r3, r4, r5, r6, r7, lr}
 8005832:	4604      	mov	r4, r0
 8005834:	6800      	ldr	r0, [r0, #0]
 8005836:	07c5      	lsls	r5, r0, #31
 8005838:	d441      	bmi.n	80058be <HAL_RCCEx_PeriphCLKConfig+0x8e>
 800583a:	f010 0002 	ands.w	r0, r0, #2
 800583e:	d100      	bne.n	8005842 <HAL_RCCEx_PeriphCLKConfig+0x12>
 8005840:	bdf8      	pop	{r3, r4, r5, r6, r7, pc}
 8005842:	4a49      	ldr	r2, [pc, #292]	; (8005968 <HAL_RCCEx_PeriphCLKConfig+0x138>)
 8005844:	4d49      	ldr	r5, [pc, #292]	; (800596c <HAL_RCCEx_PeriphCLKConfig+0x13c>)
 8005846:	6c13      	ldr	r3, [r2, #64]	; 0x40
 8005848:	f043 5380 	orr.w	r3, r3, #268435456	; 0x10000000
 800584c:	6413      	str	r3, [r2, #64]	; 0x40
 800584e:	682b      	ldr	r3, [r5, #0]
 8005850:	f443 7380 	orr.w	r3, r3, #256	; 0x100
 8005854:	602b      	str	r3, [r5, #0]
 8005856:	f7fc ff31 	bl	80026bc <HAL_GetTick>
 800585a:	4606      	mov	r6, r0
 800585c:	e004      	b.n	8005868 <HAL_RCCEx_PeriphCLKConfig+0x38>
 800585e:	f7fc ff2d 	bl	80026bc <HAL_GetTick>
 8005862:	1b80      	subs	r0, r0, r6
 8005864:	2864      	cmp	r0, #100	; 0x64
 8005866:	d828      	bhi.n	80058ba <HAL_RCCEx_PeriphCLKConfig+0x8a>
 8005868:	682b      	ldr	r3, [r5, #0]
 800586a:	05da      	lsls	r2, r3, #23
 800586c:	d5f7      	bpl.n	800585e <HAL_RCCEx_PeriphCLKConfig+0x2e>
 800586e:	493e      	ldr	r1, [pc, #248]	; (8005968 <HAL_RCCEx_PeriphCLKConfig+0x138>)
 8005870:	68e3      	ldr	r3, [r4, #12]
 8005872:	6f0a      	ldr	r2, [r1, #112]	; 0x70
 8005874:	405a      	eors	r2, r3
 8005876:	f412 7f40 	tst.w	r2, #768	; 0x300
 800587a:	d009      	beq.n	8005890 <HAL_RCCEx_PeriphCLKConfig+0x60>
 800587c:	6f0b      	ldr	r3, [r1, #112]	; 0x70
 800587e:	4a3c      	ldr	r2, [pc, #240]	; (8005970 <HAL_RCCEx_PeriphCLKConfig+0x140>)
 8005880:	f423 7340 	bic.w	r3, r3, #768	; 0x300
 8005884:	2501      	movs	r5, #1
 8005886:	2000      	movs	r0, #0
 8005888:	6015      	str	r5, [r2, #0]
 800588a:	6010      	str	r0, [r2, #0]
 800588c:	670b      	str	r3, [r1, #112]	; 0x70
 800588e:	68e3      	ldr	r3, [r4, #12]
 8005890:	f5b3 7f80 	cmp.w	r3, #256	; 0x100
 8005894:	d056      	beq.n	8005944 <HAL_RCCEx_PeriphCLKConfig+0x114>
 8005896:	f403 7240 	and.w	r2, r3, #768	; 0x300
 800589a:	f5b2 7f40 	cmp.w	r2, #768	; 0x300
 800589e:	d046      	beq.n	800592e <HAL_RCCEx_PeriphCLKConfig+0xfe>
 80058a0:	4931      	ldr	r1, [pc, #196]	; (8005968 <HAL_RCCEx_PeriphCLKConfig+0x138>)
 80058a2:	688a      	ldr	r2, [r1, #8]
 80058a4:	f422 12f8 	bic.w	r2, r2, #2031616	; 0x1f0000
 80058a8:	608a      	str	r2, [r1, #8]
 80058aa:	492f      	ldr	r1, [pc, #188]	; (8005968 <HAL_RCCEx_PeriphCLKConfig+0x138>)
 80058ac:	6f0a      	ldr	r2, [r1, #112]	; 0x70
 80058ae:	f3c3 030b 	ubfx	r3, r3, #0, #12
 80058b2:	4313      	orrs	r3, r2
 80058b4:	670b      	str	r3, [r1, #112]	; 0x70
 80058b6:	2000      	movs	r0, #0
 80058b8:	bdf8      	pop	{r3, r4, r5, r6, r7, pc}
 80058ba:	2003      	movs	r0, #3
 80058bc:	bdf8      	pop	{r3, r4, r5, r6, r7, pc}
 80058be:	4b2d      	ldr	r3, [pc, #180]	; (8005974 <HAL_RCCEx_PeriphCLKConfig+0x144>)
 80058c0:	4d29      	ldr	r5, [pc, #164]	; (8005968 <HAL_RCCEx_PeriphCLKConfig+0x138>)
 80058c2:	2200      	movs	r2, #0
 80058c4:	601a      	str	r2, [r3, #0]
 80058c6:	f7fc fef9 	bl	80026bc <HAL_GetTick>
 80058ca:	4606      	mov	r6, r0
 80058cc:	e004      	b.n	80058d8 <HAL_RCCEx_PeriphCLKConfig+0xa8>
 80058ce:	f7fc fef5 	bl	80026bc <HAL_GetTick>
 80058d2:	1b80      	subs	r0, r0, r6
 80058d4:	2864      	cmp	r0, #100	; 0x64
 80058d6:	d8f0      	bhi.n	80058ba <HAL_RCCEx_PeriphCLKConfig+0x8a>
 80058d8:	682b      	ldr	r3, [r5, #0]
 80058da:	4a23      	ldr	r2, [pc, #140]	; (8005968 <HAL_RCCEx_PeriphCLKConfig+0x138>)
 80058dc:	0118      	lsls	r0, r3, #4
 80058de:	d4f6      	bmi.n	80058ce <HAL_RCCEx_PeriphCLKConfig+0x9e>
 80058e0:	f647 73c0 	movw	r3, #32704	; 0x7fc0
 80058e4:	fa93 f3a3 	rbit	r3, r3
 80058e8:	fab3 f383 	clz	r3, r3
 80058ec:	f04f 41e0 	mov.w	r1, #1879048192	; 0x70000000
 80058f0:	fa91 f1a1 	rbit	r1, r1
 80058f4:	fab1 f181 	clz	r1, r1
 80058f8:	68a5      	ldr	r5, [r4, #8]
 80058fa:	6860      	ldr	r0, [r4, #4]
 80058fc:	4e1d      	ldr	r6, [pc, #116]	; (8005974 <HAL_RCCEx_PeriphCLKConfig+0x144>)
 80058fe:	b2c9      	uxtb	r1, r1
 8005900:	b2db      	uxtb	r3, r3
 8005902:	408d      	lsls	r5, r1
 8005904:	4098      	lsls	r0, r3
 8005906:	4328      	orrs	r0, r5
 8005908:	2301      	movs	r3, #1
 800590a:	f8c2 0084 	str.w	r0, [r2, #132]	; 0x84
 800590e:	6033      	str	r3, [r6, #0]
 8005910:	4615      	mov	r5, r2
 8005912:	f7fc fed3 	bl	80026bc <HAL_GetTick>
 8005916:	4606      	mov	r6, r0
 8005918:	e004      	b.n	8005924 <HAL_RCCEx_PeriphCLKConfig+0xf4>
 800591a:	f7fc fecf 	bl	80026bc <HAL_GetTick>
 800591e:	1b80      	subs	r0, r0, r6
 8005920:	2864      	cmp	r0, #100	; 0x64
 8005922:	d8ca      	bhi.n	80058ba <HAL_RCCEx_PeriphCLKConfig+0x8a>
 8005924:	682b      	ldr	r3, [r5, #0]
 8005926:	0119      	lsls	r1, r3, #4
 8005928:	d5f7      	bpl.n	800591a <HAL_RCCEx_PeriphCLKConfig+0xea>
 800592a:	6820      	ldr	r0, [r4, #0]
 800592c:	e785      	b.n	800583a <HAL_RCCEx_PeriphCLKConfig+0xa>
 800592e:	480e      	ldr	r0, [pc, #56]	; (8005968 <HAL_RCCEx_PeriphCLKConfig+0x138>)
 8005930:	6882      	ldr	r2, [r0, #8]
 8005932:	f023 4170 	bic.w	r1, r3, #4026531840	; 0xf0000000
 8005936:	f422 12f8 	bic.w	r2, r2, #2031616	; 0x1f0000
 800593a:	f421 7140 	bic.w	r1, r1, #768	; 0x300
 800593e:	430a      	orrs	r2, r1
 8005940:	6082      	str	r2, [r0, #8]
 8005942:	e7b2      	b.n	80058aa <HAL_RCCEx_PeriphCLKConfig+0x7a>
 8005944:	f7fc feba 	bl	80026bc <HAL_GetTick>
 8005948:	4d07      	ldr	r5, [pc, #28]	; (8005968 <HAL_RCCEx_PeriphCLKConfig+0x138>)
 800594a:	4607      	mov	r7, r0
 800594c:	f241 3688 	movw	r6, #5000	; 0x1388
 8005950:	e004      	b.n	800595c <HAL_RCCEx_PeriphCLKConfig+0x12c>
 8005952:	f7fc feb3 	bl	80026bc <HAL_GetTick>
 8005956:	1bc0      	subs	r0, r0, r7
 8005958:	42b0      	cmp	r0, r6
 800595a:	d8ae      	bhi.n	80058ba <HAL_RCCEx_PeriphCLKConfig+0x8a>
 800595c:	6f2b      	ldr	r3, [r5, #112]	; 0x70
 800595e:	079b      	lsls	r3, r3, #30
 8005960:	d5f7      	bpl.n	8005952 <HAL_RCCEx_PeriphCLKConfig+0x122>
 8005962:	68e3      	ldr	r3, [r4, #12]
 8005964:	e797      	b.n	8005896 <HAL_RCCEx_PeriphCLKConfig+0x66>
 8005966:	bf00      	nop
 8005968:	40023800 	.word	0x40023800
 800596c:	40007000 	.word	0x40007000
 8005970:	42470e40 	.word	0x42470e40
 8005974:	42470068 	.word	0x42470068

08005978 <HAL_RCCEx_GetPeriphCLKConfig>:
HAL_RCCEx_GetPeriphCLKConfig():
 8005978:	2303      	movs	r3, #3
 800597a:	4914      	ldr	r1, [pc, #80]	; (80059cc <HAL_RCCEx_GetPeriphCLKConfig+0x54>)
 800597c:	6003      	str	r3, [r0, #0]
 800597e:	b410      	push	{r4}
 8005980:	f647 73c0 	movw	r3, #32704	; 0x7fc0
 8005984:	f8d1 4084 	ldr.w	r4, [r1, #132]	; 0x84
 8005988:	fa93 f2a3 	rbit	r2, r3
 800598c:	fab2 f282 	clz	r2, r2
 8005990:	4023      	ands	r3, r4
 8005992:	b2d2      	uxtb	r2, r2
 8005994:	40d3      	lsrs	r3, r2
 8005996:	6043      	str	r3, [r0, #4]
 8005998:	f8d1 2084 	ldr.w	r2, [r1, #132]	; 0x84
 800599c:	f04f 43e0 	mov.w	r3, #1879048192	; 0x70000000
 80059a0:	fa93 f3a3 	rbit	r3, r3
 80059a4:	fab3 f383 	clz	r3, r3
 80059a8:	f002 42e0 	and.w	r2, r2, #1879048192	; 0x70000000
 80059ac:	b2db      	uxtb	r3, r3
 80059ae:	fa22 f303 	lsr.w	r3, r2, r3
 80059b2:	6083      	str	r3, [r0, #8]
 80059b4:	688a      	ldr	r2, [r1, #8]
 80059b6:	6f0b      	ldr	r3, [r1, #112]	; 0x70
 80059b8:	f85d 4b04 	ldr.w	r4, [sp], #4
 80059bc:	f402 12f8 	and.w	r2, r2, #2031616	; 0x1f0000
 80059c0:	f403 7340 	and.w	r3, r3, #768	; 0x300
 80059c4:	4313      	orrs	r3, r2
 80059c6:	60c3      	str	r3, [r0, #12]
 80059c8:	4770      	bx	lr
 80059ca:	bf00      	nop
 80059cc:	40023800 	.word	0x40023800

080059d0 <HAL_RNG_Init>:
HAL_RNG_Init():
 80059d0:	b188      	cbz	r0, 80059f6 <HAL_RNG_Init+0x26>
 80059d2:	7943      	ldrb	r3, [r0, #5]
 80059d4:	b510      	push	{r4, lr}
 80059d6:	4604      	mov	r4, r0
 80059d8:	b153      	cbz	r3, 80059f0 <HAL_RNG_Init+0x20>
 80059da:	6822      	ldr	r2, [r4, #0]
 80059dc:	2302      	movs	r3, #2
 80059de:	7163      	strb	r3, [r4, #5]
 80059e0:	6813      	ldr	r3, [r2, #0]
 80059e2:	2101      	movs	r1, #1
 80059e4:	f043 0304 	orr.w	r3, r3, #4
 80059e8:	6013      	str	r3, [r2, #0]
 80059ea:	2000      	movs	r0, #0
 80059ec:	7161      	strb	r1, [r4, #5]
 80059ee:	bd10      	pop	{r4, pc}
 80059f0:	f005 feb8 	bl	800b764 <HAL_RNG_MspInit>
 80059f4:	e7f1      	b.n	80059da <HAL_RNG_Init+0xa>
 80059f6:	2001      	movs	r0, #1
 80059f8:	4770      	bx	lr
 80059fa:	bf00      	nop

080059fc <HAL_RNG_GetRandomNumber>:
HAL_RNG_GetRandomNumber():
 80059fc:	b538      	push	{r3, r4, r5, lr}
 80059fe:	7903      	ldrb	r3, [r0, #4]
 8005a00:	2b01      	cmp	r3, #1
 8005a02:	d101      	bne.n	8005a08 <HAL_RNG_GetRandomNumber+0xc>
 8005a04:	2002      	movs	r0, #2
 8005a06:	bd38      	pop	{r3, r4, r5, pc}
 8005a08:	2301      	movs	r3, #1
 8005a0a:	7103      	strb	r3, [r0, #4]
 8005a0c:	4604      	mov	r4, r0
 8005a0e:	f7fc fe55 	bl	80026bc <HAL_GetTick>
 8005a12:	4605      	mov	r5, r0
 8005a14:	e005      	b.n	8005a22 <HAL_RNG_GetRandomNumber+0x26>
 8005a16:	f7fc fe51 	bl	80026bc <HAL_GetTick>
 8005a1a:	1b40      	subs	r0, r0, r5
 8005a1c:	f5b0 7f7a 	cmp.w	r0, #1000	; 0x3e8
 8005a20:	d807      	bhi.n	8005a32 <HAL_RNG_GetRandomNumber+0x36>
 8005a22:	6823      	ldr	r3, [r4, #0]
 8005a24:	685a      	ldr	r2, [r3, #4]
 8005a26:	07d2      	lsls	r2, r2, #31
 8005a28:	d5f5      	bpl.n	8005a16 <HAL_RNG_GetRandomNumber+0x1a>
 8005a2a:	6898      	ldr	r0, [r3, #8]
 8005a2c:	2300      	movs	r3, #0
 8005a2e:	7123      	strb	r3, [r4, #4]
 8005a30:	bd38      	pop	{r3, r4, r5, pc}
 8005a32:	2003      	movs	r0, #3
 8005a34:	bd38      	pop	{r3, r4, r5, pc}
 8005a36:	bf00      	nop

08005a38 <USB_CoreInit>:
USB_CoreInit():
 8005a38:	b084      	sub	sp, #16
 8005a3a:	b430      	push	{r4, r5}
 8005a3c:	9d08      	ldr	r5, [sp, #32]
 8005a3e:	ac03      	add	r4, sp, #12
 8005a40:	2d01      	cmp	r5, #1
 8005a42:	e884 000e 	stmia.w	r4, {r1, r2, r3}
 8005a46:	d027      	beq.n	8005a98 <USB_CoreInit+0x60>
 8005a48:	68c2      	ldr	r2, [r0, #12]
 8005a4a:	4b28      	ldr	r3, [pc, #160]	; (8005aec <USB_CoreInit+0xb4>)
 8005a4c:	f042 0240 	orr.w	r2, r2, #64	; 0x40
 8005a50:	60c2      	str	r2, [r0, #12]
 8005a52:	e001      	b.n	8005a58 <USB_CoreInit+0x20>
 8005a54:	3b01      	subs	r3, #1
 8005a56:	d00d      	beq.n	8005a74 <USB_CoreInit+0x3c>
 8005a58:	6902      	ldr	r2, [r0, #16]
 8005a5a:	2a00      	cmp	r2, #0
 8005a5c:	dafa      	bge.n	8005a54 <USB_CoreInit+0x1c>
 8005a5e:	6902      	ldr	r2, [r0, #16]
 8005a60:	4b22      	ldr	r3, [pc, #136]	; (8005aec <USB_CoreInit+0xb4>)
 8005a62:	f042 0201 	orr.w	r2, r2, #1
 8005a66:	6102      	str	r2, [r0, #16]
 8005a68:	e001      	b.n	8005a6e <USB_CoreInit+0x36>
 8005a6a:	3b01      	subs	r3, #1
 8005a6c:	d002      	beq.n	8005a74 <USB_CoreInit+0x3c>
 8005a6e:	6902      	ldr	r2, [r0, #16]
 8005a70:	07d2      	lsls	r2, r2, #31
 8005a72:	d4fa      	bmi.n	8005a6a <USB_CoreInit+0x32>
 8005a74:	f44f 3380 	mov.w	r3, #65536	; 0x10000
 8005a78:	6383      	str	r3, [r0, #56]	; 0x38
 8005a7a:	9b06      	ldr	r3, [sp, #24]
 8005a7c:	2b01      	cmp	r3, #1
 8005a7e:	d107      	bne.n	8005a90 <USB_CoreInit+0x58>
 8005a80:	6883      	ldr	r3, [r0, #8]
 8005a82:	f043 030c 	orr.w	r3, r3, #12
 8005a86:	6083      	str	r3, [r0, #8]
 8005a88:	6883      	ldr	r3, [r0, #8]
 8005a8a:	f043 0320 	orr.w	r3, r3, #32
 8005a8e:	6083      	str	r3, [r0, #8]
 8005a90:	bc30      	pop	{r4, r5}
 8005a92:	2000      	movs	r0, #0
 8005a94:	b004      	add	sp, #16
 8005a96:	4770      	bx	lr
 8005a98:	6b83      	ldr	r3, [r0, #56]	; 0x38
 8005a9a:	9a0d      	ldr	r2, [sp, #52]	; 0x34
 8005a9c:	f423 3380 	bic.w	r3, r3, #65536	; 0x10000
 8005aa0:	6383      	str	r3, [r0, #56]	; 0x38
 8005aa2:	68c3      	ldr	r3, [r0, #12]
 8005aa4:	f423 0384 	bic.w	r3, r3, #4325376	; 0x420000
 8005aa8:	f023 0340 	bic.w	r3, r3, #64	; 0x40
 8005aac:	60c3      	str	r3, [r0, #12]
 8005aae:	68c3      	ldr	r3, [r0, #12]
 8005ab0:	2a01      	cmp	r2, #1
 8005ab2:	f423 1340 	bic.w	r3, r3, #3145728	; 0x300000
 8005ab6:	60c3      	str	r3, [r0, #12]
 8005ab8:	d012      	beq.n	8005ae0 <USB_CoreInit+0xa8>
 8005aba:	4b0c      	ldr	r3, [pc, #48]	; (8005aec <USB_CoreInit+0xb4>)
 8005abc:	e001      	b.n	8005ac2 <USB_CoreInit+0x8a>
 8005abe:	3b01      	subs	r3, #1
 8005ac0:	d0db      	beq.n	8005a7a <USB_CoreInit+0x42>
 8005ac2:	6902      	ldr	r2, [r0, #16]
 8005ac4:	2a00      	cmp	r2, #0
 8005ac6:	dafa      	bge.n	8005abe <USB_CoreInit+0x86>
 8005ac8:	6902      	ldr	r2, [r0, #16]
 8005aca:	4b08      	ldr	r3, [pc, #32]	; (8005aec <USB_CoreInit+0xb4>)
 8005acc:	f042 0201 	orr.w	r2, r2, #1
 8005ad0:	6102      	str	r2, [r0, #16]
 8005ad2:	e001      	b.n	8005ad8 <USB_CoreInit+0xa0>
 8005ad4:	3b01      	subs	r3, #1
 8005ad6:	d0d0      	beq.n	8005a7a <USB_CoreInit+0x42>
 8005ad8:	6902      	ldr	r2, [r0, #16]
 8005ada:	07d1      	lsls	r1, r2, #31
 8005adc:	d4fa      	bmi.n	8005ad4 <USB_CoreInit+0x9c>
 8005ade:	e7cc      	b.n	8005a7a <USB_CoreInit+0x42>
 8005ae0:	68c3      	ldr	r3, [r0, #12]
 8005ae2:	f443 1380 	orr.w	r3, r3, #1048576	; 0x100000
 8005ae6:	60c3      	str	r3, [r0, #12]
 8005ae8:	e7e7      	b.n	8005aba <USB_CoreInit+0x82>
 8005aea:	bf00      	nop
 8005aec:	00030d40 	.word	0x00030d40

08005af0 <USB_EnableGlobalInt>:
USB_EnableGlobalInt():
 8005af0:	4602      	mov	r2, r0
 8005af2:	2000      	movs	r0, #0
 8005af4:	6893      	ldr	r3, [r2, #8]
 8005af6:	f043 0301 	orr.w	r3, r3, #1
 8005afa:	6093      	str	r3, [r2, #8]
 8005afc:	4770      	bx	lr
 8005afe:	bf00      	nop

08005b00 <USB_DisableGlobalInt>:
USB_DisableGlobalInt():
 8005b00:	4602      	mov	r2, r0
 8005b02:	2000      	movs	r0, #0
 8005b04:	6893      	ldr	r3, [r2, #8]
 8005b06:	f023 0301 	bic.w	r3, r3, #1
 8005b0a:	6093      	str	r3, [r2, #8]
 8005b0c:	4770      	bx	lr
 8005b0e:	bf00      	nop

08005b10 <USB_SetCurrentMode>:
USB_SetCurrentMode():
 8005b10:	b508      	push	{r3, lr}
 8005b12:	68c3      	ldr	r3, [r0, #12]
 8005b14:	2901      	cmp	r1, #1
 8005b16:	f023 43c0 	bic.w	r3, r3, #1610612736	; 0x60000000
 8005b1a:	60c3      	str	r3, [r0, #12]
 8005b1c:	d009      	beq.n	8005b32 <USB_SetCurrentMode+0x22>
 8005b1e:	b919      	cbnz	r1, 8005b28 <USB_SetCurrentMode+0x18>
 8005b20:	68c3      	ldr	r3, [r0, #12]
 8005b22:	f043 4380 	orr.w	r3, r3, #1073741824	; 0x40000000
 8005b26:	60c3      	str	r3, [r0, #12]
 8005b28:	2032      	movs	r0, #50	; 0x32
 8005b2a:	f7fc fdcd 	bl	80026c8 <HAL_Delay>
 8005b2e:	2000      	movs	r0, #0
 8005b30:	bd08      	pop	{r3, pc}
 8005b32:	68c3      	ldr	r3, [r0, #12]
 8005b34:	f043 5300 	orr.w	r3, r3, #536870912	; 0x20000000
 8005b38:	60c3      	str	r3, [r0, #12]
 8005b3a:	2032      	movs	r0, #50	; 0x32
 8005b3c:	f7fc fdc4 	bl	80026c8 <HAL_Delay>
 8005b40:	2000      	movs	r0, #0
 8005b42:	bd08      	pop	{r3, pc}

08005b44 <USB_FlushTxFifo>:
USB_FlushTxFifo():
 8005b44:	0149      	lsls	r1, r1, #5
 8005b46:	f041 0120 	orr.w	r1, r1, #32
 8005b4a:	6101      	str	r1, [r0, #16]
 8005b4c:	4a05      	ldr	r2, [pc, #20]	; (8005b64 <USB_FlushTxFifo+0x20>)
 8005b4e:	e001      	b.n	8005b54 <USB_FlushTxFifo+0x10>
 8005b50:	3a01      	subs	r2, #1
 8005b52:	d005      	beq.n	8005b60 <USB_FlushTxFifo+0x1c>
 8005b54:	6903      	ldr	r3, [r0, #16]
 8005b56:	f013 0320 	ands.w	r3, r3, #32
 8005b5a:	d1f9      	bne.n	8005b50 <USB_FlushTxFifo+0xc>
 8005b5c:	4618      	mov	r0, r3
 8005b5e:	4770      	bx	lr
 8005b60:	2003      	movs	r0, #3
 8005b62:	4770      	bx	lr
 8005b64:	00030d40 	.word	0x00030d40

08005b68 <USB_FlushRxFifo>:
USB_FlushRxFifo():
 8005b68:	2310      	movs	r3, #16
 8005b6a:	6103      	str	r3, [r0, #16]
 8005b6c:	4a05      	ldr	r2, [pc, #20]	; (8005b84 <USB_FlushRxFifo+0x1c>)
 8005b6e:	e001      	b.n	8005b74 <USB_FlushRxFifo+0xc>
 8005b70:	3a01      	subs	r2, #1
 8005b72:	d005      	beq.n	8005b80 <USB_FlushRxFifo+0x18>
 8005b74:	6903      	ldr	r3, [r0, #16]
 8005b76:	f013 0310 	ands.w	r3, r3, #16
 8005b7a:	d1f9      	bne.n	8005b70 <USB_FlushRxFifo+0x8>
 8005b7c:	4618      	mov	r0, r3
 8005b7e:	4770      	bx	lr
 8005b80:	2003      	movs	r0, #3
 8005b82:	4770      	bx	lr
 8005b84:	00030d40 	.word	0x00030d40

08005b88 <USB_WritePacket>:
USB_WritePacket():
 8005b88:	b430      	push	{r4, r5}
 8005b8a:	f89d 4008 	ldrb.w	r4, [sp, #8]
 8005b8e:	b964      	cbnz	r4, 8005baa <USB_WritePacket+0x22>
 8005b90:	3303      	adds	r3, #3
 8005b92:	109b      	asrs	r3, r3, #2
 8005b94:	d009      	beq.n	8005baa <USB_WritePacket+0x22>
 8005b96:	f500 5080 	add.w	r0, r0, #4096	; 0x1000
 8005b9a:	eb00 3202 	add.w	r2, r0, r2, lsl #12
 8005b9e:	3401      	adds	r4, #1
 8005ba0:	f851 5b04 	ldr.w	r5, [r1], #4
 8005ba4:	6015      	str	r5, [r2, #0]
 8005ba6:	42a3      	cmp	r3, r4
 8005ba8:	d1f9      	bne.n	8005b9e <USB_WritePacket+0x16>
 8005baa:	2000      	movs	r0, #0
 8005bac:	bc30      	pop	{r4, r5}
 8005bae:	4770      	bx	lr

08005bb0 <USB_ReadPacket>:
USB_ReadPacket():
 8005bb0:	3203      	adds	r2, #3
 8005bb2:	1092      	asrs	r2, r2, #2
 8005bb4:	d00f      	beq.n	8005bd6 <USB_ReadPacket+0x26>
 8005bb6:	b470      	push	{r4, r5, r6}
 8005bb8:	2300      	movs	r3, #0
 8005bba:	f500 5680 	add.w	r6, r0, #4096	; 0x1000
 8005bbe:	460c      	mov	r4, r1
 8005bc0:	3301      	adds	r3, #1
 8005bc2:	6835      	ldr	r5, [r6, #0]
 8005bc4:	f844 5b04 	str.w	r5, [r4], #4
 8005bc8:	429a      	cmp	r2, r3
 8005bca:	d1f9      	bne.n	8005bc0 <USB_ReadPacket+0x10>
 8005bcc:	eb01 0182 	add.w	r1, r1, r2, lsl #2
 8005bd0:	4608      	mov	r0, r1
 8005bd2:	bc70      	pop	{r4, r5, r6}
 8005bd4:	4770      	bx	lr
 8005bd6:	4608      	mov	r0, r1
 8005bd8:	4770      	bx	lr
 8005bda:	bf00      	nop

08005bdc <USB_ReadInterrupts>:
USB_ReadInterrupts():
 8005bdc:	6943      	ldr	r3, [r0, #20]
 8005bde:	6980      	ldr	r0, [r0, #24]
 8005be0:	4018      	ands	r0, r3
 8005be2:	4770      	bx	lr

08005be4 <USB_GetMode>:
USB_GetMode():
 8005be4:	6940      	ldr	r0, [r0, #20]
 8005be6:	f000 0001 	and.w	r0, r0, #1
 8005bea:	4770      	bx	lr

08005bec <USB_HostInit>:
USB_HostInit():
 8005bec:	b084      	sub	sp, #16
 8005bee:	b530      	push	{r4, r5, lr}
 8005bf0:	4604      	mov	r4, r0
 8005bf2:	2000      	movs	r0, #0
 8005bf4:	f8c4 0e00 	str.w	r0, [r4, #3584]	; 0xe00
 8005bf8:	6ba0      	ldr	r0, [r4, #56]	; 0x38
 8005bfa:	f420 2080 	bic.w	r0, r0, #262144	; 0x40000
 8005bfe:	63a0      	str	r0, [r4, #56]	; 0x38
 8005c00:	b083      	sub	sp, #12
 8005c02:	6ba0      	ldr	r0, [r4, #56]	; 0x38
 8005c04:	ad07      	add	r5, sp, #28
 8005c06:	e885 000e 	stmia.w	r5, {r1, r2, r3}
 8005c0a:	f420 2000 	bic.w	r0, r0, #524288	; 0x80000
 8005c0e:	63a0      	str	r0, [r4, #56]	; 0x38
 8005c10:	6ba3      	ldr	r3, [r4, #56]	; 0x38
 8005c12:	9a09      	ldr	r2, [sp, #36]	; 0x24
 8005c14:	9908      	ldr	r1, [sp, #32]
 8005c16:	f443 1300 	orr.w	r3, r3, #2097152	; 0x200000
 8005c1a:	63a3      	str	r3, [r4, #56]	; 0x38
 8005c1c:	2a03      	cmp	r2, #3
 8005c1e:	f8d4 3400 	ldr.w	r3, [r4, #1024]	; 0x400
 8005c22:	d057      	beq.n	8005cd4 <USB_HostInit+0xe8>
 8005c24:	f023 0304 	bic.w	r3, r3, #4
 8005c28:	f8c4 3400 	str.w	r3, [r4, #1024]	; 0x400
 8005c2c:	f44f 7308 	mov.w	r3, #544	; 0x220
 8005c30:	6123      	str	r3, [r4, #16]
 8005c32:	4b30      	ldr	r3, [pc, #192]	; (8005cf4 <USB_HostInit+0x108>)
 8005c34:	e001      	b.n	8005c3a <USB_HostInit+0x4e>
 8005c36:	3b01      	subs	r3, #1
 8005c38:	d002      	beq.n	8005c40 <USB_HostInit+0x54>
 8005c3a:	6922      	ldr	r2, [r4, #16]
 8005c3c:	0690      	lsls	r0, r2, #26
 8005c3e:	d4fa      	bmi.n	8005c36 <USB_HostInit+0x4a>
 8005c40:	2310      	movs	r3, #16
 8005c42:	6123      	str	r3, [r4, #16]
 8005c44:	4b2b      	ldr	r3, [pc, #172]	; (8005cf4 <USB_HostInit+0x108>)
 8005c46:	e001      	b.n	8005c4c <USB_HostInit+0x60>
 8005c48:	3b01      	subs	r3, #1
 8005c4a:	d002      	beq.n	8005c52 <USB_HostInit+0x66>
 8005c4c:	6922      	ldr	r2, [r4, #16]
 8005c4e:	06d2      	lsls	r2, r2, #27
 8005c50:	d4fa      	bmi.n	8005c48 <USB_HostInit+0x5c>
 8005c52:	b161      	cbz	r1, 8005c6e <USB_HostInit+0x82>
 8005c54:	2200      	movs	r2, #0
 8005c56:	4615      	mov	r5, r2
 8005c58:	f504 63a0 	add.w	r3, r4, #1280	; 0x500
 8005c5c:	f04f 30ff 	mov.w	r0, #4294967295
 8005c60:	3201      	adds	r2, #1
 8005c62:	428a      	cmp	r2, r1
 8005c64:	6098      	str	r0, [r3, #8]
 8005c66:	60dd      	str	r5, [r3, #12]
 8005c68:	f103 0320 	add.w	r3, r3, #32
 8005c6c:	d1f8      	bne.n	8005c60 <USB_HostInit+0x74>
 8005c6e:	f8d4 3440 	ldr.w	r3, [r4, #1088]	; 0x440
 8005c72:	9301      	str	r3, [sp, #4]
 8005c74:	9b01      	ldr	r3, [sp, #4]
 8005c76:	f023 032e 	bic.w	r3, r3, #46	; 0x2e
 8005c7a:	9301      	str	r3, [sp, #4]
 8005c7c:	9b01      	ldr	r3, [sp, #4]
 8005c7e:	04db      	lsls	r3, r3, #19
 8005c80:	d404      	bmi.n	8005c8c <USB_HostInit+0xa0>
 8005c82:	9b01      	ldr	r3, [sp, #4]
 8005c84:	f443 5380 	orr.w	r3, r3, #4096	; 0x1000
 8005c88:	f8c4 3440 	str.w	r3, [r4, #1088]	; 0x440
 8005c8c:	20c8      	movs	r0, #200	; 0xc8
 8005c8e:	9b01      	ldr	r3, [sp, #4]
 8005c90:	f7fc fd1a 	bl	80026c8 <HAL_Delay>
 8005c94:	2200      	movs	r2, #0
 8005c96:	f04f 33ff 	mov.w	r3, #4294967295
 8005c9a:	f1b4 4fa0 	cmp.w	r4, #1342177280	; 0x50000000
 8005c9e:	61a2      	str	r2, [r4, #24]
 8005ca0:	6163      	str	r3, [r4, #20]
 8005ca2:	d01f      	beq.n	8005ce4 <USB_HostInit+0xf8>
 8005ca4:	f44f 7100 	mov.w	r1, #512	; 0x200
 8005ca8:	4a13      	ldr	r2, [pc, #76]	; (8005cf8 <USB_HostInit+0x10c>)
 8005caa:	4b14      	ldr	r3, [pc, #80]	; (8005cfc <USB_HostInit+0x110>)
 8005cac:	6261      	str	r1, [r4, #36]	; 0x24
 8005cae:	62a2      	str	r2, [r4, #40]	; 0x28
 8005cb0:	f8c4 3100 	str.w	r3, [r4, #256]	; 0x100
 8005cb4:	9b0a      	ldr	r3, [sp, #40]	; 0x28
 8005cb6:	b91b      	cbnz	r3, 8005cc0 <USB_HostInit+0xd4>
 8005cb8:	69a3      	ldr	r3, [r4, #24]
 8005cba:	f043 0310 	orr.w	r3, r3, #16
 8005cbe:	61a3      	str	r3, [r4, #24]
 8005cc0:	69a2      	ldr	r2, [r4, #24]
 8005cc2:	4b0f      	ldr	r3, [pc, #60]	; (8005d00 <USB_HostInit+0x114>)
 8005cc4:	2000      	movs	r0, #0
 8005cc6:	4313      	orrs	r3, r2
 8005cc8:	61a3      	str	r3, [r4, #24]
 8005cca:	b003      	add	sp, #12
 8005ccc:	e8bd 4030 	ldmia.w	sp!, {r4, r5, lr}
 8005cd0:	b004      	add	sp, #16
 8005cd2:	4770      	bx	lr
 8005cd4:	f1b4 4fa0 	cmp.w	r4, #1342177280	; 0x50000000
 8005cd8:	d0a4      	beq.n	8005c24 <USB_HostInit+0x38>
 8005cda:	f043 0304 	orr.w	r3, r3, #4
 8005cde:	f8c4 3400 	str.w	r3, [r4, #1024]	; 0x400
 8005ce2:	e7a3      	b.n	8005c2c <USB_HostInit+0x40>
 8005ce4:	2180      	movs	r1, #128	; 0x80
 8005ce6:	4a07      	ldr	r2, [pc, #28]	; (8005d04 <USB_HostInit+0x118>)
 8005ce8:	4b07      	ldr	r3, [pc, #28]	; (8005d08 <USB_HostInit+0x11c>)
 8005cea:	6261      	str	r1, [r4, #36]	; 0x24
 8005cec:	62a2      	str	r2, [r4, #40]	; 0x28
 8005cee:	f8c4 3100 	str.w	r3, [r4, #256]	; 0x100
 8005cf2:	e7df      	b.n	8005cb4 <USB_HostInit+0xc8>
 8005cf4:	00030d40 	.word	0x00030d40
 8005cf8:	01000200 	.word	0x01000200
 8005cfc:	00e00300 	.word	0x00e00300
 8005d00:	a3200008 	.word	0xa3200008
 8005d04:	00600080 	.word	0x00600080
 8005d08:	004000e0 	.word	0x004000e0

08005d0c <USB_InitFSLSPClkSel>:
USB_InitFSLSPClkSel():
 8005d0c:	f8d0 3400 	ldr.w	r3, [r0, #1024]	; 0x400
 8005d10:	f023 0303 	bic.w	r3, r3, #3
 8005d14:	f8c0 3400 	str.w	r3, [r0, #1024]	; 0x400
 8005d18:	f8d0 3400 	ldr.w	r3, [r0, #1024]	; 0x400
 8005d1c:	f001 0203 	and.w	r2, r1, #3
 8005d20:	4313      	orrs	r3, r2
 8005d22:	2901      	cmp	r1, #1
 8005d24:	f8c0 3400 	str.w	r3, [r0, #1024]	; 0x400
 8005d28:	f500 6080 	add.w	r0, r0, #1024	; 0x400
 8005d2c:	d006      	beq.n	8005d3c <USB_InitFSLSPClkSel+0x30>
 8005d2e:	2902      	cmp	r1, #2
 8005d30:	bf04      	itt	eq
 8005d32:	f241 7370 	movweq	r3, #6000	; 0x1770
 8005d36:	6043      	streq	r3, [r0, #4]
 8005d38:	2000      	movs	r0, #0
 8005d3a:	4770      	bx	lr
 8005d3c:	f64b 3380 	movw	r3, #48000	; 0xbb80
 8005d40:	6043      	str	r3, [r0, #4]
 8005d42:	2000      	movs	r0, #0
 8005d44:	4770      	bx	lr
 8005d46:	bf00      	nop

08005d48 <USB_ResetPort>:
USB_ResetPort():
 8005d48:	b510      	push	{r4, lr}
 8005d4a:	4604      	mov	r4, r0
 8005d4c:	b082      	sub	sp, #8
 8005d4e:	f8d4 3440 	ldr.w	r3, [r4, #1088]	; 0x440
 8005d52:	9301      	str	r3, [sp, #4]
 8005d54:	9b01      	ldr	r3, [sp, #4]
 8005d56:	f023 032e 	bic.w	r3, r3, #46	; 0x2e
 8005d5a:	9301      	str	r3, [sp, #4]
 8005d5c:	9b01      	ldr	r3, [sp, #4]
 8005d5e:	f443 7380 	orr.w	r3, r3, #256	; 0x100
 8005d62:	f8c4 3440 	str.w	r3, [r4, #1088]	; 0x440
 8005d66:	200a      	movs	r0, #10
 8005d68:	f7fc fcae 	bl	80026c8 <HAL_Delay>
 8005d6c:	9b01      	ldr	r3, [sp, #4]
 8005d6e:	2000      	movs	r0, #0
 8005d70:	f423 7380 	bic.w	r3, r3, #256	; 0x100
 8005d74:	f8c4 3440 	str.w	r3, [r4, #1088]	; 0x440
 8005d78:	b002      	add	sp, #8
 8005d7a:	bd10      	pop	{r4, pc}

08005d7c <USB_DriveVbus>:
USB_DriveVbus():
 8005d7c:	b082      	sub	sp, #8
 8005d7e:	f8d0 3440 	ldr.w	r3, [r0, #1088]	; 0x440
 8005d82:	9301      	str	r3, [sp, #4]
 8005d84:	9b01      	ldr	r3, [sp, #4]
 8005d86:	f023 032e 	bic.w	r3, r3, #46	; 0x2e
 8005d8a:	9301      	str	r3, [sp, #4]
 8005d8c:	9b01      	ldr	r3, [sp, #4]
 8005d8e:	f413 5f80 	tst.w	r3, #4096	; 0x1000
 8005d92:	9b01      	ldr	r3, [sp, #4]
 8005d94:	d101      	bne.n	8005d9a <USB_DriveVbus+0x1e>
 8005d96:	2901      	cmp	r1, #1
 8005d98:	d00a      	beq.n	8005db0 <USB_DriveVbus+0x34>
 8005d9a:	04db      	lsls	r3, r3, #19
 8005d9c:	d505      	bpl.n	8005daa <USB_DriveVbus+0x2e>
 8005d9e:	b921      	cbnz	r1, 8005daa <USB_DriveVbus+0x2e>
 8005da0:	9b01      	ldr	r3, [sp, #4]
 8005da2:	f423 5380 	bic.w	r3, r3, #4096	; 0x1000
 8005da6:	f8c0 3440 	str.w	r3, [r0, #1088]	; 0x440
 8005daa:	2000      	movs	r0, #0
 8005dac:	b002      	add	sp, #8
 8005dae:	4770      	bx	lr
 8005db0:	f443 5380 	orr.w	r3, r3, #4096	; 0x1000
 8005db4:	f8c0 3440 	str.w	r3, [r0, #1088]	; 0x440
 8005db8:	9b01      	ldr	r3, [sp, #4]
 8005dba:	2000      	movs	r0, #0
 8005dbc:	b002      	add	sp, #8
 8005dbe:	4770      	bx	lr

08005dc0 <USB_GetHostSpeed>:
USB_GetHostSpeed():
 8005dc0:	b082      	sub	sp, #8
 8005dc2:	f8d0 3440 	ldr.w	r3, [r0, #1088]	; 0x440
 8005dc6:	9301      	str	r3, [sp, #4]
 8005dc8:	9801      	ldr	r0, [sp, #4]
 8005dca:	f3c0 4041 	ubfx	r0, r0, #17, #2
 8005dce:	b002      	add	sp, #8
 8005dd0:	4770      	bx	lr
 8005dd2:	bf00      	nop

08005dd4 <USB_GetCurrentFrame>:
USB_GetCurrentFrame():
 8005dd4:	f500 6080 	add.w	r0, r0, #1024	; 0x400
 8005dd8:	6880      	ldr	r0, [r0, #8]
 8005dda:	b280      	uxth	r0, r0
 8005ddc:	4770      	bx	lr
 8005dde:	bf00      	nop

08005de0 <USB_HC_Init>:
USB_HC_Init():
 8005de0:	e92d 43f0 	stmdb	sp!, {r4, r5, r6, r7, r8, r9, lr}
 8005de4:	f500 64a0 	add.w	r4, r0, #1280	; 0x500
 8005de8:	eb04 1441 	add.w	r4, r4, r1, lsl #5
 8005dec:	f89d 6020 	ldrb.w	r6, [sp, #32]
 8005df0:	f89d 701c 	ldrb.w	r7, [sp, #28]
 8005df4:	f8bd 5024 	ldrh.w	r5, [sp, #36]	; 0x24
 8005df8:	f04f 3eff 	mov.w	lr, #4294967295
 8005dfc:	f8c4 e008 	str.w	lr, [r4, #8]
 8005e00:	2e03      	cmp	r6, #3
 8005e02:	d868      	bhi.n	8005ed6 <USB_HC_Init+0xf6>
 8005e04:	e8df f006 	tbb	[pc, r6]
 8005e08:	02544454 	.word	0x02544454
 8005e0c:	fa4f fc82 	sxtb.w	ip, r2
 8005e10:	f240 6e9d 	movw	lr, #1693	; 0x69d
 8005e14:	f1bc 0f00 	cmp.w	ip, #0
 8005e18:	f8c4 e00c 	str.w	lr, [r4, #12]
 8005e1c:	db5e      	blt.n	8005edc <USB_HC_Init+0xfc>
 8005e1e:	f8d0 8418 	ldr.w	r8, [r0, #1048]	; 0x418
 8005e22:	059b      	lsls	r3, r3, #22
 8005e24:	f04f 0901 	mov.w	r9, #1
 8005e28:	f003 53fe 	and.w	r3, r3, #532676608	; 0x1fc00000
 8005e2c:	02d2      	lsls	r2, r2, #11
 8005e2e:	f3c5 050a 	ubfx	r5, r5, #0, #11
 8005e32:	fa09 f901 	lsl.w	r9, r9, r1
 8005e36:	f402 41f0 	and.w	r1, r2, #30720	; 0x7800
 8005e3a:	ea43 0205 	orr.w	r2, r3, r5
 8005e3e:	04b3      	lsls	r3, r6, #18
 8005e40:	ea49 0508 	orr.w	r5, r9, r8
 8005e44:	f403 2340 	and.w	r3, r3, #786432	; 0xc0000
 8005e48:	f1bc 0f00 	cmp.w	ip, #0
 8005e4c:	f8c0 5418 	str.w	r5, [r0, #1048]	; 0x418
 8005e50:	ea42 0201 	orr.w	r2, r2, r1
 8005e54:	ea42 0203 	orr.w	r2, r2, r3
 8005e58:	6981      	ldr	r1, [r0, #24]
 8005e5a:	bfb4      	ite	lt
 8005e5c:	f44f 4300 	movlt.w	r3, #32768	; 0x8000
 8005e60:	2300      	movge	r3, #0
 8005e62:	2f02      	cmp	r7, #2
 8005e64:	ea42 0203 	orr.w	r2, r2, r3
 8005e68:	bf0c      	ite	eq
 8005e6a:	f44f 3300 	moveq.w	r3, #131072	; 0x20000
 8005e6e:	2300      	movne	r3, #0
 8005e70:	431a      	orrs	r2, r3
 8005e72:	2e03      	cmp	r6, #3
 8005e74:	f041 7300 	orr.w	r3, r1, #33554432	; 0x2000000
 8005e78:	6183      	str	r3, [r0, #24]
 8005e7a:	f500 6e80 	add.w	lr, r0, #1024	; 0x400
 8005e7e:	6022      	str	r2, [r4, #0]
 8005e80:	d103      	bne.n	8005e8a <USB_HC_Init+0xaa>
 8005e82:	6823      	ldr	r3, [r4, #0]
 8005e84:	f043 5300 	orr.w	r3, r3, #536870912	; 0x20000000
 8005e88:	6023      	str	r3, [r4, #0]
 8005e8a:	2000      	movs	r0, #0
 8005e8c:	e8bd 83f0 	ldmia.w	sp!, {r4, r5, r6, r7, r8, r9, pc}
 8005e90:	fa4f fc82 	sxtb.w	ip, r2
 8005e94:	f240 2e25 	movw	lr, #549	; 0x225
 8005e98:	f1bc 0f00 	cmp.w	ip, #0
 8005e9c:	f8c4 e00c 	str.w	lr, [r4, #12]
 8005ea0:	dabd      	bge.n	8005e1e <USB_HC_Init+0x3e>
 8005ea2:	f8d4 e00c 	ldr.w	lr, [r4, #12]
 8005ea6:	f44e 7ec0 	orr.w	lr, lr, #384	; 0x180
 8005eaa:	f8c4 e00c 	str.w	lr, [r4, #12]
 8005eae:	e7b6      	b.n	8005e1e <USB_HC_Init+0x3e>
 8005eb0:	fa4f fc82 	sxtb.w	ip, r2
 8005eb4:	f240 4e9d 	movw	lr, #1181	; 0x49d
 8005eb8:	f1bc 0f00 	cmp.w	ip, #0
 8005ebc:	f8c4 e00c 	str.w	lr, [r4, #12]
 8005ec0:	db0c      	blt.n	8005edc <USB_HC_Init+0xfc>
 8005ec2:	f1b0 4fa0 	cmp.w	r0, #1342177280	; 0x50000000
 8005ec6:	d0aa      	beq.n	8005e1e <USB_HC_Init+0x3e>
 8005ec8:	f8d4 e00c 	ldr.w	lr, [r4, #12]
 8005ecc:	f04e 0e60 	orr.w	lr, lr, #96	; 0x60
 8005ed0:	f8c4 e00c 	str.w	lr, [r4, #12]
 8005ed4:	e7a3      	b.n	8005e1e <USB_HC_Init+0x3e>
 8005ed6:	fa4f fc82 	sxtb.w	ip, r2
 8005eda:	e7a0      	b.n	8005e1e <USB_HC_Init+0x3e>
 8005edc:	f8d4 e00c 	ldr.w	lr, [r4, #12]
 8005ee0:	f44e 7e80 	orr.w	lr, lr, #256	; 0x100
 8005ee4:	f8c4 e00c 	str.w	lr, [r4, #12]
 8005ee8:	e799      	b.n	8005e1e <USB_HC_Init+0x3e>
$t():
 8005eea:	bf00      	nop

08005eec <USB_HC_ReadInterrupt>:
USB_HC_ReadInterrupt():
 8005eec:	b480      	push	{r7}
 8005eee:	b083      	sub	sp, #12
 8005ef0:	af00      	add	r7, sp, #0
 8005ef2:	6078      	str	r0, [r7, #4]
 8005ef4:	687b      	ldr	r3, [r7, #4]
 8005ef6:	f503 6380 	add.w	r3, r3, #1024	; 0x400
 8005efa:	695b      	ldr	r3, [r3, #20]
 8005efc:	b29b      	uxth	r3, r3
 8005efe:	4618      	mov	r0, r3
 8005f00:	370c      	adds	r7, #12
 8005f02:	46bd      	mov	sp, r7
 8005f04:	f85d 7b04 	ldr.w	r7, [sp], #4
 8005f08:	4770      	bx	lr
 8005f0a:	bf00      	nop

08005f0c <USB_HC_Halt>:
USB_HC_Halt():
 8005f0c:	b480      	push	{r7}
 8005f0e:	b085      	sub	sp, #20
 8005f10:	af00      	add	r7, sp, #0
 8005f12:	6078      	str	r0, [r7, #4]
 8005f14:	460b      	mov	r3, r1
 8005f16:	70fb      	strb	r3, [r7, #3]
 8005f18:	2300      	movs	r3, #0
 8005f1a:	60fb      	str	r3, [r7, #12]
 8005f1c:	78fb      	ldrb	r3, [r7, #3]
 8005f1e:	015a      	lsls	r2, r3, #5
 8005f20:	687b      	ldr	r3, [r7, #4]
 8005f22:	4413      	add	r3, r2
 8005f24:	f503 63a0 	add.w	r3, r3, #1280	; 0x500
 8005f28:	681b      	ldr	r3, [r3, #0]
 8005f2a:	78fb      	ldrb	r3, [r7, #3]
 8005f2c:	015a      	lsls	r2, r3, #5
 8005f2e:	687b      	ldr	r3, [r7, #4]
 8005f30:	4413      	add	r3, r2
 8005f32:	f503 63a0 	add.w	r3, r3, #1280	; 0x500
 8005f36:	681b      	ldr	r3, [r3, #0]
 8005f38:	f403 2300 	and.w	r3, r3, #524288	; 0x80000
 8005f3c:	2b00      	cmp	r3, #0
 8005f3e:	d06e      	beq.n	800601e <USB_HC_Halt+0x112>
 8005f40:	78fb      	ldrb	r3, [r7, #3]
 8005f42:	015a      	lsls	r2, r3, #5
 8005f44:	687b      	ldr	r3, [r7, #4]
 8005f46:	4413      	add	r3, r2
 8005f48:	f503 63a0 	add.w	r3, r3, #1280	; 0x500
 8005f4c:	4619      	mov	r1, r3
 8005f4e:	78fb      	ldrb	r3, [r7, #3]
 8005f50:	015a      	lsls	r2, r3, #5
 8005f52:	687b      	ldr	r3, [r7, #4]
 8005f54:	4413      	add	r3, r2
 8005f56:	f503 63a0 	add.w	r3, r3, #1280	; 0x500
 8005f5a:	681b      	ldr	r3, [r3, #0]
 8005f5c:	f043 4380 	orr.w	r3, r3, #1073741824	; 0x40000000
 8005f60:	600b      	str	r3, [r1, #0]
 8005f62:	687b      	ldr	r3, [r7, #4]
 8005f64:	6adb      	ldr	r3, [r3, #44]	; 0x2c
 8005f66:	b29b      	uxth	r3, r3
 8005f68:	2b00      	cmp	r3, #0
 8005f6a:	d145      	bne.n	8005ff8 <USB_HC_Halt+0xec>
 8005f6c:	78fb      	ldrb	r3, [r7, #3]
 8005f6e:	015a      	lsls	r2, r3, #5
 8005f70:	687b      	ldr	r3, [r7, #4]
 8005f72:	4413      	add	r3, r2
 8005f74:	f503 63a0 	add.w	r3, r3, #1280	; 0x500
 8005f78:	4619      	mov	r1, r3
 8005f7a:	78fb      	ldrb	r3, [r7, #3]
 8005f7c:	015a      	lsls	r2, r3, #5
 8005f7e:	687b      	ldr	r3, [r7, #4]
 8005f80:	4413      	add	r3, r2
 8005f82:	f503 63a0 	add.w	r3, r3, #1280	; 0x500
 8005f86:	681b      	ldr	r3, [r3, #0]
 8005f88:	f023 4300 	bic.w	r3, r3, #2147483648	; 0x80000000
 8005f8c:	600b      	str	r3, [r1, #0]
 8005f8e:	78fb      	ldrb	r3, [r7, #3]
 8005f90:	015a      	lsls	r2, r3, #5
 8005f92:	687b      	ldr	r3, [r7, #4]
 8005f94:	4413      	add	r3, r2
 8005f96:	f503 63a0 	add.w	r3, r3, #1280	; 0x500
 8005f9a:	4619      	mov	r1, r3
 8005f9c:	78fb      	ldrb	r3, [r7, #3]
 8005f9e:	015a      	lsls	r2, r3, #5
 8005fa0:	687b      	ldr	r3, [r7, #4]
 8005fa2:	4413      	add	r3, r2
 8005fa4:	f503 63a0 	add.w	r3, r3, #1280	; 0x500
 8005fa8:	681b      	ldr	r3, [r3, #0]
 8005faa:	f043 4300 	orr.w	r3, r3, #2147483648	; 0x80000000
 8005fae:	600b      	str	r3, [r1, #0]
 8005fb0:	78fb      	ldrb	r3, [r7, #3]
 8005fb2:	015a      	lsls	r2, r3, #5
 8005fb4:	687b      	ldr	r3, [r7, #4]
 8005fb6:	4413      	add	r3, r2
 8005fb8:	f503 63a0 	add.w	r3, r3, #1280	; 0x500
 8005fbc:	4619      	mov	r1, r3
 8005fbe:	78fb      	ldrb	r3, [r7, #3]
 8005fc0:	015a      	lsls	r2, r3, #5
 8005fc2:	687b      	ldr	r3, [r7, #4]
 8005fc4:	4413      	add	r3, r2
 8005fc6:	f503 63a0 	add.w	r3, r3, #1280	; 0x500
 8005fca:	681b      	ldr	r3, [r3, #0]
 8005fcc:	f423 4300 	bic.w	r3, r3, #32768	; 0x8000
 8005fd0:	600b      	str	r3, [r1, #0]
 8005fd2:	68fb      	ldr	r3, [r7, #12]
 8005fd4:	3301      	adds	r3, #1
 8005fd6:	60fb      	str	r3, [r7, #12]
 8005fd8:	68fb      	ldr	r3, [r7, #12]
 8005fda:	f5b3 7f7a 	cmp.w	r3, #1000	; 0x3e8
 8005fde:	d901      	bls.n	8005fe4 <USB_HC_Halt+0xd8>
 8005fe0:	bf00      	nop
 8005fe2:	e01b      	b.n	800601c <USB_HC_Halt+0x110>
 8005fe4:	78fb      	ldrb	r3, [r7, #3]
 8005fe6:	015a      	lsls	r2, r3, #5
 8005fe8:	687b      	ldr	r3, [r7, #4]
 8005fea:	4413      	add	r3, r2
 8005fec:	f503 63a0 	add.w	r3, r3, #1280	; 0x500
 8005ff0:	681b      	ldr	r3, [r3, #0]
 8005ff2:	2b00      	cmp	r3, #0
 8005ff4:	dbed      	blt.n	8005fd2 <USB_HC_Halt+0xc6>
 8005ff6:	e011      	b.n	800601c <USB_HC_Halt+0x110>
 8005ff8:	78fb      	ldrb	r3, [r7, #3]
 8005ffa:	015a      	lsls	r2, r3, #5
 8005ffc:	687b      	ldr	r3, [r7, #4]
 8005ffe:	4413      	add	r3, r2
 8006000:	f503 63a0 	add.w	r3, r3, #1280	; 0x500
 8006004:	4619      	mov	r1, r3
 8006006:	78fb      	ldrb	r3, [r7, #3]
 8006008:	015a      	lsls	r2, r3, #5
 800600a:	687b      	ldr	r3, [r7, #4]
 800600c:	4413      	add	r3, r2
 800600e:	f503 63a0 	add.w	r3, r3, #1280	; 0x500
 8006012:	681b      	ldr	r3, [r3, #0]
 8006014:	f043 4300 	orr.w	r3, r3, #2147483648	; 0x80000000
 8006018:	600b      	str	r3, [r1, #0]
 800601a:	e06f      	b.n	80060fc <USB_HC_Halt+0x1f0>
 800601c:	e06e      	b.n	80060fc <USB_HC_Halt+0x1f0>
 800601e:	78fb      	ldrb	r3, [r7, #3]
 8006020:	015a      	lsls	r2, r3, #5
 8006022:	687b      	ldr	r3, [r7, #4]
 8006024:	4413      	add	r3, r2
 8006026:	f503 63a0 	add.w	r3, r3, #1280	; 0x500
 800602a:	4619      	mov	r1, r3
 800602c:	78fb      	ldrb	r3, [r7, #3]
 800602e:	015a      	lsls	r2, r3, #5
 8006030:	687b      	ldr	r3, [r7, #4]
 8006032:	4413      	add	r3, r2
 8006034:	f503 63a0 	add.w	r3, r3, #1280	; 0x500
 8006038:	681b      	ldr	r3, [r3, #0]
 800603a:	f043 4380 	orr.w	r3, r3, #1073741824	; 0x40000000
 800603e:	600b      	str	r3, [r1, #0]
 8006040:	687b      	ldr	r3, [r7, #4]
 8006042:	f503 6380 	add.w	r3, r3, #1024	; 0x400
 8006046:	691b      	ldr	r3, [r3, #16]
 8006048:	b29b      	uxth	r3, r3
 800604a:	2b00      	cmp	r3, #0
 800604c:	d145      	bne.n	80060da <USB_HC_Halt+0x1ce>
 800604e:	78fb      	ldrb	r3, [r7, #3]
 8006050:	015a      	lsls	r2, r3, #5
 8006052:	687b      	ldr	r3, [r7, #4]
 8006054:	4413      	add	r3, r2
 8006056:	f503 63a0 	add.w	r3, r3, #1280	; 0x500
 800605a:	4619      	mov	r1, r3
 800605c:	78fb      	ldrb	r3, [r7, #3]
 800605e:	015a      	lsls	r2, r3, #5
 8006060:	687b      	ldr	r3, [r7, #4]
 8006062:	4413      	add	r3, r2
 8006064:	f503 63a0 	add.w	r3, r3, #1280	; 0x500
 8006068:	681b      	ldr	r3, [r3, #0]
 800606a:	f023 4300 	bic.w	r3, r3, #2147483648	; 0x80000000
 800606e:	600b      	str	r3, [r1, #0]
 8006070:	78fb      	ldrb	r3, [r7, #3]
 8006072:	015a      	lsls	r2, r3, #5
 8006074:	687b      	ldr	r3, [r7, #4]
 8006076:	4413      	add	r3, r2
 8006078:	f503 63a0 	add.w	r3, r3, #1280	; 0x500
 800607c:	4619      	mov	r1, r3
 800607e:	78fb      	ldrb	r3, [r7, #3]
 8006080:	015a      	lsls	r2, r3, #5
 8006082:	687b      	ldr	r3, [r7, #4]
 8006084:	4413      	add	r3, r2
 8006086:	f503 63a0 	add.w	r3, r3, #1280	; 0x500
 800608a:	681b      	ldr	r3, [r3, #0]
 800608c:	f043 4300 	orr.w	r3, r3, #2147483648	; 0x80000000
 8006090:	600b      	str	r3, [r1, #0]
 8006092:	78fb      	ldrb	r3, [r7, #3]
 8006094:	015a      	lsls	r2, r3, #5
 8006096:	687b      	ldr	r3, [r7, #4]
 8006098:	4413      	add	r3, r2
 800609a:	f503 63a0 	add.w	r3, r3, #1280	; 0x500
 800609e:	4619      	mov	r1, r3
 80060a0:	78fb      	ldrb	r3, [r7, #3]
 80060a2:	015a      	lsls	r2, r3, #5
 80060a4:	687b      	ldr	r3, [r7, #4]
 80060a6:	4413      	add	r3, r2
 80060a8:	f503 63a0 	add.w	r3, r3, #1280	; 0x500
 80060ac:	681b      	ldr	r3, [r3, #0]
 80060ae:	f423 4300 	bic.w	r3, r3, #32768	; 0x8000
 80060b2:	600b      	str	r3, [r1, #0]
 80060b4:	68fb      	ldr	r3, [r7, #12]
 80060b6:	3301      	adds	r3, #1
 80060b8:	60fb      	str	r3, [r7, #12]
 80060ba:	68fb      	ldr	r3, [r7, #12]
 80060bc:	f5b3 7f7a 	cmp.w	r3, #1000	; 0x3e8
 80060c0:	d901      	bls.n	80060c6 <USB_HC_Halt+0x1ba>
 80060c2:	bf00      	nop
 80060c4:	e01a      	b.n	80060fc <USB_HC_Halt+0x1f0>
 80060c6:	78fb      	ldrb	r3, [r7, #3]
 80060c8:	015a      	lsls	r2, r3, #5
 80060ca:	687b      	ldr	r3, [r7, #4]
 80060cc:	4413      	add	r3, r2
 80060ce:	f503 63a0 	add.w	r3, r3, #1280	; 0x500
 80060d2:	681b      	ldr	r3, [r3, #0]
 80060d4:	2b00      	cmp	r3, #0
 80060d6:	dbed      	blt.n	80060b4 <USB_HC_Halt+0x1a8>
 80060d8:	e010      	b.n	80060fc <USB_HC_Halt+0x1f0>
 80060da:	78fb      	ldrb	r3, [r7, #3]
 80060dc:	015a      	lsls	r2, r3, #5
 80060de:	687b      	ldr	r3, [r7, #4]
 80060e0:	4413      	add	r3, r2
 80060e2:	f503 63a0 	add.w	r3, r3, #1280	; 0x500
 80060e6:	4619      	mov	r1, r3
 80060e8:	78fb      	ldrb	r3, [r7, #3]
 80060ea:	015a      	lsls	r2, r3, #5
 80060ec:	687b      	ldr	r3, [r7, #4]
 80060ee:	4413      	add	r3, r2
 80060f0:	f503 63a0 	add.w	r3, r3, #1280	; 0x500
 80060f4:	681b      	ldr	r3, [r3, #0]
 80060f6:	f043 4300 	orr.w	r3, r3, #2147483648	; 0x80000000
 80060fa:	600b      	str	r3, [r1, #0]
 80060fc:	2300      	movs	r3, #0
 80060fe:	4618      	mov	r0, r3
 8006100:	3714      	adds	r7, #20
 8006102:	46bd      	mov	sp, r7
 8006104:	f85d 7b04 	ldr.w	r7, [sp], #4
 8006108:	4770      	bx	lr
 800610a:	bf00      	nop

0800610c <USB_DoPing>:
USB_DoPing():
 800610c:	b480      	push	{r7}
 800610e:	b085      	sub	sp, #20
 8006110:	af00      	add	r7, sp, #0
 8006112:	6078      	str	r0, [r7, #4]
 8006114:	460b      	mov	r3, r1
 8006116:	70fb      	strb	r3, [r7, #3]
 8006118:	2301      	movs	r3, #1
 800611a:	73fb      	strb	r3, [r7, #15]
 800611c:	78fb      	ldrb	r3, [r7, #3]
 800611e:	015a      	lsls	r2, r3, #5
 8006120:	687b      	ldr	r3, [r7, #4]
 8006122:	4413      	add	r3, r2
 8006124:	f503 63a0 	add.w	r3, r3, #1280	; 0x500
 8006128:	461a      	mov	r2, r3
 800612a:	7bfb      	ldrb	r3, [r7, #15]
 800612c:	04db      	lsls	r3, r3, #19
 800612e:	4619      	mov	r1, r3
 8006130:	4b16      	ldr	r3, [pc, #88]	; (800618c <USB_DoPing+0x80>)
 8006132:	400b      	ands	r3, r1
 8006134:	f043 4300 	orr.w	r3, r3, #2147483648	; 0x80000000
 8006138:	6113      	str	r3, [r2, #16]
 800613a:	78fb      	ldrb	r3, [r7, #3]
 800613c:	015a      	lsls	r2, r3, #5
 800613e:	687b      	ldr	r3, [r7, #4]
 8006140:	4413      	add	r3, r2
 8006142:	f503 63a0 	add.w	r3, r3, #1280	; 0x500
 8006146:	4619      	mov	r1, r3
 8006148:	78fb      	ldrb	r3, [r7, #3]
 800614a:	015a      	lsls	r2, r3, #5
 800614c:	687b      	ldr	r3, [r7, #4]
 800614e:	4413      	add	r3, r2
 8006150:	f503 63a0 	add.w	r3, r3, #1280	; 0x500
 8006154:	681b      	ldr	r3, [r3, #0]
 8006156:	f023 4380 	bic.w	r3, r3, #1073741824	; 0x40000000
 800615a:	600b      	str	r3, [r1, #0]
 800615c:	78fb      	ldrb	r3, [r7, #3]
 800615e:	015a      	lsls	r2, r3, #5
 8006160:	687b      	ldr	r3, [r7, #4]
 8006162:	4413      	add	r3, r2
 8006164:	f503 63a0 	add.w	r3, r3, #1280	; 0x500
 8006168:	4619      	mov	r1, r3
 800616a:	78fb      	ldrb	r3, [r7, #3]
 800616c:	015a      	lsls	r2, r3, #5
 800616e:	687b      	ldr	r3, [r7, #4]
 8006170:	4413      	add	r3, r2
 8006172:	f503 63a0 	add.w	r3, r3, #1280	; 0x500
 8006176:	681b      	ldr	r3, [r3, #0]
 8006178:	f043 4300 	orr.w	r3, r3, #2147483648	; 0x80000000
 800617c:	600b      	str	r3, [r1, #0]
 800617e:	2300      	movs	r3, #0
 8006180:	4618      	mov	r0, r3
 8006182:	3714      	adds	r7, #20
 8006184:	46bd      	mov	sp, r7
 8006186:	f85d 7b04 	ldr.w	r7, [sp], #4
 800618a:	4770      	bx	lr
 800618c:	1ff80000 	.word	0x1ff80000

08006190 <USB_HC_StartXfer>:
USB_HC_StartXfer():
 8006190:	b590      	push	{r4, r7, lr}
 8006192:	b089      	sub	sp, #36	; 0x24
 8006194:	af02      	add	r7, sp, #8
 8006196:	60f8      	str	r0, [r7, #12]
 8006198:	60b9      	str	r1, [r7, #8]
 800619a:	4613      	mov	r3, r2
 800619c:	71fb      	strb	r3, [r7, #7]
 800619e:	2300      	movs	r3, #0
 80061a0:	757b      	strb	r3, [r7, #21]
 80061a2:	2300      	movs	r3, #0
 80061a4:	827b      	strh	r3, [r7, #18]
 80061a6:	2300      	movs	r3, #0
 80061a8:	82fb      	strh	r3, [r7, #22]
 80061aa:	f44f 7380 	mov.w	r3, #256	; 0x100
 80061ae:	823b      	strh	r3, [r7, #16]
 80061b0:	68fb      	ldr	r3, [r7, #12]
 80061b2:	f1b3 4fa0 	cmp.w	r3, #1342177280	; 0x50000000
 80061b6:	d02b      	beq.n	8006210 <USB_HC_StartXfer+0x80>
 80061b8:	68bb      	ldr	r3, [r7, #8]
 80061ba:	791b      	ldrb	r3, [r3, #4]
 80061bc:	2b00      	cmp	r3, #0
 80061be:	d127      	bne.n	8006210 <USB_HC_StartXfer+0x80>
 80061c0:	79fb      	ldrb	r3, [r7, #7]
 80061c2:	2b00      	cmp	r3, #0
 80061c4:	d10b      	bne.n	80061de <USB_HC_StartXfer+0x4e>
 80061c6:	68bb      	ldr	r3, [r7, #8]
 80061c8:	795b      	ldrb	r3, [r3, #5]
 80061ca:	2b01      	cmp	r3, #1
 80061cc:	d107      	bne.n	80061de <USB_HC_StartXfer+0x4e>
 80061ce:	68bb      	ldr	r3, [r7, #8]
 80061d0:	785b      	ldrb	r3, [r3, #1]
 80061d2:	68f8      	ldr	r0, [r7, #12]
 80061d4:	4619      	mov	r1, r3
 80061d6:	f7ff ff99 	bl	800610c <USB_DoPing>
 80061da:	2300      	movs	r3, #0
 80061dc:	e115      	b.n	800640a <USB_HC_StartXfer+0x27a>
 80061de:	79fb      	ldrb	r3, [r7, #7]
 80061e0:	2b01      	cmp	r3, #1
 80061e2:	d115      	bne.n	8006210 <USB_HC_StartXfer+0x80>
 80061e4:	68bb      	ldr	r3, [r7, #8]
 80061e6:	785b      	ldrb	r3, [r3, #1]
 80061e8:	015a      	lsls	r2, r3, #5
 80061ea:	68fb      	ldr	r3, [r7, #12]
 80061ec:	4413      	add	r3, r2
 80061ee:	f503 63a0 	add.w	r3, r3, #1280	; 0x500
 80061f2:	4619      	mov	r1, r3
 80061f4:	68bb      	ldr	r3, [r7, #8]
 80061f6:	785b      	ldrb	r3, [r3, #1]
 80061f8:	015a      	lsls	r2, r3, #5
 80061fa:	68fb      	ldr	r3, [r7, #12]
 80061fc:	4413      	add	r3, r2
 80061fe:	f503 63a0 	add.w	r3, r3, #1280	; 0x500
 8006202:	68db      	ldr	r3, [r3, #12]
 8006204:	f023 0360 	bic.w	r3, r3, #96	; 0x60
 8006208:	60cb      	str	r3, [r1, #12]
 800620a:	68bb      	ldr	r3, [r7, #8]
 800620c:	2200      	movs	r2, #0
 800620e:	715a      	strb	r2, [r3, #5]
 8006210:	68bb      	ldr	r3, [r7, #8]
 8006212:	691b      	ldr	r3, [r3, #16]
 8006214:	2b00      	cmp	r3, #0
 8006216:	d019      	beq.n	800624c <USB_HC_StartXfer+0xbc>
 8006218:	68bb      	ldr	r3, [r7, #8]
 800621a:	691b      	ldr	r3, [r3, #16]
 800621c:	68ba      	ldr	r2, [r7, #8]
 800621e:	8912      	ldrh	r2, [r2, #8]
 8006220:	4413      	add	r3, r2
 8006222:	3b01      	subs	r3, #1
 8006224:	68ba      	ldr	r2, [r7, #8]
 8006226:	8912      	ldrh	r2, [r2, #8]
 8006228:	fbb3 f3f2 	udiv	r3, r3, r2
 800622c:	82fb      	strh	r3, [r7, #22]
 800622e:	8afa      	ldrh	r2, [r7, #22]
 8006230:	8a3b      	ldrh	r3, [r7, #16]
 8006232:	429a      	cmp	r2, r3
 8006234:	d90c      	bls.n	8006250 <USB_HC_StartXfer+0xc0>
 8006236:	8a3b      	ldrh	r3, [r7, #16]
 8006238:	82fb      	strh	r3, [r7, #22]
 800623a:	8afb      	ldrh	r3, [r7, #22]
 800623c:	68ba      	ldr	r2, [r7, #8]
 800623e:	8912      	ldrh	r2, [r2, #8]
 8006240:	fb02 f303 	mul.w	r3, r2, r3
 8006244:	461a      	mov	r2, r3
 8006246:	68bb      	ldr	r3, [r7, #8]
 8006248:	611a      	str	r2, [r3, #16]
 800624a:	e001      	b.n	8006250 <USB_HC_StartXfer+0xc0>
 800624c:	2301      	movs	r3, #1
 800624e:	82fb      	strh	r3, [r7, #22]
 8006250:	68bb      	ldr	r3, [r7, #8]
 8006252:	78db      	ldrb	r3, [r3, #3]
 8006254:	2b00      	cmp	r3, #0
 8006256:	d007      	beq.n	8006268 <USB_HC_StartXfer+0xd8>
 8006258:	8afb      	ldrh	r3, [r7, #22]
 800625a:	68ba      	ldr	r2, [r7, #8]
 800625c:	8912      	ldrh	r2, [r2, #8]
 800625e:	fb02 f303 	mul.w	r3, r2, r3
 8006262:	461a      	mov	r2, r3
 8006264:	68bb      	ldr	r3, [r7, #8]
 8006266:	611a      	str	r2, [r3, #16]
 8006268:	68bb      	ldr	r3, [r7, #8]
 800626a:	785b      	ldrb	r3, [r3, #1]
 800626c:	015a      	lsls	r2, r3, #5
 800626e:	68fb      	ldr	r3, [r7, #12]
 8006270:	4413      	add	r3, r2
 8006272:	f503 63a0 	add.w	r3, r3, #1280	; 0x500
 8006276:	4619      	mov	r1, r3
 8006278:	68bb      	ldr	r3, [r7, #8]
 800627a:	691b      	ldr	r3, [r3, #16]
 800627c:	f3c3 0212 	ubfx	r2, r3, #0, #19
 8006280:	8afb      	ldrh	r3, [r7, #22]
 8006282:	04db      	lsls	r3, r3, #19
 8006284:	4618      	mov	r0, r3
 8006286:	4b63      	ldr	r3, [pc, #396]	; (8006414 <USB_HC_StartXfer+0x284>)
 8006288:	4003      	ands	r3, r0
 800628a:	431a      	orrs	r2, r3
 800628c:	68bb      	ldr	r3, [r7, #8]
 800628e:	7a9b      	ldrb	r3, [r3, #10]
 8006290:	075b      	lsls	r3, r3, #29
 8006292:	f003 43c0 	and.w	r3, r3, #1610612736	; 0x60000000
 8006296:	4313      	orrs	r3, r2
 8006298:	610b      	str	r3, [r1, #16]
 800629a:	79fb      	ldrb	r3, [r7, #7]
 800629c:	2b00      	cmp	r3, #0
 800629e:	d00a      	beq.n	80062b6 <USB_HC_StartXfer+0x126>
 80062a0:	68bb      	ldr	r3, [r7, #8]
 80062a2:	785b      	ldrb	r3, [r3, #1]
 80062a4:	015a      	lsls	r2, r3, #5
 80062a6:	68fb      	ldr	r3, [r7, #12]
 80062a8:	4413      	add	r3, r2
 80062aa:	f503 63a0 	add.w	r3, r3, #1280	; 0x500
 80062ae:	461a      	mov	r2, r3
 80062b0:	68bb      	ldr	r3, [r7, #8]
 80062b2:	68db      	ldr	r3, [r3, #12]
 80062b4:	6153      	str	r3, [r2, #20]
 80062b6:	68fb      	ldr	r3, [r7, #12]
 80062b8:	f503 6380 	add.w	r3, r3, #1024	; 0x400
 80062bc:	689b      	ldr	r3, [r3, #8]
 80062be:	f003 0301 	and.w	r3, r3, #1
 80062c2:	2b00      	cmp	r3, #0
 80062c4:	bf0c      	ite	eq
 80062c6:	2301      	moveq	r3, #1
 80062c8:	2300      	movne	r3, #0
 80062ca:	b2db      	uxtb	r3, r3
 80062cc:	757b      	strb	r3, [r7, #21]
 80062ce:	68bb      	ldr	r3, [r7, #8]
 80062d0:	785b      	ldrb	r3, [r3, #1]
 80062d2:	015a      	lsls	r2, r3, #5
 80062d4:	68fb      	ldr	r3, [r7, #12]
 80062d6:	4413      	add	r3, r2
 80062d8:	f503 63a0 	add.w	r3, r3, #1280	; 0x500
 80062dc:	4619      	mov	r1, r3
 80062de:	68bb      	ldr	r3, [r7, #8]
 80062e0:	785b      	ldrb	r3, [r3, #1]
 80062e2:	015a      	lsls	r2, r3, #5
 80062e4:	68fb      	ldr	r3, [r7, #12]
 80062e6:	4413      	add	r3, r2
 80062e8:	f503 63a0 	add.w	r3, r3, #1280	; 0x500
 80062ec:	681b      	ldr	r3, [r3, #0]
 80062ee:	f023 5300 	bic.w	r3, r3, #536870912	; 0x20000000
 80062f2:	600b      	str	r3, [r1, #0]
 80062f4:	68bb      	ldr	r3, [r7, #8]
 80062f6:	785b      	ldrb	r3, [r3, #1]
 80062f8:	015a      	lsls	r2, r3, #5
 80062fa:	68fb      	ldr	r3, [r7, #12]
 80062fc:	4413      	add	r3, r2
 80062fe:	f503 63a0 	add.w	r3, r3, #1280	; 0x500
 8006302:	4619      	mov	r1, r3
 8006304:	68bb      	ldr	r3, [r7, #8]
 8006306:	785b      	ldrb	r3, [r3, #1]
 8006308:	015a      	lsls	r2, r3, #5
 800630a:	68fb      	ldr	r3, [r7, #12]
 800630c:	4413      	add	r3, r2
 800630e:	f503 63a0 	add.w	r3, r3, #1280	; 0x500
 8006312:	681b      	ldr	r3, [r3, #0]
 8006314:	7d7a      	ldrb	r2, [r7, #21]
 8006316:	0752      	lsls	r2, r2, #29
 8006318:	4313      	orrs	r3, r2
 800631a:	600b      	str	r3, [r1, #0]
 800631c:	68bb      	ldr	r3, [r7, #8]
 800631e:	785b      	ldrb	r3, [r3, #1]
 8006320:	015a      	lsls	r2, r3, #5
 8006322:	68fb      	ldr	r3, [r7, #12]
 8006324:	4413      	add	r3, r2
 8006326:	f503 63a0 	add.w	r3, r3, #1280	; 0x500
 800632a:	4619      	mov	r1, r3
 800632c:	68bb      	ldr	r3, [r7, #8]
 800632e:	785b      	ldrb	r3, [r3, #1]
 8006330:	015a      	lsls	r2, r3, #5
 8006332:	68fb      	ldr	r3, [r7, #12]
 8006334:	4413      	add	r3, r2
 8006336:	f503 63a0 	add.w	r3, r3, #1280	; 0x500
 800633a:	681b      	ldr	r3, [r3, #0]
 800633c:	f023 4380 	bic.w	r3, r3, #1073741824	; 0x40000000
 8006340:	600b      	str	r3, [r1, #0]
 8006342:	68bb      	ldr	r3, [r7, #8]
 8006344:	785b      	ldrb	r3, [r3, #1]
 8006346:	015a      	lsls	r2, r3, #5
 8006348:	68fb      	ldr	r3, [r7, #12]
 800634a:	4413      	add	r3, r2
 800634c:	f503 63a0 	add.w	r3, r3, #1280	; 0x500
 8006350:	4619      	mov	r1, r3
 8006352:	68bb      	ldr	r3, [r7, #8]
 8006354:	785b      	ldrb	r3, [r3, #1]
 8006356:	015a      	lsls	r2, r3, #5
 8006358:	68fb      	ldr	r3, [r7, #12]
 800635a:	4413      	add	r3, r2
 800635c:	f503 63a0 	add.w	r3, r3, #1280	; 0x500
 8006360:	681b      	ldr	r3, [r3, #0]
 8006362:	f043 4300 	orr.w	r3, r3, #2147483648	; 0x80000000
 8006366:	600b      	str	r3, [r1, #0]
 8006368:	79fb      	ldrb	r3, [r7, #7]
 800636a:	2b00      	cmp	r3, #0
 800636c:	d14c      	bne.n	8006408 <USB_HC_StartXfer+0x278>
 800636e:	68bb      	ldr	r3, [r7, #8]
 8006370:	78db      	ldrb	r3, [r3, #3]
 8006372:	2b00      	cmp	r3, #0
 8006374:	d148      	bne.n	8006408 <USB_HC_StartXfer+0x278>
 8006376:	68bb      	ldr	r3, [r7, #8]
 8006378:	691b      	ldr	r3, [r3, #16]
 800637a:	2b00      	cmp	r3, #0
 800637c:	d044      	beq.n	8006408 <USB_HC_StartXfer+0x278>
 800637e:	68bb      	ldr	r3, [r7, #8]
 8006380:	79db      	ldrb	r3, [r3, #7]
 8006382:	2b03      	cmp	r3, #3
 8006384:	d832      	bhi.n	80063ec <USB_HC_StartXfer+0x25c>
 8006386:	a201      	add	r2, pc, #4	; (adr r2, 800638c <USB_HC_StartXfer+0x1fc>)
 8006388:	f852 f023 	ldr.w	pc, [r2, r3, lsl #2]
 800638c:	0800639d 	.word	0x0800639d
 8006390:	080063c3 	.word	0x080063c3
 8006394:	0800639d 	.word	0x0800639d
 8006398:	080063c3 	.word	0x080063c3
 800639c:	68bb      	ldr	r3, [r7, #8]
 800639e:	691b      	ldr	r3, [r3, #16]
 80063a0:	3303      	adds	r3, #3
 80063a2:	089b      	lsrs	r3, r3, #2
 80063a4:	827b      	strh	r3, [r7, #18]
 80063a6:	8a7a      	ldrh	r2, [r7, #18]
 80063a8:	68fb      	ldr	r3, [r7, #12]
 80063aa:	6adb      	ldr	r3, [r3, #44]	; 0x2c
 80063ac:	b29b      	uxth	r3, r3
 80063ae:	429a      	cmp	r2, r3
 80063b0:	d906      	bls.n	80063c0 <USB_HC_StartXfer+0x230>
 80063b2:	68fb      	ldr	r3, [r7, #12]
 80063b4:	699b      	ldr	r3, [r3, #24]
 80063b6:	f043 0220 	orr.w	r2, r3, #32
 80063ba:	68fb      	ldr	r3, [r7, #12]
 80063bc:	619a      	str	r2, [r3, #24]
 80063be:	e016      	b.n	80063ee <USB_HC_StartXfer+0x25e>
 80063c0:	e015      	b.n	80063ee <USB_HC_StartXfer+0x25e>
 80063c2:	68bb      	ldr	r3, [r7, #8]
 80063c4:	691b      	ldr	r3, [r3, #16]
 80063c6:	3303      	adds	r3, #3
 80063c8:	089b      	lsrs	r3, r3, #2
 80063ca:	827b      	strh	r3, [r7, #18]
 80063cc:	8a7a      	ldrh	r2, [r7, #18]
 80063ce:	68fb      	ldr	r3, [r7, #12]
 80063d0:	f503 6380 	add.w	r3, r3, #1024	; 0x400
 80063d4:	691b      	ldr	r3, [r3, #16]
 80063d6:	b29b      	uxth	r3, r3
 80063d8:	429a      	cmp	r2, r3
 80063da:	d906      	bls.n	80063ea <USB_HC_StartXfer+0x25a>
 80063dc:	68fb      	ldr	r3, [r7, #12]
 80063de:	699b      	ldr	r3, [r3, #24]
 80063e0:	f043 6280 	orr.w	r2, r3, #67108864	; 0x4000000
 80063e4:	68fb      	ldr	r3, [r7, #12]
 80063e6:	619a      	str	r2, [r3, #24]
 80063e8:	e001      	b.n	80063ee <USB_HC_StartXfer+0x25e>
 80063ea:	e000      	b.n	80063ee <USB_HC_StartXfer+0x25e>
 80063ec:	bf00      	nop
 80063ee:	68bb      	ldr	r3, [r7, #8]
 80063f0:	68d9      	ldr	r1, [r3, #12]
 80063f2:	68bb      	ldr	r3, [r7, #8]
 80063f4:	785a      	ldrb	r2, [r3, #1]
 80063f6:	68bb      	ldr	r3, [r7, #8]
 80063f8:	691b      	ldr	r3, [r3, #16]
 80063fa:	b29c      	uxth	r4, r3
 80063fc:	2300      	movs	r3, #0
 80063fe:	9300      	str	r3, [sp, #0]
 8006400:	68f8      	ldr	r0, [r7, #12]
 8006402:	4623      	mov	r3, r4
 8006404:	f7ff fbc0 	bl	8005b88 <USB_WritePacket>
 8006408:	2300      	movs	r3, #0
 800640a:	4618      	mov	r0, r3
 800640c:	371c      	adds	r7, #28
 800640e:	46bd      	mov	sp, r7
 8006410:	bd90      	pop	{r4, r7, pc}
 8006412:	bf00      	nop
 8006414:	1ff80000 	.word	0x1ff80000

08006418 <USB_StopHost>:
USB_StopHost():
 8006418:	b580      	push	{r7, lr}
 800641a:	b086      	sub	sp, #24
 800641c:	af00      	add	r7, sp, #0
 800641e:	6078      	str	r0, [r7, #4]
 8006420:	2300      	movs	r3, #0
 8006422:	613b      	str	r3, [r7, #16]
 8006424:	6878      	ldr	r0, [r7, #4]
 8006426:	f7ff fb6b 	bl	8005b00 <USB_DisableGlobalInt>
 800642a:	6878      	ldr	r0, [r7, #4]
 800642c:	2110      	movs	r1, #16
 800642e:	f7ff fb89 	bl	8005b44 <USB_FlushTxFifo>
 8006432:	6878      	ldr	r0, [r7, #4]
 8006434:	f7ff fb98 	bl	8005b68 <USB_FlushRxFifo>
 8006438:	2300      	movs	r3, #0
 800643a:	75fb      	strb	r3, [r7, #23]
 800643c:	e01f      	b.n	800647e <USB_StopHost+0x66>
 800643e:	7dfb      	ldrb	r3, [r7, #23]
 8006440:	015a      	lsls	r2, r3, #5
 8006442:	687b      	ldr	r3, [r7, #4]
 8006444:	4413      	add	r3, r2
 8006446:	f503 63a0 	add.w	r3, r3, #1280	; 0x500
 800644a:	681b      	ldr	r3, [r3, #0]
 800644c:	60fb      	str	r3, [r7, #12]
 800644e:	68fb      	ldr	r3, [r7, #12]
 8006450:	f043 4380 	orr.w	r3, r3, #1073741824	; 0x40000000
 8006454:	60fb      	str	r3, [r7, #12]
 8006456:	68fb      	ldr	r3, [r7, #12]
 8006458:	f023 4300 	bic.w	r3, r3, #2147483648	; 0x80000000
 800645c:	60fb      	str	r3, [r7, #12]
 800645e:	68fb      	ldr	r3, [r7, #12]
 8006460:	f423 4300 	bic.w	r3, r3, #32768	; 0x8000
 8006464:	60fb      	str	r3, [r7, #12]
 8006466:	7dfb      	ldrb	r3, [r7, #23]
 8006468:	015a      	lsls	r2, r3, #5
 800646a:	687b      	ldr	r3, [r7, #4]
 800646c:	4413      	add	r3, r2
 800646e:	f503 63a0 	add.w	r3, r3, #1280	; 0x500
 8006472:	461a      	mov	r2, r3
 8006474:	68fb      	ldr	r3, [r7, #12]
 8006476:	6013      	str	r3, [r2, #0]
 8006478:	7dfb      	ldrb	r3, [r7, #23]
 800647a:	3301      	adds	r3, #1
 800647c:	75fb      	strb	r3, [r7, #23]
 800647e:	7dfb      	ldrb	r3, [r7, #23]
 8006480:	2b0f      	cmp	r3, #15
 8006482:	d9dc      	bls.n	800643e <USB_StopHost+0x26>
 8006484:	2300      	movs	r3, #0
 8006486:	75fb      	strb	r3, [r7, #23]
 8006488:	e030      	b.n	80064ec <USB_StopHost+0xd4>
 800648a:	7dfb      	ldrb	r3, [r7, #23]
 800648c:	015a      	lsls	r2, r3, #5
 800648e:	687b      	ldr	r3, [r7, #4]
 8006490:	4413      	add	r3, r2
 8006492:	f503 63a0 	add.w	r3, r3, #1280	; 0x500
 8006496:	681b      	ldr	r3, [r3, #0]
 8006498:	60fb      	str	r3, [r7, #12]
 800649a:	68fb      	ldr	r3, [r7, #12]
 800649c:	f043 4380 	orr.w	r3, r3, #1073741824	; 0x40000000
 80064a0:	60fb      	str	r3, [r7, #12]
 80064a2:	68fb      	ldr	r3, [r7, #12]
 80064a4:	f043 4300 	orr.w	r3, r3, #2147483648	; 0x80000000
 80064a8:	60fb      	str	r3, [r7, #12]
 80064aa:	68fb      	ldr	r3, [r7, #12]
 80064ac:	f423 4300 	bic.w	r3, r3, #32768	; 0x8000
 80064b0:	60fb      	str	r3, [r7, #12]
 80064b2:	7dfb      	ldrb	r3, [r7, #23]
 80064b4:	015a      	lsls	r2, r3, #5
 80064b6:	687b      	ldr	r3, [r7, #4]
 80064b8:	4413      	add	r3, r2
 80064ba:	f503 63a0 	add.w	r3, r3, #1280	; 0x500
 80064be:	461a      	mov	r2, r3
 80064c0:	68fb      	ldr	r3, [r7, #12]
 80064c2:	6013      	str	r3, [r2, #0]
 80064c4:	693b      	ldr	r3, [r7, #16]
 80064c6:	3301      	adds	r3, #1
 80064c8:	613b      	str	r3, [r7, #16]
 80064ca:	693b      	ldr	r3, [r7, #16]
 80064cc:	f5b3 7f7a 	cmp.w	r3, #1000	; 0x3e8
 80064d0:	d900      	bls.n	80064d4 <USB_StopHost+0xbc>
 80064d2:	e008      	b.n	80064e6 <USB_StopHost+0xce>
 80064d4:	7dfb      	ldrb	r3, [r7, #23]
 80064d6:	015a      	lsls	r2, r3, #5
 80064d8:	687b      	ldr	r3, [r7, #4]
 80064da:	4413      	add	r3, r2
 80064dc:	f503 63a0 	add.w	r3, r3, #1280	; 0x500
 80064e0:	681b      	ldr	r3, [r3, #0]
 80064e2:	2b00      	cmp	r3, #0
 80064e4:	dbee      	blt.n	80064c4 <USB_StopHost+0xac>
 80064e6:	7dfb      	ldrb	r3, [r7, #23]
 80064e8:	3301      	adds	r3, #1
 80064ea:	75fb      	strb	r3, [r7, #23]
 80064ec:	7dfb      	ldrb	r3, [r7, #23]
 80064ee:	2b0f      	cmp	r3, #15
 80064f0:	d9cb      	bls.n	800648a <USB_StopHost+0x72>
 80064f2:	687b      	ldr	r3, [r7, #4]
 80064f4:	f503 6380 	add.w	r3, r3, #1024	; 0x400
 80064f8:	461a      	mov	r2, r3
 80064fa:	f04f 33ff 	mov.w	r3, #4294967295
 80064fe:	6153      	str	r3, [r2, #20]
 8006500:	687b      	ldr	r3, [r7, #4]
 8006502:	f04f 32ff 	mov.w	r2, #4294967295
 8006506:	615a      	str	r2, [r3, #20]
 8006508:	6878      	ldr	r0, [r7, #4]
 800650a:	f7ff faf1 	bl	8005af0 <USB_EnableGlobalInt>
 800650e:	2300      	movs	r3, #0
 8006510:	4618      	mov	r0, r3
 8006512:	3718      	adds	r7, #24
 8006514:	46bd      	mov	sp, r7
 8006516:	bd80      	pop	{r7, pc}

08006518 <cs43l22_SetFrequency>:
cs43l22_SetFrequency():
 8006518:	2000      	movs	r0, #0
 800651a:	4770      	bx	lr

0800651c <cs43l22_SetVolume>:
cs43l22_SetVolume():
 800651c:	2964      	cmp	r1, #100	; 0x64
 800651e:	b538      	push	{r3, r4, r5, lr}
 8006520:	d816      	bhi.n	8006550 <cs43l22_SetVolume+0x34>
 8006522:	4c14      	ldr	r4, [pc, #80]	; (8006574 <cs43l22_SetVolume+0x58>)
 8006524:	ebc1 2101 	rsb	r1, r1, r1, lsl #8
 8006528:	fb84 3401 	smull	r3, r4, r4, r1
 800652c:	17c9      	asrs	r1, r1, #31
 800652e:	ebc1 1464 	rsb	r4, r1, r4, asr #5
 8006532:	3419      	adds	r4, #25
 8006534:	b2e4      	uxtb	r4, r4
 8006536:	b2c5      	uxtb	r5, r0
 8006538:	4628      	mov	r0, r5
 800653a:	4622      	mov	r2, r4
 800653c:	2120      	movs	r1, #32
 800653e:	f000 fa9f 	bl	8006a80 <AUDIO_IO_Write>
 8006542:	4628      	mov	r0, r5
 8006544:	4622      	mov	r2, r4
 8006546:	2121      	movs	r1, #33	; 0x21
 8006548:	f000 fa9a 	bl	8006a80 <AUDIO_IO_Write>
 800654c:	2000      	movs	r0, #0
 800654e:	bd38      	pop	{r3, r4, r5, pc}
 8006550:	29e6      	cmp	r1, #230	; 0xe6
 8006552:	d90c      	bls.n	800656e <cs43l22_SetVolume+0x52>
 8006554:	b2c4      	uxtb	r4, r0
 8006556:	4620      	mov	r0, r4
 8006558:	2120      	movs	r1, #32
 800655a:	227d      	movs	r2, #125	; 0x7d
 800655c:	f000 fa90 	bl	8006a80 <AUDIO_IO_Write>
 8006560:	4620      	mov	r0, r4
 8006562:	2121      	movs	r1, #33	; 0x21
 8006564:	227d      	movs	r2, #125	; 0x7d
 8006566:	f000 fa8b 	bl	8006a80 <AUDIO_IO_Write>
 800656a:	2000      	movs	r0, #0
 800656c:	bd38      	pop	{r3, r4, r5, pc}
 800656e:	247d      	movs	r4, #125	; 0x7d
 8006570:	e7e1      	b.n	8006536 <cs43l22_SetVolume+0x1a>
 8006572:	bf00      	nop
 8006574:	51eb851f 	.word	0x51eb851f

08006578 <cs43l22_ReadID>:
cs43l22_ReadID():
 8006578:	b510      	push	{r4, lr}
 800657a:	4604      	mov	r4, r0
 800657c:	f000 fa54 	bl	8006a28 <AUDIO_IO_Init>
 8006580:	b2e0      	uxtb	r0, r4
 8006582:	2101      	movs	r1, #1
 8006584:	f000 fa98 	bl	8006ab8 <AUDIO_IO_Read>
 8006588:	bd10      	pop	{r4, pc}
 800658a:	bf00      	nop

0800658c <cs43l22_SetOutputMode>:
cs43l22_SetOutputMode():
 800658c:	3901      	subs	r1, #1
 800658e:	b508      	push	{r3, lr}
 8006590:	b2c0      	uxtb	r0, r0
 8006592:	2903      	cmp	r1, #3
 8006594:	d803      	bhi.n	800659e <cs43l22_SetOutputMode+0x12>
 8006596:	e8df f001 	tbb	[pc, r1]
 800659a:	141d      	.short	0x141d
 800659c:	020b      	.short	0x020b
 800659e:	2104      	movs	r1, #4
 80065a0:	2205      	movs	r2, #5
 80065a2:	f000 fa6d 	bl	8006a80 <AUDIO_IO_Write>
 80065a6:	4b10      	ldr	r3, [pc, #64]	; (80065e8 <cs43l22_SetOutputMode+0x5c>)
 80065a8:	2205      	movs	r2, #5
 80065aa:	701a      	strb	r2, [r3, #0]
 80065ac:	2000      	movs	r0, #0
 80065ae:	bd08      	pop	{r3, pc}
 80065b0:	2104      	movs	r1, #4
 80065b2:	22aa      	movs	r2, #170	; 0xaa
 80065b4:	f000 fa64 	bl	8006a80 <AUDIO_IO_Write>
 80065b8:	4b0b      	ldr	r3, [pc, #44]	; (80065e8 <cs43l22_SetOutputMode+0x5c>)
 80065ba:	22aa      	movs	r2, #170	; 0xaa
 80065bc:	701a      	strb	r2, [r3, #0]
 80065be:	2000      	movs	r0, #0
 80065c0:	bd08      	pop	{r3, pc}
 80065c2:	2104      	movs	r1, #4
 80065c4:	22af      	movs	r2, #175	; 0xaf
 80065c6:	f000 fa5b 	bl	8006a80 <AUDIO_IO_Write>
 80065ca:	4b07      	ldr	r3, [pc, #28]	; (80065e8 <cs43l22_SetOutputMode+0x5c>)
 80065cc:	22af      	movs	r2, #175	; 0xaf
 80065ce:	701a      	strb	r2, [r3, #0]
 80065d0:	2000      	movs	r0, #0
 80065d2:	bd08      	pop	{r3, pc}
 80065d4:	2104      	movs	r1, #4
 80065d6:	22fa      	movs	r2, #250	; 0xfa
 80065d8:	f000 fa52 	bl	8006a80 <AUDIO_IO_Write>
 80065dc:	4b02      	ldr	r3, [pc, #8]	; (80065e8 <cs43l22_SetOutputMode+0x5c>)
 80065de:	22fa      	movs	r2, #250	; 0xfa
 80065e0:	701a      	strb	r2, [r3, #0]
 80065e2:	2000      	movs	r0, #0
 80065e4:	bd08      	pop	{r3, pc}
 80065e6:	bf00      	nop
 80065e8:	200008e4 	.word	0x200008e4

080065ec <cs43l22_Resume>:
cs43l22_Resume():
 80065ec:	b570      	push	{r4, r5, r6, lr}
 80065ee:	b082      	sub	sp, #8
 80065f0:	2600      	movs	r6, #0
 80065f2:	4d0f      	ldr	r5, [pc, #60]	; (8006630 <cs43l22_Resume+0x44>)
 80065f4:	9601      	str	r6, [sp, #4]
 80065f6:	b2c4      	uxtb	r4, r0
 80065f8:	782a      	ldrb	r2, [r5, #0]
 80065fa:	4620      	mov	r0, r4
 80065fc:	2104      	movs	r1, #4
 80065fe:	f000 fa3f 	bl	8006a80 <AUDIO_IO_Write>
 8006602:	9601      	str	r6, [sp, #4]
 8006604:	9b01      	ldr	r3, [sp, #4]
 8006606:	2bfe      	cmp	r3, #254	; 0xfe
 8006608:	d805      	bhi.n	8006616 <cs43l22_Resume+0x2a>
 800660a:	9b01      	ldr	r3, [sp, #4]
 800660c:	3301      	adds	r3, #1
 800660e:	9301      	str	r3, [sp, #4]
 8006610:	9b01      	ldr	r3, [sp, #4]
 8006612:	2bfe      	cmp	r3, #254	; 0xfe
 8006614:	d9f9      	bls.n	800660a <cs43l22_Resume+0x1e>
 8006616:	782a      	ldrb	r2, [r5, #0]
 8006618:	4620      	mov	r0, r4
 800661a:	2104      	movs	r1, #4
 800661c:	f000 fa30 	bl	8006a80 <AUDIO_IO_Write>
 8006620:	4620      	mov	r0, r4
 8006622:	2102      	movs	r1, #2
 8006624:	229e      	movs	r2, #158	; 0x9e
 8006626:	f000 fa2b 	bl	8006a80 <AUDIO_IO_Write>
 800662a:	2000      	movs	r0, #0
 800662c:	b002      	add	sp, #8
 800662e:	bd70      	pop	{r4, r5, r6, pc}
 8006630:	200008e4 	.word	0x200008e4

08006634 <cs43l22_Stop>:
cs43l22_Stop():
 8006634:	b510      	push	{r4, lr}
 8006636:	b2c4      	uxtb	r4, r0
 8006638:	4620      	mov	r0, r4
 800663a:	2104      	movs	r1, #4
 800663c:	22ff      	movs	r2, #255	; 0xff
 800663e:	f000 fa1f 	bl	8006a80 <AUDIO_IO_Write>
 8006642:	4620      	mov	r0, r4
 8006644:	2102      	movs	r1, #2
 8006646:	229f      	movs	r2, #159	; 0x9f
 8006648:	f000 fa1a 	bl	8006a80 <AUDIO_IO_Write>
 800664c:	4b02      	ldr	r3, [pc, #8]	; (8006658 <cs43l22_Stop+0x24>)
 800664e:	2201      	movs	r2, #1
 8006650:	701a      	strb	r2, [r3, #0]
 8006652:	2000      	movs	r0, #0
 8006654:	bd10      	pop	{r4, pc}
 8006656:	bf00      	nop
 8006658:	20000020 	.word	0x20000020

0800665c <cs43l22_Play>:
cs43l22_Play():
 800665c:	b538      	push	{r3, r4, r5, lr}
 800665e:	4c0b      	ldr	r4, [pc, #44]	; (800668c <cs43l22_Play+0x30>)
 8006660:	7823      	ldrb	r3, [r4, #0]
 8006662:	2b01      	cmp	r3, #1
 8006664:	d001      	beq.n	800666a <cs43l22_Play+0xe>
 8006666:	2000      	movs	r0, #0
 8006668:	bd38      	pop	{r3, r4, r5, pc}
 800666a:	4b09      	ldr	r3, [pc, #36]	; (8006690 <cs43l22_Play+0x34>)
 800666c:	b2c5      	uxtb	r5, r0
 800666e:	781a      	ldrb	r2, [r3, #0]
 8006670:	4628      	mov	r0, r5
 8006672:	2104      	movs	r1, #4
 8006674:	f000 fa04 	bl	8006a80 <AUDIO_IO_Write>
 8006678:	4628      	mov	r0, r5
 800667a:	2102      	movs	r1, #2
 800667c:	229e      	movs	r2, #158	; 0x9e
 800667e:	f000 f9ff 	bl	8006a80 <AUDIO_IO_Write>
 8006682:	2300      	movs	r3, #0
 8006684:	7023      	strb	r3, [r4, #0]
 8006686:	2000      	movs	r0, #0
 8006688:	bd38      	pop	{r3, r4, r5, pc}
 800668a:	bf00      	nop
 800668c:	20000020 	.word	0x20000020
 8006690:	200008e4 	.word	0x200008e4

08006694 <cs43l22_SetMute>:
cs43l22_SetMute():
 8006694:	2901      	cmp	r1, #1
 8006696:	b508      	push	{r3, lr}
 8006698:	d007      	beq.n	80066aa <cs43l22_SetMute+0x16>
 800669a:	4b07      	ldr	r3, [pc, #28]	; (80066b8 <cs43l22_SetMute+0x24>)
 800669c:	b2c0      	uxtb	r0, r0
 800669e:	781a      	ldrb	r2, [r3, #0]
 80066a0:	2104      	movs	r1, #4
 80066a2:	f000 f9ed 	bl	8006a80 <AUDIO_IO_Write>
 80066a6:	2000      	movs	r0, #0
 80066a8:	bd08      	pop	{r3, pc}
 80066aa:	b2c0      	uxtb	r0, r0
 80066ac:	2104      	movs	r1, #4
 80066ae:	22ff      	movs	r2, #255	; 0xff
 80066b0:	f000 f9e6 	bl	8006a80 <AUDIO_IO_Write>
 80066b4:	2000      	movs	r0, #0
 80066b6:	bd08      	pop	{r3, pc}
 80066b8:	200008e4 	.word	0x200008e4

080066bc <cs43l22_Pause>:
cs43l22_Pause():
 80066bc:	b510      	push	{r4, lr}
 80066be:	b2c4      	uxtb	r4, r0
 80066c0:	4620      	mov	r0, r4
 80066c2:	2104      	movs	r1, #4
 80066c4:	22ff      	movs	r2, #255	; 0xff
 80066c6:	f000 f9db 	bl	8006a80 <AUDIO_IO_Write>
 80066ca:	4620      	mov	r0, r4
 80066cc:	2102      	movs	r1, #2
 80066ce:	2201      	movs	r2, #1
 80066d0:	f000 f9d6 	bl	8006a80 <AUDIO_IO_Write>
 80066d4:	2000      	movs	r0, #0
 80066d6:	bd10      	pop	{r4, pc}

080066d8 <cs43l22_Init>:
cs43l22_Init():
 80066d8:	b570      	push	{r4, r5, r6, lr}
 80066da:	b2c4      	uxtb	r4, r0
 80066dc:	460e      	mov	r6, r1
 80066de:	4615      	mov	r5, r2
 80066e0:	f000 f9a2 	bl	8006a28 <AUDIO_IO_Init>
 80066e4:	4620      	mov	r0, r4
 80066e6:	2102      	movs	r1, #2
 80066e8:	2201      	movs	r2, #1
 80066ea:	f000 f9c9 	bl	8006a80 <AUDIO_IO_Write>
 80066ee:	1e73      	subs	r3, r6, #1
 80066f0:	2b03      	cmp	r3, #3
 80066f2:	d803      	bhi.n	80066fc <cs43l22_Init+0x24>
 80066f4:	e8df f003 	tbb	[pc, r3]
 80066f8:	025b5f63 	.word	0x025b5f63
 80066fc:	4b39      	ldr	r3, [pc, #228]	; (80067e4 <cs43l22_Init+0x10c>)
 80066fe:	2205      	movs	r2, #5
 8006700:	701a      	strb	r2, [r3, #0]
 8006702:	781a      	ldrb	r2, [r3, #0]
 8006704:	4620      	mov	r0, r4
 8006706:	2104      	movs	r1, #4
 8006708:	f000 f9ba 	bl	8006a80 <AUDIO_IO_Write>
 800670c:	4620      	mov	r0, r4
 800670e:	2105      	movs	r1, #5
 8006710:	2281      	movs	r2, #129	; 0x81
 8006712:	f000 f9b5 	bl	8006a80 <AUDIO_IO_Write>
 8006716:	4620      	mov	r0, r4
 8006718:	2106      	movs	r1, #6
 800671a:	2204      	movs	r2, #4
 800671c:	f000 f9b0 	bl	8006a80 <AUDIO_IO_Write>
 8006720:	2d64      	cmp	r5, #100	; 0x64
 8006722:	d850      	bhi.n	80067c6 <cs43l22_Init+0xee>
 8006724:	4b30      	ldr	r3, [pc, #192]	; (80067e8 <cs43l22_Init+0x110>)
 8006726:	ebc5 2505 	rsb	r5, r5, r5, lsl #8
 800672a:	fb83 2305 	smull	r2, r3, r3, r5
 800672e:	17ed      	asrs	r5, r5, #31
 8006730:	ebc5 1563 	rsb	r5, r5, r3, asr #5
 8006734:	3519      	adds	r5, #25
 8006736:	b2ed      	uxtb	r5, r5
 8006738:	4620      	mov	r0, r4
 800673a:	2120      	movs	r1, #32
 800673c:	462a      	mov	r2, r5
 800673e:	f000 f99f 	bl	8006a80 <AUDIO_IO_Write>
 8006742:	4620      	mov	r0, r4
 8006744:	462a      	mov	r2, r5
 8006746:	2121      	movs	r1, #33	; 0x21
 8006748:	f000 f99a 	bl	8006a80 <AUDIO_IO_Write>
 800674c:	2e02      	cmp	r6, #2
 800674e:	d00e      	beq.n	800676e <cs43l22_Init+0x96>
 8006750:	4620      	mov	r0, r4
 8006752:	210f      	movs	r1, #15
 8006754:	2206      	movs	r2, #6
 8006756:	f000 f993 	bl	8006a80 <AUDIO_IO_Write>
 800675a:	4620      	mov	r0, r4
 800675c:	2124      	movs	r1, #36	; 0x24
 800675e:	2200      	movs	r2, #0
 8006760:	f000 f98e 	bl	8006a80 <AUDIO_IO_Write>
 8006764:	4620      	mov	r0, r4
 8006766:	2125      	movs	r1, #37	; 0x25
 8006768:	2200      	movs	r2, #0
 800676a:	f000 f989 	bl	8006a80 <AUDIO_IO_Write>
 800676e:	4620      	mov	r0, r4
 8006770:	210a      	movs	r1, #10
 8006772:	2200      	movs	r2, #0
 8006774:	f000 f984 	bl	8006a80 <AUDIO_IO_Write>
 8006778:	4620      	mov	r0, r4
 800677a:	210e      	movs	r1, #14
 800677c:	2204      	movs	r2, #4
 800677e:	f000 f97f 	bl	8006a80 <AUDIO_IO_Write>
 8006782:	4620      	mov	r0, r4
 8006784:	2127      	movs	r1, #39	; 0x27
 8006786:	2200      	movs	r2, #0
 8006788:	f000 f97a 	bl	8006a80 <AUDIO_IO_Write>
 800678c:	4620      	mov	r0, r4
 800678e:	211f      	movs	r1, #31
 8006790:	220f      	movs	r2, #15
 8006792:	f000 f975 	bl	8006a80 <AUDIO_IO_Write>
 8006796:	4620      	mov	r0, r4
 8006798:	211a      	movs	r1, #26
 800679a:	220a      	movs	r2, #10
 800679c:	f000 f970 	bl	8006a80 <AUDIO_IO_Write>
 80067a0:	4620      	mov	r0, r4
 80067a2:	211b      	movs	r1, #27
 80067a4:	220a      	movs	r2, #10
 80067a6:	f000 f96b 	bl	8006a80 <AUDIO_IO_Write>
 80067aa:	2000      	movs	r0, #0
 80067ac:	bd70      	pop	{r4, r5, r6, pc}
 80067ae:	4b0d      	ldr	r3, [pc, #52]	; (80067e4 <cs43l22_Init+0x10c>)
 80067b0:	22aa      	movs	r2, #170	; 0xaa
 80067b2:	701a      	strb	r2, [r3, #0]
 80067b4:	e7a5      	b.n	8006702 <cs43l22_Init+0x2a>
 80067b6:	4b0b      	ldr	r3, [pc, #44]	; (80067e4 <cs43l22_Init+0x10c>)
 80067b8:	22af      	movs	r2, #175	; 0xaf
 80067ba:	701a      	strb	r2, [r3, #0]
 80067bc:	e7a1      	b.n	8006702 <cs43l22_Init+0x2a>
 80067be:	4b09      	ldr	r3, [pc, #36]	; (80067e4 <cs43l22_Init+0x10c>)
 80067c0:	22fa      	movs	r2, #250	; 0xfa
 80067c2:	701a      	strb	r2, [r3, #0]
 80067c4:	e79d      	b.n	8006702 <cs43l22_Init+0x2a>
 80067c6:	2de6      	cmp	r5, #230	; 0xe6
 80067c8:	d90a      	bls.n	80067e0 <cs43l22_Init+0x108>
 80067ca:	4620      	mov	r0, r4
 80067cc:	2120      	movs	r1, #32
 80067ce:	227d      	movs	r2, #125	; 0x7d
 80067d0:	f000 f956 	bl	8006a80 <AUDIO_IO_Write>
 80067d4:	4620      	mov	r0, r4
 80067d6:	2121      	movs	r1, #33	; 0x21
 80067d8:	227d      	movs	r2, #125	; 0x7d
 80067da:	f000 f951 	bl	8006a80 <AUDIO_IO_Write>
 80067de:	e7b5      	b.n	800674c <cs43l22_Init+0x74>
 80067e0:	257d      	movs	r5, #125	; 0x7d
 80067e2:	e7a9      	b.n	8006738 <cs43l22_Init+0x60>
 80067e4:	200008e4 	.word	0x200008e4
 80067e8:	51eb851f 	.word	0x51eb851f

080067ec <Reset_Handler>:
Reset_Handler():
 80067ec:	f8df d034 	ldr.w	sp, [pc, #52]	; 8006824 <LoopFillZerobss+0x14>
 80067f0:	2100      	movs	r1, #0
 80067f2:	e003      	b.n	80067fc <LoopCopyDataInit>

080067f4 <CopyDataInit>:
 80067f4:	4b0c      	ldr	r3, [pc, #48]	; (8006828 <LoopFillZerobss+0x18>)
 80067f6:	585b      	ldr	r3, [r3, r1]
 80067f8:	5043      	str	r3, [r0, r1]
 80067fa:	3104      	adds	r1, #4

080067fc <LoopCopyDataInit>:
 80067fc:	480b      	ldr	r0, [pc, #44]	; (800682c <LoopFillZerobss+0x1c>)
 80067fe:	4b0c      	ldr	r3, [pc, #48]	; (8006830 <LoopFillZerobss+0x20>)
 8006800:	1842      	adds	r2, r0, r1
 8006802:	429a      	cmp	r2, r3
 8006804:	d3f6      	bcc.n	80067f4 <CopyDataInit>
 8006806:	4a0b      	ldr	r2, [pc, #44]	; (8006834 <LoopFillZerobss+0x24>)
 8006808:	e002      	b.n	8006810 <LoopFillZerobss>

0800680a <FillZerobss>:
 800680a:	2300      	movs	r3, #0
 800680c:	f842 3b04 	str.w	r3, [r2], #4

08006810 <LoopFillZerobss>:
 8006810:	4b09      	ldr	r3, [pc, #36]	; (8006838 <LoopFillZerobss+0x28>)
 8006812:	429a      	cmp	r2, r3
 8006814:	d3f9      	bcc.n	800680a <FillZerobss>
 8006816:	f000 fad7 	bl	8006dc8 <SystemInit>
 800681a:	f007 fdbb 	bl	800e394 <__libc_init_array>
 800681e:	f003 f973 	bl	8009b08 <main>
 8006822:	4770      	bx	lr
$d():
 8006824:	2001ffff 	.word	0x2001ffff
 8006828:	0801db64 	.word	0x0801db64
 800682c:	20000000 	.word	0x20000000
 8006830:	200008c4 	.word	0x200008c4
 8006834:	200008c4 	.word	0x200008c4
 8006838:	2001f838 	.word	0x2001f838

0800683c <ADC_IRQHandler>:
RTC_Alarm_IRQHandler():
 800683c:	e7fe      	b.n	800683c <ADC_IRQHandler>
	...

08006840 <I2Cx_Init>:
I2Cx_Init():
 8006840:	e92d 43f0 	stmdb	sp!, {r4, r5, r6, r7, r8, r9, lr}
 8006844:	4c26      	ldr	r4, [pc, #152]	; (80068e0 <I2Cx_Init+0xa0>)
 8006846:	b087      	sub	sp, #28
 8006848:	4620      	mov	r0, r4
 800684a:	f7fe faf7 	bl	8004e3c <HAL_I2C_GetState>
 800684e:	4605      	mov	r5, r0
 8006850:	2800      	cmp	r0, #0
 8006852:	d142      	bne.n	80068da <I2Cx_Init+0x9a>
 8006854:	4e23      	ldr	r6, [pc, #140]	; (80068e4 <I2Cx_Init+0xa4>)
 8006856:	4b24      	ldr	r3, [pc, #144]	; (80068e8 <I2Cx_Init+0xa8>)
 8006858:	6023      	str	r3, [r4, #0]
 800685a:	6b33      	ldr	r3, [r6, #48]	; 0x30
 800685c:	60a5      	str	r5, [r4, #8]
 800685e:	f043 0302 	orr.w	r3, r3, #2
 8006862:	6333      	str	r3, [r6, #48]	; 0x30
 8006864:	2304      	movs	r3, #4
 8006866:	f44f 4c80 	mov.w	ip, #16384	; 0x4000
 800686a:	f44f 7e10 	mov.w	lr, #576	; 0x240
 800686e:	2202      	movs	r2, #2
 8006870:	eb0d 0103 	add.w	r1, sp, r3
 8006874:	481d      	ldr	r0, [pc, #116]	; (80068ec <I2Cx_Init+0xac>)
 8006876:	f8df 9078 	ldr.w	r9, [pc, #120]	; 80068f0 <I2Cx_Init+0xb0>
 800687a:	f8c4 c010 	str.w	ip, [r4, #16]
 800687e:	f04f 0833 	mov.w	r8, #51	; 0x33
 8006882:	2712      	movs	r7, #18
 8006884:	f8cd e004 	str.w	lr, [sp, #4]
 8006888:	9204      	str	r2, [sp, #16]
 800688a:	9305      	str	r3, [sp, #20]
 800688c:	9503      	str	r5, [sp, #12]
 800688e:	f8c4 9004 	str.w	r9, [r4, #4]
 8006892:	f8c4 800c 	str.w	r8, [r4, #12]
 8006896:	9702      	str	r7, [sp, #8]
 8006898:	f7fd f88e 	bl	80039b8 <HAL_GPIO_Init>
 800689c:	6c33      	ldr	r3, [r6, #64]	; 0x40
 800689e:	f443 1300 	orr.w	r3, r3, #2097152	; 0x200000
 80068a2:	6433      	str	r3, [r6, #64]	; 0x40
 80068a4:	6a33      	ldr	r3, [r6, #32]
 80068a6:	f443 1300 	orr.w	r3, r3, #2097152	; 0x200000
 80068aa:	6233      	str	r3, [r6, #32]
 80068ac:	6a33      	ldr	r3, [r6, #32]
 80068ae:	f423 1300 	bic.w	r3, r3, #2097152	; 0x200000
 80068b2:	6233      	str	r3, [r6, #32]
 80068b4:	4629      	mov	r1, r5
 80068b6:	462a      	mov	r2, r5
 80068b8:	201f      	movs	r0, #31
 80068ba:	f7fb ff25 	bl	8002708 <HAL_NVIC_SetPriority>
 80068be:	201f      	movs	r0, #31
 80068c0:	f7fb ff58 	bl	8002774 <HAL_NVIC_EnableIRQ>
 80068c4:	2020      	movs	r0, #32
 80068c6:	4629      	mov	r1, r5
 80068c8:	462a      	mov	r2, r5
 80068ca:	f7fb ff1d 	bl	8002708 <HAL_NVIC_SetPriority>
 80068ce:	2020      	movs	r0, #32
 80068d0:	f7fb ff50 	bl	8002774 <HAL_NVIC_EnableIRQ>
 80068d4:	4620      	mov	r0, r4
 80068d6:	f7fe f865 	bl	80049a4 <HAL_I2C_Init>
 80068da:	b007      	add	sp, #28
 80068dc:	e8bd 83f0 	ldmia.w	sp!, {r4, r5, r6, r7, r8, r9, pc}
 80068e0:	200008e8 	.word	0x200008e8
 80068e4:	40023800 	.word	0x40023800
 80068e8:	40005400 	.word	0x40005400
 80068ec:	40020400 	.word	0x40020400
 80068f0:	000186a0 	.word	0x000186a0

080068f4 <BSP_LED_Init>:
BSP_LED_Init():
 80068f4:	b570      	push	{r4, r5, r6, lr}
 80068f6:	4604      	mov	r4, r0
 80068f8:	b086      	sub	sp, #24
 80068fa:	b138      	cbz	r0, 800690c <BSP_LED_Init+0x18>
 80068fc:	2801      	cmp	r0, #1
 80068fe:	d005      	beq.n	800690c <BSP_LED_Init+0x18>
 8006900:	4a10      	ldr	r2, [pc, #64]	; (8006944 <BSP_LED_Init+0x50>)
 8006902:	6b13      	ldr	r3, [r2, #48]	; 0x30
 8006904:	f043 0308 	orr.w	r3, r3, #8
 8006908:	6313      	str	r3, [r2, #48]	; 0x30
 800690a:	e004      	b.n	8006916 <BSP_LED_Init+0x22>
 800690c:	4a0d      	ldr	r2, [pc, #52]	; (8006944 <BSP_LED_Init+0x50>)
 800690e:	6b13      	ldr	r3, [r2, #48]	; 0x30
 8006910:	f043 0308 	orr.w	r3, r3, #8
 8006914:	6313      	str	r3, [r2, #48]	; 0x30
 8006916:	4b0c      	ldr	r3, [pc, #48]	; (8006948 <BSP_LED_Init+0x54>)
 8006918:	4d0c      	ldr	r5, [pc, #48]	; (800694c <BSP_LED_Init+0x58>)
 800691a:	f833 6014 	ldrh.w	r6, [r3, r4, lsl #1]
 800691e:	f855 0024 	ldr.w	r0, [r5, r4, lsl #2]
 8006922:	9601      	str	r6, [sp, #4]
 8006924:	2301      	movs	r3, #1
 8006926:	2202      	movs	r2, #2
 8006928:	a901      	add	r1, sp, #4
 800692a:	9302      	str	r3, [sp, #8]
 800692c:	9303      	str	r3, [sp, #12]
 800692e:	9204      	str	r2, [sp, #16]
 8006930:	f7fd f842 	bl	80039b8 <HAL_GPIO_Init>
 8006934:	4631      	mov	r1, r6
 8006936:	f855 0024 	ldr.w	r0, [r5, r4, lsl #2]
 800693a:	2200      	movs	r2, #0
 800693c:	f7fd f968 	bl	8003c10 <HAL_GPIO_WritePin>
 8006940:	b006      	add	sp, #24
 8006942:	bd70      	pop	{r4, r5, r6, pc}
 8006944:	40023800 	.word	0x40023800
 8006948:	0800edd8 	.word	0x0800edd8
 800694c:	20000050 	.word	0x20000050

08006950 <BSP_LED_On>:
BSP_LED_On():
 8006950:	4603      	mov	r3, r0
 8006952:	4904      	ldr	r1, [pc, #16]	; (8006964 <BSP_LED_On+0x14>)
 8006954:	4a04      	ldr	r2, [pc, #16]	; (8006968 <BSP_LED_On+0x18>)
 8006956:	f851 0020 	ldr.w	r0, [r1, r0, lsl #2]
 800695a:	f832 1013 	ldrh.w	r1, [r2, r3, lsl #1]
 800695e:	2201      	movs	r2, #1
 8006960:	f7fd b956 	b.w	8003c10 <HAL_GPIO_WritePin>
 8006964:	20000050 	.word	0x20000050
 8006968:	0800edd8 	.word	0x0800edd8

0800696c <BSP_LED_Off>:
BSP_LED_Off():
 800696c:	4603      	mov	r3, r0
 800696e:	4904      	ldr	r1, [pc, #16]	; (8006980 <BSP_LED_Off+0x14>)
 8006970:	4a04      	ldr	r2, [pc, #16]	; (8006984 <BSP_LED_Off+0x18>)
 8006972:	f851 0020 	ldr.w	r0, [r1, r0, lsl #2]
 8006976:	f832 1013 	ldrh.w	r1, [r2, r3, lsl #1]
 800697a:	2200      	movs	r2, #0
 800697c:	f7fd b948 	b.w	8003c10 <HAL_GPIO_WritePin>
 8006980:	20000050 	.word	0x20000050
 8006984:	0800edd8 	.word	0x0800edd8

08006988 <BSP_LED_Toggle>:
BSP_LED_Toggle():
 8006988:	4603      	mov	r3, r0
 800698a:	4904      	ldr	r1, [pc, #16]	; (800699c <BSP_LED_Toggle+0x14>)
 800698c:	4a04      	ldr	r2, [pc, #16]	; (80069a0 <BSP_LED_Toggle+0x18>)
 800698e:	f851 0020 	ldr.w	r0, [r1, r0, lsl #2]
 8006992:	f832 1013 	ldrh.w	r1, [r2, r3, lsl #1]
 8006996:	f7fd b941 	b.w	8003c1c <HAL_GPIO_TogglePin>
 800699a:	bf00      	nop
 800699c:	20000050 	.word	0x20000050
 80069a0:	0800edd8 	.word	0x0800edd8

080069a4 <BSP_PB_Init>:
BSP_PB_Init():
 80069a4:	b510      	push	{r4, lr}
 80069a6:	4a18      	ldr	r2, [pc, #96]	; (8006a08 <BSP_PB_Init+0x64>)
 80069a8:	6b13      	ldr	r3, [r2, #48]	; 0x30
 80069aa:	f043 0301 	orr.w	r3, r3, #1
 80069ae:	b086      	sub	sp, #24
 80069b0:	6313      	str	r3, [r2, #48]	; 0x30
 80069b2:	b119      	cbz	r1, 80069bc <BSP_PB_Init+0x18>
 80069b4:	2901      	cmp	r1, #1
 80069b6:	d00f      	beq.n	80069d8 <BSP_PB_Init+0x34>
 80069b8:	b006      	add	sp, #24
 80069ba:	bd10      	pop	{r4, pc}
 80069bc:	4b13      	ldr	r3, [pc, #76]	; (8006a0c <BSP_PB_Init+0x68>)
 80069be:	9102      	str	r1, [sp, #8]
 80069c0:	f853 0020 	ldr.w	r0, [r3, r0, lsl #2]
 80069c4:	9103      	str	r1, [sp, #12]
 80069c6:	2201      	movs	r2, #1
 80069c8:	2302      	movs	r3, #2
 80069ca:	a901      	add	r1, sp, #4
 80069cc:	9201      	str	r2, [sp, #4]
 80069ce:	9304      	str	r3, [sp, #16]
 80069d0:	f7fc fff2 	bl	80039b8 <HAL_GPIO_Init>
 80069d4:	b006      	add	sp, #24
 80069d6:	bd10      	pop	{r4, pc}
 80069d8:	4a0c      	ldr	r2, [pc, #48]	; (8006a0c <BSP_PB_Init+0x68>)
 80069da:	4b0d      	ldr	r3, [pc, #52]	; (8006a10 <BSP_PB_Init+0x6c>)
 80069dc:	f852 0020 	ldr.w	r0, [r2, r0, lsl #2]
 80069e0:	9101      	str	r1, [sp, #4]
 80069e2:	2400      	movs	r4, #0
 80069e4:	2202      	movs	r2, #2
 80069e6:	a901      	add	r1, sp, #4
 80069e8:	9302      	str	r3, [sp, #8]
 80069ea:	9204      	str	r2, [sp, #16]
 80069ec:	9403      	str	r4, [sp, #12]
 80069ee:	f7fc ffe3 	bl	80039b8 <HAL_GPIO_Init>
 80069f2:	4622      	mov	r2, r4
 80069f4:	210f      	movs	r1, #15
 80069f6:	2006      	movs	r0, #6
 80069f8:	f7fb fe86 	bl	8002708 <HAL_NVIC_SetPriority>
 80069fc:	2006      	movs	r0, #6
 80069fe:	f7fb feb9 	bl	8002774 <HAL_NVIC_EnableIRQ>
 8006a02:	b006      	add	sp, #24
 8006a04:	bd10      	pop	{r4, pc}
 8006a06:	bf00      	nop
 8006a08:	40023800 	.word	0x40023800
 8006a0c:	20000060 	.word	0x20000060
 8006a10:	10110000 	.word	0x10110000

08006a14 <BSP_PB_GetState>:
BSP_PB_GetState():
 8006a14:	b508      	push	{r3, lr}
 8006a16:	4b03      	ldr	r3, [pc, #12]	; (8006a24 <BSP_PB_GetState+0x10>)
 8006a18:	2101      	movs	r1, #1
 8006a1a:	f853 0020 	ldr.w	r0, [r3, r0, lsl #2]
 8006a1e:	f7fd f8f1 	bl	8003c04 <HAL_GPIO_ReadPin>
 8006a22:	bd08      	pop	{r3, pc}
 8006a24:	20000060 	.word	0x20000060

08006a28 <AUDIO_IO_Init>:
AUDIO_IO_Init():
 8006a28:	b5f0      	push	{r4, r5, r6, r7, lr}
 8006a2a:	4a13      	ldr	r2, [pc, #76]	; (8006a78 <AUDIO_IO_Init+0x50>)
 8006a2c:	4d13      	ldr	r5, [pc, #76]	; (8006a7c <AUDIO_IO_Init+0x54>)
 8006a2e:	6b13      	ldr	r3, [r2, #48]	; 0x30
 8006a30:	b087      	sub	sp, #28
 8006a32:	f043 0308 	orr.w	r3, r3, #8
 8006a36:	6313      	str	r3, [r2, #48]	; 0x30
 8006a38:	4628      	mov	r0, r5
 8006a3a:	2302      	movs	r3, #2
 8006a3c:	2410      	movs	r4, #16
 8006a3e:	a901      	add	r1, sp, #4
 8006a40:	2601      	movs	r6, #1
 8006a42:	2700      	movs	r7, #0
 8006a44:	9304      	str	r3, [sp, #16]
 8006a46:	9401      	str	r4, [sp, #4]
 8006a48:	9602      	str	r6, [sp, #8]
 8006a4a:	9703      	str	r7, [sp, #12]
 8006a4c:	f7fc ffb4 	bl	80039b8 <HAL_GPIO_Init>
 8006a50:	f7ff fef6 	bl	8006840 <I2Cx_Init>
 8006a54:	4621      	mov	r1, r4
 8006a56:	463a      	mov	r2, r7
 8006a58:	4628      	mov	r0, r5
 8006a5a:	f7fd f8d9 	bl	8003c10 <HAL_GPIO_WritePin>
 8006a5e:	2005      	movs	r0, #5
 8006a60:	f7fb fe32 	bl	80026c8 <HAL_Delay>
 8006a64:	4628      	mov	r0, r5
 8006a66:	4621      	mov	r1, r4
 8006a68:	4632      	mov	r2, r6
 8006a6a:	f7fd f8d1 	bl	8003c10 <HAL_GPIO_WritePin>
 8006a6e:	2005      	movs	r0, #5
 8006a70:	f7fb fe2a 	bl	80026c8 <HAL_Delay>
 8006a74:	b007      	add	sp, #28
 8006a76:	bdf0      	pop	{r4, r5, r6, r7, pc}
 8006a78:	40023800 	.word	0x40023800
 8006a7c:	40020c00 	.word	0x40020c00

08006a80 <AUDIO_IO_Write>:
AUDIO_IO_Write():
 8006a80:	b510      	push	{r4, lr}
 8006a82:	b086      	sub	sp, #24
 8006a84:	ab06      	add	r3, sp, #24
 8006a86:	4c0a      	ldr	r4, [pc, #40]	; (8006ab0 <AUDIO_IO_Write+0x30>)
 8006a88:	f803 2d01 	strb.w	r2, [r3, #-1]!
 8006a8c:	6824      	ldr	r4, [r4, #0]
 8006a8e:	9300      	str	r3, [sp, #0]
 8006a90:	2301      	movs	r3, #1
 8006a92:	460a      	mov	r2, r1
 8006a94:	9402      	str	r4, [sp, #8]
 8006a96:	4601      	mov	r1, r0
 8006a98:	9301      	str	r3, [sp, #4]
 8006a9a:	4806      	ldr	r0, [pc, #24]	; (8006ab4 <AUDIO_IO_Write+0x34>)
 8006a9c:	f7fe f80e 	bl	8004abc <HAL_I2C_Mem_Write>
 8006aa0:	b120      	cbz	r0, 8006aac <AUDIO_IO_Write+0x2c>
 8006aa2:	4804      	ldr	r0, [pc, #16]	; (8006ab4 <AUDIO_IO_Write+0x34>)
 8006aa4:	f7fd fff2 	bl	8004a8c <HAL_I2C_DeInit>
 8006aa8:	f7ff feca 	bl	8006840 <I2Cx_Init>
 8006aac:	b006      	add	sp, #24
 8006aae:	bd10      	pop	{r4, pc}
 8006ab0:	20000064 	.word	0x20000064
 8006ab4:	200008e8 	.word	0x200008e8

08006ab8 <AUDIO_IO_Read>:
AUDIO_IO_Read():
 8006ab8:	b510      	push	{r4, lr}
 8006aba:	b086      	sub	sp, #24
 8006abc:	ab06      	add	r3, sp, #24
 8006abe:	2200      	movs	r2, #0
 8006ac0:	f803 2d01 	strb.w	r2, [r3, #-1]!
 8006ac4:	4c0a      	ldr	r4, [pc, #40]	; (8006af0 <AUDIO_IO_Read+0x38>)
 8006ac6:	6824      	ldr	r4, [r4, #0]
 8006ac8:	9300      	str	r3, [sp, #0]
 8006aca:	2301      	movs	r3, #1
 8006acc:	460a      	mov	r2, r1
 8006ace:	9402      	str	r4, [sp, #8]
 8006ad0:	4601      	mov	r1, r0
 8006ad2:	9301      	str	r3, [sp, #4]
 8006ad4:	4807      	ldr	r0, [pc, #28]	; (8006af4 <AUDIO_IO_Read+0x3c>)
 8006ad6:	f7fe f881 	bl	8004bdc <HAL_I2C_Mem_Read>
 8006ada:	b120      	cbz	r0, 8006ae6 <AUDIO_IO_Read+0x2e>
 8006adc:	4805      	ldr	r0, [pc, #20]	; (8006af4 <AUDIO_IO_Read+0x3c>)
 8006ade:	f7fd ffd5 	bl	8004a8c <HAL_I2C_DeInit>
 8006ae2:	f7ff fead 	bl	8006840 <I2Cx_Init>
 8006ae6:	f89d 0017 	ldrb.w	r0, [sp, #23]
 8006aea:	b006      	add	sp, #24
 8006aec:	bd10      	pop	{r4, pc}
 8006aee:	bf00      	nop
 8006af0:	20000064 	.word	0x20000064
 8006af4:	200008e8 	.word	0x200008e8

08006af8 <BSP_AUDIO_OUT_Init>:
BSP_AUDIO_OUT_Init():
 8006af8:	e92d 47f0 	stmdb	sp!, {r4, r5, r6, r7, r8, r9, sl, lr}
 8006afc:	b08a      	sub	sp, #40	; 0x28
 8006afe:	4680      	mov	r8, r0
 8006b00:	a801      	add	r0, sp, #4
 8006b02:	4615      	mov	r5, r2
 8006b04:	460f      	mov	r7, r1
 8006b06:	f7fe ff37 	bl	8005978 <HAL_RCCEx_GetPeriphCLKConfig>
 8006b0a:	4e56      	ldr	r6, [pc, #344]	; (8006c64 <BSP_AUDIO_OUT_Init+0x16c>)
 8006b0c:	076b      	lsls	r3, r5, #29
 8006b0e:	bf0b      	itete	eq
 8006b10:	2306      	moveq	r3, #6
 8006b12:	2302      	movne	r3, #2
 8006b14:	22c0      	moveq	r2, #192	; 0xc0
 8006b16:	f44f 7291 	movne.w	r2, #290	; 0x122
 8006b1a:	2101      	movs	r1, #1
 8006b1c:	a801      	add	r0, sp, #4
 8006b1e:	9101      	str	r1, [sp, #4]
 8006b20:	9202      	str	r2, [sp, #8]
 8006b22:	9303      	str	r3, [sp, #12]
 8006b24:	f7fe fe84 	bl	8005830 <HAL_RCCEx_PeriphCLKConfig>
 8006b28:	2094      	movs	r0, #148	; 0x94
 8006b2a:	6873      	ldr	r3, [r6, #4]
 8006b2c:	4798      	blx	r3
 8006b2e:	f000 00f8 	and.w	r0, r0, #248	; 0xf8
 8006b32:	28e0      	cmp	r0, #224	; 0xe0
 8006b34:	d003      	beq.n	8006b3e <BSP_AUDIO_OUT_Init+0x46>
 8006b36:	2001      	movs	r0, #1
 8006b38:	b00a      	add	sp, #40	; 0x28
 8006b3a:	e8bd 87f0 	ldmia.w	sp!, {r4, r5, r6, r7, r8, r9, sl, pc}
 8006b3e:	4b4a      	ldr	r3, [pc, #296]	; (8006c68 <BSP_AUDIO_OUT_Init+0x170>)
 8006b40:	f8df 9140 	ldr.w	r9, [pc, #320]	; 8006c84 <BSP_AUDIO_OUT_Init+0x18c>
 8006b44:	f8d6 c000 	ldr.w	ip, [r6]
 8006b48:	601e      	str	r6, [r3, #0]
 8006b4a:	4641      	mov	r1, r8
 8006b4c:	463a      	mov	r2, r7
 8006b4e:	462b      	mov	r3, r5
 8006b50:	2094      	movs	r0, #148	; 0x94
 8006b52:	47e0      	blx	ip
 8006b54:	f8d9 301c 	ldr.w	r3, [r9, #28]
 8006b58:	4c44      	ldr	r4, [pc, #272]	; (8006c6c <BSP_AUDIO_OUT_Init+0x174>)
 8006b5a:	f423 6380 	bic.w	r3, r3, #1024	; 0x400
 8006b5e:	f44f 7200 	mov.w	r2, #512	; 0x200
 8006b62:	f8c4 9000 	str.w	r9, [r4]
 8006b66:	6165      	str	r5, [r4, #20]
 8006b68:	4620      	mov	r0, r4
 8006b6a:	f8c9 301c 	str.w	r3, [r9, #28]
 8006b6e:	2300      	movs	r3, #0
 8006b70:	61e3      	str	r3, [r4, #28]
 8006b72:	61a3      	str	r3, [r4, #24]
 8006b74:	60e3      	str	r3, [r4, #12]
 8006b76:	60a3      	str	r3, [r4, #8]
 8006b78:	6122      	str	r2, [r4, #16]
 8006b7a:	6062      	str	r2, [r4, #4]
 8006b7c:	f7fe faf0 	bl	8005160 <HAL_I2S_GetState>
 8006b80:	4606      	mov	r6, r0
 8006b82:	b130      	cbz	r0, 8006b92 <BSP_AUDIO_OUT_Init+0x9a>
 8006b84:	4839      	ldr	r0, [pc, #228]	; (8006c6c <BSP_AUDIO_OUT_Init+0x174>)
 8006b86:	f7fe f95f 	bl	8004e48 <HAL_I2S_Init>
 8006b8a:	2000      	movs	r0, #0
 8006b8c:	b00a      	add	sp, #40	; 0x28
 8006b8e:	e8bd 87f0 	ldmia.w	sp!, {r4, r5, r6, r7, r8, r9, sl, pc}
 8006b92:	4d37      	ldr	r5, [pc, #220]	; (8006c70 <BSP_AUDIO_OUT_Init+0x178>)
 8006b94:	4837      	ldr	r0, [pc, #220]	; (8006c74 <BSP_AUDIO_OUT_Init+0x17c>)
 8006b96:	6c2b      	ldr	r3, [r5, #64]	; 0x40
 8006b98:	f443 4300 	orr.w	r3, r3, #32768	; 0x8000
 8006b9c:	642b      	str	r3, [r5, #64]	; 0x40
 8006b9e:	6b2b      	ldr	r3, [r5, #48]	; 0x30
 8006ba0:	f043 0304 	orr.w	r3, r3, #4
 8006ba4:	632b      	str	r3, [r5, #48]	; 0x30
 8006ba6:	6b2b      	ldr	r3, [r5, #48]	; 0x30
 8006ba8:	f043 0301 	orr.w	r3, r3, #1
 8006bac:	632b      	str	r3, [r5, #48]	; 0x30
 8006bae:	2206      	movs	r2, #6
 8006bb0:	2302      	movs	r3, #2
 8006bb2:	a905      	add	r1, sp, #20
 8006bb4:	f44f 57a0 	mov.w	r7, #5120	; 0x1400
 8006bb8:	9209      	str	r2, [sp, #36]	; 0x24
 8006bba:	9306      	str	r3, [sp, #24]
 8006bbc:	9308      	str	r3, [sp, #32]
 8006bbe:	9607      	str	r6, [sp, #28]
 8006bc0:	9705      	str	r7, [sp, #20]
 8006bc2:	f7fc fef9 	bl	80039b8 <HAL_GPIO_Init>
 8006bc6:	2310      	movs	r3, #16
 8006bc8:	a905      	add	r1, sp, #20
 8006bca:	482b      	ldr	r0, [pc, #172]	; (8006c78 <BSP_AUDIO_OUT_Init+0x180>)
 8006bcc:	9305      	str	r3, [sp, #20]
 8006bce:	f7fc fef3 	bl	80039b8 <HAL_GPIO_Init>
 8006bd2:	6b2b      	ldr	r3, [r5, #48]	; 0x30
 8006bd4:	4827      	ldr	r0, [pc, #156]	; (8006c74 <BSP_AUDIO_OUT_Init+0x17c>)
 8006bd6:	f043 0304 	orr.w	r3, r3, #4
 8006bda:	632b      	str	r3, [r5, #48]	; 0x30
 8006bdc:	a905      	add	r1, sp, #20
 8006bde:	2380      	movs	r3, #128	; 0x80
 8006be0:	9305      	str	r3, [sp, #20]
 8006be2:	f7fc fee9 	bl	80039b8 <HAL_GPIO_Init>
 8006be6:	6b2b      	ldr	r3, [r5, #48]	; 0x30
 8006be8:	f443 1300 	orr.w	r3, r3, #2097152	; 0x200000
 8006bec:	632b      	str	r3, [r5, #48]	; 0x30
 8006bee:	6823      	ldr	r3, [r4, #0]
 8006bf0:	454b      	cmp	r3, r9
 8006bf2:	d00c      	beq.n	8006c0e <BSP_AUDIO_OUT_Init+0x116>
 8006bf4:	2106      	movs	r1, #6
 8006bf6:	2200      	movs	r2, #0
 8006bf8:	202f      	movs	r0, #47	; 0x2f
 8006bfa:	f7fb fd85 	bl	8002708 <HAL_NVIC_SetPriority>
 8006bfe:	202f      	movs	r0, #47	; 0x2f
 8006c00:	f7fb fdb8 	bl	8002774 <HAL_NVIC_EnableIRQ>
 8006c04:	4819      	ldr	r0, [pc, #100]	; (8006c6c <BSP_AUDIO_OUT_Init+0x174>)
 8006c06:	f7fe f91f 	bl	8004e48 <HAL_I2S_Init>
 8006c0a:	2000      	movs	r0, #0
 8006c0c:	e7be      	b.n	8006b8c <BSP_AUDIO_OUT_Init+0x94>
 8006c0e:	4d1b      	ldr	r5, [pc, #108]	; (8006c7c <BSP_AUDIO_OUT_Init+0x184>)
 8006c10:	4b1b      	ldr	r3, [pc, #108]	; (8006c80 <BSP_AUDIO_OUT_Init+0x188>)
 8006c12:	606e      	str	r6, [r5, #4]
 8006c14:	f44f 5c00 	mov.w	ip, #8192	; 0x2000
 8006c18:	f44f 7e80 	mov.w	lr, #256	; 0x100
 8006c1c:	2104      	movs	r1, #4
 8006c1e:	2203      	movs	r2, #3
 8006c20:	f04f 0a40 	mov.w	sl, #64	; 0x40
 8006c24:	f44f 6980 	mov.w	r9, #1024	; 0x400
 8006c28:	f44f 6800 	mov.w	r8, #2048	; 0x800
 8006c2c:	f44f 3700 	mov.w	r7, #131072	; 0x20000
 8006c30:	4628      	mov	r0, r5
 8006c32:	60ee      	str	r6, [r5, #12]
 8006c34:	62ee      	str	r6, [r5, #44]	; 0x2c
 8006c36:	632e      	str	r6, [r5, #48]	; 0x30
 8006c38:	6365      	str	r5, [r4, #52]	; 0x34
 8006c3a:	63ac      	str	r4, [r5, #56]	; 0x38
 8006c3c:	f8c5 a008 	str.w	sl, [r5, #8]
 8006c40:	f8c5 9010 	str.w	r9, [r5, #16]
 8006c44:	f8c5 8014 	str.w	r8, [r5, #20]
 8006c48:	f8c5 c018 	str.w	ip, [r5, #24]
 8006c4c:	f8c5 e01c 	str.w	lr, [r5, #28]
 8006c50:	622f      	str	r7, [r5, #32]
 8006c52:	6269      	str	r1, [r5, #36]	; 0x24
 8006c54:	62aa      	str	r2, [r5, #40]	; 0x28
 8006c56:	602b      	str	r3, [r5, #0]
 8006c58:	f7fb fe02 	bl	8002860 <HAL_DMA_DeInit>
 8006c5c:	4628      	mov	r0, r5
 8006c5e:	f7fb fdaf 	bl	80027c0 <HAL_DMA_Init>
 8006c62:	e7c7      	b.n	8006bf4 <BSP_AUDIO_OUT_Init+0xfc>
 8006c64:	20000024 	.word	0x20000024
 8006c68:	20000920 	.word	0x20000920
 8006c6c:	2001df10 	.word	0x2001df10
 8006c70:	40023800 	.word	0x40023800
 8006c74:	40020800 	.word	0x40020800
 8006c78:	40020000 	.word	0x40020000
 8006c7c:	20000924 	.word	0x20000924
 8006c80:	400260b8 	.word	0x400260b8
 8006c84:	40003c00 	.word	0x40003c00

08006c88 <BSP_AUDIO_OUT_Play>:
BSP_AUDIO_OUT_Play():
 8006c88:	b538      	push	{r3, r4, r5, lr}
 8006c8a:	4b0c      	ldr	r3, [pc, #48]	; (8006cbc <BSP_AUDIO_OUT_Play+0x34>)
 8006c8c:	681b      	ldr	r3, [r3, #0]
 8006c8e:	460c      	mov	r4, r1
 8006c90:	4605      	mov	r5, r0
 8006c92:	4601      	mov	r1, r0
 8006c94:	689b      	ldr	r3, [r3, #8]
 8006c96:	b2a2      	uxth	r2, r4
 8006c98:	2094      	movs	r0, #148	; 0x94
 8006c9a:	4798      	blx	r3
 8006c9c:	b960      	cbnz	r0, 8006cb8 <BSP_AUDIO_OUT_Play+0x30>
 8006c9e:	f5b4 3f00 	cmp.w	r4, #131072	; 0x20000
 8006ca2:	bf34      	ite	cc
 8006ca4:	f3c4 024f 	ubfxcc	r2, r4, #1, #16
 8006ca8:	f64f 72ff 	movwcs	r2, #65535	; 0xffff
 8006cac:	4629      	mov	r1, r5
 8006cae:	4804      	ldr	r0, [pc, #16]	; (8006cc0 <BSP_AUDIO_OUT_Play+0x38>)
 8006cb0:	f7fe f9b8 	bl	8005024 <HAL_I2S_Transmit_DMA>
 8006cb4:	2000      	movs	r0, #0
 8006cb6:	bd38      	pop	{r3, r4, r5, pc}
 8006cb8:	2001      	movs	r0, #1
 8006cba:	bd38      	pop	{r3, r4, r5, pc}
 8006cbc:	20000920 	.word	0x20000920
 8006cc0:	2001df10 	.word	0x2001df10

08006cc4 <BSP_AUDIO_OUT_SetVolume>:
BSP_AUDIO_OUT_SetVolume():
 8006cc4:	b508      	push	{r3, lr}
 8006cc6:	4b05      	ldr	r3, [pc, #20]	; (8006cdc <BSP_AUDIO_OUT_SetVolume+0x18>)
 8006cc8:	681b      	ldr	r3, [r3, #0]
 8006cca:	4601      	mov	r1, r0
 8006ccc:	69db      	ldr	r3, [r3, #28]
 8006cce:	2094      	movs	r0, #148	; 0x94
 8006cd0:	4798      	blx	r3
 8006cd2:	3000      	adds	r0, #0
 8006cd4:	bf18      	it	ne
 8006cd6:	2001      	movne	r0, #1
 8006cd8:	bd08      	pop	{r3, pc}
 8006cda:	bf00      	nop
 8006cdc:	20000920 	.word	0x20000920

08006ce0 <HAL_I2S_TxCpltCallback>:
HAL_I2S_TxCpltCallback():
 8006ce0:	b508      	push	{r3, lr}
 8006ce2:	6802      	ldr	r2, [r0, #0]
 8006ce4:	4b03      	ldr	r3, [pc, #12]	; (8006cf4 <HAL_I2S_TxCpltCallback+0x14>)
 8006ce6:	429a      	cmp	r2, r3
 8006ce8:	d000      	beq.n	8006cec <HAL_I2S_TxCpltCallback+0xc>
 8006cea:	bd08      	pop	{r3, pc}
 8006cec:	f000 fe3e 	bl	800796c <BSP_AUDIO_OUT_TransferComplete_CallBack>
 8006cf0:	bd08      	pop	{r3, pc}
 8006cf2:	bf00      	nop
 8006cf4:	40003c00 	.word	0x40003c00

08006cf8 <HAL_I2S_TxHalfCpltCallback>:
HAL_I2S_TxHalfCpltCallback():
 8006cf8:	b508      	push	{r3, lr}
 8006cfa:	6802      	ldr	r2, [r0, #0]
 8006cfc:	4b03      	ldr	r3, [pc, #12]	; (8006d0c <HAL_I2S_TxHalfCpltCallback+0x14>)
 8006cfe:	429a      	cmp	r2, r3
 8006d00:	d000      	beq.n	8006d04 <HAL_I2S_TxHalfCpltCallback+0xc>
 8006d02:	bd08      	pop	{r3, pc}
 8006d04:	f000 fe1c 	bl	8007940 <BSP_AUDIO_OUT_HalfTransfer_CallBack>
 8006d08:	bd08      	pop	{r3, pc}
 8006d0a:	bf00      	nop
 8006d0c:	40003c00 	.word	0x40003c00

08006d10 <BSP_AUDIO_IN_Error_Callback>:
BSP_AUDIO_IN_Error_Callback():
 8006d10:	4770      	bx	lr
 8006d12:	bf00      	nop

08006d14 <HAL_I2S_ErrorCallback>:
HAL_I2S_ErrorCallback():
 8006d14:	b500      	push	{lr}
 8006d16:	4a0b      	ldr	r2, [pc, #44]	; (8006d44 <HAL_I2S_ErrorCallback+0x30>)
 8006d18:	6803      	ldr	r3, [r0, #0]
 8006d1a:	4293      	cmp	r3, r2
 8006d1c:	b083      	sub	sp, #12
 8006d1e:	d00a      	beq.n	8006d36 <HAL_I2S_ErrorCallback+0x22>
 8006d20:	4a09      	ldr	r2, [pc, #36]	; (8006d48 <HAL_I2S_ErrorCallback+0x34>)
 8006d22:	4293      	cmp	r3, r2
 8006d24:	d002      	beq.n	8006d2c <HAL_I2S_ErrorCallback+0x18>
 8006d26:	b003      	add	sp, #12
 8006d28:	f85d fb04 	ldr.w	pc, [sp], #4
 8006d2c:	f7ff fff0 	bl	8006d10 <BSP_AUDIO_IN_Error_Callback>
 8006d30:	b003      	add	sp, #12
 8006d32:	f85d fb04 	ldr.w	pc, [sp], #4
 8006d36:	9001      	str	r0, [sp, #4]
 8006d38:	f000 fe2e 	bl	8007998 <BSP_AUDIO_OUT_Error_CallBack>
 8006d3c:	9801      	ldr	r0, [sp, #4]
 8006d3e:	6803      	ldr	r3, [r0, #0]
 8006d40:	e7ee      	b.n	8006d20 <HAL_I2S_ErrorCallback+0xc>
 8006d42:	bf00      	nop
 8006d44:	40003c00 	.word	0x40003c00
 8006d48:	40003800 	.word	0x40003800

08006d4c <NMI_Handler>:
NMI_Handler():
 8006d4c:	4770      	bx	lr
 8006d4e:	bf00      	nop

08006d50 <HardFault_Handler>:
HardFault_Handler():
 8006d50:	e7fe      	b.n	8006d50 <HardFault_Handler>
 8006d52:	bf00      	nop

08006d54 <MemManage_Handler>:
MemManage_Handler():
 8006d54:	e7fe      	b.n	8006d54 <MemManage_Handler>
 8006d56:	bf00      	nop

08006d58 <BusFault_Handler>:
BusFault_Handler():
 8006d58:	e7fe      	b.n	8006d58 <BusFault_Handler>
 8006d5a:	bf00      	nop

08006d5c <UsageFault_Handler>:
UsageFault_Handler():
 8006d5c:	e7fe      	b.n	8006d5c <UsageFault_Handler>
 8006d5e:	bf00      	nop

08006d60 <SVC_Handler>:
SVC_Handler():
 8006d60:	4770      	bx	lr
 8006d62:	bf00      	nop

08006d64 <DebugMon_Handler>:
DebugMon_Handler():
 8006d64:	4770      	bx	lr
 8006d66:	bf00      	nop

08006d68 <PendSV_Handler>:
PendSV_Handler():
 8006d68:	4770      	bx	lr
 8006d6a:	bf00      	nop

08006d6c <SysTick_Handler>:
SysTick_Handler():
 8006d6c:	b508      	push	{r3, lr}
 8006d6e:	f7fb fc9d 	bl	80026ac <HAL_IncTick>
 8006d72:	f005 fe63 	bl	800ca3c <TimingDelay_Decrement>
 8006d76:	2003      	movs	r0, #3
 8006d78:	f005 fe70 	bl	800ca5c <update_temporized_LED>
 8006d7c:	4b03      	ldr	r3, [pc, #12]	; (8006d8c <SysTick_Handler+0x20>)
 8006d7e:	781b      	ldrb	r3, [r3, #0]
 8006d80:	b903      	cbnz	r3, 8006d84 <SysTick_Handler+0x18>
 8006d82:	bd08      	pop	{r3, pc}
 8006d84:	e8bd 4008 	ldmia.w	sp!, {r3, lr}
 8006d88:	f005 be74 	b.w	800ca74 <DebounceUserButton>
 8006d8c:	20000078 	.word	0x20000078

08006d90 <EXTI0_IRQHandler>:
EXTI0_IRQHandler():
 8006d90:	2001      	movs	r0, #1
 8006d92:	f7fc bf47 	b.w	8003c24 <HAL_GPIO_EXTI_IRQHandler>
 8006d96:	bf00      	nop

08006d98 <EXTI1_IRQHandler>:
EXTI1_IRQHandler():
 8006d98:	2002      	movs	r0, #2
 8006d9a:	f7fc bf43 	b.w	8003c24 <HAL_GPIO_EXTI_IRQHandler>
 8006d9e:	bf00      	nop

08006da0 <DMA1_Stream7_IRQHandler>:
DMA1_Stream7_IRQHandler():
 8006da0:	4b01      	ldr	r3, [pc, #4]	; (8006da8 <DMA1_Stream7_IRQHandler+0x8>)
 8006da2:	6b58      	ldr	r0, [r3, #52]	; 0x34
 8006da4:	f7fb bfc4 	b.w	8002d30 <HAL_DMA_IRQHandler>
 8006da8:	2001df10 	.word	0x2001df10

08006dac <DMA1_Stream3_IRQHandler>:
DMA1_Stream3_IRQHandler():
 8006dac:	4b01      	ldr	r3, [pc, #4]	; (8006db4 <DMA1_Stream3_IRQHandler+0x8>)
 8006dae:	6b98      	ldr	r0, [r3, #56]	; 0x38
 8006db0:	f7fb bfbe 	b.w	8002d30 <HAL_DMA_IRQHandler>
 8006db4:	2001df50 	.word	0x2001df50

08006db8 <TIM4_IRQHandler>:
TIM4_IRQHandler():
 8006db8:	4770      	bx	lr
 8006dba:	bf00      	nop

08006dbc <OTG_FS_IRQHandler>:
OTG_FS_IRQHandler():
 8006dbc:	4801      	ldr	r0, [pc, #4]	; (8006dc4 <OTG_FS_IRQHandler+0x8>)
 8006dbe:	f7fd b839 	b.w	8003e34 <HAL_HCD_IRQHandler>
 8006dc2:	bf00      	nop
 8006dc4:	2001df90 	.word	0x2001df90

08006dc8 <SystemInit>:
SystemInit():
 8006dc8:	4910      	ldr	r1, [pc, #64]	; (8006e0c <SystemInit+0x44>)
 8006dca:	4b11      	ldr	r3, [pc, #68]	; (8006e10 <SystemInit+0x48>)
 8006dcc:	f8d1 2088 	ldr.w	r2, [r1, #136]	; 0x88
 8006dd0:	f442 0270 	orr.w	r2, r2, #15728640	; 0xf00000
 8006dd4:	b410      	push	{r4}
 8006dd6:	f8c1 2088 	str.w	r2, [r1, #136]	; 0x88
 8006dda:	681a      	ldr	r2, [r3, #0]
 8006ddc:	4c0d      	ldr	r4, [pc, #52]	; (8006e14 <SystemInit+0x4c>)
 8006dde:	2000      	movs	r0, #0
 8006de0:	f042 0201 	orr.w	r2, r2, #1
 8006de4:	601a      	str	r2, [r3, #0]
 8006de6:	6098      	str	r0, [r3, #8]
 8006de8:	681a      	ldr	r2, [r3, #0]
 8006dea:	f022 7284 	bic.w	r2, r2, #17301504	; 0x1080000
 8006dee:	f422 3280 	bic.w	r2, r2, #65536	; 0x10000
 8006df2:	601a      	str	r2, [r3, #0]
 8006df4:	605c      	str	r4, [r3, #4]
 8006df6:	681a      	ldr	r2, [r3, #0]
 8006df8:	f04f 6400 	mov.w	r4, #134217728	; 0x8000000
 8006dfc:	f422 2280 	bic.w	r2, r2, #262144	; 0x40000
 8006e00:	601a      	str	r2, [r3, #0]
 8006e02:	60d8      	str	r0, [r3, #12]
 8006e04:	608c      	str	r4, [r1, #8]
 8006e06:	f85d 4b04 	ldr.w	r4, [sp], #4
 8006e0a:	4770      	bx	lr
 8006e0c:	e000ed00 	.word	0xe000ed00
 8006e10:	40023800 	.word	0x40023800
 8006e14:	24003010 	.word	0x24003010

08006e18 <HAL_HCD_MspInit>:
HAL_HCD_MspInit():
 8006e18:	6803      	ldr	r3, [r0, #0]
 8006e1a:	f1b3 4fa0 	cmp.w	r3, #1342177280	; 0x50000000
 8006e1e:	d000      	beq.n	8006e22 <HAL_HCD_MspInit+0xa>
 8006e20:	4770      	bx	lr
 8006e22:	e92d 43f0 	stmdb	sp!, {r4, r5, r6, r7, r8, r9, lr}
 8006e26:	4c23      	ldr	r4, [pc, #140]	; (8006eb4 <HAL_HCD_MspInit+0x9c>)
 8006e28:	4823      	ldr	r0, [pc, #140]	; (8006eb8 <HAL_HCD_MspInit+0xa0>)
 8006e2a:	6b23      	ldr	r3, [r4, #48]	; 0x30
 8006e2c:	f043 0301 	orr.w	r3, r3, #1
 8006e30:	6323      	str	r3, [r4, #48]	; 0x30
 8006e32:	6b23      	ldr	r3, [r4, #48]	; 0x30
 8006e34:	b087      	sub	sp, #28
 8006e36:	f043 0304 	orr.w	r3, r3, #4
 8006e3a:	6323      	str	r3, [r4, #48]	; 0x30
 8006e3c:	2500      	movs	r5, #0
 8006e3e:	a901      	add	r1, sp, #4
 8006e40:	f44f 53c0 	mov.w	r3, #6144	; 0x1800
 8006e44:	f04f 0903 	mov.w	r9, #3
 8006e48:	2702      	movs	r7, #2
 8006e4a:	f04f 080a 	mov.w	r8, #10
 8006e4e:	2601      	movs	r6, #1
 8006e50:	9301      	str	r3, [sp, #4]
 8006e52:	f8cd 9010 	str.w	r9, [sp, #16]
 8006e56:	9702      	str	r7, [sp, #8]
 8006e58:	9503      	str	r5, [sp, #12]
 8006e5a:	f8cd 8014 	str.w	r8, [sp, #20]
 8006e5e:	f7fc fdab 	bl	80039b8 <HAL_GPIO_Init>
 8006e62:	f44f 6280 	mov.w	r2, #1024	; 0x400
 8006e66:	2312      	movs	r3, #18
 8006e68:	a901      	add	r1, sp, #4
 8006e6a:	4813      	ldr	r0, [pc, #76]	; (8006eb8 <HAL_HCD_MspInit+0xa0>)
 8006e6c:	9201      	str	r2, [sp, #4]
 8006e6e:	9302      	str	r3, [sp, #8]
 8006e70:	f8cd 9010 	str.w	r9, [sp, #16]
 8006e74:	f8cd 8014 	str.w	r8, [sp, #20]
 8006e78:	9603      	str	r6, [sp, #12]
 8006e7a:	f7fc fd9d 	bl	80039b8 <HAL_GPIO_Init>
 8006e7e:	a901      	add	r1, sp, #4
 8006e80:	480e      	ldr	r0, [pc, #56]	; (8006ebc <HAL_HCD_MspInit+0xa4>)
 8006e82:	9704      	str	r7, [sp, #16]
 8006e84:	9601      	str	r6, [sp, #4]
 8006e86:	9602      	str	r6, [sp, #8]
 8006e88:	9503      	str	r5, [sp, #12]
 8006e8a:	f7fc fd95 	bl	80039b8 <HAL_GPIO_Init>
 8006e8e:	6b63      	ldr	r3, [r4, #52]	; 0x34
 8006e90:	f043 0380 	orr.w	r3, r3, #128	; 0x80
 8006e94:	6363      	str	r3, [r4, #52]	; 0x34
 8006e96:	6c63      	ldr	r3, [r4, #68]	; 0x44
 8006e98:	f443 4380 	orr.w	r3, r3, #16384	; 0x4000
 8006e9c:	462a      	mov	r2, r5
 8006e9e:	6463      	str	r3, [r4, #68]	; 0x44
 8006ea0:	2106      	movs	r1, #6
 8006ea2:	2043      	movs	r0, #67	; 0x43
 8006ea4:	f7fb fc30 	bl	8002708 <HAL_NVIC_SetPriority>
 8006ea8:	2043      	movs	r0, #67	; 0x43
 8006eaa:	f7fb fc63 	bl	8002774 <HAL_NVIC_EnableIRQ>
 8006eae:	b007      	add	sp, #28
 8006eb0:	e8bd 83f0 	ldmia.w	sp!, {r4, r5, r6, r7, r8, r9, pc}
 8006eb4:	40023800 	.word	0x40023800
 8006eb8:	40020000 	.word	0x40020000
 8006ebc:	40020800 	.word	0x40020800

08006ec0 <HAL_HCD_SOF_Callback>:
HAL_HCD_SOF_Callback():
 8006ec0:	f8d0 028c 	ldr.w	r0, [r0, #652]	; 0x28c
 8006ec4:	f7fa bc54 	b.w	8001770 <USBH_LL_IncTimer>

08006ec8 <HAL_HCD_Connect_Callback>:
HAL_HCD_Connect_Callback():
 8006ec8:	f8d0 028c 	ldr.w	r0, [r0, #652]	; 0x28c
 8006ecc:	f7fa bc60 	b.w	8001790 <USBH_LL_Connect>

08006ed0 <HAL_HCD_Disconnect_Callback>:
HAL_HCD_Disconnect_Callback():
 8006ed0:	f8d0 028c 	ldr.w	r0, [r0, #652]	; 0x28c
 8006ed4:	f7fa bc74 	b.w	80017c0 <USBH_LL_Disconnect>

08006ed8 <HAL_HCD_HC_NotifyURBChange_Callback>:
HAL_HCD_HC_NotifyURBChange_Callback():
 8006ed8:	4770      	bx	lr
 8006eda:	bf00      	nop

08006edc <USBH_LL_Init>:
USBH_LL_Init():
 8006edc:	b5f8      	push	{r3, r4, r5, r6, r7, lr}
 8006ede:	2100      	movs	r1, #0
 8006ee0:	4c12      	ldr	r4, [pc, #72]	; (8006f2c <USBH_LL_Init+0x50>)
 8006ee2:	4606      	mov	r6, r0
 8006ee4:	460a      	mov	r2, r1
 8006ee6:	f04f 30ff 	mov.w	r0, #4294967295
 8006eea:	f7fb fc0d 	bl	8002708 <HAL_NVIC_SetPriority>
 8006eee:	2500      	movs	r5, #0
 8006ef0:	2202      	movs	r2, #2
 8006ef2:	2303      	movs	r3, #3
 8006ef4:	210b      	movs	r1, #11
 8006ef6:	f8c6 4610 	str.w	r4, [r6, #1552]	; 0x610
 8006efa:	f04f 47a0 	mov.w	r7, #1342177280	; 0x50000000
 8006efe:	4620      	mov	r0, r4
 8006f00:	60a1      	str	r1, [r4, #8]
 8006f02:	61a2      	str	r2, [r4, #24]
 8006f04:	60e3      	str	r3, [r4, #12]
 8006f06:	f8c4 628c 	str.w	r6, [r4, #652]	; 0x28c
 8006f0a:	6027      	str	r7, [r4, #0]
 8006f0c:	6125      	str	r5, [r4, #16]
 8006f0e:	6225      	str	r5, [r4, #32]
 8006f10:	61e5      	str	r5, [r4, #28]
 8006f12:	6265      	str	r5, [r4, #36]	; 0x24
 8006f14:	f7fc feda 	bl	8003ccc <HAL_HCD_Init>
 8006f18:	4620      	mov	r0, r4
 8006f1a:	f7fd fb83 	bl	8004624 <HAL_HCD_GetCurrentFrame>
 8006f1e:	4601      	mov	r1, r0
 8006f20:	4630      	mov	r0, r6
 8006f22:	f7fa fc21 	bl	8001768 <USBH_LL_SetTimer>
 8006f26:	4628      	mov	r0, r5
 8006f28:	bdf8      	pop	{r3, r4, r5, r6, r7, pc}
 8006f2a:	bf00      	nop
 8006f2c:	2001df90 	.word	0x2001df90

08006f30 <USBH_LL_Start>:
USBH_LL_Start():
 8006f30:	b508      	push	{r3, lr}
 8006f32:	f8d0 0610 	ldr.w	r0, [r0, #1552]	; 0x610
 8006f36:	f7fd fb3b 	bl	80045b0 <HAL_HCD_Start>
 8006f3a:	2000      	movs	r0, #0
 8006f3c:	bd08      	pop	{r3, pc}
 8006f3e:	bf00      	nop

08006f40 <USBH_LL_Stop>:
USBH_LL_Stop():
 8006f40:	b508      	push	{r3, lr}
 8006f42:	f8d0 0610 	ldr.w	r0, [r0, #1552]	; 0x610
 8006f46:	f7fd fb49 	bl	80045dc <HAL_HCD_Stop>
 8006f4a:	2000      	movs	r0, #0
 8006f4c:	bd08      	pop	{r3, pc}
 8006f4e:	bf00      	nop

08006f50 <USBH_LL_GetSpeed>:
USBH_LL_GetSpeed():
 8006f50:	b508      	push	{r3, lr}
 8006f52:	f8d0 0610 	ldr.w	r0, [r0, #1552]	; 0x610
 8006f56:	f7fd fb69 	bl	800462c <HAL_HCD_GetCurrentSpeed>
 8006f5a:	2802      	cmp	r0, #2
 8006f5c:	bf9a      	itte	ls
 8006f5e:	4b02      	ldrls	r3, [pc, #8]	; (8006f68 <USBH_LL_GetSpeed+0x18>)
 8006f60:	5c18      	ldrbls	r0, [r3, r0]
 8006f62:	2001      	movhi	r0, #1
 8006f64:	bd08      	pop	{r3, pc}
 8006f66:	bf00      	nop
 8006f68:	0800ede0 	.word	0x0800ede0

08006f6c <USBH_LL_ResetPort>:
USBH_LL_ResetPort():
 8006f6c:	b508      	push	{r3, lr}
 8006f6e:	f8d0 0610 	ldr.w	r0, [r0, #1552]	; 0x610
 8006f72:	f7fd fb45 	bl	8004600 <HAL_HCD_ResetPort>
 8006f76:	2000      	movs	r0, #0
 8006f78:	bd08      	pop	{r3, pc}
 8006f7a:	bf00      	nop

08006f7c <USBH_LL_GetLastXferSize>:
USBH_LL_GetLastXferSize():
 8006f7c:	f8d0 0610 	ldr.w	r0, [r0, #1552]	; 0x610
 8006f80:	f7fd bb4a 	b.w	8004618 <HAL_HCD_HC_GetXferCount>

08006f84 <USBH_LL_OpenPipe>:
USBH_LL_OpenPipe():
 8006f84:	b570      	push	{r4, r5, r6, lr}
 8006f86:	b084      	sub	sp, #16
 8006f88:	f8d0 0610 	ldr.w	r0, [r0, #1552]	; 0x610
 8006f8c:	f89d 6020 	ldrb.w	r6, [sp, #32]
 8006f90:	f89d 5024 	ldrb.w	r5, [sp, #36]	; 0x24
 8006f94:	f8bd 4028 	ldrh.w	r4, [sp, #40]	; 0x28
 8006f98:	9600      	str	r6, [sp, #0]
 8006f9a:	9501      	str	r5, [sp, #4]
 8006f9c:	9402      	str	r4, [sp, #8]
 8006f9e:	f7fc fe4d 	bl	8003c3c <HAL_HCD_HC_Init>
 8006fa2:	2000      	movs	r0, #0
 8006fa4:	b004      	add	sp, #16
 8006fa6:	bd70      	pop	{r4, r5, r6, pc}

08006fa8 <USBH_LL_ClosePipe>:
USBH_LL_ClosePipe():
 8006fa8:	b508      	push	{r3, lr}
 8006faa:	f8d0 0610 	ldr.w	r0, [r0, #1552]	; 0x610
 8006fae:	f7fc fe7b 	bl	8003ca8 <HAL_HCD_HC_Halt>
 8006fb2:	2000      	movs	r0, #0
 8006fb4:	bd08      	pop	{r3, pc}
 8006fb6:	bf00      	nop

08006fb8 <USBH_LL_SubmitURB>:
USBH_LL_SubmitURB():
 8006fb8:	b5f0      	push	{r4, r5, r6, r7, lr}
 8006fba:	b085      	sub	sp, #20
 8006fbc:	f8d0 0610 	ldr.w	r0, [r0, #1552]	; 0x610
 8006fc0:	f89d 7028 	ldrb.w	r7, [sp, #40]	; 0x28
 8006fc4:	9e0b      	ldr	r6, [sp, #44]	; 0x2c
 8006fc6:	f8bd 5030 	ldrh.w	r5, [sp, #48]	; 0x30
 8006fca:	f89d 4034 	ldrb.w	r4, [sp, #52]	; 0x34
 8006fce:	9700      	str	r7, [sp, #0]
 8006fd0:	9601      	str	r6, [sp, #4]
 8006fd2:	9502      	str	r5, [sp, #8]
 8006fd4:	9403      	str	r4, [sp, #12]
 8006fd6:	f7fc feb3 	bl	8003d40 <HAL_HCD_HC_SubmitRequest>
 8006fda:	2000      	movs	r0, #0
 8006fdc:	b005      	add	sp, #20
 8006fde:	bdf0      	pop	{r4, r5, r6, r7, pc}

08006fe0 <USBH_LL_GetURBState>:
USBH_LL_GetURBState():
 8006fe0:	f8d0 0610 	ldr.w	r0, [r0, #1552]	; 0x610
 8006fe4:	f7fd bb10 	b.w	8004608 <HAL_HCD_HC_GetURBState>

08006fe8 <USBH_LL_DriverVBUS>:
USBH_LL_DriverVBUS():
 8006fe8:	b508      	push	{r3, lr}
 8006fea:	b149      	cbz	r1, 8007000 <USBH_LL_DriverVBUS+0x18>
 8006fec:	2101      	movs	r1, #1
 8006fee:	2200      	movs	r2, #0
 8006ff0:	4808      	ldr	r0, [pc, #32]	; (8007014 <USBH_LL_DriverVBUS+0x2c>)
 8006ff2:	f7fc fe0d 	bl	8003c10 <HAL_GPIO_WritePin>
 8006ff6:	20c8      	movs	r0, #200	; 0xc8
 8006ff8:	f7fb fb66 	bl	80026c8 <HAL_Delay>
 8006ffc:	2000      	movs	r0, #0
 8006ffe:	bd08      	pop	{r3, pc}
 8007000:	2101      	movs	r1, #1
 8007002:	460a      	mov	r2, r1
 8007004:	4803      	ldr	r0, [pc, #12]	; (8007014 <USBH_LL_DriverVBUS+0x2c>)
 8007006:	f7fc fe03 	bl	8003c10 <HAL_GPIO_WritePin>
 800700a:	20c8      	movs	r0, #200	; 0xc8
 800700c:	f7fb fb5c 	bl	80026c8 <HAL_Delay>
 8007010:	2000      	movs	r0, #0
 8007012:	bd08      	pop	{r3, pc}
 8007014:	40020800 	.word	0x40020800

08007018 <USBH_LL_SetToggle>:
USBH_LL_SetToggle():
 8007018:	4b07      	ldr	r3, [pc, #28]	; (8007038 <USBH_LL_SetToggle+0x20>)
 800701a:	eb01 0181 	add.w	r1, r1, r1, lsl #2
 800701e:	eb03 01c1 	add.w	r1, r3, r1, lsl #3
 8007022:	f891 3033 	ldrb.w	r3, [r1, #51]	; 0x33
 8007026:	b91b      	cbnz	r3, 8007030 <USBH_LL_SetToggle+0x18>
 8007028:	f881 2049 	strb.w	r2, [r1, #73]	; 0x49
 800702c:	2000      	movs	r0, #0
 800702e:	4770      	bx	lr
 8007030:	f881 2048 	strb.w	r2, [r1, #72]	; 0x48
 8007034:	2000      	movs	r0, #0
 8007036:	4770      	bx	lr
 8007038:	2001df90 	.word	0x2001df90

0800703c <USBH_Delay>:
USBH_Delay():
 800703c:	f7fb bb44 	b.w	80026c8 <HAL_Delay>

08007040 <MagicFX.part.0>:
MagicFX.part.0():
 8007040:	b508      	push	{r3, lr}
 8007042:	207f      	movs	r0, #127	; 0x7f
 8007044:	f005 f938 	bl	800c2b8 <Delay_switch>
 8007048:	f004 fbc6 	bl	800b7d8 <MIDIrandVal>
 800704c:	f002 fa7c 	bl	8009548 <Delay_time_set>
 8007050:	f004 fbc2 	bl	800b7d8 <MIDIrandVal>
 8007054:	f002 fab2 	bl	80095bc <DelayWet_set>
 8007058:	f004 fbbe 	bl	800b7d8 <MIDIrandVal>
 800705c:	f002 fa9e 	bl	800959c <DelayFeedback_set>
 8007060:	207f      	movs	r0, #127	; 0x7f
 8007062:	f005 f93d 	bl	800c2e0 <Chorus_switch>
 8007066:	f004 fbb7 	bl	800b7d8 <MIDIrandVal>
 800706a:	f001 ff2d 	bl	8008ec8 <ChorusRate_set>
 800706e:	f004 fbb3 	bl	800b7d8 <MIDIrandVal>
 8007072:	f001 ff4b 	bl	8008f0c <ChorusSecondRate_set>
 8007076:	f004 fbaf 	bl	800b7d8 <MIDIrandVal>
 800707a:	f001 ff69 	bl	8008f50 <ChorusDelay_set>
 800707e:	f004 fbab 	bl	800b7d8 <MIDIrandVal>
 8007082:	f001 ff97 	bl	8008fb4 <ChorusSweep_set>
 8007086:	f004 fba7 	bl	800b7d8 <MIDIrandVal>
 800708a:	f001 ff77 	bl	8008f7c <ChorusFeedback_set>
 800708e:	f004 fba3 	bl	800b7d8 <MIDIrandVal>
 8007092:	f001 ffa5 	bl	8008fe0 <ChorusMode_switch>
 8007096:	f004 fb9f 	bl	800b7d8 <MIDIrandVal>
 800709a:	f001 ffc1 	bl	8009020 <ChorusFDBsign_switch>
 800709e:	207f      	movs	r0, #127	; 0x7f
 80070a0:	f005 f928 	bl	800c2f4 <Phaser_switch>
 80070a4:	f004 fb98 	bl	800b7d8 <MIDIrandVal>
 80070a8:	f004 fa64 	bl	800b574 <Phaser_Rate_set>
 80070ac:	f004 fb94 	bl	800b7d8 <MIDIrandVal>
 80070b0:	f004 fa86 	bl	800b5c0 <Phaser_Feedback_set>
 80070b4:	f004 fb90 	bl	800b7d8 <MIDIrandVal>
 80070b8:	e8bd 4008 	ldmia.w	sp!, {r3, lr}
 80070bc:	f004 ba96 	b.w	800b5ec <Phaser_Wet_set>

080070c0 <MagicPatch.part.1>:
MagicPatch.part.1():
 80070c0:	b508      	push	{r3, lr}
 80070c2:	f004 fb89 	bl	800b7d8 <MIDIrandVal>
 80070c6:	f004 fe7d 	bl	800bdc4 <seq_tempo_set>
 80070ca:	f004 fb85 	bl	800b7d8 <MIDIrandVal>
 80070ce:	f004 fe61 	bl	800bd94 <seq_freqMax_set>
 80070d2:	f004 fb81 	bl	800b7d8 <MIDIrandVal>
 80070d6:	f004 fe1b 	bl	800bd10 <seq_scale_set>
 80070da:	f004 fb7d 	bl	800b7d8 <MIDIrandVal>
 80070de:	f004 fe41 	bl	800bd64 <seq_switchMovingSeq>
 80070e2:	f004 fb79 	bl	800b7d8 <MIDIrandVal>
 80070e6:	f004 fe47 	bl	800bd78 <seq_switchMute>
 80070ea:	f004 fb75 	bl	800b7d8 <MIDIrandVal>
 80070ee:	f004 fdd7 	bl	800bca0 <seq_gateTime_set>
 80070f2:	f007 fc71 	bl	800e9d8 <rand>
 80070f6:	4b52      	ldr	r3, [pc, #328]	; (8007240 <MagicPatch.part.1+0x180>)
 80070f8:	fb83 2300 	smull	r2, r3, r3, r0
 80070fc:	eba3 73e0 	sub.w	r3, r3, r0, asr #31
 8007100:	eb03 0343 	add.w	r3, r3, r3, lsl #1
 8007104:	1ac0      	subs	r0, r0, r3
 8007106:	b240      	sxtb	r0, r0
 8007108:	f004 ff7c 	bl	800c004 <autoSound_set>
 800710c:	f004 fb64 	bl	800b7d8 <MIDIrandVal>
 8007110:	f005 f8fa 	bl	800c308 <Sound_set>
 8007114:	f004 ffb0 	bl	800c078 <soundNumber_get>
 8007118:	280e      	cmp	r0, #14
 800711a:	d05e      	beq.n	80071da <MagicPatch.part.1+0x11a>
 800711c:	280d      	cmp	r0, #13
 800711e:	d07d      	beq.n	800721c <MagicPatch.part.1+0x15c>
 8007120:	f004 fb5a 	bl	800b7d8 <MIDIrandVal>
 8007124:	f004 fbd4 	bl	800b8d0 <Filter1Freq_set>
 8007128:	f004 fb56 	bl	800b7d8 <MIDIrandVal>
 800712c:	f004 fc0c 	bl	800b948 <Filter1Res_set>
 8007130:	f004 fb52 	bl	800b7d8 <MIDIrandVal>
 8007134:	f004 fc28 	bl	800b988 <Filter1Drive_set>
 8007138:	f004 fb4e 	bl	800b7d8 <MIDIrandVal>
 800713c:	f004 fc3a 	bl	800b9b4 <Filter1Type_set>
 8007140:	f004 fb4a 	bl	800b7d8 <MIDIrandVal>
 8007144:	f004 ffd4 	bl	800c0f0 <Filt1LFO_amp_set>
 8007148:	f004 fb46 	bl	800b7d8 <MIDIrandVal>
 800714c:	f004 ffe0 	bl	800c110 <Filt1LFO_freq_set>
 8007150:	f004 fb42 	bl	800b7d8 <MIDIrandVal>
 8007154:	f004 fc42 	bl	800b9dc <Filter2Freq_set>
 8007158:	f004 fb3e 	bl	800b7d8 <MIDIrandVal>
 800715c:	f004 fc7a 	bl	800ba54 <Filter2Res_set>
 8007160:	f004 fb3a 	bl	800b7d8 <MIDIrandVal>
 8007164:	f004 fc96 	bl	800ba94 <Filter2Drive_set>
 8007168:	f004 fb36 	bl	800b7d8 <MIDIrandVal>
 800716c:	f004 fca8 	bl	800bac0 <Filter2Type_set>
 8007170:	f004 fb32 	bl	800b7d8 <MIDIrandVal>
 8007174:	f004 ffdc 	bl	800c130 <Filt2LFO_amp_set>
 8007178:	f004 fb2e 	bl	800b7d8 <MIDIrandVal>
 800717c:	f004 ffe8 	bl	800c150 <Filt2LFO_freq_set>
 8007180:	f004 fb2a 	bl	800b7d8 <MIDIrandVal>
 8007184:	f005 f8a2 	bl	800c2cc <Filter_Random_switch>
 8007188:	eddf 0a2e 	vldr	s1, [pc, #184]	; 8007244 <MagicPatch.part.1+0x184>
 800718c:	ed9f 0a2e 	vldr	s0, [pc, #184]	; 8007248 <MagicPatch.part.1+0x188>
 8007190:	f004 fb0c 	bl	800b7ac <frand_a_b>
 8007194:	f005 fce6 	bl	800cb64 <lrintf>
 8007198:	b2c0      	uxtb	r0, r0
 800719a:	f000 fae7 	bl	800776c <AttTime_set>
 800719e:	f004 fb1b 	bl	800b7d8 <MIDIrandVal>
 80071a2:	f000 fb03 	bl	80077ac <DecTime_set>
 80071a6:	f004 fb17 	bl	800b7d8 <MIDIrandVal>
 80071aa:	f000 fb25 	bl	80077f8 <SustLevel_set>
 80071ae:	f004 fb13 	bl	800b7d8 <MIDIrandVal>
 80071b2:	f000 fb31 	bl	8007818 <RelTime_set>
 80071b6:	f004 fb0f 	bl	800b7d8 <MIDIrandVal>
 80071ba:	f004 ffd9 	bl	800c170 <VibratoAmp_set>
 80071be:	f004 fb0b 	bl	800b7d8 <MIDIrandVal>
 80071c2:	f004 ffe5 	bl	800c190 <VibratoFreq_set>
 80071c6:	f004 fb07 	bl	800b7d8 <MIDIrandVal>
 80071ca:	f004 ff71 	bl	800c0b0 <AmpLFO_amp_set>
 80071ce:	f004 fb03 	bl	800b7d8 <MIDIrandVal>
 80071d2:	e8bd 4008 	ldmia.w	sp!, {r3, lr}
 80071d6:	f004 bf7b 	b.w	800c0d0 <AmpLFO_freq_set>
 80071da:	f004 fafd 	bl	800b7d8 <MIDIrandVal>
 80071de:	f005 f8b5 	bl	800c34c <FM_OP1_freq_set>
 80071e2:	f004 faf9 	bl	800b7d8 <MIDIrandVal>
 80071e6:	f005 f8b7 	bl	800c358 <FM_OP1_modInd_set>
 80071ea:	f004 faf5 	bl	800b7d8 <MIDIrandVal>
 80071ee:	f005 f8b9 	bl	800c364 <FM_OP2_freq_set>
 80071f2:	f004 faf1 	bl	800b7d8 <MIDIrandVal>
 80071f6:	f005 f8ff 	bl	800c3f8 <FM_OP2_modInd_set>
 80071fa:	f004 faed 	bl	800b7d8 <MIDIrandVal>
 80071fe:	f005 f901 	bl	800c404 <FM_OP3_freq_set>
 8007202:	f004 fae9 	bl	800b7d8 <MIDIrandVal>
 8007206:	f005 f90f 	bl	800c428 <FM_OP3_modInd_set>
 800720a:	f004 fae5 	bl	800b7d8 <MIDIrandVal>
 800720e:	f005 f949 	bl	800c4a4 <FM_OP4_freq_set>
 8007212:	f004 fae1 	bl	800b7d8 <MIDIrandVal>
 8007216:	f005 f957 	bl	800c4c8 <FM_OP4_modInd_set>
 800721a:	e781      	b.n	8007120 <MagicPatch.part.1+0x60>
 800721c:	f004 fadc 	bl	800b7d8 <MIDIrandVal>
 8007220:	f002 fa3c 	bl	800969c <Drifter_amp_set>
 8007224:	f004 fad8 	bl	800b7d8 <MIDIrandVal>
 8007228:	f002 fa4e 	bl	80096c8 <Drifter_minFreq_set>
 800722c:	f004 fad4 	bl	800b7d8 <MIDIrandVal>
 8007230:	f002 fa6a 	bl	8009708 <Drifter_maxFreq_set>
 8007234:	f004 fad0 	bl	800b7d8 <MIDIrandVal>
 8007238:	f002 fd84 	bl	8009d44 <Drifter_centralFreq_set>
 800723c:	e770      	b.n	8007120 <MagicPatch.part.1+0x60>
 800723e:	bf00      	nop
 8007240:	55555556 	.word	0x55555556
 8007244:	414b3333 	.word	0x414b3333
 8007248:	00000000 	.word	0x00000000

0800724c <MIDI_Application>:
MIDI_Application():
 800724c:	b510      	push	{r4, lr}
 800724e:	4c0b      	ldr	r4, [pc, #44]	; (800727c <MIDI_Application+0x30>)
 8007250:	7823      	ldrb	r3, [r4, #0]
 8007252:	2b02      	cmp	r3, #2
 8007254:	d009      	beq.n	800726a <MIDI_Application+0x1e>
 8007256:	2b04      	cmp	r3, #4
 8007258:	d000      	beq.n	800725c <MIDI_Application+0x10>
 800725a:	bd10      	pop	{r4, pc}
 800725c:	2300      	movs	r3, #0
 800725e:	7023      	strb	r3, [r4, #0]
 8007260:	4807      	ldr	r0, [pc, #28]	; (8007280 <MIDI_Application+0x34>)
 8007262:	e8bd 4010 	ldmia.w	sp!, {r4, lr}
 8007266:	f7f9 bd99 	b.w	8000d9c <USBH_MIDI_Stop>
 800726a:	4805      	ldr	r0, [pc, #20]	; (8007280 <MIDI_Application+0x34>)
 800726c:	4905      	ldr	r1, [pc, #20]	; (8007284 <MIDI_Application+0x38>)
 800726e:	2240      	movs	r2, #64	; 0x40
 8007270:	f7f9 fdb8 	bl	8000de4 <USBH_MIDI_Receive>
 8007274:	2303      	movs	r3, #3
 8007276:	7023      	strb	r3, [r4, #0]
 8007278:	bd10      	pop	{r4, pc}
 800727a:	bf00      	nop
 800727c:	2001de51 	.word	0x2001de51
 8007280:	2001f204 	.word	0x2001f204
 8007284:	2001e220 	.word	0x2001e220

08007288 <MagicFX>:
MagicFX():
 8007288:	ee07 0a90 	vmov	s15, r0
 800728c:	eeb8 7ae7 	vcvt.f32.s32	s14, s15
 8007290:	eddf 7a04 	vldr	s15, [pc, #16]	; 80072a4 <MagicFX+0x1c>
 8007294:	eeb4 7a67 	vcmp.f32	s14, s15
 8007298:	eef1 fa10 	vmrs	APSR_nzcv, fpscr
 800729c:	d000      	beq.n	80072a0 <MagicFX+0x18>
 800729e:	4770      	bx	lr
 80072a0:	f7ff bece 	b.w	8007040 <MagicFX.part.0>
 80072a4:	42fe0000 	.word	0x42fe0000

080072a8 <MagicPatch>:
MagicPatch():
 80072a8:	ee07 0a90 	vmov	s15, r0
 80072ac:	eeb8 7ae7 	vcvt.f32.s32	s14, s15
 80072b0:	eddf 7a04 	vldr	s15, [pc, #16]	; 80072c4 <MagicPatch+0x1c>
 80072b4:	eeb4 7a67 	vcmp.f32	s14, s15
 80072b8:	eef1 fa10 	vmrs	APSR_nzcv, fpscr
 80072bc:	d000      	beq.n	80072c0 <MagicPatch+0x18>
 80072be:	4770      	bx	lr
 80072c0:	f7ff befe 	b.w	80070c0 <MagicPatch.part.1>
 80072c4:	42fe0000 	.word	0x42fe0000

080072c8 <USBH_MIDI_ReceiveCallback>:
USBH_MIDI_ReceiveCallback():
 80072c8:	b538      	push	{r3, r4, r5, lr}
 80072ca:	48de      	ldr	r0, [pc, #888]	; (8007644 <USBH_MIDI_ReceiveCallback+0x37c>)
 80072cc:	ed2d 8b02 	vpush	{d8}
 80072d0:	f7f9 fd7a 	bl	8000dc8 <USBH_MIDI_GetLastReceivedDataSize>
 80072d4:	f3c0 048f 	ubfx	r4, r0, #2, #16
 80072d8:	b944      	cbnz	r4, 80072ec <USBH_MIDI_ReceiveCallback+0x24>
 80072da:	ecbd 8b02 	vpop	{d8}
 80072de:	48d9      	ldr	r0, [pc, #868]	; (8007644 <USBH_MIDI_ReceiveCallback+0x37c>)
 80072e0:	49d9      	ldr	r1, [pc, #868]	; (8007648 <USBH_MIDI_ReceiveCallback+0x380>)
 80072e2:	2240      	movs	r2, #64	; 0x40
 80072e4:	e8bd 4038 	ldmia.w	sp!, {r3, r4, r5, lr}
 80072e8:	f7f9 bd7c 	b.w	8000de4 <USBH_MIDI_Receive>
 80072ec:	1e65      	subs	r5, r4, #1
 80072ee:	b2ad      	uxth	r5, r5
 80072f0:	4cd5      	ldr	r4, [pc, #852]	; (8007648 <USBH_MIDI_ReceiveCallback+0x380>)
 80072f2:	ed9f 8ad6 	vldr	s16, [pc, #856]	; 800764c <USBH_MIDI_ReceiveCallback+0x384>
 80072f6:	2003      	movs	r0, #3
 80072f8:	3501      	adds	r5, #1
 80072fa:	f7ff fb45 	bl	8006988 <BSP_LED_Toggle>
 80072fe:	eb04 0585 	add.w	r5, r4, r5, lsl #2
 8007302:	e001      	b.n	8007308 <USBH_MIDI_ReceiveCallback+0x40>
 8007304:	42a5      	cmp	r5, r4
 8007306:	d0e8      	beq.n	80072da <USBH_MIDI_ReceiveCallback+0x12>
 8007308:	7863      	ldrb	r3, [r4, #1]
 800730a:	78a2      	ldrb	r2, [r4, #2]
 800730c:	78e0      	ldrb	r0, [r4, #3]
 800730e:	f003 03f0 	and.w	r3, r3, #240	; 0xf0
 8007312:	2bb0      	cmp	r3, #176	; 0xb0
 8007314:	f104 0404 	add.w	r4, r4, #4
 8007318:	d1f4      	bne.n	8007304 <USBH_MIDI_ReceiveCallback+0x3c>
 800731a:	3a02      	subs	r2, #2
 800731c:	2a75      	cmp	r2, #117	; 0x75
 800731e:	d8f1      	bhi.n	8007304 <USBH_MIDI_ReceiveCallback+0x3c>
 8007320:	a301      	add	r3, pc, #4	; (adr r3, 8007328 <USBH_MIDI_ReceiveCallback+0x60>)
 8007322:	f853 f022 	ldr.w	pc, [r3, r2, lsl #2]
 8007326:	bf00      	nop
 8007328:	080076d5 	.word	0x080076d5
 800732c:	080076db 	.word	0x080076db
 8007330:	080076e1 	.word	0x080076e1
 8007334:	080076e7 	.word	0x080076e7
 8007338:	080076ed 	.word	0x080076ed
 800733c:	08007305 	.word	0x08007305
 8007340:	0800753b 	.word	0x0800753b
 8007344:	08007541 	.word	0x08007541
 8007348:	08007305 	.word	0x08007305
 800734c:	08007305 	.word	0x08007305
 8007350:	08007501 	.word	0x08007501
 8007354:	08007705 	.word	0x08007705
 8007358:	0800770b 	.word	0x0800770b
 800735c:	08007711 	.word	0x08007711
 8007360:	080075eb 	.word	0x080075eb
 8007364:	080075f1 	.word	0x080075f1
 8007368:	080075f7 	.word	0x080075f7
 800736c:	080075fd 	.word	0x080075fd
 8007370:	08007603 	.word	0x08007603
 8007374:	08007609 	.word	0x08007609
 8007378:	0800760f 	.word	0x0800760f
 800737c:	08007615 	.word	0x08007615
 8007380:	0800761b 	.word	0x0800761b
 8007384:	08007621 	.word	0x08007621
 8007388:	08007627 	.word	0x08007627
 800738c:	0800762d 	.word	0x0800762d
 8007390:	08007633 	.word	0x08007633
 8007394:	08007639 	.word	0x08007639
 8007398:	0800763f 	.word	0x0800763f
 800739c:	08007651 	.word	0x08007651
 80073a0:	08007305 	.word	0x08007305
 80073a4:	080075a7 	.word	0x080075a7
 80073a8:	080075b3 	.word	0x080075b3
 80073ac:	080075bd 	.word	0x080075bd
 80073b0:	080075c9 	.word	0x080075c9
 80073b4:	0800759b 	.word	0x0800759b
 80073b8:	08007507 	.word	0x08007507
 80073bc:	08007521 	.word	0x08007521
 80073c0:	080075a1 	.word	0x080075a1
 80073c4:	080075d3 	.word	0x080075d3
 80073c8:	080075d9 	.word	0x080075d9
 80073cc:	080075df 	.word	0x080075df
 80073d0:	08007305 	.word	0x08007305
 80073d4:	08007305 	.word	0x08007305
 80073d8:	08007305 	.word	0x08007305
 80073dc:	08007305 	.word	0x08007305
 80073e0:	08007305 	.word	0x08007305
 80073e4:	08007305 	.word	0x08007305
 80073e8:	080075e5 	.word	0x080075e5
 80073ec:	0800758f 	.word	0x0800758f
 80073f0:	08007595 	.word	0x08007595
 80073f4:	0800753b 	.word	0x0800753b
 80073f8:	08007541 	.word	0x08007541
 80073fc:	08007501 	.word	0x08007501
 8007400:	08007577 	.word	0x08007577
 8007404:	0800757d 	.word	0x0800757d
 8007408:	08007583 	.word	0x08007583
 800740c:	08007589 	.word	0x08007589
 8007410:	08007547 	.word	0x08007547
 8007414:	0800754d 	.word	0x0800754d
 8007418:	08007553 	.word	0x08007553
 800741c:	08007559 	.word	0x08007559
 8007420:	08007305 	.word	0x08007305
 8007424:	0800755f 	.word	0x0800755f
 8007428:	08007565 	.word	0x08007565
 800742c:	0800756b 	.word	0x0800756b
 8007430:	08007305 	.word	0x08007305
 8007434:	08007305 	.word	0x08007305
 8007438:	08007305 	.word	0x08007305
 800743c:	08007305 	.word	0x08007305
 8007440:	08007305 	.word	0x08007305
 8007444:	08007305 	.word	0x08007305
 8007448:	08007305 	.word	0x08007305
 800744c:	08007305 	.word	0x08007305
 8007450:	08007571 	.word	0x08007571
 8007454:	08007657 	.word	0x08007657
 8007458:	08007305 	.word	0x08007305
 800745c:	08007305 	.word	0x08007305
 8007460:	08007305 	.word	0x08007305
 8007464:	08007507 	.word	0x08007507
 8007468:	08007521 	.word	0x08007521
 800746c:	08007305 	.word	0x08007305
 8007470:	08007305 	.word	0x08007305
 8007474:	08007669 	.word	0x08007669
 8007478:	0800766f 	.word	0x0800766f
 800747c:	08007675 	.word	0x08007675
 8007480:	0800767b 	.word	0x0800767b
 8007484:	08007681 	.word	0x08007681
 8007488:	08007687 	.word	0x08007687
 800748c:	0800768d 	.word	0x0800768d
 8007490:	08007693 	.word	0x08007693
 8007494:	08007699 	.word	0x08007699
 8007498:	0800769f 	.word	0x0800769f
 800749c:	080076a5 	.word	0x080076a5
 80074a0:	080076ab 	.word	0x080076ab
 80074a4:	080076b1 	.word	0x080076b1
 80074a8:	08007305 	.word	0x08007305
 80074ac:	08007305 	.word	0x08007305
 80074b0:	08007305 	.word	0x08007305
 80074b4:	08007305 	.word	0x08007305
 80074b8:	080076b7 	.word	0x080076b7
 80074bc:	080076bd 	.word	0x080076bd
 80074c0:	08007305 	.word	0x08007305
 80074c4:	080076c3 	.word	0x080076c3
 80074c8:	080076c9 	.word	0x080076c9
 80074cc:	08007305 	.word	0x08007305
 80074d0:	080076cf 	.word	0x080076cf
 80074d4:	08007663 	.word	0x08007663
 80074d8:	0800765d 	.word	0x0800765d
 80074dc:	08007305 	.word	0x08007305
 80074e0:	08007305 	.word	0x08007305
 80074e4:	08007305 	.word	0x08007305
 80074e8:	08007305 	.word	0x08007305
 80074ec:	08007305 	.word	0x08007305
 80074f0:	08007305 	.word	0x08007305
 80074f4:	080076ff 	.word	0x080076ff
 80074f8:	080076f9 	.word	0x080076f9
 80074fc:	080076f3 	.word	0x080076f3
 8007500:	f004 fa42 	bl	800b988 <Filter1Drive_set>
 8007504:	e6fe      	b.n	8007304 <USBH_MIDI_ReceiveCallback+0x3c>
 8007506:	ee07 0a90 	vmov	s15, r0
 800750a:	eef8 7ae7 	vcvt.f32.s32	s15, s15
 800750e:	eef4 7a48 	vcmp.f32	s15, s16
 8007512:	eef1 fa10 	vmrs	APSR_nzcv, fpscr
 8007516:	f47f aef5 	bne.w	8007304 <USBH_MIDI_ReceiveCallback+0x3c>
 800751a:	f7ff fd91 	bl	8007040 <MagicFX.part.0>
 800751e:	e6f1      	b.n	8007304 <USBH_MIDI_ReceiveCallback+0x3c>
 8007520:	ee07 0a90 	vmov	s15, r0
 8007524:	eef8 7ae7 	vcvt.f32.s32	s15, s15
 8007528:	eef4 7a48 	vcmp.f32	s15, s16
 800752c:	eef1 fa10 	vmrs	APSR_nzcv, fpscr
 8007530:	f47f aee8 	bne.w	8007304 <USBH_MIDI_ReceiveCallback+0x3c>
 8007534:	f7ff fdc4 	bl	80070c0 <MagicPatch.part.1>
 8007538:	e6e4      	b.n	8007304 <USBH_MIDI_ReceiveCallback+0x3c>
 800753a:	f004 f9c9 	bl	800b8d0 <Filter1Freq_set>
 800753e:	e6e1      	b.n	8007304 <USBH_MIDI_ReceiveCallback+0x3c>
 8007540:	f004 fa02 	bl	800b948 <Filter1Res_set>
 8007544:	e6de      	b.n	8007304 <USBH_MIDI_ReceiveCallback+0x3c>
 8007546:	f002 f8bf 	bl	80096c8 <Drifter_minFreq_set>
 800754a:	e6db      	b.n	8007304 <USBH_MIDI_ReceiveCallback+0x3c>
 800754c:	f002 f8dc 	bl	8009708 <Drifter_maxFreq_set>
 8007550:	e6d8      	b.n	8007304 <USBH_MIDI_ReceiveCallback+0x3c>
 8007552:	f002 fbf7 	bl	8009d44 <Drifter_centralFreq_set>
 8007556:	e6d5      	b.n	8007304 <USBH_MIDI_ReceiveCallback+0x3c>
 8007558:	f004 fe7c 	bl	800c254 <SynthOut_amp_set>
 800755c:	e6d2      	b.n	8007304 <USBH_MIDI_ReceiveCallback+0x3c>
 800755e:	f004 fdc7 	bl	800c0f0 <Filt1LFO_amp_set>
 8007562:	e6cf      	b.n	8007304 <USBH_MIDI_ReceiveCallback+0x3c>
 8007564:	f004 fdd4 	bl	800c110 <Filt1LFO_freq_set>
 8007568:	e6cc      	b.n	8007304 <USBH_MIDI_ReceiveCallback+0x3c>
 800756a:	f004 fd8b 	bl	800c084 <DemoMode_toggle>
 800756e:	e6c9      	b.n	8007304 <USBH_MIDI_ReceiveCallback+0x3c>
 8007570:	f004 fd4e 	bl	800c010 <RandSound1>
 8007574:	e6c6      	b.n	8007304 <USBH_MIDI_ReceiveCallback+0x3c>
 8007576:	f004 fa1d 	bl	800b9b4 <Filter1Type_set>
 800757a:	e6c3      	b.n	8007304 <USBH_MIDI_ReceiveCallback+0x3c>
 800757c:	f004 fd98 	bl	800c0b0 <AmpLFO_amp_set>
 8007580:	e6c0      	b.n	8007304 <USBH_MIDI_ReceiveCallback+0x3c>
 8007582:	f004 fda5 	bl	800c0d0 <AmpLFO_freq_set>
 8007586:	e6bd      	b.n	8007304 <USBH_MIDI_ReceiveCallback+0x3c>
 8007588:	f002 f888 	bl	800969c <Drifter_amp_set>
 800758c:	e6ba      	b.n	8007304 <USBH_MIDI_ReceiveCallback+0x3c>
 800758e:	f000 f933 	bl	80077f8 <SustLevel_set>
 8007592:	e6b7      	b.n	8007304 <USBH_MIDI_ReceiveCallback+0x3c>
 8007594:	f000 f940 	bl	8007818 <RelTime_set>
 8007598:	e6b4      	b.n	8007304 <USBH_MIDI_ReceiveCallback+0x3c>
 800759a:	f001 fc29 	bl	8008df0 <Chorus_reset>
 800759e:	e6b1      	b.n	8007304 <USBH_MIDI_ReceiveCallback+0x3c>
 80075a0:	f001 ffa6 	bl	80094f0 <Delay_time_dec>
 80075a4:	e6ae      	b.n	8007304 <USBH_MIDI_ReceiveCallback+0x3c>
 80075a6:	4601      	mov	r1, r0
 80075a8:	f06f 0001 	mvn.w	r0, #1
 80075ac:	f004 fb9c 	bl	800bce8 <seq_transp>
 80075b0:	e6a8      	b.n	8007304 <USBH_MIDI_ReceiveCallback+0x3c>
 80075b2:	4601      	mov	r1, r0
 80075b4:	2002      	movs	r0, #2
 80075b6:	f004 fb97 	bl	800bce8 <seq_transp>
 80075ba:	e6a3      	b.n	8007304 <USBH_MIDI_ReceiveCallback+0x3c>
 80075bc:	4601      	mov	r1, r0
 80075be:	f06f 0006 	mvn.w	r0, #6
 80075c2:	f004 fb91 	bl	800bce8 <seq_transp>
 80075c6:	e69d      	b.n	8007304 <USBH_MIDI_ReceiveCallback+0x3c>
 80075c8:	4601      	mov	r1, r0
 80075ca:	2007      	movs	r0, #7
 80075cc:	f004 fb8c 	bl	800bce8 <seq_transp>
 80075d0:	e698      	b.n	8007304 <USBH_MIDI_ReceiveCallback+0x3c>
 80075d2:	f001 ff5f 	bl	8009494 <Delay_time_inc>
 80075d6:	e695      	b.n	8007304 <USBH_MIDI_ReceiveCallback+0x3c>
 80075d8:	f004 fb62 	bl	800bca0 <seq_gateTime_set>
 80075dc:	e692      	b.n	8007304 <USBH_MIDI_ReceiveCallback+0x3c>
 80075de:	f000 f8c5 	bl	800776c <AttTime_set>
 80075e2:	e68f      	b.n	8007304 <USBH_MIDI_ReceiveCallback+0x3c>
 80075e4:	f000 f8e2 	bl	80077ac <DecTime_set>
 80075e8:	e68c      	b.n	8007304 <USBH_MIDI_ReceiveCallback+0x3c>
 80075ea:	f004 fdc1 	bl	800c170 <VibratoAmp_set>
 80075ee:	e689      	b.n	8007304 <USBH_MIDI_ReceiveCallback+0x3c>
 80075f0:	f004 fdce 	bl	800c190 <VibratoFreq_set>
 80075f4:	e686      	b.n	8007304 <USBH_MIDI_ReceiveCallback+0x3c>
 80075f6:	f001 fc67 	bl	8008ec8 <ChorusRate_set>
 80075fa:	e683      	b.n	8007304 <USBH_MIDI_ReceiveCallback+0x3c>
 80075fc:	f001 fca8 	bl	8008f50 <ChorusDelay_set>
 8007600:	e680      	b.n	8007304 <USBH_MIDI_ReceiveCallback+0x3c>
 8007602:	f001 fcd7 	bl	8008fb4 <ChorusSweep_set>
 8007606:	e67d      	b.n	8007304 <USBH_MIDI_ReceiveCallback+0x3c>
 8007608:	f001 fcb8 	bl	8008f7c <ChorusFeedback_set>
 800760c:	e67a      	b.n	8007304 <USBH_MIDI_ReceiveCallback+0x3c>
 800760e:	f001 fc7d 	bl	8008f0c <ChorusSecondRate_set>
 8007612:	e677      	b.n	8007304 <USBH_MIDI_ReceiveCallback+0x3c>
 8007614:	f004 fe50 	bl	800c2b8 <Delay_switch>
 8007618:	e674      	b.n	8007304 <USBH_MIDI_ReceiveCallback+0x3c>
 800761a:	f004 fe6b 	bl	800c2f4 <Phaser_switch>
 800761e:	e671      	b.n	8007304 <USBH_MIDI_ReceiveCallback+0x3c>
 8007620:	f004 fbaa 	bl	800bd78 <seq_switchMute>
 8007624:	e66e      	b.n	8007304 <USBH_MIDI_ReceiveCallback+0x3c>
 8007626:	f004 fb9d 	bl	800bd64 <seq_switchMovingSeq>
 800762a:	e66b      	b.n	8007304 <USBH_MIDI_ReceiveCallback+0x3c>
 800762c:	f004 fe4e 	bl	800c2cc <Filter_Random_switch>
 8007630:	e668      	b.n	8007304 <USBH_MIDI_ReceiveCallback+0x3c>
 8007632:	f004 fe55 	bl	800c2e0 <Chorus_switch>
 8007636:	e665      	b.n	8007304 <USBH_MIDI_ReceiveCallback+0x3c>
 8007638:	f001 fcd2 	bl	8008fe0 <ChorusMode_switch>
 800763c:	e662      	b.n	8007304 <USBH_MIDI_ReceiveCallback+0x3c>
 800763e:	f001 fcef 	bl	8009020 <ChorusFDBsign_switch>
 8007642:	e65f      	b.n	8007304 <USBH_MIDI_ReceiveCallback+0x3c>
 8007644:	2001f204 	.word	0x2001f204
 8007648:	2001e220 	.word	0x2001e220
 800764c:	42fe0000 	.word	0x42fe0000
 8007650:	f004 fdae 	bl	800c1b0 <SynthOut_switch>
 8007654:	e656      	b.n	8007304 <USBH_MIDI_ReceiveCallback+0x3c>
 8007656:	f004 fcf5 	bl	800c044 <RandSound2>
 800765a:	e653      	b.n	8007304 <USBH_MIDI_ReceiveCallback+0x3c>
 800765c:	f004 ff3a 	bl	800c4d4 <FM_OP4_freqMul_inc>
 8007660:	e650      	b.n	8007304 <USBH_MIDI_ReceiveCallback+0x3c>
 8007662:	f004 fee7 	bl	800c434 <FM_OP3_freqMul_inc>
 8007666:	e64d      	b.n	8007304 <USBH_MIDI_ReceiveCallback+0x3c>
 8007668:	f004 fe70 	bl	800c34c <FM_OP1_freq_set>
 800766c:	e64a      	b.n	8007304 <USBH_MIDI_ReceiveCallback+0x3c>
 800766e:	f004 fe79 	bl	800c364 <FM_OP2_freq_set>
 8007672:	e647      	b.n	8007304 <USBH_MIDI_ReceiveCallback+0x3c>
 8007674:	f004 fec6 	bl	800c404 <FM_OP3_freq_set>
 8007678:	e644      	b.n	8007304 <USBH_MIDI_ReceiveCallback+0x3c>
 800767a:	f004 ff13 	bl	800c4a4 <FM_OP4_freq_set>
 800767e:	e641      	b.n	8007304 <USBH_MIDI_ReceiveCallback+0x3c>
 8007680:	f003 ffb4 	bl	800b5ec <Phaser_Wet_set>
 8007684:	e63e      	b.n	8007304 <USBH_MIDI_ReceiveCallback+0x3c>
 8007686:	f004 f9a9 	bl	800b9dc <Filter2Freq_set>
 800768a:	e63b      	b.n	8007304 <USBH_MIDI_ReceiveCallback+0x3c>
 800768c:	f004 f9e2 	bl	800ba54 <Filter2Res_set>
 8007690:	e638      	b.n	8007304 <USBH_MIDI_ReceiveCallback+0x3c>
 8007692:	f004 f9ff 	bl	800ba94 <Filter2Drive_set>
 8007696:	e635      	b.n	8007304 <USBH_MIDI_ReceiveCallback+0x3c>
 8007698:	f004 fa12 	bl	800bac0 <Filter2Type_set>
 800769c:	e632      	b.n	8007304 <USBH_MIDI_ReceiveCallback+0x3c>
 800769e:	f004 fe5b 	bl	800c358 <FM_OP1_modInd_set>
 80076a2:	e62f      	b.n	8007304 <USBH_MIDI_ReceiveCallback+0x3c>
 80076a4:	f004 fea8 	bl	800c3f8 <FM_OP2_modInd_set>
 80076a8:	e62c      	b.n	8007304 <USBH_MIDI_ReceiveCallback+0x3c>
 80076aa:	f004 febd 	bl	800c428 <FM_OP3_modInd_set>
 80076ae:	e629      	b.n	8007304 <USBH_MIDI_ReceiveCallback+0x3c>
 80076b0:	f004 ff0a 	bl	800c4c8 <FM_OP4_modInd_set>
 80076b4:	e626      	b.n	8007304 <USBH_MIDI_ReceiveCallback+0x3c>
 80076b6:	f003 ff5d 	bl	800b574 <Phaser_Rate_set>
 80076ba:	e623      	b.n	8007304 <USBH_MIDI_ReceiveCallback+0x3c>
 80076bc:	f003 ff80 	bl	800b5c0 <Phaser_Feedback_set>
 80076c0:	e620      	b.n	8007304 <USBH_MIDI_ReceiveCallback+0x3c>
 80076c2:	f004 fd35 	bl	800c130 <Filt2LFO_amp_set>
 80076c6:	e61d      	b.n	8007304 <USBH_MIDI_ReceiveCallback+0x3c>
 80076c8:	f004 fd42 	bl	800c150 <Filt2LFO_freq_set>
 80076cc:	e61a      	b.n	8007304 <USBH_MIDI_ReceiveCallback+0x3c>
 80076ce:	f004 fe5b 	bl	800c388 <FM_OP2_freqMul_inc>
 80076d2:	e617      	b.n	8007304 <USBH_MIDI_ReceiveCallback+0x3c>
 80076d4:	f001 ff72 	bl	80095bc <DelayWet_set>
 80076d8:	e614      	b.n	8007304 <USBH_MIDI_ReceiveCallback+0x3c>
 80076da:	f004 fb73 	bl	800bdc4 <seq_tempo_set>
 80076de:	e611      	b.n	8007304 <USBH_MIDI_ReceiveCallback+0x3c>
 80076e0:	f004 fb58 	bl	800bd94 <seq_freqMax_set>
 80076e4:	e60e      	b.n	8007304 <USBH_MIDI_ReceiveCallback+0x3c>
 80076e6:	f004 fb13 	bl	800bd10 <seq_scale_set>
 80076ea:	e60b      	b.n	8007304 <USBH_MIDI_ReceiveCallback+0x3c>
 80076ec:	f004 fe0c 	bl	800c308 <Sound_set>
 80076f0:	e608      	b.n	8007304 <USBH_MIDI_ReceiveCallback+0x3c>
 80076f2:	f004 ff0b 	bl	800c50c <FM_OP4_freqMul_dec>
 80076f6:	e605      	b.n	8007304 <USBH_MIDI_ReceiveCallback+0x3c>
 80076f8:	f004 feb8 	bl	800c46c <FM_OP3_freqMul_dec>
 80076fc:	e602      	b.n	8007304 <USBH_MIDI_ReceiveCallback+0x3c>
 80076fe:	f004 fe5f 	bl	800c3c0 <FM_OP2_freqMul_dec>
 8007702:	e5ff      	b.n	8007304 <USBH_MIDI_ReceiveCallback+0x3c>
 8007704:	f000 f94a 	bl	800799c <Volume_set>
 8007708:	e5fc      	b.n	8007304 <USBH_MIDI_ReceiveCallback+0x3c>
 800770a:	f001 ff1d 	bl	8009548 <Delay_time_set>
 800770e:	e5f9      	b.n	8007304 <USBH_MIDI_ReceiveCallback+0x3c>
 8007710:	f001 ff44 	bl	800959c <DelayFeedback_set>
 8007714:	e5f6      	b.n	8007304 <USBH_MIDI_ReceiveCallback+0x3c>
$t():
 8007716:	bf00      	nop

08007718 <ADSR_init>:
ADSR_init():
 8007718:	4b08      	ldr	r3, [pc, #32]	; (800773c <ADSR_init+0x24>)
 800771a:	4a09      	ldr	r2, [pc, #36]	; (8007740 <ADSR_init+0x28>)
 800771c:	60c3      	str	r3, [r0, #12]
 800771e:	b410      	push	{r4}
 8007720:	2100      	movs	r1, #0
 8007722:	f04f 547c 	mov.w	r4, #1056964608	; 0x3f000000
 8007726:	2300      	movs	r3, #0
 8007728:	6084      	str	r4, [r0, #8]
 800772a:	6181      	str	r1, [r0, #24]
 800772c:	6101      	str	r1, [r0, #16]
 800772e:	6002      	str	r2, [r0, #0]
 8007730:	6042      	str	r2, [r0, #4]
 8007732:	6203      	str	r3, [r0, #32]
 8007734:	6243      	str	r3, [r0, #36]	; 0x24
 8007736:	f85d 4b04 	ldr.w	r4, [sp], #4
 800773a:	4770      	bx	lr
 800773c:	3c23d70a 	.word	0x3c23d70a
 8007740:	3a83126f 	.word	0x3a83126f

08007744 <ADSR_keyOn>:
ADSR_keyOn():
 8007744:	2300      	movs	r3, #0
 8007746:	6802      	ldr	r2, [r0, #0]
 8007748:	61c2      	str	r2, [r0, #28]
 800774a:	f04f 517e 	mov.w	r1, #1065353216	; 0x3f800000
 800774e:	6181      	str	r1, [r0, #24]
 8007750:	6243      	str	r3, [r0, #36]	; 0x24
 8007752:	6203      	str	r3, [r0, #32]
 8007754:	4770      	bx	lr
 8007756:	bf00      	nop

08007758 <ADSR_keyOff>:
ADSR_keyOff():
 8007758:	2300      	movs	r3, #0
 800775a:	68c2      	ldr	r2, [r0, #12]
 800775c:	6183      	str	r3, [r0, #24]
 800775e:	2100      	movs	r1, #0
 8007760:	2303      	movs	r3, #3
 8007762:	6241      	str	r1, [r0, #36]	; 0x24
 8007764:	61c2      	str	r2, [r0, #28]
 8007766:	6203      	str	r3, [r0, #32]
 8007768:	4770      	bx	lr
 800776a:	bf00      	nop

0800776c <AttTime_set>:
AttTime_set():
 800776c:	ee07 0a90 	vmov	s15, r0
 8007770:	ed9f 7a0a 	vldr	s14, [pc, #40]	; 800779c <AttTime_set+0x30>
 8007774:	ed9f 6a0a 	vldr	s12, [pc, #40]	; 80077a0 <AttTime_set+0x34>
 8007778:	4b0a      	ldr	r3, [pc, #40]	; (80077a4 <AttTime_set+0x38>)
 800777a:	eef8 6ae7 	vcvt.f32.s32	s13, s15
 800777e:	eddf 7a0a 	vldr	s15, [pc, #40]	; 80077a8 <AttTime_set+0x3c>
 8007782:	ee86 7a87 	vdiv.f32	s14, s13, s14
 8007786:	eef7 6a00 	vmov.f32	s13, #112	; 0x70
 800778a:	ee37 7a27 	vadd.f32	s14, s14, s15
 800778e:	ee67 7a06 	vmul.f32	s15, s14, s12
 8007792:	eec6 7aa7 	vdiv.f32	s15, s13, s15
 8007796:	edc3 7a00 	vstr	s15, [r3]
 800779a:	4770      	bx	lr
 800779c:	42fe0000 	.word	0x42fe0000
 80077a0:	473b8000 	.word	0x473b8000
 80077a4:	10000000 	.word	0x10000000
 80077a8:	38d1b717 	.word	0x38d1b717

080077ac <DecTime_set>:
DecTime_set():
 80077ac:	ee07 0a90 	vmov	s15, r0
 80077b0:	ed9f 6a0c 	vldr	s12, [pc, #48]	; 80077e4 <DecTime_set+0x38>
 80077b4:	ed9f 7a0c 	vldr	s14, [pc, #48]	; 80077e8 <DecTime_set+0x3c>
 80077b8:	eddf 5a0c 	vldr	s11, [pc, #48]	; 80077ec <DecTime_set+0x40>
 80077bc:	4b0c      	ldr	r3, [pc, #48]	; (80077f0 <DecTime_set+0x44>)
 80077be:	eef8 6ae7 	vcvt.f32.s32	s13, s15
 80077c2:	eddf 7a0c 	vldr	s15, [pc, #48]	; 80077f4 <DecTime_set+0x48>
 80077c6:	ee66 6a86 	vmul.f32	s13, s13, s12
 80077ca:	eeb7 6a00 	vmov.f32	s12, #112	; 0x70
 80077ce:	ee86 7a87 	vdiv.f32	s14, s13, s14
 80077d2:	ee37 7a27 	vadd.f32	s14, s14, s15
 80077d6:	ee67 7a25 	vmul.f32	s15, s14, s11
 80077da:	eec6 7a27 	vdiv.f32	s15, s12, s15
 80077de:	edc3 7a01 	vstr	s15, [r3, #4]
 80077e2:	4770      	bx	lr
 80077e4:	3e4ccccd 	.word	0x3e4ccccd
 80077e8:	42fe0000 	.word	0x42fe0000
 80077ec:	473b8000 	.word	0x473b8000
 80077f0:	10000000 	.word	0x10000000
 80077f4:	38d1b717 	.word	0x38d1b717

080077f8 <SustLevel_set>:
SustLevel_set():
 80077f8:	ee07 0a90 	vmov	s15, r0
 80077fc:	ed9f 7a04 	vldr	s14, [pc, #16]	; 8007810 <SustLevel_set+0x18>
 8007800:	4b04      	ldr	r3, [pc, #16]	; (8007814 <SustLevel_set+0x1c>)
 8007802:	eef8 7ae7 	vcvt.f32.s32	s15, s15
 8007806:	eec7 7a87 	vdiv.f32	s15, s15, s14
 800780a:	edc3 7a02 	vstr	s15, [r3, #8]
 800780e:	4770      	bx	lr
 8007810:	42fe0000 	.word	0x42fe0000
 8007814:	10000000 	.word	0x10000000

08007818 <RelTime_set>:
RelTime_set():
 8007818:	ee06 0a90 	vmov	s13, r0
 800781c:	ed9f 7a0a 	vldr	s14, [pc, #40]	; 8007848 <RelTime_set+0x30>
 8007820:	eddf 7a0a 	vldr	s15, [pc, #40]	; 800784c <RelTime_set+0x34>
 8007824:	4b0a      	ldr	r3, [pc, #40]	; (8007850 <RelTime_set+0x38>)
 8007826:	ed9f 6a0b 	vldr	s12, [pc, #44]	; 8007854 <RelTime_set+0x3c>
 800782a:	eefa 6aef 	vcvt.f32.s32	s13, s13, #1
 800782e:	ee86 7a87 	vdiv.f32	s14, s13, s14
 8007832:	edd3 6a02 	vldr	s13, [r3, #8]
 8007836:	ee37 7a27 	vadd.f32	s14, s14, s15
 800783a:	ee67 7a06 	vmul.f32	s15, s14, s12
 800783e:	eec6 7aa7 	vdiv.f32	s15, s13, s15
 8007842:	edc3 7a03 	vstr	s15, [r3, #12]
 8007846:	4770      	bx	lr
 8007848:	42fe0000 	.word	0x42fe0000
 800784c:	38d1b717 	.word	0x38d1b717
 8007850:	10000000 	.word	0x10000000
 8007854:	473b8000 	.word	0x473b8000

08007858 <ADSR_computeSample>:
ADSR_computeSample():
 8007858:	6a43      	ldr	r3, [r0, #36]	; 0x24
 800785a:	6a02      	ldr	r2, [r0, #32]
 800785c:	3301      	adds	r3, #1
 800785e:	2a01      	cmp	r2, #1
 8007860:	6243      	str	r3, [r0, #36]	; 0x24
 8007862:	d035      	beq.n	80078d0 <ADSR_computeSample+0x78>
 8007864:	2a03      	cmp	r2, #3
 8007866:	d021      	beq.n	80078ac <ADSR_computeSample+0x54>
 8007868:	b122      	cbz	r2, 8007874 <ADSR_computeSample+0x1c>
 800786a:	ed90 0a04 	vldr	s0, [r0, #16]
 800786e:	ed80 0a05 	vstr	s0, [r0, #20]
 8007872:	4770      	bx	lr
 8007874:	edd0 7a04 	vldr	s15, [r0, #16]
 8007878:	ed90 0a07 	vldr	s0, [r0, #28]
 800787c:	ed90 7a06 	vldr	s14, [r0, #24]
 8007880:	ee37 0a80 	vadd.f32	s0, s15, s0
 8007884:	eeb4 0ac7 	vcmpe.f32	s0, s14
 8007888:	eef1 fa10 	vmrs	APSR_nzcv, fpscr
 800788c:	ed80 0a04 	vstr	s0, [r0, #16]
 8007890:	dbed      	blt.n	800786e <ADSR_computeSample+0x16>
 8007892:	6841      	ldr	r1, [r0, #4]
 8007894:	6882      	ldr	r2, [r0, #8]
 8007896:	ed80 7a04 	vstr	s14, [r0, #16]
 800789a:	2301      	movs	r3, #1
 800789c:	eeb0 0a47 	vmov.f32	s0, s14
 80078a0:	61c1      	str	r1, [r0, #28]
 80078a2:	6182      	str	r2, [r0, #24]
 80078a4:	6203      	str	r3, [r0, #32]
 80078a6:	ed80 0a05 	vstr	s0, [r0, #20]
 80078aa:	4770      	bx	lr
 80078ac:	edd0 7a04 	vldr	s15, [r0, #16]
 80078b0:	ed90 0a03 	vldr	s0, [r0, #12]
 80078b4:	ed9f 7a17 	vldr	s14, [pc, #92]	; 8007914 <ADSR_computeSample+0xbc>
 80078b8:	ee37 0ac0 	vsub.f32	s0, s15, s0
 80078bc:	eeb4 0ac7 	vcmpe.f32	s0, s14
 80078c0:	eef1 fa10 	vmrs	APSR_nzcv, fpscr
 80078c4:	d91e      	bls.n	8007904 <ADSR_computeSample+0xac>
 80078c6:	ed80 0a04 	vstr	s0, [r0, #16]
 80078ca:	ed80 0a05 	vstr	s0, [r0, #20]
 80078ce:	4770      	bx	lr
 80078d0:	edd0 7a04 	vldr	s15, [r0, #16]
 80078d4:	ed90 0a01 	vldr	s0, [r0, #4]
 80078d8:	ed90 7a02 	vldr	s14, [r0, #8]
 80078dc:	ee37 0ac0 	vsub.f32	s0, s15, s0
 80078e0:	eeb4 0ac7 	vcmpe.f32	s0, s14
 80078e4:	eef1 fa10 	vmrs	APSR_nzcv, fpscr
 80078e8:	ed80 0a04 	vstr	s0, [r0, #16]
 80078ec:	d8bf      	bhi.n	800786e <ADSR_computeSample+0x16>
 80078ee:	2200      	movs	r2, #0
 80078f0:	2302      	movs	r3, #2
 80078f2:	eeb0 0a47 	vmov.f32	s0, s14
 80078f6:	ed80 7a04 	vstr	s14, [r0, #16]
 80078fa:	61c2      	str	r2, [r0, #28]
 80078fc:	6203      	str	r3, [r0, #32]
 80078fe:	ed80 0a05 	vstr	s0, [r0, #20]
 8007902:	4770      	bx	lr
 8007904:	2304      	movs	r3, #4
 8007906:	eeb0 0a47 	vmov.f32	s0, s14
 800790a:	ed80 7a04 	vstr	s14, [r0, #16]
 800790e:	6203      	str	r3, [r0, #32]
 8007910:	e7ad      	b.n	800786e <ADSR_computeSample+0x16>
 8007912:	bf00      	nop
 8007914:	00000000 	.word	0x00000000

08007918 <audio_init>:
audio_init():
 8007918:	b508      	push	{r3, lr}
 800791a:	2004      	movs	r0, #4
 800791c:	2146      	movs	r1, #70	; 0x46
 800791e:	f64b 3280 	movw	r2, #48000	; 0xbb80
 8007922:	f7ff f8e9 	bl	8006af8 <BSP_AUDIO_OUT_Init>
 8007926:	b108      	cbz	r0, 800792c <audio_init+0x14>
 8007928:	f002 f8e8 	bl	8009afc <Error_Handler>
 800792c:	4803      	ldr	r0, [pc, #12]	; (800793c <audio_init+0x24>)
 800792e:	f44f 617a 	mov.w	r1, #4000	; 0xfa0
 8007932:	e8bd 4008 	ldmia.w	sp!, {r3, lr}
 8007936:	f7ff b9a7 	b.w	8006c88 <BSP_AUDIO_OUT_Play>
 800793a:	bf00      	nop
 800793c:	2001e260 	.word	0x2001e260

08007940 <BSP_AUDIO_OUT_HalfTransfer_CallBack>:
BSP_AUDIO_OUT_HalfTransfer_CallBack():
 8007940:	b510      	push	{r4, lr}
 8007942:	4b08      	ldr	r3, [pc, #32]	; (8007964 <BSP_AUDIO_OUT_HalfTransfer_CallBack+0x24>)
 8007944:	2401      	movs	r4, #1
 8007946:	4620      	mov	r0, r4
 8007948:	701c      	strb	r4, [r3, #0]
 800794a:	f7ff f80f 	bl	800696c <BSP_LED_Off>
 800794e:	4806      	ldr	r0, [pc, #24]	; (8007968 <BSP_AUDIO_OUT_HalfTransfer_CallBack+0x28>)
 8007950:	f44f 71fa 	mov.w	r1, #500	; 0x1f4
 8007954:	f004 ff5c 	bl	800c810 <make_sound>
 8007958:	4620      	mov	r0, r4
 800795a:	e8bd 4010 	ldmia.w	sp!, {r4, lr}
 800795e:	f7fe bff7 	b.w	8006950 <BSP_LED_On>
 8007962:	bf00      	nop
 8007964:	20000974 	.word	0x20000974
 8007968:	2001e260 	.word	0x2001e260

0800796c <BSP_AUDIO_OUT_TransferComplete_CallBack>:
BSP_AUDIO_OUT_TransferComplete_CallBack():
 800796c:	b508      	push	{r3, lr}
 800796e:	4b08      	ldr	r3, [pc, #32]	; (8007990 <BSP_AUDIO_OUT_TransferComplete_CallBack+0x24>)
 8007970:	2202      	movs	r2, #2
 8007972:	2001      	movs	r0, #1
 8007974:	701a      	strb	r2, [r3, #0]
 8007976:	f7fe fff9 	bl	800696c <BSP_LED_Off>
 800797a:	4806      	ldr	r0, [pc, #24]	; (8007994 <BSP_AUDIO_OUT_TransferComplete_CallBack+0x28>)
 800797c:	f44f 71fa 	mov.w	r1, #500	; 0x1f4
 8007980:	f004 ff46 	bl	800c810 <make_sound>
 8007984:	2001      	movs	r0, #1
 8007986:	e8bd 4008 	ldmia.w	sp!, {r3, lr}
 800798a:	f7fe bfe1 	b.w	8006950 <BSP_LED_On>
 800798e:	bf00      	nop
 8007990:	20000974 	.word	0x20000974
 8007994:	2001ea30 	.word	0x2001ea30

08007998 <BSP_AUDIO_OUT_Error_CallBack>:
BSP_AUDIO_OUT_Error_CallBack():
 8007998:	e7fe      	b.n	8007998 <BSP_AUDIO_OUT_Error_CallBack>
 800799a:	bf00      	nop

0800799c <Volume_set>:
Volume_set():
 800799c:	ee07 0a90 	vmov	s15, r0
 80079a0:	ed9f 7a09 	vldr	s14, [pc, #36]	; 80079c8 <Volume_set+0x2c>
 80079a4:	4a09      	ldr	r2, [pc, #36]	; (80079cc <Volume_set+0x30>)
 80079a6:	eef8 7ae7 	vcvt.f32.s32	s15, s15
 80079aa:	b082      	sub	sp, #8
 80079ac:	ee67 7a87 	vmul.f32	s15, s15, s14
 80079b0:	eefc 7ae7 	vcvt.u32.f32	s15, s15
 80079b4:	edcd 7a01 	vstr	s15, [sp, #4]
 80079b8:	f89d 3004 	ldrb.w	r3, [sp, #4]
 80079bc:	7013      	strb	r3, [r2, #0]
 80079be:	4618      	mov	r0, r3
 80079c0:	b002      	add	sp, #8
 80079c2:	f7ff b97f 	b.w	8006cc4 <BSP_AUDIO_OUT_SetVolume>
 80079c6:	bf00      	nop
 80079c8:	3f499326 	.word	0x3f499326
 80079cc:	2000006c 	.word	0x2000006c

080079d0 <VCO_blepsaw_Init>:
VCO_blepsaw_Init():
 80079d0:	4a0a      	ldr	r2, [pc, #40]	; (80079fc <VCO_blepsaw_Init+0x2c>)
 80079d2:	b410      	push	{r4}
 80079d4:	2300      	movs	r3, #0
 80079d6:	60c2      	str	r2, [r0, #12]
 80079d8:	2401      	movs	r4, #1
 80079da:	f04f 527e 	mov.w	r2, #1065353216	; 0x3f800000
 80079de:	2100      	movs	r1, #0
 80079e0:	f880 4548 	strb.w	r4, [r0, #1352]	; 0x548
 80079e4:	6042      	str	r2, [r0, #4]
 80079e6:	6103      	str	r3, [r0, #16]
 80079e8:	6203      	str	r3, [r0, #32]
 80079ea:	f8c0 1544 	str.w	r1, [r0, #1348]	; 0x544
 80079ee:	f44f 62a4 	mov.w	r2, #1312	; 0x520
 80079f2:	3024      	adds	r0, #36	; 0x24
 80079f4:	f85d 4b04 	ldr.w	r4, [sp], #4
 80079f8:	f006 bf92 	b.w	800e920 <memset>
 80079fc:	43dc0000 	.word	0x43dc0000

08007a00 <VCO_blepsaw_SampleCompute>:
VCO_blepsaw_SampleCompute():
 8007a00:	e92d 41f0 	stmdb	sp!, {r4, r5, r6, r7, r8, lr}
 8007a04:	f890 3548 	ldrb.w	r3, [r0, #1352]	; 0x548
 8007a08:	ed90 7a03 	vldr	s14, [r0, #12]
 8007a0c:	f8d0 8544 	ldr.w	r8, [r0, #1348]	; 0x544
 8007a10:	eddf 7aa5 	vldr	s15, [pc, #660]	; 8007ca8 <VCO_blepsaw_SampleCompute+0x2a8>
 8007a14:	ed2d 8b06 	vpush	{d8-d10}
 8007a18:	4605      	mov	r5, r0
 8007a1a:	edd0 9a04 	vldr	s19, [r0, #16]
 8007a1e:	ed90 8a06 	vldr	s16, [r0, #24]
 8007a22:	ed90 9a07 	vldr	s18, [r0, #28]
 8007a26:	edd0 8a08 	vldr	s17, [r0, #32]
 8007a2a:	2b00      	cmp	r3, #0
 8007a2c:	f040 80b7 	bne.w	8007b9e <VCO_blepsaw_SampleCompute+0x19e>
 8007a30:	eec7 7a27 	vdiv.f32	s15, s14, s15
 8007a34:	ed9f 7a9d 	vldr	s14, [pc, #628]	; 8007cac <VCO_blepsaw_SampleCompute+0x2ac>
 8007a38:	eef4 7ac7 	vcmpe.f32	s15, s14
 8007a3c:	eef1 fa10 	vmrs	APSR_nzcv, fpscr
 8007a40:	f100 80c3 	bmi.w	8007bca <VCO_blepsaw_SampleCompute+0x1ca>
 8007a44:	eeb6 7a00 	vmov.f32	s14, #96	; 0x60
 8007a48:	eef4 7a47 	vcmp.f32	s15, s14
 8007a4c:	eef1 fa10 	vmrs	APSR_nzcv, fpscr
 8007a50:	bfc8      	it	gt
 8007a52:	eef0 7a47 	vmovgt.f32	s15, s14
 8007a56:	ee77 7ac9 	vsub.f32	s15, s15, s18
 8007a5a:	ed9f 7a95 	vldr	s14, [pc, #596]	; 8007cb0 <VCO_blepsaw_SampleCompute+0x2b0>
 8007a5e:	ee39 9a27 	vadd.f32	s18, s18, s15
 8007a62:	eef4 9ac7 	vcmpe.f32	s19, s14
 8007a66:	eef1 fa10 	vmrs	APSR_nzcv, fpscr
 8007a6a:	ee38 8a09 	vadd.f32	s16, s16, s18
 8007a6e:	f2c0 80af 	blt.w	8007bd0 <VCO_blepsaw_SampleCompute+0x1d0>
 8007a72:	ee39 aac7 	vsub.f32	s20, s19, s14
 8007a76:	eef7 7a00 	vmov.f32	s15, #112	; 0x70
 8007a7a:	ee2a aa09 	vmul.f32	s20, s20, s18
 8007a7e:	ee38 8a4a 	vsub.f32	s16, s16, s20
 8007a82:	eeb4 8ae7 	vcmpe.f32	s16, s15
 8007a86:	eef1 fa10 	vmrs	APSR_nzcv, fpscr
 8007a8a:	f2c0 80f6 	blt.w	8007c7a <VCO_blepsaw_SampleCompute+0x27a>
 8007a8e:	ee38 8a67 	vsub.f32	s16, s16, s15
 8007a92:	ed9f 6a88 	vldr	s12, [pc, #544]	; 8007cb4 <VCO_blepsaw_SampleCompute+0x2b4>
 8007a96:	4c88      	ldr	r4, [pc, #544]	; (8007cb8 <VCO_blepsaw_SampleCompute+0x2b8>)
 8007a98:	ee78 7a0a 	vadd.f32	s15, s16, s20
 8007a9c:	eeb6 0a00 	vmov.f32	s0, #96	; 0x60
 8007aa0:	ee27 6a86 	vmul.f32	s12, s15, s12
 8007aa4:	f105 0624 	add.w	r6, r5, #36	; 0x24
 8007aa8:	eec6 aa09 	vdiv.f32	s21, s12, s18
 8007aac:	ea4f 0788 	mov.w	r7, r8, lsl #2
 8007ab0:	ee3a 0ac0 	vsub.f32	s0, s21, s0
 8007ab4:	f005 f856 	bl	800cb64 <lrintf>
 8007ab8:	ee07 0a90 	vmov	s15, r0
 8007abc:	eeb8 6ae7 	vcvt.f32.s32	s12, s15
 8007ac0:	f000 003f 	and.w	r0, r0, #63	; 0x3f
 8007ac4:	ee3a 6ac6 	vsub.f32	s12, s21, s12
 8007ac8:	eb04 03c0 	add.w	r3, r4, r0, lsl #3
 8007acc:	19f2      	adds	r2, r6, r7
 8007ace:	edd3 6a01 	vldr	s13, [r3, #4]
 8007ad2:	edd3 7a00 	vldr	s15, [r3]
 8007ad6:	ed92 7a00 	vldr	s14, [r2]
 8007ada:	eee6 7a26 	vfma.f32	s15, s12, s13
 8007ade:	3040      	adds	r0, #64	; 0x40
 8007ae0:	f5b0 5f90 	cmp.w	r0, #4608	; 0x1200
 8007ae4:	f503 7300 	add.w	r3, r3, #512	; 0x200
 8007ae8:	ee77 7a27 	vadd.f32	s15, s14, s15
 8007aec:	ece2 7a01 	vstmia	r2!, {s15}
 8007af0:	dbed      	blt.n	8007ace <VCO_blepsaw_SampleCompute+0xce>
 8007af2:	ed9f 6a70 	vldr	s12, [pc, #448]	; 8007cb4 <VCO_blepsaw_SampleCompute+0x2b4>
 8007af6:	ee2a 6a06 	vmul.f32	s12, s20, s12
 8007afa:	eeb6 0a00 	vmov.f32	s0, #96	; 0x60
 8007afe:	eec6 aa09 	vdiv.f32	s21, s12, s18
 8007b02:	ee3a 0ac0 	vsub.f32	s0, s21, s0
 8007b06:	f005 f82d 	bl	800cb64 <lrintf>
 8007b0a:	ee07 0a90 	vmov	s15, r0
 8007b0e:	eeb8 6ae7 	vcvt.f32.s32	s12, s15
 8007b12:	f000 003f 	and.w	r0, r0, #63	; 0x3f
 8007b16:	ee3a 6ac6 	vsub.f32	s12, s21, s12
 8007b1a:	19f2      	adds	r2, r6, r7
 8007b1c:	eb04 03c0 	add.w	r3, r4, r0, lsl #3
 8007b20:	edd3 6a01 	vldr	s13, [r3, #4]
 8007b24:	ed93 7a00 	vldr	s14, [r3]
 8007b28:	edd2 7a00 	vldr	s15, [r2]
 8007b2c:	eea6 7a26 	vfma.f32	s14, s12, s13
 8007b30:	3040      	adds	r0, #64	; 0x40
 8007b32:	f5b0 5f90 	cmp.w	r0, #4608	; 0x1200
 8007b36:	f503 7300 	add.w	r3, r3, #512	; 0x200
 8007b3a:	eee8 7a07 	vfma.f32	s15, s16, s14
 8007b3e:	ece2 7a01 	vstmia	r2!, {s15}
 8007b42:	dbed      	blt.n	8007b20 <VCO_blepsaw_SampleCompute+0x120>
 8007b44:	edc5 9a05 	vstr	s19, [r5, #20]
 8007b48:	442f      	add	r7, r5
 8007b4a:	eef6 6a00 	vmov.f32	s13, #96	; 0x60
 8007b4e:	ed97 7a09 	vldr	s14, [r7, #36]	; 0x24
 8007b52:	edd7 7a0d 	vldr	s15, [r7, #52]	; 0x34
 8007b56:	ee36 6aca 	vsub.f32	s12, s13, s20
 8007b5a:	ee37 7a68 	vsub.f32	s14, s14, s17
 8007b5e:	ee77 7a86 	vadd.f32	s15, s15, s12
 8007b62:	eee7 8a26 	vfma.f32	s17, s14, s13
 8007b66:	f108 0301 	add.w	r3, r8, #1
 8007b6a:	f5b3 7f80 	cmp.w	r3, #256	; 0x100
 8007b6e:	edc7 7a0d 	vstr	s15, [r7, #52]	; 0x34
 8007b72:	ed95 8a01 	vldr	s16, [r5, #4]
 8007b76:	ee28 8a88 	vmul.f32	s16, s17, s16
 8007b7a:	ed85 8a00 	vstr	s16, [r5]
 8007b7e:	f000 8082 	beq.w	8007c86 <VCO_blepsaw_SampleCompute+0x286>
 8007b82:	eeb0 0a48 	vmov.f32	s0, s16
 8007b86:	ed85 aa06 	vstr	s20, [r5, #24]
 8007b8a:	ed85 9a07 	vstr	s18, [r5, #28]
 8007b8e:	edc5 8a08 	vstr	s17, [r5, #32]
 8007b92:	ecbd 8b06 	vpop	{d8-d10}
 8007b96:	f8c5 3544 	str.w	r3, [r5, #1348]	; 0x544
 8007b9a:	e8bd 81f0 	ldmia.w	sp!, {r4, r5, r6, r7, r8, pc}
 8007b9e:	eec7 7a27 	vdiv.f32	s15, s14, s15
 8007ba2:	ed9f 9a42 	vldr	s18, [pc, #264]	; 8007cac <VCO_blepsaw_SampleCompute+0x2ac>
 8007ba6:	eef4 7ac9 	vcmpe.f32	s15, s18
 8007baa:	eef1 fa10 	vmrs	APSR_nzcv, fpscr
 8007bae:	d54d      	bpl.n	8007c4c <VCO_blepsaw_SampleCompute+0x24c>
 8007bb0:	2300      	movs	r3, #0
 8007bb2:	f885 3548 	strb.w	r3, [r5, #1352]	; 0x548
 8007bb6:	eeb6 8a00 	vmov.f32	s16, #96	; 0x60
 8007bba:	ed9f 7a3c 	vldr	s14, [pc, #240]	; 8007cac <VCO_blepsaw_SampleCompute+0x2ac>
 8007bbe:	eef4 7ac7 	vcmpe.f32	s15, s14
 8007bc2:	eef1 fa10 	vmrs	APSR_nzcv, fpscr
 8007bc6:	f57f af3d 	bpl.w	8007a44 <VCO_blepsaw_SampleCompute+0x44>
 8007bca:	eef0 7a47 	vmov.f32	s15, s14
 8007bce:	e742      	b.n	8007a56 <VCO_blepsaw_SampleCompute+0x56>
 8007bd0:	eeb7 aa00 	vmov.f32	s20, #112	; 0x70
 8007bd4:	eeb4 8aca 	vcmpe.f32	s16, s20
 8007bd8:	eef1 fa10 	vmrs	APSR_nzcv, fpscr
 8007bdc:	db46      	blt.n	8007c6c <VCO_blepsaw_SampleCompute+0x26c>
 8007bde:	ee38 aa4a 	vsub.f32	s20, s16, s20
 8007be2:	ed9f 6a34 	vldr	s12, [pc, #208]	; 8007cb4 <VCO_blepsaw_SampleCompute+0x2b4>
 8007be6:	eeca 7a09 	vdiv.f32	s15, s20, s18
 8007bea:	ea4f 0788 	mov.w	r7, r8, lsl #2
 8007bee:	ee2a 6a06 	vmul.f32	s12, s20, s12
 8007bf2:	ee37 7a87 	vadd.f32	s14, s15, s14
 8007bf6:	ee86 8a09 	vdiv.f32	s16, s12, s18
 8007bfa:	eeb6 0a00 	vmov.f32	s0, #96	; 0x60
 8007bfe:	ed85 7a05 	vstr	s14, [r5, #20]
 8007c02:	ee38 0a40 	vsub.f32	s0, s16, s0
 8007c06:	f004 ffad 	bl	800cb64 <lrintf>
 8007c0a:	ee07 0a90 	vmov	s15, r0
 8007c0e:	eeb8 6ae7 	vcvt.f32.s32	s12, s15
 8007c12:	4b29      	ldr	r3, [pc, #164]	; (8007cb8 <VCO_blepsaw_SampleCompute+0x2b8>)
 8007c14:	f000 003f 	and.w	r0, r0, #63	; 0x3f
 8007c18:	f105 0224 	add.w	r2, r5, #36	; 0x24
 8007c1c:	ee38 6a46 	vsub.f32	s12, s16, s12
 8007c20:	eb03 03c0 	add.w	r3, r3, r0, lsl #3
 8007c24:	443a      	add	r2, r7
 8007c26:	edd3 6a01 	vldr	s13, [r3, #4]
 8007c2a:	edd3 7a00 	vldr	s15, [r3]
 8007c2e:	ed92 7a00 	vldr	s14, [r2]
 8007c32:	eee6 7a26 	vfma.f32	s15, s12, s13
 8007c36:	3040      	adds	r0, #64	; 0x40
 8007c38:	f5b0 5f90 	cmp.w	r0, #4608	; 0x1200
 8007c3c:	f503 7300 	add.w	r3, r3, #512	; 0x200
 8007c40:	ee77 7a27 	vadd.f32	s15, s14, s15
 8007c44:	ece2 7a01 	vstmia	r2!, {s15}
 8007c48:	dbed      	blt.n	8007c26 <VCO_blepsaw_SampleCompute+0x226>
 8007c4a:	e77d      	b.n	8007b48 <VCO_blepsaw_SampleCompute+0x148>
 8007c4c:	eeb6 9a00 	vmov.f32	s18, #96	; 0x60
 8007c50:	eef4 7ac9 	vcmpe.f32	s15, s18
 8007c54:	eef1 fa10 	vmrs	APSR_nzcv, fpscr
 8007c58:	f04f 0300 	mov.w	r3, #0
 8007c5c:	bfd8      	it	le
 8007c5e:	eeb0 9a67 	vmovle.f32	s18, s15
 8007c62:	f885 3548 	strb.w	r3, [r5, #1352]	; 0x548
 8007c66:	eeb6 8a00 	vmov.f32	s16, #96	; 0x60
 8007c6a:	e7a6      	b.n	8007bba <VCO_blepsaw_SampleCompute+0x1ba>
 8007c6c:	2300      	movs	r3, #0
 8007c6e:	eeb0 aa48 	vmov.f32	s20, s16
 8007c72:	616b      	str	r3, [r5, #20]
 8007c74:	ea4f 0788 	mov.w	r7, r8, lsl #2
 8007c78:	e766      	b.n	8007b48 <VCO_blepsaw_SampleCompute+0x148>
 8007c7a:	f105 0624 	add.w	r6, r5, #36	; 0x24
 8007c7e:	4c0e      	ldr	r4, [pc, #56]	; (8007cb8 <VCO_blepsaw_SampleCompute+0x2b8>)
 8007c80:	ea4f 0788 	mov.w	r7, r8, lsl #2
 8007c84:	e735      	b.n	8007af2 <VCO_blepsaw_SampleCompute+0xf2>
 8007c86:	f205 4124 	addw	r1, r5, #1060	; 0x424
 8007c8a:	f44f 7290 	mov.w	r2, #288	; 0x120
 8007c8e:	f105 0024 	add.w	r0, r5, #36	; 0x24
 8007c92:	f7f8 ff49 	bl	8000b28 <memcpy>
 8007c96:	f505 70a2 	add.w	r0, r5, #324	; 0x144
 8007c9a:	2100      	movs	r1, #0
 8007c9c:	f44f 6280 	mov.w	r2, #1024	; 0x400
 8007ca0:	f006 fe3e 	bl	800e920 <memset>
 8007ca4:	2300      	movs	r3, #0
 8007ca6:	e76c      	b.n	8007b82 <VCO_blepsaw_SampleCompute+0x182>
 8007ca8:	473b8000 	.word	0x473b8000
 8007cac:	3727c5ac 	.word	0x3727c5ac
 8007cb0:	1e3ce508 	.word	0x1e3ce508
 8007cb4:	42800000 	.word	0x42800000
 8007cb8:	0800ede4 	.word	0x0800ede4

08007cbc <VCO_bleprect_Init>:
VCO_bleprect_Init():
 8007cbc:	4a0b      	ldr	r2, [pc, #44]	; (8007cec <VCO_bleprect_Init+0x30>)
 8007cbe:	b410      	push	{r4}
 8007cc0:	2300      	movs	r3, #0
 8007cc2:	60c2      	str	r2, [r0, #12]
 8007cc4:	2401      	movs	r4, #1
 8007cc6:	f04f 527e 	mov.w	r2, #1065353216	; 0x3f800000
 8007cca:	2100      	movs	r1, #0
 8007ccc:	f880 4558 	strb.w	r4, [r0, #1368]	; 0x558
 8007cd0:	6042      	str	r2, [r0, #4]
 8007cd2:	6143      	str	r3, [r0, #20]
 8007cd4:	6103      	str	r3, [r0, #16]
 8007cd6:	62c3      	str	r3, [r0, #44]	; 0x2c
 8007cd8:	f8c0 1550 	str.w	r1, [r0, #1360]	; 0x550
 8007cdc:	f44f 62a4 	mov.w	r2, #1312	; 0x520
 8007ce0:	3030      	adds	r0, #48	; 0x30
 8007ce2:	f85d 4b04 	ldr.w	r4, [sp], #4
 8007ce6:	f006 be1b 	b.w	800e920 <memset>
 8007cea:	bf00      	nop
 8007cec:	43dc0000 	.word	0x43dc0000

08007cf0 <VCO_bleprect_SampleCompute>:
VCO_bleprect_SampleCompute():
 8007cf0:	e92d 43f8 	stmdb	sp!, {r3, r4, r5, r6, r7, r8, r9, lr}
 8007cf4:	f890 3558 	ldrb.w	r3, [r0, #1368]	; 0x558
 8007cf8:	ed90 6a03 	vldr	s12, [r0, #12]
 8007cfc:	edd0 5a08 	vldr	s11, [r0, #32]
 8007d00:	ed90 5a09 	vldr	s10, [r0, #36]	; 0x24
 8007d04:	f8d0 7550 	ldr.w	r7, [r0, #1360]	; 0x550
 8007d08:	f8d0 5554 	ldr.w	r5, [r0, #1364]	; 0x554
 8007d0c:	ed2d 8b08 	vpush	{d8-d11}
 8007d10:	4604      	mov	r4, r0
 8007d12:	edd0 8a05 	vldr	s17, [r0, #20]
 8007d16:	edd0 aa07 	vldr	s21, [r0, #28]
 8007d1a:	ed90 aa0a 	vldr	s20, [r0, #40]	; 0x28
 8007d1e:	ed90 8a0b 	vldr	s16, [r0, #44]	; 0x2c
 8007d22:	2b00      	cmp	r3, #0
 8007d24:	f040 8093 	bne.w	8007e4e <VCO_bleprect_SampleCompute+0x15e>
 8007d28:	eddf 6aba 	vldr	s13, [pc, #744]	; 8008014 <VCO_bleprect_SampleCompute+0x324>
 8007d2c:	ed90 7a04 	vldr	s14, [r0, #16]
 8007d30:	eec6 6a26 	vdiv.f32	s13, s12, s13
 8007d34:	eef7 4a00 	vmov.f32	s9, #112	; 0x70
 8007d38:	ee37 7a24 	vadd.f32	s14, s14, s9
 8007d3c:	eef6 7a00 	vmov.f32	s15, #96	; 0x60
 8007d40:	ee74 4ae5 	vsub.f32	s9, s9, s11
 8007d44:	ee67 7a27 	vmul.f32	s15, s14, s15
 8007d48:	ed9f 7ab3 	vldr	s14, [pc, #716]	; 8008018 <VCO_bleprect_SampleCompute+0x328>
 8007d4c:	eef4 6ac7 	vcmpe.f32	s13, s14
 8007d50:	eef1 fa10 	vmrs	APSR_nzcv, fpscr
 8007d54:	d478      	bmi.n	8007e48 <VCO_bleprect_SampleCompute+0x158>
 8007d56:	eeb6 7a00 	vmov.f32	s14, #96	; 0x60
 8007d5a:	eef4 6a47 	vcmp.f32	s13, s14
 8007d5e:	eef1 fa10 	vmrs	APSR_nzcv, fpscr
 8007d62:	bfc8      	it	gt
 8007d64:	eef0 6a47 	vmovgt.f32	s13, s14
 8007d68:	eef4 5a67 	vcmp.f32	s11, s15
 8007d6c:	eef1 fa10 	vmrs	APSR_nzcv, fpscr
 8007d70:	bfc8      	it	gt
 8007d72:	eef0 7a65 	vmovgt.f32	s15, s11
 8007d76:	eef4 7a64 	vcmp.f32	s15, s9
 8007d7a:	eef1 fa10 	vmrs	APSR_nzcv, fpscr
 8007d7e:	ee76 6ae5 	vsub.f32	s13, s13, s11
 8007d82:	ed9f 7aa6 	vldr	s14, [pc, #664]	; 800801c <VCO_bleprect_SampleCompute+0x32c>
 8007d86:	bfc8      	it	gt
 8007d88:	eef0 7a64 	vmovgt.f32	s15, s9
 8007d8c:	ee77 7ac5 	vsub.f32	s15, s15, s10
 8007d90:	ee35 9aa6 	vadd.f32	s18, s11, s13
 8007d94:	eef4 8ac7 	vcmpe.f32	s17, s14
 8007d98:	eef1 fa10 	vmrs	APSR_nzcv, fpscr
 8007d9c:	ee75 9a27 	vadd.f32	s19, s10, s15
 8007da0:	ee7a aa89 	vadd.f32	s21, s21, s18
 8007da4:	f2c0 808a 	blt.w	8007ebc <VCO_bleprect_SampleCompute+0x1cc>
 8007da8:	ee38 bac7 	vsub.f32	s22, s17, s14
 8007dac:	ee2b ba09 	vmul.f32	s22, s22, s18
 8007db0:	ee7a aacb 	vsub.f32	s21, s21, s22
 8007db4:	2d00      	cmp	r5, #0
 8007db6:	f040 813b 	bne.w	8008030 <VCO_bleprect_SampleCompute+0x340>
 8007dba:	eef4 9aea 	vcmpe.f32	s19, s21
 8007dbe:	eef1 fa10 	vmrs	APSR_nzcv, fpscr
 8007dc2:	f240 8222 	bls.w	800820a <VCO_bleprect_SampleCompute+0x51a>
 8007dc6:	eef7 7a00 	vmov.f32	s15, #112	; 0x70
 8007dca:	eef4 aae7 	vcmpe.f32	s21, s15
 8007dce:	eef1 fa10 	vmrs	APSR_nzcv, fpscr
 8007dd2:	f280 829b 	bge.w	800830c <VCO_bleprect_SampleCompute+0x61c>
 8007dd6:	eef4 9acb 	vcmpe.f32	s19, s22
 8007dda:	eef1 fa10 	vmrs	APSR_nzcv, fpscr
 8007dde:	ea4f 0687 	mov.w	r6, r7, lsl #2
 8007de2:	f240 816e 	bls.w	80080c2 <VCO_bleprect_SampleCompute+0x3d2>
 8007de6:	2500      	movs	r5, #0
 8007de8:	edc4 8a06 	vstr	s17, [r4, #24]
 8007dec:	4426      	add	r6, r4
 8007dee:	ed96 7a0c 	vldr	s14, [r6, #48]	; 0x30
 8007df2:	edd6 7a10 	vldr	s15, [r6, #64]	; 0x40
 8007df6:	ee37 7a48 	vsub.f32	s14, s14, s16
 8007dfa:	ee77 7a8a 	vadd.f32	s15, s15, s20
 8007dfe:	eef6 6a00 	vmov.f32	s13, #96	; 0x60
 8007e02:	eea7 8a26 	vfma.f32	s16, s14, s13
 8007e06:	3701      	adds	r7, #1
 8007e08:	f5b7 7f80 	cmp.w	r7, #256	; 0x100
 8007e0c:	edc6 7a10 	vstr	s15, [r6, #64]	; 0x40
 8007e10:	edd4 8a01 	vldr	s17, [r4, #4]
 8007e14:	ee68 8a28 	vmul.f32	s17, s16, s17
 8007e18:	edc4 8a00 	vstr	s17, [r4]
 8007e1c:	f000 825f 	beq.w	80082de <VCO_bleprect_SampleCompute+0x5ee>
 8007e20:	eeb0 0a68 	vmov.f32	s0, s17
 8007e24:	ed84 ba07 	vstr	s22, [r4, #28]
 8007e28:	ed84 9a08 	vstr	s18, [r4, #32]
 8007e2c:	edc4 9a09 	vstr	s19, [r4, #36]	; 0x24
 8007e30:	ed84 aa0a 	vstr	s20, [r4, #40]	; 0x28
 8007e34:	ed84 8a0b 	vstr	s16, [r4, #44]	; 0x2c
 8007e38:	ecbd 8b08 	vpop	{d8-d11}
 8007e3c:	f8c4 7550 	str.w	r7, [r4, #1360]	; 0x550
 8007e40:	f8c4 5554 	str.w	r5, [r4, #1364]	; 0x554
 8007e44:	e8bd 83f8 	ldmia.w	sp!, {r3, r4, r5, r6, r7, r8, r9, pc}
 8007e48:	eef0 6a47 	vmov.f32	s13, s14
 8007e4c:	e78c      	b.n	8007d68 <VCO_bleprect_SampleCompute+0x78>
 8007e4e:	eddf 6a71 	vldr	s13, [pc, #452]	; 8008014 <VCO_bleprect_SampleCompute+0x324>
 8007e52:	eddf 5a71 	vldr	s11, [pc, #452]	; 8008018 <VCO_bleprect_SampleCompute+0x328>
 8007e56:	eec6 6a26 	vdiv.f32	s13, s12, s13
 8007e5a:	eef4 6ae5 	vcmpe.f32	s13, s11
 8007e5e:	eef1 fa10 	vmrs	APSR_nzcv, fpscr
 8007e62:	f100 80bf 	bmi.w	8007fe4 <VCO_bleprect_SampleCompute+0x2f4>
 8007e66:	eeb6 5a00 	vmov.f32	s10, #96	; 0x60
 8007e6a:	eef4 6ac5 	vcmpe.f32	s13, s10
 8007e6e:	eef1 fa10 	vmrs	APSR_nzcv, fpscr
 8007e72:	f340 82ac 	ble.w	80083ce <VCO_bleprect_SampleCompute+0x6de>
 8007e76:	edd0 7a04 	vldr	s15, [r0, #16]
 8007e7a:	eeb7 7a00 	vmov.f32	s14, #112	; 0x70
 8007e7e:	ee37 7a87 	vadd.f32	s14, s15, s14
 8007e82:	ee27 7a05 	vmul.f32	s14, s14, s10
 8007e86:	eeb4 7ac5 	vcmpe.f32	s14, s10
 8007e8a:	eef1 fa10 	vmrs	APSR_nzcv, fpscr
 8007e8e:	f100 814d 	bmi.w	800812c <VCO_bleprect_SampleCompute+0x43c>
 8007e92:	eef0 7a47 	vmov.f32	s15, s14
 8007e96:	eef0 5a45 	vmov.f32	s11, s10
 8007e9a:	eeb4 7ac5 	vcmpe.f32	s14, s10
 8007e9e:	eef1 fa10 	vmrs	APSR_nzcv, fpscr
 8007ea2:	eef0 4a45 	vmov.f32	s9, s10
 8007ea6:	dc01      	bgt.n	8007eac <VCO_bleprect_SampleCompute+0x1bc>
 8007ea8:	eeb0 5a47 	vmov.f32	s10, s14
 8007eac:	2500      	movs	r5, #0
 8007eae:	eddf aa5c 	vldr	s21, [pc, #368]	; 8008020 <VCO_bleprect_SampleCompute+0x330>
 8007eb2:	f884 5558 	strb.w	r5, [r4, #1368]	; 0x558
 8007eb6:	eeb6 aa00 	vmov.f32	s20, #96	; 0x60
 8007eba:	e745      	b.n	8007d48 <VCO_bleprect_SampleCompute+0x58>
 8007ebc:	2d00      	cmp	r5, #0
 8007ebe:	d148      	bne.n	8007f52 <VCO_bleprect_SampleCompute+0x262>
 8007ec0:	eef4 9aea 	vcmpe.f32	s19, s21
 8007ec4:	eef1 fa10 	vmrs	APSR_nzcv, fpscr
 8007ec8:	f240 816c 	bls.w	80081a4 <VCO_bleprect_SampleCompute+0x4b4>
 8007ecc:	462b      	mov	r3, r5
 8007ece:	00be      	lsls	r6, r7, #2
 8007ed0:	eeb7 ba00 	vmov.f32	s22, #112	; 0x70
 8007ed4:	eef4 aacb 	vcmpe.f32	s21, s22
 8007ed8:	eef1 fa10 	vmrs	APSR_nzcv, fpscr
 8007edc:	f2c0 8210 	blt.w	8008300 <VCO_bleprect_SampleCompute+0x610>
 8007ee0:	ee3a bacb 	vsub.f32	s22, s21, s22
 8007ee4:	ed9f 6a51 	vldr	s12, [pc, #324]	; 800802c <VCO_bleprect_SampleCompute+0x33c>
 8007ee8:	ed9f 7a4c 	vldr	s14, [pc, #304]	; 800801c <VCO_bleprect_SampleCompute+0x32c>
 8007eec:	ee2b 6a06 	vmul.f32	s12, s22, s12
 8007ef0:	eecb 7a09 	vdiv.f32	s15, s22, s18
 8007ef4:	eec6 8a09 	vdiv.f32	s17, s12, s18
 8007ef8:	ee77 7a87 	vadd.f32	s15, s15, s14
 8007efc:	eeb6 0a00 	vmov.f32	s0, #96	; 0x60
 8007f00:	edc4 7a06 	vstr	s15, [r4, #24]
 8007f04:	ee38 0ac0 	vsub.f32	s0, s17, s0
 8007f08:	f004 fe2c 	bl	800cb64 <lrintf>
 8007f0c:	ee07 0a90 	vmov	s15, r0
 8007f10:	eeb8 6ae7 	vcvt.f32.s32	s12, s15
 8007f14:	4b43      	ldr	r3, [pc, #268]	; (8008024 <VCO_bleprect_SampleCompute+0x334>)
 8007f16:	f000 003f 	and.w	r0, r0, #63	; 0x3f
 8007f1a:	f104 0230 	add.w	r2, r4, #48	; 0x30
 8007f1e:	ee38 6ac6 	vsub.f32	s12, s17, s12
 8007f22:	eb03 03c0 	add.w	r3, r3, r0, lsl #3
 8007f26:	4432      	add	r2, r6
 8007f28:	edd3 6a01 	vldr	s13, [r3, #4]
 8007f2c:	edd3 7a00 	vldr	s15, [r3]
 8007f30:	ed92 7a00 	vldr	s14, [r2]
 8007f34:	eee6 7a26 	vfma.f32	s15, s12, s13
 8007f38:	3040      	adds	r0, #64	; 0x40
 8007f3a:	f5b0 5f90 	cmp.w	r0, #4608	; 0x1200
 8007f3e:	f503 7300 	add.w	r3, r3, #512	; 0x200
 8007f42:	ee77 7a27 	vadd.f32	s15, s14, s15
 8007f46:	ece2 7a01 	vstmia	r2!, {s15}
 8007f4a:	dbed      	blt.n	8007f28 <VCO_bleprect_SampleCompute+0x238>
 8007f4c:	eeb6 aa00 	vmov.f32	s20, #96	; 0x60
 8007f50:	e74c      	b.n	8007dec <VCO_bleprect_SampleCompute+0xfc>
 8007f52:	eeb7 ba00 	vmov.f32	s22, #112	; 0x70
 8007f56:	eef4 aacb 	vcmpe.f32	s21, s22
 8007f5a:	eef1 fa10 	vmrs	APSR_nzcv, fpscr
 8007f5e:	f2c0 811b 	blt.w	8008198 <VCO_bleprect_SampleCompute+0x4a8>
 8007f62:	ee3a bacb 	vsub.f32	s22, s21, s22
 8007f66:	ed9f 6a31 	vldr	s12, [pc, #196]	; 800802c <VCO_bleprect_SampleCompute+0x33c>
 8007f6a:	f8df 80b8 	ldr.w	r8, [pc, #184]	; 8008024 <VCO_bleprect_SampleCompute+0x334>
 8007f6e:	eecb 7a09 	vdiv.f32	s15, s22, s18
 8007f72:	00be      	lsls	r6, r7, #2
 8007f74:	f104 0530 	add.w	r5, r4, #48	; 0x30
 8007f78:	4435      	add	r5, r6
 8007f7a:	ee2b 6a06 	vmul.f32	s12, s22, s12
 8007f7e:	ee37 7a87 	vadd.f32	s14, s15, s14
 8007f82:	eec6 8a09 	vdiv.f32	s17, s12, s18
 8007f86:	eeb6 0a00 	vmov.f32	s0, #96	; 0x60
 8007f8a:	ed84 7a06 	vstr	s14, [r4, #24]
 8007f8e:	ee38 0ac0 	vsub.f32	s0, s17, s0
 8007f92:	f004 fde7 	bl	800cb64 <lrintf>
 8007f96:	ee07 0a90 	vmov	s15, r0
 8007f9a:	eeb8 6ae7 	vcvt.f32.s32	s12, s15
 8007f9e:	f000 003f 	and.w	r0, r0, #63	; 0x3f
 8007fa2:	ee38 6ac6 	vsub.f32	s12, s17, s12
 8007fa6:	eb08 03c0 	add.w	r3, r8, r0, lsl #3
 8007faa:	462a      	mov	r2, r5
 8007fac:	edd3 6a01 	vldr	s13, [r3, #4]
 8007fb0:	edd3 7a00 	vldr	s15, [r3]
 8007fb4:	ed92 7a00 	vldr	s14, [r2]
 8007fb8:	eee6 7a26 	vfma.f32	s15, s12, s13
 8007fbc:	3040      	adds	r0, #64	; 0x40
 8007fbe:	f5b0 5f90 	cmp.w	r0, #4608	; 0x1200
 8007fc2:	f503 7300 	add.w	r3, r3, #512	; 0x200
 8007fc6:	ee77 7a27 	vadd.f32	s15, s14, s15
 8007fca:	ece2 7a01 	vstmia	r2!, {s15}
 8007fce:	dbed      	blt.n	8007fac <VCO_bleprect_SampleCompute+0x2bc>
 8007fd0:	eef4 9acb 	vcmpe.f32	s19, s22
 8007fd4:	eef1 fa10 	vmrs	APSR_nzcv, fpscr
 8007fd8:	f240 81cb 	bls.w	8008372 <VCO_bleprect_SampleCompute+0x682>
 8007fdc:	eeb6 aa00 	vmov.f32	s20, #96	; 0x60
 8007fe0:	2500      	movs	r5, #0
 8007fe2:	e703      	b.n	8007dec <VCO_bleprect_SampleCompute+0xfc>
 8007fe4:	edd0 7a04 	vldr	s15, [r0, #16]
 8007fe8:	eeb7 7a00 	vmov.f32	s14, #112	; 0x70
 8007fec:	ee77 7a87 	vadd.f32	s15, s15, s14
 8007ff0:	eeb6 7a00 	vmov.f32	s14, #96	; 0x60
 8007ff4:	ee27 7a87 	vmul.f32	s14, s15, s14
 8007ff8:	eeb4 7ae5 	vcmpe.f32	s14, s11
 8007ffc:	eef1 fa10 	vmrs	APSR_nzcv, fpscr
 8008000:	eef0 7a47 	vmov.f32	s15, s14
 8008004:	f140 808f 	bpl.w	8008126 <VCO_bleprect_SampleCompute+0x436>
 8008008:	eeb0 5a65 	vmov.f32	s10, s11
 800800c:	eddf 4a06 	vldr	s9, [pc, #24]	; 8008028 <VCO_bleprect_SampleCompute+0x338>
 8008010:	e74c      	b.n	8007eac <VCO_bleprect_SampleCompute+0x1bc>
 8008012:	bf00      	nop
 8008014:	473b8000 	.word	0x473b8000
 8008018:	3727c5ac 	.word	0x3727c5ac
 800801c:	1e3ce508 	.word	0x1e3ce508
 8008020:	00000000 	.word	0x00000000
 8008024:	0800ede4 	.word	0x0800ede4
 8008028:	3f7fff58 	.word	0x3f7fff58
 800802c:	42800000 	.word	0x42800000
 8008030:	eef7 7a00 	vmov.f32	s15, #112	; 0x70
 8008034:	eef4 aae7 	vcmpe.f32	s21, s15
 8008038:	eef1 fa10 	vmrs	APSR_nzcv, fpscr
 800803c:	db7d      	blt.n	800813a <VCO_bleprect_SampleCompute+0x44a>
 800803e:	ee7a aae7 	vsub.f32	s21, s21, s15
 8008042:	ed1f 6a06 	vldr	s12, [pc, #-24]	; 800802c <VCO_bleprect_SampleCompute+0x33c>
 8008046:	f8df 83bc 	ldr.w	r8, [pc, #956]	; 8008404 <VCO_bleprect_SampleCompute+0x714>
 800804a:	ee7a 7a8b 	vadd.f32	s15, s21, s22
 800804e:	eeb6 0a00 	vmov.f32	s0, #96	; 0x60
 8008052:	ee27 6a86 	vmul.f32	s12, s15, s12
 8008056:	f104 0530 	add.w	r5, r4, #48	; 0x30
 800805a:	ee86 aa09 	vdiv.f32	s20, s12, s18
 800805e:	00be      	lsls	r6, r7, #2
 8008060:	eb05 0906 	add.w	r9, r5, r6
 8008064:	ee3a 0a40 	vsub.f32	s0, s20, s0
 8008068:	f004 fd7c 	bl	800cb64 <lrintf>
 800806c:	ee07 0a90 	vmov	s15, r0
 8008070:	eeb8 6ae7 	vcvt.f32.s32	s12, s15
 8008074:	f000 003f 	and.w	r0, r0, #63	; 0x3f
 8008078:	ee3a 6a46 	vsub.f32	s12, s20, s12
 800807c:	eb08 03c0 	add.w	r3, r8, r0, lsl #3
 8008080:	464a      	mov	r2, r9
 8008082:	edd3 6a01 	vldr	s13, [r3, #4]
 8008086:	edd3 7a00 	vldr	s15, [r3]
 800808a:	ed92 7a00 	vldr	s14, [r2]
 800808e:	eee6 7a26 	vfma.f32	s15, s12, s13
 8008092:	3040      	adds	r0, #64	; 0x40
 8008094:	f5b0 5f90 	cmp.w	r0, #4608	; 0x1200
 8008098:	f503 7300 	add.w	r3, r3, #512	; 0x200
 800809c:	ee77 7a27 	vadd.f32	s15, s14, s15
 80080a0:	ece2 7a01 	vstmia	r2!, {s15}
 80080a4:	dbed      	blt.n	8008082 <VCO_bleprect_SampleCompute+0x392>
 80080a6:	eef4 9aea 	vcmpe.f32	s19, s21
 80080aa:	eef1 fa10 	vmrs	APSR_nzcv, fpscr
 80080ae:	f240 8133 	bls.w	8008318 <VCO_bleprect_SampleCompute+0x628>
 80080b2:	eef4 9acb 	vcmpe.f32	s19, s22
 80080b6:	eef1 fa10 	vmrs	APSR_nzcv, fpscr
 80080ba:	eeb6 aa00 	vmov.f32	s20, #96	; 0x60
 80080be:	f63f ae92 	bhi.w	8007de6 <VCO_bleprect_SampleCompute+0xf6>
 80080c2:	ee7b 7a69 	vsub.f32	s15, s22, s19
 80080c6:	ed9f 6ace 	vldr	s12, [pc, #824]	; 8008400 <VCO_bleprect_SampleCompute+0x710>
 80080ca:	ee27 6a86 	vmul.f32	s12, s15, s12
 80080ce:	eeb6 0a00 	vmov.f32	s0, #96	; 0x60
 80080d2:	ee86 aa09 	vdiv.f32	s20, s12, s18
 80080d6:	ee3a 0a40 	vsub.f32	s0, s20, s0
 80080da:	f004 fd43 	bl	800cb64 <lrintf>
 80080de:	ee07 0a90 	vmov	s15, r0
 80080e2:	eeb8 6ae7 	vcvt.f32.s32	s12, s15
 80080e6:	4bc7      	ldr	r3, [pc, #796]	; (8008404 <VCO_bleprect_SampleCompute+0x714>)
 80080e8:	f000 003f 	and.w	r0, r0, #63	; 0x3f
 80080ec:	f104 0230 	add.w	r2, r4, #48	; 0x30
 80080f0:	ee3a 6a46 	vsub.f32	s12, s20, s12
 80080f4:	eb03 03c0 	add.w	r3, r3, r0, lsl #3
 80080f8:	4432      	add	r2, r6
 80080fa:	edd3 6a01 	vldr	s13, [r3, #4]
 80080fe:	edd3 7a00 	vldr	s15, [r3]
 8008102:	ed92 7a00 	vldr	s14, [r2]
 8008106:	eee6 7a26 	vfma.f32	s15, s12, s13
 800810a:	3040      	adds	r0, #64	; 0x40
 800810c:	f5b0 5f90 	cmp.w	r0, #4608	; 0x1200
 8008110:	f503 7300 	add.w	r3, r3, #512	; 0x200
 8008114:	ee77 7a67 	vsub.f32	s15, s14, s15
 8008118:	ece2 7a01 	vstmia	r2!, {s15}
 800811c:	dbed      	blt.n	80080fa <VCO_bleprect_SampleCompute+0x40a>
 800811e:	eebe aa00 	vmov.f32	s20, #224	; 0xe0
 8008122:	2501      	movs	r5, #1
 8008124:	e660      	b.n	8007de8 <VCO_bleprect_SampleCompute+0xf8>
 8008126:	ed9f 5ab8 	vldr	s10, [pc, #736]	; 8008408 <VCO_bleprect_SampleCompute+0x718>
 800812a:	e6b6      	b.n	8007e9a <VCO_bleprect_SampleCompute+0x1aa>
 800812c:	eef0 4a45 	vmov.f32	s9, s10
 8008130:	eef0 7a47 	vmov.f32	s15, s14
 8008134:	eef0 5a45 	vmov.f32	s11, s10
 8008138:	e6b8      	b.n	8007eac <VCO_bleprect_SampleCompute+0x1bc>
 800813a:	f8df 82c8 	ldr.w	r8, [pc, #712]	; 8008404 <VCO_bleprect_SampleCompute+0x714>
 800813e:	f104 0530 	add.w	r5, r4, #48	; 0x30
 8008142:	00be      	lsls	r6, r7, #2
 8008144:	ed9f 6aae 	vldr	s12, [pc, #696]	; 8008400 <VCO_bleprect_SampleCompute+0x710>
 8008148:	ee2b 6a06 	vmul.f32	s12, s22, s12
 800814c:	eeb6 0a00 	vmov.f32	s0, #96	; 0x60
 8008150:	ee86 aa09 	vdiv.f32	s20, s12, s18
 8008154:	4435      	add	r5, r6
 8008156:	ee3a 0a40 	vsub.f32	s0, s20, s0
 800815a:	f004 fd03 	bl	800cb64 <lrintf>
 800815e:	ee07 0a90 	vmov	s15, r0
 8008162:	eeb8 6ae7 	vcvt.f32.s32	s12, s15
 8008166:	f000 003f 	and.w	r0, r0, #63	; 0x3f
 800816a:	ee3a 6a46 	vsub.f32	s12, s20, s12
 800816e:	eb08 03c0 	add.w	r3, r8, r0, lsl #3
 8008172:	edd3 6a01 	vldr	s13, [r3, #4]
 8008176:	edd3 7a00 	vldr	s15, [r3]
 800817a:	ed95 7a00 	vldr	s14, [r5]
 800817e:	eee6 7a26 	vfma.f32	s15, s12, s13
 8008182:	3040      	adds	r0, #64	; 0x40
 8008184:	f5b0 5f90 	cmp.w	r0, #4608	; 0x1200
 8008188:	f503 7300 	add.w	r3, r3, #512	; 0x200
 800818c:	ee77 7a27 	vadd.f32	s15, s14, s15
 8008190:	ece5 7a01 	vstmia	r5!, {s15}
 8008194:	dbed      	blt.n	8008172 <VCO_bleprect_SampleCompute+0x482>
 8008196:	e78c      	b.n	80080b2 <VCO_bleprect_SampleCompute+0x3c2>
 8008198:	2300      	movs	r3, #0
 800819a:	eeb0 ba6a 	vmov.f32	s22, s21
 800819e:	61a3      	str	r3, [r4, #24]
 80081a0:	00be      	lsls	r6, r7, #2
 80081a2:	e623      	b.n	8007dec <VCO_bleprect_SampleCompute+0xfc>
 80081a4:	ee7a 7ae9 	vsub.f32	s15, s21, s19
 80081a8:	ed9f 6a95 	vldr	s12, [pc, #596]	; 8008400 <VCO_bleprect_SampleCompute+0x710>
 80081ac:	ee27 6a86 	vmul.f32	s12, s15, s12
 80081b0:	eeb6 0a00 	vmov.f32	s0, #96	; 0x60
 80081b4:	eec6 8a09 	vdiv.f32	s17, s12, s18
 80081b8:	00be      	lsls	r6, r7, #2
 80081ba:	ee38 0ac0 	vsub.f32	s0, s17, s0
 80081be:	f004 fcd1 	bl	800cb64 <lrintf>
 80081c2:	ee07 0a90 	vmov	s15, r0
 80081c6:	eeb8 6ae7 	vcvt.f32.s32	s12, s15
 80081ca:	4b8e      	ldr	r3, [pc, #568]	; (8008404 <VCO_bleprect_SampleCompute+0x714>)
 80081cc:	f000 003f 	and.w	r0, r0, #63	; 0x3f
 80081d0:	f104 0230 	add.w	r2, r4, #48	; 0x30
 80081d4:	ee38 6ac6 	vsub.f32	s12, s17, s12
 80081d8:	eb03 03c0 	add.w	r3, r3, r0, lsl #3
 80081dc:	4432      	add	r2, r6
 80081de:	edd3 6a01 	vldr	s13, [r3, #4]
 80081e2:	edd3 7a00 	vldr	s15, [r3]
 80081e6:	ed92 7a00 	vldr	s14, [r2]
 80081ea:	eee6 7a26 	vfma.f32	s15, s12, s13
 80081ee:	3040      	adds	r0, #64	; 0x40
 80081f0:	f5b0 5f90 	cmp.w	r0, #4608	; 0x1200
 80081f4:	f503 7300 	add.w	r3, r3, #512	; 0x200
 80081f8:	ee77 7a67 	vsub.f32	s15, s14, s15
 80081fc:	ece2 7a01 	vstmia	r2!, {s15}
 8008200:	dbed      	blt.n	80081de <VCO_bleprect_SampleCompute+0x4ee>
 8008202:	eebe aa00 	vmov.f32	s20, #224	; 0xe0
 8008206:	2301      	movs	r3, #1
 8008208:	e662      	b.n	8007ed0 <VCO_bleprect_SampleCompute+0x1e0>
 800820a:	ee7a 7ae9 	vsub.f32	s15, s21, s19
 800820e:	eddf 6a7c 	vldr	s13, [pc, #496]	; 8008400 <VCO_bleprect_SampleCompute+0x710>
 8008212:	f8df 81f0 	ldr.w	r8, [pc, #496]	; 8008404 <VCO_bleprect_SampleCompute+0x714>
 8008216:	ee77 7a8b 	vadd.f32	s15, s15, s22
 800821a:	eeb6 0a00 	vmov.f32	s0, #96	; 0x60
 800821e:	ee67 6aa6 	vmul.f32	s13, s15, s13
 8008222:	f104 0530 	add.w	r5, r4, #48	; 0x30
 8008226:	ee86 aa89 	vdiv.f32	s20, s13, s18
 800822a:	00be      	lsls	r6, r7, #2
 800822c:	ee3a 0a40 	vsub.f32	s0, s20, s0
 8008230:	f004 fc98 	bl	800cb64 <lrintf>
 8008234:	ee07 0a90 	vmov	s15, r0
 8008238:	eef8 6ae7 	vcvt.f32.s32	s13, s15
 800823c:	f000 003f 	and.w	r0, r0, #63	; 0x3f
 8008240:	ee7a 6a66 	vsub.f32	s13, s20, s13
 8008244:	eb08 03c0 	add.w	r3, r8, r0, lsl #3
 8008248:	19aa      	adds	r2, r5, r6
 800824a:	ed93 6a01 	vldr	s12, [r3, #4]
 800824e:	edd3 7a00 	vldr	s15, [r3]
 8008252:	ed92 7a00 	vldr	s14, [r2]
 8008256:	eee6 7a86 	vfma.f32	s15, s13, s12
 800825a:	3040      	adds	r0, #64	; 0x40
 800825c:	f5b0 5f90 	cmp.w	r0, #4608	; 0x1200
 8008260:	f503 7300 	add.w	r3, r3, #512	; 0x200
 8008264:	ee77 7a67 	vsub.f32	s15, s14, s15
 8008268:	ece2 7a01 	vstmia	r2!, {s15}
 800826c:	dbed      	blt.n	800824a <VCO_bleprect_SampleCompute+0x55a>
 800826e:	eef7 7a00 	vmov.f32	s15, #112	; 0x70
 8008272:	eef4 aae7 	vcmpe.f32	s21, s15
 8008276:	eef1 fa10 	vmrs	APSR_nzcv, fpscr
 800827a:	f6ff af63 	blt.w	8008144 <VCO_bleprect_SampleCompute+0x454>
 800827e:	eef7 6a00 	vmov.f32	s13, #112	; 0x70
 8008282:	ee7a aae6 	vsub.f32	s21, s21, s13
 8008286:	eddf 6a5e 	vldr	s13, [pc, #376]	; 8008400 <VCO_bleprect_SampleCompute+0x710>
 800828a:	ee7a aa8b 	vadd.f32	s21, s21, s22
 800828e:	eeb6 0a00 	vmov.f32	s0, #96	; 0x60
 8008292:	ee6a 6aa6 	vmul.f32	s13, s21, s13
 8008296:	4435      	add	r5, r6
 8008298:	ee86 aa89 	vdiv.f32	s20, s13, s18
 800829c:	ee3a 0a40 	vsub.f32	s0, s20, s0
 80082a0:	f004 fc60 	bl	800cb64 <lrintf>
 80082a4:	ee07 0a90 	vmov	s15, r0
 80082a8:	eef8 6ae7 	vcvt.f32.s32	s13, s15
 80082ac:	f000 003f 	and.w	r0, r0, #63	; 0x3f
 80082b0:	ee7a 6a66 	vsub.f32	s13, s20, s13
 80082b4:	eb08 03c0 	add.w	r3, r8, r0, lsl #3
 80082b8:	ed93 6a01 	vldr	s12, [r3, #4]
 80082bc:	edd3 7a00 	vldr	s15, [r3]
 80082c0:	ed95 7a00 	vldr	s14, [r5]
 80082c4:	eee6 7a86 	vfma.f32	s15, s13, s12
 80082c8:	3040      	adds	r0, #64	; 0x40
 80082ca:	f5b0 5f90 	cmp.w	r0, #4608	; 0x1200
 80082ce:	f503 7300 	add.w	r3, r3, #512	; 0x200
 80082d2:	ee77 7a27 	vadd.f32	s15, s14, s15
 80082d6:	ece5 7a01 	vstmia	r5!, {s15}
 80082da:	dbed      	blt.n	80082b8 <VCO_bleprect_SampleCompute+0x5c8>
 80082dc:	e6e9      	b.n	80080b2 <VCO_bleprect_SampleCompute+0x3c2>
 80082de:	f504 6186 	add.w	r1, r4, #1072	; 0x430
 80082e2:	f44f 7290 	mov.w	r2, #288	; 0x120
 80082e6:	f104 0030 	add.w	r0, r4, #48	; 0x30
 80082ea:	f7f8 fc1d 	bl	8000b28 <memcpy>
 80082ee:	f504 70a8 	add.w	r0, r4, #336	; 0x150
 80082f2:	2100      	movs	r1, #0
 80082f4:	f44f 6280 	mov.w	r2, #1024	; 0x400
 80082f8:	f006 fb12 	bl	800e920 <memset>
 80082fc:	2700      	movs	r7, #0
 80082fe:	e58f      	b.n	8007e20 <VCO_bleprect_SampleCompute+0x130>
 8008300:	2200      	movs	r2, #0
 8008302:	eeb0 ba6a 	vmov.f32	s22, s21
 8008306:	461d      	mov	r5, r3
 8008308:	61a2      	str	r2, [r4, #24]
 800830a:	e56f      	b.n	8007dec <VCO_bleprect_SampleCompute+0xfc>
 800830c:	f8df 80f4 	ldr.w	r8, [pc, #244]	; 8008404 <VCO_bleprect_SampleCompute+0x714>
 8008310:	f104 0530 	add.w	r5, r4, #48	; 0x30
 8008314:	00be      	lsls	r6, r7, #2
 8008316:	e7b2      	b.n	800827e <VCO_bleprect_SampleCompute+0x58e>
 8008318:	ee7a 7ae9 	vsub.f32	s15, s21, s19
 800831c:	ed9f 6a38 	vldr	s12, [pc, #224]	; 8008400 <VCO_bleprect_SampleCompute+0x710>
 8008320:	ee77 7a8b 	vadd.f32	s15, s15, s22
 8008324:	eeb6 0a00 	vmov.f32	s0, #96	; 0x60
 8008328:	ee27 6a86 	vmul.f32	s12, s15, s12
 800832c:	ee86 aa09 	vdiv.f32	s20, s12, s18
 8008330:	ee3a 0a40 	vsub.f32	s0, s20, s0
 8008334:	f004 fc16 	bl	800cb64 <lrintf>
 8008338:	ee07 0a90 	vmov	s15, r0
 800833c:	eeb8 6ae7 	vcvt.f32.s32	s12, s15
 8008340:	f000 003f 	and.w	r0, r0, #63	; 0x3f
 8008344:	ee3a 6a46 	vsub.f32	s12, s20, s12
 8008348:	eb08 03c0 	add.w	r3, r8, r0, lsl #3
 800834c:	edd3 6a01 	vldr	s13, [r3, #4]
 8008350:	edd3 7a00 	vldr	s15, [r3]
 8008354:	ed99 7a00 	vldr	s14, [r9]
 8008358:	eee6 7a26 	vfma.f32	s15, s12, s13
 800835c:	3040      	adds	r0, #64	; 0x40
 800835e:	f5b0 5f90 	cmp.w	r0, #4608	; 0x1200
 8008362:	f503 7300 	add.w	r3, r3, #512	; 0x200
 8008366:	ee77 7a67 	vsub.f32	s15, s14, s15
 800836a:	ece9 7a01 	vstmia	r9!, {s15}
 800836e:	dbed      	blt.n	800834c <VCO_bleprect_SampleCompute+0x65c>
 8008370:	e6e8      	b.n	8008144 <VCO_bleprect_SampleCompute+0x454>
 8008372:	ee7b 7a69 	vsub.f32	s15, s22, s19
 8008376:	ed9f 6a22 	vldr	s12, [pc, #136]	; 8008400 <VCO_bleprect_SampleCompute+0x710>
 800837a:	ee27 6a86 	vmul.f32	s12, s15, s12
 800837e:	eeb6 0a00 	vmov.f32	s0, #96	; 0x60
 8008382:	eec6 8a09 	vdiv.f32	s17, s12, s18
 8008386:	ee38 0ac0 	vsub.f32	s0, s17, s0
 800838a:	f004 fbeb 	bl	800cb64 <lrintf>
 800838e:	ee07 0a90 	vmov	s15, r0
 8008392:	eeb8 6ae7 	vcvt.f32.s32	s12, s15
 8008396:	f000 003f 	and.w	r0, r0, #63	; 0x3f
 800839a:	ee38 6ac6 	vsub.f32	s12, s17, s12
 800839e:	eb08 03c0 	add.w	r3, r8, r0, lsl #3
 80083a2:	edd3 6a01 	vldr	s13, [r3, #4]
 80083a6:	edd3 7a00 	vldr	s15, [r3]
 80083aa:	ed95 7a00 	vldr	s14, [r5]
 80083ae:	eee6 7a26 	vfma.f32	s15, s12, s13
 80083b2:	3040      	adds	r0, #64	; 0x40
 80083b4:	f5b0 5f90 	cmp.w	r0, #4608	; 0x1200
 80083b8:	f503 7300 	add.w	r3, r3, #512	; 0x200
 80083bc:	ee77 7a67 	vsub.f32	s15, s14, s15
 80083c0:	ece5 7a01 	vstmia	r5!, {s15}
 80083c4:	dbed      	blt.n	80083a2 <VCO_bleprect_SampleCompute+0x6b2>
 80083c6:	eebe aa00 	vmov.f32	s20, #224	; 0xe0
 80083ca:	2501      	movs	r5, #1
 80083cc:	e50e      	b.n	8007dec <VCO_bleprect_SampleCompute+0xfc>
 80083ce:	ed90 7a04 	vldr	s14, [r0, #16]
 80083d2:	eeb7 6a00 	vmov.f32	s12, #112	; 0x70
 80083d6:	ee37 7a06 	vadd.f32	s14, s14, s12
 80083da:	ee36 6a66 	vsub.f32	s12, s12, s13
 80083de:	ee67 7a05 	vmul.f32	s15, s14, s10
 80083e2:	eef0 5a66 	vmov.f32	s11, s13
 80083e6:	eef4 6ae7 	vcmpe.f32	s13, s15
 80083ea:	eef1 fa10 	vmrs	APSR_nzcv, fpscr
 80083ee:	eeb0 5a46 	vmov.f32	s10, s12
 80083f2:	bfd4      	ite	le
 80083f4:	eeb0 7a67 	vmovle.f32	s14, s15
 80083f8:	eeb0 7a66 	vmovgt.f32	s14, s13
 80083fc:	e54d      	b.n	8007e9a <VCO_bleprect_SampleCompute+0x1aa>
 80083fe:	bf00      	nop
 8008400:	42800000 	.word	0x42800000
 8008404:	0800ede4 	.word	0x0800ede4
 8008408:	3f7fff58 	.word	0x3f7fff58

0800840c <VCO_bleptri_Init>:
VCO_bleptri_Init():
 800840c:	4a0b      	ldr	r2, [pc, #44]	; (800843c <VCO_bleptri_Init+0x30>)
 800840e:	b410      	push	{r4}
 8008410:	2300      	movs	r3, #0
 8008412:	60c2      	str	r2, [r0, #12]
 8008414:	f04f 547e 	mov.w	r4, #1065353216	; 0x3f800000
 8008418:	2201      	movs	r2, #1
 800841a:	2100      	movs	r1, #0
 800841c:	6044      	str	r4, [r0, #4]
 800841e:	f880 2554 	strb.w	r2, [r0, #1364]	; 0x554
 8008422:	6143      	str	r3, [r0, #20]
 8008424:	6103      	str	r3, [r0, #16]
 8008426:	6283      	str	r3, [r0, #40]	; 0x28
 8008428:	f8c0 154c 	str.w	r1, [r0, #1356]	; 0x54c
 800842c:	f44f 62a4 	mov.w	r2, #1312	; 0x520
 8008430:	302c      	adds	r0, #44	; 0x2c
 8008432:	f85d 4b04 	ldr.w	r4, [sp], #4
 8008436:	f006 ba73 	b.w	800e920 <memset>
 800843a:	bf00      	nop
 800843c:	43dc0000 	.word	0x43dc0000

08008440 <VCO_bleptri_SampleCompute>:
VCO_bleptri_SampleCompute():
 8008440:	e92d 43f8 	stmdb	sp!, {r3, r4, r5, r6, r7, r8, r9, lr}
 8008444:	f890 3554 	ldrb.w	r3, [r0, #1364]	; 0x554
 8008448:	edd0 6a03 	vldr	s13, [r0, #12]
 800844c:	f8d0 554c 	ldr.w	r5, [r0, #1356]	; 0x54c
 8008450:	f8d0 7550 	ldr.w	r7, [r0, #1360]	; 0x550
 8008454:	ed2d 8b0c 	vpush	{d8-d13}
 8008458:	4604      	mov	r4, r0
 800845a:	edd0 9a05 	vldr	s19, [r0, #20]
 800845e:	ed90 aa07 	vldr	s20, [r0, #28]
 8008462:	edd0 8a08 	vldr	s17, [r0, #32]
 8008466:	ed90 8a09 	vldr	s16, [r0, #36]	; 0x24
 800846a:	ed90 9a0a 	vldr	s18, [r0, #40]	; 0x28
 800846e:	2b00      	cmp	r3, #0
 8008470:	f040 810e 	bne.w	8008690 <VCO_bleptri_SampleCompute+0x250>
 8008474:	edd0 7a04 	vldr	s15, [r0, #16]
 8008478:	eddf 5ad4 	vldr	s11, [pc, #848]	; 80087cc <VCO_bleptri_SampleCompute+0x38c>
 800847c:	eeb7 6a00 	vmov.f32	s12, #112	; 0x70
 8008480:	ee37 7a86 	vadd.f32	s14, s15, s12
 8008484:	eef6 7a00 	vmov.f32	s15, #96	; 0x60
 8008488:	ee67 7a27 	vmul.f32	s15, s14, s15
 800848c:	ee86 7aa5 	vdiv.f32	s14, s13, s11
 8008490:	eddf 6acf 	vldr	s13, [pc, #828]	; 80087d0 <VCO_bleptri_SampleCompute+0x390>
 8008494:	eeb4 7ae6 	vcmpe.f32	s14, s13
 8008498:	eef1 fa10 	vmrs	APSR_nzcv, fpscr
 800849c:	ee36 6a68 	vsub.f32	s12, s12, s17
 80084a0:	f100 8133 	bmi.w	800870a <VCO_bleptri_SampleCompute+0x2ca>
 80084a4:	eef6 6a00 	vmov.f32	s13, #96	; 0x60
 80084a8:	eeb4 7a66 	vcmp.f32	s14, s13
 80084ac:	eef1 fa10 	vmrs	APSR_nzcv, fpscr
 80084b0:	bfc8      	it	gt
 80084b2:	eeb0 7a66 	vmovgt.f32	s14, s13
 80084b6:	eef4 8a67 	vcmp.f32	s17, s15
 80084ba:	eef1 fa10 	vmrs	APSR_nzcv, fpscr
 80084be:	bfc8      	it	gt
 80084c0:	eef0 7a68 	vmovgt.f32	s15, s17
 80084c4:	eef4 7a46 	vcmp.f32	s15, s12
 80084c8:	eef1 fa10 	vmrs	APSR_nzcv, fpscr
 80084cc:	bfc8      	it	gt
 80084ce:	eef0 7a46 	vmovgt.f32	s15, s12
 80084d2:	ee77 7ac8 	vsub.f32	s15, s15, s16
 80084d6:	ee37 7a68 	vsub.f32	s14, s14, s17
 80084da:	ee38 8a27 	vadd.f32	s16, s16, s15
 80084de:	eddf 7abd 	vldr	s15, [pc, #756]	; 80087d4 <VCO_bleptri_SampleCompute+0x394>
 80084e2:	ee78 8a87 	vadd.f32	s17, s17, s14
 80084e6:	eef4 9ae7 	vcmpe.f32	s19, s15
 80084ea:	eef7 aa00 	vmov.f32	s21, #112	; 0x70
 80084ee:	eef1 fa10 	vmrs	APSR_nzcv, fpscr
 80084f2:	ee3a aa28 	vadd.f32	s20, s20, s17
 80084f6:	ee7a bac8 	vsub.f32	s23, s21, s16
 80084fa:	f2c0 8109 	blt.w	8008710 <VCO_bleptri_SampleCompute+0x2d0>
 80084fe:	ee39 bae7 	vsub.f32	s22, s19, s15
 8008502:	ee2b ba28 	vmul.f32	s22, s22, s17
 8008506:	ee3a aa4b 	vsub.f32	s20, s20, s22
 800850a:	2f00      	cmp	r7, #0
 800850c:	f040 81d9 	bne.w	80088c2 <VCO_bleptri_SampleCompute+0x482>
 8008510:	eeb4 8aca 	vcmpe.f32	s16, s20
 8008514:	eef1 fa10 	vmrs	APSR_nzcv, fpscr
 8008518:	f240 827c 	bls.w	8008a14 <VCO_bleptri_SampleCompute+0x5d4>
 800851c:	ee8a ca08 	vdiv.f32	s24, s20, s16
 8008520:	f104 072c 	add.w	r7, r4, #44	; 0x2c
 8008524:	eeb4 aaea 	vcmpe.f32	s20, s21
 8008528:	eef6 7a00 	vmov.f32	s15, #96	; 0x60
 800852c:	eef1 fa10 	vmrs	APSR_nzcv, fpscr
 8008530:	ee3c ca67 	vsub.f32	s24, s24, s15
 8008534:	f2c0 8358 	blt.w	8008be8 <VCO_bleptri_SampleCompute+0x7a8>
 8008538:	f8df 82a0 	ldr.w	r8, [pc, #672]	; 80087dc <VCO_bleptri_SampleCompute+0x39c>
 800853c:	00ae      	lsls	r6, r5, #2
 800853e:	eef7 ca00 	vmov.f32	s25, #112	; 0x70
 8008542:	ee3a aa6c 	vsub.f32	s20, s20, s25
 8008546:	ed9f 6aa6 	vldr	s12, [pc, #664]	; 80087e0 <VCO_bleptri_SampleCompute+0x3a0>
 800854a:	ee7a 7a0b 	vadd.f32	s15, s20, s22
 800854e:	ee8a aa08 	vdiv.f32	s20, s20, s16
 8008552:	ee27 6a86 	vmul.f32	s12, s15, s12
 8008556:	eeb6 0a00 	vmov.f32	s0, #96	; 0x60
 800855a:	eec6 aa28 	vdiv.f32	s21, s12, s17
 800855e:	ee3a ca40 	vsub.f32	s24, s20, s0
 8008562:	ee3a 0ac0 	vsub.f32	s0, s21, s0
 8008566:	f004 fafd 	bl	800cb64 <lrintf>
 800856a:	eecc 7a88 	vdiv.f32	s15, s25, s16
 800856e:	f000 023f 	and.w	r2, r0, #63	; 0x3f
 8008572:	eb08 0382 	add.w	r3, r8, r2, lsl #2
 8008576:	19b9      	adds	r1, r7, r6
 8008578:	eecc 5aab 	vdiv.f32	s11, s25, s23
 800857c:	ee07 0a10 	vmov	s14, r0
 8008580:	ee77 5aa5 	vadd.f32	s11, s15, s11
 8008584:	eeb8 6ac7 	vcvt.f32.s32	s12, s14
 8008588:	ee68 5aa5 	vmul.f32	s11, s17, s11
 800858c:	ee3a 6ac6 	vsub.f32	s12, s21, s12
 8008590:	edd3 7a00 	vldr	s15, [r3]
 8008594:	edd3 6a01 	vldr	s13, [r3, #4]
 8008598:	ed91 7a00 	vldr	s14, [r1]
 800859c:	ee76 6ae7 	vsub.f32	s13, s13, s15
 80085a0:	3240      	adds	r2, #64	; 0x40
 80085a2:	eee6 7a26 	vfma.f32	s15, s12, s13
 80085a6:	f5b2 5f8e 	cmp.w	r2, #4544	; 0x11c0
 80085aa:	f503 7380 	add.w	r3, r3, #256	; 0x100
 80085ae:	eea5 7aa7 	vfma.f32	s14, s11, s15
 80085b2:	eca1 7a01 	vstmia	r1!, {s14}
 80085b6:	dbeb      	blt.n	8008590 <VCO_bleptri_SampleCompute+0x150>
 80085b8:	ed9f 6a89 	vldr	s12, [pc, #548]	; 80087e0 <VCO_bleptri_SampleCompute+0x3a0>
 80085bc:	ee2b 6a06 	vmul.f32	s12, s22, s12
 80085c0:	eeb6 aa00 	vmov.f32	s20, #96	; 0x60
 80085c4:	eec6 aa28 	vdiv.f32	s21, s12, s17
 80085c8:	ee3a aaca 	vsub.f32	s20, s21, s20
 80085cc:	eeb0 0a4a 	vmov.f32	s0, s20
 80085d0:	f004 fac8 	bl	800cb64 <lrintf>
 80085d4:	ee07 0a90 	vmov	s15, r0
 80085d8:	eeb8 6ae7 	vcvt.f32.s32	s12, s15
 80085dc:	eebe aa00 	vmov.f32	s20, #224	; 0xe0
 80085e0:	4b7d      	ldr	r3, [pc, #500]	; (80087d8 <VCO_bleptri_SampleCompute+0x398>)
 80085e2:	4437      	add	r7, r6
 80085e4:	f000 003f 	and.w	r0, r0, #63	; 0x3f
 80085e8:	ee3a aa4c 	vsub.f32	s20, s20, s24
 80085ec:	ee3a 6ac6 	vsub.f32	s12, s21, s12
 80085f0:	eb03 03c0 	add.w	r3, r3, r0, lsl #3
 80085f4:	463a      	mov	r2, r7
 80085f6:	edd3 6a01 	vldr	s13, [r3, #4]
 80085fa:	ed93 7a00 	vldr	s14, [r3]
 80085fe:	edd2 7a00 	vldr	s15, [r2]
 8008602:	eea6 7a26 	vfma.f32	s14, s12, s13
 8008606:	3040      	adds	r0, #64	; 0x40
 8008608:	f5b0 5f90 	cmp.w	r0, #4608	; 0x1200
 800860c:	f503 7300 	add.w	r3, r3, #512	; 0x200
 8008610:	eeea 7a07 	vfma.f32	s15, s20, s14
 8008614:	ece2 7a01 	vstmia	r2!, {s15}
 8008618:	dbed      	blt.n	80085f6 <VCO_bleptri_SampleCompute+0x1b6>
 800861a:	eeb4 8acb 	vcmpe.f32	s16, s22
 800861e:	eef1 fa10 	vmrs	APSR_nzcv, fpscr
 8008622:	f240 829c 	bls.w	8008b5e <VCO_bleptri_SampleCompute+0x71e>
 8008626:	ee8b ca08 	vdiv.f32	s24, s22, s16
 800862a:	2700      	movs	r7, #0
 800862c:	eef6 7a00 	vmov.f32	s15, #96	; 0x60
 8008630:	ee3c ca67 	vsub.f32	s24, s24, s15
 8008634:	edc4 9a06 	vstr	s19, [r4, #24]
 8008638:	4426      	add	r6, r4
 800863a:	edd6 7a0b 	vldr	s15, [r6, #44]	; 0x2c
 800863e:	edd6 ba0f 	vldr	s23, [r6, #60]	; 0x3c
 8008642:	ee77 7ac9 	vsub.f32	s15, s15, s18
 8008646:	ee3b ca8c 	vadd.f32	s24, s23, s24
 800864a:	eeb6 7a00 	vmov.f32	s14, #96	; 0x60
 800864e:	eea7 9a87 	vfma.f32	s18, s15, s14
 8008652:	3501      	adds	r5, #1
 8008654:	f5b5 7f80 	cmp.w	r5, #256	; 0x100
 8008658:	ed86 ca0f 	vstr	s24, [r6, #60]	; 0x3c
 800865c:	edd4 9a01 	vldr	s19, [r4, #4]
 8008660:	ee69 9a29 	vmul.f32	s19, s18, s19
 8008664:	edc4 9a00 	vstr	s19, [r4]
 8008668:	f000 8268 	beq.w	8008b3c <VCO_bleptri_SampleCompute+0x6fc>
 800866c:	eeb0 0a69 	vmov.f32	s0, s19
 8008670:	ed84 ba07 	vstr	s22, [r4, #28]
 8008674:	edc4 8a08 	vstr	s17, [r4, #32]
 8008678:	ed84 8a09 	vstr	s16, [r4, #36]	; 0x24
 800867c:	ed84 9a0a 	vstr	s18, [r4, #40]	; 0x28
 8008680:	ecbd 8b0c 	vpop	{d8-d13}
 8008684:	f8c4 554c 	str.w	r5, [r4, #1356]	; 0x54c
 8008688:	f8c4 7550 	str.w	r7, [r4, #1360]	; 0x550
 800868c:	e8bd 83f8 	ldmia.w	sp!, {r3, r4, r5, r6, r7, r8, r9, pc}
 8008690:	ed9f 7a4e 	vldr	s14, [pc, #312]	; 80087cc <VCO_bleptri_SampleCompute+0x38c>
 8008694:	eddf 8a4e 	vldr	s17, [pc, #312]	; 80087d0 <VCO_bleptri_SampleCompute+0x390>
 8008698:	ee86 7a87 	vdiv.f32	s14, s13, s14
 800869c:	eeb4 7ae8 	vcmpe.f32	s14, s17
 80086a0:	eef1 fa10 	vmrs	APSR_nzcv, fpscr
 80086a4:	f100 80f3 	bmi.w	800888e <VCO_bleptri_SampleCompute+0x44e>
 80086a8:	eeb6 6a00 	vmov.f32	s12, #96	; 0x60
 80086ac:	eeb4 7ac6 	vcmpe.f32	s14, s12
 80086b0:	eef1 fa10 	vmrs	APSR_nzcv, fpscr
 80086b4:	edd0 7a04 	vldr	s15, [r0, #16]
 80086b8:	f340 831b 	ble.w	8008cf2 <VCO_bleptri_SampleCompute+0x8b2>
 80086bc:	eeb7 8a00 	vmov.f32	s16, #112	; 0x70
 80086c0:	ee37 8a88 	vadd.f32	s16, s15, s16
 80086c4:	eef0 8a46 	vmov.f32	s17, s12
 80086c8:	ee28 8a06 	vmul.f32	s16, s16, s12
 80086cc:	eeb4 8ac6 	vcmpe.f32	s16, s12
 80086d0:	eef1 fa10 	vmrs	APSR_nzcv, fpscr
 80086d4:	eef0 7a48 	vmov.f32	s15, s16
 80086d8:	f100 8146 	bmi.w	8008968 <VCO_bleptri_SampleCompute+0x528>
 80086dc:	eeb4 8ac6 	vcmpe.f32	s16, s12
 80086e0:	eef1 fa10 	vmrs	APSR_nzcv, fpscr
 80086e4:	f340 80e8 	ble.w	80088b8 <VCO_bleptri_SampleCompute+0x478>
 80086e8:	eeb6 aa00 	vmov.f32	s20, #96	; 0x60
 80086ec:	ee26 aa0a 	vmul.f32	s20, s12, s20
 80086f0:	eeb0 8a46 	vmov.f32	s16, s12
 80086f4:	eddf 6a36 	vldr	s13, [pc, #216]	; 80087d0 <VCO_bleptri_SampleCompute+0x390>
 80086f8:	eeb4 7ae6 	vcmpe.f32	s14, s13
 80086fc:	2700      	movs	r7, #0
 80086fe:	eef1 fa10 	vmrs	APSR_nzcv, fpscr
 8008702:	f884 7554 	strb.w	r7, [r4, #1364]	; 0x554
 8008706:	f57f aecd 	bpl.w	80084a4 <VCO_bleptri_SampleCompute+0x64>
 800870a:	eeb0 7a66 	vmov.f32	s14, s13
 800870e:	e6d2      	b.n	80084b6 <VCO_bleptri_SampleCompute+0x76>
 8008710:	2f00      	cmp	r7, #0
 8008712:	d167      	bne.n	80087e4 <VCO_bleptri_SampleCompute+0x3a4>
 8008714:	eeb4 8aca 	vcmpe.f32	s16, s20
 8008718:	eef1 fa10 	vmrs	APSR_nzcv, fpscr
 800871c:	f240 81cd 	bls.w	8008aba <VCO_bleptri_SampleCompute+0x67a>
 8008720:	ee8a ca08 	vdiv.f32	s24, s20, s16
 8008724:	463b      	mov	r3, r7
 8008726:	00ae      	lsls	r6, r5, #2
 8008728:	eef6 7a00 	vmov.f32	s15, #96	; 0x60
 800872c:	ee3c ca67 	vsub.f32	s24, s24, s15
 8008730:	eef7 9a00 	vmov.f32	s19, #112	; 0x70
 8008734:	eeb4 aae9 	vcmpe.f32	s20, s19
 8008738:	eef1 fa10 	vmrs	APSR_nzcv, fpscr
 800873c:	f2c0 824e 	blt.w	8008bdc <VCO_bleptri_SampleCompute+0x79c>
 8008740:	ee3a ba69 	vsub.f32	s22, s20, s19
 8008744:	eddf 5a26 	vldr	s11, [pc, #152]	; 80087e0 <VCO_bleptri_SampleCompute+0x3a0>
 8008748:	ed9f 7a22 	vldr	s14, [pc, #136]	; 80087d4 <VCO_bleptri_SampleCompute+0x394>
 800874c:	ee6b 5a25 	vmul.f32	s11, s22, s11
 8008750:	eecb 7a28 	vdiv.f32	s15, s22, s17
 8008754:	ee85 aaa8 	vdiv.f32	s20, s11, s17
 8008758:	ee8b ca08 	vdiv.f32	s24, s22, s16
 800875c:	ee77 7a87 	vadd.f32	s15, s15, s14
 8008760:	eeb6 7a00 	vmov.f32	s14, #96	; 0x60
 8008764:	edc4 7a06 	vstr	s15, [r4, #24]
 8008768:	ee3a 0a47 	vsub.f32	s0, s20, s14
 800876c:	ee3c ca47 	vsub.f32	s24, s24, s14
 8008770:	f004 f9f8 	bl	800cb64 <lrintf>
 8008774:	ee89 6aab 	vdiv.f32	s12, s19, s23
 8008778:	4b18      	ldr	r3, [pc, #96]	; (80087dc <VCO_bleptri_SampleCompute+0x39c>)
 800877a:	f000 013f 	and.w	r1, r0, #63	; 0x3f
 800877e:	f104 022c 	add.w	r2, r4, #44	; 0x2c
 8008782:	eb03 0381 	add.w	r3, r3, r1, lsl #2
 8008786:	4432      	add	r2, r6
 8008788:	eec9 9a88 	vdiv.f32	s19, s19, s16
 800878c:	ee07 0a90 	vmov	s15, r0
 8008790:	ee39 6a86 	vadd.f32	s12, s19, s12
 8008794:	eef8 5ae7 	vcvt.f32.s32	s11, s15
 8008798:	ee28 6a86 	vmul.f32	s12, s17, s12
 800879c:	ee7a 5a65 	vsub.f32	s11, s20, s11
 80087a0:	edd3 7a00 	vldr	s15, [r3]
 80087a4:	edd3 6a01 	vldr	s13, [r3, #4]
 80087a8:	ed92 7a00 	vldr	s14, [r2]
 80087ac:	ee76 6ae7 	vsub.f32	s13, s13, s15
 80087b0:	3140      	adds	r1, #64	; 0x40
 80087b2:	eee5 7aa6 	vfma.f32	s15, s11, s13
 80087b6:	f5b1 5f8e 	cmp.w	r1, #4544	; 0x11c0
 80087ba:	f503 7380 	add.w	r3, r3, #256	; 0x100
 80087be:	eea6 7a27 	vfma.f32	s14, s12, s15
 80087c2:	eca2 7a01 	vstmia	r2!, {s14}
 80087c6:	dbeb      	blt.n	80087a0 <VCO_bleptri_SampleCompute+0x360>
 80087c8:	e736      	b.n	8008638 <VCO_bleptri_SampleCompute+0x1f8>
 80087ca:	bf00      	nop
 80087cc:	473b8000 	.word	0x473b8000
 80087d0:	3727c5ac 	.word	0x3727c5ac
 80087d4:	1e3ce508 	.word	0x1e3ce508
 80087d8:	0800ede4 	.word	0x0800ede4
 80087dc:	08017dec 	.word	0x08017dec
 80087e0:	42800000 	.word	0x42800000
 80087e4:	eeb4 aaea 	vcmpe.f32	s20, s21
 80087e8:	eef1 fa10 	vmrs	APSR_nzcv, fpscr
 80087ec:	f2c0 8104 	blt.w	80089f8 <VCO_bleptri_SampleCompute+0x5b8>
 80087f0:	ee3a ba6a 	vsub.f32	s22, s20, s21
 80087f4:	ed1f 6a06 	vldr	s12, [pc, #-24]	; 80087e0 <VCO_bleptri_SampleCompute+0x3a0>
 80087f8:	f8df 8478 	ldr.w	r8, [pc, #1144]	; 8008c74 <VCO_bleptri_SampleCompute+0x834>
 80087fc:	ee2b 6a06 	vmul.f32	s12, s22, s12
 8008800:	ee8b 7a28 	vdiv.f32	s14, s22, s17
 8008804:	00ae      	lsls	r6, r5, #2
 8008806:	f104 072c 	add.w	r7, r4, #44	; 0x2c
 800880a:	4437      	add	r7, r6
 800880c:	eec6 9a28 	vdiv.f32	s19, s12, s17
 8008810:	ee77 7a27 	vadd.f32	s15, s14, s15
 8008814:	eeb6 0a00 	vmov.f32	s0, #96	; 0x60
 8008818:	edc4 7a06 	vstr	s15, [r4, #24]
 800881c:	ee39 0ac0 	vsub.f32	s0, s19, s0
 8008820:	f004 f9a0 	bl	800cb64 <lrintf>
 8008824:	ee8a aa88 	vdiv.f32	s20, s21, s16
 8008828:	f000 023f 	and.w	r2, r0, #63	; 0x3f
 800882c:	eb08 0382 	add.w	r3, r8, r2, lsl #2
 8008830:	4639      	mov	r1, r7
 8008832:	eeca 5aab 	vdiv.f32	s11, s21, s23
 8008836:	ee07 0a90 	vmov	s15, r0
 800883a:	ee7a 5a25 	vadd.f32	s11, s20, s11
 800883e:	eeb8 6ae7 	vcvt.f32.s32	s12, s15
 8008842:	ee68 5aa5 	vmul.f32	s11, s17, s11
 8008846:	ee39 6ac6 	vsub.f32	s12, s19, s12
 800884a:	edd3 7a00 	vldr	s15, [r3]
 800884e:	edd3 6a01 	vldr	s13, [r3, #4]
 8008852:	ed91 7a00 	vldr	s14, [r1]
 8008856:	ee76 6ae7 	vsub.f32	s13, s13, s15
 800885a:	3240      	adds	r2, #64	; 0x40
 800885c:	eee6 7a26 	vfma.f32	s15, s12, s13
 8008860:	f5b2 5f8e 	cmp.w	r2, #4544	; 0x11c0
 8008864:	f503 7380 	add.w	r3, r3, #256	; 0x100
 8008868:	eea5 7aa7 	vfma.f32	s14, s11, s15
 800886c:	eca1 7a01 	vstmia	r1!, {s14}
 8008870:	dbeb      	blt.n	800884a <VCO_bleptri_SampleCompute+0x40a>
 8008872:	eeb4 8acb 	vcmpe.f32	s16, s22
 8008876:	eef1 fa10 	vmrs	APSR_nzcv, fpscr
 800887a:	f240 81bf 	bls.w	8008bfc <VCO_bleptri_SampleCompute+0x7bc>
 800887e:	ee8b ca08 	vdiv.f32	s24, s22, s16
 8008882:	2700      	movs	r7, #0
 8008884:	eef6 7a00 	vmov.f32	s15, #96	; 0x60
 8008888:	ee3c ca67 	vsub.f32	s24, s24, s15
 800888c:	e6d4      	b.n	8008638 <VCO_bleptri_SampleCompute+0x1f8>
 800888e:	edd0 7a04 	vldr	s15, [r0, #16]
 8008892:	eeb7 8a00 	vmov.f32	s16, #112	; 0x70
 8008896:	ee77 7a88 	vadd.f32	s15, s15, s16
 800889a:	eeb6 8a00 	vmov.f32	s16, #96	; 0x60
 800889e:	ee27 8a88 	vmul.f32	s16, s15, s16
 80088a2:	eeb4 8ae8 	vcmpe.f32	s16, s17
 80088a6:	eef1 fa10 	vmrs	APSR_nzcv, fpscr
 80088aa:	eef0 7a48 	vmov.f32	s15, s16
 80088ae:	d558      	bpl.n	8008962 <VCO_bleptri_SampleCompute+0x522>
 80088b0:	ed9f 6aef 	vldr	s12, [pc, #956]	; 8008c70 <VCO_bleptri_SampleCompute+0x830>
 80088b4:	eeb0 8a68 	vmov.f32	s16, s17
 80088b8:	eeb6 aa00 	vmov.f32	s20, #96	; 0x60
 80088bc:	ee28 aa0a 	vmul.f32	s20, s16, s20
 80088c0:	e718      	b.n	80086f4 <VCO_bleptri_SampleCompute+0x2b4>
 80088c2:	eeb4 aaea 	vcmpe.f32	s20, s21
 80088c6:	eef1 fa10 	vmrs	APSR_nzcv, fpscr
 80088ca:	db52      	blt.n	8008972 <VCO_bleptri_SampleCompute+0x532>
 80088cc:	ee3a aa6a 	vsub.f32	s20, s20, s21
 80088d0:	ed9f 6ae9 	vldr	s12, [pc, #932]	; 8008c78 <VCO_bleptri_SampleCompute+0x838>
 80088d4:	f8df 839c 	ldr.w	r8, [pc, #924]	; 8008c74 <VCO_bleptri_SampleCompute+0x834>
 80088d8:	ee7a 7a0b 	vadd.f32	s15, s20, s22
 80088dc:	ee8a da88 	vdiv.f32	s26, s21, s16
 80088e0:	f104 072c 	add.w	r7, r4, #44	; 0x2c
 80088e4:	00ae      	lsls	r6, r5, #2
 80088e6:	eb07 0906 	add.w	r9, r7, r6
 80088ea:	ee27 6a86 	vmul.f32	s12, s15, s12
 80088ee:	eeca aaab 	vdiv.f32	s21, s21, s23
 80088f2:	ee86 ca28 	vdiv.f32	s24, s12, s17
 80088f6:	eeb6 0a00 	vmov.f32	s0, #96	; 0x60
 80088fa:	ee3c 0a40 	vsub.f32	s0, s24, s0
 80088fe:	f004 f931 	bl	800cb64 <lrintf>
 8008902:	ee07 0a90 	vmov	s15, r0
 8008906:	ee7d ca2a 	vadd.f32	s25, s26, s21
 800890a:	eeb8 6ae7 	vcvt.f32.s32	s12, s15
 800890e:	f000 003f 	and.w	r0, r0, #63	; 0x3f
 8008912:	ee68 caac 	vmul.f32	s25, s17, s25
 8008916:	ee3c 6a46 	vsub.f32	s12, s24, s12
 800891a:	eb08 0380 	add.w	r3, r8, r0, lsl #2
 800891e:	464a      	mov	r2, r9
 8008920:	edd3 7a00 	vldr	s15, [r3]
 8008924:	edd3 6a01 	vldr	s13, [r3, #4]
 8008928:	ed92 7a00 	vldr	s14, [r2]
 800892c:	ee76 6ae7 	vsub.f32	s13, s13, s15
 8008930:	3040      	adds	r0, #64	; 0x40
 8008932:	eee6 7a26 	vfma.f32	s15, s12, s13
 8008936:	f5b0 5f8e 	cmp.w	r0, #4544	; 0x11c0
 800893a:	f503 7380 	add.w	r3, r3, #256	; 0x100
 800893e:	eeac 7aa7 	vfma.f32	s14, s25, s15
 8008942:	eca2 7a01 	vstmia	r2!, {s14}
 8008946:	dbeb      	blt.n	8008920 <VCO_bleptri_SampleCompute+0x4e0>
 8008948:	eeb4 8aca 	vcmpe.f32	s16, s20
 800894c:	eef1 fa10 	vmrs	APSR_nzcv, fpscr
 8008950:	f240 8194 	bls.w	8008c7c <VCO_bleptri_SampleCompute+0x83c>
 8008954:	ee8a aa08 	vdiv.f32	s20, s20, s16
 8008958:	eeb6 ca00 	vmov.f32	s24, #96	; 0x60
 800895c:	ee3a ca4c 	vsub.f32	s24, s20, s24
 8008960:	e62a      	b.n	80085b8 <VCO_bleptri_SampleCompute+0x178>
 8008962:	ed9f 6ac3 	vldr	s12, [pc, #780]	; 8008c70 <VCO_bleptri_SampleCompute+0x830>
 8008966:	e6b9      	b.n	80086dc <VCO_bleptri_SampleCompute+0x29c>
 8008968:	eeb0 8a46 	vmov.f32	s16, s12
 800896c:	eeb5 aa00 	vmov.f32	s20, #80	; 0x50
 8008970:	e6c0      	b.n	80086f4 <VCO_bleptri_SampleCompute+0x2b4>
 8008972:	eeca ca88 	vdiv.f32	s25, s21, s16
 8008976:	f8df 82fc 	ldr.w	r8, [pc, #764]	; 8008c74 <VCO_bleptri_SampleCompute+0x834>
 800897a:	f104 072c 	add.w	r7, r4, #44	; 0x2c
 800897e:	00ae      	lsls	r6, r5, #2
 8008980:	ee3a aa48 	vsub.f32	s20, s20, s16
 8008984:	eeca aaab 	vdiv.f32	s21, s21, s23
 8008988:	ee8a aa2b 	vdiv.f32	s20, s20, s23
 800898c:	ee7c caaa 	vadd.f32	s25, s25, s21
 8008990:	eeb6 ca00 	vmov.f32	s24, #96	; 0x60
 8008994:	ee3c ca4a 	vsub.f32	s24, s24, s20
 8008998:	ee68 caac 	vmul.f32	s25, s17, s25
 800899c:	eddf aab6 	vldr	s21, [pc, #728]	; 8008c78 <VCO_bleptri_SampleCompute+0x838>
 80089a0:	ee6b aa2a 	vmul.f32	s21, s22, s21
 80089a4:	eeb6 aa00 	vmov.f32	s20, #96	; 0x60
 80089a8:	eeca aaa8 	vdiv.f32	s21, s21, s17
 80089ac:	ee3a aaca 	vsub.f32	s20, s21, s20
 80089b0:	eeb0 0a4a 	vmov.f32	s0, s20
 80089b4:	f004 f8d6 	bl	800cb64 <lrintf>
 80089b8:	ee07 0a90 	vmov	s15, r0
 80089bc:	eeb8 6ae7 	vcvt.f32.s32	s12, s15
 80089c0:	f000 003f 	and.w	r0, r0, #63	; 0x3f
 80089c4:	ee3a 6ac6 	vsub.f32	s12, s21, s12
 80089c8:	eb08 0380 	add.w	r3, r8, r0, lsl #2
 80089cc:	19ba      	adds	r2, r7, r6
 80089ce:	edd3 7a00 	vldr	s15, [r3]
 80089d2:	edd3 6a01 	vldr	s13, [r3, #4]
 80089d6:	ed92 7a00 	vldr	s14, [r2]
 80089da:	ee76 6ae7 	vsub.f32	s13, s13, s15
 80089de:	3040      	adds	r0, #64	; 0x40
 80089e0:	eee6 7a26 	vfma.f32	s15, s12, s13
 80089e4:	f5b0 5f8e 	cmp.w	r0, #4544	; 0x11c0
 80089e8:	f503 7380 	add.w	r3, r3, #256	; 0x100
 80089ec:	eeac 7aa7 	vfma.f32	s14, s25, s15
 80089f0:	eca2 7a01 	vstmia	r2!, {s14}
 80089f4:	dbeb      	blt.n	80089ce <VCO_bleptri_SampleCompute+0x58e>
 80089f6:	e5e9      	b.n	80085cc <VCO_bleptri_SampleCompute+0x18c>
 80089f8:	ee3a ca48 	vsub.f32	s24, s20, s16
 80089fc:	2300      	movs	r3, #0
 80089fe:	eecc ba2b 	vdiv.f32	s23, s24, s23
 8008a02:	00ae      	lsls	r6, r5, #2
 8008a04:	61a3      	str	r3, [r4, #24]
 8008a06:	eeb6 ca00 	vmov.f32	s24, #96	; 0x60
 8008a0a:	eeb0 ba4a 	vmov.f32	s22, s20
 8008a0e:	ee3c ca6b 	vsub.f32	s24, s24, s23
 8008a12:	e611      	b.n	8008638 <VCO_bleptri_SampleCompute+0x1f8>
 8008a14:	ee7a 7a48 	vsub.f32	s15, s20, s16
 8008a18:	eddf 5a97 	vldr	s11, [pc, #604]	; 8008c78 <VCO_bleptri_SampleCompute+0x838>
 8008a1c:	f8df 8254 	ldr.w	r8, [pc, #596]	; 8008c74 <VCO_bleptri_SampleCompute+0x834>
 8008a20:	ee3b 7a27 	vadd.f32	s14, s22, s15
 8008a24:	eec7 7aab 	vdiv.f32	s15, s15, s23
 8008a28:	f104 072c 	add.w	r7, r4, #44	; 0x2c
 8008a2c:	00ae      	lsls	r6, r5, #2
 8008a2e:	ee67 5a25 	vmul.f32	s11, s14, s11
 8008a32:	eeb6 0a00 	vmov.f32	s0, #96	; 0x60
 8008a36:	eec5 caa8 	vdiv.f32	s25, s11, s17
 8008a3a:	ee30 ca67 	vsub.f32	s24, s0, s15
 8008a3e:	ee3c 0ac0 	vsub.f32	s0, s25, s0
 8008a42:	f004 f88f 	bl	800cb64 <lrintf>
 8008a46:	eeff 7a00 	vmov.f32	s15, #240	; 0xf0
 8008a4a:	ee8a 6a88 	vdiv.f32	s12, s21, s16
 8008a4e:	f000 023f 	and.w	r2, r0, #63	; 0x3f
 8008a52:	eb08 0382 	add.w	r3, r8, r2, lsl #2
 8008a56:	19b9      	adds	r1, r7, r6
 8008a58:	eec7 7aab 	vdiv.f32	s15, s15, s23
 8008a5c:	ee07 0a10 	vmov	s14, r0
 8008a60:	ee37 6ac6 	vsub.f32	s12, s15, s12
 8008a64:	eef8 5ac7 	vcvt.f32.s32	s11, s14
 8008a68:	ee28 6a86 	vmul.f32	s12, s17, s12
 8008a6c:	ee7c 5ae5 	vsub.f32	s11, s25, s11
 8008a70:	edd3 7a00 	vldr	s15, [r3]
 8008a74:	edd3 6a01 	vldr	s13, [r3, #4]
 8008a78:	ed91 7a00 	vldr	s14, [r1]
 8008a7c:	ee76 6ae7 	vsub.f32	s13, s13, s15
 8008a80:	3240      	adds	r2, #64	; 0x40
 8008a82:	eee5 7aa6 	vfma.f32	s15, s11, s13
 8008a86:	f5b2 5f8e 	cmp.w	r2, #4544	; 0x11c0
 8008a8a:	f503 7380 	add.w	r3, r3, #256	; 0x100
 8008a8e:	eea6 7a27 	vfma.f32	s14, s12, s15
 8008a92:	eca1 7a01 	vstmia	r1!, {s14}
 8008a96:	dbeb      	blt.n	8008a70 <VCO_bleptri_SampleCompute+0x630>
 8008a98:	eeb7 7a00 	vmov.f32	s14, #112	; 0x70
 8008a9c:	eeb4 aac7 	vcmpe.f32	s20, s14
 8008aa0:	eef1 fa10 	vmrs	APSR_nzcv, fpscr
 8008aa4:	f6bf ad4b 	bge.w	800853e <VCO_bleptri_SampleCompute+0xfe>
 8008aa8:	eec7 7a08 	vdiv.f32	s15, s14, s16
 8008aac:	eec7 ca2b 	vdiv.f32	s25, s14, s23
 8008ab0:	ee77 caac 	vadd.f32	s25, s15, s25
 8008ab4:	ee68 caac 	vmul.f32	s25, s17, s25
 8008ab8:	e770      	b.n	800899c <VCO_bleptri_SampleCompute+0x55c>
 8008aba:	ee7a 7a48 	vsub.f32	s15, s20, s16
 8008abe:	ed9f 6a6e 	vldr	s12, [pc, #440]	; 8008c78 <VCO_bleptri_SampleCompute+0x838>
 8008ac2:	ee27 6a86 	vmul.f32	s12, s15, s12
 8008ac6:	eec7 7aab 	vdiv.f32	s15, s15, s23
 8008aca:	00ae      	lsls	r6, r5, #2
 8008acc:	eec6 9a28 	vdiv.f32	s19, s12, s17
 8008ad0:	eeb6 ca00 	vmov.f32	s24, #96	; 0x60
 8008ad4:	ee39 0acc 	vsub.f32	s0, s19, s24
 8008ad8:	ee3c ca67 	vsub.f32	s24, s24, s15
 8008adc:	f004 f842 	bl	800cb64 <lrintf>
 8008ae0:	eeff 7a00 	vmov.f32	s15, #240	; 0xf0
 8008ae4:	eeca 5a88 	vdiv.f32	s11, s21, s16
 8008ae8:	4b62      	ldr	r3, [pc, #392]	; (8008c74 <VCO_bleptri_SampleCompute+0x834>)
 8008aea:	f000 013f 	and.w	r1, r0, #63	; 0x3f
 8008aee:	f104 022c 	add.w	r2, r4, #44	; 0x2c
 8008af2:	eb03 0381 	add.w	r3, r3, r1, lsl #2
 8008af6:	4432      	add	r2, r6
 8008af8:	eec7 7aab 	vdiv.f32	s15, s15, s23
 8008afc:	ee07 0a10 	vmov	s14, r0
 8008b00:	ee77 5ae5 	vsub.f32	s11, s15, s11
 8008b04:	eeb8 6ac7 	vcvt.f32.s32	s12, s14
 8008b08:	ee68 5aa5 	vmul.f32	s11, s17, s11
 8008b0c:	ee39 6ac6 	vsub.f32	s12, s19, s12
 8008b10:	edd3 7a00 	vldr	s15, [r3]
 8008b14:	edd3 6a01 	vldr	s13, [r3, #4]
 8008b18:	ed92 7a00 	vldr	s14, [r2]
 8008b1c:	ee76 6ae7 	vsub.f32	s13, s13, s15
 8008b20:	3140      	adds	r1, #64	; 0x40
 8008b22:	eee6 7a26 	vfma.f32	s15, s12, s13
 8008b26:	f5b1 5f8e 	cmp.w	r1, #4544	; 0x11c0
 8008b2a:	f503 7380 	add.w	r3, r3, #256	; 0x100
 8008b2e:	eea5 7aa7 	vfma.f32	s14, s11, s15
 8008b32:	eca2 7a01 	vstmia	r2!, {s14}
 8008b36:	dbeb      	blt.n	8008b10 <VCO_bleptri_SampleCompute+0x6d0>
 8008b38:	2301      	movs	r3, #1
 8008b3a:	e5f9      	b.n	8008730 <VCO_bleptri_SampleCompute+0x2f0>
 8008b3c:	f204 412c 	addw	r1, r4, #1068	; 0x42c
 8008b40:	f44f 7290 	mov.w	r2, #288	; 0x120
 8008b44:	f104 002c 	add.w	r0, r4, #44	; 0x2c
 8008b48:	f7f7 ffee 	bl	8000b28 <memcpy>
 8008b4c:	f504 70a6 	add.w	r0, r4, #332	; 0x14c
 8008b50:	2100      	movs	r1, #0
 8008b52:	f44f 6280 	mov.w	r2, #1024	; 0x400
 8008b56:	f005 fee3 	bl	800e920 <memset>
 8008b5a:	2500      	movs	r5, #0
 8008b5c:	e586      	b.n	800866c <VCO_bleptri_SampleCompute+0x22c>
 8008b5e:	ee3b ca48 	vsub.f32	s24, s22, s16
 8008b62:	eddf 5a45 	vldr	s11, [pc, #276]	; 8008c78 <VCO_bleptri_SampleCompute+0x838>
 8008b66:	ee6c 5a25 	vmul.f32	s11, s24, s11
 8008b6a:	ee8c ca2b 	vdiv.f32	s24, s24, s23
 8008b6e:	ee85 aaa8 	vdiv.f32	s20, s11, s17
 8008b72:	eef6 7a00 	vmov.f32	s15, #96	; 0x60
 8008b76:	ee3a 0a67 	vsub.f32	s0, s20, s15
 8008b7a:	ee37 cacc 	vsub.f32	s24, s15, s24
 8008b7e:	f003 fff1 	bl	800cb64 <lrintf>
 8008b82:	eebf 6a00 	vmov.f32	s12, #240	; 0xf0
 8008b86:	eef7 7a00 	vmov.f32	s15, #112	; 0x70
 8008b8a:	eec6 ba2b 	vdiv.f32	s23, s12, s23
 8008b8e:	4b39      	ldr	r3, [pc, #228]	; (8008c74 <VCO_bleptri_SampleCompute+0x834>)
 8008b90:	f000 023f 	and.w	r2, r0, #63	; 0x3f
 8008b94:	eb03 0382 	add.w	r3, r3, r2, lsl #2
 8008b98:	ee87 6a88 	vdiv.f32	s12, s15, s16
 8008b9c:	ee07 0a90 	vmov	s15, r0
 8008ba0:	ee3b 6ac6 	vsub.f32	s12, s23, s12
 8008ba4:	eef8 5ae7 	vcvt.f32.s32	s11, s15
 8008ba8:	ee28 6a86 	vmul.f32	s12, s17, s12
 8008bac:	ee7a 5a65 	vsub.f32	s11, s20, s11
 8008bb0:	edd3 7a00 	vldr	s15, [r3]
 8008bb4:	edd3 6a01 	vldr	s13, [r3, #4]
 8008bb8:	ed97 7a00 	vldr	s14, [r7]
 8008bbc:	ee76 6ae7 	vsub.f32	s13, s13, s15
 8008bc0:	3240      	adds	r2, #64	; 0x40
 8008bc2:	eee5 7aa6 	vfma.f32	s15, s11, s13
 8008bc6:	f5b2 5f8e 	cmp.w	r2, #4544	; 0x11c0
 8008bca:	f503 7380 	add.w	r3, r3, #256	; 0x100
 8008bce:	eea6 7a27 	vfma.f32	s14, s12, s15
 8008bd2:	eca7 7a01 	vstmia	r7!, {s14}
 8008bd6:	dbeb      	blt.n	8008bb0 <VCO_bleptri_SampleCompute+0x770>
 8008bd8:	2701      	movs	r7, #1
 8008bda:	e52b      	b.n	8008634 <VCO_bleptri_SampleCompute+0x1f4>
 8008bdc:	2200      	movs	r2, #0
 8008bde:	eeb0 ba4a 	vmov.f32	s22, s20
 8008be2:	461f      	mov	r7, r3
 8008be4:	61a2      	str	r2, [r4, #24]
 8008be6:	e527      	b.n	8008638 <VCO_bleptri_SampleCompute+0x1f8>
 8008be8:	ed9f 6a23 	vldr	s12, [pc, #140]	; 8008c78 <VCO_bleptri_SampleCompute+0x838>
 8008bec:	ee2b 6a06 	vmul.f32	s12, s22, s12
 8008bf0:	00ae      	lsls	r6, r5, #2
 8008bf2:	eec6 aa28 	vdiv.f32	s21, s12, s17
 8008bf6:	ee3a aae7 	vsub.f32	s20, s21, s15
 8008bfa:	e4e7      	b.n	80085cc <VCO_bleptri_SampleCompute+0x18c>
 8008bfc:	ee7b 7a48 	vsub.f32	s15, s22, s16
 8008c00:	ed9f 6a1d 	vldr	s12, [pc, #116]	; 8008c78 <VCO_bleptri_SampleCompute+0x838>
 8008c04:	ee27 6a86 	vmul.f32	s12, s15, s12
 8008c08:	eec7 7aab 	vdiv.f32	s15, s15, s23
 8008c0c:	eec6 9a28 	vdiv.f32	s19, s12, s17
 8008c10:	eeb6 ca00 	vmov.f32	s24, #96	; 0x60
 8008c14:	ee39 0acc 	vsub.f32	s0, s19, s24
 8008c18:	ee3c ca67 	vsub.f32	s24, s24, s15
 8008c1c:	f003 ffa2 	bl	800cb64 <lrintf>
 8008c20:	eeff 5a00 	vmov.f32	s11, #240	; 0xf0
 8008c24:	eec5 5aab 	vdiv.f32	s11, s11, s23
 8008c28:	f000 023f 	and.w	r2, r0, #63	; 0x3f
 8008c2c:	eb08 0382 	add.w	r3, r8, r2, lsl #2
 8008c30:	ee07 0a90 	vmov	s15, r0
 8008c34:	ee75 5aca 	vsub.f32	s11, s11, s20
 8008c38:	eeb8 6ae7 	vcvt.f32.s32	s12, s15
 8008c3c:	ee68 5aa5 	vmul.f32	s11, s17, s11
 8008c40:	ee39 6ac6 	vsub.f32	s12, s19, s12
 8008c44:	edd3 7a00 	vldr	s15, [r3]
 8008c48:	edd3 6a01 	vldr	s13, [r3, #4]
 8008c4c:	ed97 7a00 	vldr	s14, [r7]
 8008c50:	ee76 6ae7 	vsub.f32	s13, s13, s15
 8008c54:	3240      	adds	r2, #64	; 0x40
 8008c56:	eee6 7a26 	vfma.f32	s15, s12, s13
 8008c5a:	f5b2 5f8e 	cmp.w	r2, #4544	; 0x11c0
 8008c5e:	f503 7380 	add.w	r3, r3, #256	; 0x100
 8008c62:	eea5 7aa7 	vfma.f32	s14, s11, s15
 8008c66:	eca7 7a01 	vstmia	r7!, {s14}
 8008c6a:	dbeb      	blt.n	8008c44 <VCO_bleptri_SampleCompute+0x804>
 8008c6c:	2701      	movs	r7, #1
 8008c6e:	e4e3      	b.n	8008638 <VCO_bleptri_SampleCompute+0x1f8>
 8008c70:	3f7fff58 	.word	0x3f7fff58
 8008c74:	08017dec 	.word	0x08017dec
 8008c78:	42800000 	.word	0x42800000
 8008c7c:	ee3a aa48 	vsub.f32	s20, s20, s16
 8008c80:	ed5f 5a03 	vldr	s11, [pc, #-12]	; 8008c78 <VCO_bleptri_SampleCompute+0x838>
 8008c84:	ee7b 7a0a 	vadd.f32	s15, s22, s20
 8008c88:	ee8a aa2b 	vdiv.f32	s20, s20, s23
 8008c8c:	ee67 5aa5 	vmul.f32	s11, s15, s11
 8008c90:	eeb6 0a00 	vmov.f32	s0, #96	; 0x60
 8008c94:	eec5 aaa8 	vdiv.f32	s21, s11, s17
 8008c98:	ee30 ca4a 	vsub.f32	s24, s0, s20
 8008c9c:	ee3a 0ac0 	vsub.f32	s0, s21, s0
 8008ca0:	f003 ff60 	bl	800cb64 <lrintf>
 8008ca4:	eebf 6a00 	vmov.f32	s12, #240	; 0xf0
 8008ca8:	ee86 6a2b 	vdiv.f32	s12, s12, s23
 8008cac:	f000 023f 	and.w	r2, r0, #63	; 0x3f
 8008cb0:	eb08 0382 	add.w	r3, r8, r2, lsl #2
 8008cb4:	ee07 0a90 	vmov	s15, r0
 8008cb8:	ee36 6a4d 	vsub.f32	s12, s12, s26
 8008cbc:	eef8 5ae7 	vcvt.f32.s32	s11, s15
 8008cc0:	ee28 6a86 	vmul.f32	s12, s17, s12
 8008cc4:	ee7a 5ae5 	vsub.f32	s11, s21, s11
 8008cc8:	edd3 7a00 	vldr	s15, [r3]
 8008ccc:	edd3 6a01 	vldr	s13, [r3, #4]
 8008cd0:	ed99 7a00 	vldr	s14, [r9]
 8008cd4:	ee76 6ae7 	vsub.f32	s13, s13, s15
 8008cd8:	3240      	adds	r2, #64	; 0x40
 8008cda:	eee5 7aa6 	vfma.f32	s15, s11, s13
 8008cde:	f5b2 5f8e 	cmp.w	r2, #4544	; 0x11c0
 8008ce2:	f503 7380 	add.w	r3, r3, #256	; 0x100
 8008ce6:	eea6 7a27 	vfma.f32	s14, s12, s15
 8008cea:	eca9 7a01 	vstmia	r9!, {s14}
 8008cee:	dbeb      	blt.n	8008cc8 <VCO_bleptri_SampleCompute+0x888>
 8008cf0:	e654      	b.n	800899c <VCO_bleptri_SampleCompute+0x55c>
 8008cf2:	eef7 6a00 	vmov.f32	s13, #112	; 0x70
 8008cf6:	ee77 7aa6 	vadd.f32	s15, s15, s13
 8008cfa:	ee76 6ac7 	vsub.f32	s13, s13, s14
 8008cfe:	ee67 7a86 	vmul.f32	s15, s15, s12
 8008d02:	eef0 8a47 	vmov.f32	s17, s14
 8008d06:	eeb4 7ae7 	vcmpe.f32	s14, s15
 8008d0a:	eef1 fa10 	vmrs	APSR_nzcv, fpscr
 8008d0e:	eeb0 6a66 	vmov.f32	s12, s13
 8008d12:	bfd4      	ite	le
 8008d14:	eeb0 8a67 	vmovle.f32	s16, s15
 8008d18:	eeb0 8a47 	vmovgt.f32	s16, s14
 8008d1c:	e4de      	b.n	80086dc <VCO_bleptri_SampleCompute+0x29c>
$t():
 8008d1e:	bf00      	nop

08008d20 <Chorus_init>:
Chorus_init():
 8008d20:	e92d 4ff8 	stmdb	sp!, {r3, r4, r5, r6, r7, r8, r9, sl, fp, lr}
 8008d24:	f641 21f4 	movw	r1, #6900	; 0x1af4
 8008d28:	4c27      	ldr	r4, [pc, #156]	; (8008dc8 <Chorus_init+0xa8>)
 8008d2a:	4d28      	ldr	r5, [pc, #160]	; (8008dcc <Chorus_init+0xac>)
 8008d2c:	4b28      	ldr	r3, [pc, #160]	; (8008dd0 <Chorus_init+0xb0>)
 8008d2e:	4a29      	ldr	r2, [pc, #164]	; (8008dd4 <Chorus_init+0xb4>)
 8008d30:	4829      	ldr	r0, [pc, #164]	; (8008dd8 <Chorus_init+0xb8>)
 8008d32:	f8df e0b4 	ldr.w	lr, [pc, #180]	; 8008de8 <Chorus_init+0xc8>
 8008d36:	ed9f 7a29 	vldr	s14, [pc, #164]	; 8008ddc <Chorus_init+0xbc>
 8008d3a:	eddf 7a29 	vldr	s15, [pc, #164]	; 8008de0 <Chorus_init+0xc0>
 8008d3e:	4e29      	ldr	r6, [pc, #164]	; (8008de4 <Chorus_init+0xc4>)
 8008d40:	6060      	str	r0, [r4, #4]
 8008d42:	f241 5cf4 	movw	ip, #5620	; 0x15f4
 8008d46:	2701      	movs	r7, #1
 8008d48:	546f      	strb	r7, [r5, r1]
 8008d4a:	f804 700c 	strb.w	r7, [r4, ip]
 8008d4e:	f505 61a0 	add.w	r1, r5, #1280	; 0x500
 8008d52:	f241 57f0 	movw	r7, #5616	; 0x15f0
 8008d56:	eb01 0c07 	add.w	ip, r1, r7
 8008d5a:	4427      	add	r7, r4
 8008d5c:	f8cc 2000 	str.w	r2, [ip]
 8008d60:	603a      	str	r2, [r7, #0]
 8008d62:	f44f 58af 	mov.w	r8, #5600	; 0x15e0
 8008d66:	f04f 527c 	mov.w	r2, #1056964608	; 0x3f000000
 8008d6a:	f503 6720 	add.w	r7, r3, #2560	; 0xa00
 8008d6e:	f503 6321 	add.w	r3, r3, #2576	; 0xa10
 8008d72:	6048      	str	r0, [r1, #4]
 8008d74:	608a      	str	r2, [r1, #8]
 8008d76:	600a      	str	r2, [r1, #0]
 8008d78:	f240 5c77 	movw	ip, #1399	; 0x577
 8008d7c:	60a2      	str	r2, [r4, #8]
 8008d7e:	6022      	str	r2, [r4, #0]
 8008d80:	f8df b068 	ldr.w	fp, [pc, #104]	; 8008dec <Chorus_init+0xcc>
 8008d84:	ed87 7a01 	vstr	s14, [r7, #4]
 8008d88:	4642      	mov	r2, r8
 8008d8a:	f04f 0a00 	mov.w	sl, #0
 8008d8e:	f505 60a2 	add.w	r0, r5, #1296	; 0x510
 8008d92:	f04f 597e 	mov.w	r9, #1065353216	; 0x3f800000
 8008d96:	2100      	movs	r1, #0
 8008d98:	edc3 7a01 	vstr	s15, [r3, #4]
 8008d9c:	f8c7 b008 	str.w	fp, [r7, #8]
 8008da0:	603e      	str	r6, [r7, #0]
 8008da2:	601e      	str	r6, [r3, #0]
 8008da4:	f8c3 a008 	str.w	sl, [r3, #8]
 8008da8:	f8c5 c50c 	str.w	ip, [r5, #1292]	; 0x50c
 8008dac:	f8c4 c00c 	str.w	ip, [r4, #12]
 8008db0:	f8ce 9000 	str.w	r9, [lr]
 8008db4:	f005 fdb4 	bl	800e920 <memset>
 8008db8:	f104 0010 	add.w	r0, r4, #16
 8008dbc:	4642      	mov	r2, r8
 8008dbe:	2100      	movs	r1, #0
 8008dc0:	e8bd 4ff8 	ldmia.w	sp!, {r3, r4, r5, r6, r7, r8, r9, sl, fp, lr}
 8008dc4:	f005 bdac 	b.w	800e920 <memset>
 8008dc8:	10001028 	.word	0x10001028
 8008dcc:	10002120 	.word	0x10002120
 8008dd0:	10003218 	.word	0x10003218
 8008dd4:	43700000 	.word	0x43700000
 8008dd8:	be4ccccd 	.word	0xbe4ccccd
 8008ddc:	3de147ae 	.word	0x3de147ae
 8008de0:	3df5c28f 	.word	0x3df5c28f
 8008de4:	42480000 	.word	0x42480000
 8008de8:	2001f200 	.word	0x2001f200
 8008dec:	3fc90fdb 	.word	0x3fc90fdb

08008df0 <Chorus_reset>:
Chorus_reset():
 8008df0:	287f      	cmp	r0, #127	; 0x7f
 8008df2:	d000      	beq.n	8008df6 <Chorus_reset+0x6>
 8008df4:	4770      	bx	lr
 8008df6:	4928      	ldr	r1, [pc, #160]	; (8008e98 <Chorus_reset+0xa8>)
 8008df8:	4a28      	ldr	r2, [pc, #160]	; (8008e9c <Chorus_reset+0xac>)
 8008dfa:	4829      	ldr	r0, [pc, #164]	; (8008ea0 <Chorus_reset+0xb0>)
 8008dfc:	eddf 7a29 	vldr	s15, [pc, #164]	; 8008ea4 <Chorus_reset+0xb4>
 8008e00:	f8df c0b8 	ldr.w	ip, [pc, #184]	; 8008ebc <Chorus_reset+0xcc>
 8008e04:	e92d 4ff8 	stmdb	sp!, {r3, r4, r5, r6, r7, r8, r9, sl, fp, lr}
 8008e08:	604a      	str	r2, [r1, #4]
 8008e0a:	460a      	mov	r2, r1
 8008e0c:	4b26      	ldr	r3, [pc, #152]	; (8008ea8 <Chorus_reset+0xb8>)
 8008e0e:	4c27      	ldr	r4, [pc, #156]	; (8008eac <Chorus_reset+0xbc>)
 8008e10:	f842 0f10 	str.w	r0, [r2, #16]!
 8008e14:	4e26      	ldr	r6, [pc, #152]	; (8008eb0 <Chorus_reset+0xc0>)
 8008e16:	608e      	str	r6, [r1, #8]
 8008e18:	f641 2bf4 	movw	fp, #6900	; 0x1af4
 8008e1c:	f241 5af4 	movw	sl, #5620	; 0x15f4
 8008e20:	f503 66a0 	add.w	r6, r3, #1280	; 0x500
 8008e24:	6008      	str	r0, [r1, #0]
 8008e26:	4d23      	ldr	r5, [pc, #140]	; (8008eb4 <Chorus_reset+0xc4>)
 8008e28:	f8df 9094 	ldr.w	r9, [pc, #148]	; 8008ec0 <Chorus_reset+0xd0>
 8008e2c:	f8df 8094 	ldr.w	r8, [pc, #148]	; 8008ec4 <Chorus_reset+0xd4>
 8008e30:	4f21      	ldr	r7, [pc, #132]	; (8008eb8 <Chorus_reset+0xc8>)
 8008e32:	6055      	str	r5, [r2, #4]
 8008e34:	2101      	movs	r1, #1
 8008e36:	f04f 0e00 	mov.w	lr, #0
 8008e3a:	f04f 557c 	mov.w	r5, #1056964608	; 0x3f000000
 8008e3e:	f803 100b 	strb.w	r1, [r3, fp]
 8008e42:	f8c2 e008 	str.w	lr, [r2, #8]
 8008e46:	f804 100a 	strb.w	r1, [r4, sl]
 8008e4a:	f240 5e77 	movw	lr, #1399	; 0x577
 8008e4e:	f503 60a2 	add.w	r0, r3, #1296	; 0x510
 8008e52:	f04f 5b7e 	mov.w	fp, #1065353216	; 0x3f800000
 8008e56:	2100      	movs	r1, #0
 8008e58:	f44f 52af 	mov.w	r2, #5600	; 0x15e0
 8008e5c:	edc6 7a01 	vstr	s15, [r6, #4]
 8008e60:	edc4 7a01 	vstr	s15, [r4, #4]
 8008e64:	60b5      	str	r5, [r6, #8]
 8008e66:	6035      	str	r5, [r6, #0]
 8008e68:	60a5      	str	r5, [r4, #8]
 8008e6a:	6025      	str	r5, [r4, #0]
 8008e6c:	f8c3 e50c 	str.w	lr, [r3, #1292]	; 0x50c
 8008e70:	f8c4 e00c 	str.w	lr, [r4, #12]
 8008e74:	f8c9 7000 	str.w	r7, [r9]
 8008e78:	f8c8 7000 	str.w	r7, [r8]
 8008e7c:	f8cc b000 	str.w	fp, [ip]
 8008e80:	f005 fd4e 	bl	800e920 <memset>
 8008e84:	f104 0010 	add.w	r0, r4, #16
 8008e88:	2100      	movs	r1, #0
 8008e8a:	f44f 52af 	mov.w	r2, #5600	; 0x15e0
 8008e8e:	e8bd 4ff8 	ldmia.w	sp!, {r3, r4, r5, r6, r7, r8, r9, sl, fp, lr}
 8008e92:	f005 bd45 	b.w	800e920 <memset>
 8008e96:	bf00      	nop
 8008e98:	10003c18 	.word	0x10003c18
 8008e9c:	3de147ae 	.word	0x3de147ae
 8008ea0:	42480000 	.word	0x42480000
 8008ea4:	be4ccccd 	.word	0xbe4ccccd
 8008ea8:	10002120 	.word	0x10002120
 8008eac:	10001028 	.word	0x10001028
 8008eb0:	3fc90fdb 	.word	0x3fc90fdb
 8008eb4:	3df5c28f 	.word	0x3df5c28f
 8008eb8:	43700000 	.word	0x43700000
 8008ebc:	2001f200 	.word	0x2001f200
 8008ec0:	10002618 	.word	0x10002618
 8008ec4:	10003c10 	.word	0x10003c10

08008ec8 <ChorusRate_set>:
ChorusRate_set():
 8008ec8:	ee07 0a90 	vmov	s15, r0
 8008ecc:	eddf 6a0b 	vldr	s13, [pc, #44]	; 8008efc <ChorusRate_set+0x34>
 8008ed0:	4a0b      	ldr	r2, [pc, #44]	; (8008f00 <ChorusRate_set+0x38>)
 8008ed2:	4b0c      	ldr	r3, [pc, #48]	; (8008f04 <ChorusRate_set+0x3c>)
 8008ed4:	ed92 7a00 	vldr	s14, [r2]
 8008ed8:	eeb8 6ae7 	vcvt.f32.s32	s12, s15
 8008edc:	eddf 7a0a 	vldr	s15, [pc, #40]	; 8008f08 <ChorusRate_set+0x40>
 8008ee0:	eee6 7a26 	vfma.f32	s15, s12, s13
 8008ee4:	f503 6220 	add.w	r2, r3, #2560	; 0xa00
 8008ee8:	f503 6321 	add.w	r3, r3, #2576	; 0xa10
 8008eec:	ee27 7a27 	vmul.f32	s14, s14, s15
 8008ef0:	edc2 7a01 	vstr	s15, [r2, #4]
 8008ef4:	ed83 7a01 	vstr	s14, [r3, #4]
 8008ef8:	4770      	bx	lr
 8008efa:	bf00      	nop
 8008efc:	3d61c387 	.word	0x3d61c387
 8008f00:	2001f200 	.word	0x2001f200
 8008f04:	10003218 	.word	0x10003218
 8008f08:	3ca3d70a 	.word	0x3ca3d70a

08008f0c <ChorusSecondRate_set>:
ChorusSecondRate_set():
 8008f0c:	ee07 0a90 	vmov	s15, r0
 8008f10:	ed9f 7a0b 	vldr	s14, [pc, #44]	; 8008f40 <ChorusSecondRate_set+0x34>
 8008f14:	4b0b      	ldr	r3, [pc, #44]	; (8008f44 <ChorusSecondRate_set+0x38>)
 8008f16:	4a0c      	ldr	r2, [pc, #48]	; (8008f48 <ChorusSecondRate_set+0x3c>)
 8008f18:	eef8 6ae7 	vcvt.f32.s32	s13, s15
 8008f1c:	eddf 7a0b 	vldr	s15, [pc, #44]	; 8008f4c <ChorusSecondRate_set+0x40>
 8008f20:	eee6 7a87 	vfma.f32	s15, s13, s14
 8008f24:	f503 6120 	add.w	r1, r3, #2560	; 0xa00
 8008f28:	f503 6321 	add.w	r3, r3, #2576	; 0xa10
 8008f2c:	ed91 7a01 	vldr	s14, [r1, #4]
 8008f30:	edc2 7a00 	vstr	s15, [r2]
 8008f34:	ee67 7a87 	vmul.f32	s15, s15, s14
 8008f38:	edc3 7a01 	vstr	s15, [r3, #4]
 8008f3c:	4770      	bx	lr
 8008f3e:	bf00      	nop
 8008f40:	3be836d4 	.word	0x3be836d4
 8008f44:	10003218 	.word	0x10003218
 8008f48:	2001f200 	.word	0x2001f200
 8008f4c:	3dcccccd 	.word	0x3dcccccd

08008f50 <ChorusDelay_set>:
ChorusDelay_set():
 8008f50:	ee07 0a90 	vmov	s15, r0
 8008f54:	ed9f 7a06 	vldr	s14, [pc, #24]	; 8008f70 <ChorusDelay_set+0x20>
 8008f58:	4a06      	ldr	r2, [pc, #24]	; (8008f74 <ChorusDelay_set+0x24>)
 8008f5a:	4b07      	ldr	r3, [pc, #28]	; (8008f78 <ChorusDelay_set+0x28>)
 8008f5c:	eef8 7ae7 	vcvt.f32.s32	s15, s15
 8008f60:	ee67 7a87 	vmul.f32	s15, s15, s14
 8008f64:	edc2 7a00 	vstr	s15, [r2]
 8008f68:	edc3 7a00 	vstr	s15, [r3]
 8008f6c:	4770      	bx	lr
 8008f6e:	bf00      	nop
 8008f70:	40b060c2 	.word	0x40b060c2
 8008f74:	10002618 	.word	0x10002618
 8008f78:	10003c10 	.word	0x10003c10

08008f7c <ChorusFeedback_set>:
ChorusFeedback_set():
 8008f7c:	ee07 0a90 	vmov	s15, r0
 8008f80:	eeb8 7ae7 	vcvt.f32.s32	s14, s15
 8008f84:	eddf 7a07 	vldr	s15, [pc, #28]	; 8008fa4 <ChorusFeedback_set+0x28>
 8008f88:	eddf 6a07 	vldr	s13, [pc, #28]	; 8008fa8 <ChorusFeedback_set+0x2c>
 8008f8c:	4a07      	ldr	r2, [pc, #28]	; (8008fac <ChorusFeedback_set+0x30>)
 8008f8e:	4b08      	ldr	r3, [pc, #32]	; (8008fb0 <ChorusFeedback_set+0x34>)
 8008f90:	ee67 7a27 	vmul.f32	s15, s14, s15
 8008f94:	eec7 7aa6 	vdiv.f32	s15, s15, s13
 8008f98:	edc2 7a01 	vstr	s15, [r2, #4]
 8008f9c:	edc3 7a01 	vstr	s15, [r3, #4]
 8008fa0:	4770      	bx	lr
 8008fa2:	bf00      	nop
 8008fa4:	3f733333 	.word	0x3f733333
 8008fa8:	42fe0000 	.word	0x42fe0000
 8008fac:	10001028 	.word	0x10001028
 8008fb0:	10002620 	.word	0x10002620

08008fb4 <ChorusSweep_set>:
ChorusSweep_set():
 8008fb4:	ee07 0a90 	vmov	s15, r0
 8008fb8:	ed9f 7a07 	vldr	s14, [pc, #28]	; 8008fd8 <ChorusSweep_set+0x24>
 8008fbc:	4b07      	ldr	r3, [pc, #28]	; (8008fdc <ChorusSweep_set+0x28>)
 8008fbe:	eef8 7ae7 	vcvt.f32.s32	s15, s15
 8008fc2:	f503 6220 	add.w	r2, r3, #2560	; 0xa00
 8008fc6:	ee67 7a87 	vmul.f32	s15, s15, s14
 8008fca:	f503 6321 	add.w	r3, r3, #2576	; 0xa10
 8008fce:	edc2 7a00 	vstr	s15, [r2]
 8008fd2:	edc3 7a00 	vstr	s15, [r3]
 8008fd6:	4770      	bx	lr
 8008fd8:	3f8c7f66 	.word	0x3f8c7f66
 8008fdc:	10003218 	.word	0x10003218

08008fe0 <ChorusMode_switch>:
ChorusMode_switch():
 8008fe0:	b410      	push	{r4}
 8008fe2:	b168      	cbz	r0, 8009000 <ChorusMode_switch+0x20>
 8008fe4:	287f      	cmp	r0, #127	; 0x7f
 8008fe6:	d108      	bne.n	8008ffa <ChorusMode_switch+0x1a>
 8008fe8:	4c0b      	ldr	r4, [pc, #44]	; (8009018 <ChorusMode_switch+0x38>)
 8008fea:	490c      	ldr	r1, [pc, #48]	; (800901c <ChorusMode_switch+0x3c>)
 8008fec:	f241 50f4 	movw	r0, #5620	; 0x15f4
 8008ff0:	f641 22f4 	movw	r2, #6900	; 0x1af4
 8008ff4:	23ff      	movs	r3, #255	; 0xff
 8008ff6:	5423      	strb	r3, [r4, r0]
 8008ff8:	548b      	strb	r3, [r1, r2]
 8008ffa:	f85d 4b04 	ldr.w	r4, [sp], #4
 8008ffe:	4770      	bx	lr
 8009000:	4906      	ldr	r1, [pc, #24]	; (800901c <ChorusMode_switch+0x3c>)
 8009002:	4c05      	ldr	r4, [pc, #20]	; (8009018 <ChorusMode_switch+0x38>)
 8009004:	f641 22f4 	movw	r2, #6900	; 0x1af4
 8009008:	2301      	movs	r3, #1
 800900a:	f241 50f4 	movw	r0, #5620	; 0x15f4
 800900e:	548b      	strb	r3, [r1, r2]
 8009010:	5423      	strb	r3, [r4, r0]
 8009012:	f85d 4b04 	ldr.w	r4, [sp], #4
 8009016:	4770      	bx	lr
 8009018:	10001028 	.word	0x10001028
 800901c:	10002120 	.word	0x10002120

08009020 <ChorusFDBsign_switch>:
ChorusFDBsign_switch():
 8009020:	b180      	cbz	r0, 8009044 <ChorusFDBsign_switch+0x24>
 8009022:	287f      	cmp	r0, #127	; 0x7f
 8009024:	d120      	bne.n	8009068 <ChorusFDBsign_switch+0x48>
 8009026:	4a11      	ldr	r2, [pc, #68]	; (800906c <ChorusFDBsign_switch+0x4c>)
 8009028:	4b11      	ldr	r3, [pc, #68]	; (8009070 <ChorusFDBsign_switch+0x50>)
 800902a:	ed92 7a01 	vldr	s14, [r2, #4]
 800902e:	edd3 7a01 	vldr	s15, [r3, #4]
 8009032:	eeb0 7ac7 	vabs.f32	s14, s14
 8009036:	eef0 7ae7 	vabs.f32	s15, s15
 800903a:	ed82 7a01 	vstr	s14, [r2, #4]
 800903e:	edc3 7a01 	vstr	s15, [r3, #4]
 8009042:	4770      	bx	lr
 8009044:	4a09      	ldr	r2, [pc, #36]	; (800906c <ChorusFDBsign_switch+0x4c>)
 8009046:	4b0a      	ldr	r3, [pc, #40]	; (8009070 <ChorusFDBsign_switch+0x50>)
 8009048:	ed92 7a01 	vldr	s14, [r2, #4]
 800904c:	edd3 7a01 	vldr	s15, [r3, #4]
 8009050:	eeb0 7ac7 	vabs.f32	s14, s14
 8009054:	eef0 7ae7 	vabs.f32	s15, s15
 8009058:	eeb1 7a47 	vneg.f32	s14, s14
 800905c:	eef1 7a67 	vneg.f32	s15, s15
 8009060:	ed82 7a01 	vstr	s14, [r2, #4]
 8009064:	edc3 7a01 	vstr	s15, [r3, #4]
 8009068:	4770      	bx	lr
 800906a:	bf00      	nop
 800906c:	10002620 	.word	0x10002620
 8009070:	10001028 	.word	0x10001028

08009074 <delay_read>:
delay_read():
 8009074:	b500      	push	{lr}
 8009076:	eef1 7a08 	vmov.f32	s15, #24
 800907a:	ed2d 8b02 	vpush	{d8}
 800907e:	eeb4 0ae7 	vcmpe.f32	s0, s15
 8009082:	eef1 fa10 	vmrs	APSR_nzcv, fpscr
 8009086:	b083      	sub	sp, #12
 8009088:	eeb0 8a40 	vmov.f32	s16, s0
 800908c:	d448      	bmi.n	8009120 <delay_read+0xac>
 800908e:	ed9f 7a43 	vldr	s14, [pc, #268]	; 800919c <delay_read+0x128>
 8009092:	eeb4 0ac7 	vcmpe.f32	s0, s14
 8009096:	eef1 fa10 	vmrs	APSR_nzcv, fpscr
 800909a:	dd4f      	ble.n	800913c <delay_read+0xc8>
 800909c:	eef0 6a67 	vmov.f32	s13, s15
 80090a0:	eddf 5a3f 	vldr	s11, [pc, #252]	; 80091a0 <delay_read+0x12c>
 80090a4:	eddf 7a3f 	vldr	s15, [pc, #252]	; 80091a4 <delay_read+0x130>
 80090a8:	ed9f 6a3f 	vldr	s12, [pc, #252]	; 80091a8 <delay_read+0x134>
 80090ac:	eddf 4a3f 	vldr	s9, [pc, #252]	; 80091ac <delay_read+0x138>
 80090b0:	eeb7 5a08 	vmov.f32	s10, #120	; 0x78
 80090b4:	f240 5272 	movw	r2, #1394	; 0x572
 80090b8:	68c3      	ldr	r3, [r0, #12]
 80090ba:	1a9b      	subs	r3, r3, r2
 80090bc:	bf48      	it	mi
 80090be:	f503 63af 	addmi.w	r3, r3, #1400	; 0x578
 80090c2:	eb00 0283 	add.w	r2, r0, r3, lsl #2
 80090c6:	ed92 4a04 	vldr	s8, [r2, #16]
 80090ca:	1e5a      	subs	r2, r3, #1
 80090cc:	bf48      	it	mi
 80090ce:	f203 5277 	addwmi	r2, r3, #1399	; 0x577
 80090d2:	eb00 0382 	add.w	r3, r0, r2, lsl #2
 80090d6:	ed93 7a04 	vldr	s14, [r3, #16]
 80090da:	1e53      	subs	r3, r2, #1
 80090dc:	bf48      	it	mi
 80090de:	f202 5377 	addwmi	r3, r2, #1399	; 0x577
 80090e2:	eb00 0283 	add.w	r2, r0, r3, lsl #2
 80090e6:	edd2 3a04 	vldr	s7, [r2, #16]
 80090ea:	1e5a      	subs	r2, r3, #1
 80090ec:	bf48      	it	mi
 80090ee:	f203 5277 	addwmi	r2, r3, #1399	; 0x577
 80090f2:	eb00 0082 	add.w	r0, r0, r2, lsl #2
 80090f6:	ed90 0a04 	vldr	s0, [r0, #16]
 80090fa:	ee27 0a80 	vmul.f32	s0, s15, s0
 80090fe:	ee27 7a06 	vmul.f32	s14, s14, s12
 8009102:	eef0 7a40 	vmov.f32	s15, s0
 8009106:	eee3 7a85 	vfma.f32	s15, s7, s10
 800910a:	eea4 7a24 	vfma.f32	s14, s8, s9
 800910e:	ee27 0aa5 	vmul.f32	s0, s15, s11
 8009112:	eea7 0a26 	vfma.f32	s0, s14, s13
 8009116:	b003      	add	sp, #12
 8009118:	ecbd 8b02 	vpop	{d8}
 800911c:	f85d fb04 	ldr.w	pc, [sp], #4
 8009120:	eef0 6a67 	vmov.f32	s13, s15
 8009124:	eddf 5a1e 	vldr	s11, [pc, #120]	; 80091a0 <delay_read+0x12c>
 8009128:	eddf 7a1e 	vldr	s15, [pc, #120]	; 80091a4 <delay_read+0x130>
 800912c:	ed9f 6a1e 	vldr	s12, [pc, #120]	; 80091a8 <delay_read+0x134>
 8009130:	eddf 4a1e 	vldr	s9, [pc, #120]	; 80091ac <delay_read+0x138>
 8009134:	eeb7 5a08 	vmov.f32	s10, #120	; 0x78
 8009138:	2206      	movs	r2, #6
 800913a:	e7bd      	b.n	80090b8 <delay_read+0x44>
 800913c:	9001      	str	r0, [sp, #4]
 800913e:	f003 fcc9 	bl	800cad4 <floorf>
 8009142:	eefd 7ac0 	vcvt.s32.f32	s15, s0
 8009146:	eeb0 5a08 	vmov.f32	s10, #8
 800914a:	ee17 2a90 	vmov	r2, s15
 800914e:	ee07 2a10 	vmov	s14, r2
 8009152:	eeb8 6ac7 	vcvt.f32.s32	s12, s14
 8009156:	eef0 7a00 	vmov.f32	s15, #0
 800915a:	ee38 8a46 	vsub.f32	s16, s16, s12
 800915e:	eef7 5a00 	vmov.f32	s11, #112	; 0x70
 8009162:	ee78 7a67 	vsub.f32	s15, s16, s15
 8009166:	ee38 5a45 	vsub.f32	s10, s16, s10
 800916a:	ed9f 6a10 	vldr	s12, [pc, #64]	; 80091ac <delay_read+0x138>
 800916e:	eddf 4a10 	vldr	s9, [pc, #64]	; 80091b0 <delay_read+0x13c>
 8009172:	9801      	ldr	r0, [sp, #4]
 8009174:	ee78 5a65 	vsub.f32	s11, s16, s11
 8009178:	eebe 4a00 	vmov.f32	s8, #224	; 0xe0
 800917c:	eeb6 7a00 	vmov.f32	s14, #96	; 0x60
 8009180:	ee67 6a85 	vmul.f32	s13, s15, s10
 8009184:	ee65 4aa4 	vmul.f32	s9, s11, s9
 8009188:	ee67 7a86 	vmul.f32	s15, s15, s12
 800918c:	ee25 5a04 	vmul.f32	s10, s10, s8
 8009190:	ee68 5a25 	vmul.f32	s11, s16, s11
 8009194:	ee28 6a07 	vmul.f32	s12, s16, s14
 8009198:	e78e      	b.n	80090b8 <delay_read+0x44>
 800919a:	bf00      	nop
 800919c:	44ae4000 	.word	0x44ae4000
 80091a0:	80000000 	.word	0x80000000
 80091a4:	beaaaaab 	.word	0xbeaaaaab
 80091a8:	00000000 	.word	0x00000000
 80091ac:	3e2aaaab 	.word	0x3e2aaaab
 80091b0:	be2aaaab 	.word	0xbe2aaaab

080091b4 <mono_chorus_compute>:
mono_chorus_compute():
 80091b4:	edd1 7a02 	vldr	s15, [r1, #8]
 80091b8:	edd1 6a01 	vldr	s13, [r1, #4]
 80091bc:	ed9f 7a49 	vldr	s14, [pc, #292]	; 80092e4 <mono_chorus_compute+0x130>
 80091c0:	eee6 7a87 	vfma.f32	s15, s13, s14
 80091c4:	b570      	push	{r4, r5, r6, lr}
 80091c6:	eef5 7ac0 	vcmpe.f32	s15, #0.0
 80091ca:	f500 56af 	add.w	r6, r0, #5600	; 0x15e0
 80091ce:	3610      	adds	r6, #16
 80091d0:	eef1 fa10 	vmrs	APSR_nzcv, fpscr
 80091d4:	ed2d 8b04 	vpush	{d8-d9}
 80091d8:	460d      	mov	r5, r1
 80091da:	edd6 8a00 	vldr	s17, [r6]
 80091de:	edc1 7a02 	vstr	s15, [r1, #8]
 80091e2:	4604      	mov	r4, r0
 80091e4:	eeb0 8a40 	vmov.f32	s16, s0
 80091e8:	d50a      	bpl.n	8009200 <mono_chorus_compute+0x4c>
 80091ea:	ed9f 7a3f 	vldr	s14, [pc, #252]	; 80092e8 <mono_chorus_compute+0x134>
 80091ee:	ee77 7a87 	vadd.f32	s15, s15, s14
 80091f2:	eef5 7ac0 	vcmpe.f32	s15, #0.0
 80091f6:	eef1 fa10 	vmrs	APSR_nzcv, fpscr
 80091fa:	d4f8      	bmi.n	80091ee <mono_chorus_compute+0x3a>
 80091fc:	edc5 7a02 	vstr	s15, [r5, #8]
 8009200:	ed9f 7a39 	vldr	s14, [pc, #228]	; 80092e8 <mono_chorus_compute+0x134>
 8009204:	eef4 7ac7 	vcmpe.f32	s15, s14
 8009208:	eef1 fa10 	vmrs	APSR_nzcv, fpscr
 800920c:	db08      	blt.n	8009220 <mono_chorus_compute+0x6c>
 800920e:	ee77 7ac7 	vsub.f32	s15, s15, s14
 8009212:	eef4 7ac7 	vcmpe.f32	s15, s14
 8009216:	eef1 fa10 	vmrs	APSR_nzcv, fpscr
 800921a:	daf8      	bge.n	800920e <mono_chorus_compute+0x5a>
 800921c:	edc5 7a02 	vstr	s15, [r5, #8]
 8009220:	ed9f 0a32 	vldr	s0, [pc, #200]	; 80092ec <mono_chorus_compute+0x138>
 8009224:	ee27 0a80 	vmul.f32	s0, s15, s0
 8009228:	f003 fc9c 	bl	800cb64 <lrintf>
 800922c:	4b30      	ldr	r3, [pc, #192]	; (80092f0 <mono_chorus_compute+0x13c>)
 800922e:	edd5 6a00 	vldr	s13, [r5]
 8009232:	eb03 0080 	add.w	r0, r3, r0, lsl #2
 8009236:	ed90 7a00 	vldr	s14, [r0]
 800923a:	eef7 7a00 	vmov.f32	s15, #112	; 0x70
 800923e:	ee77 7a27 	vadd.f32	s15, s14, s15
 8009242:	eeb1 9a08 	vmov.f32	s18, #24
 8009246:	ee67 7aa6 	vmul.f32	s15, s15, s13
 800924a:	4620      	mov	r0, r4
 800924c:	ee38 0aa7 	vadd.f32	s0, s17, s15
 8009250:	edc5 7a03 	vstr	s15, [r5, #12]
 8009254:	ee30 0a09 	vadd.f32	s0, s0, s18
 8009258:	f7ff ff0c 	bl	8009074 <delay_read>
 800925c:	f241 53f4 	movw	r3, #5620	; 0x15f4
 8009260:	eef0 8a40 	vmov.f32	s17, s0
 8009264:	56e3      	ldrsb	r3, [r4, r3]
 8009266:	2b01      	cmp	r3, #1
 8009268:	d035      	beq.n	80092d6 <mono_chorus_compute+0x122>
 800926a:	ed96 0a00 	vldr	s0, [r6]
 800926e:	4620      	mov	r0, r4
 8009270:	ee30 0a09 	vadd.f32	s0, s0, s18
 8009274:	f7ff fefe 	bl	8009074 <delay_read>
 8009278:	edd4 7a01 	vldr	s15, [r4, #4]
 800927c:	eea7 8a80 	vfma.f32	s16, s15, s0
 8009280:	eef0 7a48 	vmov.f32	s15, s16
 8009284:	eeb7 7a00 	vmov.f32	s14, #112	; 0x70
 8009288:	eef4 7ac7 	vcmpe.f32	s15, s14
 800928c:	eef1 fa10 	vmrs	APSR_nzcv, fpscr
 8009290:	dd17      	ble.n	80092c2 <mono_chorus_compute+0x10e>
 8009292:	eef0 7a47 	vmov.f32	s15, s14
 8009296:	ed94 0a02 	vldr	s0, [r4, #8]
 800929a:	68e3      	ldr	r3, [r4, #12]
 800929c:	ed94 7a00 	vldr	s14, [r4]
 80092a0:	ee28 0a80 	vmul.f32	s0, s17, s0
 80092a4:	ecbd 8b04 	vpop	{d8-d9}
 80092a8:	eb04 0283 	add.w	r2, r4, r3, lsl #2
 80092ac:	3301      	adds	r3, #1
 80092ae:	f5b3 6faf 	cmp.w	r3, #1400	; 0x578
 80092b2:	bfa8      	it	ge
 80092b4:	2300      	movge	r3, #0
 80092b6:	eea7 0a87 	vfma.f32	s0, s15, s14
 80092ba:	edc2 7a04 	vstr	s15, [r2, #16]
 80092be:	60e3      	str	r3, [r4, #12]
 80092c0:	bd70      	pop	{r4, r5, r6, pc}
 80092c2:	eebf 7a00 	vmov.f32	s14, #240	; 0xf0
 80092c6:	eef4 7a47 	vcmp.f32	s15, s14
 80092ca:	eef1 fa10 	vmrs	APSR_nzcv, fpscr
 80092ce:	bf48      	it	mi
 80092d0:	eef0 7a47 	vmovmi.f32	s15, s14
 80092d4:	e7df      	b.n	8009296 <mono_chorus_compute+0xe2>
 80092d6:	edd4 7a01 	vldr	s15, [r4, #4]
 80092da:	eea7 8a80 	vfma.f32	s16, s15, s0
 80092de:	eef0 7a48 	vmov.f32	s15, s16
 80092e2:	e7cf      	b.n	8009284 <mono_chorus_compute+0xd0>
 80092e4:	3909421f 	.word	0x3909421f
 80092e8:	40c90fdb 	.word	0x40c90fdb
 80092ec:	4322f983 	.word	0x4322f983
 80092f0:	0801c73c 	.word	0x0801c73c

080092f4 <stereoChorus_compute>:
stereoChorus_compute():
 80092f4:	e92d 41f0 	stmdb	sp!, {r4, r5, r6, r7, r8, lr}
 80092f8:	4d52      	ldr	r5, [pc, #328]	; (8009444 <stereoChorus_compute+0x150>)
 80092fa:	ed9f 7a53 	vldr	s14, [pc, #332]	; 8009448 <stereoChorus_compute+0x154>
 80092fe:	edd5 7a02 	vldr	s15, [r5, #8]
 8009302:	edd5 6a01 	vldr	s13, [r5, #4]
 8009306:	f8df 815c 	ldr.w	r8, [pc, #348]	; 8009464 <stereoChorus_compute+0x170>
 800930a:	eee6 7a87 	vfma.f32	s15, s13, s14
 800930e:	4607      	mov	r7, r0
 8009310:	460e      	mov	r6, r1
 8009312:	ed2d 8b04 	vpush	{d8-d9}
 8009316:	eef5 7ac0 	vcmpe.f32	s15, #0.0
 800931a:	eef1 fa10 	vmrs	APSR_nzcv, fpscr
 800931e:	eef0 8a40 	vmov.f32	s17, s0
 8009322:	edc5 7a02 	vstr	s15, [r5, #8]
 8009326:	ed98 8a00 	vldr	s16, [r8]
 800932a:	d50a      	bpl.n	8009342 <stereoChorus_compute+0x4e>
 800932c:	ed9f 7a47 	vldr	s14, [pc, #284]	; 800944c <stereoChorus_compute+0x158>
 8009330:	ee77 7a87 	vadd.f32	s15, s15, s14
 8009334:	eef5 7ac0 	vcmpe.f32	s15, #0.0
 8009338:	eef1 fa10 	vmrs	APSR_nzcv, fpscr
 800933c:	d4f8      	bmi.n	8009330 <stereoChorus_compute+0x3c>
 800933e:	edc5 7a02 	vstr	s15, [r5, #8]
 8009342:	ed9f 7a42 	vldr	s14, [pc, #264]	; 800944c <stereoChorus_compute+0x158>
 8009346:	eef4 7ac7 	vcmpe.f32	s15, s14
 800934a:	eef1 fa10 	vmrs	APSR_nzcv, fpscr
 800934e:	db08      	blt.n	8009362 <stereoChorus_compute+0x6e>
 8009350:	ee77 7ac7 	vsub.f32	s15, s15, s14
 8009354:	eef4 7ac7 	vcmpe.f32	s15, s14
 8009358:	eef1 fa10 	vmrs	APSR_nzcv, fpscr
 800935c:	daf8      	bge.n	8009350 <stereoChorus_compute+0x5c>
 800935e:	edc5 7a02 	vstr	s15, [r5, #8]
 8009362:	ed9f 0a3b 	vldr	s0, [pc, #236]	; 8009450 <stereoChorus_compute+0x15c>
 8009366:	4c3b      	ldr	r4, [pc, #236]	; (8009454 <stereoChorus_compute+0x160>)
 8009368:	ee27 0a80 	vmul.f32	s0, s15, s0
 800936c:	f003 fbfa 	bl	800cb64 <lrintf>
 8009370:	4b39      	ldr	r3, [pc, #228]	; (8009458 <stereoChorus_compute+0x164>)
 8009372:	edd5 6a00 	vldr	s13, [r5]
 8009376:	eb03 0080 	add.w	r0, r3, r0, lsl #2
 800937a:	ed90 7a00 	vldr	s14, [r0]
 800937e:	eef7 7a00 	vmov.f32	s15, #112	; 0x70
 8009382:	ee77 7a27 	vadd.f32	s15, s14, s15
 8009386:	eeb1 9a08 	vmov.f32	s18, #24
 800938a:	ee67 7aa6 	vmul.f32	s15, s15, s13
 800938e:	4620      	mov	r0, r4
 8009390:	ee38 0a27 	vadd.f32	s0, s16, s15
 8009394:	edc5 7a03 	vstr	s15, [r5, #12]
 8009398:	ee30 0a09 	vadd.f32	s0, s0, s18
 800939c:	f7ff fe6a 	bl	8009074 <delay_read>
 80093a0:	f241 53f4 	movw	r3, #5620	; 0x15f4
 80093a4:	eeb0 8a40 	vmov.f32	s16, s0
 80093a8:	56e3      	ldrsb	r3, [r4, r3]
 80093aa:	2b01      	cmp	r3, #1
 80093ac:	d041      	beq.n	8009432 <stereoChorus_compute+0x13e>
 80093ae:	ed98 0a00 	vldr	s0, [r8]
 80093b2:	edd4 9a01 	vldr	s19, [r4, #4]
 80093b6:	ee30 0a09 	vadd.f32	s0, s0, s18
 80093ba:	4620      	mov	r0, r4
 80093bc:	f7ff fe5a 	bl	8009074 <delay_read>
 80093c0:	eef0 7a68 	vmov.f32	s15, s17
 80093c4:	eee9 7a80 	vfma.f32	s15, s19, s0
 80093c8:	eeb7 7a00 	vmov.f32	s14, #112	; 0x70
 80093cc:	eef4 7ac7 	vcmpe.f32	s15, s14
 80093d0:	eef1 fa10 	vmrs	APSR_nzcv, fpscr
 80093d4:	dd23      	ble.n	800941e <stereoChorus_compute+0x12a>
 80093d6:	eef0 7a47 	vmov.f32	s15, s14
 80093da:	edd4 6a02 	vldr	s13, [r4, #8]
 80093de:	ed94 7a00 	vldr	s14, [r4]
 80093e2:	68e3      	ldr	r3, [r4, #12]
 80093e4:	4a1b      	ldr	r2, [pc, #108]	; (8009454 <stereoChorus_compute+0x160>)
 80093e6:	481d      	ldr	r0, [pc, #116]	; (800945c <stereoChorus_compute+0x168>)
 80093e8:	491d      	ldr	r1, [pc, #116]	; (8009460 <stereoChorus_compute+0x16c>)
 80093ea:	ee28 8a26 	vmul.f32	s16, s16, s13
 80093ee:	eb04 0483 	add.w	r4, r4, r3, lsl #2
 80093f2:	eea7 8a27 	vfma.f32	s16, s14, s15
 80093f6:	3301      	adds	r3, #1
 80093f8:	f5b3 6faf 	cmp.w	r3, #1400	; 0x578
 80093fc:	bfa8      	it	ge
 80093fe:	2300      	movge	r3, #0
 8009400:	edc4 7a04 	vstr	s15, [r4, #16]
 8009404:	60d3      	str	r3, [r2, #12]
 8009406:	eeb0 0a68 	vmov.f32	s0, s17
 800940a:	ed87 8a00 	vstr	s16, [r7]
 800940e:	f7ff fed1 	bl	80091b4 <mono_chorus_compute>
 8009412:	ecbd 8b04 	vpop	{d8-d9}
 8009416:	ed86 0a00 	vstr	s0, [r6]
 800941a:	e8bd 81f0 	ldmia.w	sp!, {r4, r5, r6, r7, r8, pc}
 800941e:	eebf 7a00 	vmov.f32	s14, #240	; 0xf0
 8009422:	eef4 7a47 	vcmp.f32	s15, s14
 8009426:	eef1 fa10 	vmrs	APSR_nzcv, fpscr
 800942a:	bf48      	it	mi
 800942c:	eef0 7a47 	vmovmi.f32	s15, s14
 8009430:	e7d3      	b.n	80093da <stereoChorus_compute+0xe6>
 8009432:	edd4 7a01 	vldr	s15, [r4, #4]
 8009436:	eeb0 7a68 	vmov.f32	s14, s17
 800943a:	eea0 7a27 	vfma.f32	s14, s0, s15
 800943e:	eef0 7a47 	vmov.f32	s15, s14
 8009442:	e7c1      	b.n	80093c8 <stereoChorus_compute+0xd4>
 8009444:	10003c18 	.word	0x10003c18
 8009448:	3909421f 	.word	0x3909421f
 800944c:	40c90fdb 	.word	0x40c90fdb
 8009450:	4322f983 	.word	0x4322f983
 8009454:	10001028 	.word	0x10001028
 8009458:	0801c73c 	.word	0x0801c73c
 800945c:	10002620 	.word	0x10002620
 8009460:	10003c28 	.word	0x10003c28
 8009464:	10002618 	.word	0x10002618

08009468 <Delay_init>:
Delay_init():
 8009468:	4b06      	ldr	r3, [pc, #24]	; (8009484 <Delay_init+0x1c>)
 800946a:	4907      	ldr	r1, [pc, #28]	; (8009488 <Delay_init+0x20>)
 800946c:	4807      	ldr	r0, [pc, #28]	; (800948c <Delay_init+0x24>)
 800946e:	600b      	str	r3, [r1, #0]
 8009470:	4a07      	ldr	r2, [pc, #28]	; (8009490 <Delay_init+0x28>)
 8009472:	f503 434b 	add.w	r3, r3, #51968	; 0xcb00
 8009476:	3320      	adds	r3, #32
 8009478:	f243 21c8 	movw	r1, #13000	; 0x32c8
 800947c:	6003      	str	r3, [r0, #0]
 800947e:	6011      	str	r1, [r2, #0]
 8009480:	4770      	bx	lr
 8009482:	bf00      	nop
 8009484:	20000978 	.word	0x20000978
 8009488:	2001de4c 	.word	0x2001de4c
 800948c:	2001de40 	.word	0x2001de40
 8009490:	2001de48 	.word	0x2001de48

08009494 <Delay_time_inc>:
Delay_time_inc():
 8009494:	ee07 0a90 	vmov	s15, r0
 8009498:	eeb8 7ae7 	vcvt.f32.s32	s14, s15
 800949c:	eddf 7a0f 	vldr	s15, [pc, #60]	; 80094dc <Delay_time_inc+0x48>
 80094a0:	eeb4 7a67 	vcmp.f32	s14, s15
 80094a4:	eef1 fa10 	vmrs	APSR_nzcv, fpscr
 80094a8:	d113      	bne.n	80094d2 <Delay_time_inc+0x3e>
 80094aa:	4b0d      	ldr	r3, [pc, #52]	; (80094e0 <Delay_time_inc+0x4c>)
 80094ac:	681a      	ldr	r2, [r3, #0]
 80094ae:	f247 511b 	movw	r1, #29979	; 0x751b
 80094b2:	428a      	cmp	r2, r1
 80094b4:	bf9c      	itt	ls
 80094b6:	3214      	addls	r2, #20
 80094b8:	601a      	strls	r2, [r3, #0]
 80094ba:	4b0a      	ldr	r3, [pc, #40]	; (80094e4 <Delay_time_inc+0x50>)
 80094bc:	490a      	ldr	r1, [pc, #40]	; (80094e8 <Delay_time_inc+0x54>)
 80094be:	681b      	ldr	r3, [r3, #0]
 80094c0:	eba3 0382 	sub.w	r3, r3, r2, lsl #2
 80094c4:	428b      	cmp	r3, r1
 80094c6:	d205      	bcs.n	80094d4 <Delay_time_inc+0x40>
 80094c8:	f503 33ea 	add.w	r3, r3, #119808	; 0x1d400
 80094cc:	4a07      	ldr	r2, [pc, #28]	; (80094ec <Delay_time_inc+0x58>)
 80094ce:	33bc      	adds	r3, #188	; 0xbc
 80094d0:	6013      	str	r3, [r2, #0]
 80094d2:	4770      	bx	lr
 80094d4:	4a05      	ldr	r2, [pc, #20]	; (80094ec <Delay_time_inc+0x58>)
 80094d6:	6013      	str	r3, [r2, #0]
 80094d8:	4770      	bx	lr
 80094da:	bf00      	nop
 80094dc:	42fe0000 	.word	0x42fe0000
 80094e0:	2001de48 	.word	0x2001de48
 80094e4:	2001de40 	.word	0x2001de40
 80094e8:	20000978 	.word	0x20000978
 80094ec:	2001de4c 	.word	0x2001de4c

080094f0 <Delay_time_dec>:
Delay_time_dec():
 80094f0:	ee07 0a90 	vmov	s15, r0
 80094f4:	eeb8 7ae7 	vcvt.f32.s32	s14, s15
 80094f8:	eddf 7a0e 	vldr	s15, [pc, #56]	; 8009534 <Delay_time_dec+0x44>
 80094fc:	eeb4 7a67 	vcmp.f32	s14, s15
 8009500:	eef1 fa10 	vmrs	APSR_nzcv, fpscr
 8009504:	d112      	bne.n	800952c <Delay_time_dec+0x3c>
 8009506:	4b0c      	ldr	r3, [pc, #48]	; (8009538 <Delay_time_dec+0x48>)
 8009508:	490c      	ldr	r1, [pc, #48]	; (800953c <Delay_time_dec+0x4c>)
 800950a:	681a      	ldr	r2, [r3, #0]
 800950c:	f5b2 7f87 	cmp.w	r2, #270	; 0x10e
 8009510:	bf84      	itt	hi
 8009512:	3a14      	subhi	r2, #20
 8009514:	601a      	strhi	r2, [r3, #0]
 8009516:	4b0a      	ldr	r3, [pc, #40]	; (8009540 <Delay_time_dec+0x50>)
 8009518:	681b      	ldr	r3, [r3, #0]
 800951a:	eba3 0382 	sub.w	r3, r3, r2, lsl #2
 800951e:	428b      	cmp	r3, r1
 8009520:	d205      	bcs.n	800952e <Delay_time_dec+0x3e>
 8009522:	f503 33ea 	add.w	r3, r3, #119808	; 0x1d400
 8009526:	4a07      	ldr	r2, [pc, #28]	; (8009544 <Delay_time_dec+0x54>)
 8009528:	33bc      	adds	r3, #188	; 0xbc
 800952a:	6013      	str	r3, [r2, #0]
 800952c:	4770      	bx	lr
 800952e:	4a05      	ldr	r2, [pc, #20]	; (8009544 <Delay_time_dec+0x54>)
 8009530:	6013      	str	r3, [r2, #0]
 8009532:	4770      	bx	lr
 8009534:	42fe0000 	.word	0x42fe0000
 8009538:	2001de48 	.word	0x2001de48
 800953c:	20000978 	.word	0x20000978
 8009540:	2001de40 	.word	0x2001de40
 8009544:	2001de4c 	.word	0x2001de4c

08009548 <Delay_time_set>:
Delay_time_set():
 8009548:	ee07 0a90 	vmov	s15, r0
 800954c:	ed9f 0a0d 	vldr	s0, [pc, #52]	; 8009584 <Delay_time_set+0x3c>
 8009550:	eeb8 7ae7 	vcvt.f32.s32	s14, s15
 8009554:	eddf 7a0c 	vldr	s15, [pc, #48]	; 8009588 <Delay_time_set+0x40>
 8009558:	b508      	push	{r3, lr}
 800955a:	eea7 0a27 	vfma.f32	s0, s14, s15
 800955e:	f003 fb01 	bl	800cb64 <lrintf>
 8009562:	4b0a      	ldr	r3, [pc, #40]	; (800958c <Delay_time_set+0x44>)
 8009564:	490a      	ldr	r1, [pc, #40]	; (8009590 <Delay_time_set+0x48>)
 8009566:	681b      	ldr	r3, [r3, #0]
 8009568:	4a0a      	ldr	r2, [pc, #40]	; (8009594 <Delay_time_set+0x4c>)
 800956a:	6008      	str	r0, [r1, #0]
 800956c:	eba3 0080 	sub.w	r0, r3, r0, lsl #2
 8009570:	4290      	cmp	r0, r2
 8009572:	bf38      	it	cc
 8009574:	f500 30ea 	addcc.w	r0, r0, #119808	; 0x1d400
 8009578:	4b07      	ldr	r3, [pc, #28]	; (8009598 <Delay_time_set+0x50>)
 800957a:	bf38      	it	cc
 800957c:	30bc      	addcc	r0, #188	; 0xbc
 800957e:	6018      	str	r0, [r3, #0]
 8009580:	bd08      	pop	{r3, pc}
 8009582:	bf00      	nop
 8009584:	437a0000 	.word	0x437a0000
 8009588:	436a3e7d 	.word	0x436a3e7d
 800958c:	2001de40 	.word	0x2001de40
 8009590:	2001de48 	.word	0x2001de48
 8009594:	20000978 	.word	0x20000978
 8009598:	2001de4c 	.word	0x2001de4c

0800959c <DelayFeedback_set>:
DelayFeedback_set():
 800959c:	ee07 0a90 	vmov	s15, r0
 80095a0:	ed9f 7a04 	vldr	s14, [pc, #16]	; 80095b4 <DelayFeedback_set+0x18>
 80095a4:	4b04      	ldr	r3, [pc, #16]	; (80095b8 <DelayFeedback_set+0x1c>)
 80095a6:	eef8 7ae7 	vcvt.f32.s32	s15, s15
 80095aa:	eec7 7a87 	vdiv.f32	s15, s15, s14
 80095ae:	edc3 7a00 	vstr	s15, [r3]
 80095b2:	4770      	bx	lr
 80095b4:	42fe0000 	.word	0x42fe0000
 80095b8:	20000074 	.word	0x20000074

080095bc <DelayWet_set>:
DelayWet_set():
 80095bc:	ee07 0a90 	vmov	s15, r0
 80095c0:	ed9f 7a04 	vldr	s14, [pc, #16]	; 80095d4 <DelayWet_set+0x18>
 80095c4:	4b04      	ldr	r3, [pc, #16]	; (80095d8 <DelayWet_set+0x1c>)
 80095c6:	eef8 7ae7 	vcvt.f32.s32	s15, s15
 80095ca:	eec7 7a87 	vdiv.f32	s15, s15, s14
 80095ce:	edc3 7a00 	vstr	s15, [r3]
 80095d2:	4770      	bx	lr
 80095d4:	42fe0000 	.word	0x42fe0000
 80095d8:	20000070 	.word	0x20000070

080095dc <Delay_compute>:
Delay_compute():
 80095dc:	4a26      	ldr	r2, [pc, #152]	; (8009678 <Delay_compute+0x9c>)
 80095de:	4827      	ldr	r0, [pc, #156]	; (800967c <Delay_compute+0xa0>)
 80095e0:	edd2 7a00 	vldr	s15, [r2]
 80095e4:	6803      	ldr	r3, [r0, #0]
 80095e6:	ed9f 6a26 	vldr	s12, [pc, #152]	; 8009680 <Delay_compute+0xa4>
 80095ea:	edd3 6a00 	vldr	s13, [r3]
 80095ee:	ed9f 7a25 	vldr	s14, [pc, #148]	; 8009684 <Delay_compute+0xa8>
 80095f2:	4925      	ldr	r1, [pc, #148]	; (8009688 <Delay_compute+0xac>)
 80095f4:	ee67 7a86 	vmul.f32	s15, s15, s12
 80095f8:	b4f0      	push	{r4, r5, r6, r7}
 80095fa:	eee6 7a87 	vfma.f32	s15, s13, s14
 80095fe:	ed91 7a00 	vldr	s14, [r1]
 8009602:	edc2 7a00 	vstr	s15, [r2]
 8009606:	eef0 6a40 	vmov.f32	s13, s0
 800960a:	eee7 6a27 	vfma.f32	s13, s14, s15
 800960e:	eeb7 7a00 	vmov.f32	s14, #112	; 0x70
 8009612:	eef4 6ac7 	vcmpe.f32	s13, s14
 8009616:	eef1 fa10 	vmrs	APSR_nzcv, fpscr
 800961a:	eef0 7a66 	vmov.f32	s15, s13
 800961e:	dd21      	ble.n	8009664 <Delay_compute+0x88>
 8009620:	eef0 7a47 	vmov.f32	s15, s14
 8009624:	4c19      	ldr	r4, [pc, #100]	; (800968c <Delay_compute+0xb0>)
 8009626:	491a      	ldr	r1, [pc, #104]	; (8009690 <Delay_compute+0xb4>)
 8009628:	6822      	ldr	r2, [r4, #0]
 800962a:	4e1a      	ldr	r6, [pc, #104]	; (8009694 <Delay_compute+0xb8>)
 800962c:	ece2 7a01 	vstmia	r2!, {s15}
 8009630:	1a57      	subs	r7, r2, r1
 8009632:	6022      	str	r2, [r4, #0]
 8009634:	3304      	adds	r3, #4
 8009636:	4a17      	ldr	r2, [pc, #92]	; (8009694 <Delay_compute+0xb8>)
 8009638:	6003      	str	r3, [r0, #0]
 800963a:	42b7      	cmp	r7, r6
 800963c:	eba3 0301 	sub.w	r3, r3, r1
 8009640:	bfc8      	it	gt
 8009642:	6021      	strgt	r1, [r4, #0]
 8009644:	4293      	cmp	r3, r2
 8009646:	4b14      	ldr	r3, [pc, #80]	; (8009698 <Delay_compute+0xbc>)
 8009648:	bfc8      	it	gt
 800964a:	6001      	strgt	r1, [r0, #0]
 800964c:	edd3 6a00 	vldr	s13, [r3]
 8009650:	eeb7 7a00 	vmov.f32	s14, #112	; 0x70
 8009654:	ee37 7a66 	vsub.f32	s14, s14, s13
 8009658:	bcf0      	pop	{r4, r5, r6, r7}
 800965a:	ee27 0a00 	vmul.f32	s0, s14, s0
 800965e:	eea7 0aa6 	vfma.f32	s0, s15, s13
 8009662:	4770      	bx	lr
 8009664:	eebf 7a00 	vmov.f32	s14, #240	; 0xf0
 8009668:	eef4 6a47 	vcmp.f32	s13, s14
 800966c:	eef1 fa10 	vmrs	APSR_nzcv, fpscr
 8009670:	bf48      	it	mi
 8009672:	eef0 7a47 	vmovmi.f32	s15, s14
 8009676:	e7d5      	b.n	8009624 <Delay_compute+0x48>
 8009678:	2001de44 	.word	0x2001de44
 800967c:	2001de4c 	.word	0x2001de4c
 8009680:	3f19999a 	.word	0x3f19999a
 8009684:	3ecccccc 	.word	0x3ecccccc
 8009688:	20000074 	.word	0x20000074
 800968c:	2001de40 	.word	0x2001de40
 8009690:	20000978 	.word	0x20000978
 8009694:	0001d4bf 	.word	0x0001d4bf
 8009698:	20000070 	.word	0x20000070

0800969c <Drifter_amp_set>:
Drifter_amp_set():
 800969c:	ee07 0a90 	vmov	s15, r0
 80096a0:	ed9f 7a07 	vldr	s14, [pc, #28]	; 80096c0 <Drifter_amp_set+0x24>
 80096a4:	4b07      	ldr	r3, [pc, #28]	; (80096c4 <Drifter_amp_set+0x28>)
 80096a6:	eef8 7ae7 	vcvt.f32.s32	s15, s15
 80096aa:	eec7 7a87 	vdiv.f32	s15, s15, s14
 80096ae:	ee67 7aa7 	vmul.f32	s15, s15, s15
 80096b2:	edc3 7a02 	vstr	s15, [r3, #8]
 80096b6:	edc3 7a0d 	vstr	s15, [r3, #52]	; 0x34
 80096ba:	edc3 7a18 	vstr	s15, [r3, #96]	; 0x60
 80096be:	4770      	bx	lr
 80096c0:	42fe0000 	.word	0x42fe0000
 80096c4:	10003c38 	.word	0x10003c38

080096c8 <Drifter_minFreq_set>:
Drifter_minFreq_set():
 80096c8:	eb00 0080 	add.w	r0, r0, r0, lsl #2
 80096cc:	eb00 0080 	add.w	r0, r0, r0, lsl #2
 80096d0:	0040      	lsls	r0, r0, #1
 80096d2:	ee07 0a90 	vmov	s15, r0
 80096d6:	eeb8 7ae7 	vcvt.f32.s32	s14, s15
 80096da:	eddf 7a08 	vldr	s15, [pc, #32]	; 80096fc <Drifter_minFreq_set+0x34>
 80096de:	eddf 6a08 	vldr	s13, [pc, #32]	; 8009700 <Drifter_minFreq_set+0x38>
 80096e2:	4b08      	ldr	r3, [pc, #32]	; (8009704 <Drifter_minFreq_set+0x3c>)
 80096e4:	eec7 7a27 	vdiv.f32	s15, s14, s15
 80096e8:	ee77 7aa6 	vadd.f32	s15, s15, s13
 80096ec:	edc3 7a01 	vstr	s15, [r3, #4]
 80096f0:	edc3 7a0c 	vstr	s15, [r3, #48]	; 0x30
 80096f4:	edc3 7a17 	vstr	s15, [r3, #92]	; 0x5c
 80096f8:	4770      	bx	lr
 80096fa:	bf00      	nop
 80096fc:	42fe0000 	.word	0x42fe0000
 8009700:	3dcccccd 	.word	0x3dcccccd
 8009704:	10003c38 	.word	0x10003c38

08009708 <Drifter_maxFreq_set>:
Drifter_maxFreq_set():
 8009708:	eb00 03c0 	add.w	r3, r0, r0, lsl #3
 800970c:	eb00 0043 	add.w	r0, r0, r3, lsl #1
 8009710:	ee07 0a90 	vmov	s15, r0
 8009714:	eeb8 7ae7 	vcvt.f32.s32	s14, s15
 8009718:	eddf 7a10 	vldr	s15, [pc, #64]	; 800975c <Drifter_maxFreq_set+0x54>
 800971c:	4b10      	ldr	r3, [pc, #64]	; (8009760 <Drifter_maxFreq_set+0x58>)
 800971e:	eddf 6a11 	vldr	s13, [pc, #68]	; 8009764 <Drifter_maxFreq_set+0x5c>
 8009722:	ed93 6a17 	vldr	s12, [r3, #92]	; 0x5c
 8009726:	ee87 7a27 	vdiv.f32	s14, s14, s15
 800972a:	eef7 7a00 	vmov.f32	s15, #112	; 0x70
 800972e:	ee77 7a27 	vadd.f32	s15, s14, s15
 8009732:	ee67 7a86 	vmul.f32	s15, s15, s12
 8009736:	eef4 7ae6 	vcmpe.f32	s15, s13
 800973a:	eef1 fa10 	vmrs	APSR_nzcv, fpscr
 800973e:	dc06      	bgt.n	800974e <Drifter_maxFreq_set+0x46>
 8009740:	edc3 7a00 	vstr	s15, [r3]
 8009744:	edc3 7a0b 	vstr	s15, [r3, #44]	; 0x2c
 8009748:	edc3 7a16 	vstr	s15, [r3, #88]	; 0x58
 800974c:	4770      	bx	lr
 800974e:	edc3 6a00 	vstr	s13, [r3]
 8009752:	edc3 6a0b 	vstr	s13, [r3, #44]	; 0x2c
 8009756:	edc3 6a16 	vstr	s13, [r3, #88]	; 0x58
 800975a:	4770      	bx	lr
 800975c:	42fe0000 	.word	0x42fe0000
 8009760:	10003c38 	.word	0x10003c38
 8009764:	461c4000 	.word	0x461c4000

08009768 <drifter_nextSample>:
drifter_nextSample():
 8009768:	ed90 7a06 	vldr	s14, [r0, #24]
 800976c:	edd0 6a09 	vldr	s13, [r0, #36]	; 0x24
 8009770:	ed90 0a07 	vldr	s0, [r0, #28]
 8009774:	6983      	ldr	r3, [r0, #24]
 8009776:	edd0 7a02 	vldr	s15, [r0, #8]
 800977a:	6942      	ldr	r2, [r0, #20]
 800977c:	eeb8 7a47 	vcvt.f32.u32	s14, s14
 8009780:	3301      	adds	r3, #1
 8009782:	eea6 0a87 	vfma.f32	s0, s13, s14
 8009786:	4293      	cmp	r3, r2
 8009788:	6183      	str	r3, [r0, #24]
 800978a:	ee20 0a27 	vmul.f32	s0, s0, s15
 800978e:	ed80 0a0a 	vstr	s0, [r0, #40]	; 0x28
 8009792:	d200      	bcs.n	8009796 <drifter_nextSample+0x2e>
 8009794:	4770      	bx	lr
 8009796:	eddf 7a19 	vldr	s15, [pc, #100]	; 80097fc <drifter_nextSample+0x94>
 800979a:	ed90 0a00 	vldr	s0, [r0]
 800979e:	edd0 0a01 	vldr	s1, [r0, #4]
 80097a2:	6a03      	ldr	r3, [r0, #32]
 80097a4:	61c3      	str	r3, [r0, #28]
 80097a6:	eec7 0aa0 	vdiv.f32	s1, s15, s1
 80097aa:	2200      	movs	r2, #0
 80097ac:	b510      	push	{r4, lr}
 80097ae:	6182      	str	r2, [r0, #24]
 80097b0:	4604      	mov	r4, r0
 80097b2:	ee87 0a80 	vdiv.f32	s0, s15, s0
 80097b6:	edc0 0a04 	vstr	s1, [r0, #16]
 80097ba:	ed80 0a03 	vstr	s0, [r0, #12]
 80097be:	f001 fff5 	bl	800b7ac <frand_a_b>
 80097c2:	eebc 0ac0 	vcvt.u32.f32	s0, s0
 80097c6:	eef7 0a00 	vmov.f32	s1, #112	; 0x70
 80097ca:	ed84 0a05 	vstr	s0, [r4, #20]
 80097ce:	eebf 0a00 	vmov.f32	s0, #240	; 0xf0
 80097d2:	f001 ffeb 	bl	800b7ac <frand_a_b>
 80097d6:	ed94 7a07 	vldr	s14, [r4, #28]
 80097da:	eef0 7a40 	vmov.f32	s15, s0
 80097de:	edc4 7a08 	vstr	s15, [r4, #32]
 80097e2:	ee77 7ac7 	vsub.f32	s15, s15, s14
 80097e6:	ed94 7a05 	vldr	s14, [r4, #20]
 80097ea:	ed94 0a0a 	vldr	s0, [r4, #40]	; 0x28
 80097ee:	eeb8 7a47 	vcvt.f32.u32	s14, s14
 80097f2:	eec7 7a87 	vdiv.f32	s15, s15, s14
 80097f6:	edc4 7a09 	vstr	s15, [r4, #36]	; 0x24
 80097fa:	bd10      	pop	{r4, pc}
 80097fc:	46bb8000 	.word	0x46bb8000

08009800 <d1_drifter_nextSample>:
d1_drifter_nextSample():
 8009800:	b510      	push	{r4, lr}
 8009802:	4c26      	ldr	r4, [pc, #152]	; (800989c <d1_drifter_nextSample+0x9c>)
 8009804:	ed94 7a1c 	vldr	s14, [r4, #112]	; 0x70
 8009808:	edd4 6a1f 	vldr	s13, [r4, #124]	; 0x7c
 800980c:	ed94 0a1d 	vldr	s0, [r4, #116]	; 0x74
 8009810:	6f23      	ldr	r3, [r4, #112]	; 0x70
 8009812:	edd4 7a18 	vldr	s15, [r4, #96]	; 0x60
 8009816:	6ee2      	ldr	r2, [r4, #108]	; 0x6c
 8009818:	eeb8 7a47 	vcvt.f32.u32	s14, s14
 800981c:	3301      	adds	r3, #1
 800981e:	eea6 0a87 	vfma.f32	s0, s13, s14
 8009822:	4293      	cmp	r3, r2
 8009824:	6723      	str	r3, [r4, #112]	; 0x70
 8009826:	ee20 0a27 	vmul.f32	s0, s0, s15
 800982a:	ed84 0a20 	vstr	s0, [r4, #128]	; 0x80
 800982e:	d333      	bcc.n	8009898 <d1_drifter_nextSample+0x98>
 8009830:	edd4 6a17 	vldr	s13, [r4, #92]	; 0x5c
 8009834:	eddf 7a1a 	vldr	s15, [pc, #104]	; 80098a0 <d1_drifter_nextSample+0xa0>
 8009838:	ed94 7a16 	vldr	s14, [r4, #88]	; 0x58
 800983c:	6fa3      	ldr	r3, [r4, #120]	; 0x78
 800983e:	6763      	str	r3, [r4, #116]	; 0x74
 8009840:	ee87 7a87 	vdiv.f32	s14, s15, s14
 8009844:	2200      	movs	r2, #0
 8009846:	6722      	str	r2, [r4, #112]	; 0x70
 8009848:	eec7 7aa6 	vdiv.f32	s15, s15, s13
 800984c:	eeb0 0a47 	vmov.f32	s0, s14
 8009850:	eef0 0a67 	vmov.f32	s1, s15
 8009854:	ed84 7a19 	vstr	s14, [r4, #100]	; 0x64
 8009858:	edc4 7a1a 	vstr	s15, [r4, #104]	; 0x68
 800985c:	f001 ffa6 	bl	800b7ac <frand_a_b>
 8009860:	eefc 7ac0 	vcvt.u32.f32	s15, s0
 8009864:	eef7 0a00 	vmov.f32	s1, #112	; 0x70
 8009868:	eebf 0a00 	vmov.f32	s0, #240	; 0xf0
 800986c:	edc4 7a1b 	vstr	s15, [r4, #108]	; 0x6c
 8009870:	f001 ff9c 	bl	800b7ac <frand_a_b>
 8009874:	ed94 7a1d 	vldr	s14, [r4, #116]	; 0x74
 8009878:	eef0 7a40 	vmov.f32	s15, s0
 800987c:	edc4 7a1e 	vstr	s15, [r4, #120]	; 0x78
 8009880:	ee77 7ac7 	vsub.f32	s15, s15, s14
 8009884:	ed94 7a1b 	vldr	s14, [r4, #108]	; 0x6c
 8009888:	ed94 0a20 	vldr	s0, [r4, #128]	; 0x80
 800988c:	eeb8 7a47 	vcvt.f32.u32	s14, s14
 8009890:	eec7 7a87 	vdiv.f32	s15, s15, s14
 8009894:	edc4 7a1f 	vstr	s15, [r4, #124]	; 0x7c
 8009898:	bd10      	pop	{r4, pc}
 800989a:	bf00      	nop
 800989c:	10003c38 	.word	0x10003c38
 80098a0:	46bb8000 	.word	0x46bb8000

080098a4 <d2_drifter_nextSample>:
d2_drifter_nextSample():
 80098a4:	b510      	push	{r4, lr}
 80098a6:	4c26      	ldr	r4, [pc, #152]	; (8009940 <d2_drifter_nextSample+0x9c>)
 80098a8:	ed94 7a11 	vldr	s14, [r4, #68]	; 0x44
 80098ac:	edd4 6a14 	vldr	s13, [r4, #80]	; 0x50
 80098b0:	ed94 0a12 	vldr	s0, [r4, #72]	; 0x48
 80098b4:	6c63      	ldr	r3, [r4, #68]	; 0x44
 80098b6:	edd4 7a0d 	vldr	s15, [r4, #52]	; 0x34
 80098ba:	6c22      	ldr	r2, [r4, #64]	; 0x40
 80098bc:	eeb8 7a47 	vcvt.f32.u32	s14, s14
 80098c0:	3301      	adds	r3, #1
 80098c2:	eea6 0a87 	vfma.f32	s0, s13, s14
 80098c6:	4293      	cmp	r3, r2
 80098c8:	6463      	str	r3, [r4, #68]	; 0x44
 80098ca:	ee20 0a27 	vmul.f32	s0, s0, s15
 80098ce:	ed84 0a15 	vstr	s0, [r4, #84]	; 0x54
 80098d2:	d333      	bcc.n	800993c <d2_drifter_nextSample+0x98>
 80098d4:	edd4 6a0c 	vldr	s13, [r4, #48]	; 0x30
 80098d8:	eddf 7a1a 	vldr	s15, [pc, #104]	; 8009944 <d2_drifter_nextSample+0xa0>
 80098dc:	ed94 7a0b 	vldr	s14, [r4, #44]	; 0x2c
 80098e0:	6ce3      	ldr	r3, [r4, #76]	; 0x4c
 80098e2:	64a3      	str	r3, [r4, #72]	; 0x48
 80098e4:	ee87 7a87 	vdiv.f32	s14, s15, s14
 80098e8:	2200      	movs	r2, #0
 80098ea:	6462      	str	r2, [r4, #68]	; 0x44
 80098ec:	eec7 7aa6 	vdiv.f32	s15, s15, s13
 80098f0:	eeb0 0a47 	vmov.f32	s0, s14
 80098f4:	eef0 0a67 	vmov.f32	s1, s15
 80098f8:	ed84 7a0e 	vstr	s14, [r4, #56]	; 0x38
 80098fc:	edc4 7a0f 	vstr	s15, [r4, #60]	; 0x3c
 8009900:	f001 ff54 	bl	800b7ac <frand_a_b>
 8009904:	eefc 7ac0 	vcvt.u32.f32	s15, s0
 8009908:	eef7 0a00 	vmov.f32	s1, #112	; 0x70
 800990c:	eebf 0a00 	vmov.f32	s0, #240	; 0xf0
 8009910:	edc4 7a10 	vstr	s15, [r4, #64]	; 0x40
 8009914:	f001 ff4a 	bl	800b7ac <frand_a_b>
 8009918:	ed94 7a12 	vldr	s14, [r4, #72]	; 0x48
 800991c:	eef0 7a40 	vmov.f32	s15, s0
 8009920:	edc4 7a13 	vstr	s15, [r4, #76]	; 0x4c
 8009924:	ee77 7ac7 	vsub.f32	s15, s15, s14
 8009928:	ed94 7a10 	vldr	s14, [r4, #64]	; 0x40
 800992c:	ed94 0a15 	vldr	s0, [r4, #84]	; 0x54
 8009930:	eeb8 7a47 	vcvt.f32.u32	s14, s14
 8009934:	eec7 7a87 	vdiv.f32	s15, s15, s14
 8009938:	edc4 7a14 	vstr	s15, [r4, #80]	; 0x50
 800993c:	bd10      	pop	{r4, pc}
 800993e:	bf00      	nop
 8009940:	10003c38 	.word	0x10003c38
 8009944:	46bb8000 	.word	0x46bb8000

08009948 <drifter_init>:
drifter_init():
 8009948:	e92d 43f8 	stmdb	sp!, {r3, r4, r5, r6, r7, r8, r9, lr}
 800994c:	ed2d 8b02 	vpush	{d8}
 8009950:	eddf 8a47 	vldr	s17, [pc, #284]	; 8009a70 <drifter_init+0x128>
 8009954:	ed9f 8a47 	vldr	s16, [pc, #284]	; 8009a74 <drifter_init+0x12c>
 8009958:	4c47      	ldr	r4, [pc, #284]	; (8009a78 <drifter_init+0x130>)
 800995a:	4e48      	ldr	r6, [pc, #288]	; (8009a7c <drifter_init+0x134>)
 800995c:	edc4 8a19 	vstr	s17, [r4, #100]	; 0x64
 8009960:	2500      	movs	r5, #0
 8009962:	f04f 4881 	mov.w	r8, #1082130432	; 0x40800000
 8009966:	f04f 4780 	mov.w	r7, #1073741824	; 0x40000000
 800996a:	f04f 0900 	mov.w	r9, #0
 800996e:	eef0 0a48 	vmov.f32	s1, s16
 8009972:	eeb0 0a68 	vmov.f32	s0, s17
 8009976:	ed84 8a1a 	vstr	s16, [r4, #104]	; 0x68
 800997a:	67a5      	str	r5, [r4, #120]	; 0x78
 800997c:	6765      	str	r5, [r4, #116]	; 0x74
 800997e:	f8c4 8058 	str.w	r8, [r4, #88]	; 0x58
 8009982:	65e7      	str	r7, [r4, #92]	; 0x5c
 8009984:	6626      	str	r6, [r4, #96]	; 0x60
 8009986:	f8c4 9070 	str.w	r9, [r4, #112]	; 0x70
 800998a:	f001 ff0f 	bl	800b7ac <frand_a_b>
 800998e:	eefc 7ac0 	vcvt.u32.f32	s15, s0
 8009992:	eef7 0a00 	vmov.f32	s1, #112	; 0x70
 8009996:	eebf 0a00 	vmov.f32	s0, #240	; 0xf0
 800999a:	edc4 7a1b 	vstr	s15, [r4, #108]	; 0x6c
 800999e:	f001 ff05 	bl	800b7ac <frand_a_b>
 80099a2:	edd4 7a1d 	vldr	s15, [r4, #116]	; 0x74
 80099a6:	ed94 7a1b 	vldr	s14, [r4, #108]	; 0x6c
 80099aa:	ed84 0a1e 	vstr	s0, [r4, #120]	; 0x78
 80099ae:	eeb8 7a47 	vcvt.f32.u32	s14, s14
 80099b2:	ee70 7a67 	vsub.f32	s15, s0, s15
 80099b6:	eef0 0a48 	vmov.f32	s1, s16
 80099ba:	eec7 7a87 	vdiv.f32	s15, s15, s14
 80099be:	f8c4 9044 	str.w	r9, [r4, #68]	; 0x44
 80099c2:	64e5      	str	r5, [r4, #76]	; 0x4c
 80099c4:	f8c4 802c 	str.w	r8, [r4, #44]	; 0x2c
 80099c8:	6327      	str	r7, [r4, #48]	; 0x30
 80099ca:	6366      	str	r6, [r4, #52]	; 0x34
 80099cc:	64a5      	str	r5, [r4, #72]	; 0x48
 80099ce:	eeb0 0a68 	vmov.f32	s0, s17
 80099d2:	edc4 8a0e 	vstr	s17, [r4, #56]	; 0x38
 80099d6:	ed84 8a0f 	vstr	s16, [r4, #60]	; 0x3c
 80099da:	edc4 7a1f 	vstr	s15, [r4, #124]	; 0x7c
 80099de:	f001 fee5 	bl	800b7ac <frand_a_b>
 80099e2:	eefc 7ac0 	vcvt.u32.f32	s15, s0
 80099e6:	eef7 0a00 	vmov.f32	s1, #112	; 0x70
 80099ea:	eebf 0a00 	vmov.f32	s0, #240	; 0xf0
 80099ee:	edc4 7a10 	vstr	s15, [r4, #64]	; 0x40
 80099f2:	f001 fedb 	bl	800b7ac <frand_a_b>
 80099f6:	edd4 7a12 	vldr	s15, [r4, #72]	; 0x48
 80099fa:	ed94 7a10 	vldr	s14, [r4, #64]	; 0x40
 80099fe:	ed84 0a13 	vstr	s0, [r4, #76]	; 0x4c
 8009a02:	eeb8 7a47 	vcvt.f32.u32	s14, s14
 8009a06:	ee70 7a67 	vsub.f32	s15, s0, s15
 8009a0a:	eef0 0a48 	vmov.f32	s1, s16
 8009a0e:	eec7 7a87 	vdiv.f32	s15, s15, s14
 8009a12:	f8c4 9018 	str.w	r9, [r4, #24]
 8009a16:	6225      	str	r5, [r4, #32]
 8009a18:	f8c4 8000 	str.w	r8, [r4]
 8009a1c:	6067      	str	r7, [r4, #4]
 8009a1e:	60a6      	str	r6, [r4, #8]
 8009a20:	61e5      	str	r5, [r4, #28]
 8009a22:	eeb0 0a68 	vmov.f32	s0, s17
 8009a26:	edc4 8a03 	vstr	s17, [r4, #12]
 8009a2a:	ed84 8a04 	vstr	s16, [r4, #16]
 8009a2e:	edc4 7a14 	vstr	s15, [r4, #80]	; 0x50
 8009a32:	f001 febb 	bl	800b7ac <frand_a_b>
 8009a36:	eefc 7ac0 	vcvt.u32.f32	s15, s0
 8009a3a:	eef7 0a00 	vmov.f32	s1, #112	; 0x70
 8009a3e:	eebf 0a00 	vmov.f32	s0, #240	; 0xf0
 8009a42:	edc4 7a05 	vstr	s15, [r4, #20]
 8009a46:	f001 feb1 	bl	800b7ac <frand_a_b>
 8009a4a:	edd4 7a07 	vldr	s15, [r4, #28]
 8009a4e:	ed84 0a08 	vstr	s0, [r4, #32]
 8009a52:	ee30 0a67 	vsub.f32	s0, s0, s15
 8009a56:	edd4 7a05 	vldr	s15, [r4, #20]
 8009a5a:	eef8 7a67 	vcvt.f32.u32	s15, s15
 8009a5e:	ecbd 8b02 	vpop	{d8}
 8009a62:	ee80 0a27 	vdiv.f32	s0, s0, s15
 8009a66:	ed84 0a09 	vstr	s0, [r4, #36]	; 0x24
 8009a6a:	e8bd 83f8 	ldmia.w	sp!, {r3, r4, r5, r6, r7, r8, r9, pc}
 8009a6e:	bf00      	nop
 8009a70:	45bb8000 	.word	0x45bb8000
 8009a74:	463b8000 	.word	0x463b8000
 8009a78:	10003c38 	.word	0x10003c38
 8009a7c:	3c23d70a 	.word	0x3c23d70a

08009a80 <USBH_UserProcess_callback>:
USBH_UserProcess_callback():
 8009a80:	2904      	cmp	r1, #4
 8009a82:	b510      	push	{r4, lr}
 8009a84:	460c      	mov	r4, r1
 8009a86:	d01c      	beq.n	8009ac2 <USBH_UserProcess_callback+0x42>
 8009a88:	2905      	cmp	r1, #5
 8009a8a:	d00f      	beq.n	8009aac <USBH_UserProcess_callback+0x2c>
 8009a8c:	2902      	cmp	r1, #2
 8009a8e:	d000      	beq.n	8009a92 <USBH_UserProcess_callback+0x12>
 8009a90:	bd10      	pop	{r4, pc}
 8009a92:	4b10      	ldr	r3, [pc, #64]	; (8009ad4 <USBH_UserProcess_callback+0x54>)
 8009a94:	2000      	movs	r0, #0
 8009a96:	7019      	strb	r1, [r3, #0]
 8009a98:	f7fc ff5a 	bl	8006950 <BSP_LED_On>
 8009a9c:	2003      	movs	r0, #3
 8009a9e:	f7fc ff65 	bl	800696c <BSP_LED_Off>
 8009aa2:	4620      	mov	r0, r4
 8009aa4:	e8bd 4010 	ldmia.w	sp!, {r4, lr}
 8009aa8:	f7fc bf60 	b.w	800696c <BSP_LED_Off>
 8009aac:	4b09      	ldr	r3, [pc, #36]	; (8009ad4 <USBH_UserProcess_callback+0x54>)
 8009aae:	2204      	movs	r2, #4
 8009ab0:	2000      	movs	r0, #0
 8009ab2:	701a      	strb	r2, [r3, #0]
 8009ab4:	f7fc ff5a 	bl	800696c <BSP_LED_Off>
 8009ab8:	2003      	movs	r0, #3
 8009aba:	e8bd 4010 	ldmia.w	sp!, {r4, lr}
 8009abe:	f7fc bf55 	b.w	800696c <BSP_LED_Off>
 8009ac2:	4b04      	ldr	r3, [pc, #16]	; (8009ad4 <USBH_UserProcess_callback+0x54>)
 8009ac4:	2201      	movs	r2, #1
 8009ac6:	2003      	movs	r0, #3
 8009ac8:	e8bd 4010 	ldmia.w	sp!, {r4, lr}
 8009acc:	701a      	strb	r2, [r3, #0]
 8009ace:	f7fc bf3f 	b.w	8006950 <BSP_LED_On>
 8009ad2:	bf00      	nop
 8009ad4:	2001de51 	.word	0x2001de51

08009ad8 <ButtonPressed_action>:
ButtonPressed_action():
 8009ad8:	4b06      	ldr	r3, [pc, #24]	; (8009af4 <ButtonPressed_action+0x1c>)
 8009ada:	781a      	ldrb	r2, [r3, #0]
 8009adc:	b122      	cbz	r2, 8009ae8 <ButtonPressed_action+0x10>
 8009ade:	2200      	movs	r2, #0
 8009ae0:	2002      	movs	r0, #2
 8009ae2:	701a      	strb	r2, [r3, #0]
 8009ae4:	f7fc bf42 	b.w	800696c <BSP_LED_Off>
 8009ae8:	2201      	movs	r2, #1
 8009aea:	2002      	movs	r0, #2
 8009aec:	701a      	strb	r2, [r3, #0]
 8009aee:	f7fc bf2f 	b.w	8006950 <BSP_LED_On>
 8009af2:	bf00      	nop
 8009af4:	2001de50 	.word	0x2001de50

08009af8 <ButtonReleased_action>:
ButtonReleased_action():
 8009af8:	4770      	bx	lr
 8009afa:	bf00      	nop

08009afc <Error_Handler>:
Error_Handler():
 8009afc:	b508      	push	{r3, lr}
 8009afe:	2002      	movs	r0, #2
 8009b00:	f7fc ff26 	bl	8006950 <BSP_LED_On>
 8009b04:	e7fe      	b.n	8009b04 <Error_Handler+0x8>
 8009b06:	bf00      	nop

08009b08 <main>:
main():
 8009b08:	b580      	push	{r7, lr}
 8009b0a:	b092      	sub	sp, #72	; 0x48
 8009b0c:	f7f8 fdb4 	bl	8002678 <HAL_Init>
 8009b10:	2001      	movs	r0, #1
 8009b12:	f7fc feef 	bl	80068f4 <BSP_LED_Init>
 8009b16:	2000      	movs	r0, #0
 8009b18:	f7fc feec 	bl	80068f4 <BSP_LED_Init>
 8009b1c:	2002      	movs	r0, #2
 8009b1e:	f7fc fee9 	bl	80068f4 <BSP_LED_Init>
 8009b22:	2003      	movs	r0, #3
 8009b24:	f7fc fee6 	bl	80068f4 <BSP_LED_Init>
 8009b28:	492b      	ldr	r1, [pc, #172]	; (8009bd8 <main+0xd0>)
 8009b2a:	4a2c      	ldr	r2, [pc, #176]	; (8009bdc <main+0xd4>)
 8009b2c:	6c0b      	ldr	r3, [r1, #64]	; 0x40
 8009b2e:	f043 5380 	orr.w	r3, r3, #268435456	; 0x10000000
 8009b32:	640b      	str	r3, [r1, #64]	; 0x40
 8009b34:	6813      	ldr	r3, [r2, #0]
 8009b36:	f443 4340 	orr.w	r3, r3, #49152	; 0xc000
 8009b3a:	6013      	str	r3, [r2, #0]
 8009b3c:	2501      	movs	r5, #1
 8009b3e:	2307      	movs	r3, #7
 8009b40:	2402      	movs	r4, #2
 8009b42:	2108      	movs	r1, #8
 8009b44:	f44f 72a8 	mov.w	r2, #336	; 0x150
 8009b48:	f44f 0680 	mov.w	r6, #4194304	; 0x400000
 8009b4c:	a806      	add	r0, sp, #24
 8009b4e:	9311      	str	r3, [sp, #68]	; 0x44
 8009b50:	9506      	str	r5, [sp, #24]
 8009b52:	9507      	str	r5, [sp, #28]
 8009b54:	940c      	str	r4, [sp, #48]	; 0x30
 8009b56:	9410      	str	r4, [sp, #64]	; 0x40
 8009b58:	960d      	str	r6, [sp, #52]	; 0x34
 8009b5a:	910e      	str	r1, [sp, #56]	; 0x38
 8009b5c:	920f      	str	r2, [sp, #60]	; 0x3c
 8009b5e:	f7fb fb03 	bl	8005168 <HAL_RCC_OscConfig>
 8009b62:	4603      	mov	r3, r0
 8009b64:	2800      	cmp	r0, #0
 8009b66:	d134      	bne.n	8009bd2 <main+0xca>
 8009b68:	f44f 5280 	mov.w	r2, #4096	; 0x1000
 8009b6c:	270f      	movs	r7, #15
 8009b6e:	f44f 56a0 	mov.w	r6, #5120	; 0x1400
 8009b72:	a801      	add	r0, sp, #4
 8009b74:	2105      	movs	r1, #5
 8009b76:	9402      	str	r4, [sp, #8]
 8009b78:	9303      	str	r3, [sp, #12]
 8009b7a:	9701      	str	r7, [sp, #4]
 8009b7c:	9604      	str	r6, [sp, #16]
 8009b7e:	9205      	str	r2, [sp, #20]
 8009b80:	f7fb fcac 	bl	80054dc <HAL_RCC_ClockConfig>
 8009b84:	4604      	mov	r4, r0
 8009b86:	bb20      	cbnz	r0, 8009bd2 <main+0xca>
 8009b88:	4629      	mov	r1, r5
 8009b8a:	f7fc ff0b 	bl	80069a4 <BSP_PB_Init>
 8009b8e:	f001 fdf9 	bl	800b784 <randomGen_init>
 8009b92:	f002 fcd7 	bl	800c544 <Synth_Init>
 8009b96:	f7fd febf 	bl	8007918 <audio_init>
 8009b9a:	4620      	mov	r0, r4
 8009b9c:	f7fc ff3a 	bl	8006a14 <BSP_PB_GetState>
 8009ba0:	b900      	cbnz	r0, 8009ba4 <main+0x9c>
 8009ba2:	e7fe      	b.n	8009ba2 <main+0x9a>
 8009ba4:	4b0e      	ldr	r3, [pc, #56]	; (8009be0 <main+0xd8>)
 8009ba6:	490f      	ldr	r1, [pc, #60]	; (8009be4 <main+0xdc>)
 8009ba8:	480f      	ldr	r0, [pc, #60]	; (8009be8 <main+0xe0>)
 8009baa:	701c      	strb	r4, [r3, #0]
 8009bac:	4622      	mov	r2, r4
 8009bae:	f7f7 f9b9 	bl	8000f24 <USBH_Init>
 8009bb2:	480d      	ldr	r0, [pc, #52]	; (8009be8 <main+0xe0>)
 8009bb4:	490d      	ldr	r1, [pc, #52]	; (8009bec <main+0xe4>)
 8009bb6:	f7f7 f9e5 	bl	8000f84 <USBH_RegisterClass>
 8009bba:	480b      	ldr	r0, [pc, #44]	; (8009be8 <main+0xe0>)
 8009bbc:	f7f7 fc70 	bl	80014a0 <USBH_Start>
 8009bc0:	f7fd fb44 	bl	800724c <MIDI_Application>
 8009bc4:	2001      	movs	r0, #1
 8009bc6:	f7fd fa39 	bl	800703c <USBH_Delay>
 8009bca:	4807      	ldr	r0, [pc, #28]	; (8009be8 <main+0xe0>)
 8009bcc:	f7f7 fc72 	bl	80014b4 <USBH_Process>
 8009bd0:	e7f6      	b.n	8009bc0 <main+0xb8>
 8009bd2:	f7ff ff93 	bl	8009afc <Error_Handler>
 8009bd6:	bf00      	nop
 8009bd8:	40023800 	.word	0x40023800
 8009bdc:	40007000 	.word	0x40007000
 8009be0:	20000078 	.word	0x20000078
 8009be4:	08009a81 	.word	0x08009a81
 8009be8:	2001f204 	.word	0x2001f204
 8009bec:	20000000 	.word	0x20000000

08009bf0 <HAL_GPIO_EXTI_Callback>:
HAL_GPIO_EXTI_Callback():
 8009bf0:	4770      	bx	lr
 8009bf2:	bf00      	nop

08009bf4 <Lin2Exp>:
Lin2Exp():
 8009bf4:	b508      	push	{r3, lr}
 8009bf6:	ee07 0a90 	vmov	s15, r0
 8009bfa:	eeb8 7ae7 	vcvt.f32.s32	s14, s15
 8009bfe:	eddf 7a08 	vldr	s15, [pc, #32]	; 8009c20 <Lin2Exp+0x2c>
 8009c02:	ed2d 8b02 	vpush	{d8}
 8009c06:	eeb0 8a40 	vmov.f32	s16, s0
 8009c0a:	ee80 0a80 	vdiv.f32	s0, s1, s0
 8009c0e:	eec7 0a27 	vdiv.f32	s1, s14, s15
 8009c12:	f003 f893 	bl	800cd3c <powf>
 8009c16:	ee20 0a08 	vmul.f32	s0, s0, s16
 8009c1a:	ecbd 8b02 	vpop	{d8}
 8009c1e:	bd08      	pop	{r3, pc}
 8009c20:	42fe0000 	.word	0x42fe0000

08009c24 <tanhXdX>:
tanhXdX():
 8009c24:	ee20 0a00 	vmul.f32	s0, s0, s0
 8009c28:	eddf 6a0a 	vldr	s13, [pc, #40]	; 8009c54 <tanhXdX+0x30>
 8009c2c:	ed9f 7a0a 	vldr	s14, [pc, #40]	; 8009c58 <tanhXdX+0x34>
 8009c30:	eddf 7a0a 	vldr	s15, [pc, #40]	; 8009c5c <tanhXdX+0x38>
 8009c34:	eeb2 6a0e 	vmov.f32	s12, #46	; 0x2e
 8009c38:	eee0 6a06 	vfma.f32	s13, s0, s12
 8009c3c:	ee30 7a07 	vadd.f32	s14, s0, s14
 8009c40:	eeb0 6a67 	vmov.f32	s12, s15
 8009c44:	eea6 6a80 	vfma.f32	s12, s13, s0
 8009c48:	eee7 7a00 	vfma.f32	s15, s14, s0
 8009c4c:	ee87 0a86 	vdiv.f32	s0, s15, s12
 8009c50:	4770      	bx	lr
 8009c52:	bf00      	nop
 8009c54:	43d20000 	.word	0x43d20000
 8009c58:	42d20000 	.word	0x42d20000
 8009c5c:	446c4000 	.word	0x446c4000

08009c60 <fastTanh>:
fastTanh():
 8009c60:	eddf 7a0f 	vldr	s15, [pc, #60]	; 8009ca0 <fastTanh+0x40>
 8009c64:	eeb4 0ae7 	vcmpe.f32	s0, s15
 8009c68:	eef1 fa10 	vmrs	APSR_nzcv, fpscr
 8009c6c:	d414      	bmi.n	8009c98 <fastTanh+0x38>
 8009c6e:	eddf 7a0d 	vldr	s15, [pc, #52]	; 8009ca4 <fastTanh+0x44>
 8009c72:	eeb4 0ae7 	vcmpe.f32	s0, s15
 8009c76:	eef1 fa10 	vmrs	APSR_nzcv, fpscr
 8009c7a:	dc0a      	bgt.n	8009c92 <fastTanh+0x32>
 8009c7c:	eddf 7a0a 	vldr	s15, [pc, #40]	; 8009ca8 <fastTanh+0x48>
 8009c80:	ed9f 7a0a 	vldr	s14, [pc, #40]	; 8009cac <fastTanh+0x4c>
 8009c84:	eee0 7a00 	vfma.f32	s15, s0, s0
 8009c88:	ee20 0a07 	vmul.f32	s0, s0, s14
 8009c8c:	ee80 0a27 	vdiv.f32	s0, s0, s15
 8009c90:	4770      	bx	lr
 8009c92:	eeb7 0a00 	vmov.f32	s0, #112	; 0x70
 8009c96:	4770      	bx	lr
 8009c98:	eebf 0a00 	vmov.f32	s0, #240	; 0xf0
 8009c9c:	4770      	bx	lr
 8009c9e:	bf00      	nop
 8009ca0:	bff9999a 	.word	0xbff9999a
 8009ca4:	3ff9999a 	.word	0x3ff9999a
 8009ca8:	408947ae 	.word	0x408947ae
 8009cac:	4084cccd 	.word	0x4084cccd

08009cb0 <softClipTwo>:
softClipTwo():
 8009cb0:	eef6 7a00 	vmov.f32	s15, #96	; 0x60
 8009cb4:	ee60 7a27 	vmul.f32	s15, s0, s15
 8009cb8:	ed9f 6a0c 	vldr	s12, [pc, #48]	; 8009cec <softClipTwo+0x3c>
 8009cbc:	eddf 6a0c 	vldr	s13, [pc, #48]	; 8009cf0 <softClipTwo+0x40>
 8009cc0:	ed9f 7a0c 	vldr	s14, [pc, #48]	; 8009cf4 <softClipTwo+0x44>
 8009cc4:	ee67 7aa7 	vmul.f32	s15, s15, s15
 8009cc8:	eef2 5a0e 	vmov.f32	s11, #46	; 0x2e
 8009ccc:	eea7 6aa5 	vfma.f32	s12, s15, s11
 8009cd0:	ee77 6aa6 	vadd.f32	s13, s15, s13
 8009cd4:	eef0 5a47 	vmov.f32	s11, s14
 8009cd8:	eee7 5a86 	vfma.f32	s11, s15, s12
 8009cdc:	eea7 7aa6 	vfma.f32	s14, s15, s13
 8009ce0:	ee87 7a25 	vdiv.f32	s14, s14, s11
 8009ce4:	ee20 0a07 	vmul.f32	s0, s0, s14
 8009ce8:	4770      	bx	lr
 8009cea:	bf00      	nop
 8009cec:	43d20000 	.word	0x43d20000
 8009cf0:	42d20000 	.word	0x42d20000
 8009cf4:	446c4000 	.word	0x446c4000

08009cf8 <fastTan>:
fastTan():
 8009cf8:	ee20 7a00 	vmul.f32	s14, s0, s0
 8009cfc:	ee70 6a00 	vadd.f32	s13, s0, s0
 8009d00:	ee27 7a00 	vmul.f32	s14, s14, s0
 8009d04:	eef9 7a04 	vmov.f32	s15, #148	; 0x94
 8009d08:	eee6 7a80 	vfma.f32	s15, s13, s0
 8009d0c:	eefa 6a0e 	vmov.f32	s13, #174	; 0xae
 8009d10:	eea0 7a26 	vfma.f32	s14, s0, s13
 8009d14:	eeb0 0a47 	vmov.f32	s0, s14
 8009d18:	eeb0 7a08 	vmov.f32	s14, #8
 8009d1c:	ee67 7a87 	vmul.f32	s15, s15, s14
 8009d20:	ee80 0a27 	vdiv.f32	s0, s0, s15
 8009d24:	4770      	bx	lr
 8009d26:	bf00      	nop

08009d28 <osc_init>:
osc_init():
 8009d28:	2300      	movs	r3, #0
 8009d2a:	f04f 527e 	mov.w	r2, #1065353216	; 0x3f800000
 8009d2e:	ed80 0a00 	vstr	s0, [r0]
 8009d32:	ed80 0a01 	vstr	s0, [r0, #4]
 8009d36:	edc0 0a02 	vstr	s1, [r0, #8]
 8009d3a:	6182      	str	r2, [r0, #24]
 8009d3c:	60c3      	str	r3, [r0, #12]
 8009d3e:	61c3      	str	r3, [r0, #28]
 8009d40:	6143      	str	r3, [r0, #20]
 8009d42:	4770      	bx	lr

08009d44 <Drifter_centralFreq_set>:
Drifter_centralFreq_set():
 8009d44:	b508      	push	{r3, lr}
 8009d46:	eeb7 0a00 	vmov.f32	s0, #112	; 0x70
 8009d4a:	eddf 0a04 	vldr	s1, [pc, #16]	; 8009d5c <Drifter_centralFreq_set+0x18>
 8009d4e:	f7ff ff51 	bl	8009bf4 <Lin2Exp>
 8009d52:	4b03      	ldr	r3, [pc, #12]	; (8009d60 <Drifter_centralFreq_set+0x1c>)
 8009d54:	ed83 0a00 	vstr	s0, [r3]
 8009d58:	bd08      	pop	{r3, pc}
 8009d5a:	bf00      	nop
 8009d5c:	45bb8000 	.word	0x45bb8000
 8009d60:	2000007c 	.word	0x2000007c

08009d64 <Drifters_sampleCompute>:
Drifters_sampleCompute():
 8009d64:	b538      	push	{r3, r4, r5, lr}
 8009d66:	48cd      	ldr	r0, [pc, #820]	; (800a09c <Drifters_sampleCompute+0x338>)
 8009d68:	4dcd      	ldr	r5, [pc, #820]	; (800a0a0 <Drifters_sampleCompute+0x33c>)
 8009d6a:	4cce      	ldr	r4, [pc, #824]	; (800a0a4 <Drifters_sampleCompute+0x340>)
 8009d6c:	ed2d 8b02 	vpush	{d8}
 8009d70:	f7ff fcfa 	bl	8009768 <drifter_nextSample>
 8009d74:	eeb7 8a00 	vmov.f32	s16, #112	; 0x70
 8009d78:	edd5 7a00 	vldr	s15, [r5]
 8009d7c:	48ca      	ldr	r0, [pc, #808]	; (800a0a8 <Drifters_sampleCompute+0x344>)
 8009d7e:	eef3 8a09 	vmov.f32	s17, #57	; 0x39
 8009d82:	ee30 0a08 	vadd.f32	s0, s0, s16
 8009d86:	eeb0 7a68 	vmov.f32	s14, s17
 8009d8a:	eea0 7a27 	vfma.f32	s14, s0, s15
 8009d8e:	ed84 7a02 	vstr	s14, [r4, #8]
 8009d92:	f7ff fce9 	bl	8009768 <drifter_nextSample>
 8009d96:	edd5 7a00 	vldr	s15, [r5]
 8009d9a:	48c4      	ldr	r0, [pc, #784]	; (800a0ac <Drifters_sampleCompute+0x348>)
 8009d9c:	ee30 0a08 	vadd.f32	s0, s0, s16
 8009da0:	eeb0 7a68 	vmov.f32	s14, s17
 8009da4:	eea0 7a27 	vfma.f32	s14, s0, s15
 8009da8:	ed84 7a0a 	vstr	s14, [r4, #40]	; 0x28
 8009dac:	f7ff fcdc 	bl	8009768 <drifter_nextSample>
 8009db0:	edd5 7a00 	vldr	s15, [r5]
 8009db4:	ed94 7a03 	vldr	s14, [r4, #12]
 8009db8:	ee30 0a08 	vadd.f32	s0, s0, s16
 8009dbc:	eeb0 5a68 	vmov.f32	s10, s17
 8009dc0:	eea0 5a27 	vfma.f32	s10, s0, s15
 8009dc4:	eeb5 7ac0 	vcmpe.f32	s14, #0.0
 8009dc8:	eef1 fa10 	vmrs	APSR_nzcv, fpscr
 8009dcc:	ed84 5a12 	vstr	s10, [r4, #72]	; 0x48
 8009dd0:	d508      	bpl.n	8009de4 <Drifters_sampleCompute+0x80>
 8009dd2:	eddf 7ab7 	vldr	s15, [pc, #732]	; 800a0b0 <Drifters_sampleCompute+0x34c>
 8009dd6:	ee37 7a27 	vadd.f32	s14, s14, s15
 8009dda:	eeb5 7ac0 	vcmpe.f32	s14, #0.0
 8009dde:	eef1 fa10 	vmrs	APSR_nzcv, fpscr
 8009de2:	d4f8      	bmi.n	8009dd6 <Drifters_sampleCompute+0x72>
 8009de4:	eddf 6ab2 	vldr	s13, [pc, #712]	; 800a0b0 <Drifters_sampleCompute+0x34c>
 8009de8:	eeb4 7ae6 	vcmpe.f32	s14, s13
 8009dec:	eef1 fa10 	vmrs	APSR_nzcv, fpscr
 8009df0:	eef0 7a47 	vmov.f32	s15, s14
 8009df4:	db08      	blt.n	8009e08 <Drifters_sampleCompute+0xa4>
 8009df6:	eeb0 7a66 	vmov.f32	s14, s13
 8009dfa:	ee77 7ac7 	vsub.f32	s15, s15, s14
 8009dfe:	eef4 7ac7 	vcmpe.f32	s15, s14
 8009e02:	eef1 fa10 	vmrs	APSR_nzcv, fpscr
 8009e06:	daf8      	bge.n	8009dfa <Drifters_sampleCompute+0x96>
 8009e08:	edd4 5a02 	vldr	s11, [r4, #8]
 8009e0c:	ed9f 7aa9 	vldr	s14, [pc, #676]	; 800a0b4 <Drifters_sampleCompute+0x350>
 8009e10:	4ba4      	ldr	r3, [pc, #656]	; (800a0a4 <Drifters_sampleCompute+0x340>)
 8009e12:	eef4 5ac7 	vcmpe.f32	s11, s14
 8009e16:	eef1 fa10 	vmrs	APSR_nzcv, fpscr
 8009e1a:	f140 8127 	bpl.w	800a06c <Drifters_sampleCompute+0x308>
 8009e1e:	ed9f 7aa6 	vldr	s14, [pc, #664]	; 800a0b8 <Drifters_sampleCompute+0x354>
 8009e22:	eddf 6aa6 	vldr	s13, [pc, #664]	; 800a0bc <Drifters_sampleCompute+0x358>
 8009e26:	ee25 7a87 	vmul.f32	s14, s11, s14
 8009e2a:	eeb4 7ae6 	vcmpe.f32	s14, s13
 8009e2e:	eef1 fa10 	vmrs	APSR_nzcv, fpscr
 8009e32:	f200 811d 	bhi.w	800a070 <Drifters_sampleCompute+0x30c>
 8009e36:	eeb0 7a66 	vmov.f32	s14, s13
 8009e3a:	eef4 7ac7 	vcmpe.f32	s15, s14
 8009e3e:	eef1 fa10 	vmrs	APSR_nzcv, fpscr
 8009e42:	edc3 6a04 	vstr	s13, [r3, #16]
 8009e46:	f100 811b 	bmi.w	800a080 <Drifters_sampleCompute+0x31c>
 8009e4a:	eddf 6a9d 	vldr	s13, [pc, #628]	; 800a0c0 <Drifters_sampleCompute+0x35c>
 8009e4e:	eddf 4a98 	vldr	s9, [pc, #608]	; 800a0b0 <Drifters_sampleCompute+0x34c>
 8009e52:	ed94 6a00 	vldr	s12, [r4]
 8009e56:	eeb0 4a00 	vmov.f32	s8, #0
 8009e5a:	eee7 6a84 	vfma.f32	s13, s15, s8
 8009e5e:	ee74 4ac7 	vsub.f32	s9, s9, s14
 8009e62:	ee36 7ac7 	vsub.f32	s14, s13, s14
 8009e66:	ee27 7a06 	vmul.f32	s14, s14, s12
 8009e6a:	ee87 6a24 	vdiv.f32	s12, s14, s9
 8009e6e:	eddf 6a95 	vldr	s13, [pc, #596]	; 800a0c4 <Drifters_sampleCompute+0x360>
 8009e72:	ed94 7a0b 	vldr	s14, [r4, #44]	; 0x2c
 8009e76:	ed84 6a07 	vstr	s12, [r4, #28]
 8009e7a:	eee5 7aa6 	vfma.f32	s15, s11, s13
 8009e7e:	eeb5 7ac0 	vcmpe.f32	s14, #0.0
 8009e82:	eef1 fa10 	vmrs	APSR_nzcv, fpscr
 8009e86:	edc4 7a03 	vstr	s15, [r4, #12]
 8009e8a:	d508      	bpl.n	8009e9e <Drifters_sampleCompute+0x13a>
 8009e8c:	eddf 7a88 	vldr	s15, [pc, #544]	; 800a0b0 <Drifters_sampleCompute+0x34c>
 8009e90:	ee37 7a27 	vadd.f32	s14, s14, s15
 8009e94:	eeb5 7ac0 	vcmpe.f32	s14, #0.0
 8009e98:	eef1 fa10 	vmrs	APSR_nzcv, fpscr
 8009e9c:	d4f8      	bmi.n	8009e90 <Drifters_sampleCompute+0x12c>
 8009e9e:	eddf 6a84 	vldr	s13, [pc, #528]	; 800a0b0 <Drifters_sampleCompute+0x34c>
 8009ea2:	eeb4 7ae6 	vcmpe.f32	s14, s13
 8009ea6:	eef1 fa10 	vmrs	APSR_nzcv, fpscr
 8009eaa:	eef0 7a47 	vmov.f32	s15, s14
 8009eae:	db08      	blt.n	8009ec2 <Drifters_sampleCompute+0x15e>
 8009eb0:	eeb0 7a66 	vmov.f32	s14, s13
 8009eb4:	ee77 7ac7 	vsub.f32	s15, s15, s14
 8009eb8:	eef4 7ac7 	vcmpe.f32	s15, s14
 8009ebc:	eef1 fa10 	vmrs	APSR_nzcv, fpscr
 8009ec0:	daf8      	bge.n	8009eb4 <Drifters_sampleCompute+0x150>
 8009ec2:	ed94 4a0a 	vldr	s8, [r4, #40]	; 0x28
 8009ec6:	ed9f 7a7b 	vldr	s14, [pc, #492]	; 800a0b4 <Drifters_sampleCompute+0x350>
 8009eca:	4b76      	ldr	r3, [pc, #472]	; (800a0a4 <Drifters_sampleCompute+0x340>)
 8009ecc:	eeb4 4ac7 	vcmpe.f32	s8, s14
 8009ed0:	eef1 fa10 	vmrs	APSR_nzcv, fpscr
 8009ed4:	f140 8097 	bpl.w	800a006 <Drifters_sampleCompute+0x2a2>
 8009ed8:	ed9f 7a77 	vldr	s14, [pc, #476]	; 800a0b8 <Drifters_sampleCompute+0x354>
 8009edc:	eddf 6a77 	vldr	s13, [pc, #476]	; 800a0bc <Drifters_sampleCompute+0x358>
 8009ee0:	ee64 4a07 	vmul.f32	s9, s8, s14
 8009ee4:	eef4 4ae6 	vcmpe.f32	s9, s13
 8009ee8:	eef1 fa10 	vmrs	APSR_nzcv, fpscr
 8009eec:	bf98      	it	ls
 8009eee:	eef0 4a66 	vmovls.f32	s9, s13
 8009ef2:	eef4 7ae4 	vcmpe.f32	s15, s9
 8009ef6:	bf8c      	ite	hi
 8009ef8:	edc3 4a0c 	vstrhi	s9, [r3, #48]	; 0x30
 8009efc:	edc3 6a0c 	vstrls	s13, [r3, #48]	; 0x30
 8009f00:	eef1 fa10 	vmrs	APSR_nzcv, fpscr
 8009f04:	f100 808b 	bmi.w	800a01e <Drifters_sampleCompute+0x2ba>
 8009f08:	ed9f 7a6d 	vldr	s14, [pc, #436]	; 800a0c0 <Drifters_sampleCompute+0x35c>
 8009f0c:	edd4 6a08 	vldr	s13, [r4, #32]
 8009f10:	eddf 3a67 	vldr	s7, [pc, #412]	; 800a0b0 <Drifters_sampleCompute+0x34c>
 8009f14:	eef0 5a00 	vmov.f32	s11, #0
 8009f18:	eea7 7aa5 	vfma.f32	s14, s15, s11
 8009f1c:	ee73 3ae4 	vsub.f32	s7, s7, s9
 8009f20:	ee37 7a64 	vsub.f32	s14, s14, s9
 8009f24:	ee27 7a26 	vmul.f32	s14, s14, s13
 8009f28:	eec7 6a23 	vdiv.f32	s13, s14, s7
 8009f2c:	eddf 5a65 	vldr	s11, [pc, #404]	; 800a0c4 <Drifters_sampleCompute+0x360>
 8009f30:	ed94 7a13 	vldr	s14, [r4, #76]	; 0x4c
 8009f34:	edc4 6a0f 	vstr	s13, [r4, #60]	; 0x3c
 8009f38:	eee4 7a25 	vfma.f32	s15, s8, s11
 8009f3c:	eeb5 7ac0 	vcmpe.f32	s14, #0.0
 8009f40:	eef1 fa10 	vmrs	APSR_nzcv, fpscr
 8009f44:	ee36 6a26 	vadd.f32	s12, s12, s13
 8009f48:	edc4 7a0b 	vstr	s15, [r4, #44]	; 0x2c
 8009f4c:	d508      	bpl.n	8009f60 <Drifters_sampleCompute+0x1fc>
 8009f4e:	eddf 7a58 	vldr	s15, [pc, #352]	; 800a0b0 <Drifters_sampleCompute+0x34c>
 8009f52:	ee37 7a27 	vadd.f32	s14, s14, s15
 8009f56:	eeb5 7ac0 	vcmpe.f32	s14, #0.0
 8009f5a:	eef1 fa10 	vmrs	APSR_nzcv, fpscr
 8009f5e:	d4f8      	bmi.n	8009f52 <Drifters_sampleCompute+0x1ee>
 8009f60:	eddf 6a53 	vldr	s13, [pc, #332]	; 800a0b0 <Drifters_sampleCompute+0x34c>
 8009f64:	eeb4 7ae6 	vcmpe.f32	s14, s13
 8009f68:	eef1 fa10 	vmrs	APSR_nzcv, fpscr
 8009f6c:	eef0 7a47 	vmov.f32	s15, s14
 8009f70:	db08      	blt.n	8009f84 <Drifters_sampleCompute+0x220>
 8009f72:	eeb0 7a66 	vmov.f32	s14, s13
 8009f76:	ee77 7ac7 	vsub.f32	s15, s15, s14
 8009f7a:	eef4 7ac7 	vcmpe.f32	s15, s14
 8009f7e:	eef1 fa10 	vmrs	APSR_nzcv, fpscr
 8009f82:	daf8      	bge.n	8009f76 <Drifters_sampleCompute+0x212>
 8009f84:	ed9f 7a4b 	vldr	s14, [pc, #300]	; 800a0b4 <Drifters_sampleCompute+0x350>
 8009f88:	eeb4 5ac7 	vcmpe.f32	s10, s14
 8009f8c:	eef1 fa10 	vmrs	APSR_nzcv, fpscr
 8009f90:	d552      	bpl.n	800a038 <Drifters_sampleCompute+0x2d4>
 8009f92:	eddf 6a49 	vldr	s13, [pc, #292]	; 800a0b8 <Drifters_sampleCompute+0x354>
 8009f96:	ed9f 7a49 	vldr	s14, [pc, #292]	; 800a0bc <Drifters_sampleCompute+0x358>
 8009f9a:	ee65 4a26 	vmul.f32	s9, s10, s13
 8009f9e:	eef4 4ac7 	vcmpe.f32	s9, s14
 8009fa2:	eef1 fa10 	vmrs	APSR_nzcv, fpscr
 8009fa6:	bf98      	it	ls
 8009fa8:	eef0 4a47 	vmovls.f32	s9, s14
 8009fac:	eef4 7ae4 	vcmpe.f32	s15, s9
 8009fb0:	bf8c      	ite	hi
 8009fb2:	edc4 4a14 	vstrhi	s9, [r4, #80]	; 0x50
 8009fb6:	ed84 7a14 	vstrls	s14, [r4, #80]	; 0x50
 8009fba:	eef1 fa10 	vmrs	APSR_nzcv, fpscr
 8009fbe:	d446      	bmi.n	800a04e <Drifters_sampleCompute+0x2ea>
 8009fc0:	eddf 6a3f 	vldr	s13, [pc, #252]	; 800a0c0 <Drifters_sampleCompute+0x35c>
 8009fc4:	ed94 7a10 	vldr	s14, [r4, #64]	; 0x40
 8009fc8:	ed9f 4a39 	vldr	s8, [pc, #228]	; 800a0b0 <Drifters_sampleCompute+0x34c>
 8009fcc:	eef0 5a00 	vmov.f32	s11, #0
 8009fd0:	eee7 6aa5 	vfma.f32	s13, s15, s11
 8009fd4:	ee34 4a64 	vsub.f32	s8, s8, s9
 8009fd8:	ee76 6ae4 	vsub.f32	s13, s13, s9
 8009fdc:	ee66 6a87 	vmul.f32	s13, s13, s14
 8009fe0:	ee86 7a84 	vdiv.f32	s14, s13, s8
 8009fe4:	ecbd 8b02 	vpop	{d8}
 8009fe8:	eddf 6a36 	vldr	s13, [pc, #216]	; 800a0c4 <Drifters_sampleCompute+0x360>
 8009fec:	ed9f 0a36 	vldr	s0, [pc, #216]	; 800a0c8 <Drifters_sampleCompute+0x364>
 8009ff0:	ed84 7a17 	vstr	s14, [r4, #92]	; 0x5c
 8009ff4:	eee5 7a26 	vfma.f32	s15, s10, s13
 8009ff8:	ee36 6a07 	vadd.f32	s12, s12, s14
 8009ffc:	edc4 7a13 	vstr	s15, [r4, #76]	; 0x4c
 800a000:	ee26 0a00 	vmul.f32	s0, s12, s0
 800a004:	bd38      	pop	{r3, r4, r5, pc}
 800a006:	ed9f 7a31 	vldr	s14, [pc, #196]	; 800a0cc <Drifters_sampleCompute+0x368>
 800a00a:	eef0 4a47 	vmov.f32	s9, s14
 800a00e:	eef4 7ae4 	vcmpe.f32	s15, s9
 800a012:	eef1 fa10 	vmrs	APSR_nzcv, fpscr
 800a016:	ed83 7a0c 	vstr	s14, [r3, #48]	; 0x30
 800a01a:	f57f af75 	bpl.w	8009f08 <Drifters_sampleCompute+0x1a4>
 800a01e:	eeb8 7a00 	vmov.f32	s14, #128	; 0x80
 800a022:	ee87 7a24 	vdiv.f32	s14, s14, s9
 800a026:	eef7 6a00 	vmov.f32	s13, #112	; 0x70
 800a02a:	eee7 6a87 	vfma.f32	s13, s15, s14
 800a02e:	ed94 7a08 	vldr	s14, [r4, #32]
 800a032:	ee66 6a87 	vmul.f32	s13, s13, s14
 800a036:	e779      	b.n	8009f2c <Drifters_sampleCompute+0x1c8>
 800a038:	eddf 6a24 	vldr	s13, [pc, #144]	; 800a0cc <Drifters_sampleCompute+0x368>
 800a03c:	eef0 4a66 	vmov.f32	s9, s13
 800a040:	eef4 7ae4 	vcmpe.f32	s15, s9
 800a044:	eef1 fa10 	vmrs	APSR_nzcv, fpscr
 800a048:	edc4 6a14 	vstr	s13, [r4, #80]	; 0x50
 800a04c:	d5b8      	bpl.n	8009fc0 <Drifters_sampleCompute+0x25c>
 800a04e:	eef8 6a00 	vmov.f32	s13, #128	; 0x80
 800a052:	eec6 6aa4 	vdiv.f32	s13, s13, s9
 800a056:	eeb7 7a00 	vmov.f32	s14, #112	; 0x70
 800a05a:	eea6 7aa7 	vfma.f32	s14, s13, s15
 800a05e:	eef0 6a47 	vmov.f32	s13, s14
 800a062:	ed94 7a10 	vldr	s14, [r4, #64]	; 0x40
 800a066:	ee26 7a87 	vmul.f32	s14, s13, s14
 800a06a:	e7bb      	b.n	8009fe4 <Drifters_sampleCompute+0x280>
 800a06c:	ed9f 7a17 	vldr	s14, [pc, #92]	; 800a0cc <Drifters_sampleCompute+0x368>
 800a070:	ed83 7a04 	vstr	s14, [r3, #16]
 800a074:	eef4 7ac7 	vcmpe.f32	s15, s14
 800a078:	eef1 fa10 	vmrs	APSR_nzcv, fpscr
 800a07c:	f57f aee5 	bpl.w	8009e4a <Drifters_sampleCompute+0xe6>
 800a080:	eef8 6a00 	vmov.f32	s13, #128	; 0x80
 800a084:	ee86 7a87 	vdiv.f32	s14, s13, s14
 800a088:	eeb7 6a00 	vmov.f32	s12, #112	; 0x70
 800a08c:	eea7 6a87 	vfma.f32	s12, s15, s14
 800a090:	ed94 7a00 	vldr	s14, [r4]
 800a094:	ee26 6a07 	vmul.f32	s12, s12, s14
 800a098:	e6e9      	b.n	8009e6e <Drifters_sampleCompute+0x10a>
 800a09a:	bf00      	nop
 800a09c:	10003c90 	.word	0x10003c90
 800a0a0:	2000007c 	.word	0x2000007c
 800a0a4:	10003cbc 	.word	0x10003cbc
 800a0a8:	10003c64 	.word	0x10003c64
 800a0ac:	10003c38 	.word	0x10003c38
 800a0b0:	40c90fdb 	.word	0x40c90fdb
 800a0b4:	45fa0000 	.word	0x45fa0000
 800a0b8:	39cde32e 	.word	0x39cde32e
 800a0bc:	38d1b717 	.word	0x38d1b717
 800a0c0:	c0c90fdb 	.word	0xc0c90fdb
 800a0c4:	3909421f 	.word	0x3909421f
 800a0c8:	3ea8f5c3 	.word	0x3ea8f5c3
 800a0cc:	40490fdb 	.word	0x40490fdb

0800a0d0 <FM_op_freq_set>:
FM_op_freq_set():
 800a0d0:	b510      	push	{r4, lr}
 800a0d2:	eeb6 0a00 	vmov.f32	s0, #96	; 0x60
 800a0d6:	4604      	mov	r4, r0
 800a0d8:	eddf 0a03 	vldr	s1, [pc, #12]	; 800a0e8 <FM_op_freq_set+0x18>
 800a0dc:	4608      	mov	r0, r1
 800a0de:	f7ff fd89 	bl	8009bf4 <Lin2Exp>
 800a0e2:	ed84 0a02 	vstr	s0, [r4, #8]
 800a0e6:	bd10      	pop	{r4, pc}
 800a0e8:	45fa0000 	.word	0x45fa0000

0800a0ec <FM_op_modInd_set>:
FM_op_modInd_set():
 800a0ec:	ee07 1a90 	vmov	s15, r1
 800a0f0:	eeb8 7ae7 	vcvt.f32.s32	s14, s15
 800a0f4:	eddf 7a06 	vldr	s15, [pc, #24]	; 800a110 <FM_op_modInd_set+0x24>
 800a0f8:	eddf 6a06 	vldr	s13, [pc, #24]	; 800a114 <FM_op_modInd_set+0x28>
 800a0fc:	ee67 7a27 	vmul.f32	s15, s14, s15
 800a100:	eec7 7aa6 	vdiv.f32	s15, s15, s13
 800a104:	ee67 7aa7 	vmul.f32	s15, s15, s15
 800a108:	edc0 7a05 	vstr	s15, [r0, #20]
 800a10c:	4770      	bx	lr
 800a10e:	bf00      	nop
 800a110:	3fb33333 	.word	0x3fb33333
 800a114:	42fe0000 	.word	0x42fe0000

0800a118 <FM2_sampleCompute>:
FM2_sampleCompute():
 800a118:	b538      	push	{r3, r4, r5, lr}
 800a11a:	4c96      	ldr	r4, [pc, #600]	; (800a374 <FM2_sampleCompute+0x25c>)
 800a11c:	eddf 4a96 	vldr	s9, [pc, #600]	; 800a378 <FM2_sampleCompute+0x260>
 800a120:	edd4 6a0e 	vldr	s13, [r4, #56]	; 0x38
 800a124:	ed94 7a0d 	vldr	s14, [r4, #52]	; 0x34
 800a128:	ed9f 5a94 	vldr	s10, [pc, #592]	; 800a37c <FM2_sampleCompute+0x264>
 800a12c:	edd4 7a0b 	vldr	s15, [r4, #44]	; 0x2c
 800a130:	edd4 5a16 	vldr	s11, [r4, #88]	; 0x58
 800a134:	ed94 6a1e 	vldr	s12, [r4, #120]	; 0x78
 800a138:	ed84 0a02 	vstr	s0, [r4, #8]
 800a13c:	ee60 6a26 	vmul.f32	s13, s0, s13
 800a140:	ee27 7a24 	vmul.f32	s14, s14, s9
 800a144:	ee65 5a80 	vmul.f32	s11, s11, s0
 800a148:	eea6 7a85 	vfma.f32	s14, s13, s10
 800a14c:	ee26 6a00 	vmul.f32	s12, s12, s0
 800a150:	ee77 7a27 	vadd.f32	s15, s14, s15
 800a154:	ed2d 8b02 	vpush	{d8}
 800a158:	eef4 7ae4 	vcmpe.f32	s15, s9
 800a15c:	eef1 fa10 	vmrs	APSR_nzcv, fpscr
 800a160:	edc4 5a12 	vstr	s11, [r4, #72]	; 0x48
 800a164:	ed84 6a1a 	vstr	s12, [r4, #104]	; 0x68
 800a168:	edc4 6a0a 	vstr	s13, [r4, #40]	; 0x28
 800a16c:	edc4 7a0b 	vstr	s15, [r4, #44]	; 0x2c
 800a170:	d50a      	bpl.n	800a188 <FM2_sampleCompute+0x70>
 800a172:	ed9f 7a83 	vldr	s14, [pc, #524]	; 800a380 <FM2_sampleCompute+0x268>
 800a176:	ee77 7a87 	vadd.f32	s15, s15, s14
 800a17a:	eef5 7ac0 	vcmpe.f32	s15, #0.0
 800a17e:	eef1 fa10 	vmrs	APSR_nzcv, fpscr
 800a182:	d4f8      	bmi.n	800a176 <FM2_sampleCompute+0x5e>
 800a184:	edc4 7a0b 	vstr	s15, [r4, #44]	; 0x2c
 800a188:	ed9f 7a7d 	vldr	s14, [pc, #500]	; 800a380 <FM2_sampleCompute+0x268>
 800a18c:	eef4 7ac7 	vcmpe.f32	s15, s14
 800a190:	eef1 fa10 	vmrs	APSR_nzcv, fpscr
 800a194:	db08      	blt.n	800a1a8 <FM2_sampleCompute+0x90>
 800a196:	ee77 7ac7 	vsub.f32	s15, s15, s14
 800a19a:	eef4 7ac7 	vcmpe.f32	s15, s14
 800a19e:	eef1 fa10 	vmrs	APSR_nzcv, fpscr
 800a1a2:	daf8      	bge.n	800a196 <FM2_sampleCompute+0x7e>
 800a1a4:	edc4 7a0b 	vstr	s15, [r4, #44]	; 0x2c
 800a1a8:	ed9f 0a76 	vldr	s0, [pc, #472]	; 800a384 <FM2_sampleCompute+0x26c>
 800a1ac:	ed94 8a08 	vldr	s16, [r4, #32]
 800a1b0:	4d75      	ldr	r5, [pc, #468]	; (800a388 <FM2_sampleCompute+0x270>)
 800a1b2:	ee27 0a80 	vmul.f32	s0, s15, s0
 800a1b6:	f002 fcd5 	bl	800cb64 <lrintf>
 800a1ba:	eb05 0080 	add.w	r0, r5, r0, lsl #2
 800a1be:	ed90 7a00 	vldr	s14, [r0]
 800a1c2:	edd4 7a05 	vldr	s15, [r4, #20]
 800a1c6:	ed94 6a02 	vldr	s12, [r4, #8]
 800a1ca:	eddf 6a6c 	vldr	s13, [pc, #432]	; 800a37c <FM2_sampleCompute+0x264>
 800a1ce:	ed94 0a03 	vldr	s0, [r4, #12]
 800a1d2:	ee28 7a07 	vmul.f32	s14, s16, s14
 800a1d6:	ee67 7a27 	vmul.f32	s15, s14, s15
 800a1da:	ed84 7a0f 	vstr	s14, [r4, #60]	; 0x3c
 800a1de:	eee6 7a26 	vfma.f32	s15, s12, s13
 800a1e2:	ee77 7a80 	vadd.f32	s15, s15, s0
 800a1e6:	eef5 7ac0 	vcmpe.f32	s15, #0.0
 800a1ea:	eef1 fa10 	vmrs	APSR_nzcv, fpscr
 800a1ee:	edc4 7a03 	vstr	s15, [r4, #12]
 800a1f2:	d50a      	bpl.n	800a20a <FM2_sampleCompute+0xf2>
 800a1f4:	ed9f 7a62 	vldr	s14, [pc, #392]	; 800a380 <FM2_sampleCompute+0x268>
 800a1f8:	ee77 7a87 	vadd.f32	s15, s15, s14
 800a1fc:	eef5 7ac0 	vcmpe.f32	s15, #0.0
 800a200:	eef1 fa10 	vmrs	APSR_nzcv, fpscr
 800a204:	d4f8      	bmi.n	800a1f8 <FM2_sampleCompute+0xe0>
 800a206:	edc4 7a03 	vstr	s15, [r4, #12]
 800a20a:	ed9f 7a5d 	vldr	s14, [pc, #372]	; 800a380 <FM2_sampleCompute+0x268>
 800a20e:	eef4 7ac7 	vcmpe.f32	s15, s14
 800a212:	eef1 fa10 	vmrs	APSR_nzcv, fpscr
 800a216:	db08      	blt.n	800a22a <FM2_sampleCompute+0x112>
 800a218:	ee77 7ac7 	vsub.f32	s15, s15, s14
 800a21c:	eef4 7ac7 	vcmpe.f32	s15, s14
 800a220:	eef1 fa10 	vmrs	APSR_nzcv, fpscr
 800a224:	daf8      	bge.n	800a218 <FM2_sampleCompute+0x100>
 800a226:	edc4 7a03 	vstr	s15, [r4, #12]
 800a22a:	ed9f 0a56 	vldr	s0, [pc, #344]	; 800a384 <FM2_sampleCompute+0x26c>
 800a22e:	ed94 8a00 	vldr	s16, [r4]
 800a232:	ee27 0a80 	vmul.f32	s0, s15, s0
 800a236:	f002 fc95 	bl	800cb64 <lrintf>
 800a23a:	ed94 7a1d 	vldr	s14, [r4, #116]	; 0x74
 800a23e:	eddf 7a4e 	vldr	s15, [pc, #312]	; 800a378 <FM2_sampleCompute+0x260>
 800a242:	edd4 5a1a 	vldr	s11, [r4, #104]	; 0x68
 800a246:	ed9f 6a4d 	vldr	s12, [pc, #308]	; 800a37c <FM2_sampleCompute+0x264>
 800a24a:	edd4 6a1b 	vldr	s13, [r4, #108]	; 0x6c
 800a24e:	ee67 7a27 	vmul.f32	s15, s14, s15
 800a252:	eb05 0080 	add.w	r0, r5, r0, lsl #2
 800a256:	eee5 7a86 	vfma.f32	s15, s11, s12
 800a25a:	ed90 7a00 	vldr	s14, [r0]
 800a25e:	ee77 7aa6 	vadd.f32	s15, s15, s13
 800a262:	ee28 8a07 	vmul.f32	s16, s16, s14
 800a266:	eef5 7ac0 	vcmpe.f32	s15, #0.0
 800a26a:	eef1 fa10 	vmrs	APSR_nzcv, fpscr
 800a26e:	edc4 7a1b 	vstr	s15, [r4, #108]	; 0x6c
 800a272:	ed84 8a07 	vstr	s16, [r4, #28]
 800a276:	d579      	bpl.n	800a36c <FM2_sampleCompute+0x254>
 800a278:	ed9f 7a41 	vldr	s14, [pc, #260]	; 800a380 <FM2_sampleCompute+0x268>
 800a27c:	ee77 7a87 	vadd.f32	s15, s15, s14
 800a280:	eef5 7ac0 	vcmpe.f32	s15, #0.0
 800a284:	eef1 fa10 	vmrs	APSR_nzcv, fpscr
 800a288:	d4f8      	bmi.n	800a27c <FM2_sampleCompute+0x164>
 800a28a:	edc4 7a1b 	vstr	s15, [r4, #108]	; 0x6c
 800a28e:	eeb0 7a67 	vmov.f32	s14, s15
 800a292:	eddf 6a3b 	vldr	s13, [pc, #236]	; 800a380 <FM2_sampleCompute+0x268>
 800a296:	eef4 7ae6 	vcmpe.f32	s15, s13
 800a29a:	eef1 fa10 	vmrs	APSR_nzcv, fpscr
 800a29e:	db0a      	blt.n	800a2b6 <FM2_sampleCompute+0x19e>
 800a2a0:	eef0 7a66 	vmov.f32	s15, s13
 800a2a4:	ee37 7a67 	vsub.f32	s14, s14, s15
 800a2a8:	eeb4 7ae7 	vcmpe.f32	s14, s15
 800a2ac:	eef1 fa10 	vmrs	APSR_nzcv, fpscr
 800a2b0:	daf8      	bge.n	800a2a4 <FM2_sampleCompute+0x18c>
 800a2b2:	ed84 7a1b 	vstr	s14, [r4, #108]	; 0x6c
 800a2b6:	ed9f 0a33 	vldr	s0, [pc, #204]	; 800a384 <FM2_sampleCompute+0x26c>
 800a2ba:	ed94 8a18 	vldr	s16, [r4, #96]	; 0x60
 800a2be:	ee27 0a00 	vmul.f32	s0, s14, s0
 800a2c2:	f002 fc4f 	bl	800cb64 <lrintf>
 800a2c6:	eb05 0080 	add.w	r0, r5, r0, lsl #2
 800a2ca:	ed90 7a00 	vldr	s14, [r0]
 800a2ce:	edd4 7a15 	vldr	s15, [r4, #84]	; 0x54
 800a2d2:	ed94 6a12 	vldr	s12, [r4, #72]	; 0x48
 800a2d6:	eddf 6a29 	vldr	s13, [pc, #164]	; 800a37c <FM2_sampleCompute+0x264>
 800a2da:	ed94 0a13 	vldr	s0, [r4, #76]	; 0x4c
 800a2de:	ee28 7a07 	vmul.f32	s14, s16, s14
 800a2e2:	ee67 7a27 	vmul.f32	s15, s14, s15
 800a2e6:	ed84 7a1f 	vstr	s14, [r4, #124]	; 0x7c
 800a2ea:	eee6 7a26 	vfma.f32	s15, s12, s13
 800a2ee:	ee77 7a80 	vadd.f32	s15, s15, s0
 800a2f2:	eef5 7ac0 	vcmpe.f32	s15, #0.0
 800a2f6:	eef1 fa10 	vmrs	APSR_nzcv, fpscr
 800a2fa:	edc4 7a13 	vstr	s15, [r4, #76]	; 0x4c
 800a2fe:	d50a      	bpl.n	800a316 <FM2_sampleCompute+0x1fe>
 800a300:	ed9f 7a1f 	vldr	s14, [pc, #124]	; 800a380 <FM2_sampleCompute+0x268>
 800a304:	ee77 7a87 	vadd.f32	s15, s15, s14
 800a308:	eef5 7ac0 	vcmpe.f32	s15, #0.0
 800a30c:	eef1 fa10 	vmrs	APSR_nzcv, fpscr
 800a310:	d4f8      	bmi.n	800a304 <FM2_sampleCompute+0x1ec>
 800a312:	edc4 7a13 	vstr	s15, [r4, #76]	; 0x4c
 800a316:	ed9f 7a1a 	vldr	s14, [pc, #104]	; 800a380 <FM2_sampleCompute+0x268>
 800a31a:	eef4 7ac7 	vcmpe.f32	s15, s14
 800a31e:	eef1 fa10 	vmrs	APSR_nzcv, fpscr
 800a322:	db08      	blt.n	800a336 <FM2_sampleCompute+0x21e>
 800a324:	ee77 7ac7 	vsub.f32	s15, s15, s14
 800a328:	eef4 7ac7 	vcmpe.f32	s15, s14
 800a32c:	eef1 fa10 	vmrs	APSR_nzcv, fpscr
 800a330:	daf8      	bge.n	800a324 <FM2_sampleCompute+0x20c>
 800a332:	edc4 7a13 	vstr	s15, [r4, #76]	; 0x4c
 800a336:	ed9f 0a13 	vldr	s0, [pc, #76]	; 800a384 <FM2_sampleCompute+0x26c>
 800a33a:	ed94 8a10 	vldr	s16, [r4, #64]	; 0x40
 800a33e:	ee27 0a80 	vmul.f32	s0, s15, s0
 800a342:	f002 fc0f 	bl	800cb64 <lrintf>
 800a346:	eb05 0080 	add.w	r0, r5, r0, lsl #2
 800a34a:	edd0 7a00 	vldr	s15, [r0]
 800a34e:	ed94 7a07 	vldr	s14, [r4, #28]
 800a352:	ee68 7a27 	vmul.f32	s15, s16, s15
 800a356:	ecbd 8b02 	vpop	{d8}
 800a35a:	ee37 7a87 	vadd.f32	s14, s15, s14
 800a35e:	eeb6 0a00 	vmov.f32	s0, #96	; 0x60
 800a362:	ee27 0a00 	vmul.f32	s0, s14, s0
 800a366:	edc4 7a17 	vstr	s15, [r4, #92]	; 0x5c
 800a36a:	bd38      	pop	{r3, r4, r5, pc}
 800a36c:	eeb0 7a67 	vmov.f32	s14, s15
 800a370:	e78f      	b.n	800a292 <FM2_sampleCompute+0x17a>
 800a372:	bf00      	nop
 800a374:	10003cbc 	.word	0x10003cbc
 800a378:	00000000 	.word	0x00000000
 800a37c:	3909421f 	.word	0x3909421f
 800a380:	40c90fdb 	.word	0x40c90fdb
 800a384:	4322f983 	.word	0x4322f983
 800a388:	0801c73c 	.word	0x0801c73c

0800a38c <Osc_WT_SINE_SampleCompute>:
Osc_WT_SINE_SampleCompute():
 800a38c:	b510      	push	{r4, lr}
 800a38e:	edd0 7a03 	vldr	s15, [r0, #12]
 800a392:	eef5 7ac0 	vcmpe.f32	s15, #0.0
 800a396:	eef1 fa10 	vmrs	APSR_nzcv, fpscr
 800a39a:	ed2d 8b02 	vpush	{d8}
 800a39e:	4604      	mov	r4, r0
 800a3a0:	d50a      	bpl.n	800a3b8 <Osc_WT_SINE_SampleCompute+0x2c>
 800a3a2:	ed9f 7a1c 	vldr	s14, [pc, #112]	; 800a414 <Osc_WT_SINE_SampleCompute+0x88>
 800a3a6:	ee77 7a87 	vadd.f32	s15, s15, s14
 800a3aa:	eef5 7ac0 	vcmpe.f32	s15, #0.0
 800a3ae:	eef1 fa10 	vmrs	APSR_nzcv, fpscr
 800a3b2:	d4f8      	bmi.n	800a3a6 <Osc_WT_SINE_SampleCompute+0x1a>
 800a3b4:	edc4 7a03 	vstr	s15, [r4, #12]
 800a3b8:	ed9f 7a16 	vldr	s14, [pc, #88]	; 800a414 <Osc_WT_SINE_SampleCompute+0x88>
 800a3bc:	eef4 7ac7 	vcmpe.f32	s15, s14
 800a3c0:	eef1 fa10 	vmrs	APSR_nzcv, fpscr
 800a3c4:	db08      	blt.n	800a3d8 <Osc_WT_SINE_SampleCompute+0x4c>
 800a3c6:	ee77 7ac7 	vsub.f32	s15, s15, s14
 800a3ca:	eef4 7ac7 	vcmpe.f32	s15, s14
 800a3ce:	eef1 fa10 	vmrs	APSR_nzcv, fpscr
 800a3d2:	daf8      	bge.n	800a3c6 <Osc_WT_SINE_SampleCompute+0x3a>
 800a3d4:	edc4 7a03 	vstr	s15, [r4, #12]
 800a3d8:	ed9f 0a0f 	vldr	s0, [pc, #60]	; 800a418 <Osc_WT_SINE_SampleCompute+0x8c>
 800a3dc:	ed94 8a00 	vldr	s16, [r4]
 800a3e0:	ee27 0a80 	vmul.f32	s0, s15, s0
 800a3e4:	f002 fbbe 	bl	800cb64 <lrintf>
 800a3e8:	4b0c      	ldr	r3, [pc, #48]	; (800a41c <Osc_WT_SINE_SampleCompute+0x90>)
 800a3ea:	edd4 7a03 	vldr	s15, [r4, #12]
 800a3ee:	edd4 6a02 	vldr	s13, [r4, #8]
 800a3f2:	ed9f 7a0b 	vldr	s14, [pc, #44]	; 800a420 <Osc_WT_SINE_SampleCompute+0x94>
 800a3f6:	eb03 0080 	add.w	r0, r3, r0, lsl #2
 800a3fa:	ed90 0a00 	vldr	s0, [r0]
 800a3fe:	ee28 0a00 	vmul.f32	s0, s16, s0
 800a402:	ecbd 8b02 	vpop	{d8}
 800a406:	eee6 7a87 	vfma.f32	s15, s13, s14
 800a40a:	ed84 0a07 	vstr	s0, [r4, #28]
 800a40e:	edc4 7a03 	vstr	s15, [r4, #12]
 800a412:	bd10      	pop	{r4, pc}
 800a414:	40c90fdb 	.word	0x40c90fdb
 800a418:	4322f983 	.word	0x4322f983
 800a41c:	0801c73c 	.word	0x0801c73c
 800a420:	3909421f 	.word	0x3909421f

0800a424 <OpSampleCompute7bis>:
OpSampleCompute7bis():
 800a424:	b510      	push	{r4, lr}
 800a426:	edd0 7a03 	vldr	s15, [r0, #12]
 800a42a:	eef5 7ac0 	vcmpe.f32	s15, #0.0
 800a42e:	eef1 fa10 	vmrs	APSR_nzcv, fpscr
 800a432:	ed2d 8b02 	vpush	{d8}
 800a436:	4604      	mov	r4, r0
 800a438:	d50a      	bpl.n	800a450 <OpSampleCompute7bis+0x2c>
 800a43a:	ed9f 7a20 	vldr	s14, [pc, #128]	; 800a4bc <OpSampleCompute7bis+0x98>
 800a43e:	ee77 7a87 	vadd.f32	s15, s15, s14
 800a442:	eef5 7ac0 	vcmpe.f32	s15, #0.0
 800a446:	eef1 fa10 	vmrs	APSR_nzcv, fpscr
 800a44a:	d4f8      	bmi.n	800a43e <OpSampleCompute7bis+0x1a>
 800a44c:	edc4 7a03 	vstr	s15, [r4, #12]
 800a450:	ed9f 7a1a 	vldr	s14, [pc, #104]	; 800a4bc <OpSampleCompute7bis+0x98>
 800a454:	eef4 7ac7 	vcmpe.f32	s15, s14
 800a458:	eef1 fa10 	vmrs	APSR_nzcv, fpscr
 800a45c:	db08      	blt.n	800a470 <OpSampleCompute7bis+0x4c>
 800a45e:	ee77 7ac7 	vsub.f32	s15, s15, s14
 800a462:	eef4 7ac7 	vcmpe.f32	s15, s14
 800a466:	eef1 fa10 	vmrs	APSR_nzcv, fpscr
 800a46a:	daf8      	bge.n	800a45e <OpSampleCompute7bis+0x3a>
 800a46c:	edc4 7a03 	vstr	s15, [r4, #12]
 800a470:	ed9f 0a13 	vldr	s0, [pc, #76]	; 800a4c0 <OpSampleCompute7bis+0x9c>
 800a474:	ed94 7a00 	vldr	s14, [r4]
 800a478:	ee27 0a80 	vmul.f32	s0, s15, s0
 800a47c:	eeb6 8a00 	vmov.f32	s16, #96	; 0x60
 800a480:	ee27 8a08 	vmul.f32	s16, s14, s16
 800a484:	f002 fb6e 	bl	800cb64 <lrintf>
 800a488:	4b0e      	ldr	r3, [pc, #56]	; (800a4c4 <OpSampleCompute7bis+0xa0>)
 800a48a:	edd4 7a03 	vldr	s15, [r4, #12]
 800a48e:	ed94 6a02 	vldr	s12, [r4, #8]
 800a492:	eddf 6a0d 	vldr	s13, [pc, #52]	; 800a4c8 <OpSampleCompute7bis+0xa4>
 800a496:	eb03 0080 	add.w	r0, r3, r0, lsl #2
 800a49a:	ed90 7a00 	vldr	s14, [r0]
 800a49e:	eeb7 0a00 	vmov.f32	s0, #112	; 0x70
 800a4a2:	ee37 0a00 	vadd.f32	s0, s14, s0
 800a4a6:	eee6 7a26 	vfma.f32	s15, s12, s13
 800a4aa:	ee28 0a00 	vmul.f32	s0, s16, s0
 800a4ae:	ecbd 8b02 	vpop	{d8}
 800a4b2:	edc4 7a03 	vstr	s15, [r4, #12]
 800a4b6:	ed84 0a07 	vstr	s0, [r4, #28]
 800a4ba:	bd10      	pop	{r4, pc}
 800a4bc:	40c90fdb 	.word	0x40c90fdb
 800a4c0:	4322f983 	.word	0x4322f983
 800a4c4:	0801c73c 	.word	0x0801c73c
 800a4c8:	3909421f 	.word	0x3909421f

0800a4cc <AdditiveGen_newWaveform>:
AdditiveGen_newWaveform():
 800a4cc:	e92d 41f0 	stmdb	sp!, {r4, r5, r6, r7, r8, lr}
 800a4d0:	4d16      	ldr	r5, [pc, #88]	; (800a52c <AdditiveGen_newWaveform+0x60>)
 800a4d2:	2300      	movs	r3, #0
 800a4d4:	f04f 527e 	mov.w	r2, #1065353216	; 0x3f800000
 800a4d8:	4698      	mov	r8, r3
 800a4da:	f8c5 30b0 	str.w	r3, [r5, #176]	; 0xb0
 800a4de:	f8c5 30ac 	str.w	r3, [r5, #172]	; 0xac
 800a4e2:	f8c5 2084 	str.w	r2, [r5, #132]	; 0x84
 800a4e6:	f8c5 2080 	str.w	r2, [r5, #128]	; 0x80
 800a4ea:	f105 0488 	add.w	r4, r5, #136	; 0x88
 800a4ee:	f105 06b4 	add.w	r6, r5, #180	; 0xb4
 800a4f2:	f105 07ac 	add.w	r7, r5, #172	; 0xac
 800a4f6:	ed9f 0a0e 	vldr	s0, [pc, #56]	; 800a530 <AdditiveGen_newWaveform+0x64>
 800a4fa:	eddf 0a0e 	vldr	s1, [pc, #56]	; 800a534 <AdditiveGen_newWaveform+0x68>
 800a4fe:	f001 f955 	bl	800b7ac <frand_a_b>
 800a502:	eca4 0a01 	vstmia	r4!, {s0}
 800a506:	edd5 7a20 	vldr	s15, [r5, #128]	; 0x80
 800a50a:	f846 8b04 	str.w	r8, [r6], #4
 800a50e:	ee30 0a27 	vadd.f32	s0, s0, s15
 800a512:	42bc      	cmp	r4, r7
 800a514:	4b05      	ldr	r3, [pc, #20]	; (800a52c <AdditiveGen_newWaveform+0x60>)
 800a516:	ed85 0a20 	vstr	s0, [r5, #128]	; 0x80
 800a51a:	d1ec      	bne.n	800a4f6 <AdditiveGen_newWaveform+0x2a>
 800a51c:	eef7 7a00 	vmov.f32	s15, #112	; 0x70
 800a520:	ee87 0a80 	vdiv.f32	s0, s15, s0
 800a524:	ed83 0a20 	vstr	s0, [r3, #128]	; 0x80
 800a528:	e8bd 81f0 	ldmia.w	sp!, {r4, r5, r6, r7, r8, pc}
 800a52c:	10003cbc 	.word	0x10003cbc
 800a530:	3a83126f 	.word	0x3a83126f
 800a534:	3f7ae148 	.word	0x3f7ae148

0800a538 <waveCompute>:
waveCompute():
 800a538:	b530      	push	{r4, r5, lr}
 800a53a:	ed2d 8b02 	vpush	{d8}
 800a53e:	4cce      	ldr	r4, [pc, #824]	; (800a878 <waveCompute+0x340>)
 800a540:	b083      	sub	sp, #12
 800a542:	eeb0 8a40 	vmov.f32	s16, s0
 800a546:	ed84 0a02 	vstr	s0, [r4, #8]
 800a54a:	280f      	cmp	r0, #15
 800a54c:	f200 87c8 	bhi.w	800b4e0 <waveCompute+0xfa8>
 800a550:	e8df f010 	tbh	[pc, r0, lsl #1]
 800a554:	001b050d 	.word	0x001b050d
 800a558:	057a04e7 	.word	0x057a04e7
 800a55c:	05c40068 	.word	0x05c40068
 800a560:	00c200b7 	.word	0x00c200b7
 800a564:	00db00cd 	.word	0x00db00cd
 800a568:	02de01c2 	.word	0x02de01c2
 800a56c:	03b303ba 	.word	0x03b303ba
 800a570:	001004e0 	.word	0x001004e0
 800a574:	4bc1      	ldr	r3, [pc, #772]	; (800a87c <waveCompute+0x344>)
 800a576:	4618      	mov	r0, r3
 800a578:	ed83 0a03 	vstr	s0, [r3, #12]
 800a57c:	b003      	add	sp, #12
 800a57e:	ecbd 8b02 	vpop	{d8}
 800a582:	e8bd 4030 	ldmia.w	sp!, {r4, r5, lr}
 800a586:	f7fd ba3b 	b.w	8007a00 <VCO_blepsaw_SampleCompute>
 800a58a:	eddf 7abd 	vldr	s15, [pc, #756]	; 800a880 <waveCompute+0x348>
 800a58e:	eeb4 0ae7 	vcmpe.f32	s0, s15
 800a592:	eef1 fa10 	vmrs	APSR_nzcv, fpscr
 800a596:	f100 8636 	bmi.w	800b206 <waveCompute+0xcce>
 800a59a:	eddf 7aba 	vldr	s15, [pc, #744]	; 800a884 <waveCompute+0x34c>
 800a59e:	eeb4 0ae7 	vcmpe.f32	s0, s15
 800a5a2:	edd4 7a03 	vldr	s15, [r4, #12]
 800a5a6:	eef1 fa10 	vmrs	APSR_nzcv, fpscr
 800a5aa:	eef5 7ac0 	vcmpe.f32	s15, #0.0
 800a5ae:	f100 869f 	bmi.w	800b2f0 <waveCompute+0xdb8>
 800a5b2:	eef1 fa10 	vmrs	APSR_nzcv, fpscr
 800a5b6:	d508      	bpl.n	800a5ca <waveCompute+0x92>
 800a5b8:	ed9f 7ac6 	vldr	s14, [pc, #792]	; 800a8d4 <waveCompute+0x39c>
 800a5bc:	ee77 7a87 	vadd.f32	s15, s15, s14
 800a5c0:	eef5 7ac0 	vcmpe.f32	s15, #0.0
 800a5c4:	eef1 fa10 	vmrs	APSR_nzcv, fpscr
 800a5c8:	d4f8      	bmi.n	800a5bc <waveCompute+0x84>
 800a5ca:	eddf 6ac2 	vldr	s13, [pc, #776]	; 800a8d4 <waveCompute+0x39c>
 800a5ce:	eef4 7ae6 	vcmpe.f32	s15, s13
 800a5d2:	eef1 fa10 	vmrs	APSR_nzcv, fpscr
 800a5d6:	eeb0 7a67 	vmov.f32	s14, s15
 800a5da:	db08      	blt.n	800a5ee <waveCompute+0xb6>
 800a5dc:	eef0 7a66 	vmov.f32	s15, s13
 800a5e0:	ee37 7a67 	vsub.f32	s14, s14, s15
 800a5e4:	eeb4 7ae7 	vcmpe.f32	s14, s15
 800a5e8:	eef1 fa10 	vmrs	APSR_nzcv, fpscr
 800a5ec:	daf8      	bge.n	800a5e0 <waveCompute+0xa8>
 800a5ee:	eddf 7ab3 	vldr	s15, [pc, #716]	; 800a8bc <waveCompute+0x384>
 800a5f2:	eeb4 7ae7 	vcmpe.f32	s14, s15
 800a5f6:	eef1 fa10 	vmrs	APSR_nzcv, fpscr
 800a5fa:	f100 8759 	bmi.w	800b4b0 <waveCompute+0xf78>
 800a5fe:	eddf 6aa2 	vldr	s13, [pc, #648]	; 800a888 <waveCompute+0x350>
 800a602:	ed94 0a00 	vldr	s0, [r4]
 800a606:	eef8 7a08 	vmov.f32	s15, #136	; 0x88
 800a60a:	eee7 7a26 	vfma.f32	s15, s14, s13
 800a60e:	ee27 0a80 	vmul.f32	s0, s15, s0
 800a612:	eddf 7aaf 	vldr	s15, [pc, #700]	; 800a8d0 <waveCompute+0x398>
 800a616:	ed84 0a07 	vstr	s0, [r4, #28]
 800a61a:	eea8 7a27 	vfma.f32	s14, s16, s15
 800a61e:	ed84 7a03 	vstr	s14, [r4, #12]
 800a622:	e06e      	b.n	800a702 <waveCompute+0x1ca>
 800a624:	4899      	ldr	r0, [pc, #612]	; (800a88c <waveCompute+0x354>)
 800a626:	eddf 6a9a 	vldr	s13, [pc, #616]	; 800a890 <waveCompute+0x358>
 800a62a:	ed9f 5a9a 	vldr	s10, [pc, #616]	; 800a894 <waveCompute+0x35c>
 800a62e:	ed9f 7aa9 	vldr	s14, [pc, #676]	; 800a8d4 <waveCompute+0x39c>
 800a632:	4d99      	ldr	r5, [pc, #612]	; (800a898 <waveCompute+0x360>)
 800a634:	ed9f 4a99 	vldr	s8, [pc, #612]	; 800a89c <waveCompute+0x364>
 800a638:	eddf 4aa5 	vldr	s9, [pc, #660]	; 800a8d0 <waveCompute+0x398>
 800a63c:	f100 0128 	add.w	r1, r0, #40	; 0x28
 800a640:	2201      	movs	r2, #1
 800a642:	ee07 2a90 	vmov	s15, r2
 800a646:	eef8 5ae7 	vcvt.f32.s32	s11, s15
 800a64a:	ee68 7a25 	vmul.f32	s15, s16, s11
 800a64e:	eef4 7ac5 	vcmpe.f32	s15, s10
 800a652:	eef1 fa10 	vmrs	APSR_nzcv, fpscr
 800a656:	d529      	bpl.n	800a6ac <waveCompute+0x174>
 800a658:	3104      	adds	r1, #4
 800a65a:	edd1 7a00 	vldr	s15, [r1]
 800a65e:	eef4 7ac7 	vcmpe.f32	s15, s14
 800a662:	eef1 fa10 	vmrs	APSR_nzcv, fpscr
 800a666:	db08      	blt.n	800a67a <waveCompute+0x142>
 800a668:	ee77 7ac7 	vsub.f32	s15, s15, s14
 800a66c:	eef4 7ac7 	vcmpe.f32	s15, s14
 800a670:	eef1 fa10 	vmrs	APSR_nzcv, fpscr
 800a674:	daf8      	bge.n	800a668 <waveCompute+0x130>
 800a676:	edc1 7a00 	vstr	s15, [r1]
 800a67a:	ee27 6a84 	vmul.f32	s12, s15, s8
 800a67e:	ee65 5aa4 	vmul.f32	s11, s11, s9
 800a682:	eebc 6ac6 	vcvt.u32.f32	s12, s12
 800a686:	eee8 7a25 	vfma.f32	s15, s16, s11
 800a68a:	3201      	adds	r2, #1
 800a68c:	2a0b      	cmp	r2, #11
 800a68e:	ed8d 6a01 	vstr	s12, [sp, #4]
 800a692:	f8bd 3004 	ldrh.w	r3, [sp, #4]
 800a696:	ecf0 5a01 	vldmia	r0!, {s11}
 800a69a:	edc1 7a00 	vstr	s15, [r1]
 800a69e:	eb05 0383 	add.w	r3, r5, r3, lsl #2
 800a6a2:	ed93 6a00 	vldr	s12, [r3]
 800a6a6:	eee5 6a86 	vfma.f32	s13, s11, s12
 800a6aa:	d1ca      	bne.n	800a642 <waveCompute+0x10a>
 800a6ac:	ed94 0a20 	vldr	s0, [r4, #128]	; 0x80
 800a6b0:	edd4 7a00 	vldr	s15, [r4]
 800a6b4:	ee66 6a80 	vmul.f32	s13, s13, s0
 800a6b8:	ee26 0aa7 	vmul.f32	s0, s13, s15
 800a6bc:	ed84 0a07 	vstr	s0, [r4, #28]
 800a6c0:	e01f      	b.n	800a702 <waveCompute+0x1ca>
 800a6c2:	4b77      	ldr	r3, [pc, #476]	; (800a8a0 <waveCompute+0x368>)
 800a6c4:	4618      	mov	r0, r3
 800a6c6:	ed83 0a03 	vstr	s0, [r3, #12]
 800a6ca:	b003      	add	sp, #12
 800a6cc:	ecbd 8b02 	vpop	{d8}
 800a6d0:	e8bd 4030 	ldmia.w	sp!, {r4, r5, lr}
 800a6d4:	f7fd beb4 	b.w	8008440 <VCO_bleptri_SampleCompute>
 800a6d8:	4b72      	ldr	r3, [pc, #456]	; (800a8a4 <waveCompute+0x36c>)
 800a6da:	4618      	mov	r0, r3
 800a6dc:	ed83 0a03 	vstr	s0, [r3, #12]
 800a6e0:	b003      	add	sp, #12
 800a6e2:	ecbd 8b02 	vpop	{d8}
 800a6e6:	e8bd 4030 	ldmia.w	sp!, {r4, r5, lr}
 800a6ea:	f7fd bb01 	b.w	8007cf0 <VCO_bleprect_SampleCompute>
 800a6ee:	ed9f 0a6e 	vldr	s0, [pc, #440]	; 800a8a8 <waveCompute+0x370>
 800a6f2:	eddf 0a6e 	vldr	s1, [pc, #440]	; 800a8ac <waveCompute+0x374>
 800a6f6:	ed94 8a00 	vldr	s16, [r4]
 800a6fa:	f001 f857 	bl	800b7ac <frand_a_b>
 800a6fe:	ee28 0a00 	vmul.f32	s0, s16, s0
 800a702:	b003      	add	sp, #12
 800a704:	ecbd 8b02 	vpop	{d8}
 800a708:	bd30      	pop	{r4, r5, pc}
 800a70a:	edd4 7a03 	vldr	s15, [r4, #12]
 800a70e:	eeb7 5a08 	vmov.f32	s10, #120	; 0x78
 800a712:	ee20 5a05 	vmul.f32	s10, s0, s10
 800a716:	eef5 7ac0 	vcmpe.f32	s15, #0.0
 800a71a:	eef1 fa10 	vmrs	APSR_nzcv, fpscr
 800a71e:	ed84 5a0a 	vstr	s10, [r4, #40]	; 0x28
 800a722:	d508      	bpl.n	800a736 <waveCompute+0x1fe>
 800a724:	ed9f 7a6b 	vldr	s14, [pc, #428]	; 800a8d4 <waveCompute+0x39c>
 800a728:	ee77 7a87 	vadd.f32	s15, s15, s14
 800a72c:	eef5 7ac0 	vcmpe.f32	s15, #0.0
 800a730:	eef1 fa10 	vmrs	APSR_nzcv, fpscr
 800a734:	d4f8      	bmi.n	800a728 <waveCompute+0x1f0>
 800a736:	ed9f 7a67 	vldr	s14, [pc, #412]	; 800a8d4 <waveCompute+0x39c>
 800a73a:	eef4 7ac7 	vcmpe.f32	s15, s14
 800a73e:	eef1 fa10 	vmrs	APSR_nzcv, fpscr
 800a742:	eef0 6a67 	vmov.f32	s13, s15
 800a746:	db08      	blt.n	800a75a <waveCompute+0x222>
 800a748:	eef0 7a47 	vmov.f32	s15, s14
 800a74c:	ee76 6ae7 	vsub.f32	s13, s13, s15
 800a750:	eef4 6ae7 	vcmpe.f32	s13, s15
 800a754:	eef1 fa10 	vmrs	APSR_nzcv, fpscr
 800a758:	daf8      	bge.n	800a74c <waveCompute+0x214>
 800a75a:	eddf 7a59 	vldr	s15, [pc, #356]	; 800a8c0 <waveCompute+0x388>
 800a75e:	eeb4 8ae7 	vcmpe.f32	s16, s15
 800a762:	eef1 fa10 	vmrs	APSR_nzcv, fpscr
 800a766:	f100 8519 	bmi.w	800b19c <waveCompute+0xc64>
 800a76a:	ed9f 7a54 	vldr	s14, [pc, #336]	; 800a8bc <waveCompute+0x384>
 800a76e:	ed84 7a04 	vstr	s14, [r4, #16]
 800a772:	eeb0 6a47 	vmov.f32	s12, s14
 800a776:	eef4 6ac6 	vcmpe.f32	s13, s12
 800a77a:	eef1 fa10 	vmrs	APSR_nzcv, fpscr
 800a77e:	f100 860a 	bmi.w	800b396 <waveCompute+0xe5e>
 800a782:	ed9f 7a52 	vldr	s14, [pc, #328]	; 800a8cc <waveCompute+0x394>
 800a786:	edd4 7a00 	vldr	s15, [r4]
 800a78a:	eddf 5a52 	vldr	s11, [pc, #328]	; 800a8d4 <waveCompute+0x39c>
 800a78e:	eef0 4a00 	vmov.f32	s9, #0
 800a792:	eea6 7aa4 	vfma.f32	s14, s13, s9
 800a796:	ee75 5ac6 	vsub.f32	s11, s11, s12
 800a79a:	ee37 7a46 	vsub.f32	s14, s14, s12
 800a79e:	ee67 7a27 	vmul.f32	s15, s14, s15
 800a7a2:	eec7 7aa5 	vdiv.f32	s15, s15, s11
 800a7a6:	ed9f 7a4a 	vldr	s14, [pc, #296]	; 800a8d0 <waveCompute+0x398>
 800a7aa:	ed94 6a0b 	vldr	s12, [r4, #44]	; 0x2c
 800a7ae:	edc4 7a07 	vstr	s15, [r4, #28]
 800a7b2:	eee8 6a07 	vfma.f32	s13, s16, s14
 800a7b6:	eeb5 6ac0 	vcmpe.f32	s12, #0.0
 800a7ba:	eef1 fa10 	vmrs	APSR_nzcv, fpscr
 800a7be:	edc4 6a03 	vstr	s13, [r4, #12]
 800a7c2:	d508      	bpl.n	800a7d6 <waveCompute+0x29e>
 800a7c4:	ed9f 7a43 	vldr	s14, [pc, #268]	; 800a8d4 <waveCompute+0x39c>
 800a7c8:	ee36 6a07 	vadd.f32	s12, s12, s14
 800a7cc:	eeb5 6ac0 	vcmpe.f32	s12, #0.0
 800a7d0:	eef1 fa10 	vmrs	APSR_nzcv, fpscr
 800a7d4:	d4f8      	bmi.n	800a7c8 <waveCompute+0x290>
 800a7d6:	eddf 6a3f 	vldr	s13, [pc, #252]	; 800a8d4 <waveCompute+0x39c>
 800a7da:	eeb4 6ae6 	vcmpe.f32	s12, s13
 800a7de:	eef1 fa10 	vmrs	APSR_nzcv, fpscr
 800a7e2:	eeb0 7a46 	vmov.f32	s14, s12
 800a7e6:	db06      	blt.n	800a7f6 <waveCompute+0x2be>
 800a7e8:	ee37 7a66 	vsub.f32	s14, s14, s13
 800a7ec:	eeb4 7ae6 	vcmpe.f32	s14, s13
 800a7f0:	eef1 fa10 	vmrs	APSR_nzcv, fpscr
 800a7f4:	daf8      	bge.n	800a7e8 <waveCompute+0x2b0>
 800a7f6:	eddf 6a32 	vldr	s13, [pc, #200]	; 800a8c0 <waveCompute+0x388>
 800a7fa:	eeb4 5ae6 	vcmpe.f32	s10, s13
 800a7fe:	eef1 fa10 	vmrs	APSR_nzcv, fpscr
 800a802:	f140 8566 	bpl.w	800b2d2 <waveCompute+0xd9a>
 800a806:	eddf 6a2f 	vldr	s13, [pc, #188]	; 800a8c4 <waveCompute+0x38c>
 800a80a:	ed9f 6a2f 	vldr	s12, [pc, #188]	; 800a8c8 <waveCompute+0x390>
 800a80e:	ee65 5a26 	vmul.f32	s11, s10, s13
 800a812:	eef4 5ac6 	vcmpe.f32	s11, s12
 800a816:	eef1 fa10 	vmrs	APSR_nzcv, fpscr
 800a81a:	bf8e      	itee	hi
 800a81c:	edc4 5a0c 	vstrhi	s11, [r4, #48]	; 0x30
 800a820:	eef0 5a46 	vmovls.f32	s11, s12
 800a824:	ed84 6a0c 	vstrls	s12, [r4, #48]	; 0x30
 800a828:	eeb4 7ae5 	vcmpe.f32	s14, s11
 800a82c:	eef1 fa10 	vmrs	APSR_nzcv, fpscr
 800a830:	f100 85e9 	bmi.w	800b406 <waveCompute+0xece>
 800a834:	eddf 6a25 	vldr	s13, [pc, #148]	; 800a8cc <waveCompute+0x394>
 800a838:	ed94 0a08 	vldr	s0, [r4, #32]
 800a83c:	eddf 4a25 	vldr	s9, [pc, #148]	; 800a8d4 <waveCompute+0x39c>
 800a840:	eeb0 6a00 	vmov.f32	s12, #0
 800a844:	eee7 6a06 	vfma.f32	s13, s14, s12
 800a848:	ee74 4ae5 	vsub.f32	s9, s9, s11
 800a84c:	ee76 6ae5 	vsub.f32	s13, s13, s11
 800a850:	ee66 6a80 	vmul.f32	s13, s13, s0
 800a854:	ee86 0aa4 	vdiv.f32	s0, s13, s9
 800a858:	eddf 6a1d 	vldr	s13, [pc, #116]	; 800a8d0 <waveCompute+0x398>
 800a85c:	ed84 0a0f 	vstr	s0, [r4, #60]	; 0x3c
 800a860:	eea5 7a26 	vfma.f32	s14, s10, s13
 800a864:	ee77 7a80 	vadd.f32	s15, s15, s0
 800a868:	eeb6 0a00 	vmov.f32	s0, #96	; 0x60
 800a86c:	ee27 0a80 	vmul.f32	s0, s15, s0
 800a870:	ed84 7a0b 	vstr	s14, [r4, #44]	; 0x2c
 800a874:	e745      	b.n	800a702 <waveCompute+0x1ca>
 800a876:	bf00      	nop
 800a878:	10003cbc 	.word	0x10003cbc
 800a87c:	10000adc 	.word	0x10000adc
 800a880:	43480000 	.word	0x43480000
 800a884:	44160000 	.word	0x44160000
 800a888:	3f22f983 	.word	0x3f22f983
 800a88c:	10003d40 	.word	0x10003d40
 800a890:	00000000 	.word	0x00000000
 800a894:	46bb8000 	.word	0x46bb8000
 800a898:	0801c73c 	.word	0x0801c73c
 800a89c:	4322f983 	.word	0x4322f983
 800a8a0:	10000028 	.word	0x10000028
 800a8a4:	10000580 	.word	0x10000580
 800a8a8:	bf4ccccd 	.word	0xbf4ccccd
 800a8ac:	3f4ccccd 	.word	0x3f4ccccd
 800a8b0:	3fa147ae 	.word	0x3fa147ae
 800a8b4:	3ea8f5c3 	.word	0x3ea8f5c3
 800a8b8:	3f9837b5 	.word	0x3f9837b5
 800a8bc:	40490fdb 	.word	0x40490fdb
 800a8c0:	45fa0000 	.word	0x45fa0000
 800a8c4:	39cde32e 	.word	0x39cde32e
 800a8c8:	38d1b717 	.word	0x38d1b717
 800a8cc:	c0c90fdb 	.word	0xc0c90fdb
 800a8d0:	3909421f 	.word	0x3909421f
 800a8d4:	40c90fdb 	.word	0x40c90fdb
 800a8d8:	ed1f 4a0b 	vldr	s8, [pc, #-44]	; 800a8b0 <waveCompute+0x378>
 800a8dc:	edd4 7a03 	vldr	s15, [r4, #12]
 800a8e0:	eeb7 5a08 	vmov.f32	s10, #120	; 0x78
 800a8e4:	ee20 4a04 	vmul.f32	s8, s0, s8
 800a8e8:	ee20 5a05 	vmul.f32	s10, s0, s10
 800a8ec:	eef5 7ac0 	vcmpe.f32	s15, #0.0
 800a8f0:	eef1 fa10 	vmrs	APSR_nzcv, fpscr
 800a8f4:	ed84 4a0a 	vstr	s8, [r4, #40]	; 0x28
 800a8f8:	ed84 5a12 	vstr	s10, [r4, #72]	; 0x48
 800a8fc:	d508      	bpl.n	800a910 <waveCompute+0x3d8>
 800a8fe:	ed1f 7a0b 	vldr	s14, [pc, #-44]	; 800a8d4 <waveCompute+0x39c>
 800a902:	ee77 7a87 	vadd.f32	s15, s15, s14
 800a906:	eef5 7ac0 	vcmpe.f32	s15, #0.0
 800a90a:	eef1 fa10 	vmrs	APSR_nzcv, fpscr
 800a90e:	d4f8      	bmi.n	800a902 <waveCompute+0x3ca>
 800a910:	ed5f 6a10 	vldr	s13, [pc, #-64]	; 800a8d4 <waveCompute+0x39c>
 800a914:	eef4 7ae6 	vcmpe.f32	s15, s13
 800a918:	eef1 fa10 	vmrs	APSR_nzcv, fpscr
 800a91c:	eeb0 7a67 	vmov.f32	s14, s15
 800a920:	db08      	blt.n	800a934 <waveCompute+0x3fc>
 800a922:	eef0 7a66 	vmov.f32	s15, s13
 800a926:	ee37 7a67 	vsub.f32	s14, s14, s15
 800a92a:	eeb4 7ae7 	vcmpe.f32	s14, s15
 800a92e:	eef1 fa10 	vmrs	APSR_nzcv, fpscr
 800a932:	daf8      	bge.n	800a926 <waveCompute+0x3ee>
 800a934:	ed5f 7a1e 	vldr	s15, [pc, #-120]	; 800a8c0 <waveCompute+0x388>
 800a938:	eeb4 8ae7 	vcmpe.f32	s16, s15
 800a93c:	eef1 fa10 	vmrs	APSR_nzcv, fpscr
 800a940:	f100 841a 	bmi.w	800b178 <waveCompute+0xc40>
 800a944:	ed5f 6a23 	vldr	s13, [pc, #-140]	; 800a8bc <waveCompute+0x384>
 800a948:	edc4 6a04 	vstr	s13, [r4, #16]
 800a94c:	eeb4 7ae6 	vcmpe.f32	s14, s13
 800a950:	eef1 fa10 	vmrs	APSR_nzcv, fpscr
 800a954:	f100 8596 	bmi.w	800b484 <waveCompute+0xf4c>
 800a958:	ed1f 6a24 	vldr	s12, [pc, #-144]	; 800a8cc <waveCompute+0x394>
 800a95c:	ed5f 5a23 	vldr	s11, [pc, #-140]	; 800a8d4 <waveCompute+0x39c>
 800a960:	edd4 7a00 	vldr	s15, [r4]
 800a964:	eef0 4a00 	vmov.f32	s9, #0
 800a968:	eea7 6a24 	vfma.f32	s12, s14, s9
 800a96c:	ee75 5ae6 	vsub.f32	s11, s11, s13
 800a970:	ee76 6a66 	vsub.f32	s13, s12, s13
 800a974:	ee66 7aa7 	vmul.f32	s15, s13, s15
 800a978:	eec7 7aa5 	vdiv.f32	s15, s15, s11
 800a97c:	ed1f 6a2c 	vldr	s12, [pc, #-176]	; 800a8d0 <waveCompute+0x398>
 800a980:	edd4 6a0b 	vldr	s13, [r4, #44]	; 0x2c
 800a984:	edc4 7a07 	vstr	s15, [r4, #28]
 800a988:	eea8 7a06 	vfma.f32	s14, s16, s12
 800a98c:	eef5 6ac0 	vcmpe.f32	s13, #0.0
 800a990:	eef1 fa10 	vmrs	APSR_nzcv, fpscr
 800a994:	ed84 7a03 	vstr	s14, [r4, #12]
 800a998:	d508      	bpl.n	800a9ac <waveCompute+0x474>
 800a99a:	ed1f 7a32 	vldr	s14, [pc, #-200]	; 800a8d4 <waveCompute+0x39c>
 800a99e:	ee76 6a87 	vadd.f32	s13, s13, s14
 800a9a2:	eef5 6ac0 	vcmpe.f32	s13, #0.0
 800a9a6:	eef1 fa10 	vmrs	APSR_nzcv, fpscr
 800a9aa:	d4f8      	bmi.n	800a99e <waveCompute+0x466>
 800a9ac:	ed1f 6a37 	vldr	s12, [pc, #-220]	; 800a8d4 <waveCompute+0x39c>
 800a9b0:	eef4 6ac6 	vcmpe.f32	s13, s12
 800a9b4:	eef1 fa10 	vmrs	APSR_nzcv, fpscr
 800a9b8:	eeb0 7a66 	vmov.f32	s14, s13
 800a9bc:	db08      	blt.n	800a9d0 <waveCompute+0x498>
 800a9be:	eef0 6a46 	vmov.f32	s13, s12
 800a9c2:	ee37 7a66 	vsub.f32	s14, s14, s13
 800a9c6:	eeb4 7ae6 	vcmpe.f32	s14, s13
 800a9ca:	eef1 fa10 	vmrs	APSR_nzcv, fpscr
 800a9ce:	daf8      	bge.n	800a9c2 <waveCompute+0x48a>
 800a9d0:	ed5f 6a45 	vldr	s13, [pc, #-276]	; 800a8c0 <waveCompute+0x388>
 800a9d4:	eeb4 4ae6 	vcmpe.f32	s8, s13
 800a9d8:	eef1 fa10 	vmrs	APSR_nzcv, fpscr
 800a9dc:	f140 8463 	bpl.w	800b2a6 <waveCompute+0xd6e>
 800a9e0:	ed5f 6a48 	vldr	s13, [pc, #-288]	; 800a8c4 <waveCompute+0x38c>
 800a9e4:	ed1f 6a48 	vldr	s12, [pc, #-288]	; 800a8c8 <waveCompute+0x390>
 800a9e8:	ee64 4a26 	vmul.f32	s9, s8, s13
 800a9ec:	eef4 4ac6 	vcmpe.f32	s9, s12
 800a9f0:	eef1 fa10 	vmrs	APSR_nzcv, fpscr
 800a9f4:	bf8e      	itee	hi
 800a9f6:	edc4 4a0c 	vstrhi	s9, [r4, #48]	; 0x30
 800a9fa:	eef0 4a46 	vmovls.f32	s9, s12
 800a9fe:	ed84 6a0c 	vstrls	s12, [r4, #48]	; 0x30
 800aa02:	eeb4 7ae4 	vcmpe.f32	s14, s9
 800aa06:	eef1 fa10 	vmrs	APSR_nzcv, fpscr
 800aa0a:	f100 84b4 	bmi.w	800b376 <waveCompute+0xe3e>
 800aa0e:	ed5f 6a51 	vldr	s13, [pc, #-324]	; 800a8cc <waveCompute+0x394>
 800aa12:	edd4 3a08 	vldr	s7, [r4, #32]
 800aa16:	ed1f 6a51 	vldr	s12, [pc, #-324]	; 800a8d4 <waveCompute+0x39c>
 800aa1a:	eef0 5a00 	vmov.f32	s11, #0
 800aa1e:	eee7 6a25 	vfma.f32	s13, s14, s11
 800aa22:	ee36 6a64 	vsub.f32	s12, s12, s9
 800aa26:	ee76 6ae4 	vsub.f32	s13, s13, s9
 800aa2a:	ee66 6aa3 	vmul.f32	s13, s13, s7
 800aa2e:	ee86 6a86 	vdiv.f32	s12, s13, s12
 800aa32:	ed5f 5a59 	vldr	s11, [pc, #-356]	; 800a8d0 <waveCompute+0x398>
 800aa36:	edd4 6a13 	vldr	s13, [r4, #76]	; 0x4c
 800aa3a:	ed84 6a0f 	vstr	s12, [r4, #60]	; 0x3c
 800aa3e:	eea4 7a25 	vfma.f32	s14, s8, s11
 800aa42:	eef5 6ac0 	vcmpe.f32	s13, #0.0
 800aa46:	eef1 fa10 	vmrs	APSR_nzcv, fpscr
 800aa4a:	ee77 7a86 	vadd.f32	s15, s15, s12
 800aa4e:	ed84 7a0b 	vstr	s14, [r4, #44]	; 0x2c
 800aa52:	d508      	bpl.n	800aa66 <waveCompute+0x52e>
 800aa54:	ed1f 7a61 	vldr	s14, [pc, #-388]	; 800a8d4 <waveCompute+0x39c>
 800aa58:	ee76 6a87 	vadd.f32	s13, s13, s14
 800aa5c:	eef5 6ac0 	vcmpe.f32	s13, #0.0
 800aa60:	eef1 fa10 	vmrs	APSR_nzcv, fpscr
 800aa64:	d4f8      	bmi.n	800aa58 <waveCompute+0x520>
 800aa66:	ed1f 6a65 	vldr	s12, [pc, #-404]	; 800a8d4 <waveCompute+0x39c>
 800aa6a:	eef4 6ac6 	vcmpe.f32	s13, s12
 800aa6e:	eef1 fa10 	vmrs	APSR_nzcv, fpscr
 800aa72:	eeb0 7a66 	vmov.f32	s14, s13
 800aa76:	db08      	blt.n	800aa8a <waveCompute+0x552>
 800aa78:	eef0 6a46 	vmov.f32	s13, s12
 800aa7c:	ee37 7a66 	vsub.f32	s14, s14, s13
 800aa80:	eeb4 7ae6 	vcmpe.f32	s14, s13
 800aa84:	eef1 fa10 	vmrs	APSR_nzcv, fpscr
 800aa88:	daf8      	bge.n	800aa7c <waveCompute+0x544>
 800aa8a:	ed5f 6a73 	vldr	s13, [pc, #-460]	; 800a8c0 <waveCompute+0x388>
 800aa8e:	eeb4 5ae6 	vcmpe.f32	s10, s13
 800aa92:	eef1 fa10 	vmrs	APSR_nzcv, fpscr
 800aa96:	f140 83f2 	bpl.w	800b27e <waveCompute+0xd46>
 800aa9a:	ed1f 6a76 	vldr	s12, [pc, #-472]	; 800a8c4 <waveCompute+0x38c>
 800aa9e:	ed5f 6a76 	vldr	s13, [pc, #-472]	; 800a8c8 <waveCompute+0x390>
 800aaa2:	ee65 5a06 	vmul.f32	s11, s10, s12
 800aaa6:	eef4 5ae6 	vcmpe.f32	s11, s13
 800aaaa:	eef1 fa10 	vmrs	APSR_nzcv, fpscr
 800aaae:	bf8e      	itee	hi
 800aab0:	edc4 5a14 	vstrhi	s11, [r4, #80]	; 0x50
 800aab4:	eef0 5a66 	vmovls.f32	s11, s13
 800aab8:	edc4 6a14 	vstrls	s13, [r4, #80]	; 0x50
 800aabc:	eeb4 7ae5 	vcmpe.f32	s14, s11
 800aac0:	eef1 fa10 	vmrs	APSR_nzcv, fpscr
 800aac4:	f100 83e2 	bmi.w	800b28c <waveCompute+0xd54>
 800aac8:	ed1f 6a80 	vldr	s12, [pc, #-512]	; 800a8cc <waveCompute+0x394>
 800aacc:	edd4 6a10 	vldr	s13, [r4, #64]	; 0x40
 800aad0:	ed5f 4a80 	vldr	s9, [pc, #-512]	; 800a8d4 <waveCompute+0x39c>
 800aad4:	eeb0 4a00 	vmov.f32	s8, #0
 800aad8:	eea7 6a04 	vfma.f32	s12, s14, s8
 800aadc:	ee74 4ae5 	vsub.f32	s9, s9, s11
 800aae0:	ee36 6a65 	vsub.f32	s12, s12, s11
 800aae4:	ee66 6a26 	vmul.f32	s13, s12, s13
 800aae8:	eec6 6aa4 	vdiv.f32	s13, s13, s9
 800aaec:	ed1f 6a88 	vldr	s12, [pc, #-544]	; 800a8d0 <waveCompute+0x398>
 800aaf0:	ed1f 0a90 	vldr	s0, [pc, #-576]	; 800a8b4 <waveCompute+0x37c>
 800aaf4:	edc4 6a17 	vstr	s13, [r4, #92]	; 0x5c
 800aaf8:	eea5 7a06 	vfma.f32	s14, s10, s12
 800aafc:	ee77 7aa6 	vadd.f32	s15, s15, s13
 800ab00:	ed84 7a13 	vstr	s14, [r4, #76]	; 0x4c
 800ab04:	ee27 0a80 	vmul.f32	s0, s15, s0
 800ab08:	b003      	add	sp, #12
 800ab0a:	ecbd 8b02 	vpop	{d8}
 800ab0e:	bd30      	pop	{r4, r5, pc}
 800ab10:	ed1f 4a97 	vldr	s8, [pc, #-604]	; 800a8b8 <waveCompute+0x380>
 800ab14:	edd4 7a03 	vldr	s15, [r4, #12]
 800ab18:	eeb7 5a08 	vmov.f32	s10, #120	; 0x78
 800ab1c:	ee20 4a04 	vmul.f32	s8, s0, s8
 800ab20:	ee20 5a05 	vmul.f32	s10, s0, s10
 800ab24:	eef5 7ac0 	vcmpe.f32	s15, #0.0
 800ab28:	eef1 fa10 	vmrs	APSR_nzcv, fpscr
 800ab2c:	ed84 4a0a 	vstr	s8, [r4, #40]	; 0x28
 800ab30:	ed84 5a12 	vstr	s10, [r4, #72]	; 0x48
 800ab34:	d508      	bpl.n	800ab48 <waveCompute+0x610>
 800ab36:	ed1f 7a99 	vldr	s14, [pc, #-612]	; 800a8d4 <waveCompute+0x39c>
 800ab3a:	ee77 7a87 	vadd.f32	s15, s15, s14
 800ab3e:	eef5 7ac0 	vcmpe.f32	s15, #0.0
 800ab42:	eef1 fa10 	vmrs	APSR_nzcv, fpscr
 800ab46:	d4f8      	bmi.n	800ab3a <waveCompute+0x602>
 800ab48:	ed5f 6a9e 	vldr	s13, [pc, #-632]	; 800a8d4 <waveCompute+0x39c>
 800ab4c:	eef4 7ae6 	vcmpe.f32	s15, s13
 800ab50:	eef1 fa10 	vmrs	APSR_nzcv, fpscr
 800ab54:	eeb0 7a67 	vmov.f32	s14, s15
 800ab58:	db08      	blt.n	800ab6c <waveCompute+0x634>
 800ab5a:	eef0 7a66 	vmov.f32	s15, s13
 800ab5e:	ee37 7a67 	vsub.f32	s14, s14, s15
 800ab62:	eeb4 7ae7 	vcmpe.f32	s14, s15
 800ab66:	eef1 fa10 	vmrs	APSR_nzcv, fpscr
 800ab6a:	daf8      	bge.n	800ab5e <waveCompute+0x626>
 800ab6c:	ed5f 7aac 	vldr	s15, [pc, #-688]	; 800a8c0 <waveCompute+0x388>
 800ab70:	eeb4 8ae7 	vcmpe.f32	s16, s15
 800ab74:	eef1 fa10 	vmrs	APSR_nzcv, fpscr
 800ab78:	f100 8323 	bmi.w	800b1c2 <waveCompute+0xc8a>
 800ab7c:	ed5f 6ab1 	vldr	s13, [pc, #-708]	; 800a8bc <waveCompute+0x384>
 800ab80:	edc4 6a04 	vstr	s13, [r4, #16]
 800ab84:	eeb4 7ae6 	vcmpe.f32	s14, s13
 800ab88:	eef1 fa10 	vmrs	APSR_nzcv, fpscr
 800ab8c:	f100 8411 	bmi.w	800b3b2 <waveCompute+0xe7a>
 800ab90:	ed1f 6ab2 	vldr	s12, [pc, #-712]	; 800a8cc <waveCompute+0x394>
 800ab94:	ed5f 5ab1 	vldr	s11, [pc, #-708]	; 800a8d4 <waveCompute+0x39c>
 800ab98:	edd4 7a00 	vldr	s15, [r4]
 800ab9c:	eef0 4a00 	vmov.f32	s9, #0
 800aba0:	eea7 6a24 	vfma.f32	s12, s14, s9
 800aba4:	ee75 5ae6 	vsub.f32	s11, s11, s13
 800aba8:	ee76 6a66 	vsub.f32	s13, s12, s13
 800abac:	ee66 7aa7 	vmul.f32	s15, s13, s15
 800abb0:	eec7 7aa5 	vdiv.f32	s15, s15, s11
 800abb4:	ed5f 6aba 	vldr	s13, [pc, #-744]	; 800a8d0 <waveCompute+0x398>
 800abb8:	ed94 6a0b 	vldr	s12, [r4, #44]	; 0x2c
 800abbc:	edc4 7a07 	vstr	s15, [r4, #28]
 800abc0:	eea8 7a26 	vfma.f32	s14, s16, s13
 800abc4:	eeb5 6ac0 	vcmpe.f32	s12, #0.0
 800abc8:	eef1 fa10 	vmrs	APSR_nzcv, fpscr
 800abcc:	ed84 7a03 	vstr	s14, [r4, #12]
 800abd0:	d508      	bpl.n	800abe4 <waveCompute+0x6ac>
 800abd2:	ed1f 7ac0 	vldr	s14, [pc, #-768]	; 800a8d4 <waveCompute+0x39c>
 800abd6:	ee36 6a07 	vadd.f32	s12, s12, s14
 800abda:	eeb5 6ac0 	vcmpe.f32	s12, #0.0
 800abde:	eef1 fa10 	vmrs	APSR_nzcv, fpscr
 800abe2:	d4f8      	bmi.n	800abd6 <waveCompute+0x69e>
 800abe4:	ed1f 7ac5 	vldr	s14, [pc, #-788]	; 800a8d4 <waveCompute+0x39c>
 800abe8:	eeb4 6ac7 	vcmpe.f32	s12, s14
 800abec:	eef1 fa10 	vmrs	APSR_nzcv, fpscr
 800abf0:	eef0 6a46 	vmov.f32	s13, s12
 800abf4:	db06      	blt.n	800ac04 <waveCompute+0x6cc>
 800abf6:	ee76 6ac7 	vsub.f32	s13, s13, s14
 800abfa:	eef4 6ac7 	vcmpe.f32	s13, s14
 800abfe:	eef1 fa10 	vmrs	APSR_nzcv, fpscr
 800ac02:	daf8      	bge.n	800abf6 <waveCompute+0x6be>
 800ac04:	ed1f 7ad2 	vldr	s14, [pc, #-840]	; 800a8c0 <waveCompute+0x388>
 800ac08:	eeb4 4ac7 	vcmpe.f32	s8, s14
 800ac0c:	eef1 fa10 	vmrs	APSR_nzcv, fpscr
 800ac10:	f140 8351 	bpl.w	800b2b6 <waveCompute+0xd7e>
 800ac14:	ed1f 7ad5 	vldr	s14, [pc, #-852]	; 800a8c4 <waveCompute+0x38c>
 800ac18:	ed1f 6ad5 	vldr	s12, [pc, #-852]	; 800a8c8 <waveCompute+0x390>
 800ac1c:	ee64 4a07 	vmul.f32	s9, s8, s14
 800ac20:	eef4 4ac6 	vcmpe.f32	s9, s12
 800ac24:	eef1 fa10 	vmrs	APSR_nzcv, fpscr
 800ac28:	bf8e      	itee	hi
 800ac2a:	edc4 4a0c 	vstrhi	s9, [r4, #48]	; 0x30
 800ac2e:	eef0 4a46 	vmovls.f32	s9, s12
 800ac32:	ed84 6a0c 	vstrls	s12, [r4, #48]	; 0x30
 800ac36:	eef4 6ae4 	vcmpe.f32	s13, s9
 800ac3a:	eef1 fa10 	vmrs	APSR_nzcv, fpscr
 800ac3e:	f100 83c6 	bmi.w	800b3ce <waveCompute+0xe96>
 800ac42:	ed1f 7ade 	vldr	s14, [pc, #-888]	; 800a8cc <waveCompute+0x394>
 800ac46:	edd4 3a08 	vldr	s7, [r4, #32]
 800ac4a:	ed1f 6ade 	vldr	s12, [pc, #-888]	; 800a8d4 <waveCompute+0x39c>
 800ac4e:	eef0 5a00 	vmov.f32	s11, #0
 800ac52:	eea6 7aa5 	vfma.f32	s14, s13, s11
 800ac56:	ee36 6a64 	vsub.f32	s12, s12, s9
 800ac5a:	ee37 7a64 	vsub.f32	s14, s14, s9
 800ac5e:	ee27 7a23 	vmul.f32	s14, s14, s7
 800ac62:	ee87 6a06 	vdiv.f32	s12, s14, s12
 800ac66:	ed5f 5ae6 	vldr	s11, [pc, #-920]	; 800a8d0 <waveCompute+0x398>
 800ac6a:	ed94 7a13 	vldr	s14, [r4, #76]	; 0x4c
 800ac6e:	ed84 6a0f 	vstr	s12, [r4, #60]	; 0x3c
 800ac72:	eee4 6a25 	vfma.f32	s13, s8, s11
 800ac76:	eeb5 7ac0 	vcmpe.f32	s14, #0.0
 800ac7a:	eef1 fa10 	vmrs	APSR_nzcv, fpscr
 800ac7e:	ee77 7a86 	vadd.f32	s15, s15, s12
 800ac82:	edc4 6a0b 	vstr	s13, [r4, #44]	; 0x2c
 800ac86:	d508      	bpl.n	800ac9a <waveCompute+0x762>
 800ac88:	ed5f 6aee 	vldr	s13, [pc, #-952]	; 800a8d4 <waveCompute+0x39c>
 800ac8c:	ee37 7a26 	vadd.f32	s14, s14, s13
 800ac90:	eeb5 7ac0 	vcmpe.f32	s14, #0.0
 800ac94:	eef1 fa10 	vmrs	APSR_nzcv, fpscr
 800ac98:	d4f8      	bmi.n	800ac8c <waveCompute+0x754>
 800ac9a:	eddf 6ae9 	vldr	s13, [pc, #932]	; 800b040 <waveCompute+0xb08>
 800ac9e:	eeb4 7ae6 	vcmpe.f32	s14, s13
 800aca2:	eef1 fa10 	vmrs	APSR_nzcv, fpscr
 800aca6:	f6ff aef0 	blt.w	800aa8a <waveCompute+0x552>
 800acaa:	ee37 7a66 	vsub.f32	s14, s14, s13
 800acae:	eeb4 7ae6 	vcmpe.f32	s14, s13
 800acb2:	eef1 fa10 	vmrs	APSR_nzcv, fpscr
 800acb6:	daf8      	bge.n	800acaa <waveCompute+0x772>
 800acb8:	e6e7      	b.n	800aa8a <waveCompute+0x552>
 800acba:	b003      	add	sp, #12
 800acbc:	ecbd 8b02 	vpop	{d8}
 800acc0:	e8bd 4030 	ldmia.w	sp!, {r4, r5, lr}
 800acc4:	f7ff b84e 	b.w	8009d64 <Drifters_sampleCompute>
 800acc8:	f7fe fd9a 	bl	8009800 <d1_drifter_nextSample>
 800accc:	eef7 8a00 	vmov.f32	s17, #112	; 0x70
 800acd0:	ee30 0a28 	vadd.f32	s0, s0, s17
 800acd4:	ee60 7a08 	vmul.f32	s15, s0, s16
 800acd8:	edc4 7a0a 	vstr	s15, [r4, #40]	; 0x28
 800acdc:	f7fe fde2 	bl	80098a4 <d2_drifter_nextSample>
 800ace0:	edd4 7a03 	vldr	s15, [r4, #12]
 800ace4:	ee30 0a28 	vadd.f32	s0, s0, s17
 800ace8:	eef5 7ac0 	vcmpe.f32	s15, #0.0
 800acec:	ee20 8a08 	vmul.f32	s16, s0, s16
 800acf0:	eef1 fa10 	vmrs	APSR_nzcv, fpscr
 800acf4:	ed84 8a12 	vstr	s16, [r4, #72]	; 0x48
 800acf8:	d508      	bpl.n	800ad0c <waveCompute+0x7d4>
 800acfa:	ed9f 7ad1 	vldr	s14, [pc, #836]	; 800b040 <waveCompute+0xb08>
 800acfe:	ee77 7a87 	vadd.f32	s15, s15, s14
 800ad02:	eef5 7ac0 	vcmpe.f32	s15, #0.0
 800ad06:	eef1 fa10 	vmrs	APSR_nzcv, fpscr
 800ad0a:	d4f8      	bmi.n	800acfe <waveCompute+0x7c6>
 800ad0c:	eddf 6acc 	vldr	s13, [pc, #816]	; 800b040 <waveCompute+0xb08>
 800ad10:	eef4 7ae6 	vcmpe.f32	s15, s13
 800ad14:	eef1 fa10 	vmrs	APSR_nzcv, fpscr
 800ad18:	eeb0 7a67 	vmov.f32	s14, s15
 800ad1c:	db08      	blt.n	800ad30 <waveCompute+0x7f8>
 800ad1e:	eef0 7a66 	vmov.f32	s15, s13
 800ad22:	ee37 7a67 	vsub.f32	s14, s14, s15
 800ad26:	eeb4 7ae7 	vcmpe.f32	s14, s15
 800ad2a:	eef1 fa10 	vmrs	APSR_nzcv, fpscr
 800ad2e:	daf8      	bge.n	800ad22 <waveCompute+0x7ea>
 800ad30:	edd4 5a02 	vldr	s11, [r4, #8]
 800ad34:	eddf 7ab9 	vldr	s15, [pc, #740]	; 800b01c <waveCompute+0xae4>
 800ad38:	4bb9      	ldr	r3, [pc, #740]	; (800b020 <waveCompute+0xae8>)
 800ad3a:	eef4 5ae7 	vcmpe.f32	s11, s15
 800ad3e:	eef1 fa10 	vmrs	APSR_nzcv, fpscr
 800ad42:	f100 824f 	bmi.w	800b1e4 <waveCompute+0xcac>
 800ad46:	eddf 6ab7 	vldr	s13, [pc, #732]	; 800b024 <waveCompute+0xaec>
 800ad4a:	edc3 6a04 	vstr	s13, [r3, #16]
 800ad4e:	eeb4 7ae6 	vcmpe.f32	s14, s13
 800ad52:	eef1 fa10 	vmrs	APSR_nzcv, fpscr
 800ad56:	f100 8301 	bmi.w	800b35c <waveCompute+0xe24>
 800ad5a:	ed9f 6ab3 	vldr	s12, [pc, #716]	; 800b028 <waveCompute+0xaf0>
 800ad5e:	ed9f 5ab8 	vldr	s10, [pc, #736]	; 800b040 <waveCompute+0xb08>
 800ad62:	edd4 7a00 	vldr	s15, [r4]
 800ad66:	eef0 4a00 	vmov.f32	s9, #0
 800ad6a:	eea7 6a24 	vfma.f32	s12, s14, s9
 800ad6e:	ee35 5a66 	vsub.f32	s10, s10, s13
 800ad72:	ee76 6a66 	vsub.f32	s13, s12, s13
 800ad76:	ee66 7aa7 	vmul.f32	s15, s13, s15
 800ad7a:	eec7 7a85 	vdiv.f32	s15, s15, s10
 800ad7e:	ed9f 6aab 	vldr	s12, [pc, #684]	; 800b02c <waveCompute+0xaf4>
 800ad82:	edd4 6a0b 	vldr	s13, [r4, #44]	; 0x2c
 800ad86:	edc4 7a07 	vstr	s15, [r4, #28]
 800ad8a:	eea5 7a86 	vfma.f32	s14, s11, s12
 800ad8e:	eef5 6ac0 	vcmpe.f32	s13, #0.0
 800ad92:	eef1 fa10 	vmrs	APSR_nzcv, fpscr
 800ad96:	ed84 7a03 	vstr	s14, [r4, #12]
 800ad9a:	d508      	bpl.n	800adae <waveCompute+0x876>
 800ad9c:	ed9f 7aa8 	vldr	s14, [pc, #672]	; 800b040 <waveCompute+0xb08>
 800ada0:	ee76 6a87 	vadd.f32	s13, s13, s14
 800ada4:	eef5 6ac0 	vcmpe.f32	s13, #0.0
 800ada8:	eef1 fa10 	vmrs	APSR_nzcv, fpscr
 800adac:	d4f8      	bmi.n	800ada0 <waveCompute+0x868>
 800adae:	ed9f 6aa4 	vldr	s12, [pc, #656]	; 800b040 <waveCompute+0xb08>
 800adb2:	eef4 6ac6 	vcmpe.f32	s13, s12
 800adb6:	eef1 fa10 	vmrs	APSR_nzcv, fpscr
 800adba:	eeb0 7a66 	vmov.f32	s14, s13
 800adbe:	db08      	blt.n	800add2 <waveCompute+0x89a>
 800adc0:	eef0 6a46 	vmov.f32	s13, s12
 800adc4:	ee37 7a66 	vsub.f32	s14, s14, s13
 800adc8:	eeb4 7ae6 	vcmpe.f32	s14, s13
 800adcc:	eef1 fa10 	vmrs	APSR_nzcv, fpscr
 800add0:	daf8      	bge.n	800adc4 <waveCompute+0x88c>
 800add2:	edd4 4a0a 	vldr	s9, [r4, #40]	; 0x28
 800add6:	eddf 6a91 	vldr	s13, [pc, #580]	; 800b01c <waveCompute+0xae4>
 800adda:	4b91      	ldr	r3, [pc, #580]	; (800b020 <waveCompute+0xae8>)
 800addc:	eef4 4ae6 	vcmpe.f32	s9, s13
 800ade0:	eef1 fa10 	vmrs	APSR_nzcv, fpscr
 800ade4:	f140 827d 	bpl.w	800b2e2 <waveCompute+0xdaa>
 800ade8:	eddf 6a91 	vldr	s13, [pc, #580]	; 800b030 <waveCompute+0xaf8>
 800adec:	ed9f 6a91 	vldr	s12, [pc, #580]	; 800b034 <waveCompute+0xafc>
 800adf0:	ee24 5aa6 	vmul.f32	s10, s9, s13
 800adf4:	eeb4 5ac6 	vcmpe.f32	s10, s12
 800adf8:	eef1 fa10 	vmrs	APSR_nzcv, fpscr
 800adfc:	bf8e      	itee	hi
 800adfe:	ed83 5a0c 	vstrhi	s10, [r3, #48]	; 0x30
 800ae02:	eeb0 5a46 	vmovls.f32	s10, s12
 800ae06:	ed83 6a0c 	vstrls	s12, [r3, #48]	; 0x30
 800ae0a:	eeb4 5ac7 	vcmpe.f32	s10, s14
 800ae0e:	eef1 fa10 	vmrs	APSR_nzcv, fpscr
 800ae12:	f300 8308 	bgt.w	800b426 <waveCompute+0xeee>
 800ae16:	eddf 6a84 	vldr	s13, [pc, #528]	; 800b028 <waveCompute+0xaf0>
 800ae1a:	ed94 4a08 	vldr	s8, [r4, #32]
 800ae1e:	ed9f 6a88 	vldr	s12, [pc, #544]	; 800b040 <waveCompute+0xb08>
 800ae22:	eef0 5a00 	vmov.f32	s11, #0
 800ae26:	eee7 6a25 	vfma.f32	s13, s14, s11
 800ae2a:	ee36 6a45 	vsub.f32	s12, s12, s10
 800ae2e:	ee76 6ac5 	vsub.f32	s13, s13, s10
 800ae32:	ee66 6a84 	vmul.f32	s13, s13, s8
 800ae36:	ee86 6a86 	vdiv.f32	s12, s13, s12
 800ae3a:	eddf 5a7c 	vldr	s11, [pc, #496]	; 800b02c <waveCompute+0xaf4>
 800ae3e:	edd4 6a13 	vldr	s13, [r4, #76]	; 0x4c
 800ae42:	ed84 6a0f 	vstr	s12, [r4, #60]	; 0x3c
 800ae46:	eea4 7aa5 	vfma.f32	s14, s9, s11
 800ae4a:	eef5 6ac0 	vcmpe.f32	s13, #0.0
 800ae4e:	eef1 fa10 	vmrs	APSR_nzcv, fpscr
 800ae52:	ee77 7a86 	vadd.f32	s15, s15, s12
 800ae56:	ed84 7a0b 	vstr	s14, [r4, #44]	; 0x2c
 800ae5a:	d508      	bpl.n	800ae6e <waveCompute+0x936>
 800ae5c:	ed9f 7a78 	vldr	s14, [pc, #480]	; 800b040 <waveCompute+0xb08>
 800ae60:	ee76 6a87 	vadd.f32	s13, s13, s14
 800ae64:	eef5 6ac0 	vcmpe.f32	s13, #0.0
 800ae68:	eef1 fa10 	vmrs	APSR_nzcv, fpscr
 800ae6c:	d4f8      	bmi.n	800ae60 <waveCompute+0x928>
 800ae6e:	ed9f 6a74 	vldr	s12, [pc, #464]	; 800b040 <waveCompute+0xb08>
 800ae72:	eef4 6ac6 	vcmpe.f32	s13, s12
 800ae76:	eef1 fa10 	vmrs	APSR_nzcv, fpscr
 800ae7a:	eeb0 7a66 	vmov.f32	s14, s13
 800ae7e:	db08      	blt.n	800ae92 <waveCompute+0x95a>
 800ae80:	eef0 6a46 	vmov.f32	s13, s12
 800ae84:	ee37 7a66 	vsub.f32	s14, s14, s13
 800ae88:	eeb4 7ae6 	vcmpe.f32	s14, s13
 800ae8c:	eef1 fa10 	vmrs	APSR_nzcv, fpscr
 800ae90:	daf8      	bge.n	800ae84 <waveCompute+0x94c>
 800ae92:	eddf 6a62 	vldr	s13, [pc, #392]	; 800b01c <waveCompute+0xae4>
 800ae96:	eeb4 8ae6 	vcmpe.f32	s16, s13
 800ae9a:	eef1 fa10 	vmrs	APSR_nzcv, fpscr
 800ae9e:	f140 8211 	bpl.w	800b2c4 <waveCompute+0xd8c>
 800aea2:	ed9f 6a63 	vldr	s12, [pc, #396]	; 800b030 <waveCompute+0xaf8>
 800aea6:	eddf 6a63 	vldr	s13, [pc, #396]	; 800b034 <waveCompute+0xafc>
 800aeaa:	ee68 5a06 	vmul.f32	s11, s16, s12
 800aeae:	eef4 5ae6 	vcmpe.f32	s11, s13
 800aeb2:	eef1 fa10 	vmrs	APSR_nzcv, fpscr
 800aeb6:	bf8e      	itee	hi
 800aeb8:	edc4 5a14 	vstrhi	s11, [r4, #80]	; 0x50
 800aebc:	eef0 5a66 	vmovls.f32	s11, s13
 800aec0:	edc4 6a14 	vstrls	s13, [r4, #80]	; 0x50
 800aec4:	eef4 5ac7 	vcmpe.f32	s11, s14
 800aec8:	eef1 fa10 	vmrs	APSR_nzcv, fpscr
 800aecc:	f300 828e 	bgt.w	800b3ec <waveCompute+0xeb4>
 800aed0:	ed9f 6a55 	vldr	s12, [pc, #340]	; 800b028 <waveCompute+0xaf0>
 800aed4:	edd4 6a10 	vldr	s13, [r4, #64]	; 0x40
 800aed8:	ed9f 5a59 	vldr	s10, [pc, #356]	; 800b040 <waveCompute+0xb08>
 800aedc:	eef0 4a00 	vmov.f32	s9, #0
 800aee0:	eea7 6a24 	vfma.f32	s12, s14, s9
 800aee4:	ee35 5a65 	vsub.f32	s10, s10, s11
 800aee8:	ee36 6a65 	vsub.f32	s12, s12, s11
 800aeec:	ee66 6a26 	vmul.f32	s13, s12, s13
 800aef0:	eec6 6a85 	vdiv.f32	s13, s13, s10
 800aef4:	ed9f 6a4d 	vldr	s12, [pc, #308]	; 800b02c <waveCompute+0xaf4>
 800aef8:	ed9f 0a4f 	vldr	s0, [pc, #316]	; 800b038 <waveCompute+0xb00>
 800aefc:	edc4 6a17 	vstr	s13, [r4, #92]	; 0x5c
 800af00:	eea8 7a06 	vfma.f32	s14, s16, s12
 800af04:	ee77 7aa6 	vadd.f32	s15, s15, s13
 800af08:	ed84 7a13 	vstr	s14, [r4, #76]	; 0x4c
 800af0c:	ee27 0a80 	vmul.f32	s0, s15, s0
 800af10:	f7ff bbf7 	b.w	800a702 <waveCompute+0x1ca>
 800af14:	b003      	add	sp, #12
 800af16:	ecbd 8b02 	vpop	{d8}
 800af1a:	e8bd 4030 	ldmia.w	sp!, {r4, r5, lr}
 800af1e:	f7ff b8fb 	b.w	800a118 <FM2_sampleCompute>
 800af22:	edd4 8a03 	vldr	s17, [r4, #12]
 800af26:	eddf 7a46 	vldr	s15, [pc, #280]	; 800b040 <waveCompute+0xb08>
 800af2a:	eef4 8ae7 	vcmpe.f32	s17, s15
 800af2e:	eef1 fa10 	vmrs	APSR_nzcv, fpscr
 800af32:	db06      	blt.n	800af42 <waveCompute+0xa0a>
 800af34:	ee78 8ae7 	vsub.f32	s17, s17, s15
 800af38:	eef4 8ae7 	vcmpe.f32	s17, s15
 800af3c:	eef1 fa10 	vmrs	APSR_nzcv, fpscr
 800af40:	daf8      	bge.n	800af34 <waveCompute+0x9fc>
 800af42:	eeb0 0a68 	vmov.f32	s0, s17
 800af46:	f001 febb 	bl	800ccc0 <sinf>
 800af4a:	eddf 6a38 	vldr	s13, [pc, #224]	; 800b02c <waveCompute+0xaf4>
 800af4e:	edd4 7a00 	vldr	s15, [r4]
 800af52:	ed9f 7a3a 	vldr	s14, [pc, #232]	; 800b03c <waveCompute+0xb04>
 800af56:	eee8 8a26 	vfma.f32	s17, s16, s13
 800af5a:	ee20 0a27 	vmul.f32	s0, s0, s15
 800af5e:	edc4 8a03 	vstr	s17, [r4, #12]
 800af62:	ed84 0a07 	vstr	s0, [r4, #28]
 800af66:	ee20 0a07 	vmul.f32	s0, s0, s14
 800af6a:	f7ff bbca 	b.w	800a702 <waveCompute+0x1ca>
 800af6e:	edd4 7a03 	vldr	s15, [r4, #12]
 800af72:	eef5 7ac0 	vcmpe.f32	s15, #0.0
 800af76:	eef1 fa10 	vmrs	APSR_nzcv, fpscr
 800af7a:	d508      	bpl.n	800af8e <waveCompute+0xa56>
 800af7c:	ed9f 7a30 	vldr	s14, [pc, #192]	; 800b040 <waveCompute+0xb08>
 800af80:	ee77 7a87 	vadd.f32	s15, s15, s14
 800af84:	eef5 7ac0 	vcmpe.f32	s15, #0.0
 800af88:	eef1 fa10 	vmrs	APSR_nzcv, fpscr
 800af8c:	d4f8      	bmi.n	800af80 <waveCompute+0xa48>
 800af8e:	ed9f 7a2c 	vldr	s14, [pc, #176]	; 800b040 <waveCompute+0xb08>
 800af92:	eef4 7ac7 	vcmpe.f32	s15, s14
 800af96:	eef1 fa10 	vmrs	APSR_nzcv, fpscr
 800af9a:	eef0 6a67 	vmov.f32	s13, s15
 800af9e:	db08      	blt.n	800afb2 <waveCompute+0xa7a>
 800afa0:	eef0 7a47 	vmov.f32	s15, s14
 800afa4:	ee76 6ae7 	vsub.f32	s13, s13, s15
 800afa8:	eef4 6ae7 	vcmpe.f32	s13, s15
 800afac:	eef1 fa10 	vmrs	APSR_nzcv, fpscr
 800afb0:	daf8      	bge.n	800afa4 <waveCompute+0xa6c>
 800afb2:	eddf 7a1a 	vldr	s15, [pc, #104]	; 800b01c <waveCompute+0xae4>
 800afb6:	eeb4 8ae7 	vcmpe.f32	s16, s15
 800afba:	eef1 fa10 	vmrs	APSR_nzcv, fpscr
 800afbe:	f100 80c9 	bmi.w	800b154 <waveCompute+0xc1c>
 800afc2:	ed9f 7a18 	vldr	s14, [pc, #96]	; 800b024 <waveCompute+0xaec>
 800afc6:	ed84 7a04 	vstr	s14, [r4, #16]
 800afca:	eeb0 6a47 	vmov.f32	s12, s14
 800afce:	eef4 6ac6 	vcmpe.f32	s13, s12
 800afd2:	eef1 fa10 	vmrs	APSR_nzcv, fpscr
 800afd6:	f100 8235 	bmi.w	800b444 <waveCompute+0xf0c>
 800afda:	ed9f 7a13 	vldr	s14, [pc, #76]	; 800b028 <waveCompute+0xaf0>
 800afde:	edd4 7a00 	vldr	s15, [r4]
 800afe2:	ed9f 0a17 	vldr	s0, [pc, #92]	; 800b040 <waveCompute+0xb08>
 800afe6:	eef0 5a00 	vmov.f32	s11, #0
 800afea:	eea6 7aa5 	vfma.f32	s14, s13, s11
 800afee:	ee30 0a46 	vsub.f32	s0, s0, s12
 800aff2:	ee37 7a46 	vsub.f32	s14, s14, s12
 800aff6:	ee67 7a27 	vmul.f32	s15, s14, s15
 800affa:	eec7 7a80 	vdiv.f32	s15, s15, s0
 800affe:	ed9f 7a0b 	vldr	s14, [pc, #44]	; 800b02c <waveCompute+0xaf4>
 800b002:	ed9f 0a0e 	vldr	s0, [pc, #56]	; 800b03c <waveCompute+0xb04>
 800b006:	edc4 7a07 	vstr	s15, [r4, #28]
 800b00a:	eee8 6a07 	vfma.f32	s13, s16, s14
 800b00e:	ee27 0a80 	vmul.f32	s0, s15, s0
 800b012:	edc4 6a03 	vstr	s13, [r4, #12]
 800b016:	f7ff bb74 	b.w	800a702 <waveCompute+0x1ca>
 800b01a:	bf00      	nop
 800b01c:	45fa0000 	.word	0x45fa0000
 800b020:	10003cbc 	.word	0x10003cbc
 800b024:	40490fdb 	.word	0x40490fdb
 800b028:	c0c90fdb 	.word	0xc0c90fdb
 800b02c:	3909421f 	.word	0x3909421f
 800b030:	39cde32e 	.word	0x39cde32e
 800b034:	38d1b717 	.word	0x38d1b717
 800b038:	3ea8f5c3 	.word	0x3ea8f5c3
 800b03c:	3f4ccccd 	.word	0x3f4ccccd
 800b040:	40c90fdb 	.word	0x40c90fdb
 800b044:	4322f983 	.word	0x4322f983
 800b048:	edd4 7a03 	vldr	s15, [r4, #12]
 800b04c:	eef5 7ac0 	vcmpe.f32	s15, #0.0
 800b050:	eef1 fa10 	vmrs	APSR_nzcv, fpscr
 800b054:	bf58      	it	pl
 800b056:	eeb0 7a67 	vmovpl.f32	s14, s15
 800b05a:	d50c      	bpl.n	800b076 <waveCompute+0xb3e>
 800b05c:	ed1f 7a08 	vldr	s14, [pc, #-32]	; 800b040 <waveCompute+0xb08>
 800b060:	ee77 7a87 	vadd.f32	s15, s15, s14
 800b064:	eef5 7ac0 	vcmpe.f32	s15, #0.0
 800b068:	eef1 fa10 	vmrs	APSR_nzcv, fpscr
 800b06c:	d4f8      	bmi.n	800b060 <waveCompute+0xb28>
 800b06e:	eeb0 7a67 	vmov.f32	s14, s15
 800b072:	edc4 7a03 	vstr	s15, [r4, #12]
 800b076:	ed5f 6a0e 	vldr	s13, [pc, #-56]	; 800b040 <waveCompute+0xb08>
 800b07a:	eef4 7ae6 	vcmpe.f32	s15, s13
 800b07e:	eef1 fa10 	vmrs	APSR_nzcv, fpscr
 800b082:	db0a      	blt.n	800b09a <waveCompute+0xb62>
 800b084:	eef0 7a66 	vmov.f32	s15, s13
 800b088:	ee37 7a67 	vsub.f32	s14, s14, s15
 800b08c:	eeb4 7ae7 	vcmpe.f32	s14, s15
 800b090:	eef1 fa10 	vmrs	APSR_nzcv, fpscr
 800b094:	daf8      	bge.n	800b088 <waveCompute+0xb50>
 800b096:	ed84 7a03 	vstr	s14, [r4, #12]
 800b09a:	ed1f 0a16 	vldr	s0, [pc, #-88]	; 800b044 <waveCompute+0xb0c>
 800b09e:	ed94 8a00 	vldr	s16, [r4]
 800b0a2:	ee27 0a00 	vmul.f32	s0, s14, s0
 800b0a6:	f001 fd5d 	bl	800cb64 <lrintf>
 800b0aa:	4bed      	ldr	r3, [pc, #948]	; (800b460 <waveCompute+0xf28>)
 800b0ac:	ed94 7a03 	vldr	s14, [r4, #12]
 800b0b0:	edd4 5a02 	vldr	s11, [r4, #8]
 800b0b4:	ed9f 6aeb 	vldr	s12, [pc, #940]	; 800b464 <waveCompute+0xf2c>
 800b0b8:	eddf 6aeb 	vldr	s13, [pc, #940]	; 800b468 <waveCompute+0xf30>
 800b0bc:	eb03 0080 	add.w	r0, r3, r0, lsl #2
 800b0c0:	edd0 7a00 	vldr	s15, [r0]
 800b0c4:	eea5 7a86 	vfma.f32	s14, s11, s12
 800b0c8:	ee68 7a27 	vmul.f32	s15, s16, s15
 800b0cc:	ed84 7a03 	vstr	s14, [r4, #12]
 800b0d0:	edc4 7a07 	vstr	s15, [r4, #28]
 800b0d4:	ee27 0aa6 	vmul.f32	s0, s15, s13
 800b0d8:	f7ff bb13 	b.w	800a702 <waveCompute+0x1ca>
 800b0dc:	edd4 7a03 	vldr	s15, [r4, #12]
 800b0e0:	eef5 7ac0 	vcmpe.f32	s15, #0.0
 800b0e4:	eef1 fa10 	vmrs	APSR_nzcv, fpscr
 800b0e8:	d508      	bpl.n	800b0fc <waveCompute+0xbc4>
 800b0ea:	ed9f 7ae0 	vldr	s14, [pc, #896]	; 800b46c <waveCompute+0xf34>
 800b0ee:	ee77 7a87 	vadd.f32	s15, s15, s14
 800b0f2:	eef5 7ac0 	vcmpe.f32	s15, #0.0
 800b0f6:	eef1 fa10 	vmrs	APSR_nzcv, fpscr
 800b0fa:	d4f8      	bmi.n	800b0ee <waveCompute+0xbb6>
 800b0fc:	ed9f 7adb 	vldr	s14, [pc, #876]	; 800b46c <waveCompute+0xf34>
 800b100:	eef4 7ac7 	vcmpe.f32	s15, s14
 800b104:	eef1 fa10 	vmrs	APSR_nzcv, fpscr
 800b108:	eef0 8a67 	vmov.f32	s17, s15
 800b10c:	db08      	blt.n	800b120 <waveCompute+0xbe8>
 800b10e:	eef0 7a47 	vmov.f32	s15, s14
 800b112:	ee78 8ae7 	vsub.f32	s17, s17, s15
 800b116:	eef4 8ae7 	vcmpe.f32	s17, s15
 800b11a:	eef1 fa10 	vmrs	APSR_nzcv, fpscr
 800b11e:	daf8      	bge.n	800b112 <waveCompute+0xbda>
 800b120:	eeb0 0a68 	vmov.f32	s0, s17
 800b124:	f001 fdcc 	bl	800ccc0 <sinf>
 800b128:	edd4 7a00 	vldr	s15, [r4]
 800b12c:	ed9f 7acd 	vldr	s14, [pc, #820]	; 800b464 <waveCompute+0xf2c>
 800b130:	ee60 7a27 	vmul.f32	s15, s0, s15
 800b134:	eee8 8a07 	vfma.f32	s17, s16, s14
 800b138:	ee60 7a27 	vmul.f32	s15, s0, s15
 800b13c:	edc4 8a03 	vstr	s17, [r4, #12]
 800b140:	ee60 7a27 	vmul.f32	s15, s0, s15
 800b144:	ee60 7a27 	vmul.f32	s15, s0, s15
 800b148:	ee20 0a27 	vmul.f32	s0, s0, s15
 800b14c:	ed84 0a07 	vstr	s0, [r4, #28]
 800b150:	f7ff bad7 	b.w	800a702 <waveCompute+0x1ca>
 800b154:	ed9f 7ac6 	vldr	s14, [pc, #792]	; 800b470 <waveCompute+0xf38>
 800b158:	eddf 7ac6 	vldr	s15, [pc, #792]	; 800b474 <waveCompute+0xf3c>
 800b15c:	ee28 6a07 	vmul.f32	s12, s16, s14
 800b160:	eeb4 6ae7 	vcmpe.f32	s12, s15
 800b164:	eef1 fa10 	vmrs	APSR_nzcv, fpscr
 800b168:	bf8e      	itee	hi
 800b16a:	ed84 6a04 	vstrhi	s12, [r4, #16]
 800b16e:	eeb0 6a67 	vmovls.f32	s12, s15
 800b172:	edc4 7a04 	vstrls	s15, [r4, #16]
 800b176:	e72a      	b.n	800afce <waveCompute+0xa96>
 800b178:	eddf 6abd 	vldr	s13, [pc, #756]	; 800b470 <waveCompute+0xf38>
 800b17c:	eddf 7abd 	vldr	s15, [pc, #756]	; 800b474 <waveCompute+0xf3c>
 800b180:	ee68 6a26 	vmul.f32	s13, s16, s13
 800b184:	eef4 6ae7 	vcmpe.f32	s13, s15
 800b188:	eef1 fa10 	vmrs	APSR_nzcv, fpscr
 800b18c:	f63f abdc 	bhi.w	800a948 <waveCompute+0x410>
 800b190:	eef0 6a67 	vmov.f32	s13, s15
 800b194:	edc4 7a04 	vstr	s15, [r4, #16]
 800b198:	f7ff bbd8 	b.w	800a94c <waveCompute+0x414>
 800b19c:	ed9f 7ab4 	vldr	s14, [pc, #720]	; 800b470 <waveCompute+0xf38>
 800b1a0:	eddf 7ab4 	vldr	s15, [pc, #720]	; 800b474 <waveCompute+0xf3c>
 800b1a4:	ee28 6a07 	vmul.f32	s12, s16, s14
 800b1a8:	eeb4 6ae7 	vcmpe.f32	s12, s15
 800b1ac:	eef1 fa10 	vmrs	APSR_nzcv, fpscr
 800b1b0:	bf8e      	itee	hi
 800b1b2:	ed84 6a04 	vstrhi	s12, [r4, #16]
 800b1b6:	eeb0 6a67 	vmovls.f32	s12, s15
 800b1ba:	edc4 7a04 	vstrls	s15, [r4, #16]
 800b1be:	f7ff bada 	b.w	800a776 <waveCompute+0x23e>
 800b1c2:	eddf 6aab 	vldr	s13, [pc, #684]	; 800b470 <waveCompute+0xf38>
 800b1c6:	eddf 7aab 	vldr	s15, [pc, #684]	; 800b474 <waveCompute+0xf3c>
 800b1ca:	ee68 6a26 	vmul.f32	s13, s16, s13
 800b1ce:	eef4 6ae7 	vcmpe.f32	s13, s15
 800b1d2:	eef1 fa10 	vmrs	APSR_nzcv, fpscr
 800b1d6:	f63f acd3 	bhi.w	800ab80 <waveCompute+0x648>
 800b1da:	eef0 6a67 	vmov.f32	s13, s15
 800b1de:	edc4 7a04 	vstr	s15, [r4, #16]
 800b1e2:	e4cf      	b.n	800ab84 <waveCompute+0x64c>
 800b1e4:	eddf 6aa2 	vldr	s13, [pc, #648]	; 800b470 <waveCompute+0xf38>
 800b1e8:	eddf 7aa2 	vldr	s15, [pc, #648]	; 800b474 <waveCompute+0xf3c>
 800b1ec:	ee65 6aa6 	vmul.f32	s13, s11, s13
 800b1f0:	eef4 6ae7 	vcmpe.f32	s13, s15
 800b1f4:	eef1 fa10 	vmrs	APSR_nzcv, fpscr
 800b1f8:	f63f ada7 	bhi.w	800ad4a <waveCompute+0x812>
 800b1fc:	eef0 6a67 	vmov.f32	s13, s15
 800b200:	edc3 7a04 	vstr	s15, [r3, #16]
 800b204:	e5a3      	b.n	800ad4e <waveCompute+0x816>
 800b206:	edd4 7a03 	vldr	s15, [r4, #12]
 800b20a:	eef5 7ac0 	vcmpe.f32	s15, #0.0
 800b20e:	eef1 fa10 	vmrs	APSR_nzcv, fpscr
 800b212:	d508      	bpl.n	800b226 <waveCompute+0xcee>
 800b214:	ed9f 7a95 	vldr	s14, [pc, #596]	; 800b46c <waveCompute+0xf34>
 800b218:	ee77 7a87 	vadd.f32	s15, s15, s14
 800b21c:	eef5 7ac0 	vcmpe.f32	s15, #0.0
 800b220:	eef1 fa10 	vmrs	APSR_nzcv, fpscr
 800b224:	d4f8      	bmi.n	800b218 <waveCompute+0xce0>
 800b226:	eddf 6a91 	vldr	s13, [pc, #580]	; 800b46c <waveCompute+0xf34>
 800b22a:	eef4 7ae6 	vcmpe.f32	s15, s13
 800b22e:	eef1 fa10 	vmrs	APSR_nzcv, fpscr
 800b232:	eeb0 7a67 	vmov.f32	s14, s15
 800b236:	db08      	blt.n	800b24a <waveCompute+0xd12>
 800b238:	eef0 7a66 	vmov.f32	s15, s13
 800b23c:	ee37 7a67 	vsub.f32	s14, s14, s15
 800b240:	eeb4 7ae7 	vcmpe.f32	s14, s15
 800b244:	eef1 fa10 	vmrs	APSR_nzcv, fpscr
 800b248:	daf8      	bge.n	800b23c <waveCompute+0xd04>
 800b24a:	eddf 7a8b 	vldr	s15, [pc, #556]	; 800b478 <waveCompute+0xf40>
 800b24e:	eeb4 7ae7 	vcmpe.f32	s14, s15
 800b252:	eef1 fa10 	vmrs	APSR_nzcv, fpscr
 800b256:	eec7 7a27 	vdiv.f32	s15, s14, s15
 800b25a:	f100 8135 	bmi.w	800b4c8 <waveCompute+0xf90>
 800b25e:	eef0 6a00 	vmov.f32	s13, #0
 800b262:	ee77 7ae6 	vsub.f32	s15, s15, s13
 800b266:	edd4 6a00 	vldr	s13, [r4]
 800b26a:	ee67 6aa6 	vmul.f32	s13, s15, s13
 800b26e:	eebe 0a00 	vmov.f32	s0, #224	; 0xe0
 800b272:	ee67 7aa6 	vmul.f32	s15, s15, s13
 800b276:	ee27 0a80 	vmul.f32	s0, s15, s0
 800b27a:	f7ff b9ca 	b.w	800a612 <waveCompute+0xda>
 800b27e:	ed9f 6a7e 	vldr	s12, [pc, #504]	; 800b478 <waveCompute+0xf40>
 800b282:	ed84 6a14 	vstr	s12, [r4, #80]	; 0x50
 800b286:	eef0 5a46 	vmov.f32	s11, s12
 800b28a:	e417      	b.n	800aabc <waveCompute+0x584>
 800b28c:	eeb8 6a00 	vmov.f32	s12, #128	; 0x80
 800b290:	ee86 6a25 	vdiv.f32	s12, s12, s11
 800b294:	eef7 6a00 	vmov.f32	s13, #112	; 0x70
 800b298:	eee7 6a06 	vfma.f32	s13, s14, s12
 800b29c:	ed94 6a10 	vldr	s12, [r4, #64]	; 0x40
 800b2a0:	ee66 6a86 	vmul.f32	s13, s13, s12
 800b2a4:	e422      	b.n	800aaec <waveCompute+0x5b4>
 800b2a6:	eddf 6a74 	vldr	s13, [pc, #464]	; 800b478 <waveCompute+0xf40>
 800b2aa:	edc4 6a0c 	vstr	s13, [r4, #48]	; 0x30
 800b2ae:	eef0 4a66 	vmov.f32	s9, s13
 800b2b2:	f7ff bba6 	b.w	800aa02 <waveCompute+0x4ca>
 800b2b6:	ed9f 7a70 	vldr	s14, [pc, #448]	; 800b478 <waveCompute+0xf40>
 800b2ba:	ed84 7a0c 	vstr	s14, [r4, #48]	; 0x30
 800b2be:	eef0 4a47 	vmov.f32	s9, s14
 800b2c2:	e4b8      	b.n	800ac36 <waveCompute+0x6fe>
 800b2c4:	ed9f 6a6c 	vldr	s12, [pc, #432]	; 800b478 <waveCompute+0xf40>
 800b2c8:	ed84 6a14 	vstr	s12, [r4, #80]	; 0x50
 800b2cc:	eef0 5a46 	vmov.f32	s11, s12
 800b2d0:	e5f8      	b.n	800aec4 <waveCompute+0x98c>
 800b2d2:	eddf 6a69 	vldr	s13, [pc, #420]	; 800b478 <waveCompute+0xf40>
 800b2d6:	edc4 6a0c 	vstr	s13, [r4, #48]	; 0x30
 800b2da:	eef0 5a66 	vmov.f32	s11, s13
 800b2de:	f7ff baa3 	b.w	800a828 <waveCompute+0x2f0>
 800b2e2:	eddf 6a65 	vldr	s13, [pc, #404]	; 800b478 <waveCompute+0xf40>
 800b2e6:	edc3 6a0c 	vstr	s13, [r3, #48]	; 0x30
 800b2ea:	eeb0 5a66 	vmov.f32	s10, s13
 800b2ee:	e58c      	b.n	800ae0a <waveCompute+0x8d2>
 800b2f0:	eef1 fa10 	vmrs	APSR_nzcv, fpscr
 800b2f4:	d508      	bpl.n	800b308 <waveCompute+0xdd0>
 800b2f6:	ed9f 7a5d 	vldr	s14, [pc, #372]	; 800b46c <waveCompute+0xf34>
 800b2fa:	ee77 7a87 	vadd.f32	s15, s15, s14
 800b2fe:	eef5 7ac0 	vcmpe.f32	s15, #0.0
 800b302:	eef1 fa10 	vmrs	APSR_nzcv, fpscr
 800b306:	d4f8      	bmi.n	800b2fa <waveCompute+0xdc2>
 800b308:	eddf 6a58 	vldr	s13, [pc, #352]	; 800b46c <waveCompute+0xf34>
 800b30c:	eef4 7ae6 	vcmpe.f32	s15, s13
 800b310:	eef1 fa10 	vmrs	APSR_nzcv, fpscr
 800b314:	eeb0 7a67 	vmov.f32	s14, s15
 800b318:	db08      	blt.n	800b32c <waveCompute+0xdf4>
 800b31a:	eef0 7a66 	vmov.f32	s15, s13
 800b31e:	ee37 7a67 	vsub.f32	s14, s14, s15
 800b322:	eeb4 7ae7 	vcmpe.f32	s14, s15
 800b326:	eef1 fa10 	vmrs	APSR_nzcv, fpscr
 800b32a:	daf8      	bge.n	800b31e <waveCompute+0xde6>
 800b32c:	eddf 7a52 	vldr	s15, [pc, #328]	; 800b478 <waveCompute+0xf40>
 800b330:	eeb4 7ae7 	vcmpe.f32	s14, s15
 800b334:	eef1 fa10 	vmrs	APSR_nzcv, fpscr
 800b338:	eec7 6a27 	vdiv.f32	s13, s14, s15
 800b33c:	edd4 7a00 	vldr	s15, [r4]
 800b340:	f100 80ae 	bmi.w	800b4a0 <waveCompute+0xf68>
 800b344:	eeb0 0a00 	vmov.f32	s0, #0
 800b348:	eeb6 6a00 	vmov.f32	s12, #96	; 0x60
 800b34c:	ee76 6ac0 	vsub.f32	s13, s13, s0
 800b350:	ee67 7a86 	vmul.f32	s15, s15, s12
 800b354:	ee27 0aa6 	vmul.f32	s0, s15, s13
 800b358:	f7ff b95b 	b.w	800a612 <waveCompute+0xda>
 800b35c:	eef8 7a00 	vmov.f32	s15, #128	; 0x80
 800b360:	eec7 6aa6 	vdiv.f32	s13, s15, s13
 800b364:	eef7 7a00 	vmov.f32	s15, #112	; 0x70
 800b368:	eee6 7a87 	vfma.f32	s15, s13, s14
 800b36c:	edd4 6a00 	vldr	s13, [r4]
 800b370:	ee67 7aa6 	vmul.f32	s15, s15, s13
 800b374:	e503      	b.n	800ad7e <waveCompute+0x846>
 800b376:	eef8 6a00 	vmov.f32	s13, #128	; 0x80
 800b37a:	eec6 6aa4 	vdiv.f32	s13, s13, s9
 800b37e:	eeb7 6a00 	vmov.f32	s12, #112	; 0x70
 800b382:	eea7 6a26 	vfma.f32	s12, s14, s13
 800b386:	eef0 6a46 	vmov.f32	s13, s12
 800b38a:	ed94 6a08 	vldr	s12, [r4, #32]
 800b38e:	ee26 6a86 	vmul.f32	s12, s13, s12
 800b392:	f7ff bb4e 	b.w	800aa32 <waveCompute+0x4fa>
 800b396:	eeb8 7a00 	vmov.f32	s14, #128	; 0x80
 800b39a:	ee87 7a06 	vdiv.f32	s14, s14, s12
 800b39e:	eef7 7a00 	vmov.f32	s15, #112	; 0x70
 800b3a2:	eee6 7a87 	vfma.f32	s15, s13, s14
 800b3a6:	ed94 7a00 	vldr	s14, [r4]
 800b3aa:	ee67 7a87 	vmul.f32	s15, s15, s14
 800b3ae:	f7ff b9fa 	b.w	800a7a6 <waveCompute+0x26e>
 800b3b2:	eef8 7a00 	vmov.f32	s15, #128	; 0x80
 800b3b6:	eec7 6aa6 	vdiv.f32	s13, s15, s13
 800b3ba:	eef7 7a00 	vmov.f32	s15, #112	; 0x70
 800b3be:	eee7 7a26 	vfma.f32	s15, s14, s13
 800b3c2:	edd4 6a00 	vldr	s13, [r4]
 800b3c6:	ee67 7aa6 	vmul.f32	s15, s15, s13
 800b3ca:	f7ff bbf3 	b.w	800abb4 <waveCompute+0x67c>
 800b3ce:	eeb8 7a00 	vmov.f32	s14, #128	; 0x80
 800b3d2:	ee87 7a24 	vdiv.f32	s14, s14, s9
 800b3d6:	eeb7 6a00 	vmov.f32	s12, #112	; 0x70
 800b3da:	eea6 6a87 	vfma.f32	s12, s13, s14
 800b3de:	eeb0 7a46 	vmov.f32	s14, s12
 800b3e2:	ed94 6a08 	vldr	s12, [r4, #32]
 800b3e6:	ee27 6a06 	vmul.f32	s12, s14, s12
 800b3ea:	e43c      	b.n	800ac66 <waveCompute+0x72e>
 800b3ec:	eeb8 6a00 	vmov.f32	s12, #128	; 0x80
 800b3f0:	ee86 6a25 	vdiv.f32	s12, s12, s11
 800b3f4:	eef7 6a00 	vmov.f32	s13, #112	; 0x70
 800b3f8:	eee6 6a07 	vfma.f32	s13, s12, s14
 800b3fc:	ed94 6a10 	vldr	s12, [r4, #64]	; 0x40
 800b400:	ee66 6a86 	vmul.f32	s13, s13, s12
 800b404:	e576      	b.n	800aef4 <waveCompute+0x9bc>
 800b406:	eef8 6a00 	vmov.f32	s13, #128	; 0x80
 800b40a:	eec6 6aa5 	vdiv.f32	s13, s13, s11
 800b40e:	eeb7 0a00 	vmov.f32	s0, #112	; 0x70
 800b412:	eea7 0a26 	vfma.f32	s0, s14, s13
 800b416:	eef0 6a40 	vmov.f32	s13, s0
 800b41a:	ed94 0a08 	vldr	s0, [r4, #32]
 800b41e:	ee26 0a80 	vmul.f32	s0, s13, s0
 800b422:	f7ff ba19 	b.w	800a858 <waveCompute+0x320>
 800b426:	eef8 6a00 	vmov.f32	s13, #128	; 0x80
 800b42a:	eec6 6a85 	vdiv.f32	s13, s13, s10
 800b42e:	eeb7 6a00 	vmov.f32	s12, #112	; 0x70
 800b432:	eea6 6a87 	vfma.f32	s12, s13, s14
 800b436:	eef0 6a46 	vmov.f32	s13, s12
 800b43a:	ed94 6a08 	vldr	s12, [r4, #32]
 800b43e:	ee26 6a86 	vmul.f32	s12, s13, s12
 800b442:	e4fa      	b.n	800ae3a <waveCompute+0x902>
 800b444:	eeb8 7a00 	vmov.f32	s14, #128	; 0x80
 800b448:	ee87 7a06 	vdiv.f32	s14, s14, s12
 800b44c:	eef7 7a00 	vmov.f32	s15, #112	; 0x70
 800b450:	eee6 7a87 	vfma.f32	s15, s13, s14
 800b454:	ed94 0a00 	vldr	s0, [r4]
 800b458:	ee67 7a80 	vmul.f32	s15, s15, s0
 800b45c:	e5cf      	b.n	800affe <waveCompute+0xac6>
 800b45e:	bf00      	nop
 800b460:	0801c73c 	.word	0x0801c73c
 800b464:	3909421f 	.word	0x3909421f
 800b468:	3f4ccccd 	.word	0x3f4ccccd
 800b46c:	40c90fdb 	.word	0x40c90fdb
 800b470:	39cde32e 	.word	0x39cde32e
 800b474:	38d1b717 	.word	0x38d1b717
 800b478:	40490fdb 	.word	0x40490fdb
 800b47c:	bf22f983 	.word	0xbf22f983
 800b480:	00000000 	.word	0x00000000
 800b484:	eef8 7a00 	vmov.f32	s15, #128	; 0x80
 800b488:	eec7 6aa6 	vdiv.f32	s13, s15, s13
 800b48c:	eef7 7a00 	vmov.f32	s15, #112	; 0x70
 800b490:	eee7 7a26 	vfma.f32	s15, s14, s13
 800b494:	edd4 6a00 	vldr	s13, [r4]
 800b498:	ee67 7aa6 	vmul.f32	s15, s15, s13
 800b49c:	f7ff ba6e 	b.w	800a97c <waveCompute+0x444>
 800b4a0:	eeb6 0a00 	vmov.f32	s0, #96	; 0x60
 800b4a4:	ee67 7a80 	vmul.f32	s15, s15, s0
 800b4a8:	ee27 0aa6 	vmul.f32	s0, s15, s13
 800b4ac:	f7ff b8b1 	b.w	800a612 <waveCompute+0xda>
 800b4b0:	ed5f 6a0e 	vldr	s13, [pc, #-56]	; 800b47c <waveCompute+0xf44>
 800b4b4:	ed94 0a00 	vldr	s0, [r4]
 800b4b8:	eef7 7a00 	vmov.f32	s15, #112	; 0x70
 800b4bc:	eee7 7a26 	vfma.f32	s15, s14, s13
 800b4c0:	ee27 0a80 	vmul.f32	s0, s15, s0
 800b4c4:	f7ff b8a5 	b.w	800a612 <waveCompute+0xda>
 800b4c8:	edd4 6a00 	vldr	s13, [r4]
 800b4cc:	eeb6 0a00 	vmov.f32	s0, #96	; 0x60
 800b4d0:	ee26 0a80 	vmul.f32	s0, s13, s0
 800b4d4:	ee20 0a27 	vmul.f32	s0, s0, s15
 800b4d8:	ee27 0a80 	vmul.f32	s0, s15, s0
 800b4dc:	f7ff b899 	b.w	800a612 <waveCompute+0xda>
 800b4e0:	ed1f 0a19 	vldr	s0, [pc, #-100]	; 800b480 <waveCompute+0xf48>
 800b4e4:	f7ff b90d 	b.w	800a702 <waveCompute+0x1ca>

0800b4e8 <PhaserInit>:
PhaserInit():
 800b4e8:	e92d 4ff0 	stmdb	sp!, {r4, r5, r6, r7, r8, r9, sl, fp, lr}
 800b4ec:	4b11      	ldr	r3, [pc, #68]	; (800b534 <PhaserInit+0x4c>)
 800b4ee:	4a12      	ldr	r2, [pc, #72]	; (800b538 <PhaserInit+0x50>)
 800b4f0:	601a      	str	r2, [r3, #0]
 800b4f2:	f8df a068 	ldr.w	sl, [pc, #104]	; 800b55c <PhaserInit+0x74>
 800b4f6:	f8df 8068 	ldr.w	r8, [pc, #104]	; 800b560 <PhaserInit+0x78>
 800b4fa:	f8df e068 	ldr.w	lr, [pc, #104]	; 800b564 <PhaserInit+0x7c>
 800b4fe:	4e0f      	ldr	r6, [pc, #60]	; (800b53c <PhaserInit+0x54>)
 800b500:	4c0f      	ldr	r4, [pc, #60]	; (800b540 <PhaserInit+0x58>)
 800b502:	4910      	ldr	r1, [pc, #64]	; (800b544 <PhaserInit+0x5c>)
 800b504:	4b10      	ldr	r3, [pc, #64]	; (800b548 <PhaserInit+0x60>)
 800b506:	f8df b060 	ldr.w	fp, [pc, #96]	; 800b568 <PhaserInit+0x80>
 800b50a:	f8df 9060 	ldr.w	r9, [pc, #96]	; 800b56c <PhaserInit+0x84>
 800b50e:	f8df c060 	ldr.w	ip, [pc, #96]	; 800b570 <PhaserInit+0x88>
 800b512:	4f0e      	ldr	r7, [pc, #56]	; (800b54c <PhaserInit+0x64>)
 800b514:	4d0e      	ldr	r5, [pc, #56]	; (800b550 <PhaserInit+0x68>)
 800b516:	480f      	ldr	r0, [pc, #60]	; (800b554 <PhaserInit+0x6c>)
 800b518:	4a0f      	ldr	r2, [pc, #60]	; (800b558 <PhaserInit+0x70>)
 800b51a:	f8ca b000 	str.w	fp, [sl]
 800b51e:	f8c8 9000 	str.w	r9, [r8]
 800b522:	f8ce c000 	str.w	ip, [lr]
 800b526:	6037      	str	r7, [r6, #0]
 800b528:	6025      	str	r5, [r4, #0]
 800b52a:	6008      	str	r0, [r1, #0]
 800b52c:	601a      	str	r2, [r3, #0]
 800b52e:	e8bd 8ff0 	ldmia.w	sp!, {r4, r5, r6, r7, r8, r9, sl, fp, pc}
 800b532:	bf00      	nop
 800b534:	2001de8c 	.word	0x2001de8c
 800b538:	43480000 	.word	0x43480000
 800b53c:	2001de70 	.word	0x2001de70
 800b540:	2001de94 	.word	0x2001de94
 800b544:	2001de54 	.word	0x2001de54
 800b548:	2001de6c 	.word	0x2001de6c
 800b54c:	3e99999a 	.word	0x3e99999a
 800b550:	3c088889 	.word	0x3c088889
 800b554:	3d911111 	.word	0x3d911111
 800b558:	375b9cfe 	.word	0x375b9cfe
 800b55c:	2001de90 	.word	0x2001de90
 800b560:	2001de58 	.word	0x2001de58
 800b564:	2001de68 	.word	0x2001de68
 800b568:	44d48000 	.word	0x44d48000
 800b56c:	3dcccccd 	.word	0x3dcccccd
 800b570:	3f333333 	.word	0x3f333333

0800b574 <Phaser_Rate_set>:
Phaser_Rate_set():
 800b574:	ee07 0a90 	vmov	s15, r0
 800b578:	ed9f 6a0b 	vldr	s12, [pc, #44]	; 800b5a8 <Phaser_Rate_set+0x34>
 800b57c:	ed9f 7a0b 	vldr	s14, [pc, #44]	; 800b5ac <Phaser_Rate_set+0x38>
 800b580:	eddf 6a0b 	vldr	s13, [pc, #44]	; 800b5b0 <Phaser_Rate_set+0x3c>
 800b584:	4a0b      	ldr	r2, [pc, #44]	; (800b5b4 <Phaser_Rate_set+0x40>)
 800b586:	4b0c      	ldr	r3, [pc, #48]	; (800b5b8 <Phaser_Rate_set+0x44>)
 800b588:	eef8 5ae7 	vcvt.f32.s32	s11, s15
 800b58c:	eddf 7a0b 	vldr	s15, [pc, #44]	; 800b5bc <Phaser_Rate_set+0x48>
 800b590:	eea5 7a86 	vfma.f32	s14, s11, s12
 800b594:	ee67 7a27 	vmul.f32	s15, s14, s15
 800b598:	ed82 7a00 	vstr	s14, [r2]
 800b59c:	eec7 7aa6 	vdiv.f32	s15, s15, s13
 800b5a0:	edc3 7a00 	vstr	s15, [r3]
 800b5a4:	4770      	bx	lr
 800b5a6:	bf00      	nop
 800b5a8:	3d611e66 	.word	0x3d611e66
 800b5ac:	3ca3d70a 	.word	0x3ca3d70a
 800b5b0:	473b8000 	.word	0x473b8000
 800b5b4:	2001de58 	.word	0x2001de58
 800b5b8:	2001de6c 	.word	0x2001de6c
 800b5bc:	40c90fdb 	.word	0x40c90fdb

0800b5c0 <Phaser_Feedback_set>:
Phaser_Feedback_set():
 800b5c0:	ee07 0a90 	vmov	s15, r0
 800b5c4:	eeb8 7ae7 	vcvt.f32.s32	s14, s15
 800b5c8:	eddf 7a05 	vldr	s15, [pc, #20]	; 800b5e0 <Phaser_Feedback_set+0x20>
 800b5cc:	eddf 6a05 	vldr	s13, [pc, #20]	; 800b5e4 <Phaser_Feedback_set+0x24>
 800b5d0:	4b05      	ldr	r3, [pc, #20]	; (800b5e8 <Phaser_Feedback_set+0x28>)
 800b5d2:	ee67 7a27 	vmul.f32	s15, s14, s15
 800b5d6:	eec7 7aa6 	vdiv.f32	s15, s15, s13
 800b5da:	edc3 7a00 	vstr	s15, [r3]
 800b5de:	4770      	bx	lr
 800b5e0:	3f7fbe77 	.word	0x3f7fbe77
 800b5e4:	42fe0000 	.word	0x42fe0000
 800b5e8:	2001de68 	.word	0x2001de68

0800b5ec <Phaser_Wet_set>:
Phaser_Wet_set():
 800b5ec:	ee07 0a90 	vmov	s15, r0
 800b5f0:	ed9f 7a04 	vldr	s14, [pc, #16]	; 800b604 <Phaser_Wet_set+0x18>
 800b5f4:	4b04      	ldr	r3, [pc, #16]	; (800b608 <Phaser_Wet_set+0x1c>)
 800b5f6:	eef8 7ae7 	vcvt.f32.s32	s15, s15
 800b5fa:	eec7 7a87 	vdiv.f32	s15, s15, s14
 800b5fe:	edc3 7a00 	vstr	s15, [r3]
 800b602:	4770      	bx	lr
 800b604:	42fe0000 	.word	0x42fe0000
 800b608:	2001de70 	.word	0x2001de70

0800b60c <Phaser_compute>:
Phaser_compute():
 800b60c:	b510      	push	{r4, lr}
 800b60e:	4c49      	ldr	r4, [pc, #292]	; (800b734 <Phaser_compute+0x128>)
 800b610:	eddf 7a49 	vldr	s15, [pc, #292]	; 800b738 <Phaser_compute+0x12c>
 800b614:	4a49      	ldr	r2, [pc, #292]	; (800b73c <Phaser_compute+0x130>)
 800b616:	4b4a      	ldr	r3, [pc, #296]	; (800b740 <Phaser_compute+0x134>)
 800b618:	ed2d 8b04 	vpush	{d8-d9}
 800b61c:	ed94 9a00 	vldr	s18, [r4]
 800b620:	edd2 8a00 	vldr	s17, [r2]
 800b624:	edd3 9a00 	vldr	s19, [r3]
 800b628:	eeb0 8a40 	vmov.f32	s16, s0
 800b62c:	ee29 0a27 	vmul.f32	s0, s18, s15
 800b630:	f001 fa98 	bl	800cb64 <lrintf>
 800b634:	4b43      	ldr	r3, [pc, #268]	; (800b744 <Phaser_compute+0x138>)
 800b636:	4a44      	ldr	r2, [pc, #272]	; (800b748 <Phaser_compute+0x13c>)
 800b638:	ed9f 7a44 	vldr	s14, [pc, #272]	; 800b74c <Phaser_compute+0x140>
 800b63c:	ed92 6a00 	vldr	s12, [r2]
 800b640:	4a43      	ldr	r2, [pc, #268]	; (800b750 <Phaser_compute+0x144>)
 800b642:	4944      	ldr	r1, [pc, #272]	; (800b754 <Phaser_compute+0x148>)
 800b644:	edd2 2a00 	vldr	s5, [r2]
 800b648:	ed91 0a00 	vldr	s0, [r1]
 800b64c:	4942      	ldr	r1, [pc, #264]	; (800b758 <Phaser_compute+0x14c>)
 800b64e:	eb03 0080 	add.w	r0, r3, r0, lsl #2
 800b652:	edd0 7a00 	vldr	s15, [r0]
 800b656:	4b41      	ldr	r3, [pc, #260]	; (800b75c <Phaser_compute+0x150>)
 800b658:	eef7 6a00 	vmov.f32	s13, #112	; 0x70
 800b65c:	ee77 7aa6 	vadd.f32	s15, s15, s13
 800b660:	eef6 6a00 	vmov.f32	s13, #96	; 0x60
 800b664:	ee67 7aa6 	vmul.f32	s15, s15, s13
 800b668:	ee79 9ae8 	vsub.f32	s19, s19, s17
 800b66c:	ee39 9a06 	vadd.f32	s18, s18, s12
 800b670:	eee9 8aa7 	vfma.f32	s17, s19, s15
 800b674:	eeb4 9ac7 	vcmpe.f32	s18, s14
 800b678:	eeb7 4a00 	vmov.f32	s8, #112	; 0x70
 800b67c:	eef1 fa10 	vmrs	APSR_nzcv, fpscr
 800b680:	bfa8      	it	ge
 800b682:	ee39 9a47 	vsubge.f32	s18, s18, s14
 800b686:	ee34 7a68 	vsub.f32	s14, s8, s17
 800b68a:	ee78 8a84 	vadd.f32	s17, s17, s8
 800b68e:	ed93 3a00 	vldr	s6, [r3]
 800b692:	4b33      	ldr	r3, [pc, #204]	; (800b760 <Phaser_compute+0x154>)
 800b694:	ed84 9a00 	vstr	s18, [r4]
 800b698:	eec7 7a28 	vdiv.f32	s15, s14, s17
 800b69c:	eeb0 7a48 	vmov.f32	s14, s16
 800b6a0:	eea2 7a83 	vfma.f32	s14, s5, s6
 800b6a4:	edd3 4a00 	vldr	s9, [r3]
 800b6a8:	ed93 5a01 	vldr	s10, [r3, #4]
 800b6ac:	edd3 5a02 	vldr	s11, [r3, #8]
 800b6b0:	ed93 6a03 	vldr	s12, [r3, #12]
 800b6b4:	edd3 6a04 	vldr	s13, [r3, #16]
 800b6b8:	edd3 3a05 	vldr	s7, [r3, #20]
 800b6bc:	edc1 7a00 	vstr	s15, [r1]
 800b6c0:	eee7 4a67 	vfms.f32	s9, s14, s15
 800b6c4:	eeb0 3a47 	vmov.f32	s6, s14
 800b6c8:	eeb0 7a45 	vmov.f32	s14, s10
 800b6cc:	eea4 7ae7 	vfms.f32	s14, s9, s15
 800b6d0:	eea7 3aa4 	vfma.f32	s6, s15, s9
 800b6d4:	eee7 5a67 	vfms.f32	s11, s14, s15
 800b6d8:	eee7 4a87 	vfma.f32	s9, s15, s14
 800b6dc:	eea7 7aa5 	vfma.f32	s14, s15, s11
 800b6e0:	eea5 6ae7 	vfms.f32	s12, s11, s15
 800b6e4:	eeb0 5a47 	vmov.f32	s10, s14
 800b6e8:	eeb0 7a66 	vmov.f32	s14, s13
 800b6ec:	eea6 7a67 	vfms.f32	s14, s12, s15
 800b6f0:	eef0 6a63 	vmov.f32	s13, s7
 800b6f4:	eee7 6a67 	vfms.f32	s13, s14, s15
 800b6f8:	ee34 4a40 	vsub.f32	s8, s8, s0
 800b6fc:	ee20 0a26 	vmul.f32	s0, s0, s13
 800b700:	eee7 5a86 	vfma.f32	s11, s15, s12
 800b704:	eea4 0a08 	vfma.f32	s0, s8, s16
 800b708:	ecbd 8b04 	vpop	{d8-d9}
 800b70c:	eea7 6a87 	vfma.f32	s12, s15, s14
 800b710:	eea7 7aa6 	vfma.f32	s14, s15, s13
 800b714:	ed83 3a00 	vstr	s6, [r3]
 800b718:	edc3 4a01 	vstr	s9, [r3, #4]
 800b71c:	ed83 5a02 	vstr	s10, [r3, #8]
 800b720:	edc3 5a03 	vstr	s11, [r3, #12]
 800b724:	ed83 6a04 	vstr	s12, [r3, #16]
 800b728:	ed83 7a05 	vstr	s14, [r3, #20]
 800b72c:	edc2 6a00 	vstr	s13, [r2]
 800b730:	bd10      	pop	{r4, pc}
 800b732:	bf00      	nop
 800b734:	2001de5c 	.word	0x2001de5c
 800b738:	4322f983 	.word	0x4322f983
 800b73c:	2001de94 	.word	0x2001de94
 800b740:	2001de54 	.word	0x2001de54
 800b744:	0801c73c 	.word	0x0801c73c
 800b748:	2001de6c 	.word	0x2001de6c
 800b74c:	40c90fdb 	.word	0x40c90fdb
 800b750:	2001de64 	.word	0x2001de64
 800b754:	2001de70 	.word	0x2001de70
 800b758:	2001de60 	.word	0x2001de60
 800b75c:	2001de68 	.word	0x2001de68
 800b760:	2001de74 	.word	0x2001de74

0800b764 <HAL_RNG_MspInit>:
HAL_RNG_MspInit():
 800b764:	4a05      	ldr	r2, [pc, #20]	; (800b77c <HAL_RNG_MspInit+0x18>)
 800b766:	4906      	ldr	r1, [pc, #24]	; (800b780 <HAL_RNG_MspInit+0x1c>)
 800b768:	6b53      	ldr	r3, [r2, #52]	; 0x34
 800b76a:	f043 0340 	orr.w	r3, r3, #64	; 0x40
 800b76e:	6353      	str	r3, [r2, #52]	; 0x34
 800b770:	680a      	ldr	r2, [r1, #0]
 800b772:	6813      	ldr	r3, [r2, #0]
 800b774:	f043 0304 	orr.w	r3, r3, #4
 800b778:	6013      	str	r3, [r2, #0]
 800b77a:	4770      	bx	lr
 800b77c:	40023800 	.word	0x40023800
 800b780:	2001f81c 	.word	0x2001f81c

0800b784 <randomGen_init>:
randomGen_init():
 800b784:	4807      	ldr	r0, [pc, #28]	; (800b7a4 <randomGen_init+0x20>)
 800b786:	b508      	push	{r3, lr}
 800b788:	4b07      	ldr	r3, [pc, #28]	; (800b7a8 <randomGen_init+0x24>)
 800b78a:	6003      	str	r3, [r0, #0]
 800b78c:	f7fa f920 	bl	80059d0 <HAL_RNG_Init>
 800b790:	b108      	cbz	r0, 800b796 <randomGen_init+0x12>
 800b792:	f7fe f9b3 	bl	8009afc <Error_Handler>
 800b796:	4803      	ldr	r0, [pc, #12]	; (800b7a4 <randomGen_init+0x20>)
 800b798:	f7fa f930 	bl	80059fc <HAL_RNG_GetRandomNumber>
 800b79c:	e8bd 4008 	ldmia.w	sp!, {r3, lr}
 800b7a0:	f003 b910 	b.w	800e9c4 <srand>
 800b7a4:	2001f81c 	.word	0x2001f81c
 800b7a8:	50060800 	.word	0x50060800

0800b7ac <frand_a_b>:
frand_a_b():
 800b7ac:	b508      	push	{r3, lr}
 800b7ae:	ed2d 8b02 	vpush	{d8}
 800b7b2:	eef0 8a40 	vmov.f32	s17, s0
 800b7b6:	eeb0 8a60 	vmov.f32	s16, s1
 800b7ba:	f003 f90d 	bl	800e9d8 <rand>
 800b7be:	ee07 0a90 	vmov	s15, r0
 800b7c2:	ee38 8a68 	vsub.f32	s16, s16, s17
 800b7c6:	eefa 7ae0 	vcvt.f32.s32	s15, s15, #31
 800b7ca:	eeb0 0a68 	vmov.f32	s0, s17
 800b7ce:	eea7 0a88 	vfma.f32	s0, s15, s16
 800b7d2:	ecbd 8b02 	vpop	{d8}
 800b7d6:	bd08      	pop	{r3, pc}

0800b7d8 <MIDIrandVal>:
MIDIrandVal():
 800b7d8:	b508      	push	{r3, lr}
 800b7da:	f003 f8fd 	bl	800e9d8 <rand>
 800b7de:	ee07 0a10 	vmov	s14, r0
 800b7e2:	eddf 7a06 	vldr	s15, [pc, #24]	; 800b7fc <MIDIrandVal+0x24>
 800b7e6:	ed9f 0a06 	vldr	s0, [pc, #24]	; 800b800 <MIDIrandVal+0x28>
 800b7ea:	eeba 7ae0 	vcvt.f32.s32	s14, s14, #31
 800b7ee:	eea7 0a27 	vfma.f32	s0, s14, s15
 800b7f2:	f001 f9b7 	bl	800cb64 <lrintf>
 800b7f6:	b2c0      	uxtb	r0, r0
 800b7f8:	bd08      	pop	{r3, pc}
 800b7fa:	bf00      	nop
 800b7fc:	42fe0000 	.word	0x42fe0000
 800b800:	00000000 	.word	0x00000000

0800b804 <SVF_directSetFilterValue>:
SVF_directSetFilterValue():
 800b804:	eddf 7a11 	vldr	s15, [pc, #68]	; 800b84c <SVF_directSetFilterValue+0x48>
 800b808:	eeb4 0ae7 	vcmpe.f32	s0, s15
 800b80c:	eef1 fa10 	vmrs	APSR_nzcv, fpscr
 800b810:	b510      	push	{r4, lr}
 800b812:	4604      	mov	r4, r0
 800b814:	dd0a      	ble.n	800b82c <SVF_directSetFilterValue+0x28>
 800b816:	eddf 7a0e 	vldr	s15, [pc, #56]	; 800b850 <SVF_directSetFilterValue+0x4c>
 800b81a:	ed9f 0a0e 	vldr	s0, [pc, #56]	; 800b854 <SVF_directSetFilterValue+0x50>
 800b81e:	edc4 7a01 	vstr	s15, [r4, #4]
 800b822:	f7fe fa69 	bl	8009cf8 <fastTan>
 800b826:	ed84 0a02 	vstr	s0, [r4, #8]
 800b82a:	bd10      	pop	{r4, pc}
 800b82c:	eef6 7a00 	vmov.f32	s15, #96	; 0x60
 800b830:	ee60 7a27 	vmul.f32	s15, s0, s15
 800b834:	ed9f 0a08 	vldr	s0, [pc, #32]	; 800b858 <SVF_directSetFilterValue+0x54>
 800b838:	edc4 7a01 	vstr	s15, [r4, #4]
 800b83c:	ee27 0a80 	vmul.f32	s0, s15, s0
 800b840:	f7fe fa5a 	bl	8009cf8 <fastTan>
 800b844:	ed84 0a02 	vstr	s0, [r4, #8]
 800b848:	bd10      	pop	{r4, pc}
 800b84a:	bf00      	nop
 800b84c:	3f733333 	.word	0x3f733333
 800b850:	3ef33333 	.word	0x3ef33333
 800b854:	3fbf0243 	.word	0x3fbf0243
 800b858:	40490fdb 	.word	0x40490fdb

0800b85c <SVF_init>:
SVF_init():
 800b85c:	e92d 43f8 	stmdb	sp!, {r3, r4, r5, r6, r7, r8, r9, lr}
 800b860:	ed2d 8b02 	vpush	{d8}
 800b864:	ed9f 8a16 	vldr	s16, [pc, #88]	; 800b8c0 <SVF_init+0x64>
 800b868:	4c16      	ldr	r4, [pc, #88]	; (800b8c4 <SVF_init+0x68>)
 800b86a:	f8df 8060 	ldr.w	r8, [pc, #96]	; 800b8cc <SVF_init+0x70>
 800b86e:	4f16      	ldr	r7, [pc, #88]	; (800b8c8 <SVF_init+0x6c>)
 800b870:	f8c4 800c 	str.w	r8, [r4, #12]
 800b874:	2500      	movs	r5, #0
 800b876:	eeb0 0a48 	vmov.f32	s0, s16
 800b87a:	f04f 0901 	mov.w	r9, #1
 800b87e:	f04f 5678 	mov.w	r6, #1040187392	; 0x3e000000
 800b882:	6125      	str	r5, [r4, #16]
 800b884:	f884 9000 	strb.w	r9, [r4]
 800b888:	6165      	str	r5, [r4, #20]
 800b88a:	61a7      	str	r7, [r4, #24]
 800b88c:	6066      	str	r6, [r4, #4]
 800b88e:	f7fe fa33 	bl	8009cf8 <fastTan>
 800b892:	ed84 0a02 	vstr	s0, [r4, #8]
 800b896:	eeb0 0a48 	vmov.f32	s0, s16
 800b89a:	61e5      	str	r5, [r4, #28]
 800b89c:	f884 9020 	strb.w	r9, [r4, #32]
 800b8a0:	6325      	str	r5, [r4, #48]	; 0x30
 800b8a2:	6365      	str	r5, [r4, #52]	; 0x34
 800b8a4:	f8c4 802c 	str.w	r8, [r4, #44]	; 0x2c
 800b8a8:	63a7      	str	r7, [r4, #56]	; 0x38
 800b8aa:	6266      	str	r6, [r4, #36]	; 0x24
 800b8ac:	f7fe fa24 	bl	8009cf8 <fastTan>
 800b8b0:	ecbd 8b02 	vpop	{d8}
 800b8b4:	63e5      	str	r5, [r4, #60]	; 0x3c
 800b8b6:	ed84 0a0a 	vstr	s0, [r4, #40]	; 0x28
 800b8ba:	e8bd 83f8 	ldmia.w	sp!, {r3, r4, r5, r6, r7, r8, r9, pc}
 800b8be:	bf00      	nop
 800b8c0:	3ec90fdb 	.word	0x3ec90fdb
 800b8c4:	10003e14 	.word	0x10003e14
 800b8c8:	3ecccccd 	.word	0x3ecccccd
 800b8cc:	3f666666 	.word	0x3f666666

0800b8d0 <Filter1Freq_set>:
Filter1Freq_set():
 800b8d0:	b510      	push	{r4, lr}
 800b8d2:	ed9f 0a14 	vldr	s0, [pc, #80]	; 800b924 <Filter1Freq_set+0x54>
 800b8d6:	eddf 0a14 	vldr	s1, [pc, #80]	; 800b928 <Filter1Freq_set+0x58>
 800b8da:	f7fe f98b 	bl	8009bf4 <Lin2Exp>
 800b8de:	eddf 7a13 	vldr	s15, [pc, #76]	; 800b92c <Filter1Freq_set+0x5c>
 800b8e2:	ed9f 7a13 	vldr	s14, [pc, #76]	; 800b930 <Filter1Freq_set+0x60>
 800b8e6:	4b13      	ldr	r3, [pc, #76]	; (800b934 <Filter1Freq_set+0x64>)
 800b8e8:	ee80 0a27 	vdiv.f32	s0, s0, s15
 800b8ec:	eeb4 0ac7 	vcmpe.f32	s0, s14
 800b8f0:	eef1 fa10 	vmrs	APSR_nzcv, fpscr
 800b8f4:	ed83 0a00 	vstr	s0, [r3]
 800b8f8:	dd0b      	ble.n	800b912 <Filter1Freq_set+0x42>
 800b8fa:	ed9f 0a0f 	vldr	s0, [pc, #60]	; 800b938 <Filter1Freq_set+0x68>
 800b8fe:	eddf 7a0f 	vldr	s15, [pc, #60]	; 800b93c <Filter1Freq_set+0x6c>
 800b902:	4c0f      	ldr	r4, [pc, #60]	; (800b940 <Filter1Freq_set+0x70>)
 800b904:	edc4 7a01 	vstr	s15, [r4, #4]
 800b908:	f7fe f9f6 	bl	8009cf8 <fastTan>
 800b90c:	ed84 0a02 	vstr	s0, [r4, #8]
 800b910:	bd10      	pop	{r4, pc}
 800b912:	eef6 7a00 	vmov.f32	s15, #96	; 0x60
 800b916:	ee60 7a27 	vmul.f32	s15, s0, s15
 800b91a:	ed9f 0a0a 	vldr	s0, [pc, #40]	; 800b944 <Filter1Freq_set+0x74>
 800b91e:	ee27 0a80 	vmul.f32	s0, s15, s0
 800b922:	e7ee      	b.n	800b902 <Filter1Freq_set+0x32>
 800b924:	42a00000 	.word	0x42a00000
 800b928:	45fa0000 	.word	0x45fa0000
 800b92c:	473b8000 	.word	0x473b8000
 800b930:	3f733333 	.word	0x3f733333
 800b934:	2001f828 	.word	0x2001f828
 800b938:	3fbf0243 	.word	0x3fbf0243
 800b93c:	3ef33333 	.word	0x3ef33333
 800b940:	10003e14 	.word	0x10003e14
 800b944:	40490fdb 	.word	0x40490fdb

0800b948 <Filter1Res_set>:
Filter1Res_set():
 800b948:	ee07 0a90 	vmov	s15, r0
 800b94c:	ed9f 7a0b 	vldr	s14, [pc, #44]	; 800b97c <Filter1Res_set+0x34>
 800b950:	eddf 6a0b 	vldr	s13, [pc, #44]	; 800b980 <Filter1Res_set+0x38>
 800b954:	4b0b      	ldr	r3, [pc, #44]	; (800b984 <Filter1Res_set+0x3c>)
 800b956:	eef8 7ae7 	vcvt.f32.s32	s15, s15
 800b95a:	ee87 7a87 	vdiv.f32	s14, s15, s14
 800b95e:	eef7 7a00 	vmov.f32	s15, #112	; 0x70
 800b962:	ee77 7ac7 	vsub.f32	s15, s15, s14
 800b966:	eef4 7ae6 	vcmpe.f32	s15, s13
 800b96a:	eef1 fa10 	vmrs	APSR_nzcv, fpscr
 800b96e:	bf54      	ite	pl
 800b970:	edc3 7a03 	vstrpl	s15, [r3, #12]
 800b974:	edc3 6a03 	vstrmi	s13, [r3, #12]
 800b978:	4770      	bx	lr
 800b97a:	bf00      	nop
 800b97c:	42fe0000 	.word	0x42fe0000
 800b980:	3c23d70a 	.word	0x3c23d70a
 800b984:	10003e14 	.word	0x10003e14

0800b988 <Filter1Drive_set>:
Filter1Drive_set():
 800b988:	ee07 0a90 	vmov	s15, r0
 800b98c:	ed9f 7a07 	vldr	s14, [pc, #28]	; 800b9ac <Filter1Drive_set+0x24>
 800b990:	4b07      	ldr	r3, [pc, #28]	; (800b9b0 <Filter1Drive_set+0x28>)
 800b992:	eef8 7ae7 	vcvt.f32.s32	s15, s15
 800b996:	eec7 7a87 	vdiv.f32	s15, s15, s14
 800b99a:	eeb1 7a08 	vmov.f32	s14, #24
 800b99e:	ee67 7aa7 	vmul.f32	s15, s15, s15
 800b9a2:	ee67 7a87 	vmul.f32	s15, s15, s14
 800b9a6:	edc3 7a06 	vstr	s15, [r3, #24]
 800b9aa:	4770      	bx	lr
 800b9ac:	42fe0000 	.word	0x42fe0000
 800b9b0:	10003e14 	.word	0x10003e14

0800b9b4 <Filter1Type_set>:
Filter1Type_set():
 800b9b4:	eb00 0080 	add.w	r0, r0, r0, lsl #2
 800b9b8:	ee07 0a90 	vmov	s15, r0
 800b9bc:	eeb8 0ae7 	vcvt.f32.s32	s0, s15
 800b9c0:	eddf 7a04 	vldr	s15, [pc, #16]	; 800b9d4 <Filter1Type_set+0x20>
 800b9c4:	b508      	push	{r3, lr}
 800b9c6:	ee80 0a27 	vdiv.f32	s0, s0, s15
 800b9ca:	f001 f8cb 	bl	800cb64 <lrintf>
 800b9ce:	4b02      	ldr	r3, [pc, #8]	; (800b9d8 <Filter1Type_set+0x24>)
 800b9d0:	7018      	strb	r0, [r3, #0]
 800b9d2:	bd08      	pop	{r3, pc}
 800b9d4:	42fe0000 	.word	0x42fe0000
 800b9d8:	10003e14 	.word	0x10003e14

0800b9dc <Filter2Freq_set>:
Filter2Freq_set():
 800b9dc:	b510      	push	{r4, lr}
 800b9de:	ed9f 0a14 	vldr	s0, [pc, #80]	; 800ba30 <Filter2Freq_set+0x54>
 800b9e2:	eddf 0a14 	vldr	s1, [pc, #80]	; 800ba34 <Filter2Freq_set+0x58>
 800b9e6:	f7fe f905 	bl	8009bf4 <Lin2Exp>
 800b9ea:	eddf 7a13 	vldr	s15, [pc, #76]	; 800ba38 <Filter2Freq_set+0x5c>
 800b9ee:	ed9f 7a13 	vldr	s14, [pc, #76]	; 800ba3c <Filter2Freq_set+0x60>
 800b9f2:	4b13      	ldr	r3, [pc, #76]	; (800ba40 <Filter2Freq_set+0x64>)
 800b9f4:	ee80 0a27 	vdiv.f32	s0, s0, s15
 800b9f8:	eeb4 0ac7 	vcmpe.f32	s0, s14
 800b9fc:	eef1 fa10 	vmrs	APSR_nzcv, fpscr
 800ba00:	ed83 0a00 	vstr	s0, [r3]
 800ba04:	dd0b      	ble.n	800ba1e <Filter2Freq_set+0x42>
 800ba06:	ed9f 0a0f 	vldr	s0, [pc, #60]	; 800ba44 <Filter2Freq_set+0x68>
 800ba0a:	eddf 7a0f 	vldr	s15, [pc, #60]	; 800ba48 <Filter2Freq_set+0x6c>
 800ba0e:	4c0f      	ldr	r4, [pc, #60]	; (800ba4c <Filter2Freq_set+0x70>)
 800ba10:	edc4 7a09 	vstr	s15, [r4, #36]	; 0x24
 800ba14:	f7fe f970 	bl	8009cf8 <fastTan>
 800ba18:	ed84 0a0a 	vstr	s0, [r4, #40]	; 0x28
 800ba1c:	bd10      	pop	{r4, pc}
 800ba1e:	eef6 7a00 	vmov.f32	s15, #96	; 0x60
 800ba22:	ee60 7a27 	vmul.f32	s15, s0, s15
 800ba26:	ed9f 0a0a 	vldr	s0, [pc, #40]	; 800ba50 <Filter2Freq_set+0x74>
 800ba2a:	ee27 0a80 	vmul.f32	s0, s15, s0
 800ba2e:	e7ee      	b.n	800ba0e <Filter2Freq_set+0x32>
 800ba30:	42a00000 	.word	0x42a00000
 800ba34:	45fa0000 	.word	0x45fa0000
 800ba38:	473b8000 	.word	0x473b8000
 800ba3c:	3f733333 	.word	0x3f733333
 800ba40:	2001f82c 	.word	0x2001f82c
 800ba44:	3fbf0243 	.word	0x3fbf0243
 800ba48:	3ef33333 	.word	0x3ef33333
 800ba4c:	10003e14 	.word	0x10003e14
 800ba50:	40490fdb 	.word	0x40490fdb

0800ba54 <Filter2Res_set>:
Filter2Res_set():
 800ba54:	ee07 0a90 	vmov	s15, r0
 800ba58:	ed9f 7a0b 	vldr	s14, [pc, #44]	; 800ba88 <Filter2Res_set+0x34>
 800ba5c:	eddf 6a0b 	vldr	s13, [pc, #44]	; 800ba8c <Filter2Res_set+0x38>
 800ba60:	4b0b      	ldr	r3, [pc, #44]	; (800ba90 <Filter2Res_set+0x3c>)
 800ba62:	eef8 7ae7 	vcvt.f32.s32	s15, s15
 800ba66:	ee87 7a87 	vdiv.f32	s14, s15, s14
 800ba6a:	eef7 7a00 	vmov.f32	s15, #112	; 0x70
 800ba6e:	ee77 7ac7 	vsub.f32	s15, s15, s14
 800ba72:	eef4 7ae6 	vcmpe.f32	s15, s13
 800ba76:	eef1 fa10 	vmrs	APSR_nzcv, fpscr
 800ba7a:	bf54      	ite	pl
 800ba7c:	edc3 7a0b 	vstrpl	s15, [r3, #44]	; 0x2c
 800ba80:	edc3 6a0b 	vstrmi	s13, [r3, #44]	; 0x2c
 800ba84:	4770      	bx	lr
 800ba86:	bf00      	nop
 800ba88:	42fe0000 	.word	0x42fe0000
 800ba8c:	3c23d70a 	.word	0x3c23d70a
 800ba90:	10003e14 	.word	0x10003e14

0800ba94 <Filter2Drive_set>:
Filter2Drive_set():
 800ba94:	ee07 0a90 	vmov	s15, r0
 800ba98:	ed9f 7a07 	vldr	s14, [pc, #28]	; 800bab8 <Filter2Drive_set+0x24>
 800ba9c:	4b07      	ldr	r3, [pc, #28]	; (800babc <Filter2Drive_set+0x28>)
 800ba9e:	eef8 7ae7 	vcvt.f32.s32	s15, s15
 800baa2:	eec7 7a87 	vdiv.f32	s15, s15, s14
 800baa6:	eeb1 7a08 	vmov.f32	s14, #24
 800baaa:	ee67 7aa7 	vmul.f32	s15, s15, s15
 800baae:	ee67 7a87 	vmul.f32	s15, s15, s14
 800bab2:	edc3 7a0e 	vstr	s15, [r3, #56]	; 0x38
 800bab6:	4770      	bx	lr
 800bab8:	42fe0000 	.word	0x42fe0000
 800babc:	10003e14 	.word	0x10003e14

0800bac0 <Filter2Type_set>:
Filter2Type_set():
 800bac0:	eb00 0080 	add.w	r0, r0, r0, lsl #2
 800bac4:	ee07 0a90 	vmov	s15, r0
 800bac8:	eeb8 0ae7 	vcvt.f32.s32	s0, s15
 800bacc:	eddf 7a05 	vldr	s15, [pc, #20]	; 800bae4 <Filter2Type_set+0x24>
 800bad0:	b508      	push	{r3, lr}
 800bad2:	ee80 0a27 	vdiv.f32	s0, s0, s15
 800bad6:	f001 f845 	bl	800cb64 <lrintf>
 800bada:	4b03      	ldr	r3, [pc, #12]	; (800bae8 <Filter2Type_set+0x28>)
 800badc:	f883 0020 	strb.w	r0, [r3, #32]
 800bae0:	bd08      	pop	{r3, pc}
 800bae2:	bf00      	nop
 800bae4:	42fe0000 	.word	0x42fe0000
 800bae8:	10003e14 	.word	0x10003e14

0800baec <SVF_calcSample>:
SVF_calcSample():
 800baec:	b510      	push	{r4, lr}
 800baee:	ed90 7a01 	vldr	s14, [r0, #4]
 800baf2:	eddf 7a69 	vldr	s15, [pc, #420]	; 800bc98 <SVF_calcSample+0x1ac>
 800baf6:	ed2d 8b0a 	vpush	{d8-d12}
 800bafa:	eeb0 9a40 	vmov.f32	s18, s0
 800bafe:	ed90 0a06 	vldr	s0, [r0, #24]
 800bb02:	ed90 8a02 	vldr	s16, [r0, #8]
 800bb06:	eeb4 7ae7 	vcmpe.f32	s14, s15
 800bb0a:	eef1 fa10 	vmrs	APSR_nzcv, fpscr
 800bb0e:	ee29 0a00 	vmul.f32	s0, s18, s0
 800bb12:	4604      	mov	r4, r0
 800bb14:	bfb4      	ite	lt
 800bb16:	ed90 ba03 	vldrlt	s22, [r0, #12]
 800bb1a:	eeb7 ba00 	vmovge.f32	s22, #112	; 0x70
 800bb1e:	f7fe f8c7 	bl	8009cb0 <softClipTwo>
 800bb22:	edd4 7a07 	vldr	s15, [r4, #28]
 800bb26:	ed94 7a05 	vldr	s14, [r4, #20]
 800bb2a:	eeb0 aa40 	vmov.f32	s20, s0
 800bb2e:	ee7b aa0b 	vadd.f32	s21, s22, s22
 800bb32:	ed94 0a04 	vldr	s0, [r4, #16]
 800bb36:	ed84 aa07 	vstr	s20, [r4, #28]
 800bb3a:	ee7a 7a27 	vadd.f32	s15, s20, s15
 800bb3e:	ee20 0a6a 	vnmul.f32	s0, s0, s21
 800bb42:	eef6 ba00 	vmov.f32	s23, #96	; 0x60
 800bb46:	eea7 0aab 	vfma.f32	s0, s15, s23
 800bb4a:	ee68 8a08 	vmul.f32	s17, s16, s16
 800bb4e:	ee30 0a47 	vsub.f32	s0, s0, s14
 800bb52:	ee20 0a2b 	vmul.f32	s0, s0, s23
 800bb56:	f7fe f865 	bl	8009c24 <tanhXdX>
 800bb5a:	eef0 9a40 	vmov.f32	s19, s0
 800bb5e:	ed94 0a04 	vldr	s0, [r4, #16]
 800bb62:	ee20 0a2b 	vmul.f32	s0, s0, s23
 800bb66:	f7fe f85d 	bl	8009c24 <tanhXdX>
 800bb6a:	ee28 7a29 	vmul.f32	s14, s16, s19
 800bb6e:	eeb7 6a00 	vmov.f32	s12, #112	; 0x70
 800bb72:	ee77 6a07 	vadd.f32	s13, s14, s14
 800bb76:	eef0 ca46 	vmov.f32	s25, s12
 800bb7a:	eeeb ca26 	vfma.f32	s25, s22, s13
 800bb7e:	eef0 ba40 	vmov.f32	s23, s0
 800bb82:	eec6 ca2c 	vdiv.f32	s25, s12, s25
 800bb86:	ed94 7a05 	vldr	s14, [r4, #20]
 800bb8a:	edd4 5a04 	vldr	s11, [r4, #16]
 800bb8e:	ee68 8aac 	vmul.f32	s17, s17, s25
 800bb92:	ee68 6a2c 	vmul.f32	s13, s16, s25
 800bb96:	ee68 8aa9 	vmul.f32	s17, s17, s19
 800bb9a:	ee66 6aab 	vmul.f32	s13, s13, s23
 800bb9e:	ee68 7aab 	vmul.f32	s15, s17, s23
 800bba2:	eeb0 0a65 	vmov.f32	s0, s11
 800bba6:	eea7 7a8a 	vfma.f32	s14, s15, s20
 800bbaa:	ee77 7a86 	vadd.f32	s15, s15, s12
 800bbae:	eef0 8a47 	vmov.f32	s17, s14
 800bbb2:	eee6 8aa5 	vfma.f32	s17, s13, s11
 800bbb6:	eec8 8aa7 	vdiv.f32	s17, s17, s15
 800bbba:	f7fe f879 	bl	8009cb0 <softClipTwo>
 800bbbe:	eef0 7a40 	vmov.f32	s15, s0
 800bbc2:	ee3a ca68 	vsub.f32	s24, s20, s17
 800bbc6:	ed94 0a04 	vldr	s0, [r4, #16]
 800bbca:	ee2c ca29 	vmul.f32	s24, s24, s19
 800bbce:	eee8 7a0c 	vfma.f32	s15, s16, s24
 800bbd2:	ee67 caac 	vmul.f32	s25, s15, s25
 800bbd6:	f7fe f86b 	bl	8009cb0 <softClipTwo>
 800bbda:	ee79 9aa9 	vadd.f32	s19, s19, s19
 800bbde:	ee38 8a08 	vadd.f32	s16, s16, s16
 800bbe2:	ee69 9acb 	vnmul.f32	s19, s19, s22
 800bbe6:	edd4 7a05 	vldr	s15, [r4, #20]
 800bbea:	7823      	ldrb	r3, [r4, #0]
 800bbec:	eea9 caac 	vfma.f32	s24, s19, s25
 800bbf0:	3b01      	subs	r3, #1
 800bbf2:	ee6b ba88 	vmul.f32	s23, s23, s16
 800bbf6:	eea8 0a0c 	vfma.f32	s0, s16, s24
 800bbfa:	eeeb 7aac 	vfma.f32	s15, s23, s25
 800bbfe:	ed84 0a04 	vstr	s0, [r4, #16]
 800bc02:	edc4 7a05 	vstr	s15, [r4, #20]
 800bc06:	2b04      	cmp	r3, #4
 800bc08:	d808      	bhi.n	800bc1c <SVF_calcSample+0x130>
 800bc0a:	e8df f003 	tbb	[pc, r3]
 800bc0e:	352e      	.short	0x352e
 800bc10:	3e03      	.short	0x3e03
 800bc12:	23          	.byte	0x23
 800bc13:	00          	.byte	0x00
 800bc14:	ed9f 9a21 	vldr	s18, [pc, #132]	; 800bc9c <SVF_calcSample+0x1b0>
 800bc18:	ee2c 9a89 	vmul.f32	s18, s25, s18
 800bc1c:	eef7 7a00 	vmov.f32	s15, #112	; 0x70
 800bc20:	eeb4 9ae7 	vcmpe.f32	s18, s15
 800bc24:	eef1 fa10 	vmrs	APSR_nzcv, fpscr
 800bc28:	dd06      	ble.n	800bc38 <SVF_calcSample+0x14c>
 800bc2a:	eeb0 9a67 	vmov.f32	s18, s15
 800bc2e:	eeb0 0a49 	vmov.f32	s0, s18
 800bc32:	ecbd 8b0a 	vpop	{d8-d12}
 800bc36:	bd10      	pop	{r4, pc}
 800bc38:	eeff 7a00 	vmov.f32	s15, #240	; 0xf0
 800bc3c:	eeb4 9a67 	vcmp.f32	s18, s15
 800bc40:	eef1 fa10 	vmrs	APSR_nzcv, fpscr
 800bc44:	bf48      	it	mi
 800bc46:	eeb0 9a67 	vmovmi.f32	s18, s15
 800bc4a:	eeb0 0a49 	vmov.f32	s0, s18
 800bc4e:	ecbd 8b0a 	vpop	{d8-d12}
 800bc52:	bd10      	pop	{r4, pc}
 800bc54:	eeaa aaec 	vfms.f32	s20, s21, s25
 800bc58:	ed9f 9a10 	vldr	s18, [pc, #64]	; 800bc9c <SVF_calcSample+0x1b0>
 800bc5c:	ee3a aa68 	vsub.f32	s20, s20, s17
 800bc60:	ee78 7aca 	vsub.f32	s15, s17, s20
 800bc64:	ee27 9a89 	vmul.f32	s18, s15, s18
 800bc68:	e7d8      	b.n	800bc1c <SVF_calcSample+0x130>
 800bc6a:	eeb0 0a68 	vmov.f32	s0, s17
 800bc6e:	f7fd fff7 	bl	8009c60 <fastTanh>
 800bc72:	eeb0 9a40 	vmov.f32	s18, s0
 800bc76:	e7d1      	b.n	800bc1c <SVF_calcSample+0x130>
 800bc78:	eeaa aaec 	vfms.f32	s20, s21, s25
 800bc7c:	ed9f 9a07 	vldr	s18, [pc, #28]	; 800bc9c <SVF_calcSample+0x1b0>
 800bc80:	ee7a 7a68 	vsub.f32	s15, s20, s17
 800bc84:	ee27 9a89 	vmul.f32	s18, s15, s18
 800bc88:	e7c8      	b.n	800bc1c <SVF_calcSample+0x130>
 800bc8a:	eeaa aaec 	vfms.f32	s20, s21, s25
 800bc8e:	ed9f 7a03 	vldr	s14, [pc, #12]	; 800bc9c <SVF_calcSample+0x1b0>
 800bc92:	ee2a 9a07 	vmul.f32	s18, s20, s14
 800bc96:	e7c1      	b.n	800bc1c <SVF_calcSample+0x130>
 800bc98:	3ee6594b 	.word	0x3ee6594b
 800bc9c:	3f6147ae 	.word	0x3f6147ae

0800bca0 <seq_gateTime_set>:
seq_gateTime_set():
 800bca0:	ee07 0a90 	vmov	s15, r0
 800bca4:	eddf 6a0c 	vldr	s13, [pc, #48]	; 800bcd8 <seq_gateTime_set+0x38>
 800bca8:	4b0c      	ldr	r3, [pc, #48]	; (800bcdc <seq_gateTime_set+0x3c>)
 800bcaa:	ed9f 6a0d 	vldr	s12, [pc, #52]	; 800bce0 <seq_gateTime_set+0x40>
 800bcae:	eeb8 7ae7 	vcvt.f32.s32	s14, s15
 800bcb2:	eddf 7a0c 	vldr	s15, [pc, #48]	; 800bce4 <seq_gateTime_set+0x44>
 800bcb6:	ee67 6a26 	vmul.f32	s13, s14, s13
 800bcba:	ed93 7a09 	vldr	s14, [r3, #36]	; 0x24
 800bcbe:	eec6 7aa7 	vdiv.f32	s15, s13, s15
 800bcc2:	eeb8 7ac7 	vcvt.f32.s32	s14, s14
 800bcc6:	ee77 7a86 	vadd.f32	s15, s15, s12
 800bcca:	ee67 7a27 	vmul.f32	s15, s14, s15
 800bcce:	eefc 7ae7 	vcvt.u32.f32	s15, s15
 800bcd2:	edc3 7a0c 	vstr	s15, [r3, #48]	; 0x30
 800bcd6:	4770      	bx	lr
 800bcd8:	3f4ccccc 	.word	0x3f4ccccc
 800bcdc:	10003e54 	.word	0x10003e54
 800bce0:	3dcccccd 	.word	0x3dcccccd
 800bce4:	42fe0000 	.word	0x42fe0000

0800bce8 <seq_transp>:
seq_transp():
 800bce8:	ee07 1a90 	vmov	s15, r1
 800bcec:	eeb8 7ae7 	vcvt.f32.s32	s14, s15
 800bcf0:	eddf 7a05 	vldr	s15, [pc, #20]	; 800bd08 <seq_transp+0x20>
 800bcf4:	eeb4 7a67 	vcmp.f32	s14, s15
 800bcf8:	eef1 fa10 	vmrs	APSR_nzcv, fpscr
 800bcfc:	bf04      	itt	eq
 800bcfe:	4b03      	ldreq	r3, [pc, #12]	; (800bd0c <seq_transp+0x24>)
 800bd00:	f883 003e 	strbeq.w	r0, [r3, #62]	; 0x3e
 800bd04:	4770      	bx	lr
 800bd06:	bf00      	nop
 800bd08:	42fe0000 	.word	0x42fe0000
 800bd0c:	10003e54 	.word	0x10003e54

0800bd10 <seq_scale_set>:
seq_scale_set():
 800bd10:	b500      	push	{lr}
 800bd12:	ee07 0a90 	vmov	s15, r0
 800bd16:	eeb8 0ae7 	vcvt.f32.s32	s0, s15
 800bd1a:	eddf 7a0e 	vldr	s15, [pc, #56]	; 800bd54 <seq_scale_set+0x44>
 800bd1e:	b083      	sub	sp, #12
 800bd20:	ee20 0a27 	vmul.f32	s0, s0, s15
 800bd24:	f000 ff64 	bl	800cbf0 <rintf>
 800bd28:	eebc 0ac0 	vcvt.u32.f32	s0, s0
 800bd2c:	4a0a      	ldr	r2, [pc, #40]	; (800bd58 <seq_scale_set+0x48>)
 800bd2e:	ed8d 0a01 	vstr	s0, [sp, #4]
 800bd32:	f89d 3004 	ldrb.w	r3, [sp, #4]
 800bd36:	f882 3034 	strb.w	r3, [r2, #52]	; 0x34
 800bd3a:	2b0e      	cmp	r3, #14
 800bd3c:	bf96      	itet	ls
 800bd3e:	4907      	ldrls	r1, [pc, #28]	; (800bd5c <seq_scale_set+0x4c>)
 800bd40:	4b07      	ldrhi	r3, [pc, #28]	; (800bd60 <seq_scale_set+0x50>)
 800bd42:	f851 3023 	ldrls.w	r3, [r1, r3, lsl #2]
 800bd46:	6393      	str	r3, [r2, #56]	; 0x38
 800bd48:	2301      	movs	r3, #1
 800bd4a:	f882 3041 	strb.w	r3, [r2, #65]	; 0x41
 800bd4e:	b003      	add	sp, #12
 800bd50:	f85d fb04 	ldr.w	pc, [sp], #4
 800bd54:	3de1c387 	.word	0x3de1c387
 800bd58:	10003e54 	.word	0x10003e54
 800bd5c:	0801c700 	.word	0x0801c700
 800bd60:	0801c500 	.word	0x0801c500

0800bd64 <seq_switchMovingSeq>:
seq_switchMovingSeq():
 800bd64:	283f      	cmp	r0, #63	; 0x3f
 800bd66:	4b03      	ldr	r3, [pc, #12]	; (800bd74 <seq_switchMovingSeq+0x10>)
 800bd68:	bf94      	ite	ls
 800bd6a:	2000      	movls	r0, #0
 800bd6c:	2001      	movhi	r0, #1
 800bd6e:	f883 003f 	strb.w	r0, [r3, #63]	; 0x3f
 800bd72:	4770      	bx	lr
 800bd74:	10003e54 	.word	0x10003e54

0800bd78 <seq_switchMute>:
seq_switchMute():
 800bd78:	b130      	cbz	r0, 800bd88 <seq_switchMute+0x10>
 800bd7a:	287f      	cmp	r0, #127	; 0x7f
 800bd7c:	d107      	bne.n	800bd8e <seq_switchMute+0x16>
 800bd7e:	4b04      	ldr	r3, [pc, #16]	; (800bd90 <seq_switchMute+0x18>)
 800bd80:	2201      	movs	r2, #1
 800bd82:	f883 2042 	strb.w	r2, [r3, #66]	; 0x42
 800bd86:	4770      	bx	lr
 800bd88:	4b01      	ldr	r3, [pc, #4]	; (800bd90 <seq_switchMute+0x18>)
 800bd8a:	f883 0042 	strb.w	r0, [r3, #66]	; 0x42
 800bd8e:	4770      	bx	lr
 800bd90:	10003e54 	.word	0x10003e54

0800bd94 <seq_freqMax_set>:
seq_freqMax_set():
 800bd94:	ee07 0a90 	vmov	s15, r0
 800bd98:	ed9f 7a08 	vldr	s14, [pc, #32]	; 800bdbc <seq_freqMax_set+0x28>
 800bd9c:	4a08      	ldr	r2, [pc, #32]	; (800bdc0 <seq_freqMax_set+0x2c>)
 800bd9e:	eef8 7ae7 	vcvt.f32.s32	s15, s15
 800bda2:	2101      	movs	r1, #1
 800bda4:	ee67 7a87 	vmul.f32	s15, s15, s14
 800bda8:	f882 1041 	strb.w	r1, [r2, #65]	; 0x41
 800bdac:	eefc 7ae7 	vcvt.u32.f32	s15, s15
 800bdb0:	ee17 3a90 	vmov	r3, s15
 800bdb4:	f882 303c 	strb.w	r3, [r2, #60]	; 0x3c
 800bdb8:	4770      	bx	lr
 800bdba:	bf00      	nop
 800bdbc:	3d810204 	.word	0x3d810204
 800bdc0:	10003e54 	.word	0x10003e54

0800bdc4 <seq_tempo_set>:
seq_tempo_set():
 800bdc4:	ee07 0a90 	vmov	s15, r0
 800bdc8:	eddf 6a0c 	vldr	s13, [pc, #48]	; 800bdfc <seq_tempo_set+0x38>
 800bdcc:	ed9f 0a0c 	vldr	s0, [pc, #48]	; 800be00 <seq_tempo_set+0x3c>
 800bdd0:	eeb8 7ae7 	vcvt.f32.s32	s14, s15
 800bdd4:	eddf 7a0b 	vldr	s15, [pc, #44]	; 800be04 <seq_tempo_set+0x40>
 800bdd8:	ee27 7a26 	vmul.f32	s14, s14, s13
 800bddc:	eef3 6a04 	vmov.f32	s13, #52	; 0x34
 800bde0:	eec7 7a27 	vdiv.f32	s15, s14, s15
 800bde4:	b510      	push	{r4, lr}
 800bde6:	4c08      	ldr	r4, [pc, #32]	; (800be08 <seq_tempo_set+0x44>)
 800bde8:	ee77 7aa6 	vadd.f32	s15, s15, s13
 800bdec:	ee80 0a27 	vdiv.f32	s0, s0, s15
 800bdf0:	edc4 7a08 	vstr	s15, [r4, #32]
 800bdf4:	f000 feb6 	bl	800cb64 <lrintf>
 800bdf8:	6260      	str	r0, [r4, #36]	; 0x24
 800bdfa:	bd10      	pop	{r4, pc}
 800bdfc:	43fa0000 	.word	0x43fa0000
 800be00:	4a2fc800 	.word	0x4a2fc800
 800be04:	42fe0000 	.word	0x42fe0000
 800be08:	10003e54 	.word	0x10003e54

0800be0c <seq_sequence_new>:
seq_sequence_new():
 800be0c:	b5f8      	push	{r3, r4, r5, r6, r7, lr}
 800be0e:	4f1f      	ldr	r7, [pc, #124]	; (800be8c <seq_sequence_new+0x80>)
 800be10:	f107 0610 	add.w	r6, r7, #16
 800be14:	1c7d      	adds	r5, r7, #1
 800be16:	6bac      	ldr	r4, [r5, #56]	; 0x38
 800be18:	7823      	ldrb	r3, [r4, #0]
 800be1a:	ee00 3a90 	vmov	s1, r3
 800be1e:	eeb7 0a00 	vmov.f32	s0, #112	; 0x70
 800be22:	eef8 0a60 	vcvt.f32.u32	s1, s1
 800be26:	f7ff fcc1 	bl	800b7ac <frand_a_b>
 800be2a:	f000 fe9b 	bl	800cb64 <lrintf>
 800be2e:	f895 303c 	ldrb.w	r3, [r5, #60]	; 0x3c
 800be32:	ed9f 0a17 	vldr	s0, [pc, #92]	; 800be90 <seq_sequence_new+0x84>
 800be36:	5c24      	ldrb	r4, [r4, r0]
 800be38:	ee00 3a90 	vmov	s1, r3
 800be3c:	eef8 0a60 	vcvt.f32.u32	s1, s1
 800be40:	f7ff fcb4 	bl	800b7ac <frand_a_b>
 800be44:	f000 fe8e 	bl	800cb64 <lrintf>
 800be48:	f895 203d 	ldrb.w	r2, [r5, #61]	; 0x3d
 800be4c:	eb00 0040 	add.w	r0, r0, r0, lsl #1
 800be50:	3a15      	subs	r2, #21
 800be52:	eb02 0380 	add.w	r3, r2, r0, lsl #2
 800be56:	4423      	add	r3, r4
 800be58:	b29b      	uxth	r3, r3
 800be5a:	b21a      	sxth	r2, r3
 800be5c:	2a6a      	cmp	r2, #106	; 0x6a
 800be5e:	dd09      	ble.n	800be74 <seq_sequence_new+0x68>
 800be60:	3b0c      	subs	r3, #12
 800be62:	b29a      	uxth	r2, r3
 800be64:	2a6a      	cmp	r2, #106	; 0x6a
 800be66:	b293      	uxth	r3, r2
 800be68:	d8fa      	bhi.n	800be60 <seq_sequence_new+0x54>
 800be6a:	f807 3f01 	strb.w	r3, [r7, #1]!
 800be6e:	42b7      	cmp	r7, r6
 800be70:	d1d1      	bne.n	800be16 <seq_sequence_new+0xa>
 800be72:	bdf8      	pop	{r3, r4, r5, r6, r7, pc}
 800be74:	2a00      	cmp	r2, #0
 800be76:	daf8      	bge.n	800be6a <seq_sequence_new+0x5e>
 800be78:	330c      	adds	r3, #12
 800be7a:	b29b      	uxth	r3, r3
 800be7c:	041a      	lsls	r2, r3, #16
 800be7e:	d4fb      	bmi.n	800be78 <seq_sequence_new+0x6c>
 800be80:	f807 3f01 	strb.w	r3, [r7, #1]!
 800be84:	42b7      	cmp	r7, r6
 800be86:	d1c6      	bne.n	800be16 <seq_sequence_new+0xa>
 800be88:	e7f3      	b.n	800be72 <seq_sequence_new+0x66>
 800be8a:	bf00      	nop
 800be8c:	10003e53 	.word	0x10003e53
 800be90:	00000000 	.word	0x00000000

0800be94 <seq_transpose>:
seq_transpose():
 800be94:	b430      	push	{r4, r5}
 800be96:	4d12      	ldr	r5, [pc, #72]	; (800bee0 <seq_transpose+0x4c>)
 800be98:	f995 003e 	ldrsb.w	r0, [r5, #62]	; 0x3e
 800be9c:	1e69      	subs	r1, r5, #1
 800be9e:	b280      	uxth	r0, r0
 800bea0:	f105 040f 	add.w	r4, r5, #15
 800bea4:	f811 3f01 	ldrb.w	r3, [r1, #1]!
 800bea8:	4403      	add	r3, r0
 800beaa:	b29b      	uxth	r3, r3
 800beac:	b21a      	sxth	r2, r3
 800beae:	2a6a      	cmp	r2, #106	; 0x6a
 800beb0:	dd0c      	ble.n	800becc <seq_transpose+0x38>
 800beb2:	3b0c      	subs	r3, #12
 800beb4:	b29a      	uxth	r2, r3
 800beb6:	2a6a      	cmp	r2, #106	; 0x6a
 800beb8:	b293      	uxth	r3, r2
 800beba:	d8fa      	bhi.n	800beb2 <seq_transpose+0x1e>
 800bebc:	42a1      	cmp	r1, r4
 800bebe:	700b      	strb	r3, [r1, #0]
 800bec0:	d1f0      	bne.n	800bea4 <seq_transpose+0x10>
 800bec2:	2300      	movs	r3, #0
 800bec4:	f885 303e 	strb.w	r3, [r5, #62]	; 0x3e
 800bec8:	bc30      	pop	{r4, r5}
 800beca:	4770      	bx	lr
 800becc:	2a00      	cmp	r2, #0
 800bece:	daf5      	bge.n	800bebc <seq_transpose+0x28>
 800bed0:	330c      	adds	r3, #12
 800bed2:	b29b      	uxth	r3, r3
 800bed4:	041a      	lsls	r2, r3, #16
 800bed6:	d4fb      	bmi.n	800bed0 <seq_transpose+0x3c>
 800bed8:	42a1      	cmp	r1, r4
 800beda:	700b      	strb	r3, [r1, #0]
 800bedc:	d1e2      	bne.n	800bea4 <seq_transpose+0x10>
 800bede:	e7f0      	b.n	800bec2 <seq_transpose+0x2e>
 800bee0:	10003e54 	.word	0x10003e54

0800bee4 <sequencer_init>:
sequencer_init():
 800bee4:	b5f8      	push	{r3, r4, r5, r6, r7, lr}
 800bee6:	4d32      	ldr	r5, [pc, #200]	; (800bfb0 <sequencer_init+0xcc>)
 800bee8:	4b32      	ldr	r3, [pc, #200]	; (800bfb4 <sequencer_init+0xd0>)
 800beea:	ed9f 0a33 	vldr	s0, [pc, #204]	; 800bfb8 <sequencer_init+0xd4>
 800beee:	622b      	str	r3, [r5, #32]
 800bef0:	f000 fe38 	bl	800cb64 <lrintf>
 800bef4:	ee07 0a90 	vmov	s15, r0
 800bef8:	eefa 7aef 	vcvt.f32.s32	s15, s15, #1
 800befc:	2300      	movs	r3, #0
 800befe:	eefc 7ae7 	vcvt.u32.f32	s15, s15
 800bf02:	4c2e      	ldr	r4, [pc, #184]	; (800bfbc <sequencer_init+0xd8>)
 800bf04:	6268      	str	r0, [r5, #36]	; 0x24
 800bf06:	2104      	movs	r1, #4
 800bf08:	2224      	movs	r2, #36	; 0x24
 800bf0a:	edc5 7a0c 	vstr	s15, [r5, #48]	; 0x30
 800bf0e:	f885 103c 	strb.w	r1, [r5, #60]	; 0x3c
 800bf12:	f885 203d 	strb.w	r2, [r5, #61]	; 0x3d
 800bf16:	62ab      	str	r3, [r5, #40]	; 0x28
 800bf18:	f885 302c 	strb.w	r3, [r5, #44]	; 0x2c
 800bf1c:	f885 303e 	strb.w	r3, [r5, #62]	; 0x3e
 800bf20:	f885 303f 	strb.w	r3, [r5, #63]	; 0x3f
 800bf24:	f885 3040 	strb.w	r3, [r5, #64]	; 0x40
 800bf28:	f885 3041 	strb.w	r3, [r5, #65]	; 0x41
 800bf2c:	f885 3042 	strb.w	r3, [r5, #66]	; 0x42
 800bf30:	f885 3034 	strb.w	r3, [r5, #52]	; 0x34
 800bf34:	63ac      	str	r4, [r5, #56]	; 0x38
 800bf36:	1e6f      	subs	r7, r5, #1
 800bf38:	f105 060f 	add.w	r6, r5, #15
 800bf3c:	7823      	ldrb	r3, [r4, #0]
 800bf3e:	ee00 3a90 	vmov	s1, r3
 800bf42:	eeb7 0a00 	vmov.f32	s0, #112	; 0x70
 800bf46:	eef8 0a60 	vcvt.f32.u32	s1, s1
 800bf4a:	f7ff fc2f 	bl	800b7ac <frand_a_b>
 800bf4e:	f000 fe09 	bl	800cb64 <lrintf>
 800bf52:	f895 303c 	ldrb.w	r3, [r5, #60]	; 0x3c
 800bf56:	ed9f 0a1a 	vldr	s0, [pc, #104]	; 800bfc0 <sequencer_init+0xdc>
 800bf5a:	5c24      	ldrb	r4, [r4, r0]
 800bf5c:	ee00 3a90 	vmov	s1, r3
 800bf60:	eef8 0a60 	vcvt.f32.u32	s1, s1
 800bf64:	f7ff fc22 	bl	800b7ac <frand_a_b>
 800bf68:	f000 fdfc 	bl	800cb64 <lrintf>
 800bf6c:	f895 203d 	ldrb.w	r2, [r5, #61]	; 0x3d
 800bf70:	eb00 0040 	add.w	r0, r0, r0, lsl #1
 800bf74:	3a15      	subs	r2, #21
 800bf76:	eb02 0380 	add.w	r3, r2, r0, lsl #2
 800bf7a:	4423      	add	r3, r4
 800bf7c:	b29b      	uxth	r3, r3
 800bf7e:	b21a      	sxth	r2, r3
 800bf80:	2a6a      	cmp	r2, #106	; 0x6a
 800bf82:	dd0a      	ble.n	800bf9a <sequencer_init+0xb6>
 800bf84:	3b0c      	subs	r3, #12
 800bf86:	b29a      	uxth	r2, r3
 800bf88:	2a6a      	cmp	r2, #106	; 0x6a
 800bf8a:	b293      	uxth	r3, r2
 800bf8c:	d8fa      	bhi.n	800bf84 <sequencer_init+0xa0>
 800bf8e:	f807 3f01 	strb.w	r3, [r7, #1]!
 800bf92:	42b7      	cmp	r7, r6
 800bf94:	d00b      	beq.n	800bfae <sequencer_init+0xca>
 800bf96:	6bac      	ldr	r4, [r5, #56]	; 0x38
 800bf98:	e7d0      	b.n	800bf3c <sequencer_init+0x58>
 800bf9a:	2a00      	cmp	r2, #0
 800bf9c:	daf7      	bge.n	800bf8e <sequencer_init+0xaa>
 800bf9e:	330c      	adds	r3, #12
 800bfa0:	b29b      	uxth	r3, r3
 800bfa2:	041a      	lsls	r2, r3, #16
 800bfa4:	d4fb      	bmi.n	800bf9e <sequencer_init+0xba>
 800bfa6:	f807 3f01 	strb.w	r3, [r7, #1]!
 800bfaa:	42b7      	cmp	r7, r6
 800bfac:	d1f3      	bne.n	800bf96 <sequencer_init+0xb2>
 800bfae:	bdf8      	pop	{r3, r4, r5, r6, r7, pc}
 800bfb0:	10003e54 	.word	0x10003e54
 800bfb4:	43a00000 	.word	0x43a00000
 800bfb8:	460ca000 	.word	0x460ca000
 800bfbc:	0801c518 	.word	0x0801c518
 800bfc0:	00000000 	.word	0x00000000

0800bfc4 <sequencer_process>:
sequencer_process():
 800bfc4:	b510      	push	{r4, lr}
 800bfc6:	4c0e      	ldr	r4, [pc, #56]	; (800c000 <sequencer_process+0x3c>)
 800bfc8:	6aa3      	ldr	r3, [r4, #40]	; 0x28
 800bfca:	1e5a      	subs	r2, r3, #1
 800bfcc:	2b00      	cmp	r3, #0
 800bfce:	62a2      	str	r2, [r4, #40]	; 0x28
 800bfd0:	dd00      	ble.n	800bfd4 <sequencer_process+0x10>
 800bfd2:	bd10      	pop	{r4, pc}
 800bfd4:	f894 302c 	ldrb.w	r3, [r4, #44]	; 0x2c
 800bfd8:	b173      	cbz	r3, 800bff8 <sequencer_process+0x34>
 800bfda:	f000 fb49 	bl	800c670 <sequencer_newStep_action>
 800bfde:	f894 302c 	ldrb.w	r3, [r4, #44]	; 0x2c
 800bfe2:	6a62      	ldr	r2, [r4, #36]	; 0x24
 800bfe4:	62a2      	str	r2, [r4, #40]	; 0x28
 800bfe6:	3301      	adds	r3, #1
 800bfe8:	b2db      	uxtb	r3, r3
 800bfea:	4a05      	ldr	r2, [pc, #20]	; (800c000 <sequencer_process+0x3c>)
 800bfec:	2b0f      	cmp	r3, #15
 800bfee:	bf88      	it	hi
 800bff0:	2300      	movhi	r3, #0
 800bff2:	f882 302c 	strb.w	r3, [r2, #44]	; 0x2c
 800bff6:	bd10      	pop	{r4, pc}
 800bff8:	f000 fbf6 	bl	800c7e8 <sequencer_newSequence_action>
 800bffc:	e7ed      	b.n	800bfda <sequencer_process+0x16>
 800bffe:	bf00      	nop
 800c000:	10003e54 	.word	0x10003e54

0800c004 <autoSound_set>:
autoSound_set():
 800c004:	4b01      	ldr	r3, [pc, #4]	; (800c00c <autoSound_set+0x8>)
 800c006:	7018      	strb	r0, [r3, #0]
 800c008:	4770      	bx	lr
 800c00a:	bf00      	nop
 800c00c:	10003e98 	.word	0x10003e98

0800c010 <RandSound1>:
RandSound1():
 800c010:	ee07 0a90 	vmov	s15, r0
 800c014:	eeb8 7ae7 	vcvt.f32.s32	s14, s15
 800c018:	eddf 7a08 	vldr	s15, [pc, #32]	; 800c03c <RandSound1+0x2c>
 800c01c:	eeb4 7a67 	vcmp.f32	s14, s15
 800c020:	eef1 fa10 	vmrs	APSR_nzcv, fpscr
 800c024:	d105      	bne.n	800c032 <RandSound1+0x22>
 800c026:	4b06      	ldr	r3, [pc, #24]	; (800c040 <RandSound1+0x30>)
 800c028:	f993 2000 	ldrsb.w	r2, [r3]
 800c02c:	b112      	cbz	r2, 800c034 <RandSound1+0x24>
 800c02e:	2200      	movs	r2, #0
 800c030:	701a      	strb	r2, [r3, #0]
 800c032:	4770      	bx	lr
 800c034:	2201      	movs	r2, #1
 800c036:	701a      	strb	r2, [r3, #0]
 800c038:	4770      	bx	lr
 800c03a:	bf00      	nop
 800c03c:	42fe0000 	.word	0x42fe0000
 800c040:	10003e98 	.word	0x10003e98

0800c044 <RandSound2>:
RandSound2():
 800c044:	ee07 0a90 	vmov	s15, r0
 800c048:	eeb8 7ae7 	vcvt.f32.s32	s14, s15
 800c04c:	eddf 7a08 	vldr	s15, [pc, #32]	; 800c070 <RandSound2+0x2c>
 800c050:	eeb4 7a67 	vcmp.f32	s14, s15
 800c054:	eef1 fa10 	vmrs	APSR_nzcv, fpscr
 800c058:	d105      	bne.n	800c066 <RandSound2+0x22>
 800c05a:	4b06      	ldr	r3, [pc, #24]	; (800c074 <RandSound2+0x30>)
 800c05c:	f993 2000 	ldrsb.w	r2, [r3]
 800c060:	b112      	cbz	r2, 800c068 <RandSound2+0x24>
 800c062:	2200      	movs	r2, #0
 800c064:	701a      	strb	r2, [r3, #0]
 800c066:	4770      	bx	lr
 800c068:	2202      	movs	r2, #2
 800c06a:	701a      	strb	r2, [r3, #0]
 800c06c:	4770      	bx	lr
 800c06e:	bf00      	nop
 800c070:	42fe0000 	.word	0x42fe0000
 800c074:	10003e98 	.word	0x10003e98

0800c078 <soundNumber_get>:
soundNumber_get():
 800c078:	4b01      	ldr	r3, [pc, #4]	; (800c080 <soundNumber_get+0x8>)
 800c07a:	7858      	ldrb	r0, [r3, #1]
 800c07c:	4770      	bx	lr
 800c07e:	bf00      	nop
 800c080:	10003e98 	.word	0x10003e98

0800c084 <DemoMode_toggle>:
DemoMode_toggle():
 800c084:	ee07 0a90 	vmov	s15, r0
 800c088:	eeb8 7ae7 	vcvt.f32.s32	s14, s15
 800c08c:	eddf 7a06 	vldr	s15, [pc, #24]	; 800c0a8 <DemoMode_toggle+0x24>
 800c090:	eeb4 7a67 	vcmp.f32	s14, s15
 800c094:	eef1 fa10 	vmrs	APSR_nzcv, fpscr
 800c098:	d104      	bne.n	800c0a4 <DemoMode_toggle+0x20>
 800c09a:	4a04      	ldr	r2, [pc, #16]	; (800c0ac <DemoMode_toggle+0x28>)
 800c09c:	7813      	ldrb	r3, [r2, #0]
 800c09e:	f083 0301 	eor.w	r3, r3, #1
 800c0a2:	7013      	strb	r3, [r2, #0]
 800c0a4:	4770      	bx	lr
 800c0a6:	bf00      	nop
 800c0a8:	42fe0000 	.word	0x42fe0000
 800c0ac:	20000078 	.word	0x20000078

0800c0b0 <AmpLFO_amp_set>:
AmpLFO_amp_set():
 800c0b0:	ee07 0a90 	vmov	s15, r0
 800c0b4:	ed9f 7a04 	vldr	s14, [pc, #16]	; 800c0c8 <AmpLFO_amp_set+0x18>
 800c0b8:	4b04      	ldr	r3, [pc, #16]	; (800c0cc <AmpLFO_amp_set+0x1c>)
 800c0ba:	eef8 7ae7 	vcvt.f32.s32	s15, s15
 800c0be:	eec7 7a87 	vdiv.f32	s15, s15, s14
 800c0c2:	edc3 7a00 	vstr	s15, [r3]
 800c0c6:	4770      	bx	lr
 800c0c8:	42fe0000 	.word	0x42fe0000
 800c0cc:	10003d94 	.word	0x10003d94

0800c0d0 <AmpLFO_freq_set>:
AmpLFO_freq_set():
 800c0d0:	ee07 0a90 	vmov	s15, r0
 800c0d4:	ed9f 7a04 	vldr	s14, [pc, #16]	; 800c0e8 <AmpLFO_freq_set+0x18>
 800c0d8:	4b04      	ldr	r3, [pc, #16]	; (800c0ec <AmpLFO_freq_set+0x1c>)
 800c0da:	eef8 7ae7 	vcvt.f32.s32	s15, s15
 800c0de:	ee67 7a87 	vmul.f32	s15, s15, s14
 800c0e2:	edc3 7a02 	vstr	s15, [r3, #8]
 800c0e6:	4770      	bx	lr
 800c0e8:	3dc18306 	.word	0x3dc18306
 800c0ec:	10003d94 	.word	0x10003d94

0800c0f0 <Filt1LFO_amp_set>:
Filt1LFO_amp_set():
 800c0f0:	ee07 0a90 	vmov	s15, r0
 800c0f4:	ed9f 7a04 	vldr	s14, [pc, #16]	; 800c108 <Filt1LFO_amp_set+0x18>
 800c0f8:	4b04      	ldr	r3, [pc, #16]	; (800c10c <Filt1LFO_amp_set+0x1c>)
 800c0fa:	eef8 7ae7 	vcvt.f32.s32	s15, s15
 800c0fe:	ee67 7a87 	vmul.f32	s15, s15, s14
 800c102:	edc3 7a00 	vstr	s15, [r3]
 800c106:	4770      	bx	lr
 800c108:	3e810204 	.word	0x3e810204
 800c10c:	10003dd4 	.word	0x10003dd4

0800c110 <Filt1LFO_freq_set>:
Filt1LFO_freq_set():
 800c110:	ee07 0a90 	vmov	s15, r0
 800c114:	ed9f 7a04 	vldr	s14, [pc, #16]	; 800c128 <Filt1LFO_freq_set+0x18>
 800c118:	4b04      	ldr	r3, [pc, #16]	; (800c12c <Filt1LFO_freq_set+0x1c>)
 800c11a:	eef8 7ae7 	vcvt.f32.s32	s15, s15
 800c11e:	ee67 7a87 	vmul.f32	s15, s15, s14
 800c122:	edc3 7a02 	vstr	s15, [r3, #8]
 800c126:	4770      	bx	lr
 800c128:	3dc18306 	.word	0x3dc18306
 800c12c:	10003dd4 	.word	0x10003dd4

0800c130 <Filt2LFO_amp_set>:
Filt2LFO_amp_set():
 800c130:	ee07 0a90 	vmov	s15, r0
 800c134:	ed9f 7a04 	vldr	s14, [pc, #16]	; 800c148 <Filt2LFO_amp_set+0x18>
 800c138:	4b04      	ldr	r3, [pc, #16]	; (800c14c <Filt2LFO_amp_set+0x1c>)
 800c13a:	eef8 7ae7 	vcvt.f32.s32	s15, s15
 800c13e:	ee67 7a87 	vmul.f32	s15, s15, s14
 800c142:	edc3 7a00 	vstr	s15, [r3]
 800c146:	4770      	bx	lr
 800c148:	3e810204 	.word	0x3e810204
 800c14c:	10003db4 	.word	0x10003db4

0800c150 <Filt2LFO_freq_set>:
Filt2LFO_freq_set():
 800c150:	ee07 0a90 	vmov	s15, r0
 800c154:	ed9f 7a04 	vldr	s14, [pc, #16]	; 800c168 <Filt2LFO_freq_set+0x18>
 800c158:	4b04      	ldr	r3, [pc, #16]	; (800c16c <Filt2LFO_freq_set+0x1c>)
 800c15a:	eef8 7ae7 	vcvt.f32.s32	s15, s15
 800c15e:	ee67 7a87 	vmul.f32	s15, s15, s14
 800c162:	edc3 7a02 	vstr	s15, [r3, #8]
 800c166:	4770      	bx	lr
 800c168:	3dc18306 	.word	0x3dc18306
 800c16c:	10003db4 	.word	0x10003db4

0800c170 <VibratoAmp_set>:
VibratoAmp_set():
 800c170:	ee07 0a90 	vmov	s15, r0
 800c174:	ed9f 7a04 	vldr	s14, [pc, #16]	; 800c188 <VibratoAmp_set+0x18>
 800c178:	4b04      	ldr	r3, [pc, #16]	; (800c18c <VibratoAmp_set+0x1c>)
 800c17a:	eef8 7ae7 	vcvt.f32.s32	s15, s15
 800c17e:	ee67 7a87 	vmul.f32	s15, s15, s14
 800c182:	edc3 7a00 	vstr	s15, [r3]
 800c186:	4770      	bx	lr
 800c188:	3b810204 	.word	0x3b810204
 800c18c:	10003df4 	.word	0x10003df4

0800c190 <VibratoFreq_set>:
VibratoFreq_set():
 800c190:	ee07 0a90 	vmov	s15, r0
 800c194:	ed9f 7a04 	vldr	s14, [pc, #16]	; 800c1a8 <VibratoFreq_set+0x18>
 800c198:	4b04      	ldr	r3, [pc, #16]	; (800c1ac <VibratoFreq_set+0x1c>)
 800c19a:	eef8 7ae7 	vcvt.f32.s32	s15, s15
 800c19e:	ee67 7a87 	vmul.f32	s15, s15, s14
 800c1a2:	edc3 7a02 	vstr	s15, [r3, #8]
 800c1a6:	4770      	bx	lr
 800c1a8:	3dc18306 	.word	0x3dc18306
 800c1ac:	10003df4 	.word	0x10003df4

0800c1b0 <SynthOut_switch>:
SynthOut_switch():
 800c1b0:	e92d 47f0 	stmdb	sp!, {r4, r5, r6, r7, r8, r9, sl, lr}
 800c1b4:	b1e8      	cbz	r0, 800c1f2 <SynthOut_switch+0x42>
 800c1b6:	287f      	cmp	r0, #127	; 0x7f
 800c1b8:	d13e      	bne.n	800c238 <SynthOut_switch+0x88>
 800c1ba:	4d20      	ldr	r5, [pc, #128]	; (800c23c <SynthOut_switch+0x8c>)
 800c1bc:	4c20      	ldr	r4, [pc, #128]	; (800c240 <SynthOut_switch+0x90>)
 800c1be:	4821      	ldr	r0, [pc, #132]	; (800c244 <SynthOut_switch+0x94>)
 800c1c0:	4921      	ldr	r1, [pc, #132]	; (800c248 <SynthOut_switch+0x98>)
 800c1c2:	4a22      	ldr	r2, [pc, #136]	; (800c24c <SynthOut_switch+0x9c>)
 800c1c4:	4b22      	ldr	r3, [pc, #136]	; (800c250 <SynthOut_switch+0xa0>)
 800c1c6:	f8d5 9004 	ldr.w	r9, [r5, #4]
 800c1ca:	f8d4 8004 	ldr.w	r8, [r4, #4]
 800c1ce:	f8d0 c004 	ldr.w	ip, [r0, #4]
 800c1d2:	f8d1 e008 	ldr.w	lr, [r1, #8]
 800c1d6:	6897      	ldr	r7, [r2, #8]
 800c1d8:	689e      	ldr	r6, [r3, #8]
 800c1da:	f8c5 9000 	str.w	r9, [r5]
 800c1de:	f8c4 8000 	str.w	r8, [r4]
 800c1e2:	f8c0 c000 	str.w	ip, [r0]
 800c1e6:	f8c1 e004 	str.w	lr, [r1, #4]
 800c1ea:	6057      	str	r7, [r2, #4]
 800c1ec:	605e      	str	r6, [r3, #4]
 800c1ee:	e8bd 87f0 	ldmia.w	sp!, {r4, r5, r6, r7, r8, r9, sl, pc}
 800c1f2:	4e12      	ldr	r6, [pc, #72]	; (800c23c <SynthOut_switch+0x8c>)
 800c1f4:	4d12      	ldr	r5, [pc, #72]	; (800c240 <SynthOut_switch+0x90>)
 800c1f6:	4c13      	ldr	r4, [pc, #76]	; (800c244 <SynthOut_switch+0x94>)
 800c1f8:	4813      	ldr	r0, [pc, #76]	; (800c248 <SynthOut_switch+0x98>)
 800c1fa:	4914      	ldr	r1, [pc, #80]	; (800c24c <SynthOut_switch+0x9c>)
 800c1fc:	4a14      	ldr	r2, [pc, #80]	; (800c250 <SynthOut_switch+0xa0>)
 800c1fe:	f8d6 a000 	ldr.w	sl, [r6]
 800c202:	f8d5 9000 	ldr.w	r9, [r5]
 800c206:	f8d4 8000 	ldr.w	r8, [r4]
 800c20a:	f8d0 c004 	ldr.w	ip, [r0, #4]
 800c20e:	f8d1 e004 	ldr.w	lr, [r1, #4]
 800c212:	6857      	ldr	r7, [r2, #4]
 800c214:	f8c6 a004 	str.w	sl, [r6, #4]
 800c218:	2300      	movs	r3, #0
 800c21a:	6033      	str	r3, [r6, #0]
 800c21c:	f8c5 9004 	str.w	r9, [r5, #4]
 800c220:	602b      	str	r3, [r5, #0]
 800c222:	f8c4 8004 	str.w	r8, [r4, #4]
 800c226:	6023      	str	r3, [r4, #0]
 800c228:	f8c0 c008 	str.w	ip, [r0, #8]
 800c22c:	6043      	str	r3, [r0, #4]
 800c22e:	f8c1 e008 	str.w	lr, [r1, #8]
 800c232:	604b      	str	r3, [r1, #4]
 800c234:	6053      	str	r3, [r2, #4]
 800c236:	6097      	str	r7, [r2, #8]
 800c238:	e8bd 87f0 	ldmia.w	sp!, {r4, r5, r6, r7, r8, r9, sl, pc}
 800c23c:	10003cbc 	.word	0x10003cbc
 800c240:	10003cdc 	.word	0x10003cdc
 800c244:	10003cfc 	.word	0x10003cfc
 800c248:	10000adc 	.word	0x10000adc
 800c24c:	10000580 	.word	0x10000580
 800c250:	10000028 	.word	0x10000028

0800c254 <SynthOut_amp_set>:
SynthOut_amp_set():
 800c254:	ee07 0a90 	vmov	s15, r0
 800c258:	eef8 7ae7 	vcvt.f32.s32	s15, s15
 800c25c:	eeb1 7a04 	vmov.f32	s14, #20
 800c260:	ee67 7a87 	vmul.f32	s15, s15, s14
 800c264:	ed9f 7a0d 	vldr	s14, [pc, #52]	; 800c29c <SynthOut_amp_set+0x48>
 800c268:	480d      	ldr	r0, [pc, #52]	; (800c2a0 <SynthOut_amp_set+0x4c>)
 800c26a:	490e      	ldr	r1, [pc, #56]	; (800c2a4 <SynthOut_amp_set+0x50>)
 800c26c:	4a0e      	ldr	r2, [pc, #56]	; (800c2a8 <SynthOut_amp_set+0x54>)
 800c26e:	4b0f      	ldr	r3, [pc, #60]	; (800c2ac <SynthOut_amp_set+0x58>)
 800c270:	eec7 7a87 	vdiv.f32	s15, s15, s14
 800c274:	b430      	push	{r4, r5}
 800c276:	4d0e      	ldr	r5, [pc, #56]	; (800c2b0 <SynthOut_amp_set+0x5c>)
 800c278:	4c0e      	ldr	r4, [pc, #56]	; (800c2b4 <SynthOut_amp_set+0x60>)
 800c27a:	ee67 7aa7 	vmul.f32	s15, s15, s15
 800c27e:	edc5 7a00 	vstr	s15, [r5]
 800c282:	edc4 7a00 	vstr	s15, [r4]
 800c286:	edc0 7a00 	vstr	s15, [r0]
 800c28a:	edc1 7a01 	vstr	s15, [r1, #4]
 800c28e:	edc2 7a01 	vstr	s15, [r2, #4]
 800c292:	edc3 7a01 	vstr	s15, [r3, #4]
 800c296:	bc30      	pop	{r4, r5}
 800c298:	4770      	bx	lr
 800c29a:	bf00      	nop
 800c29c:	42fe0000 	.word	0x42fe0000
 800c2a0:	10003cfc 	.word	0x10003cfc
 800c2a4:	10000adc 	.word	0x10000adc
 800c2a8:	10000580 	.word	0x10000580
 800c2ac:	10000028 	.word	0x10000028
 800c2b0:	10003cbc 	.word	0x10003cbc
 800c2b4:	10003cdc 	.word	0x10003cdc

0800c2b8 <Delay_switch>:
Delay_switch():
 800c2b8:	283f      	cmp	r0, #63	; 0x3f
 800c2ba:	4b03      	ldr	r3, [pc, #12]	; (800c2c8 <Delay_switch+0x10>)
 800c2bc:	bf94      	ite	ls
 800c2be:	2000      	movls	r0, #0
 800c2c0:	2001      	movhi	r0, #1
 800c2c2:	7098      	strb	r0, [r3, #2]
 800c2c4:	4770      	bx	lr
 800c2c6:	bf00      	nop
 800c2c8:	10003e98 	.word	0x10003e98

0800c2cc <Filter_Random_switch>:
Filter_Random_switch():
 800c2cc:	283f      	cmp	r0, #63	; 0x3f
 800c2ce:	4b03      	ldr	r3, [pc, #12]	; (800c2dc <Filter_Random_switch+0x10>)
 800c2d0:	bf94      	ite	ls
 800c2d2:	2000      	movls	r0, #0
 800c2d4:	2001      	movhi	r0, #1
 800c2d6:	70d8      	strb	r0, [r3, #3]
 800c2d8:	4770      	bx	lr
 800c2da:	bf00      	nop
 800c2dc:	10003e98 	.word	0x10003e98

0800c2e0 <Chorus_switch>:
Chorus_switch():
 800c2e0:	283f      	cmp	r0, #63	; 0x3f
 800c2e2:	4b03      	ldr	r3, [pc, #12]	; (800c2f0 <Chorus_switch+0x10>)
 800c2e4:	bf94      	ite	ls
 800c2e6:	2000      	movls	r0, #0
 800c2e8:	2001      	movhi	r0, #1
 800c2ea:	7118      	strb	r0, [r3, #4]
 800c2ec:	4770      	bx	lr
 800c2ee:	bf00      	nop
 800c2f0:	10003e98 	.word	0x10003e98

0800c2f4 <Phaser_switch>:
Phaser_switch():
 800c2f4:	283f      	cmp	r0, #63	; 0x3f
 800c2f6:	4b03      	ldr	r3, [pc, #12]	; (800c304 <Phaser_switch+0x10>)
 800c2f8:	bf94      	ite	ls
 800c2fa:	2000      	movls	r0, #0
 800c2fc:	2001      	movhi	r0, #1
 800c2fe:	7158      	strb	r0, [r3, #5]
 800c300:	4770      	bx	lr
 800c302:	bf00      	nop
 800c304:	10003e98 	.word	0x10003e98

0800c308 <Sound_set>:
Sound_set():
 800c308:	b500      	push	{lr}
 800c30a:	ee07 0a90 	vmov	s15, r0
 800c30e:	eeb8 0ae7 	vcvt.f32.s32	s0, s15
 800c312:	eddf 7a0c 	vldr	s15, [pc, #48]	; 800c344 <Sound_set+0x3c>
 800c316:	b083      	sub	sp, #12
 800c318:	ee20 0a27 	vmul.f32	s0, s0, s15
 800c31c:	f000 fc68 	bl	800cbf0 <rintf>
 800c320:	eebc 0ac0 	vcvt.u32.f32	s0, s0
 800c324:	4a08      	ldr	r2, [pc, #32]	; (800c348 <Sound_set+0x40>)
 800c326:	ed8d 0a01 	vstr	s0, [sp, #4]
 800c32a:	f89d 3004 	ldrb.w	r3, [sp, #4]
 800c32e:	7053      	strb	r3, [r2, #1]
 800c330:	2b04      	cmp	r3, #4
 800c332:	d004      	beq.n	800c33e <Sound_set+0x36>
 800c334:	b003      	add	sp, #12
 800c336:	f85d eb04 	ldr.w	lr, [sp], #4
 800c33a:	f7fe b8c7 	b.w	800a4cc <AdditiveGen_newWaveform>
 800c33e:	b003      	add	sp, #12
 800c340:	f85d fb04 	ldr.w	pc, [sp], #4
 800c344:	3df1e3c8 	.word	0x3df1e3c8
 800c348:	10003e98 	.word	0x10003e98

0800c34c <FM_OP1_freq_set>:
FM_OP1_freq_set():
 800c34c:	4601      	mov	r1, r0
 800c34e:	4801      	ldr	r0, [pc, #4]	; (800c354 <FM_OP1_freq_set+0x8>)
 800c350:	f7fd bebe 	b.w	800a0d0 <FM_op_freq_set>
 800c354:	10003cbc 	.word	0x10003cbc

0800c358 <FM_OP1_modInd_set>:
FM_OP1_modInd_set():
 800c358:	4601      	mov	r1, r0
 800c35a:	4801      	ldr	r0, [pc, #4]	; (800c360 <FM_OP1_modInd_set+0x8>)
 800c35c:	f7fd bec6 	b.w	800a0ec <FM_op_modInd_set>
 800c360:	10003cbc 	.word	0x10003cbc

0800c364 <FM_OP2_freq_set>:
FM_OP2_freq_set():
 800c364:	b508      	push	{r3, lr}
 800c366:	ed9f 0a05 	vldr	s0, [pc, #20]	; 800c37c <FM_OP2_freq_set+0x18>
 800c36a:	eddf 0a05 	vldr	s1, [pc, #20]	; 800c380 <FM_OP2_freq_set+0x1c>
 800c36e:	f7fd fc41 	bl	8009bf4 <Lin2Exp>
 800c372:	4b04      	ldr	r3, [pc, #16]	; (800c384 <FM_OP2_freq_set+0x20>)
 800c374:	ed83 0a06 	vstr	s0, [r3, #24]
 800c378:	bd08      	pop	{r3, pc}
 800c37a:	bf00      	nop
 800c37c:	3e4ccccd 	.word	0x3e4ccccd
 800c380:	42000000 	.word	0x42000000
 800c384:	10003cdc 	.word	0x10003cdc

0800c388 <FM_OP2_freqMul_inc>:
FM_OP2_freqMul_inc():
 800c388:	ee07 0a90 	vmov	s15, r0
 800c38c:	eeb8 7ae7 	vcvt.f32.s32	s14, s15
 800c390:	eddf 7a08 	vldr	s15, [pc, #32]	; 800c3b4 <FM_OP2_freqMul_inc+0x2c>
 800c394:	eeb4 7a67 	vcmp.f32	s14, s15
 800c398:	eef1 fa10 	vmrs	APSR_nzcv, fpscr
 800c39c:	d108      	bne.n	800c3b0 <FM_OP2_freqMul_inc+0x28>
 800c39e:	4b06      	ldr	r3, [pc, #24]	; (800c3b8 <FM_OP2_freqMul_inc+0x30>)
 800c3a0:	ed9f 7a06 	vldr	s14, [pc, #24]	; 800c3bc <FM_OP2_freqMul_inc+0x34>
 800c3a4:	edd3 7a06 	vldr	s15, [r3, #24]
 800c3a8:	ee67 7a87 	vmul.f32	s15, s15, s14
 800c3ac:	edc3 7a06 	vstr	s15, [r3, #24]
 800c3b0:	4770      	bx	lr
 800c3b2:	bf00      	nop
 800c3b4:	42fe0000 	.word	0x42fe0000
 800c3b8:	10003cdc 	.word	0x10003cdc
 800c3bc:	3f8147ae 	.word	0x3f8147ae

0800c3c0 <FM_OP2_freqMul_dec>:
FM_OP2_freqMul_dec():
 800c3c0:	ee07 0a90 	vmov	s15, r0
 800c3c4:	eeb8 7ae7 	vcvt.f32.s32	s14, s15
 800c3c8:	eddf 7a08 	vldr	s15, [pc, #32]	; 800c3ec <FM_OP2_freqMul_dec+0x2c>
 800c3cc:	eeb4 7a67 	vcmp.f32	s14, s15
 800c3d0:	eef1 fa10 	vmrs	APSR_nzcv, fpscr
 800c3d4:	d108      	bne.n	800c3e8 <FM_OP2_freqMul_dec+0x28>
 800c3d6:	4b06      	ldr	r3, [pc, #24]	; (800c3f0 <FM_OP2_freqMul_dec+0x30>)
 800c3d8:	ed9f 7a06 	vldr	s14, [pc, #24]	; 800c3f4 <FM_OP2_freqMul_dec+0x34>
 800c3dc:	edd3 7a06 	vldr	s15, [r3, #24]
 800c3e0:	ee67 7a87 	vmul.f32	s15, s15, s14
 800c3e4:	edc3 7a06 	vstr	s15, [r3, #24]
 800c3e8:	4770      	bx	lr
 800c3ea:	bf00      	nop
 800c3ec:	42fe0000 	.word	0x42fe0000
 800c3f0:	10003cdc 	.word	0x10003cdc
 800c3f4:	3f7d70a4 	.word	0x3f7d70a4

0800c3f8 <FM_OP2_modInd_set>:
FM_OP2_modInd_set():
 800c3f8:	4601      	mov	r1, r0
 800c3fa:	4801      	ldr	r0, [pc, #4]	; (800c400 <FM_OP2_modInd_set+0x8>)
 800c3fc:	f7fd be76 	b.w	800a0ec <FM_op_modInd_set>
 800c400:	10003cdc 	.word	0x10003cdc

0800c404 <FM_OP3_freq_set>:
FM_OP3_freq_set():
 800c404:	b508      	push	{r3, lr}
 800c406:	ed9f 0a05 	vldr	s0, [pc, #20]	; 800c41c <FM_OP3_freq_set+0x18>
 800c40a:	eddf 0a05 	vldr	s1, [pc, #20]	; 800c420 <FM_OP3_freq_set+0x1c>
 800c40e:	f7fd fbf1 	bl	8009bf4 <Lin2Exp>
 800c412:	4b04      	ldr	r3, [pc, #16]	; (800c424 <FM_OP3_freq_set+0x20>)
 800c414:	ed83 0a06 	vstr	s0, [r3, #24]
 800c418:	bd08      	pop	{r3, pc}
 800c41a:	bf00      	nop
 800c41c:	3e4ccccd 	.word	0x3e4ccccd
 800c420:	42000000 	.word	0x42000000
 800c424:	10003cfc 	.word	0x10003cfc

0800c428 <FM_OP3_modInd_set>:
FM_OP3_modInd_set():
 800c428:	4601      	mov	r1, r0
 800c42a:	4801      	ldr	r0, [pc, #4]	; (800c430 <FM_OP3_modInd_set+0x8>)
 800c42c:	f7fd be5e 	b.w	800a0ec <FM_op_modInd_set>
 800c430:	10003cfc 	.word	0x10003cfc

0800c434 <FM_OP3_freqMul_inc>:
FM_OP3_freqMul_inc():
 800c434:	ee07 0a90 	vmov	s15, r0
 800c438:	eeb8 7ae7 	vcvt.f32.s32	s14, s15
 800c43c:	eddf 7a08 	vldr	s15, [pc, #32]	; 800c460 <FM_OP3_freqMul_inc+0x2c>
 800c440:	eeb4 7a67 	vcmp.f32	s14, s15
 800c444:	eef1 fa10 	vmrs	APSR_nzcv, fpscr
 800c448:	d108      	bne.n	800c45c <FM_OP3_freqMul_inc+0x28>
 800c44a:	4b06      	ldr	r3, [pc, #24]	; (800c464 <FM_OP3_freqMul_inc+0x30>)
 800c44c:	ed9f 7a06 	vldr	s14, [pc, #24]	; 800c468 <FM_OP3_freqMul_inc+0x34>
 800c450:	edd3 7a06 	vldr	s15, [r3, #24]
 800c454:	ee67 7a87 	vmul.f32	s15, s15, s14
 800c458:	edc3 7a06 	vstr	s15, [r3, #24]
 800c45c:	4770      	bx	lr
 800c45e:	bf00      	nop
 800c460:	42fe0000 	.word	0x42fe0000
 800c464:	10003cfc 	.word	0x10003cfc
 800c468:	3f8147ae 	.word	0x3f8147ae

0800c46c <FM_OP3_freqMul_dec>:
FM_OP3_freqMul_dec():
 800c46c:	ee07 0a90 	vmov	s15, r0
 800c470:	eeb8 7ae7 	vcvt.f32.s32	s14, s15
 800c474:	eddf 7a08 	vldr	s15, [pc, #32]	; 800c498 <FM_OP3_freqMul_dec+0x2c>
 800c478:	eeb4 7a67 	vcmp.f32	s14, s15
 800c47c:	eef1 fa10 	vmrs	APSR_nzcv, fpscr
 800c480:	d108      	bne.n	800c494 <FM_OP3_freqMul_dec+0x28>
 800c482:	4b06      	ldr	r3, [pc, #24]	; (800c49c <FM_OP3_freqMul_dec+0x30>)
 800c484:	ed9f 7a06 	vldr	s14, [pc, #24]	; 800c4a0 <FM_OP3_freqMul_dec+0x34>
 800c488:	edd3 7a06 	vldr	s15, [r3, #24]
 800c48c:	ee67 7a87 	vmul.f32	s15, s15, s14
 800c490:	edc3 7a06 	vstr	s15, [r3, #24]
 800c494:	4770      	bx	lr
 800c496:	bf00      	nop
 800c498:	42fe0000 	.word	0x42fe0000
 800c49c:	10003cfc 	.word	0x10003cfc
 800c4a0:	3f7d70a4 	.word	0x3f7d70a4

0800c4a4 <FM_OP4_freq_set>:
FM_OP4_freq_set():
 800c4a4:	b508      	push	{r3, lr}
 800c4a6:	ed9f 0a05 	vldr	s0, [pc, #20]	; 800c4bc <FM_OP4_freq_set+0x18>
 800c4aa:	eddf 0a05 	vldr	s1, [pc, #20]	; 800c4c0 <FM_OP4_freq_set+0x1c>
 800c4ae:	f7fd fba1 	bl	8009bf4 <Lin2Exp>
 800c4b2:	4b04      	ldr	r3, [pc, #16]	; (800c4c4 <FM_OP4_freq_set+0x20>)
 800c4b4:	ed83 0a06 	vstr	s0, [r3, #24]
 800c4b8:	bd08      	pop	{r3, pc}
 800c4ba:	bf00      	nop
 800c4bc:	3e4ccccd 	.word	0x3e4ccccd
 800c4c0:	42000000 	.word	0x42000000
 800c4c4:	10003d1c 	.word	0x10003d1c

0800c4c8 <FM_OP4_modInd_set>:
FM_OP4_modInd_set():
 800c4c8:	4601      	mov	r1, r0
 800c4ca:	4801      	ldr	r0, [pc, #4]	; (800c4d0 <FM_OP4_modInd_set+0x8>)
 800c4cc:	f7fd be0e 	b.w	800a0ec <FM_op_modInd_set>
 800c4d0:	10003d1c 	.word	0x10003d1c

0800c4d4 <FM_OP4_freqMul_inc>:
FM_OP4_freqMul_inc():
 800c4d4:	ee07 0a90 	vmov	s15, r0
 800c4d8:	eeb8 7ae7 	vcvt.f32.s32	s14, s15
 800c4dc:	eddf 7a08 	vldr	s15, [pc, #32]	; 800c500 <FM_OP4_freqMul_inc+0x2c>
 800c4e0:	eeb4 7a67 	vcmp.f32	s14, s15
 800c4e4:	eef1 fa10 	vmrs	APSR_nzcv, fpscr
 800c4e8:	d108      	bne.n	800c4fc <FM_OP4_freqMul_inc+0x28>
 800c4ea:	4b06      	ldr	r3, [pc, #24]	; (800c504 <FM_OP4_freqMul_inc+0x30>)
 800c4ec:	ed9f 7a06 	vldr	s14, [pc, #24]	; 800c508 <FM_OP4_freqMul_inc+0x34>
 800c4f0:	edd3 7a06 	vldr	s15, [r3, #24]
 800c4f4:	ee67 7a87 	vmul.f32	s15, s15, s14
 800c4f8:	edc3 7a06 	vstr	s15, [r3, #24]
 800c4fc:	4770      	bx	lr
 800c4fe:	bf00      	nop
 800c500:	42fe0000 	.word	0x42fe0000
 800c504:	10003d1c 	.word	0x10003d1c
 800c508:	3f8147ae 	.word	0x3f8147ae

0800c50c <FM_OP4_freqMul_dec>:
FM_OP4_freqMul_dec():
 800c50c:	ee07 0a90 	vmov	s15, r0
 800c510:	eeb8 7ae7 	vcvt.f32.s32	s14, s15
 800c514:	eddf 7a08 	vldr	s15, [pc, #32]	; 800c538 <FM_OP4_freqMul_dec+0x2c>
 800c518:	eeb4 7a67 	vcmp.f32	s14, s15
 800c51c:	eef1 fa10 	vmrs	APSR_nzcv, fpscr
 800c520:	d108      	bne.n	800c534 <FM_OP4_freqMul_dec+0x28>
 800c522:	4b06      	ldr	r3, [pc, #24]	; (800c53c <FM_OP4_freqMul_dec+0x30>)
 800c524:	ed9f 7a06 	vldr	s14, [pc, #24]	; 800c540 <FM_OP4_freqMul_dec+0x34>
 800c528:	edd3 7a06 	vldr	s15, [r3, #24]
 800c52c:	ee67 7a87 	vmul.f32	s15, s15, s14
 800c530:	edc3 7a06 	vstr	s15, [r3, #24]
 800c534:	4770      	bx	lr
 800c536:	bf00      	nop
 800c538:	42fe0000 	.word	0x42fe0000
 800c53c:	10003d1c 	.word	0x10003d1c
 800c540:	3f7d70a4 	.word	0x3f7d70a4

0800c544 <Synth_Init>:
Synth_Init():
 800c544:	b508      	push	{r3, lr}
 800c546:	4b38      	ldr	r3, [pc, #224]	; (800c628 <Synth_Init+0xe4>)
 800c548:	ed2d 8b04 	vpush	{d8-d9}
 800c54c:	2200      	movs	r2, #0
 800c54e:	f04f 517e 	mov.w	r1, #1065353216	; 0x3f800000
 800c552:	6099      	str	r1, [r3, #8]
 800c554:	60d9      	str	r1, [r3, #12]
 800c556:	705a      	strb	r2, [r3, #1]
 800c558:	70da      	strb	r2, [r3, #3]
 800c55a:	701a      	strb	r2, [r3, #0]
 800c55c:	711a      	strb	r2, [r3, #4]
 800c55e:	709a      	strb	r2, [r3, #2]
 800c560:	715a      	strb	r2, [r3, #5]
 800c562:	ed9f 9a32 	vldr	s18, [pc, #200]	; 800c62c <Synth_Init+0xe8>
 800c566:	eddf 8a32 	vldr	s17, [pc, #200]	; 800c630 <Synth_Init+0xec>
 800c56a:	ed9f 8a32 	vldr	s16, [pc, #200]	; 800c634 <Synth_Init+0xf0>
 800c56e:	f7fc ff7b 	bl	8009468 <Delay_init>
 800c572:	f7fd f9e9 	bl	8009948 <drifter_init>
 800c576:	f7ff fcb5 	bl	800bee4 <sequencer_init>
 800c57a:	482f      	ldr	r0, [pc, #188]	; (800c638 <Synth_Init+0xf4>)
 800c57c:	f7fb f8cc 	bl	8007718 <ADSR_init>
 800c580:	f7fc fbce 	bl	8008d20 <Chorus_init>
 800c584:	f7fe ffb0 	bl	800b4e8 <PhaserInit>
 800c588:	f7ff f968 	bl	800b85c <SVF_init>
 800c58c:	492b      	ldr	r1, [pc, #172]	; (800c63c <Synth_Init+0xf8>)
 800c58e:	4a2c      	ldr	r2, [pc, #176]	; (800c640 <Synth_Init+0xfc>)
 800c590:	482c      	ldr	r0, [pc, #176]	; (800c644 <Synth_Init+0x100>)
 800c592:	f04f 537a 	mov.w	r3, #1048576000	; 0x3e800000
 800c596:	eeb0 0a49 	vmov.f32	s0, s18
 800c59a:	eef0 0a68 	vmov.f32	s1, s17
 800c59e:	600b      	str	r3, [r1, #0]
 800c5a0:	6013      	str	r3, [r2, #0]
 800c5a2:	f7fd fbc1 	bl	8009d28 <osc_init>
 800c5a6:	eeb0 0a49 	vmov.f32	s0, s18
 800c5aa:	eef0 0a68 	vmov.f32	s1, s17
 800c5ae:	4826      	ldr	r0, [pc, #152]	; (800c648 <Synth_Init+0x104>)
 800c5b0:	f7fd fbba 	bl	8009d28 <osc_init>
 800c5b4:	eeb0 0a49 	vmov.f32	s0, s18
 800c5b8:	eef0 0a68 	vmov.f32	s1, s17
 800c5bc:	4823      	ldr	r0, [pc, #140]	; (800c64c <Synth_Init+0x108>)
 800c5be:	f7fd fbb3 	bl	8009d28 <osc_init>
 800c5c2:	eeb0 0a49 	vmov.f32	s0, s18
 800c5c6:	eef0 0a68 	vmov.f32	s1, s17
 800c5ca:	4821      	ldr	r0, [pc, #132]	; (800c650 <Synth_Init+0x10c>)
 800c5cc:	f7fd fbac 	bl	8009d28 <osc_init>
 800c5d0:	eeb0 0a48 	vmov.f32	s0, s16
 800c5d4:	481f      	ldr	r0, [pc, #124]	; (800c654 <Synth_Init+0x110>)
 800c5d6:	eef1 0a06 	vmov.f32	s1, #22
 800c5da:	f7fd fba5 	bl	8009d28 <osc_init>
 800c5de:	eeb0 0a48 	vmov.f32	s0, s16
 800c5e2:	eef0 0a48 	vmov.f32	s1, s16
 800c5e6:	481c      	ldr	r0, [pc, #112]	; (800c658 <Synth_Init+0x114>)
 800c5e8:	f7fd fb9e 	bl	8009d28 <osc_init>
 800c5ec:	eeb0 0a48 	vmov.f32	s0, s16
 800c5f0:	eef0 0a48 	vmov.f32	s1, s16
 800c5f4:	4819      	ldr	r0, [pc, #100]	; (800c65c <Synth_Init+0x118>)
 800c5f6:	f7fd fb97 	bl	8009d28 <osc_init>
 800c5fa:	eeb0 0a48 	vmov.f32	s0, s16
 800c5fe:	eef0 0a48 	vmov.f32	s1, s16
 800c602:	4817      	ldr	r0, [pc, #92]	; (800c660 <Synth_Init+0x11c>)
 800c604:	f7fd fb90 	bl	8009d28 <osc_init>
 800c608:	f7fd ff60 	bl	800a4cc <AdditiveGen_newWaveform>
 800c60c:	4815      	ldr	r0, [pc, #84]	; (800c664 <Synth_Init+0x120>)
 800c60e:	f7fb f9df 	bl	80079d0 <VCO_blepsaw_Init>
 800c612:	4815      	ldr	r0, [pc, #84]	; (800c668 <Synth_Init+0x124>)
 800c614:	f7fb fb52 	bl	8007cbc <VCO_bleprect_Init>
 800c618:	ecbd 8b04 	vpop	{d8-d9}
 800c61c:	4813      	ldr	r0, [pc, #76]	; (800c66c <Synth_Init+0x128>)
 800c61e:	e8bd 4008 	ldmia.w	sp!, {r3, lr}
 800c622:	f7fb bef3 	b.w	800840c <VCO_bleptri_Init>
 800c626:	bf00      	nop
 800c628:	10003e98 	.word	0x10003e98
 800c62c:	3f4ccccd 	.word	0x3f4ccccd
 800c630:	4412c000 	.word	0x4412c000
 800c634:	00000000 	.word	0x00000000
 800c638:	10000000 	.word	0x10000000
 800c63c:	2001f828 	.word	0x2001f828
 800c640:	2001f82c 	.word	0x2001f82c
 800c644:	10003cbc 	.word	0x10003cbc
 800c648:	10003cdc 	.word	0x10003cdc
 800c64c:	10003cfc 	.word	0x10003cfc
 800c650:	10003d1c 	.word	0x10003d1c
 800c654:	10003df4 	.word	0x10003df4
 800c658:	10003dd4 	.word	0x10003dd4
 800c65c:	10003db4 	.word	0x10003db4
 800c660:	10003d94 	.word	0x10003d94
 800c664:	10000adc 	.word	0x10000adc
 800c668:	10000580 	.word	0x10000580
 800c66c:	10000028 	.word	0x10000028

0800c670 <sequencer_newStep_action>:
sequencer_newStep_action():
 800c670:	b538      	push	{r3, r4, r5, lr}
 800c672:	4d50      	ldr	r5, [pc, #320]	; (800c7b4 <sequencer_newStep_action+0x144>)
 800c674:	7aeb      	ldrb	r3, [r5, #11]
 800c676:	2b00      	cmp	r3, #0
 800c678:	d132      	bne.n	800c6e0 <sequencer_newStep_action+0x70>
 800c67a:	7b6b      	ldrb	r3, [r5, #13]
 800c67c:	bb83      	cbnz	r3, 800c6e0 <sequencer_newStep_action+0x70>
 800c67e:	7bab      	ldrb	r3, [r5, #14]
 800c680:	b163      	cbz	r3, 800c69c <sequencer_newStep_action+0x2c>
 800c682:	eef7 0a00 	vmov.f32	s1, #112	; 0x70
 800c686:	ed9f 0a4c 	vldr	s0, [pc, #304]	; 800c7b8 <sequencer_newStep_action+0x148>
 800c68a:	f7ff f88f 	bl	800b7ac <frand_a_b>
 800c68e:	f000 faaf 	bl	800cbf0 <rintf>
 800c692:	eeb5 0a40 	vcmp.f32	s0, #0.0
 800c696:	eef1 fa10 	vmrs	APSR_nzcv, fpscr
 800c69a:	d051      	beq.n	800c740 <sequencer_newStep_action+0xd0>
 800c69c:	4847      	ldr	r0, [pc, #284]	; (800c7bc <sequencer_newStep_action+0x14c>)
 800c69e:	f7fb f851 	bl	8007744 <ADSR_keyOn>
 800c6a2:	4c47      	ldr	r4, [pc, #284]	; (800c7c0 <sequencer_newStep_action+0x150>)
 800c6a4:	78e3      	ldrb	r3, [r4, #3]
 800c6a6:	2b00      	cmp	r3, #0
 800c6a8:	d136      	bne.n	800c718 <sequencer_newStep_action+0xa8>
 800c6aa:	7aab      	ldrb	r3, [r5, #10]
 800c6ac:	4a41      	ldr	r2, [pc, #260]	; (800c7b4 <sequencer_newStep_action+0x144>)
 800c6ae:	b9f3      	cbnz	r3, 800c6ee <sequencer_newStep_action+0x7e>
 800c6b0:	f994 3000 	ldrsb.w	r3, [r4]
 800c6b4:	2b01      	cmp	r3, #1
 800c6b6:	d023      	beq.n	800c700 <sequencer_newStep_action+0x90>
 800c6b8:	2b02      	cmp	r3, #2
 800c6ba:	d045      	beq.n	800c748 <sequencer_newStep_action+0xd8>
 800c6bc:	4a41      	ldr	r2, [pc, #260]	; (800c7c4 <sequencer_newStep_action+0x154>)
 800c6be:	4b42      	ldr	r3, [pc, #264]	; (800c7c8 <sequencer_newStep_action+0x158>)
 800c6c0:	f892 102c 	ldrb.w	r1, [r2, #44]	; 0x2c
 800c6c4:	ed9f 0a3c 	vldr	s0, [pc, #240]	; 800c7b8 <sequencer_newStep_action+0x148>
 800c6c8:	5c52      	ldrb	r2, [r2, r1]
 800c6ca:	eddf 0a40 	vldr	s1, [pc, #256]	; 800c7cc <sequencer_newStep_action+0x15c>
 800c6ce:	eb03 0382 	add.w	r3, r3, r2, lsl #2
 800c6d2:	681b      	ldr	r3, [r3, #0]
 800c6d4:	6123      	str	r3, [r4, #16]
 800c6d6:	f7ff f869 	bl	800b7ac <frand_a_b>
 800c6da:	ed84 0a03 	vstr	s0, [r4, #12]
 800c6de:	bd38      	pop	{r3, r4, r5, pc}
 800c6e0:	f7ff fb94 	bl	800be0c <seq_sequence_new>
 800c6e4:	2300      	movs	r3, #0
 800c6e6:	736b      	strb	r3, [r5, #13]
 800c6e8:	f7fd fef0 	bl	800a4cc <AdditiveGen_newWaveform>
 800c6ec:	e7c7      	b.n	800c67e <sequencer_newStep_action+0xe>
 800c6ee:	7a51      	ldrb	r1, [r2, #9]
 800c6f0:	440b      	add	r3, r1
 800c6f2:	7253      	strb	r3, [r2, #9]
 800c6f4:	f7ff fbce 	bl	800be94 <seq_transpose>
 800c6f8:	f994 3000 	ldrsb.w	r3, [r4]
 800c6fc:	2b01      	cmp	r3, #1
 800c6fe:	d1db      	bne.n	800c6b8 <sequencer_newStep_action+0x48>
 800c700:	f002 f96a 	bl	800e9d8 <rand>
 800c704:	4b32      	ldr	r3, [pc, #200]	; (800c7d0 <sequencer_newStep_action+0x160>)
 800c706:	4003      	ands	r3, r0
 800c708:	2b00      	cmp	r3, #0
 800c70a:	db4d      	blt.n	800c7a8 <sequencer_newStep_action+0x138>
 800c70c:	2b03      	cmp	r3, #3
 800c70e:	d82f      	bhi.n	800c770 <sequencer_newStep_action+0x100>
 800c710:	e8df f003 	tbb	[pc, r3]
 800c714:	34393e2c 	.word	0x34393e2c
 800c718:	eef7 0a00 	vmov.f32	s1, #112	; 0x70
 800c71c:	ed9f 0a2d 	vldr	s0, [pc, #180]	; 800c7d4 <sequencer_newStep_action+0x164>
 800c720:	f7ff f844 	bl	800b7ac <frand_a_b>
 800c724:	eef0 0a40 	vmov.f32	s1, s0
 800c728:	ed9f 0a2b 	vldr	s0, [pc, #172]	; 800c7d8 <sequencer_newStep_action+0x168>
 800c72c:	f000 fb06 	bl	800cd3c <powf>
 800c730:	eddf 7a2a 	vldr	s15, [pc, #168]	; 800c7dc <sequencer_newStep_action+0x16c>
 800c734:	482a      	ldr	r0, [pc, #168]	; (800c7e0 <sequencer_newStep_action+0x170>)
 800c736:	ee20 0a27 	vmul.f32	s0, s0, s15
 800c73a:	f7ff f863 	bl	800b804 <SVF_directSetFilterValue>
 800c73e:	e7b4      	b.n	800c6aa <sequencer_newStep_action+0x3a>
 800c740:	481e      	ldr	r0, [pc, #120]	; (800c7bc <sequencer_newStep_action+0x14c>)
 800c742:	f7fb f809 	bl	8007758 <ADSR_keyOff>
 800c746:	e7ac      	b.n	800c6a2 <sequencer_newStep_action+0x32>
 800c748:	f002 f946 	bl	800e9d8 <rand>
 800c74c:	4b25      	ldr	r3, [pc, #148]	; (800c7e4 <sequencer_newStep_action+0x174>)
 800c74e:	4003      	ands	r3, r0
 800c750:	2b00      	cmp	r3, #0
 800c752:	db24      	blt.n	800c79e <sequencer_newStep_action+0x12e>
 800c754:	b2db      	uxtb	r3, r3
 800c756:	f1a3 020a 	sub.w	r2, r3, #10
 800c75a:	2a01      	cmp	r2, #1
 800c75c:	7063      	strb	r3, [r4, #1]
 800c75e:	4918      	ldr	r1, [pc, #96]	; (800c7c0 <sequencer_newStep_action+0x150>)
 800c760:	d909      	bls.n	800c776 <sequencer_newStep_action+0x106>
 800c762:	2b04      	cmp	r3, #4
 800c764:	d1aa      	bne.n	800c6bc <sequencer_newStep_action+0x4c>
 800c766:	f7fd feb1 	bl	800a4cc <AdditiveGen_newWaveform>
 800c76a:	e7a7      	b.n	800c6bc <sequencer_newStep_action+0x4c>
 800c76c:	2309      	movs	r3, #9
 800c76e:	7063      	strb	r3, [r4, #1]
 800c770:	f994 3000 	ldrsb.w	r3, [r4]
 800c774:	e7a0      	b.n	800c6b8 <sequencer_newStep_action+0x48>
 800c776:	230c      	movs	r3, #12
 800c778:	704b      	strb	r3, [r1, #1]
 800c77a:	e79f      	b.n	800c6bc <sequencer_newStep_action+0x4c>
 800c77c:	220c      	movs	r2, #12
 800c77e:	f994 3000 	ldrsb.w	r3, [r4]
 800c782:	7062      	strb	r2, [r4, #1]
 800c784:	e798      	b.n	800c6b8 <sequencer_newStep_action+0x48>
 800c786:	230b      	movs	r3, #11
 800c788:	7063      	strb	r3, [r4, #1]
 800c78a:	f994 3000 	ldrsb.w	r3, [r4]
 800c78e:	e793      	b.n	800c6b8 <sequencer_newStep_action+0x48>
 800c790:	f7fd fe9c 	bl	800a4cc <AdditiveGen_newWaveform>
 800c794:	2304      	movs	r3, #4
 800c796:	7063      	strb	r3, [r4, #1]
 800c798:	f994 3000 	ldrsb.w	r3, [r4]
 800c79c:	e78c      	b.n	800c6b8 <sequencer_newStep_action+0x48>
 800c79e:	3b01      	subs	r3, #1
 800c7a0:	f063 030f 	orn	r3, r3, #15
 800c7a4:	3301      	adds	r3, #1
 800c7a6:	e7d5      	b.n	800c754 <sequencer_newStep_action+0xe4>
 800c7a8:	3b01      	subs	r3, #1
 800c7aa:	f063 0303 	orn	r3, r3, #3
 800c7ae:	3301      	adds	r3, #1
 800c7b0:	e7ac      	b.n	800c70c <sequencer_newStep_action+0x9c>
 800c7b2:	bf00      	nop
 800c7b4:	10003e88 	.word	0x10003e88
 800c7b8:	3ecccccd 	.word	0x3ecccccd
 800c7bc:	10000000 	.word	0x10000000
 800c7c0:	10003e98 	.word	0x10003e98
 800c7c4:	10003e54 	.word	0x10003e54
 800c7c8:	0801c520 	.word	0x0801c520
 800c7cc:	3f4ccccd 	.word	0x3f4ccccd
 800c7d0:	80000003 	.word	0x80000003
 800c7d4:	00000000 	.word	0x00000000
 800c7d8:	41055555 	.word	0x41055555
 800c7dc:	3c4ccccd 	.word	0x3c4ccccd
 800c7e0:	10003e14 	.word	0x10003e14
 800c7e4:	8000000f 	.word	0x8000000f

0800c7e8 <sequencer_newSequence_action>:
sequencer_newSequence_action():
 800c7e8:	b508      	push	{r3, lr}
 800c7ea:	4b07      	ldr	r3, [pc, #28]	; (800c808 <sequencer_newSequence_action+0x20>)
 800c7ec:	781b      	ldrb	r3, [r3, #0]
 800c7ee:	b113      	cbz	r3, 800c7f6 <sequencer_newSequence_action+0xe>
 800c7f0:	4b06      	ldr	r3, [pc, #24]	; (800c80c <sequencer_newSequence_action+0x24>)
 800c7f2:	781b      	ldrb	r3, [r3, #0]
 800c7f4:	b103      	cbz	r3, 800c7f8 <sequencer_newSequence_action+0x10>
 800c7f6:	bd08      	pop	{r3, pc}
 800c7f8:	207f      	movs	r0, #127	; 0x7f
 800c7fa:	f7fa fd55 	bl	80072a8 <MagicPatch>
 800c7fe:	207f      	movs	r0, #127	; 0x7f
 800c800:	e8bd 4008 	ldmia.w	sp!, {r3, lr}
 800c804:	f7fa bd40 	b.w	8007288 <MagicFX>
 800c808:	20000078 	.word	0x20000078
 800c80c:	2001de50 	.word	0x2001de50

0800c810 <make_sound>:
make_sound():
 800c810:	2900      	cmp	r1, #0
 800c812:	f000 80f9 	beq.w	800ca08 <make_sound+0x1f8>
 800c816:	e92d 43f0 	stmdb	sp!, {r4, r5, r6, r7, r8, r9, lr}
 800c81a:	1e4e      	subs	r6, r1, #1
 800c81c:	ed2d 8b04 	vpush	{d8-d9}
 800c820:	b2b6      	uxth	r6, r6
 800c822:	3602      	adds	r6, #2
 800c824:	b085      	sub	sp, #20
 800c826:	4c79      	ldr	r4, [pc, #484]	; (800ca0c <make_sound+0x1fc>)
 800c828:	f8df 91fc 	ldr.w	r9, [pc, #508]	; 800ca28 <make_sound+0x218>
 800c82c:	f8df 8208 	ldr.w	r8, [pc, #520]	; 800ca38 <make_sound+0x228>
 800c830:	4f77      	ldr	r7, [pc, #476]	; (800ca10 <make_sound+0x200>)
 800c832:	eddf 9a78 	vldr	s19, [pc, #480]	; 800ca14 <make_sound+0x204>
 800c836:	eb00 0686 	add.w	r6, r0, r6, lsl #2
 800c83a:	1d05      	adds	r5, r0, #4
 800c83c:	e053      	b.n	800c8e6 <make_sound+0xd6>
 800c83e:	78e3      	ldrb	r3, [r4, #3]
 800c840:	b943      	cbnz	r3, 800c854 <make_sound+0x44>
 800c842:	4875      	ldr	r0, [pc, #468]	; (800ca18 <make_sound+0x208>)
 800c844:	edd0 7a00 	vldr	s15, [r0]
 800c848:	eef5 7a40 	vcmp.f32	s15, #0.0
 800c84c:	eef1 fa10 	vmrs	APSR_nzcv, fpscr
 800c850:	f040 80c6 	bne.w	800c9e0 <make_sound+0x1d0>
 800c854:	edd7 7a00 	vldr	s15, [r7]
 800c858:	eef5 7a40 	vcmp.f32	s15, #0.0
 800c85c:	eef1 fa10 	vmrs	APSR_nzcv, fpscr
 800c860:	f040 80a4 	bne.w	800c9ac <make_sound+0x19c>
 800c864:	486d      	ldr	r0, [pc, #436]	; (800ca1c <make_sound+0x20c>)
 800c866:	eeb0 0a68 	vmov.f32	s0, s17
 800c86a:	f7ff f93f 	bl	800baec <SVF_calcSample>
 800c86e:	486c      	ldr	r0, [pc, #432]	; (800ca20 <make_sound+0x210>)
 800c870:	eeb0 8a40 	vmov.f32	s16, s0
 800c874:	eeb0 0a68 	vmov.f32	s0, s17
 800c878:	f7ff f938 	bl	800baec <SVF_calcSample>
 800c87c:	78a3      	ldrb	r3, [r4, #2]
 800c87e:	ee38 0a00 	vadd.f32	s0, s16, s0
 800c882:	eef6 7a00 	vmov.f32	s15, #96	; 0x60
 800c886:	ee20 0a27 	vmul.f32	s0, s0, s15
 800c88a:	2b00      	cmp	r3, #0
 800c88c:	f040 8085 	bne.w	800c99a <make_sound+0x18a>
 800c890:	7963      	ldrb	r3, [r4, #5]
 800c892:	2b00      	cmp	r3, #0
 800c894:	f040 8087 	bne.w	800c9a6 <make_sound+0x196>
 800c898:	7923      	ldrb	r3, [r4, #4]
 800c89a:	2b00      	cmp	r3, #0
 800c89c:	d174      	bne.n	800c988 <make_sound+0x178>
 800c89e:	eef0 7a40 	vmov.f32	s15, s0
 800c8a2:	eeb7 7a00 	vmov.f32	s14, #112	; 0x70
 800c8a6:	eef4 7ac7 	vcmpe.f32	s15, s14
 800c8aa:	eef1 fa10 	vmrs	APSR_nzcv, fpscr
 800c8ae:	dd5b      	ble.n	800c968 <make_sound+0x158>
 800c8b0:	eef0 7a47 	vmov.f32	s15, s14
 800c8b4:	f647 72ff 	movw	r2, #32767	; 0x7fff
 800c8b8:	eeb7 7a00 	vmov.f32	s14, #112	; 0x70
 800c8bc:	eeb4 0ac7 	vcmpe.f32	s0, s14
 800c8c0:	eef1 fa10 	vmrs	APSR_nzcv, fpscr
 800c8c4:	edcd 7a02 	vstr	s15, [sp, #8]
 800c8c8:	dd3e      	ble.n	800c948 <make_sound+0x138>
 800c8ca:	eeb0 0a47 	vmov.f32	s0, s14
 800c8ce:	f647 73ff 	movw	r3, #32767	; 0x7fff
 800c8d2:	f825 2c04 	strh.w	r2, [r5, #-4]
 800c8d6:	f825 3c02 	strh.w	r3, [r5, #-2]
 800c8da:	3504      	adds	r5, #4
 800c8dc:	42b5      	cmp	r5, r6
 800c8de:	ed8d 0a03 	vstr	s0, [sp, #12]
 800c8e2:	f000 808c 	beq.w	800c9fe <make_sound+0x1ee>
 800c8e6:	f7ff fb6d 	bl	800bfc4 <sequencer_process>
 800c8ea:	484e      	ldr	r0, [pc, #312]	; (800ca24 <make_sound+0x214>)
 800c8ec:	f7fd fd4e 	bl	800a38c <Osc_WT_SINE_SampleCompute>
 800c8f0:	eeb7 9a00 	vmov.f32	s18, #112	; 0x70
 800c8f4:	edd4 7a04 	vldr	s15, [r4, #16]
 800c8f8:	7860      	ldrb	r0, [r4, #1]
 800c8fa:	ee30 0a09 	vadd.f32	s0, s0, s18
 800c8fe:	ee20 0a27 	vmul.f32	s0, s0, s15
 800c902:	f7fd fe19 	bl	800a538 <waveCompute>
 800c906:	4848      	ldr	r0, [pc, #288]	; (800ca28 <make_sound+0x218>)
 800c908:	eef0 8a40 	vmov.f32	s17, s0
 800c90c:	f7fa ffa4 	bl	8007858 <ADSR_computeSample>
 800c910:	4846      	ldr	r0, [pc, #280]	; (800ca2c <make_sound+0x21c>)
 800c912:	eeb0 8a40 	vmov.f32	s16, s0
 800c916:	f7fd fd39 	bl	800a38c <Osc_WT_SINE_SampleCompute>
 800c91a:	ee30 0a09 	vadd.f32	s0, s0, s18
 800c91e:	edd4 7a03 	vldr	s15, [r4, #12]
 800c922:	f8d9 2024 	ldr.w	r2, [r9, #36]	; 0x24
 800c926:	f8d8 3030 	ldr.w	r3, [r8, #48]	; 0x30
 800c92a:	ee28 0a00 	vmul.f32	s0, s16, s0
 800c92e:	429a      	cmp	r2, r3
 800c930:	ee60 7a27 	vmul.f32	s15, s0, s15
 800c934:	ed84 0a02 	vstr	s0, [r4, #8]
 800c938:	ee67 8aa8 	vmul.f32	s17, s15, s17
 800c93c:	f4ff af7f 	bcc.w	800c83e <make_sound+0x2e>
 800c940:	4839      	ldr	r0, [pc, #228]	; (800ca28 <make_sound+0x218>)
 800c942:	f7fa ff09 	bl	8007758 <ADSR_keyOff>
 800c946:	e77a      	b.n	800c83e <make_sound+0x2e>
 800c948:	eeff 7a00 	vmov.f32	s15, #240	; 0xf0
 800c94c:	eeb4 0ae7 	vcmpe.f32	s0, s15
 800c950:	eef1 fa10 	vmrs	APSR_nzcv, fpscr
 800c954:	d43a      	bmi.n	800c9cc <make_sound+0x1bc>
 800c956:	ee60 7a29 	vmul.f32	s15, s0, s19
 800c95a:	eefd 7ae7 	vcvt.s32.f32	s15, s15
 800c95e:	edcd 7a01 	vstr	s15, [sp, #4]
 800c962:	f8bd 3004 	ldrh.w	r3, [sp, #4]
 800c966:	e7b4      	b.n	800c8d2 <make_sound+0xc2>
 800c968:	eebf 7a00 	vmov.f32	s14, #240	; 0xf0
 800c96c:	eef4 7ac7 	vcmpe.f32	s15, s14
 800c970:	eef1 fa10 	vmrs	APSR_nzcv, fpscr
 800c974:	d42f      	bmi.n	800c9d6 <make_sound+0x1c6>
 800c976:	ee27 7aa9 	vmul.f32	s14, s15, s19
 800c97a:	eebd 7ac7 	vcvt.s32.f32	s14, s14
 800c97e:	ed8d 7a01 	vstr	s14, [sp, #4]
 800c982:	f8bd 2004 	ldrh.w	r2, [sp, #4]
 800c986:	e797      	b.n	800c8b8 <make_sound+0xa8>
 800c988:	a802      	add	r0, sp, #8
 800c98a:	a903      	add	r1, sp, #12
 800c98c:	f7fc fcb2 	bl	80092f4 <stereoChorus_compute>
 800c990:	eddd 7a02 	vldr	s15, [sp, #8]
 800c994:	ed9d 0a03 	vldr	s0, [sp, #12]
 800c998:	e783      	b.n	800c8a2 <make_sound+0x92>
 800c99a:	f7fc fe1f 	bl	80095dc <Delay_compute>
 800c99e:	7963      	ldrb	r3, [r4, #5]
 800c9a0:	2b00      	cmp	r3, #0
 800c9a2:	f43f af79 	beq.w	800c898 <make_sound+0x88>
 800c9a6:	f7fe fe31 	bl	800b60c <Phaser_compute>
 800c9aa:	e775      	b.n	800c898 <make_sound+0x88>
 800c9ac:	4818      	ldr	r0, [pc, #96]	; (800ca10 <make_sound+0x200>)
 800c9ae:	f7fd fd39 	bl	800a424 <OpSampleCompute7bis>
 800c9b2:	4b1f      	ldr	r3, [pc, #124]	; (800ca30 <make_sound+0x220>)
 800c9b4:	481a      	ldr	r0, [pc, #104]	; (800ca20 <make_sound+0x210>)
 800c9b6:	ed93 7a00 	vldr	s14, [r3]
 800c9ba:	eef7 7a00 	vmov.f32	s15, #112	; 0x70
 800c9be:	ee30 0a27 	vadd.f32	s0, s0, s15
 800c9c2:	ee20 0a07 	vmul.f32	s0, s0, s14
 800c9c6:	f7fe ff1d 	bl	800b804 <SVF_directSetFilterValue>
 800c9ca:	e74b      	b.n	800c864 <make_sound+0x54>
 800c9cc:	eeb0 0a67 	vmov.f32	s0, s15
 800c9d0:	f248 0301 	movw	r3, #32769	; 0x8001
 800c9d4:	e77d      	b.n	800c8d2 <make_sound+0xc2>
 800c9d6:	eef0 7a47 	vmov.f32	s15, s14
 800c9da:	f248 0201 	movw	r2, #32769	; 0x8001
 800c9de:	e76b      	b.n	800c8b8 <make_sound+0xa8>
 800c9e0:	f7fd fd20 	bl	800a424 <OpSampleCompute7bis>
 800c9e4:	4b13      	ldr	r3, [pc, #76]	; (800ca34 <make_sound+0x224>)
 800c9e6:	480d      	ldr	r0, [pc, #52]	; (800ca1c <make_sound+0x20c>)
 800c9e8:	ed93 7a00 	vldr	s14, [r3]
 800c9ec:	eef7 7a00 	vmov.f32	s15, #112	; 0x70
 800c9f0:	ee30 0a27 	vadd.f32	s0, s0, s15
 800c9f4:	ee20 0a07 	vmul.f32	s0, s0, s14
 800c9f8:	f7fe ff04 	bl	800b804 <SVF_directSetFilterValue>
 800c9fc:	e72a      	b.n	800c854 <make_sound+0x44>
 800c9fe:	b005      	add	sp, #20
 800ca00:	ecbd 8b04 	vpop	{d8-d9}
 800ca04:	e8bd 83f0 	ldmia.w	sp!, {r4, r5, r6, r7, r8, r9, pc}
 800ca08:	4770      	bx	lr
 800ca0a:	bf00      	nop
 800ca0c:	10003e98 	.word	0x10003e98
 800ca10:	10003db4 	.word	0x10003db4
 800ca14:	46fffe00 	.word	0x46fffe00
 800ca18:	10003dd4 	.word	0x10003dd4
 800ca1c:	10003e14 	.word	0x10003e14
 800ca20:	10003e34 	.word	0x10003e34
 800ca24:	10003df4 	.word	0x10003df4
 800ca28:	10000000 	.word	0x10000000
 800ca2c:	10003d94 	.word	0x10003d94
 800ca30:	2001f82c 	.word	0x2001f82c
 800ca34:	2001f828 	.word	0x2001f828
 800ca38:	10003e54 	.word	0x10003e54

0800ca3c <TimingDelay_Decrement>:
TimingDelay_Decrement():
 800ca3c:	4a05      	ldr	r2, [pc, #20]	; (800ca54 <TimingDelay_Decrement+0x18>)
 800ca3e:	6813      	ldr	r3, [r2, #0]
 800ca40:	b10b      	cbz	r3, 800ca46 <TimingDelay_Decrement+0xa>
 800ca42:	3b01      	subs	r3, #1
 800ca44:	6013      	str	r3, [r2, #0]
 800ca46:	4a04      	ldr	r2, [pc, #16]	; (800ca58 <TimingDelay_Decrement+0x1c>)
 800ca48:	6813      	ldr	r3, [r2, #0]
 800ca4a:	b10b      	cbz	r3, 800ca50 <TimingDelay_Decrement+0x14>
 800ca4c:	3b01      	subs	r3, #1
 800ca4e:	6013      	str	r3, [r2, #0]
 800ca50:	4770      	bx	lr
 800ca52:	bf00      	nop
 800ca54:	2001dea0 	.word	0x2001dea0
 800ca58:	2001de98 	.word	0x2001de98

0800ca5c <update_temporized_LED>:
update_temporized_LED():
 800ca5c:	4a04      	ldr	r2, [pc, #16]	; (800ca70 <update_temporized_LED+0x14>)
 800ca5e:	6813      	ldr	r3, [r2, #0]
 800ca60:	3b01      	subs	r3, #1
 800ca62:	6013      	str	r3, [r2, #0]
 800ca64:	b103      	cbz	r3, 800ca68 <update_temporized_LED+0xc>
 800ca66:	4770      	bx	lr
 800ca68:	2003      	movs	r0, #3
 800ca6a:	f7f9 bf7f 	b.w	800696c <BSP_LED_Off>
 800ca6e:	bf00      	nop
 800ca70:	2001f830 	.word	0x2001f830

0800ca74 <DebounceUserButton>:
DebounceUserButton():
 800ca74:	b510      	push	{r4, lr}
 800ca76:	2000      	movs	r0, #0
 800ca78:	f7f9 ffcc 	bl	8006a14 <BSP_PB_GetState>
 800ca7c:	4911      	ldr	r1, [pc, #68]	; (800cac4 <DebounceUserButton+0x50>)
 800ca7e:	3000      	adds	r0, #0
 800ca80:	780b      	ldrb	r3, [r1, #0]
 800ca82:	bf18      	it	ne
 800ca84:	2001      	movne	r0, #1
 800ca86:	4283      	cmp	r3, r0
 800ca88:	d013      	beq.n	800cab2 <DebounceUserButton+0x3e>
 800ca8a:	4a0f      	ldr	r2, [pc, #60]	; (800cac8 <DebounceUserButton+0x54>)
 800ca8c:	7813      	ldrb	r3, [r2, #0]
 800ca8e:	3b01      	subs	r3, #1
 800ca90:	b2db      	uxtb	r3, r3
 800ca92:	7013      	strb	r3, [r2, #0]
 800ca94:	b963      	cbnz	r3, 800cab0 <DebounceUserButton+0x3c>
 800ca96:	4b0d      	ldr	r3, [pc, #52]	; (800cacc <DebounceUserButton+0x58>)
 800ca98:	4c0d      	ldr	r4, [pc, #52]	; (800cad0 <DebounceUserButton+0x5c>)
 800ca9a:	7008      	strb	r0, [r1, #0]
 800ca9c:	7018      	strb	r0, [r3, #0]
 800ca9e:	2101      	movs	r1, #1
 800caa0:	2305      	movs	r3, #5
 800caa2:	7021      	strb	r1, [r4, #0]
 800caa4:	7013      	strb	r3, [r2, #0]
 800caa6:	b940      	cbnz	r0, 800caba <DebounceUserButton+0x46>
 800caa8:	e8bd 4010 	ldmia.w	sp!, {r4, lr}
 800caac:	f7fd b824 	b.w	8009af8 <ButtonReleased_action>
 800cab0:	bd10      	pop	{r4, pc}
 800cab2:	4b05      	ldr	r3, [pc, #20]	; (800cac8 <DebounceUserButton+0x54>)
 800cab4:	2205      	movs	r2, #5
 800cab6:	701a      	strb	r2, [r3, #0]
 800cab8:	bd10      	pop	{r4, pc}
 800caba:	e8bd 4010 	ldmia.w	sp!, {r4, lr}
 800cabe:	f7fd b80b 	b.w	8009ad8 <ButtonPressed_action>
 800cac2:	bf00      	nop
 800cac4:	2001de9c 	.word	0x2001de9c
 800cac8:	20000080 	.word	0x20000080
 800cacc:	2001de9e 	.word	0x2001de9e
 800cad0:	2001de9d 	.word	0x2001de9d

0800cad4 <floorf>:
floorf():
 800cad4:	ee10 2a10 	vmov	r2, s0
 800cad8:	f022 4100 	bic.w	r1, r2, #2147483648	; 0x80000000
 800cadc:	0dcb      	lsrs	r3, r1, #23
 800cade:	3b7f      	subs	r3, #127	; 0x7f
 800cae0:	2b16      	cmp	r3, #22
 800cae2:	dc17      	bgt.n	800cb14 <floorf+0x40>
 800cae4:	2b00      	cmp	r3, #0
 800cae6:	ee10 0a10 	vmov	r0, s0
 800caea:	db19      	blt.n	800cb20 <floorf+0x4c>
 800caec:	491a      	ldr	r1, [pc, #104]	; (800cb58 <floorf+0x84>)
 800caee:	4119      	asrs	r1, r3
 800caf0:	4211      	tst	r1, r2
 800caf2:	d022      	beq.n	800cb3a <floorf+0x66>
 800caf4:	eddf 7a19 	vldr	s15, [pc, #100]	; 800cb5c <floorf+0x88>
 800caf8:	ee70 7a27 	vadd.f32	s15, s0, s15
 800cafc:	eef5 7ac0 	vcmpe.f32	s15, #0.0
 800cb00:	eef1 fa10 	vmrs	APSR_nzcv, fpscr
 800cb04:	dd19      	ble.n	800cb3a <floorf+0x66>
 800cb06:	2a00      	cmp	r2, #0
 800cb08:	db18      	blt.n	800cb3c <floorf+0x68>
 800cb0a:	ea20 0301 	bic.w	r3, r0, r1
 800cb0e:	ee00 3a10 	vmov	s0, r3
 800cb12:	4770      	bx	lr
 800cb14:	f1b1 4fff 	cmp.w	r1, #2139095040	; 0x7f800000
 800cb18:	d30f      	bcc.n	800cb3a <floorf+0x66>
 800cb1a:	ee30 0a00 	vadd.f32	s0, s0, s0
 800cb1e:	4770      	bx	lr
 800cb20:	eddf 7a0e 	vldr	s15, [pc, #56]	; 800cb5c <floorf+0x88>
 800cb24:	ee70 7a27 	vadd.f32	s15, s0, s15
 800cb28:	eef5 7ac0 	vcmpe.f32	s15, #0.0
 800cb2c:	eef1 fa10 	vmrs	APSR_nzcv, fpscr
 800cb30:	dd03      	ble.n	800cb3a <floorf+0x66>
 800cb32:	2a00      	cmp	r2, #0
 800cb34:	db08      	blt.n	800cb48 <floorf+0x74>
 800cb36:	ed9f 0a0a 	vldr	s0, [pc, #40]	; 800cb60 <floorf+0x8c>
 800cb3a:	4770      	bx	lr
 800cb3c:	f44f 0200 	mov.w	r2, #8388608	; 0x800000
 800cb40:	fa42 f303 	asr.w	r3, r2, r3
 800cb44:	4418      	add	r0, r3
 800cb46:	e7e0      	b.n	800cb0a <floorf+0x36>
 800cb48:	2900      	cmp	r1, #0
 800cb4a:	eeff 7a00 	vmov.f32	s15, #240	; 0xf0
 800cb4e:	bf18      	it	ne
 800cb50:	eeb0 0a67 	vmovne.f32	s0, s15
 800cb54:	4770      	bx	lr
 800cb56:	bf00      	nop
 800cb58:	007fffff 	.word	0x007fffff
 800cb5c:	7149f2ca 	.word	0x7149f2ca
 800cb60:	00000000 	.word	0x00000000

0800cb64 <lrintf>:
lrintf():
 800cb64:	b084      	sub	sp, #16
 800cb66:	ed8d 0a01 	vstr	s0, [sp, #4]
 800cb6a:	9b01      	ldr	r3, [sp, #4]
 800cb6c:	f3c3 50c7 	ubfx	r0, r3, #23, #8
 800cb70:	f1a0 017f 	sub.w	r1, r0, #127	; 0x7f
 800cb74:	291e      	cmp	r1, #30
 800cb76:	dc27      	bgt.n	800cbc8 <lrintf+0x64>
 800cb78:	1c4a      	adds	r2, r1, #1
 800cb7a:	db22      	blt.n	800cbc2 <lrintf+0x5e>
 800cb7c:	2916      	cmp	r1, #22
 800cb7e:	ea4f 72d3 	mov.w	r2, r3, lsr #31
 800cb82:	dd0a      	ble.n	800cb9a <lrintf+0x36>
 800cb84:	f3c3 0316 	ubfx	r3, r3, #0, #23
 800cb88:	f443 0300 	orr.w	r3, r3, #8388608	; 0x800000
 800cb8c:	3896      	subs	r0, #150	; 0x96
 800cb8e:	4083      	lsls	r3, r0
 800cb90:	4250      	negs	r0, r2
 800cb92:	4043      	eors	r3, r0
 800cb94:	1898      	adds	r0, r3, r2
 800cb96:	b004      	add	sp, #16
 800cb98:	4770      	bx	lr
 800cb9a:	4b14      	ldr	r3, [pc, #80]	; (800cbec <lrintf+0x88>)
 800cb9c:	eddd 7a01 	vldr	s15, [sp, #4]
 800cba0:	eb03 0382 	add.w	r3, r3, r2, lsl #2
 800cba4:	ed93 7a00 	vldr	s14, [r3]
 800cba8:	ee77 7a27 	vadd.f32	s15, s14, s15
 800cbac:	edcd 7a03 	vstr	s15, [sp, #12]
 800cbb0:	eddd 7a03 	vldr	s15, [sp, #12]
 800cbb4:	ee77 7ac7 	vsub.f32	s15, s15, s14
 800cbb8:	ee17 1a90 	vmov	r1, s15
 800cbbc:	f021 4300 	bic.w	r3, r1, #2147483648	; 0x80000000
 800cbc0:	b953      	cbnz	r3, 800cbd8 <lrintf+0x74>
 800cbc2:	2000      	movs	r0, #0
 800cbc4:	b004      	add	sp, #16
 800cbc6:	4770      	bx	lr
 800cbc8:	eddd 7a01 	vldr	s15, [sp, #4]
 800cbcc:	eefd 7ae7 	vcvt.s32.f32	s15, s15
 800cbd0:	ee17 0a90 	vmov	r0, s15
 800cbd4:	b004      	add	sp, #16
 800cbd6:	4770      	bx	lr
 800cbd8:	f3c1 0316 	ubfx	r3, r1, #0, #23
 800cbdc:	f3c1 51c7 	ubfx	r1, r1, #23, #8
 800cbe0:	f443 0300 	orr.w	r3, r3, #8388608	; 0x800000
 800cbe4:	f1c1 0196 	rsb	r1, r1, #150	; 0x96
 800cbe8:	40cb      	lsrs	r3, r1
 800cbea:	e7d1      	b.n	800cb90 <lrintf+0x2c>
 800cbec:	0801d740 	.word	0x0801d740

0800cbf0 <rintf>:
rintf():
 800cbf0:	b410      	push	{r4}
 800cbf2:	b085      	sub	sp, #20
 800cbf4:	ed8d 0a01 	vstr	s0, [sp, #4]
 800cbf8:	9a01      	ldr	r2, [sp, #4]
 800cbfa:	f022 4100 	bic.w	r1, r2, #2147483648	; 0x80000000
 800cbfe:	0dcb      	lsrs	r3, r1, #23
 800cc00:	3b7f      	subs	r3, #127	; 0x7f
 800cc02:	2b16      	cmp	r3, #22
 800cc04:	dc26      	bgt.n	800cc54 <rintf+0x64>
 800cc06:	b341      	cbz	r1, 800cc5a <rintf+0x6a>
 800cc08:	2b00      	cmp	r3, #0
 800cc0a:	4611      	mov	r1, r2
 800cc0c:	ea4f 70d2 	mov.w	r0, r2, lsr #31
 800cc10:	db31      	blt.n	800cc76 <rintf+0x86>
 800cc12:	4a29      	ldr	r2, [pc, #164]	; (800ccb8 <rintf+0xc8>)
 800cc14:	411a      	asrs	r2, r3
 800cc16:	420a      	tst	r2, r1
 800cc18:	d01f      	beq.n	800cc5a <rintf+0x6a>
 800cc1a:	0852      	lsrs	r2, r2, #1
 800cc1c:	420a      	tst	r2, r1
 800cc1e:	d006      	beq.n	800cc2e <rintf+0x3e>
 800cc20:	f44f 1400 	mov.w	r4, #2097152	; 0x200000
 800cc24:	ea21 0202 	bic.w	r2, r1, r2
 800cc28:	fa44 f103 	asr.w	r1, r4, r3
 800cc2c:	4311      	orrs	r1, r2
 800cc2e:	4b23      	ldr	r3, [pc, #140]	; (800ccbc <rintf+0xcc>)
 800cc30:	eb03 0380 	add.w	r3, r3, r0, lsl #2
 800cc34:	ed93 0a00 	vldr	s0, [r3]
 800cc38:	ee07 1a90 	vmov	s15, r1
 800cc3c:	ee70 7a27 	vadd.f32	s15, s0, s15
 800cc40:	edcd 7a03 	vstr	s15, [sp, #12]
 800cc44:	eddd 7a03 	vldr	s15, [sp, #12]
 800cc48:	ee37 0ac0 	vsub.f32	s0, s15, s0
 800cc4c:	b005      	add	sp, #20
 800cc4e:	f85d 4b04 	ldr.w	r4, [sp], #4
 800cc52:	4770      	bx	lr
 800cc54:	f1b1 4fff 	cmp.w	r1, #2139095040	; 0x7f800000
 800cc58:	d205      	bcs.n	800cc66 <rintf+0x76>
 800cc5a:	ed9d 0a01 	vldr	s0, [sp, #4]
 800cc5e:	b005      	add	sp, #20
 800cc60:	f85d 4b04 	ldr.w	r4, [sp], #4
 800cc64:	4770      	bx	lr
 800cc66:	eddd 7a01 	vldr	s15, [sp, #4]
 800cc6a:	ee37 0aa7 	vadd.f32	s0, s15, s15
 800cc6e:	b005      	add	sp, #20
 800cc70:	f85d 4b04 	ldr.w	r4, [sp], #4
 800cc74:	4770      	bx	lr
 800cc76:	f3c2 0316 	ubfx	r3, r2, #0, #23
 800cc7a:	425b      	negs	r3, r3
 800cc7c:	490f      	ldr	r1, [pc, #60]	; (800ccbc <rintf+0xcc>)
 800cc7e:	0a5b      	lsrs	r3, r3, #9
 800cc80:	0d12      	lsrs	r2, r2, #20
 800cc82:	f403 0380 	and.w	r3, r3, #4194304	; 0x400000
 800cc86:	0512      	lsls	r2, r2, #20
 800cc88:	431a      	orrs	r2, r3
 800cc8a:	eb01 0180 	add.w	r1, r1, r0, lsl #2
 800cc8e:	edd1 6a00 	vldr	s13, [r1]
 800cc92:	ee07 2a90 	vmov	s15, r2
 800cc96:	ee36 7aa7 	vadd.f32	s14, s13, s15
 800cc9a:	ed8d 7a03 	vstr	s14, [sp, #12]
 800cc9e:	eddd 7a03 	vldr	s15, [sp, #12]
 800cca2:	ee77 7ae6 	vsub.f32	s15, s15, s13
 800cca6:	ee17 3a90 	vmov	r3, s15
 800ccaa:	f023 4300 	bic.w	r3, r3, #2147483648	; 0x80000000
 800ccae:	ea43 73c0 	orr.w	r3, r3, r0, lsl #31
 800ccb2:	ee00 3a10 	vmov	s0, r3
 800ccb6:	e7d2      	b.n	800cc5e <rintf+0x6e>
 800ccb8:	007fffff 	.word	0x007fffff
 800ccbc:	0801d748 	.word	0x0801d748

0800ccc0 <sinf>:
sinf():
 800ccc0:	b500      	push	{lr}
 800ccc2:	ee10 3a10 	vmov	r3, s0
 800ccc6:	4a1b      	ldr	r2, [pc, #108]	; (800cd34 <sinf+0x74>)
 800ccc8:	f023 4300 	bic.w	r3, r3, #2147483648	; 0x80000000
 800cccc:	4293      	cmp	r3, r2
 800ccce:	b083      	sub	sp, #12
 800ccd0:	dd1a      	ble.n	800cd08 <sinf+0x48>
 800ccd2:	f1b3 4fff 	cmp.w	r3, #2139095040	; 0x7f800000
 800ccd6:	db04      	blt.n	800cce2 <sinf+0x22>
 800ccd8:	ee30 0a40 	vsub.f32	s0, s0, s0
 800ccdc:	b003      	add	sp, #12
 800ccde:	f85d fb04 	ldr.w	pc, [sp], #4
 800cce2:	4668      	mov	r0, sp
 800cce4:	f000 fcc4 	bl	800d670 <__ieee754_rem_pio2f>
 800cce8:	f000 0003 	and.w	r0, r0, #3
 800ccec:	2801      	cmp	r0, #1
 800ccee:	ed9d 0a00 	vldr	s0, [sp]
 800ccf2:	eddd 0a01 	vldr	s1, [sp, #4]
 800ccf6:	d015      	beq.n	800cd24 <sinf+0x64>
 800ccf8:	2802      	cmp	r0, #2
 800ccfa:	d00d      	beq.n	800cd18 <sinf+0x58>
 800ccfc:	b1a8      	cbz	r0, 800cd2a <sinf+0x6a>
 800ccfe:	f000 fe51 	bl	800d9a4 <__kernel_cosf>
 800cd02:	eeb1 0a40 	vneg.f32	s0, s0
 800cd06:	e7e9      	b.n	800ccdc <sinf+0x1c>
 800cd08:	eddf 0a0b 	vldr	s1, [pc, #44]	; 800cd38 <sinf+0x78>
 800cd0c:	2000      	movs	r0, #0
 800cd0e:	f001 f9bd 	bl	800e08c <__kernel_sinf>
 800cd12:	b003      	add	sp, #12
 800cd14:	f85d fb04 	ldr.w	pc, [sp], #4
 800cd18:	2001      	movs	r0, #1
 800cd1a:	f001 f9b7 	bl	800e08c <__kernel_sinf>
 800cd1e:	eeb1 0a40 	vneg.f32	s0, s0
 800cd22:	e7db      	b.n	800ccdc <sinf+0x1c>
 800cd24:	f000 fe3e 	bl	800d9a4 <__kernel_cosf>
 800cd28:	e7d8      	b.n	800ccdc <sinf+0x1c>
 800cd2a:	2001      	movs	r0, #1
 800cd2c:	f001 f9ae 	bl	800e08c <__kernel_sinf>
 800cd30:	e7d4      	b.n	800ccdc <sinf+0x1c>
 800cd32:	bf00      	nop
 800cd34:	3f490fd8 	.word	0x3f490fd8
 800cd38:	00000000 	.word	0x00000000

0800cd3c <powf>:
powf():
 800cd3c:	b5f0      	push	{r4, r5, r6, r7, lr}
 800cd3e:	ed2d 8b04 	vpush	{d8-d9}
 800cd42:	4ca7      	ldr	r4, [pc, #668]	; (800cfe0 <powf+0x2a4>)
 800cd44:	b08b      	sub	sp, #44	; 0x2c
 800cd46:	eeb0 9a40 	vmov.f32	s18, s0
 800cd4a:	eef0 8a60 	vmov.f32	s17, s1
 800cd4e:	f000 f997 	bl	800d080 <__ieee754_powf>
 800cd52:	f994 3000 	ldrsb.w	r3, [r4]
 800cd56:	3301      	adds	r3, #1
 800cd58:	eeb0 8a40 	vmov.f32	s16, s0
 800cd5c:	d004      	beq.n	800cd68 <powf+0x2c>
 800cd5e:	eeb0 0a68 	vmov.f32	s0, s17
 800cd62:	f001 fa81 	bl	800e268 <__fpclassifyf>
 800cd66:	b928      	cbnz	r0, 800cd74 <powf+0x38>
 800cd68:	eeb0 0a48 	vmov.f32	s0, s16
 800cd6c:	b00b      	add	sp, #44	; 0x2c
 800cd6e:	ecbd 8b04 	vpop	{d8-d9}
 800cd72:	bdf0      	pop	{r4, r5, r6, r7, pc}
 800cd74:	eeb0 0a49 	vmov.f32	s0, s18
 800cd78:	f001 fa76 	bl	800e268 <__fpclassifyf>
 800cd7c:	2800      	cmp	r0, #0
 800cd7e:	d135      	bne.n	800cdec <powf+0xb0>
 800cd80:	eef5 8a40 	vcmp.f32	s17, #0.0
 800cd84:	eef1 fa10 	vmrs	APSR_nzcv, fpscr
 800cd88:	d1ee      	bne.n	800cd68 <powf+0x2c>
 800cd8a:	4b96      	ldr	r3, [pc, #600]	; (800cfe4 <powf+0x2a8>)
 800cd8c:	9008      	str	r0, [sp, #32]
 800cd8e:	2201      	movs	r2, #1
 800cd90:	ee19 0a10 	vmov	r0, s18
 800cd94:	e88d 000c 	stmia.w	sp, {r2, r3}
 800cd98:	f7f3 fb88 	bl	80004ac <__aeabi_f2d>
 800cd9c:	e9cd 0102 	strd	r0, r1, [sp, #8]
 800cda0:	ee18 0a90 	vmov	r0, s17
 800cda4:	f7f3 fb82 	bl	80004ac <__aeabi_f2d>
 800cda8:	f994 3000 	ldrsb.w	r3, [r4]
 800cdac:	4f8e      	ldr	r7, [pc, #568]	; (800cfe8 <powf+0x2ac>)
 800cdae:	2600      	movs	r6, #0
 800cdb0:	1c5a      	adds	r2, r3, #1
 800cdb2:	e9cd 0104 	strd	r0, r1, [sp, #16]
 800cdb6:	e9cd 6706 	strd	r6, r7, [sp, #24]
 800cdba:	d00d      	beq.n	800cdd8 <powf+0x9c>
 800cdbc:	2b02      	cmp	r3, #2
 800cdbe:	d00b      	beq.n	800cdd8 <powf+0x9c>
 800cdc0:	4668      	mov	r0, sp
 800cdc2:	f001 f9ab 	bl	800e11c <matherr>
 800cdc6:	2800      	cmp	r0, #0
 800cdc8:	f000 80a4 	beq.w	800cf14 <powf+0x1d8>
 800cdcc:	9b08      	ldr	r3, [sp, #32]
 800cdce:	b11b      	cbz	r3, 800cdd8 <powf+0x9c>
 800cdd0:	f001 ffee 	bl	800edb0 <____errno_veneer>
 800cdd4:	9b08      	ldr	r3, [sp, #32]
 800cdd6:	6003      	str	r3, [r0, #0]
 800cdd8:	e9dd 0106 	ldrd	r0, r1, [sp, #24]
 800cddc:	f7f3 fe54 	bl	8000a88 <__aeabi_d2f>
 800cde0:	ee00 0a10 	vmov	s0, r0
 800cde4:	b00b      	add	sp, #44	; 0x2c
 800cde6:	ecbd 8b04 	vpop	{d8-d9}
 800cdea:	bdf0      	pop	{r4, r5, r6, r7, pc}
 800cdec:	eeb5 9a40 	vcmp.f32	s18, #0.0
 800cdf0:	eef1 fa10 	vmrs	APSR_nzcv, fpscr
 800cdf4:	d123      	bne.n	800ce3e <powf+0x102>
 800cdf6:	eef5 8a40 	vcmp.f32	s17, #0.0
 800cdfa:	eef1 fa10 	vmrs	APSR_nzcv, fpscr
 800cdfe:	d15c      	bne.n	800ceba <powf+0x17e>
 800ce00:	2301      	movs	r3, #1
 800ce02:	4a78      	ldr	r2, [pc, #480]	; (800cfe4 <powf+0x2a8>)
 800ce04:	9300      	str	r3, [sp, #0]
 800ce06:	ee19 0a10 	vmov	r0, s18
 800ce0a:	2300      	movs	r3, #0
 800ce0c:	9308      	str	r3, [sp, #32]
 800ce0e:	9201      	str	r2, [sp, #4]
 800ce10:	f7f3 fb4c 	bl	80004ac <__aeabi_f2d>
 800ce14:	e9cd 0102 	strd	r0, r1, [sp, #8]
 800ce18:	ee18 0a90 	vmov	r0, s17
 800ce1c:	f7f3 fb46 	bl	80004ac <__aeabi_f2d>
 800ce20:	f994 3000 	ldrsb.w	r3, [r4]
 800ce24:	2600      	movs	r6, #0
 800ce26:	2700      	movs	r7, #0
 800ce28:	e9cd 0104 	strd	r0, r1, [sp, #16]
 800ce2c:	e9cd 6706 	strd	r6, r7, [sp, #24]
 800ce30:	2b00      	cmp	r3, #0
 800ce32:	d0c5      	beq.n	800cdc0 <powf+0x84>
 800ce34:	4b6c      	ldr	r3, [pc, #432]	; (800cfe8 <powf+0x2ac>)
 800ce36:	2200      	movs	r2, #0
 800ce38:	e9cd 2306 	strd	r2, r3, [sp, #24]
 800ce3c:	e7cc      	b.n	800cdd8 <powf+0x9c>
 800ce3e:	eeb0 0a48 	vmov.f32	s0, s16
 800ce42:	f001 fa07 	bl	800e254 <finitef>
 800ce46:	4605      	mov	r5, r0
 800ce48:	2800      	cmp	r0, #0
 800ce4a:	d068      	beq.n	800cf1e <powf+0x1e2>
 800ce4c:	eeb5 8a40 	vcmp.f32	s16, #0.0
 800ce50:	eef1 fa10 	vmrs	APSR_nzcv, fpscr
 800ce54:	d188      	bne.n	800cd68 <powf+0x2c>
 800ce56:	eeb0 0a49 	vmov.f32	s0, s18
 800ce5a:	f001 f9fb 	bl	800e254 <finitef>
 800ce5e:	2800      	cmp	r0, #0
 800ce60:	d082      	beq.n	800cd68 <powf+0x2c>
 800ce62:	eeb0 0a68 	vmov.f32	s0, s17
 800ce66:	f001 f9f5 	bl	800e254 <finitef>
 800ce6a:	2800      	cmp	r0, #0
 800ce6c:	f43f af7c 	beq.w	800cd68 <powf+0x2c>
 800ce70:	2304      	movs	r3, #4
 800ce72:	4a5c      	ldr	r2, [pc, #368]	; (800cfe4 <powf+0x2a8>)
 800ce74:	9300      	str	r3, [sp, #0]
 800ce76:	ee19 0a10 	vmov	r0, s18
 800ce7a:	2300      	movs	r3, #0
 800ce7c:	9308      	str	r3, [sp, #32]
 800ce7e:	9201      	str	r2, [sp, #4]
 800ce80:	f7f3 fb14 	bl	80004ac <__aeabi_f2d>
 800ce84:	e9cd 0102 	strd	r0, r1, [sp, #8]
 800ce88:	ee18 0a90 	vmov	r0, s17
 800ce8c:	f7f3 fb0e 	bl	80004ac <__aeabi_f2d>
 800ce90:	f994 3000 	ldrsb.w	r3, [r4]
 800ce94:	2600      	movs	r6, #0
 800ce96:	2700      	movs	r7, #0
 800ce98:	2b02      	cmp	r3, #2
 800ce9a:	e9cd 0104 	strd	r0, r1, [sp, #16]
 800ce9e:	e9cd 6706 	strd	r6, r7, [sp, #24]
 800cea2:	f000 8098 	beq.w	800cfd6 <powf+0x29a>
 800cea6:	4668      	mov	r0, sp
 800cea8:	f001 f938 	bl	800e11c <matherr>
 800ceac:	2800      	cmp	r0, #0
 800ceae:	f000 8092 	beq.w	800cfd6 <powf+0x29a>
 800ceb2:	9b08      	ldr	r3, [sp, #32]
 800ceb4:	2b00      	cmp	r3, #0
 800ceb6:	d08f      	beq.n	800cdd8 <powf+0x9c>
 800ceb8:	e78a      	b.n	800cdd0 <powf+0x94>
 800ceba:	eeb0 0a68 	vmov.f32	s0, s17
 800cebe:	f001 f9c9 	bl	800e254 <finitef>
 800cec2:	2800      	cmp	r0, #0
 800cec4:	f43f af50 	beq.w	800cd68 <powf+0x2c>
 800cec8:	eef5 8ac0 	vcmpe.f32	s17, #0.0
 800cecc:	eef1 fa10 	vmrs	APSR_nzcv, fpscr
 800ced0:	f57f af4a 	bpl.w	800cd68 <powf+0x2c>
 800ced4:	2301      	movs	r3, #1
 800ced6:	4a43      	ldr	r2, [pc, #268]	; (800cfe4 <powf+0x2a8>)
 800ced8:	9300      	str	r3, [sp, #0]
 800ceda:	ee19 0a10 	vmov	r0, s18
 800cede:	2300      	movs	r3, #0
 800cee0:	9308      	str	r3, [sp, #32]
 800cee2:	9201      	str	r2, [sp, #4]
 800cee4:	f7f3 fae2 	bl	80004ac <__aeabi_f2d>
 800cee8:	e9cd 0102 	strd	r0, r1, [sp, #8]
 800ceec:	ee18 0a90 	vmov	r0, s17
 800cef0:	f7f3 fadc 	bl	80004ac <__aeabi_f2d>
 800cef4:	7823      	ldrb	r3, [r4, #0]
 800cef6:	e9cd 0104 	strd	r0, r1, [sp, #16]
 800cefa:	2b00      	cmp	r3, #0
 800cefc:	d043      	beq.n	800cf86 <powf+0x24a>
 800cefe:	493b      	ldr	r1, [pc, #236]	; (800cfec <powf+0x2b0>)
 800cf00:	2000      	movs	r0, #0
 800cf02:	2b02      	cmp	r3, #2
 800cf04:	e9cd 0106 	strd	r0, r1, [sp, #24]
 800cf08:	d137      	bne.n	800cf7a <powf+0x23e>
 800cf0a:	f001 ff51 	bl	800edb0 <____errno_veneer>
 800cf0e:	2321      	movs	r3, #33	; 0x21
 800cf10:	6003      	str	r3, [r0, #0]
 800cf12:	e7ce      	b.n	800ceb2 <powf+0x176>
 800cf14:	f001 ff4c 	bl	800edb0 <____errno_veneer>
 800cf18:	2321      	movs	r3, #33	; 0x21
 800cf1a:	6003      	str	r3, [r0, #0]
 800cf1c:	e756      	b.n	800cdcc <powf+0x90>
 800cf1e:	eeb0 0a49 	vmov.f32	s0, s18
 800cf22:	f001 f997 	bl	800e254 <finitef>
 800cf26:	2800      	cmp	r0, #0
 800cf28:	d090      	beq.n	800ce4c <powf+0x110>
 800cf2a:	eeb0 0a68 	vmov.f32	s0, s17
 800cf2e:	f001 f991 	bl	800e254 <finitef>
 800cf32:	2800      	cmp	r0, #0
 800cf34:	d08a      	beq.n	800ce4c <powf+0x110>
 800cf36:	eeb0 0a48 	vmov.f32	s0, s16
 800cf3a:	f001 f995 	bl	800e268 <__fpclassifyf>
 800cf3e:	bb38      	cbnz	r0, 800cf90 <powf+0x254>
 800cf40:	4b28      	ldr	r3, [pc, #160]	; (800cfe4 <powf+0x2a8>)
 800cf42:	9008      	str	r0, [sp, #32]
 800cf44:	2201      	movs	r2, #1
 800cf46:	ee19 0a10 	vmov	r0, s18
 800cf4a:	e88d 000c 	stmia.w	sp, {r2, r3}
 800cf4e:	f7f3 faad 	bl	80004ac <__aeabi_f2d>
 800cf52:	e9cd 0102 	strd	r0, r1, [sp, #8]
 800cf56:	ee18 0a90 	vmov	r0, s17
 800cf5a:	f7f3 faa7 	bl	80004ac <__aeabi_f2d>
 800cf5e:	7824      	ldrb	r4, [r4, #0]
 800cf60:	e9cd 0104 	strd	r0, r1, [sp, #16]
 800cf64:	b17c      	cbz	r4, 800cf86 <powf+0x24a>
 800cf66:	2000      	movs	r0, #0
 800cf68:	2100      	movs	r1, #0
 800cf6a:	4602      	mov	r2, r0
 800cf6c:	460b      	mov	r3, r1
 800cf6e:	f7f3 fc1b 	bl	80007a8 <__aeabi_ddiv>
 800cf72:	2c02      	cmp	r4, #2
 800cf74:	e9cd 0106 	strd	r0, r1, [sp, #24]
 800cf78:	d0c7      	beq.n	800cf0a <powf+0x1ce>
 800cf7a:	4668      	mov	r0, sp
 800cf7c:	f001 f8ce 	bl	800e11c <matherr>
 800cf80:	2800      	cmp	r0, #0
 800cf82:	d196      	bne.n	800ceb2 <powf+0x176>
 800cf84:	e7c1      	b.n	800cf0a <powf+0x1ce>
 800cf86:	2200      	movs	r2, #0
 800cf88:	2300      	movs	r3, #0
 800cf8a:	e9cd 2306 	strd	r2, r3, [sp, #24]
 800cf8e:	e7f4      	b.n	800cf7a <powf+0x23e>
 800cf90:	4b14      	ldr	r3, [pc, #80]	; (800cfe4 <powf+0x2a8>)
 800cf92:	9508      	str	r5, [sp, #32]
 800cf94:	2203      	movs	r2, #3
 800cf96:	ee19 0a10 	vmov	r0, s18
 800cf9a:	e88d 000c 	stmia.w	sp, {r2, r3}
 800cf9e:	f7f3 fa85 	bl	80004ac <__aeabi_f2d>
 800cfa2:	e9cd 0102 	strd	r0, r1, [sp, #8]
 800cfa6:	ee18 0a90 	vmov	r0, s17
 800cfaa:	f7f3 fa7f 	bl	80004ac <__aeabi_f2d>
 800cfae:	f994 3000 	ldrsb.w	r3, [r4]
 800cfb2:	e9cd 0104 	strd	r0, r1, [sp, #16]
 800cfb6:	b9eb      	cbnz	r3, 800cff4 <powf+0x2b8>
 800cfb8:	4b0d      	ldr	r3, [pc, #52]	; (800cff0 <powf+0x2b4>)
 800cfba:	eeb5 9ac0 	vcmpe.f32	s18, #0.0
 800cfbe:	f04f 4260 	mov.w	r2, #3758096384	; 0xe0000000
 800cfc2:	eef1 fa10 	vmrs	APSR_nzcv, fpscr
 800cfc6:	e9cd 2306 	strd	r2, r3, [sp, #24]
 800cfca:	d437      	bmi.n	800d03c <powf+0x300>
 800cfcc:	f994 3000 	ldrsb.w	r3, [r4]
 800cfd0:	2b02      	cmp	r3, #2
 800cfd2:	f47f af68 	bne.w	800cea6 <powf+0x16a>
 800cfd6:	f001 feeb 	bl	800edb0 <____errno_veneer>
 800cfda:	2322      	movs	r3, #34	; 0x22
 800cfdc:	6003      	str	r3, [r0, #0]
 800cfde:	e768      	b.n	800ceb2 <powf+0x176>
 800cfe0:	20000081 	.word	0x20000081
 800cfe4:	0801d750 	.word	0x0801d750
 800cfe8:	3ff00000 	.word	0x3ff00000
 800cfec:	fff00000 	.word	0xfff00000
 800cff0:	47efffff 	.word	0x47efffff
 800cff4:	4b1f      	ldr	r3, [pc, #124]	; (800d074 <powf+0x338>)
 800cff6:	eeb5 9ac0 	vcmpe.f32	s18, #0.0
 800cffa:	2200      	movs	r2, #0
 800cffc:	eef1 fa10 	vmrs	APSR_nzcv, fpscr
 800d000:	e9cd 2306 	strd	r2, r3, [sp, #24]
 800d004:	d5e2      	bpl.n	800cfcc <powf+0x290>
 800d006:	eef6 7a00 	vmov.f32	s15, #96	; 0x60
 800d00a:	ee68 7aa7 	vmul.f32	s15, s17, s15
 800d00e:	ee17 0a90 	vmov	r0, s15
 800d012:	f7f3 fa4b 	bl	80004ac <__aeabi_f2d>
 800d016:	4606      	mov	r6, r0
 800d018:	460f      	mov	r7, r1
 800d01a:	ec47 6b10 	vmov	d0, r6, r7
 800d01e:	f001 f87f 	bl	800e120 <rint>
 800d022:	4630      	mov	r0, r6
 800d024:	4639      	mov	r1, r7
 800d026:	ec53 2b10 	vmov	r2, r3, d0
 800d02a:	f7f3 fcfb 	bl	8000a24 <__aeabi_dcmpeq>
 800d02e:	2800      	cmp	r0, #0
 800d030:	d1cc      	bne.n	800cfcc <powf+0x290>
 800d032:	4b11      	ldr	r3, [pc, #68]	; (800d078 <powf+0x33c>)
 800d034:	2200      	movs	r2, #0
 800d036:	e9cd 2306 	strd	r2, r3, [sp, #24]
 800d03a:	e7c7      	b.n	800cfcc <powf+0x290>
 800d03c:	eef6 7a00 	vmov.f32	s15, #96	; 0x60
 800d040:	ee68 7aa7 	vmul.f32	s15, s17, s15
 800d044:	ee17 0a90 	vmov	r0, s15
 800d048:	f7f3 fa30 	bl	80004ac <__aeabi_f2d>
 800d04c:	4606      	mov	r6, r0
 800d04e:	460f      	mov	r7, r1
 800d050:	ec47 6b10 	vmov	d0, r6, r7
 800d054:	f001 f864 	bl	800e120 <rint>
 800d058:	4630      	mov	r0, r6
 800d05a:	4639      	mov	r1, r7
 800d05c:	ec53 2b10 	vmov	r2, r3, d0
 800d060:	f7f3 fce0 	bl	8000a24 <__aeabi_dcmpeq>
 800d064:	2800      	cmp	r0, #0
 800d066:	d1b1      	bne.n	800cfcc <powf+0x290>
 800d068:	4b04      	ldr	r3, [pc, #16]	; (800d07c <powf+0x340>)
 800d06a:	f04f 4260 	mov.w	r2, #3758096384	; 0xe0000000
 800d06e:	e9cd 2306 	strd	r2, r3, [sp, #24]
 800d072:	e7ab      	b.n	800cfcc <powf+0x290>
 800d074:	7ff00000 	.word	0x7ff00000
 800d078:	fff00000 	.word	0xfff00000
 800d07c:	c7efffff 	.word	0xc7efffff

0800d080 <__ieee754_powf>:
__ieee754_powf():
 800d080:	e92d 43f0 	stmdb	sp!, {r4, r5, r6, r7, r8, r9, lr}
 800d084:	ed2d 8b02 	vpush	{d8}
 800d088:	ee10 5a90 	vmov	r5, s1
 800d08c:	b083      	sub	sp, #12
 800d08e:	f035 4600 	bics.w	r6, r5, #2147483648	; 0x80000000
 800d092:	ee10 4a90 	vmov	r4, s1
 800d096:	ed8d 0a01 	vstr	s0, [sp, #4]
 800d09a:	d014      	beq.n	800d0c6 <__ieee754_powf+0x46>
 800d09c:	f8dd 8004 	ldr.w	r8, [sp, #4]
 800d0a0:	f028 4700 	bic.w	r7, r8, #2147483648	; 0x80000000
 800d0a4:	f1b7 4fff 	cmp.w	r7, #2139095040	; 0x7f800000
 800d0a8:	dd07      	ble.n	800d0ba <__ieee754_powf+0x3a>
 800d0aa:	4857      	ldr	r0, [pc, #348]	; (800d208 <__ieee754_powf+0x188>)
 800d0ac:	b003      	add	sp, #12
 800d0ae:	ecbd 8b02 	vpop	{d8}
 800d0b2:	e8bd 43f0 	ldmia.w	sp!, {r4, r5, r6, r7, r8, r9, lr}
 800d0b6:	f001 b8f3 	b.w	800e2a0 <nanf>
 800d0ba:	f1b6 4fff 	cmp.w	r6, #2139095040	; 0x7f800000
 800d0be:	dd09      	ble.n	800d0d4 <__ieee754_powf+0x54>
 800d0c0:	f1b7 5f7e 	cmp.w	r7, #1065353216	; 0x3f800000
 800d0c4:	d1f1      	bne.n	800d0aa <__ieee754_powf+0x2a>
 800d0c6:	eeb7 0a00 	vmov.f32	s0, #112	; 0x70
 800d0ca:	b003      	add	sp, #12
 800d0cc:	ecbd 8b02 	vpop	{d8}
 800d0d0:	e8bd 83f0 	ldmia.w	sp!, {r4, r5, r6, r7, r8, r9, pc}
 800d0d4:	f1b8 0f00 	cmp.w	r8, #0
 800d0d8:	db52      	blt.n	800d180 <__ieee754_powf+0x100>
 800d0da:	f04f 0900 	mov.w	r9, #0
 800d0de:	f1b6 4fff 	cmp.w	r6, #2139095040	; 0x7f800000
 800d0e2:	d044      	beq.n	800d16e <__ieee754_powf+0xee>
 800d0e4:	f1b6 5f7e 	cmp.w	r6, #1065353216	; 0x3f800000
 800d0e8:	d05d      	beq.n	800d1a6 <__ieee754_powf+0x126>
 800d0ea:	f1b4 4f80 	cmp.w	r4, #1073741824	; 0x40000000
 800d0ee:	d069      	beq.n	800d1c4 <__ieee754_powf+0x144>
 800d0f0:	f1b4 5f7c 	cmp.w	r4, #1056964608	; 0x3f000000
 800d0f4:	ed9d 0a01 	vldr	s0, [sp, #4]
 800d0f8:	d01b      	beq.n	800d132 <__ieee754_powf+0xb2>
 800d0fa:	f001 f8a3 	bl	800e244 <fabsf>
 800d0fe:	f1b7 4fff 	cmp.w	r7, #2139095040	; 0x7f800000
 800d102:	d02a      	beq.n	800d15a <__ieee754_powf+0xda>
 800d104:	b34f      	cbz	r7, 800d15a <__ieee754_powf+0xda>
 800d106:	f1b7 5f7e 	cmp.w	r7, #1065353216	; 0x3f800000
 800d10a:	d026      	beq.n	800d15a <__ieee754_powf+0xda>
 800d10c:	ea4f 73d8 	mov.w	r3, r8, lsr #31
 800d110:	3b01      	subs	r3, #1
 800d112:	ea59 0203 	orrs.w	r2, r9, r3
 800d116:	d06f      	beq.n	800d1f8 <__ieee754_powf+0x178>
 800d118:	f1b6 4f9a 	cmp.w	r6, #1291845632	; 0x4d000000
 800d11c:	dd7c      	ble.n	800d218 <__ieee754_powf+0x198>
 800d11e:	4a3b      	ldr	r2, [pc, #236]	; (800d20c <__ieee754_powf+0x18c>)
 800d120:	4297      	cmp	r7, r2
 800d122:	f300 81db 	bgt.w	800d4dc <__ieee754_powf+0x45c>
 800d126:	2c00      	cmp	r4, #0
 800d128:	f2c0 81de 	blt.w	800d4e8 <__ieee754_powf+0x468>
 800d12c:	ed9f 0a38 	vldr	s0, [pc, #224]	; 800d210 <__ieee754_powf+0x190>
 800d130:	e7cb      	b.n	800d0ca <__ieee754_powf+0x4a>
 800d132:	f1b8 0f00 	cmp.w	r8, #0
 800d136:	da4a      	bge.n	800d1ce <__ieee754_powf+0x14e>
 800d138:	f001 f884 	bl	800e244 <fabsf>
 800d13c:	f1b7 4fff 	cmp.w	r7, #2139095040	; 0x7f800000
 800d140:	d001      	beq.n	800d146 <__ieee754_powf+0xc6>
 800d142:	2f00      	cmp	r7, #0
 800d144:	d1df      	bne.n	800d106 <__ieee754_powf+0x86>
 800d146:	f1a7 577e 	sub.w	r7, r7, #1065353216	; 0x3f800000
 800d14a:	ea59 0307 	orrs.w	r3, r9, r7
 800d14e:	d14c      	bne.n	800d1ea <__ieee754_powf+0x16a>
 800d150:	ee30 0a40 	vsub.f32	s0, s0, s0
 800d154:	ee80 0a00 	vdiv.f32	s0, s0, s0
 800d158:	e7b7      	b.n	800d0ca <__ieee754_powf+0x4a>
 800d15a:	2c00      	cmp	r4, #0
 800d15c:	bfbc      	itt	lt
 800d15e:	eef7 7a00 	vmovlt.f32	s15, #112	; 0x70
 800d162:	ee87 0a80 	vdivlt.f32	s0, s15, s0
 800d166:	f1b8 0f00 	cmp.w	r8, #0
 800d16a:	daae      	bge.n	800d0ca <__ieee754_powf+0x4a>
 800d16c:	e7eb      	b.n	800d146 <__ieee754_powf+0xc6>
 800d16e:	f1b7 5f7e 	cmp.w	r7, #1065353216	; 0x3f800000
 800d172:	d0a8      	beq.n	800d0c6 <__ieee754_powf+0x46>
 800d174:	dd1f      	ble.n	800d1b6 <__ieee754_powf+0x136>
 800d176:	2c00      	cmp	r4, #0
 800d178:	dbd8      	blt.n	800d12c <__ieee754_powf+0xac>
 800d17a:	ee00 5a10 	vmov	s0, r5
 800d17e:	e7a4      	b.n	800d0ca <__ieee754_powf+0x4a>
 800d180:	f1b6 4f97 	cmp.w	r6, #1266679808	; 0x4b800000
 800d184:	da14      	bge.n	800d1b0 <__ieee754_powf+0x130>
 800d186:	f1b6 5f7e 	cmp.w	r6, #1065353216	; 0x3f800000
 800d18a:	db09      	blt.n	800d1a0 <__ieee754_powf+0x120>
 800d18c:	15f3      	asrs	r3, r6, #23
 800d18e:	f1c3 0396 	rsb	r3, r3, #150	; 0x96
 800d192:	fa46 f203 	asr.w	r2, r6, r3
 800d196:	fa02 f303 	lsl.w	r3, r2, r3
 800d19a:	42b3      	cmp	r3, r6
 800d19c:	f000 8194 	beq.w	800d4c8 <__ieee754_powf+0x448>
 800d1a0:	f04f 0900 	mov.w	r9, #0
 800d1a4:	e79e      	b.n	800d0e4 <__ieee754_powf+0x64>
 800d1a6:	2c00      	cmp	r4, #0
 800d1a8:	db18      	blt.n	800d1dc <__ieee754_powf+0x15c>
 800d1aa:	ed9d 0a01 	vldr	s0, [sp, #4]
 800d1ae:	e78c      	b.n	800d0ca <__ieee754_powf+0x4a>
 800d1b0:	f04f 0902 	mov.w	r9, #2
 800d1b4:	e793      	b.n	800d0de <__ieee754_powf+0x5e>
 800d1b6:	2c00      	cmp	r4, #0
 800d1b8:	dab8      	bge.n	800d12c <__ieee754_powf+0xac>
 800d1ba:	ee07 5a90 	vmov	s15, r5
 800d1be:	eeb1 0a67 	vneg.f32	s0, s15
 800d1c2:	e782      	b.n	800d0ca <__ieee754_powf+0x4a>
 800d1c4:	eddd 7a01 	vldr	s15, [sp, #4]
 800d1c8:	ee27 0aa7 	vmul.f32	s0, s15, s15
 800d1cc:	e77d      	b.n	800d0ca <__ieee754_powf+0x4a>
 800d1ce:	b003      	add	sp, #12
 800d1d0:	ecbd 8b02 	vpop	{d8}
 800d1d4:	e8bd 43f0 	ldmia.w	sp!, {r4, r5, r6, r7, r8, r9, lr}
 800d1d8:	f000 bb92 	b.w	800d900 <__ieee754_sqrtf>
 800d1dc:	eddd 7a01 	vldr	s15, [sp, #4]
 800d1e0:	eeb7 0a00 	vmov.f32	s0, #112	; 0x70
 800d1e4:	ee80 0a27 	vdiv.f32	s0, s0, s15
 800d1e8:	e76f      	b.n	800d0ca <__ieee754_powf+0x4a>
 800d1ea:	f1b9 0f01 	cmp.w	r9, #1
 800d1ee:	f47f af6c 	bne.w	800d0ca <__ieee754_powf+0x4a>
 800d1f2:	eeb1 0a40 	vneg.f32	s0, s0
 800d1f6:	e768      	b.n	800d0ca <__ieee754_powf+0x4a>
 800d1f8:	eddd 7a01 	vldr	s15, [sp, #4]
 800d1fc:	ee37 0ae7 	vsub.f32	s0, s15, s15
 800d200:	ee80 0a00 	vdiv.f32	s0, s0, s0
 800d204:	e761      	b.n	800d0ca <__ieee754_powf+0x4a>
 800d206:	bf00      	nop
 800d208:	0800edc4 	.word	0x0800edc4
 800d20c:	3f7ffff7 	.word	0x3f7ffff7
 800d210:	00000000 	.word	0x00000000
 800d214:	4b800000 	.word	0x4b800000
 800d218:	f5b7 0f00 	cmp.w	r7, #8388608	; 0x800000
 800d21c:	f280 815c 	bge.w	800d4d8 <__ieee754_powf+0x458>
 800d220:	ed5f 7a04 	vldr	s15, [pc, #-16]	; 800d214 <__ieee754_powf+0x194>
 800d224:	ee60 7a27 	vmul.f32	s15, s0, s15
 800d228:	f06f 0117 	mvn.w	r1, #23
 800d22c:	ee17 7a90 	vmov	r7, s15
 800d230:	48f0      	ldr	r0, [pc, #960]	; (800d5f4 <__ieee754_powf+0x574>)
 800d232:	15fa      	asrs	r2, r7, #23
 800d234:	f3c7 0716 	ubfx	r7, r7, #0, #23
 800d238:	3a7f      	subs	r2, #127	; 0x7f
 800d23a:	4287      	cmp	r7, r0
 800d23c:	4411      	add	r1, r2
 800d23e:	f047 527e 	orr.w	r2, r7, #1065353216	; 0x3f800000
 800d242:	f340 8146 	ble.w	800d4d2 <__ieee754_powf+0x452>
 800d246:	48ec      	ldr	r0, [pc, #944]	; (800d5f8 <__ieee754_powf+0x578>)
 800d248:	4287      	cmp	r7, r0
 800d24a:	f340 819b 	ble.w	800d584 <__ieee754_powf+0x504>
 800d24e:	2600      	movs	r6, #0
 800d250:	3101      	adds	r1, #1
 800d252:	f5a2 0200 	sub.w	r2, r2, #8388608	; 0x800000
 800d256:	4630      	mov	r0, r6
 800d258:	f8df c40c 	ldr.w	ip, [pc, #1036]	; 800d668 <__ieee754_powf+0x5e8>
 800d25c:	ed9f 2ae7 	vldr	s4, [pc, #924]	; 800d5fc <__ieee754_powf+0x57c>
 800d260:	ed9f 8ae7 	vldr	s16, [pc, #924]	; 800d600 <__ieee754_powf+0x580>
 800d264:	ed9f 0ae7 	vldr	s0, [pc, #924]	; 800d604 <__ieee754_powf+0x584>
 800d268:	eddf 0ae7 	vldr	s1, [pc, #924]	; 800d608 <__ieee754_powf+0x588>
 800d26c:	ed9f 1ae7 	vldr	s2, [pc, #924]	; 800d60c <__ieee754_powf+0x58c>
 800d270:	eddf 1ae7 	vldr	s3, [pc, #924]	; 800d610 <__ieee754_powf+0x590>
 800d274:	4fe7      	ldr	r7, [pc, #924]	; (800d614 <__ieee754_powf+0x594>)
 800d276:	eddf 7ae8 	vldr	s15, [pc, #928]	; 800d618 <__ieee754_powf+0x598>
 800d27a:	eddf 2ae8 	vldr	s5, [pc, #928]	; 800d61c <__ieee754_powf+0x59c>
 800d27e:	ed9f 4ae8 	vldr	s8, [pc, #928]	; 800d620 <__ieee754_powf+0x5a0>
 800d282:	f8df e3e8 	ldr.w	lr, [pc, #1000]	; 800d66c <__ieee754_powf+0x5ec>
 800d286:	0080      	lsls	r0, r0, #2
 800d288:	4484      	add	ip, r0
 800d28a:	ee07 2a10 	vmov	s14, r2
 800d28e:	eddc 6a00 	vldr	s13, [ip]
 800d292:	ee77 5a26 	vadd.f32	s11, s14, s13
 800d296:	eeb7 6a00 	vmov.f32	s12, #112	; 0x70
 800d29a:	eec6 5a25 	vdiv.f32	s11, s12, s11
 800d29e:	1052      	asrs	r2, r2, #1
 800d2a0:	f042 5200 	orr.w	r2, r2, #536870912	; 0x20000000
 800d2a4:	f502 2280 	add.w	r2, r2, #262144	; 0x40000
 800d2a8:	4432      	add	r2, r6
 800d2aa:	ee37 6a66 	vsub.f32	s12, s14, s13
 800d2ae:	ee04 2a90 	vmov	s9, r2
 800d2b2:	ee26 3a25 	vmul.f32	s6, s12, s11
 800d2b6:	ee74 6ae6 	vsub.f32	s13, s9, s13
 800d2ba:	ee23 5a03 	vmul.f32	s10, s6, s6
 800d2be:	ee37 7a66 	vsub.f32	s14, s14, s13
 800d2c2:	eef0 6a42 	vmov.f32	s13, s4
 800d2c6:	eee5 6a08 	vfma.f32	s13, s10, s16
 800d2ca:	183a      	adds	r2, r7, r0
 800d2cc:	4470      	add	r0, lr
 800d2ce:	ee13 6a10 	vmov	r6, s6
 800d2d2:	f426 667f 	bic.w	r6, r6, #4080	; 0xff0
 800d2d6:	eea6 0a85 	vfma.f32	s0, s13, s10
 800d2da:	f026 060f 	bic.w	r6, r6, #15
 800d2de:	ee03 6a90 	vmov	s7, r6
 800d2e2:	eeb1 2a63 	vneg.f32	s4, s7
 800d2e6:	eea2 6a24 	vfma.f32	s12, s4, s9
 800d2ea:	eee0 0a05 	vfma.f32	s1, s0, s10
 800d2ee:	eea2 6a07 	vfma.f32	s12, s4, s14
 800d2f2:	eea0 1a85 	vfma.f32	s2, s1, s10
 800d2f6:	ee66 5a25 	vmul.f32	s11, s12, s11
 800d2fa:	eee1 1a05 	vfma.f32	s3, s2, s10
 800d2fe:	ee33 7a23 	vadd.f32	s14, s6, s7
 800d302:	ee25 5a05 	vmul.f32	s10, s10, s10
 800d306:	ee27 7a25 	vmul.f32	s14, s14, s11
 800d30a:	eef0 4a08 	vmov.f32	s9, #8
 800d30e:	eeb0 6a64 	vmov.f32	s12, s9
 800d312:	eea5 7a21 	vfma.f32	s14, s10, s3
 800d316:	eea3 6aa3 	vfma.f32	s12, s7, s7
 800d31a:	edd2 1a00 	vldr	s3, [r2]
 800d31e:	ed90 5a00 	vldr	s10, [r0]
 800d322:	ee36 6a07 	vadd.f32	s12, s12, s14
 800d326:	ee06 1a90 	vmov	s13, r1
 800d32a:	ee16 2a10 	vmov	r2, s12
 800d32e:	f422 627f 	bic.w	r2, r2, #4080	; 0xff0
 800d332:	f022 020f 	bic.w	r2, r2, #15
 800d336:	ee06 2a10 	vmov	s12, r2
 800d33a:	ee76 4a64 	vsub.f32	s9, s12, s9
 800d33e:	eef8 6ae6 	vcvt.f32.s32	s13, s13
 800d342:	eee2 4a23 	vfma.f32	s9, s4, s7
 800d346:	ee37 7a64 	vsub.f32	s14, s14, s9
 800d34a:	ee27 7a03 	vmul.f32	s14, s14, s6
 800d34e:	eea5 7a86 	vfma.f32	s14, s11, s12
 800d352:	eef0 5a47 	vmov.f32	s11, s14
 800d356:	eee3 5a86 	vfma.f32	s11, s7, s12
 800d35a:	ee15 2a90 	vmov	r2, s11
 800d35e:	f422 627f 	bic.w	r2, r2, #4080	; 0xff0
 800d362:	f022 020f 	bic.w	r2, r2, #15
 800d366:	ee04 2a90 	vmov	s9, r2
 800d36a:	eee2 4a06 	vfma.f32	s9, s4, s12
 800d36e:	ee05 2a90 	vmov	s11, r2
 800d372:	ee37 7a64 	vsub.f32	s14, s14, s9
 800d376:	ee67 7a27 	vmul.f32	s15, s14, s15
 800d37a:	eee5 7aa2 	vfma.f32	s15, s11, s5
 800d37e:	ee77 7aa1 	vadd.f32	s15, s15, s3
 800d382:	eeb0 7a67 	vmov.f32	s14, s15
 800d386:	eea5 7a84 	vfma.f32	s14, s11, s8
 800d38a:	ee37 7a05 	vadd.f32	s14, s14, s10
 800d38e:	ee37 7a26 	vadd.f32	s14, s14, s13
 800d392:	ee17 2a10 	vmov	r2, s14
 800d396:	f422 627f 	bic.w	r2, r2, #4080	; 0xff0
 800d39a:	f022 020f 	bic.w	r2, r2, #15
 800d39e:	ee07 2a10 	vmov	s14, r2
 800d3a2:	ee77 6a66 	vsub.f32	s13, s14, s13
 800d3a6:	ee36 7ac5 	vsub.f32	s14, s13, s10
 800d3aa:	eea5 7ac4 	vfms.f32	s14, s11, s8
 800d3ae:	ee77 7ac7 	vsub.f32	s15, s15, s14
 800d3b2:	f424 647f 	bic.w	r4, r4, #4080	; 0xff0
 800d3b6:	f024 040f 	bic.w	r4, r4, #15
 800d3ba:	ee07 5a10 	vmov	s14, r5
 800d3be:	ee06 4a90 	vmov	s13, r4
 800d3c2:	ee67 7a27 	vmul.f32	s15, s14, s15
 800d3c6:	ee77 6a66 	vsub.f32	s13, s14, s13
 800d3ca:	ee06 4a10 	vmov	s12, r4
 800d3ce:	ee07 2a10 	vmov	s14, r2
 800d3d2:	ee27 7a06 	vmul.f32	s14, s14, s12
 800d3d6:	ee06 2a10 	vmov	s12, r2
 800d3da:	eee6 7a86 	vfma.f32	s15, s13, s12
 800d3de:	f109 39ff 	add.w	r9, r9, #4294967295
 800d3e2:	ea59 0303 	orrs.w	r3, r9, r3
 800d3e6:	eeb7 0a00 	vmov.f32	s0, #112	; 0x70
 800d3ea:	ee77 6a87 	vadd.f32	s13, s15, s14
 800d3ee:	eebf 6a00 	vmov.f32	s12, #240	; 0xf0
 800d3f2:	ee16 3a90 	vmov	r3, s13
 800d3f6:	bf0c      	ite	eq
 800d3f8:	eeb0 8a46 	vmoveq.f32	s16, s12
 800d3fc:	eeb0 8a40 	vmovne.f32	s16, s0
 800d400:	2b00      	cmp	r3, #0
 800d402:	f023 4200 	bic.w	r2, r3, #2147483648	; 0x80000000
 800d406:	f340 80aa 	ble.w	800d55e <__ieee754_powf+0x4de>
 800d40a:	f1b2 4f86 	cmp.w	r2, #1124073472	; 0x43000000
 800d40e:	dc7b      	bgt.n	800d508 <__ieee754_powf+0x488>
 800d410:	d06f      	beq.n	800d4f2 <__ieee754_powf+0x472>
 800d412:	f1b2 5f7c 	cmp.w	r2, #1056964608	; 0x3f000000
 800d416:	dc7e      	bgt.n	800d516 <__ieee754_powf+0x496>
 800d418:	2200      	movs	r2, #0
 800d41a:	4610      	mov	r0, r2
 800d41c:	f423 637f 	bic.w	r3, r3, #4080	; 0xff0
 800d420:	f023 030f 	bic.w	r3, r3, #15
 800d424:	ee06 3a10 	vmov	s12, r3
 800d428:	eddf 6a7e 	vldr	s13, [pc, #504]	; 800d624 <__ieee754_powf+0x5a4>
 800d42c:	ed9f 2a7e 	vldr	s4, [pc, #504]	; 800d628 <__ieee754_powf+0x5a8>
 800d430:	eddf 3a7e 	vldr	s7, [pc, #504]	; 800d62c <__ieee754_powf+0x5ac>
 800d434:	eddf 2a7e 	vldr	s5, [pc, #504]	; 800d630 <__ieee754_powf+0x5b0>
 800d438:	ed9f 4a7e 	vldr	s8, [pc, #504]	; 800d634 <__ieee754_powf+0x5b4>
 800d43c:	eddf 4a7e 	vldr	s9, [pc, #504]	; 800d638 <__ieee754_powf+0x5b8>
 800d440:	ed9f 5a7e 	vldr	s10, [pc, #504]	; 800d63c <__ieee754_powf+0x5bc>
 800d444:	eddf 5a7e 	vldr	s11, [pc, #504]	; 800d640 <__ieee754_powf+0x5c0>
 800d448:	ee36 7a47 	vsub.f32	s14, s12, s14
 800d44c:	eeb0 3a00 	vmov.f32	s6, #0
 800d450:	ee77 7ac7 	vsub.f32	s15, s15, s14
 800d454:	ee26 7a26 	vmul.f32	s14, s12, s13
 800d458:	eeb7 0a00 	vmov.f32	s0, #112	; 0x70
 800d45c:	eea7 7a82 	vfma.f32	s14, s15, s4
 800d460:	eef0 6a47 	vmov.f32	s13, s14
 800d464:	eee6 6a23 	vfma.f32	s13, s12, s7
 800d468:	eef0 7a47 	vmov.f32	s15, s14
 800d46c:	ee26 7aa6 	vmul.f32	s14, s13, s13
 800d470:	eeb0 2a66 	vmov.f32	s4, s13
 800d474:	eea7 4a22 	vfma.f32	s8, s14, s5
 800d478:	eea6 2a63 	vfms.f32	s4, s12, s7
 800d47c:	eee4 4a07 	vfma.f32	s9, s8, s14
 800d480:	eeb0 6a66 	vmov.f32	s12, s13
 800d484:	eea4 5a87 	vfma.f32	s10, s9, s14
 800d488:	ee77 7ac2 	vsub.f32	s15, s15, s4
 800d48c:	eee5 5a07 	vfma.f32	s11, s10, s14
 800d490:	eee6 7aa7 	vfma.f32	s15, s13, s15
 800d494:	eea5 6ac7 	vfms.f32	s12, s11, s14
 800d498:	ee26 7a86 	vmul.f32	s14, s13, s12
 800d49c:	ee36 6a43 	vsub.f32	s12, s12, s6
 800d4a0:	ee87 7a06 	vdiv.f32	s14, s14, s12
 800d4a4:	ee77 7a67 	vsub.f32	s15, s14, s15
 800d4a8:	ee77 7ae6 	vsub.f32	s15, s15, s13
 800d4ac:	ee30 0a67 	vsub.f32	s0, s0, s15
 800d4b0:	ee10 3a10 	vmov	r3, s0
 800d4b4:	4413      	add	r3, r2
 800d4b6:	f5b3 0f00 	cmp.w	r3, #8388608	; 0x800000
 800d4ba:	f2c0 8098 	blt.w	800d5ee <__ieee754_powf+0x56e>
 800d4be:	ee00 3a10 	vmov	s0, r3
 800d4c2:	ee28 0a00 	vmul.f32	s0, s16, s0
 800d4c6:	e600      	b.n	800d0ca <__ieee754_powf+0x4a>
 800d4c8:	f002 0201 	and.w	r2, r2, #1
 800d4cc:	f1c2 0902 	rsb	r9, r2, #2
 800d4d0:	e608      	b.n	800d0e4 <__ieee754_powf+0x64>
 800d4d2:	2600      	movs	r6, #0
 800d4d4:	4630      	mov	r0, r6
 800d4d6:	e6bf      	b.n	800d258 <__ieee754_powf+0x1d8>
 800d4d8:	2100      	movs	r1, #0
 800d4da:	e6a9      	b.n	800d230 <__ieee754_powf+0x1b0>
 800d4dc:	4a59      	ldr	r2, [pc, #356]	; (800d644 <__ieee754_powf+0x5c4>)
 800d4de:	4297      	cmp	r7, r2
 800d4e0:	dd54      	ble.n	800d58c <__ieee754_powf+0x50c>
 800d4e2:	2c00      	cmp	r4, #0
 800d4e4:	f77f ae22 	ble.w	800d12c <__ieee754_powf+0xac>
 800d4e8:	ed9f 0a57 	vldr	s0, [pc, #348]	; 800d648 <__ieee754_powf+0x5c8>
 800d4ec:	ee20 0a00 	vmul.f32	s0, s0, s0
 800d4f0:	e5eb      	b.n	800d0ca <__ieee754_powf+0x4a>
 800d4f2:	ed9f 6a56 	vldr	s12, [pc, #344]	; 800d64c <__ieee754_powf+0x5cc>
 800d4f6:	ee76 6ac7 	vsub.f32	s13, s13, s14
 800d4fa:	ee37 6a86 	vadd.f32	s12, s15, s12
 800d4fe:	eeb4 6ae6 	vcmpe.f32	s12, s13
 800d502:	eef1 fa10 	vmrs	APSR_nzcv, fpscr
 800d506:	dd06      	ble.n	800d516 <__ieee754_powf+0x496>
 800d508:	eddf 7a4f 	vldr	s15, [pc, #316]	; 800d648 <__ieee754_powf+0x5c8>
 800d50c:	ee28 0a27 	vmul.f32	s0, s16, s15
 800d510:	ee20 0a27 	vmul.f32	s0, s0, s15
 800d514:	e5d9      	b.n	800d0ca <__ieee754_powf+0x4a>
 800d516:	15d2      	asrs	r2, r2, #23
 800d518:	f44f 0100 	mov.w	r1, #8388608	; 0x800000
 800d51c:	3a7e      	subs	r2, #126	; 0x7e
 800d51e:	fa41 f202 	asr.w	r2, r1, r2
 800d522:	441a      	add	r2, r3
 800d524:	f3c2 51c7 	ubfx	r1, r2, #23, #8
 800d528:	4c49      	ldr	r4, [pc, #292]	; (800d650 <__ieee754_powf+0x5d0>)
 800d52a:	f1a1 057f 	sub.w	r5, r1, #127	; 0x7f
 800d52e:	412c      	asrs	r4, r5
 800d530:	f3c2 0016 	ubfx	r0, r2, #0, #23
 800d534:	ea22 0204 	bic.w	r2, r2, r4
 800d538:	ee06 2a90 	vmov	s13, r2
 800d53c:	f1c1 0196 	rsb	r1, r1, #150	; 0x96
 800d540:	f440 0000 	orr.w	r0, r0, #8388608	; 0x800000
 800d544:	ee37 7a66 	vsub.f32	s14, s14, s13
 800d548:	4108      	asrs	r0, r1
 800d54a:	ea80 70e3 	eor.w	r0, r0, r3, asr #31
 800d54e:	ee77 6a87 	vadd.f32	s13, s15, s14
 800d552:	eb00 70d3 	add.w	r0, r0, r3, lsr #31
 800d556:	05c2      	lsls	r2, r0, #23
 800d558:	ee16 3a90 	vmov	r3, s13
 800d55c:	e75e      	b.n	800d41c <__ieee754_powf+0x39c>
 800d55e:	493d      	ldr	r1, [pc, #244]	; (800d654 <__ieee754_powf+0x5d4>)
 800d560:	428a      	cmp	r2, r1
 800d562:	dc08      	bgt.n	800d576 <__ieee754_powf+0x4f6>
 800d564:	f47f af55 	bne.w	800d412 <__ieee754_powf+0x392>
 800d568:	ee76 6ac7 	vsub.f32	s13, s13, s14
 800d56c:	eef4 7ae6 	vcmpe.f32	s15, s13
 800d570:	eef1 fa10 	vmrs	APSR_nzcv, fpscr
 800d574:	d8cf      	bhi.n	800d516 <__ieee754_powf+0x496>
 800d576:	eddf 7a38 	vldr	s15, [pc, #224]	; 800d658 <__ieee754_powf+0x5d8>
 800d57a:	ee28 0a27 	vmul.f32	s0, s16, s15
 800d57e:	ee20 0a27 	vmul.f32	s0, s0, s15
 800d582:	e5a2      	b.n	800d0ca <__ieee754_powf+0x4a>
 800d584:	f44f 1600 	mov.w	r6, #2097152	; 0x200000
 800d588:	2001      	movs	r0, #1
 800d58a:	e665      	b.n	800d258 <__ieee754_powf+0x1d8>
 800d58c:	eef7 7a00 	vmov.f32	s15, #112	; 0x70
 800d590:	ee30 0a67 	vsub.f32	s0, s0, s15
 800d594:	eddf 6a1c 	vldr	s13, [pc, #112]	; 800d608 <__ieee754_powf+0x588>
 800d598:	eddf 7a30 	vldr	s15, [pc, #192]	; 800d65c <__ieee754_powf+0x5dc>
 800d59c:	ed9f 5a30 	vldr	s10, [pc, #192]	; 800d660 <__ieee754_powf+0x5e0>
 800d5a0:	ed9f 6a30 	vldr	s12, [pc, #192]	; 800d664 <__ieee754_powf+0x5e4>
 800d5a4:	eef1 5a40 	vneg.f32	s11, s0
 800d5a8:	eeb5 7a00 	vmov.f32	s14, #80	; 0x50
 800d5ac:	eee5 6a87 	vfma.f32	s13, s11, s14
 800d5b0:	eeb6 7a00 	vmov.f32	s14, #96	; 0x60
 800d5b4:	eea6 7ac0 	vfms.f32	s14, s13, s0
 800d5b8:	eef0 6a47 	vmov.f32	s13, s14
 800d5bc:	ee20 7a00 	vmul.f32	s14, s0, s0
 800d5c0:	ee27 7a26 	vmul.f32	s14, s14, s13
 800d5c4:	ee67 7ac7 	vnmul.f32	s15, s15, s14
 800d5c8:	eee0 7a05 	vfma.f32	s15, s0, s10
 800d5cc:	eeb0 7a67 	vmov.f32	s14, s15
 800d5d0:	eea0 7a06 	vfma.f32	s14, s0, s12
 800d5d4:	ee17 2a10 	vmov	r2, s14
 800d5d8:	f422 627f 	bic.w	r2, r2, #4080	; 0xff0
 800d5dc:	f022 020f 	bic.w	r2, r2, #15
 800d5e0:	ee07 2a10 	vmov	s14, r2
 800d5e4:	eea5 7a86 	vfma.f32	s14, s11, s12
 800d5e8:	ee77 7ac7 	vsub.f32	s15, s15, s14
 800d5ec:	e6e1      	b.n	800d3b2 <__ieee754_powf+0x332>
 800d5ee:	f000 fe5d 	bl	800e2ac <scalbnf>
 800d5f2:	e766      	b.n	800d4c2 <__ieee754_powf+0x442>
 800d5f4:	001cc471 	.word	0x001cc471
 800d5f8:	005db3d6 	.word	0x005db3d6
 800d5fc:	3e6c3255 	.word	0x3e6c3255
 800d600:	3e53f142 	.word	0x3e53f142
 800d604:	3e8ba305 	.word	0x3e8ba305
 800d608:	3eaaaaab 	.word	0x3eaaaaab
 800d60c:	3edb6db7 	.word	0x3edb6db7
 800d610:	3f19999a 	.word	0x3f19999a
 800d614:	0801d760 	.word	0x0801d760
 800d618:	3f76384f 	.word	0x3f76384f
 800d61c:	369dc3a0 	.word	0x369dc3a0
 800d620:	3f763800 	.word	0x3f763800
 800d624:	35bfbe8c 	.word	0x35bfbe8c
 800d628:	3f317218 	.word	0x3f317218
 800d62c:	3f317200 	.word	0x3f317200
 800d630:	3331bb4c 	.word	0x3331bb4c
 800d634:	b5ddea0e 	.word	0xb5ddea0e
 800d638:	388ab355 	.word	0x388ab355
 800d63c:	bb360b61 	.word	0xbb360b61
 800d640:	3e2aaaab 	.word	0x3e2aaaab
 800d644:	3f800007 	.word	0x3f800007
 800d648:	7149f2ca 	.word	0x7149f2ca
 800d64c:	3338aa3c 	.word	0x3338aa3c
 800d650:	007fffff 	.word	0x007fffff
 800d654:	43160000 	.word	0x43160000
 800d658:	0da24260 	.word	0x0da24260
 800d65c:	3fb8aa3b 	.word	0x3fb8aa3b
 800d660:	36eca570 	.word	0x36eca570
 800d664:	3fb8aa00 	.word	0x3fb8aa00
 800d668:	0801d768 	.word	0x0801d768
 800d66c:	0801d758 	.word	0x0801d758

0800d670 <__ieee754_rem_pio2f>:
__ieee754_rem_pio2f():
 800d670:	b570      	push	{r4, r5, r6, lr}
 800d672:	ee10 3a10 	vmov	r3, s0
 800d676:	4a94      	ldr	r2, [pc, #592]	; (800d8c8 <__ieee754_rem_pio2f+0x258>)
 800d678:	f023 4400 	bic.w	r4, r3, #2147483648	; 0x80000000
 800d67c:	4294      	cmp	r4, r2
 800d67e:	b086      	sub	sp, #24
 800d680:	ee10 6a10 	vmov	r6, s0
 800d684:	4605      	mov	r5, r0
 800d686:	dd66      	ble.n	800d756 <__ieee754_rem_pio2f+0xe6>
 800d688:	4a90      	ldr	r2, [pc, #576]	; (800d8cc <__ieee754_rem_pio2f+0x25c>)
 800d68a:	4294      	cmp	r4, r2
 800d68c:	dc1a      	bgt.n	800d6c4 <__ieee754_rem_pio2f+0x54>
 800d68e:	2b00      	cmp	r3, #0
 800d690:	eddf 7a8f 	vldr	s15, [pc, #572]	; 800d8d0 <__ieee754_rem_pio2f+0x260>
 800d694:	4a8f      	ldr	r2, [pc, #572]	; (800d8d4 <__ieee754_rem_pio2f+0x264>)
 800d696:	f024 040f 	bic.w	r4, r4, #15
 800d69a:	f340 80dd 	ble.w	800d858 <__ieee754_rem_pio2f+0x1e8>
 800d69e:	4294      	cmp	r4, r2
 800d6a0:	ee70 7a67 	vsub.f32	s15, s0, s15
 800d6a4:	d066      	beq.n	800d774 <__ieee754_rem_pio2f+0x104>
 800d6a6:	ed9f 7a8c 	vldr	s14, [pc, #560]	; 800d8d8 <__ieee754_rem_pio2f+0x268>
 800d6aa:	ee77 6ac7 	vsub.f32	s13, s15, s14
 800d6ae:	2001      	movs	r0, #1
 800d6b0:	ee77 7ae6 	vsub.f32	s15, s15, s13
 800d6b4:	edc5 6a00 	vstr	s13, [r5]
 800d6b8:	ee77 7ac7 	vsub.f32	s15, s15, s14
 800d6bc:	edc5 7a01 	vstr	s15, [r5, #4]
 800d6c0:	b006      	add	sp, #24
 800d6c2:	bd70      	pop	{r4, r5, r6, pc}
 800d6c4:	4a85      	ldr	r2, [pc, #532]	; (800d8dc <__ieee754_rem_pio2f+0x26c>)
 800d6c6:	4294      	cmp	r4, r2
 800d6c8:	dd66      	ble.n	800d798 <__ieee754_rem_pio2f+0x128>
 800d6ca:	f1b4 4fff 	cmp.w	r4, #2139095040	; 0x7f800000
 800d6ce:	da49      	bge.n	800d764 <__ieee754_rem_pio2f+0xf4>
 800d6d0:	15e2      	asrs	r2, r4, #23
 800d6d2:	3a86      	subs	r2, #134	; 0x86
 800d6d4:	eba4 53c2 	sub.w	r3, r4, r2, lsl #23
 800d6d8:	ee07 3a10 	vmov	s14, r3
 800d6dc:	eefd 6ac7 	vcvt.s32.f32	s13, s14
 800d6e0:	eddf 7a7f 	vldr	s15, [pc, #508]	; 800d8e0 <__ieee754_rem_pio2f+0x270>
 800d6e4:	eef8 6ae6 	vcvt.f32.s32	s13, s13
 800d6e8:	ee37 7a66 	vsub.f32	s14, s14, s13
 800d6ec:	edcd 6a03 	vstr	s13, [sp, #12]
 800d6f0:	ee27 7a27 	vmul.f32	s14, s14, s15
 800d6f4:	eefd 6ac7 	vcvt.s32.f32	s13, s14
 800d6f8:	eef8 6ae6 	vcvt.f32.s32	s13, s13
 800d6fc:	ee37 7a66 	vsub.f32	s14, s14, s13
 800d700:	edcd 6a04 	vstr	s13, [sp, #16]
 800d704:	ee67 7a27 	vmul.f32	s15, s14, s15
 800d708:	eef5 7a40 	vcmp.f32	s15, #0.0
 800d70c:	eef1 fa10 	vmrs	APSR_nzcv, fpscr
 800d710:	edcd 7a05 	vstr	s15, [sp, #20]
 800d714:	f040 80b3 	bne.w	800d87e <__ieee754_rem_pio2f+0x20e>
 800d718:	eef5 6a40 	vcmp.f32	s13, #0.0
 800d71c:	eef1 fa10 	vmrs	APSR_nzcv, fpscr
 800d720:	bf14      	ite	ne
 800d722:	2302      	movne	r3, #2
 800d724:	2301      	moveq	r3, #1
 800d726:	496f      	ldr	r1, [pc, #444]	; (800d8e4 <__ieee754_rem_pio2f+0x274>)
 800d728:	2002      	movs	r0, #2
 800d72a:	e88d 0003 	stmia.w	sp, {r0, r1}
 800d72e:	a803      	add	r0, sp, #12
 800d730:	4629      	mov	r1, r5
 800d732:	f000 f9b9 	bl	800daa8 <__kernel_rem_pio2f>
 800d736:	2e00      	cmp	r6, #0
 800d738:	da12      	bge.n	800d760 <__ieee754_rem_pio2f+0xf0>
 800d73a:	ed95 7a00 	vldr	s14, [r5]
 800d73e:	edd5 7a01 	vldr	s15, [r5, #4]
 800d742:	eeb1 7a47 	vneg.f32	s14, s14
 800d746:	eef1 7a67 	vneg.f32	s15, s15
 800d74a:	4240      	negs	r0, r0
 800d74c:	ed85 7a00 	vstr	s14, [r5]
 800d750:	edc5 7a01 	vstr	s15, [r5, #4]
 800d754:	e004      	b.n	800d760 <__ieee754_rem_pio2f+0xf0>
 800d756:	2200      	movs	r2, #0
 800d758:	ed85 0a00 	vstr	s0, [r5]
 800d75c:	6042      	str	r2, [r0, #4]
 800d75e:	2000      	movs	r0, #0
 800d760:	b006      	add	sp, #24
 800d762:	bd70      	pop	{r4, r5, r6, pc}
 800d764:	ee70 7a40 	vsub.f32	s15, s0, s0
 800d768:	2000      	movs	r0, #0
 800d76a:	edc5 7a01 	vstr	s15, [r5, #4]
 800d76e:	edc5 7a00 	vstr	s15, [r5]
 800d772:	e7f5      	b.n	800d760 <__ieee754_rem_pio2f+0xf0>
 800d774:	eddf 6a5c 	vldr	s13, [pc, #368]	; 800d8e8 <__ieee754_rem_pio2f+0x278>
 800d778:	ed9f 7a5c 	vldr	s14, [pc, #368]	; 800d8ec <__ieee754_rem_pio2f+0x27c>
 800d77c:	ee77 7ae6 	vsub.f32	s15, s15, s13
 800d780:	2001      	movs	r0, #1
 800d782:	ee77 6ac7 	vsub.f32	s13, s15, s14
 800d786:	ee77 7ae6 	vsub.f32	s15, s15, s13
 800d78a:	edc5 6a00 	vstr	s13, [r5]
 800d78e:	ee77 7ac7 	vsub.f32	s15, s15, s14
 800d792:	edc5 7a01 	vstr	s15, [r5, #4]
 800d796:	e7e3      	b.n	800d760 <__ieee754_rem_pio2f+0xf0>
 800d798:	f000 fd54 	bl	800e244 <fabsf>
 800d79c:	eddf 6a54 	vldr	s13, [pc, #336]	; 800d8f0 <__ieee754_rem_pio2f+0x280>
 800d7a0:	eddf 5a4b 	vldr	s11, [pc, #300]	; 800d8d0 <__ieee754_rem_pio2f+0x260>
 800d7a4:	ed9f 7a4c 	vldr	s14, [pc, #304]	; 800d8d8 <__ieee754_rem_pio2f+0x268>
 800d7a8:	eef6 7a00 	vmov.f32	s15, #96	; 0x60
 800d7ac:	eee0 7a26 	vfma.f32	s15, s0, s13
 800d7b0:	eefd 7ae7 	vcvt.s32.f32	s15, s15
 800d7b4:	ee17 0a90 	vmov	r0, s15
 800d7b8:	eef8 6ae7 	vcvt.f32.s32	s13, s15
 800d7bc:	281f      	cmp	r0, #31
 800d7be:	eeb1 6a66 	vneg.f32	s12, s13
 800d7c2:	eea6 0a25 	vfma.f32	s0, s12, s11
 800d7c6:	ee66 7a87 	vmul.f32	s15, s13, s14
 800d7ca:	dc1d      	bgt.n	800d808 <__ieee754_rem_pio2f+0x198>
 800d7cc:	4a49      	ldr	r2, [pc, #292]	; (800d8f4 <__ieee754_rem_pio2f+0x284>)
 800d7ce:	1e41      	subs	r1, r0, #1
 800d7d0:	f024 03ff 	bic.w	r3, r4, #255	; 0xff
 800d7d4:	f852 2021 	ldr.w	r2, [r2, r1, lsl #2]
 800d7d8:	4293      	cmp	r3, r2
 800d7da:	d015      	beq.n	800d808 <__ieee754_rem_pio2f+0x198>
 800d7dc:	ee30 7a67 	vsub.f32	s14, s0, s15
 800d7e0:	ed85 7a00 	vstr	s14, [r5]
 800d7e4:	ee30 0a47 	vsub.f32	s0, s0, s14
 800d7e8:	2e00      	cmp	r6, #0
 800d7ea:	ee30 0a67 	vsub.f32	s0, s0, s15
 800d7ee:	ed85 0a01 	vstr	s0, [r5, #4]
 800d7f2:	dab5      	bge.n	800d760 <__ieee754_rem_pio2f+0xf0>
 800d7f4:	eeb1 7a47 	vneg.f32	s14, s14
 800d7f8:	eeb1 0a40 	vneg.f32	s0, s0
 800d7fc:	ed85 7a00 	vstr	s14, [r5]
 800d800:	ed85 0a01 	vstr	s0, [r5, #4]
 800d804:	4240      	negs	r0, r0
 800d806:	e7ab      	b.n	800d760 <__ieee754_rem_pio2f+0xf0>
 800d808:	ee30 7a67 	vsub.f32	s14, s0, s15
 800d80c:	15e4      	asrs	r4, r4, #23
 800d80e:	ee17 3a10 	vmov	r3, s14
 800d812:	f3c3 53c7 	ubfx	r3, r3, #23, #8
 800d816:	1ae3      	subs	r3, r4, r3
 800d818:	2b08      	cmp	r3, #8
 800d81a:	dde1      	ble.n	800d7e0 <__ieee754_rem_pio2f+0x170>
 800d81c:	eddf 7a32 	vldr	s15, [pc, #200]	; 800d8e8 <__ieee754_rem_pio2f+0x278>
 800d820:	ed9f 7a32 	vldr	s14, [pc, #200]	; 800d8ec <__ieee754_rem_pio2f+0x27c>
 800d824:	eef0 5a40 	vmov.f32	s11, s0
 800d828:	eee6 5a27 	vfma.f32	s11, s12, s15
 800d82c:	ee30 0a65 	vsub.f32	s0, s0, s11
 800d830:	eea6 0a27 	vfma.f32	s0, s12, s15
 800d834:	eef0 7a40 	vmov.f32	s15, s0
 800d838:	eed6 7a87 	vfnms.f32	s15, s13, s14
 800d83c:	ee35 7ae7 	vsub.f32	s14, s11, s15
 800d840:	ee17 3a10 	vmov	r3, s14
 800d844:	f3c3 53c7 	ubfx	r3, r3, #23, #8
 800d848:	1ae4      	subs	r4, r4, r3
 800d84a:	2c19      	cmp	r4, #25
 800d84c:	dc2c      	bgt.n	800d8a8 <__ieee754_rem_pio2f+0x238>
 800d84e:	ed85 7a00 	vstr	s14, [r5]
 800d852:	eeb0 0a65 	vmov.f32	s0, s11
 800d856:	e7c5      	b.n	800d7e4 <__ieee754_rem_pio2f+0x174>
 800d858:	4294      	cmp	r4, r2
 800d85a:	ee70 7a27 	vadd.f32	s15, s0, s15
 800d85e:	d010      	beq.n	800d882 <__ieee754_rem_pio2f+0x212>
 800d860:	ed9f 7a1d 	vldr	s14, [pc, #116]	; 800d8d8 <__ieee754_rem_pio2f+0x268>
 800d864:	ee77 6a87 	vadd.f32	s13, s15, s14
 800d868:	f04f 30ff 	mov.w	r0, #4294967295
 800d86c:	ee77 7ae6 	vsub.f32	s15, s15, s13
 800d870:	edc5 6a00 	vstr	s13, [r5]
 800d874:	ee77 7a87 	vadd.f32	s15, s15, s14
 800d878:	edc5 7a01 	vstr	s15, [r5, #4]
 800d87c:	e770      	b.n	800d760 <__ieee754_rem_pio2f+0xf0>
 800d87e:	2303      	movs	r3, #3
 800d880:	e751      	b.n	800d726 <__ieee754_rem_pio2f+0xb6>
 800d882:	eddf 6a19 	vldr	s13, [pc, #100]	; 800d8e8 <__ieee754_rem_pio2f+0x278>
 800d886:	ed9f 7a19 	vldr	s14, [pc, #100]	; 800d8ec <__ieee754_rem_pio2f+0x27c>
 800d88a:	ee77 7aa6 	vadd.f32	s15, s15, s13
 800d88e:	f04f 30ff 	mov.w	r0, #4294967295
 800d892:	ee77 6a87 	vadd.f32	s13, s15, s14
 800d896:	ee77 7ae6 	vsub.f32	s15, s15, s13
 800d89a:	edc5 6a00 	vstr	s13, [r5]
 800d89e:	ee77 7a87 	vadd.f32	s15, s15, s14
 800d8a2:	edc5 7a01 	vstr	s15, [r5, #4]
 800d8a6:	e75b      	b.n	800d760 <__ieee754_rem_pio2f+0xf0>
 800d8a8:	ed9f 7a13 	vldr	s14, [pc, #76]	; 800d8f8 <__ieee754_rem_pio2f+0x288>
 800d8ac:	ed9f 5a13 	vldr	s10, [pc, #76]	; 800d8fc <__ieee754_rem_pio2f+0x28c>
 800d8b0:	eeb0 0a65 	vmov.f32	s0, s11
 800d8b4:	eea6 0a07 	vfma.f32	s0, s12, s14
 800d8b8:	ee75 7ac0 	vsub.f32	s15, s11, s0
 800d8bc:	eee6 7a07 	vfma.f32	s15, s12, s14
 800d8c0:	eed6 7a85 	vfnms.f32	s15, s13, s10
 800d8c4:	e78a      	b.n	800d7dc <__ieee754_rem_pio2f+0x16c>
 800d8c6:	bf00      	nop
 800d8c8:	3f490fd8 	.word	0x3f490fd8
 800d8cc:	4016cbe3 	.word	0x4016cbe3
 800d8d0:	3fc90f80 	.word	0x3fc90f80
 800d8d4:	3fc90fd0 	.word	0x3fc90fd0
 800d8d8:	37354443 	.word	0x37354443
 800d8dc:	43490f80 	.word	0x43490f80
 800d8e0:	43800000 	.word	0x43800000
 800d8e4:	0801d7f0 	.word	0x0801d7f0
 800d8e8:	37354400 	.word	0x37354400
 800d8ec:	2e85a308 	.word	0x2e85a308
 800d8f0:	3f22f984 	.word	0x3f22f984
 800d8f4:	0801d770 	.word	0x0801d770
 800d8f8:	2e85a300 	.word	0x2e85a300
 800d8fc:	248d3132 	.word	0x248d3132

0800d900 <__ieee754_sqrtf>:
__ieee754_sqrtf():
 800d900:	ee10 3a10 	vmov	r3, s0
 800d904:	f023 4200 	bic.w	r2, r3, #2147483648	; 0x80000000
 800d908:	f1b2 4fff 	cmp.w	r2, #2139095040	; 0x7f800000
 800d90c:	b470      	push	{r4, r5, r6}
 800d90e:	d230      	bcs.n	800d972 <__ieee754_sqrtf+0x72>
 800d910:	b36a      	cbz	r2, 800d96e <__ieee754_sqrtf+0x6e>
 800d912:	2b00      	cmp	r3, #0
 800d914:	db3d      	blt.n	800d992 <__ieee754_sqrtf+0x92>
 800d916:	f5b2 0f00 	cmp.w	r2, #8388608	; 0x800000
 800d91a:	ea4f 51e3 	mov.w	r1, r3, asr #23
 800d91e:	d32c      	bcc.n	800d97a <__ieee754_sqrtf+0x7a>
 800d920:	f1a1 027f 	sub.w	r2, r1, #127	; 0x7f
 800d924:	f3c3 0316 	ubfx	r3, r3, #0, #23
 800d928:	07d1      	lsls	r1, r2, #31
 800d92a:	f443 0300 	orr.w	r3, r3, #8388608	; 0x800000
 800d92e:	bf48      	it	mi
 800d930:	005b      	lslmi	r3, r3, #1
 800d932:	2400      	movs	r4, #0
 800d934:	1056      	asrs	r6, r2, #1
 800d936:	005b      	lsls	r3, r3, #1
 800d938:	4625      	mov	r5, r4
 800d93a:	2119      	movs	r1, #25
 800d93c:	f04f 7280 	mov.w	r2, #16777216	; 0x1000000
 800d940:	18a8      	adds	r0, r5, r2
 800d942:	4298      	cmp	r0, r3
 800d944:	dc02      	bgt.n	800d94c <__ieee754_sqrtf+0x4c>
 800d946:	1a1b      	subs	r3, r3, r0
 800d948:	1885      	adds	r5, r0, r2
 800d94a:	4414      	add	r4, r2
 800d94c:	3901      	subs	r1, #1
 800d94e:	ea4f 0343 	mov.w	r3, r3, lsl #1
 800d952:	ea4f 0252 	mov.w	r2, r2, lsr #1
 800d956:	d1f3      	bne.n	800d940 <__ieee754_sqrtf+0x40>
 800d958:	b113      	cbz	r3, 800d960 <__ieee754_sqrtf+0x60>
 800d95a:	f004 0301 	and.w	r3, r4, #1
 800d95e:	441c      	add	r4, r3
 800d960:	1064      	asrs	r4, r4, #1
 800d962:	f104 547c 	add.w	r4, r4, #1056964608	; 0x3f000000
 800d966:	eb04 53c6 	add.w	r3, r4, r6, lsl #23
 800d96a:	ee00 3a10 	vmov	s0, r3
 800d96e:	bc70      	pop	{r4, r5, r6}
 800d970:	4770      	bx	lr
 800d972:	eea0 0a00 	vfma.f32	s0, s0, s0
 800d976:	bc70      	pop	{r4, r5, r6}
 800d978:	4770      	bx	lr
 800d97a:	f413 0200 	ands.w	r2, r3, #8388608	; 0x800000
 800d97e:	d10d      	bne.n	800d99c <__ieee754_sqrtf+0x9c>
 800d980:	005b      	lsls	r3, r3, #1
 800d982:	0218      	lsls	r0, r3, #8
 800d984:	f102 0201 	add.w	r2, r2, #1
 800d988:	d5fa      	bpl.n	800d980 <__ieee754_sqrtf+0x80>
 800d98a:	f1c2 0201 	rsb	r2, r2, #1
 800d98e:	4411      	add	r1, r2
 800d990:	e7c6      	b.n	800d920 <__ieee754_sqrtf+0x20>
 800d992:	ee30 0a40 	vsub.f32	s0, s0, s0
 800d996:	ee80 0a00 	vdiv.f32	s0, s0, s0
 800d99a:	e7e8      	b.n	800d96e <__ieee754_sqrtf+0x6e>
 800d99c:	2201      	movs	r2, #1
 800d99e:	4411      	add	r1, r2
 800d9a0:	e7be      	b.n	800d920 <__ieee754_sqrtf+0x20>
 800d9a2:	bf00      	nop

0800d9a4 <__kernel_cosf>:
__kernel_cosf():
 800d9a4:	ee10 3a10 	vmov	r3, s0
 800d9a8:	f023 4300 	bic.w	r3, r3, #2147483648	; 0x80000000
 800d9ac:	f1b3 5f48 	cmp.w	r3, #838860800	; 0x32000000
 800d9b0:	da2c      	bge.n	800da0c <__kernel_cosf+0x68>
 800d9b2:	eefd 7ac0 	vcvt.s32.f32	s15, s0
 800d9b6:	ee17 3a90 	vmov	r3, s15
 800d9ba:	2b00      	cmp	r3, #0
 800d9bc:	d060      	beq.n	800da80 <__kernel_cosf+0xdc>
 800d9be:	ee20 7a00 	vmul.f32	s14, s0, s0
 800d9c2:	eddf 4a31 	vldr	s9, [pc, #196]	; 800da88 <__kernel_cosf+0xe4>
 800d9c6:	ed9f 5a31 	vldr	s10, [pc, #196]	; 800da8c <__kernel_cosf+0xe8>
 800d9ca:	eddf 5a31 	vldr	s11, [pc, #196]	; 800da90 <__kernel_cosf+0xec>
 800d9ce:	ed9f 6a31 	vldr	s12, [pc, #196]	; 800da94 <__kernel_cosf+0xf0>
 800d9d2:	eddf 7a31 	vldr	s15, [pc, #196]	; 800da98 <__kernel_cosf+0xf4>
 800d9d6:	eddf 6a31 	vldr	s13, [pc, #196]	; 800da9c <__kernel_cosf+0xf8>
 800d9da:	eea7 5a24 	vfma.f32	s10, s14, s9
 800d9de:	eee5 5a07 	vfma.f32	s11, s10, s14
 800d9e2:	eea5 6a87 	vfma.f32	s12, s11, s14
 800d9e6:	eee6 7a07 	vfma.f32	s15, s12, s14
 800d9ea:	eee7 6a87 	vfma.f32	s13, s15, s14
 800d9ee:	ee66 6a87 	vmul.f32	s13, s13, s14
 800d9f2:	ee60 0ac0 	vnmul.f32	s1, s1, s0
 800d9f6:	eeb6 6a00 	vmov.f32	s12, #96	; 0x60
 800d9fa:	eee7 0a26 	vfma.f32	s1, s14, s13
 800d9fe:	eef7 7a00 	vmov.f32	s15, #112	; 0x70
 800da02:	eed7 0a06 	vfnms.f32	s1, s14, s12
 800da06:	ee37 0ae0 	vsub.f32	s0, s15, s1
 800da0a:	4770      	bx	lr
 800da0c:	ee20 7a00 	vmul.f32	s14, s0, s0
 800da10:	eddf 4a1d 	vldr	s9, [pc, #116]	; 800da88 <__kernel_cosf+0xe4>
 800da14:	ed9f 5a1d 	vldr	s10, [pc, #116]	; 800da8c <__kernel_cosf+0xe8>
 800da18:	eddf 5a1d 	vldr	s11, [pc, #116]	; 800da90 <__kernel_cosf+0xec>
 800da1c:	ed9f 6a1d 	vldr	s12, [pc, #116]	; 800da94 <__kernel_cosf+0xf0>
 800da20:	eddf 7a1d 	vldr	s15, [pc, #116]	; 800da98 <__kernel_cosf+0xf4>
 800da24:	eddf 6a1d 	vldr	s13, [pc, #116]	; 800da9c <__kernel_cosf+0xf8>
 800da28:	4a1d      	ldr	r2, [pc, #116]	; (800daa0 <__kernel_cosf+0xfc>)
 800da2a:	eea7 5a24 	vfma.f32	s10, s14, s9
 800da2e:	4293      	cmp	r3, r2
 800da30:	eee5 5a07 	vfma.f32	s11, s10, s14
 800da34:	eea5 6a87 	vfma.f32	s12, s11, s14
 800da38:	eee6 7a07 	vfma.f32	s15, s12, s14
 800da3c:	eee7 6a87 	vfma.f32	s13, s15, s14
 800da40:	ee66 6a87 	vmul.f32	s13, s13, s14
 800da44:	ddd5      	ble.n	800d9f2 <__kernel_cosf+0x4e>
 800da46:	4a17      	ldr	r2, [pc, #92]	; (800daa4 <__kernel_cosf+0x100>)
 800da48:	4293      	cmp	r3, r2
 800da4a:	dc14      	bgt.n	800da76 <__kernel_cosf+0xd2>
 800da4c:	f103 437f 	add.w	r3, r3, #4278190080	; 0xff000000
 800da50:	ee07 3a90 	vmov	s15, r3
 800da54:	eeb7 6a00 	vmov.f32	s12, #112	; 0x70
 800da58:	ee36 6a67 	vsub.f32	s12, s12, s15
 800da5c:	ee60 0ac0 	vnmul.f32	s1, s1, s0
 800da60:	eef6 5a00 	vmov.f32	s11, #96	; 0x60
 800da64:	eee7 0a26 	vfma.f32	s1, s14, s13
 800da68:	eed7 7a25 	vfnms.f32	s15, s14, s11
 800da6c:	ee77 7ae0 	vsub.f32	s15, s15, s1
 800da70:	ee36 0a67 	vsub.f32	s0, s12, s15
 800da74:	4770      	bx	lr
 800da76:	eeb6 6a07 	vmov.f32	s12, #103	; 0x67
 800da7a:	eef5 7a02 	vmov.f32	s15, #82	; 0x52
 800da7e:	e7ed      	b.n	800da5c <__kernel_cosf+0xb8>
 800da80:	eeb7 0a00 	vmov.f32	s0, #112	; 0x70
 800da84:	4770      	bx	lr
 800da86:	bf00      	nop
 800da88:	ad47d74e 	.word	0xad47d74e
 800da8c:	310f74f6 	.word	0x310f74f6
 800da90:	b493f27c 	.word	0xb493f27c
 800da94:	37d00d01 	.word	0x37d00d01
 800da98:	bab60b61 	.word	0xbab60b61
 800da9c:	3d2aaaab 	.word	0x3d2aaaab
 800daa0:	3e999999 	.word	0x3e999999
 800daa4:	3f480000 	.word	0x3f480000

0800daa8 <__kernel_rem_pio2f>:
__kernel_rem_pio2f():
 800daa8:	e92d 4ff0 	stmdb	sp!, {r4, r5, r6, r7, r8, r9, sl, fp, lr}
 800daac:	ed2d 8b04 	vpush	{d8-d9}
 800dab0:	b0d7      	sub	sp, #348	; 0x15c
 800dab2:	1e5f      	subs	r7, r3, #1
 800dab4:	4cd7      	ldr	r4, [pc, #860]	; (800de14 <__kernel_rem_pio2f+0x36c>)
 800dab6:	9d64      	ldr	r5, [sp, #400]	; 0x190
 800dab8:	9302      	str	r3, [sp, #8]
 800daba:	1ed3      	subs	r3, r2, #3
 800dabc:	bf48      	it	mi
 800dabe:	1d13      	addmi	r3, r2, #4
 800dac0:	f854 6025 	ldr.w	r6, [r4, r5, lsl #2]
 800dac4:	9101      	str	r1, [sp, #4]
 800dac6:	10db      	asrs	r3, r3, #3
 800dac8:	ea23 73e3 	bic.w	r3, r3, r3, asr #31
 800dacc:	ea6f 0b03 	mvn.w	fp, r3
 800dad0:	19b9      	adds	r1, r7, r6
 800dad2:	9303      	str	r3, [sp, #12]
 800dad4:	4682      	mov	sl, r0
 800dad6:	eb02 0bcb 	add.w	fp, r2, fp, lsl #3
 800dada:	eba3 0307 	sub.w	r3, r3, r7
 800dade:	d414      	bmi.n	800db0a <__kernel_rem_pio2f+0x62>
 800dae0:	4419      	add	r1, r3
 800dae2:	9865      	ldr	r0, [sp, #404]	; 0x194
 800dae4:	3101      	adds	r1, #1
 800dae6:	aa1a      	add	r2, sp, #104	; 0x68
 800dae8:	2b00      	cmp	r3, #0
 800daea:	bfaa      	itet	ge
 800daec:	f850 4023 	ldrge.w	r4, [r0, r3, lsl #2]
 800daf0:	eddf 7acc 	vldrlt	s15, [pc, #816]	; 800de24 <__kernel_rem_pio2f+0x37c>
 800daf4:	ee07 4a90 	vmovge	s15, r4
 800daf8:	f103 0301 	add.w	r3, r3, #1
 800dafc:	bfa8      	it	ge
 800dafe:	eef8 7ae7 	vcvtge.f32.s32	s15, s15
 800db02:	428b      	cmp	r3, r1
 800db04:	ece2 7a01 	vstmia	r2!, {s15}
 800db08:	d1ee      	bne.n	800dae8 <__kernel_rem_pio2f+0x40>
 800db0a:	2e00      	cmp	r6, #0
 800db0c:	db1a      	blt.n	800db44 <__kernel_rem_pio2f+0x9c>
 800db0e:	9b02      	ldr	r3, [sp, #8]
 800db10:	a91a      	add	r1, sp, #104	; 0x68
 800db12:	1c74      	adds	r4, r6, #1
 800db14:	eb01 0484 	add.w	r4, r1, r4, lsl #2
 800db18:	a842      	add	r0, sp, #264	; 0x108
 800db1a:	009d      	lsls	r5, r3, #2
 800db1c:	2f00      	cmp	r7, #0
 800db1e:	f2c0 81ba 	blt.w	800de96 <__kernel_rem_pio2f+0x3ee>
 800db22:	eddf 7ac0 	vldr	s15, [pc, #768]	; 800de24 <__kernel_rem_pio2f+0x37c>
 800db26:	4652      	mov	r2, sl
 800db28:	194b      	adds	r3, r1, r5
 800db2a:	ed33 7a01 	vldmdb	r3!, {s14}
 800db2e:	ecf2 6a01 	vldmia	r2!, {s13}
 800db32:	4299      	cmp	r1, r3
 800db34:	eee6 7a87 	vfma.f32	s15, s13, s14
 800db38:	d1f7      	bne.n	800db2a <__kernel_rem_pio2f+0x82>
 800db3a:	3104      	adds	r1, #4
 800db3c:	42a1      	cmp	r1, r4
 800db3e:	ece0 7a01 	vstmia	r0!, {s15}
 800db42:	d1eb      	bne.n	800db1c <__kernel_rem_pio2f+0x74>
 800db44:	9a02      	ldr	r2, [sp, #8]
 800db46:	eddf 8ab4 	vldr	s17, [pc, #720]	; 800de18 <__kernel_rem_pio2f+0x370>
 800db4a:	ed9f 8ab4 	vldr	s16, [pc, #720]	; 800de1c <__kernel_rem_pio2f+0x374>
 800db4e:	f106 4380 	add.w	r3, r6, #1073741824	; 0x40000000
 800db52:	3b01      	subs	r3, #1
 800db54:	009b      	lsls	r3, r3, #2
 800db56:	ebc2 7982 	rsb	r9, r2, r2, lsl #30
 800db5a:	aa06      	add	r2, sp, #24
 800db5c:	f103 0804 	add.w	r8, r3, #4
 800db60:	4413      	add	r3, r2
 800db62:	4490      	add	r8, r2
 800db64:	9304      	str	r3, [sp, #16]
 800db66:	ea4f 0989 	mov.w	r9, r9, lsl #2
 800db6a:	4634      	mov	r4, r6
 800db6c:	00a5      	lsls	r5, r4, #2
 800db6e:	ab56      	add	r3, sp, #344	; 0x158
 800db70:	442b      	add	r3, r5
 800db72:	2c00      	cmp	r4, #0
 800db74:	ed13 0a14 	vldr	s0, [r3, #-80]	; 0xffffffb0
 800db78:	dd18      	ble.n	800dbac <__kernel_rem_pio2f+0x104>
 800db7a:	a942      	add	r1, sp, #264	; 0x108
 800db7c:	194b      	adds	r3, r1, r5
 800db7e:	aa05      	add	r2, sp, #20
 800db80:	ee60 7a28 	vmul.f32	s15, s0, s17
 800db84:	eeb0 7a40 	vmov.f32	s14, s0
 800db88:	eefd 7ae7 	vcvt.s32.f32	s15, s15
 800db8c:	ed73 6a01 	vldmdb	r3!, {s13}
 800db90:	eef8 7ae7 	vcvt.f32.s32	s15, s15
 800db94:	428b      	cmp	r3, r1
 800db96:	eea7 7ac8 	vfms.f32	s14, s15, s16
 800db9a:	ee37 0aa6 	vadd.f32	s0, s15, s13
 800db9e:	eebd 7ac7 	vcvt.s32.f32	s14, s14
 800dba2:	ee17 0a10 	vmov	r0, s14
 800dba6:	f842 0f04 	str.w	r0, [r2, #4]!
 800dbaa:	d1e9      	bne.n	800db80 <__kernel_rem_pio2f+0xd8>
 800dbac:	4658      	mov	r0, fp
 800dbae:	f000 fb7d 	bl	800e2ac <scalbnf>
 800dbb2:	eeb0 9a40 	vmov.f32	s18, s0
 800dbb6:	eeb4 0a00 	vmov.f32	s0, #64	; 0x40
 800dbba:	ee29 0a00 	vmul.f32	s0, s18, s0
 800dbbe:	f7fe ff89 	bl	800cad4 <floorf>
 800dbc2:	eef2 7a00 	vmov.f32	s15, #32
 800dbc6:	eea0 9a67 	vfms.f32	s18, s0, s15
 800dbca:	f1bb 0f00 	cmp.w	fp, #0
 800dbce:	eefd 9ac9 	vcvt.s32.f32	s19, s18
 800dbd2:	eef8 7ae9 	vcvt.f32.s32	s15, s19
 800dbd6:	ee39 9a67 	vsub.f32	s18, s18, s15
 800dbda:	f340 8141 	ble.w	800de60 <__kernel_rem_pio2f+0x3b8>
 800dbde:	1e60      	subs	r0, r4, #1
 800dbe0:	aa06      	add	r2, sp, #24
 800dbe2:	f1cb 0308 	rsb	r3, fp, #8
 800dbe6:	f852 1020 	ldr.w	r1, [r2, r0, lsl #2]
 800dbea:	fa41 f203 	asr.w	r2, r1, r3
 800dbee:	fa02 f303 	lsl.w	r3, r2, r3
 800dbf2:	f10d 0e18 	add.w	lr, sp, #24
 800dbf6:	1ac9      	subs	r1, r1, r3
 800dbf8:	f84e 1020 	str.w	r1, [lr, r0, lsl #2]
 800dbfc:	ee19 0a90 	vmov	r0, s19
 800dc00:	4410      	add	r0, r2
 800dc02:	f1cb 0307 	rsb	r3, fp, #7
 800dc06:	ee09 0a90 	vmov	s19, r0
 800dc0a:	4119      	asrs	r1, r3
 800dc0c:	2900      	cmp	r1, #0
 800dc0e:	dd39      	ble.n	800dc84 <__kernel_rem_pio2f+0x1dc>
 800dc10:	ee19 3a90 	vmov	r3, s19
 800dc14:	2c00      	cmp	r4, #0
 800dc16:	f103 0301 	add.w	r3, r3, #1
 800dc1a:	ee09 3a90 	vmov	s19, r3
 800dc1e:	f340 81cb 	ble.w	800dfb8 <__kernel_rem_pio2f+0x510>
 800dc22:	2200      	movs	r2, #0
 800dc24:	4610      	mov	r0, r2
 800dc26:	f10d 0e14 	add.w	lr, sp, #20
 800dc2a:	e008      	b.n	800dc3e <__kernel_rem_pio2f+0x196>
 800dc2c:	f5c3 7c80 	rsb	ip, r3, #256	; 0x100
 800dc30:	b113      	cbz	r3, 800dc38 <__kernel_rem_pio2f+0x190>
 800dc32:	f8ce c000 	str.w	ip, [lr]
 800dc36:	2001      	movs	r0, #1
 800dc38:	3201      	adds	r2, #1
 800dc3a:	4294      	cmp	r4, r2
 800dc3c:	dd0c      	ble.n	800dc58 <__kernel_rem_pio2f+0x1b0>
 800dc3e:	f85e 3f04 	ldr.w	r3, [lr, #4]!
 800dc42:	2800      	cmp	r0, #0
 800dc44:	d0f2      	beq.n	800dc2c <__kernel_rem_pio2f+0x184>
 800dc46:	3201      	adds	r2, #1
 800dc48:	f1c3 03ff 	rsb	r3, r3, #255	; 0xff
 800dc4c:	4294      	cmp	r4, r2
 800dc4e:	f8ce 3000 	str.w	r3, [lr]
 800dc52:	f04f 0001 	mov.w	r0, #1
 800dc56:	dcf2      	bgt.n	800dc3e <__kernel_rem_pio2f+0x196>
 800dc58:	f1bb 0f00 	cmp.w	fp, #0
 800dc5c:	dd10      	ble.n	800dc80 <__kernel_rem_pio2f+0x1d8>
 800dc5e:	f1bb 0f01 	cmp.w	fp, #1
 800dc62:	f000 8104 	beq.w	800de6e <__kernel_rem_pio2f+0x3c6>
 800dc66:	f1bb 0f02 	cmp.w	fp, #2
 800dc6a:	d109      	bne.n	800dc80 <__kernel_rem_pio2f+0x1d8>
 800dc6c:	1e62      	subs	r2, r4, #1
 800dc6e:	ab06      	add	r3, sp, #24
 800dc70:	f10d 0e18 	add.w	lr, sp, #24
 800dc74:	f853 3022 	ldr.w	r3, [r3, r2, lsl #2]
 800dc78:	f003 033f 	and.w	r3, r3, #63	; 0x3f
 800dc7c:	f84e 3022 	str.w	r3, [lr, r2, lsl #2]
 800dc80:	2902      	cmp	r1, #2
 800dc82:	d059      	beq.n	800dd38 <__kernel_rem_pio2f+0x290>
 800dc84:	eeb5 9a40 	vcmp.f32	s18, #0.0
 800dc88:	eef1 fa10 	vmrs	APSR_nzcv, fpscr
 800dc8c:	d166      	bne.n	800dd5c <__kernel_rem_pio2f+0x2b4>
 800dc8e:	1e63      	subs	r3, r4, #1
 800dc90:	429e      	cmp	r6, r3
 800dc92:	dc0b      	bgt.n	800dcac <__kernel_rem_pio2f+0x204>
 800dc94:	aa06      	add	r2, sp, #24
 800dc96:	4415      	add	r5, r2
 800dc98:	2200      	movs	r2, #0
 800dc9a:	f855 0d04 	ldr.w	r0, [r5, #-4]!
 800dc9e:	4545      	cmp	r5, r8
 800dca0:	ea42 0200 	orr.w	r2, r2, r0
 800dca4:	d1f9      	bne.n	800dc9a <__kernel_rem_pio2f+0x1f2>
 800dca6:	2a00      	cmp	r2, #0
 800dca8:	f040 8170 	bne.w	800df8c <__kernel_rem_pio2f+0x4e4>
 800dcac:	1e73      	subs	r3, r6, #1
 800dcae:	aa06      	add	r2, sp, #24
 800dcb0:	f852 3023 	ldr.w	r3, [r2, r3, lsl #2]
 800dcb4:	2b00      	cmp	r3, #0
 800dcb6:	f040 817c 	bne.w	800dfb2 <__kernel_rem_pio2f+0x50a>
 800dcba:	9b04      	ldr	r3, [sp, #16]
 800dcbc:	f04f 0e01 	mov.w	lr, #1
 800dcc0:	f853 2d04 	ldr.w	r2, [r3, #-4]!
 800dcc4:	f10e 0e01 	add.w	lr, lr, #1
 800dcc8:	2a00      	cmp	r2, #0
 800dcca:	d0f9      	beq.n	800dcc0 <__kernel_rem_pio2f+0x218>
 800dccc:	44a6      	add	lr, r4
 800dcce:	1c63      	adds	r3, r4, #1
 800dcd0:	4573      	cmp	r3, lr
 800dcd2:	dc2f      	bgt.n	800dd34 <__kernel_rem_pio2f+0x28c>
 800dcd4:	9a03      	ldr	r2, [sp, #12]
 800dcd6:	189d      	adds	r5, r3, r2
 800dcd8:	9a02      	ldr	r2, [sp, #8]
 800dcda:	f105 4580 	add.w	r5, r5, #1073741824	; 0x40000000
 800dcde:	18a0      	adds	r0, r4, r2
 800dce0:	eb0e 0c02 	add.w	ip, lr, r2
 800dce4:	9a65      	ldr	r2, [sp, #404]	; 0x194
 800dce6:	3d01      	subs	r5, #1
 800dce8:	eb02 0585 	add.w	r5, r2, r5, lsl #2
 800dcec:	aa1a      	add	r2, sp, #104	; 0x68
 800dcee:	eb02 0080 	add.w	r0, r2, r0, lsl #2
 800dcf2:	eb02 0c8c 	add.w	ip, r2, ip, lsl #2
 800dcf6:	aa42      	add	r2, sp, #264	; 0x108
 800dcf8:	eb02 0483 	add.w	r4, r2, r3, lsl #2
 800dcfc:	f855 3f04 	ldr.w	r3, [r5, #4]!
 800dd00:	ee07 3a90 	vmov	s15, r3
 800dd04:	eef8 7ae7 	vcvt.f32.s32	s15, s15
 800dd08:	2f00      	cmp	r7, #0
 800dd0a:	ece0 7a01 	vstmia	r0!, {s15}
 800dd0e:	eddf 7a45 	vldr	s15, [pc, #276]	; 800de24 <__kernel_rem_pio2f+0x37c>
 800dd12:	db0b      	blt.n	800dd2c <__kernel_rem_pio2f+0x284>
 800dd14:	4652      	mov	r2, sl
 800dd16:	eb00 0109 	add.w	r1, r0, r9
 800dd1a:	4603      	mov	r3, r0
 800dd1c:	ed33 7a01 	vldmdb	r3!, {s14}
 800dd20:	ecf2 6a01 	vldmia	r2!, {s13}
 800dd24:	428b      	cmp	r3, r1
 800dd26:	eee6 7a87 	vfma.f32	s15, s13, s14
 800dd2a:	d1f7      	bne.n	800dd1c <__kernel_rem_pio2f+0x274>
 800dd2c:	4560      	cmp	r0, ip
 800dd2e:	ece4 7a01 	vstmia	r4!, {s15}
 800dd32:	d1e3      	bne.n	800dcfc <__kernel_rem_pio2f+0x254>
 800dd34:	4674      	mov	r4, lr
 800dd36:	e719      	b.n	800db6c <__kernel_rem_pio2f+0xc4>
 800dd38:	eeb7 0a00 	vmov.f32	s0, #112	; 0x70
 800dd3c:	ee30 9a49 	vsub.f32	s18, s0, s18
 800dd40:	2800      	cmp	r0, #0
 800dd42:	d09f      	beq.n	800dc84 <__kernel_rem_pio2f+0x1dc>
 800dd44:	4658      	mov	r0, fp
 800dd46:	9105      	str	r1, [sp, #20]
 800dd48:	f000 fab0 	bl	800e2ac <scalbnf>
 800dd4c:	ee39 9a40 	vsub.f32	s18, s18, s0
 800dd50:	9905      	ldr	r1, [sp, #20]
 800dd52:	eeb5 9a40 	vcmp.f32	s18, #0.0
 800dd56:	eef1 fa10 	vmrs	APSR_nzcv, fpscr
 800dd5a:	d098      	beq.n	800dc8e <__kernel_rem_pio2f+0x1e6>
 800dd5c:	eeb0 0a49 	vmov.f32	s0, s18
 800dd60:	f1cb 0000 	rsb	r0, fp, #0
 800dd64:	9102      	str	r1, [sp, #8]
 800dd66:	f000 faa1 	bl	800e2ac <scalbnf>
 800dd6a:	ed9f 7a2c 	vldr	s14, [pc, #176]	; 800de1c <__kernel_rem_pio2f+0x374>
 800dd6e:	9902      	ldr	r1, [sp, #8]
 800dd70:	eeb4 0ac7 	vcmpe.f32	s0, s14
 800dd74:	eef1 fa10 	vmrs	APSR_nzcv, fpscr
 800dd78:	f2c0 817e 	blt.w	800e078 <__kernel_rem_pio2f+0x5d0>
 800dd7c:	eddf 7a26 	vldr	s15, [pc, #152]	; 800de18 <__kernel_rem_pio2f+0x370>
 800dd80:	ee60 7a27 	vmul.f32	s15, s0, s15
 800dd84:	a806      	add	r0, sp, #24
 800dd86:	eefd 7ae7 	vcvt.s32.f32	s15, s15
 800dd8a:	1c63      	adds	r3, r4, #1
 800dd8c:	eef8 7ae7 	vcvt.f32.s32	s15, s15
 800dd90:	f10b 0b08 	add.w	fp, fp, #8
 800dd94:	eea7 0ac7 	vfms.f32	s0, s15, s14
 800dd98:	eefd 7ae7 	vcvt.s32.f32	s15, s15
 800dd9c:	eebd 0ac0 	vcvt.s32.f32	s0, s0
 800dda0:	ee10 2a10 	vmov	r2, s0
 800dda4:	f840 2024 	str.w	r2, [r0, r4, lsl #2]
 800dda8:	ee17 2a90 	vmov	r2, s15
 800ddac:	f840 2023 	str.w	r2, [r0, r3, lsl #2]
 800ddb0:	4658      	mov	r0, fp
 800ddb2:	eeb7 0a00 	vmov.f32	s0, #112	; 0x70
 800ddb6:	9303      	str	r3, [sp, #12]
 800ddb8:	9102      	str	r1, [sp, #8]
 800ddba:	f000 fa77 	bl	800e2ac <scalbnf>
 800ddbe:	9b03      	ldr	r3, [sp, #12]
 800ddc0:	9902      	ldr	r1, [sp, #8]
 800ddc2:	2b00      	cmp	r3, #0
 800ddc4:	f2c0 80c7 	blt.w	800df56 <__kernel_rem_pio2f+0x4ae>
 800ddc8:	f103 0e01 	add.w	lr, r3, #1
 800ddcc:	ea4f 028e 	mov.w	r2, lr, lsl #2
 800ddd0:	ac42      	add	r4, sp, #264	; 0x108
 800ddd2:	a806      	add	r0, sp, #24
 800ddd4:	ed9f 7a10 	vldr	s14, [pc, #64]	; 800de18 <__kernel_rem_pio2f+0x370>
 800ddd8:	4410      	add	r0, r2
 800ddda:	18a7      	adds	r7, r4, r2
 800dddc:	ed70 7a01 	vldmdb	r0!, {s15}
 800dde0:	eef8 7ae7 	vcvt.f32.s32	s15, s15
 800dde4:	ee67 7a80 	vmul.f32	s15, s15, s0
 800dde8:	ee20 0a07 	vmul.f32	s0, s0, s14
 800ddec:	ed67 7a01 	vstmdb	r7!, {s15}
 800ddf0:	42a7      	cmp	r7, r4
 800ddf2:	d1f3      	bne.n	800dddc <__kernel_rem_pio2f+0x334>
 800ddf4:	3a04      	subs	r2, #4
 800ddf6:	4417      	add	r7, r2
 800ddf8:	2500      	movs	r5, #0
 800ddfa:	2e00      	cmp	r6, #0
 800ddfc:	f2c0 80a8 	blt.w	800df50 <__kernel_rem_pio2f+0x4a8>
 800de00:	2d00      	cmp	r5, #0
 800de02:	f2c0 80a5 	blt.w	800df50 <__kernel_rem_pio2f+0x4a8>
 800de06:	4c06      	ldr	r4, [pc, #24]	; (800de20 <__kernel_rem_pio2f+0x378>)
 800de08:	eddf 7a06 	vldr	s15, [pc, #24]	; 800de24 <__kernel_rem_pio2f+0x37c>
 800de0c:	4638      	mov	r0, r7
 800de0e:	2200      	movs	r2, #0
 800de10:	e00c      	b.n	800de2c <__kernel_rem_pio2f+0x384>
 800de12:	bf00      	nop
 800de14:	0801db08 	.word	0x0801db08
 800de18:	3b800000 	.word	0x3b800000
 800de1c:	43800000 	.word	0x43800000
 800de20:	0801db14 	.word	0x0801db14
 800de24:	00000000 	.word	0x00000000
 800de28:	42aa      	cmp	r2, r5
 800de2a:	dc08      	bgt.n	800de3e <__kernel_rem_pio2f+0x396>
 800de2c:	ecf4 6a01 	vldmia	r4!, {s13}
 800de30:	ecb0 7a01 	vldmia	r0!, {s14}
 800de34:	3201      	adds	r2, #1
 800de36:	4296      	cmp	r6, r2
 800de38:	eee6 7a87 	vfma.f32	s15, s13, s14
 800de3c:	daf4      	bge.n	800de28 <__kernel_rem_pio2f+0x380>
 800de3e:	aa56      	add	r2, sp, #344	; 0x158
 800de40:	eb02 0285 	add.w	r2, r2, r5, lsl #2
 800de44:	3501      	adds	r5, #1
 800de46:	4575      	cmp	r5, lr
 800de48:	f1a7 0704 	sub.w	r7, r7, #4
 800de4c:	ed42 7a28 	vstr	s15, [r2, #-160]	; 0xffffff60
 800de50:	d1d3      	bne.n	800ddfa <__kernel_rem_pio2f+0x352>
 800de52:	9a64      	ldr	r2, [sp, #400]	; 0x190
 800de54:	2a03      	cmp	r2, #3
 800de56:	d85f      	bhi.n	800df18 <__kernel_rem_pio2f+0x470>
 800de58:	e8df f002 	tbb	[pc, r2]
 800de5c:	b0373767 	.word	0xb0373767
 800de60:	d110      	bne.n	800de84 <__kernel_rem_pio2f+0x3dc>
 800de62:	1e63      	subs	r3, r4, #1
 800de64:	aa06      	add	r2, sp, #24
 800de66:	f852 1023 	ldr.w	r1, [r2, r3, lsl #2]
 800de6a:	1209      	asrs	r1, r1, #8
 800de6c:	e6ce      	b.n	800dc0c <__kernel_rem_pio2f+0x164>
 800de6e:	1e62      	subs	r2, r4, #1
 800de70:	ab06      	add	r3, sp, #24
 800de72:	f10d 0e18 	add.w	lr, sp, #24
 800de76:	f853 3022 	ldr.w	r3, [r3, r2, lsl #2]
 800de7a:	f003 037f 	and.w	r3, r3, #127	; 0x7f
 800de7e:	f84e 3022 	str.w	r3, [lr, r2, lsl #2]
 800de82:	e6fd      	b.n	800dc80 <__kernel_rem_pio2f+0x1d8>
 800de84:	eef6 7a00 	vmov.f32	s15, #96	; 0x60
 800de88:	eeb4 9ae7 	vcmpe.f32	s18, s15
 800de8c:	eef1 fa10 	vmrs	APSR_nzcv, fpscr
 800de90:	da0a      	bge.n	800dea8 <__kernel_rem_pio2f+0x400>
 800de92:	2100      	movs	r1, #0
 800de94:	e6f6      	b.n	800dc84 <__kernel_rem_pio2f+0x1dc>
 800de96:	ed5f 7a1d 	vldr	s15, [pc, #-116]	; 800de24 <__kernel_rem_pio2f+0x37c>
 800de9a:	3104      	adds	r1, #4
 800de9c:	42a1      	cmp	r1, r4
 800de9e:	ece0 7a01 	vstmia	r0!, {s15}
 800dea2:	f47f ae3b 	bne.w	800db1c <__kernel_rem_pio2f+0x74>
 800dea6:	e64d      	b.n	800db44 <__kernel_rem_pio2f+0x9c>
 800dea8:	ee19 3a90 	vmov	r3, s19
 800deac:	2c00      	cmp	r4, #0
 800deae:	f103 0301 	add.w	r3, r3, #1
 800deb2:	ee09 3a90 	vmov	s19, r3
 800deb6:	bfc8      	it	gt
 800deb8:	2102      	movgt	r1, #2
 800deba:	f73f aeb2 	bgt.w	800dc22 <__kernel_rem_pio2f+0x17a>
 800debe:	eef7 7a00 	vmov.f32	s15, #112	; 0x70
 800dec2:	ee37 9ac9 	vsub.f32	s18, s15, s18
 800dec6:	2102      	movs	r1, #2
 800dec8:	e6dc      	b.n	800dc84 <__kernel_rem_pio2f+0x1dc>
 800deca:	aa2e      	add	r2, sp, #184	; 0xb8
 800decc:	ed5f 7a2b 	vldr	s15, [pc, #-172]	; 800de24 <__kernel_rem_pio2f+0x37c>
 800ded0:	eb02 0e8e 	add.w	lr, r2, lr, lsl #2
 800ded4:	ed3e 7a01 	vldmdb	lr!, {s14}
 800ded8:	4596      	cmp	lr, r2
 800deda:	ee77 7a87 	vadd.f32	s15, s15, s14
 800dede:	d1f9      	bne.n	800ded4 <__kernel_rem_pio2f+0x42c>
 800dee0:	2900      	cmp	r1, #0
 800dee2:	d043      	beq.n	800df6c <__kernel_rem_pio2f+0x4c4>
 800dee4:	eddd 6a2e 	vldr	s13, [sp, #184]	; 0xb8
 800dee8:	9a01      	ldr	r2, [sp, #4]
 800deea:	eeb1 7a67 	vneg.f32	s14, s15
 800deee:	2b00      	cmp	r3, #0
 800def0:	ee76 7ae7 	vsub.f32	s15, s13, s15
 800def4:	ed82 7a00 	vstr	s14, [r2]
 800def8:	dd09      	ble.n	800df0e <__kernel_rem_pio2f+0x466>
 800defa:	a82f      	add	r0, sp, #188	; 0xbc
 800defc:	2201      	movs	r2, #1
 800defe:	ecb0 7a01 	vldmia	r0!, {s14}
 800df02:	3201      	adds	r2, #1
 800df04:	4293      	cmp	r3, r2
 800df06:	ee77 7a87 	vadd.f32	s15, s15, s14
 800df0a:	daf8      	bge.n	800defe <__kernel_rem_pio2f+0x456>
 800df0c:	b109      	cbz	r1, 800df12 <__kernel_rem_pio2f+0x46a>
 800df0e:	eef1 7a67 	vneg.f32	s15, s15
 800df12:	9b01      	ldr	r3, [sp, #4]
 800df14:	edc3 7a01 	vstr	s15, [r3, #4]
 800df18:	ee19 3a90 	vmov	r3, s19
 800df1c:	f003 0007 	and.w	r0, r3, #7
 800df20:	b057      	add	sp, #348	; 0x15c
 800df22:	ecbd 8b04 	vpop	{d8-d9}
 800df26:	e8bd 8ff0 	ldmia.w	sp!, {r4, r5, r6, r7, r8, r9, sl, fp, pc}
 800df2a:	aa2e      	add	r2, sp, #184	; 0xb8
 800df2c:	ed5f 7a43 	vldr	s15, [pc, #-268]	; 800de24 <__kernel_rem_pio2f+0x37c>
 800df30:	eb02 0e8e 	add.w	lr, r2, lr, lsl #2
 800df34:	ed3e 7a01 	vldmdb	lr!, {s14}
 800df38:	3b01      	subs	r3, #1
 800df3a:	1c5a      	adds	r2, r3, #1
 800df3c:	ee77 7a87 	vadd.f32	s15, s15, s14
 800df40:	d1f8      	bne.n	800df34 <__kernel_rem_pio2f+0x48c>
 800df42:	b109      	cbz	r1, 800df48 <__kernel_rem_pio2f+0x4a0>
 800df44:	eef1 7a67 	vneg.f32	s15, s15
 800df48:	9b01      	ldr	r3, [sp, #4]
 800df4a:	edc3 7a00 	vstr	s15, [r3]
 800df4e:	e7e3      	b.n	800df18 <__kernel_rem_pio2f+0x470>
 800df50:	ed5f 7a4c 	vldr	s15, [pc, #-304]	; 800de24 <__kernel_rem_pio2f+0x37c>
 800df54:	e773      	b.n	800de3e <__kernel_rem_pio2f+0x396>
 800df56:	9a64      	ldr	r2, [sp, #400]	; 0x190
 800df58:	2a03      	cmp	r2, #3
 800df5a:	d8dd      	bhi.n	800df18 <__kernel_rem_pio2f+0x470>
 800df5c:	e8df f002 	tbb	[pc, r2]
 800df60:	80020213 	.word	0x80020213
 800df64:	ed5f 7a51 	vldr	s15, [pc, #-324]	; 800de24 <__kernel_rem_pio2f+0x37c>
 800df68:	2900      	cmp	r1, #0
 800df6a:	d1bb      	bne.n	800dee4 <__kernel_rem_pio2f+0x43c>
 800df6c:	ed9d 7a2e 	vldr	s14, [sp, #184]	; 0xb8
 800df70:	9a01      	ldr	r2, [sp, #4]
 800df72:	2b00      	cmp	r3, #0
 800df74:	edc2 7a00 	vstr	s15, [r2]
 800df78:	ee77 7a67 	vsub.f32	s15, s14, s15
 800df7c:	dcbd      	bgt.n	800defa <__kernel_rem_pio2f+0x452>
 800df7e:	9b01      	ldr	r3, [sp, #4]
 800df80:	edc3 7a01 	vstr	s15, [r3, #4]
 800df84:	e7c8      	b.n	800df18 <__kernel_rem_pio2f+0x470>
 800df86:	ed5f 7a59 	vldr	s15, [pc, #-356]	; 800de24 <__kernel_rem_pio2f+0x37c>
 800df8a:	e7da      	b.n	800df42 <__kernel_rem_pio2f+0x49a>
 800df8c:	aa06      	add	r2, sp, #24
 800df8e:	f1ab 0b08 	sub.w	fp, fp, #8
 800df92:	f852 2023 	ldr.w	r2, [r2, r3, lsl #2]
 800df96:	2a00      	cmp	r2, #0
 800df98:	f47f af0a 	bne.w	800ddb0 <__kernel_rem_pio2f+0x308>
 800df9c:	aa06      	add	r2, sp, #24
 800df9e:	eb02 0283 	add.w	r2, r2, r3, lsl #2
 800dfa2:	f852 0d04 	ldr.w	r0, [r2, #-4]!
 800dfa6:	3b01      	subs	r3, #1
 800dfa8:	f1ab 0b08 	sub.w	fp, fp, #8
 800dfac:	2800      	cmp	r0, #0
 800dfae:	d0f8      	beq.n	800dfa2 <__kernel_rem_pio2f+0x4fa>
 800dfb0:	e6fe      	b.n	800ddb0 <__kernel_rem_pio2f+0x308>
 800dfb2:	f04f 0e01 	mov.w	lr, #1
 800dfb6:	e689      	b.n	800dccc <__kernel_rem_pio2f+0x224>
 800dfb8:	2000      	movs	r0, #0
 800dfba:	e64d      	b.n	800dc58 <__kernel_rem_pio2f+0x1b0>
 800dfbc:	2b00      	cmp	r3, #0
 800dfbe:	dd4f      	ble.n	800e060 <__kernel_rem_pio2f+0x5b8>
 800dfc0:	009a      	lsls	r2, r3, #2
 800dfc2:	a856      	add	r0, sp, #344	; 0x158
 800dfc4:	4410      	add	r0, r2
 800dfc6:	ad2e      	add	r5, sp, #184	; 0xb8
 800dfc8:	1d14      	adds	r4, r2, #4
 800dfca:	ed10 7a28 	vldr	s14, [r0, #-160]	; 0xffffff60
 800dfce:	442c      	add	r4, r5
 800dfd0:	18a8      	adds	r0, r5, r2
 800dfd2:	ed70 7a01 	vldmdb	r0!, {s15}
 800dfd6:	ee77 6a27 	vadd.f32	s13, s14, s15
 800dfda:	42a8      	cmp	r0, r5
 800dfdc:	ee77 7ae6 	vsub.f32	s15, s15, s13
 800dfe0:	ee77 7a27 	vadd.f32	s15, s14, s15
 800dfe4:	eeb0 7a66 	vmov.f32	s14, s13
 800dfe8:	ed64 7a01 	vstmdb	r4!, {s15}
 800dfec:	edc0 6a00 	vstr	s13, [r0]
 800dff0:	d1ef      	bne.n	800dfd2 <__kernel_rem_pio2f+0x52a>
 800dff2:	2b01      	cmp	r3, #1
 800dff4:	dd34      	ble.n	800e060 <__kernel_rem_pio2f+0x5b8>
 800dff6:	1d13      	adds	r3, r2, #4
 800dff8:	ac56      	add	r4, sp, #344	; 0x158
 800dffa:	4414      	add	r4, r2
 800dffc:	4403      	add	r3, r0
 800dffe:	ed14 7a28 	vldr	s14, [r4, #-160]	; 0xffffff60
 800e002:	4402      	add	r2, r0
 800e004:	ac2f      	add	r4, sp, #188	; 0xbc
 800e006:	4618      	mov	r0, r3
 800e008:	ed72 7a01 	vldmdb	r2!, {s15}
 800e00c:	ee77 6a87 	vadd.f32	s13, s15, s14
 800e010:	42a2      	cmp	r2, r4
 800e012:	ee77 7ae6 	vsub.f32	s15, s15, s13
 800e016:	ee77 7a87 	vadd.f32	s15, s15, s14
 800e01a:	eeb0 7a66 	vmov.f32	s14, s13
 800e01e:	ed60 7a01 	vstmdb	r0!, {s15}
 800e022:	edc2 6a00 	vstr	s13, [r2]
 800e026:	d1ef      	bne.n	800e008 <__kernel_rem_pio2f+0x560>
 800e028:	ed5f 7a82 	vldr	s15, [pc, #-520]	; 800de24 <__kernel_rem_pio2f+0x37c>
 800e02c:	aa30      	add	r2, sp, #192	; 0xc0
 800e02e:	ed33 7a01 	vldmdb	r3!, {s14}
 800e032:	4293      	cmp	r3, r2
 800e034:	ee77 7a87 	vadd.f32	s15, s15, s14
 800e038:	d1f9      	bne.n	800e02e <__kernel_rem_pio2f+0x586>
 800e03a:	b1a9      	cbz	r1, 800e068 <__kernel_rem_pio2f+0x5c0>
 800e03c:	eddd 6a2e 	vldr	s13, [sp, #184]	; 0xb8
 800e040:	ed9d 7a2f 	vldr	s14, [sp, #188]	; 0xbc
 800e044:	9a01      	ldr	r2, [sp, #4]
 800e046:	eef1 7a67 	vneg.f32	s15, s15
 800e04a:	eef1 6a66 	vneg.f32	s13, s13
 800e04e:	eeb1 7a47 	vneg.f32	s14, s14
 800e052:	edc2 7a02 	vstr	s15, [r2, #8]
 800e056:	edc2 6a00 	vstr	s13, [r2]
 800e05a:	ed82 7a01 	vstr	s14, [r2, #4]
 800e05e:	e75b      	b.n	800df18 <__kernel_rem_pio2f+0x470>
 800e060:	ed5f 7a90 	vldr	s15, [pc, #-576]	; 800de24 <__kernel_rem_pio2f+0x37c>
 800e064:	2900      	cmp	r1, #0
 800e066:	d1e9      	bne.n	800e03c <__kernel_rem_pio2f+0x594>
 800e068:	9801      	ldr	r0, [sp, #4]
 800e06a:	9a2e      	ldr	r2, [sp, #184]	; 0xb8
 800e06c:	9b2f      	ldr	r3, [sp, #188]	; 0xbc
 800e06e:	edc0 7a02 	vstr	s15, [r0, #8]
 800e072:	6002      	str	r2, [r0, #0]
 800e074:	6043      	str	r3, [r0, #4]
 800e076:	e74f      	b.n	800df18 <__kernel_rem_pio2f+0x470>
 800e078:	eebd 0ac0 	vcvt.s32.f32	s0, s0
 800e07c:	a806      	add	r0, sp, #24
 800e07e:	ee10 2a10 	vmov	r2, s0
 800e082:	4623      	mov	r3, r4
 800e084:	f840 2024 	str.w	r2, [r0, r4, lsl #2]
 800e088:	e692      	b.n	800ddb0 <__kernel_rem_pio2f+0x308>
$t():
 800e08a:	bf00      	nop

0800e08c <__kernel_sinf>:
__kernel_sinf():
 800e08c:	ee10 3a10 	vmov	r3, s0
 800e090:	f023 4300 	bic.w	r3, r3, #2147483648	; 0x80000000
 800e094:	f1b3 5f48 	cmp.w	r3, #838860800	; 0x32000000
 800e098:	da04      	bge.n	800e0a4 <__kernel_sinf+0x18>
 800e09a:	eefd 7ac0 	vcvt.s32.f32	s15, s0
 800e09e:	ee17 3a90 	vmov	r3, s15
 800e0a2:	b323      	cbz	r3, 800e0ee <__kernel_sinf+0x62>
 800e0a4:	ee60 7a00 	vmul.f32	s15, s0, s0
 800e0a8:	ed9f 5a15 	vldr	s10, [pc, #84]	; 800e100 <__kernel_sinf+0x74>
 800e0ac:	eddf 5a15 	vldr	s11, [pc, #84]	; 800e104 <__kernel_sinf+0x78>
 800e0b0:	ed9f 6a15 	vldr	s12, [pc, #84]	; 800e108 <__kernel_sinf+0x7c>
 800e0b4:	eddf 6a15 	vldr	s13, [pc, #84]	; 800e10c <__kernel_sinf+0x80>
 800e0b8:	ed9f 7a15 	vldr	s14, [pc, #84]	; 800e110 <__kernel_sinf+0x84>
 800e0bc:	eee7 5a85 	vfma.f32	s11, s15, s10
 800e0c0:	ee27 5a80 	vmul.f32	s10, s15, s0
 800e0c4:	eea5 6aa7 	vfma.f32	s12, s11, s15
 800e0c8:	eee6 6a27 	vfma.f32	s13, s12, s15
 800e0cc:	eea6 7aa7 	vfma.f32	s14, s13, s15
 800e0d0:	b170      	cbz	r0, 800e0f0 <__kernel_sinf+0x64>
 800e0d2:	ee27 7a45 	vnmul.f32	s14, s14, s10
 800e0d6:	eef6 6a00 	vmov.f32	s13, #96	; 0x60
 800e0da:	eea0 7aa6 	vfma.f32	s14, s1, s13
 800e0de:	eddf 6a0d 	vldr	s13, [pc, #52]	; 800e114 <__kernel_sinf+0x88>
 800e0e2:	eed7 0a27 	vfnms.f32	s1, s14, s15
 800e0e6:	eee5 0a26 	vfma.f32	s1, s10, s13
 800e0ea:	ee30 0a60 	vsub.f32	s0, s0, s1
 800e0ee:	4770      	bx	lr
 800e0f0:	eddf 6a09 	vldr	s13, [pc, #36]	; 800e118 <__kernel_sinf+0x8c>
 800e0f4:	eee7 6a87 	vfma.f32	s13, s15, s14
 800e0f8:	eea6 0a85 	vfma.f32	s0, s13, s10
 800e0fc:	4770      	bx	lr
 800e0fe:	bf00      	nop
 800e100:	2f2ec9d3 	.word	0x2f2ec9d3
 800e104:	b2d72f34 	.word	0xb2d72f34
 800e108:	3638ef1b 	.word	0x3638ef1b
 800e10c:	b9500d01 	.word	0xb9500d01
 800e110:	3c088889 	.word	0x3c088889
 800e114:	3e2aaaab 	.word	0x3e2aaaab
 800e118:	be2aaaab 	.word	0xbe2aaaab

0800e11c <matherr>:
matherr():
 800e11c:	2000      	movs	r0, #0
 800e11e:	4770      	bx	lr

0800e120 <rint>:
rint():
 800e120:	b5f0      	push	{r4, r5, r6, r7, lr}
 800e122:	ec51 0b10 	vmov	r0, r1, d0
 800e126:	f3c1 560a 	ubfx	r6, r1, #20, #11
 800e12a:	f2a6 32ff 	subw	r2, r6, #1023	; 0x3ff
 800e12e:	2a13      	cmp	r2, #19
 800e130:	b083      	sub	sp, #12
 800e132:	460b      	mov	r3, r1
 800e134:	ee10 7a10 	vmov	r7, s0
 800e138:	ea4f 74d1 	mov.w	r4, r1, lsr #31
 800e13c:	4605      	mov	r5, r0
 800e13e:	dc2f      	bgt.n	800e1a0 <rint+0x80>
 800e140:	2a00      	cmp	r2, #0
 800e142:	db48      	blt.n	800e1d6 <rint+0xb6>
 800e144:	4e3d      	ldr	r6, [pc, #244]	; (800e23c <rint+0x11c>)
 800e146:	4116      	asrs	r6, r2
 800e148:	ea06 0701 	and.w	r7, r6, r1
 800e14c:	4307      	orrs	r7, r0
 800e14e:	d02c      	beq.n	800e1aa <rint+0x8a>
 800e150:	0876      	lsrs	r6, r6, #1
 800e152:	4031      	ands	r1, r6
 800e154:	430d      	orrs	r5, r1
 800e156:	d00c      	beq.n	800e172 <rint+0x52>
 800e158:	f44f 2180 	mov.w	r1, #262144	; 0x40000
 800e15c:	2a13      	cmp	r2, #19
 800e15e:	ea23 0606 	bic.w	r6, r3, r6
 800e162:	fa41 f302 	asr.w	r3, r1, r2
 800e166:	ea43 0306 	orr.w	r3, r3, r6
 800e16a:	bf0c      	ite	eq
 800e16c:	f04f 4500 	moveq.w	r5, #2147483648	; 0x80000000
 800e170:	2500      	movne	r5, #0
 800e172:	4a33      	ldr	r2, [pc, #204]	; (800e240 <rint+0x120>)
 800e174:	eb02 04c4 	add.w	r4, r2, r4, lsl #3
 800e178:	4628      	mov	r0, r5
 800e17a:	e9d4 4500 	ldrd	r4, r5, [r4]
 800e17e:	4602      	mov	r2, r0
 800e180:	4629      	mov	r1, r5
 800e182:	4620      	mov	r0, r4
 800e184:	f7f2 f834 	bl	80001f0 <__adddf3>
 800e188:	e9cd 0100 	strd	r0, r1, [sp]
 800e18c:	4622      	mov	r2, r4
 800e18e:	462b      	mov	r3, r5
 800e190:	e9dd 0100 	ldrd	r0, r1, [sp]
 800e194:	f7f2 f82a 	bl	80001ec <__aeabi_dsub>
 800e198:	ec41 0b10 	vmov	d0, r0, r1
 800e19c:	b003      	add	sp, #12
 800e19e:	bdf0      	pop	{r4, r5, r6, r7, pc}
 800e1a0:	2a33      	cmp	r2, #51	; 0x33
 800e1a2:	dd06      	ble.n	800e1b2 <rint+0x92>
 800e1a4:	f5b2 6f80 	cmp.w	r2, #1024	; 0x400
 800e1a8:	d03f      	beq.n	800e22a <rint+0x10a>
 800e1aa:	ec41 0b10 	vmov	d0, r0, r1
 800e1ae:	b003      	add	sp, #12
 800e1b0:	bdf0      	pop	{r4, r5, r6, r7, pc}
 800e1b2:	f2a6 4613 	subw	r6, r6, #1043	; 0x413
 800e1b6:	f04f 32ff 	mov.w	r2, #4294967295
 800e1ba:	40f2      	lsrs	r2, r6
 800e1bc:	4202      	tst	r2, r0
 800e1be:	d0f4      	beq.n	800e1aa <rint+0x8a>
 800e1c0:	0852      	lsrs	r2, r2, #1
 800e1c2:	4202      	tst	r2, r0
 800e1c4:	d0d5      	beq.n	800e172 <rint+0x52>
 800e1c6:	f04f 4180 	mov.w	r1, #1073741824	; 0x40000000
 800e1ca:	ea27 0202 	bic.w	r2, r7, r2
 800e1ce:	fa41 f506 	asr.w	r5, r1, r6
 800e1d2:	4315      	orrs	r5, r2
 800e1d4:	e7cd      	b.n	800e172 <rint+0x52>
 800e1d6:	f021 4200 	bic.w	r2, r1, #2147483648	; 0x80000000
 800e1da:	4302      	orrs	r2, r0
 800e1dc:	d0e5      	beq.n	800e1aa <rint+0x8a>
 800e1de:	f3c1 0213 	ubfx	r2, r1, #0, #20
 800e1e2:	4317      	orrs	r7, r2
 800e1e4:	427a      	negs	r2, r7
 800e1e6:	4317      	orrs	r7, r2
 800e1e8:	4a15      	ldr	r2, [pc, #84]	; (800e240 <rint+0x120>)
 800e1ea:	0c4b      	lsrs	r3, r1, #17
 800e1ec:	0b3f      	lsrs	r7, r7, #12
 800e1ee:	045b      	lsls	r3, r3, #17
 800e1f0:	f407 2700 	and.w	r7, r7, #524288	; 0x80000
 800e1f4:	eb02 02c4 	add.w	r2, r2, r4, lsl #3
 800e1f8:	ea47 0103 	orr.w	r1, r7, r3
 800e1fc:	e9d2 6700 	ldrd	r6, r7, [r2]
 800e200:	460b      	mov	r3, r1
 800e202:	4602      	mov	r2, r0
 800e204:	4639      	mov	r1, r7
 800e206:	4630      	mov	r0, r6
 800e208:	f7f1 fff2 	bl	80001f0 <__adddf3>
 800e20c:	e9cd 0100 	strd	r0, r1, [sp]
 800e210:	463b      	mov	r3, r7
 800e212:	4632      	mov	r2, r6
 800e214:	e9dd 0100 	ldrd	r0, r1, [sp]
 800e218:	f7f1 ffe8 	bl	80001ec <__aeabi_dsub>
 800e21c:	f021 4300 	bic.w	r3, r1, #2147483648	; 0x80000000
 800e220:	ea43 71c4 	orr.w	r1, r3, r4, lsl #31
 800e224:	ec41 0b10 	vmov	d0, r0, r1
 800e228:	e7c1      	b.n	800e1ae <rint+0x8e>
 800e22a:	ee10 2a10 	vmov	r2, s0
 800e22e:	460b      	mov	r3, r1
 800e230:	f7f1 ffde 	bl	80001f0 <__adddf3>
 800e234:	ec41 0b10 	vmov	d0, r0, r1
 800e238:	e7b9      	b.n	800e1ae <rint+0x8e>
 800e23a:	bf00      	nop
 800e23c:	000fffff 	.word	0x000fffff
 800e240:	0801db40 	.word	0x0801db40

0800e244 <fabsf>:
fabsf():
 800e244:	ee10 3a10 	vmov	r3, s0
 800e248:	f023 4300 	bic.w	r3, r3, #2147483648	; 0x80000000
 800e24c:	ee00 3a10 	vmov	s0, r3
 800e250:	4770      	bx	lr
 800e252:	bf00      	nop

0800e254 <finitef>:
finitef():
 800e254:	ee10 3a10 	vmov	r3, s0
 800e258:	f023 4000 	bic.w	r0, r3, #2147483648	; 0x80000000
 800e25c:	f1b0 4fff 	cmp.w	r0, #2139095040	; 0x7f800000
 800e260:	bfac      	ite	ge
 800e262:	2000      	movge	r0, #0
 800e264:	2001      	movlt	r0, #1
 800e266:	4770      	bx	lr

0800e268 <__fpclassifyf>:
__fpclassifyf():
 800e268:	ee10 3a10 	vmov	r3, s0
 800e26c:	f033 4000 	bics.w	r0, r3, #2147483648	; 0x80000000
 800e270:	d101      	bne.n	800e276 <__fpclassifyf+0xe>
 800e272:	2002      	movs	r0, #2
 800e274:	4770      	bx	lr
 800e276:	f5a0 0300 	sub.w	r3, r0, #8388608	; 0x800000
 800e27a:	f1b3 4ffe 	cmp.w	r3, #2130706432	; 0x7f000000
 800e27e:	d201      	bcs.n	800e284 <__fpclassifyf+0x1c>
 800e280:	2004      	movs	r0, #4
 800e282:	4770      	bx	lr
 800e284:	4b05      	ldr	r3, [pc, #20]	; (800e29c <__fpclassifyf+0x34>)
 800e286:	1e42      	subs	r2, r0, #1
 800e288:	429a      	cmp	r2, r3
 800e28a:	d801      	bhi.n	800e290 <__fpclassifyf+0x28>
 800e28c:	2003      	movs	r0, #3
 800e28e:	4770      	bx	lr
 800e290:	f1a0 40ff 	sub.w	r0, r0, #2139095040	; 0x7f800000
 800e294:	fab0 f080 	clz	r0, r0
 800e298:	0940      	lsrs	r0, r0, #5
 800e29a:	4770      	bx	lr
 800e29c:	007ffffe 	.word	0x007ffffe

0800e2a0 <nanf>:
nanf():
 800e2a0:	ed9f 0a01 	vldr	s0, [pc, #4]	; 800e2a8 <nanf+0x8>
 800e2a4:	4770      	bx	lr
 800e2a6:	bf00      	nop
 800e2a8:	7fc00000 	.word	0x7fc00000

0800e2ac <scalbnf>:
scalbnf():
 800e2ac:	b508      	push	{r3, lr}
 800e2ae:	ee10 3a10 	vmov	r3, s0
 800e2b2:	f033 4200 	bics.w	r2, r3, #2147483648	; 0x80000000
 800e2b6:	ed2d 8b02 	vpush	{d8}
 800e2ba:	d011      	beq.n	800e2e0 <scalbnf+0x34>
 800e2bc:	f1b2 4fff 	cmp.w	r2, #2139095040	; 0x7f800000
 800e2c0:	d211      	bcs.n	800e2e6 <scalbnf+0x3a>
 800e2c2:	f5b2 0f00 	cmp.w	r2, #8388608	; 0x800000
 800e2c6:	d313      	bcc.n	800e2f0 <scalbnf+0x44>
 800e2c8:	0dd2      	lsrs	r2, r2, #23
 800e2ca:	4402      	add	r2, r0
 800e2cc:	2afe      	cmp	r2, #254	; 0xfe
 800e2ce:	dc2e      	bgt.n	800e32e <scalbnf+0x82>
 800e2d0:	2a00      	cmp	r2, #0
 800e2d2:	dd1a      	ble.n	800e30a <scalbnf+0x5e>
 800e2d4:	f023 43ff 	bic.w	r3, r3, #2139095040	; 0x7f800000
 800e2d8:	ea43 53c2 	orr.w	r3, r3, r2, lsl #23
 800e2dc:	ee00 3a10 	vmov	s0, r3
 800e2e0:	ecbd 8b02 	vpop	{d8}
 800e2e4:	bd08      	pop	{r3, pc}
 800e2e6:	ecbd 8b02 	vpop	{d8}
 800e2ea:	ee30 0a00 	vadd.f32	s0, s0, s0
 800e2ee:	bd08      	pop	{r3, pc}
 800e2f0:	4b1d      	ldr	r3, [pc, #116]	; (800e368 <scalbnf+0xbc>)
 800e2f2:	eddf 7a1e 	vldr	s15, [pc, #120]	; 800e36c <scalbnf+0xc0>
 800e2f6:	4298      	cmp	r0, r3
 800e2f8:	ee20 0a27 	vmul.f32	s0, s0, s15
 800e2fc:	db22      	blt.n	800e344 <scalbnf+0x98>
 800e2fe:	ee10 3a10 	vmov	r3, s0
 800e302:	f3c3 52c7 	ubfx	r2, r3, #23, #8
 800e306:	3a19      	subs	r2, #25
 800e308:	e7df      	b.n	800e2ca <scalbnf+0x1e>
 800e30a:	f112 0f16 	cmn.w	r2, #22
 800e30e:	da1e      	bge.n	800e34e <scalbnf+0xa2>
 800e310:	f24c 3350 	movw	r3, #50000	; 0xc350
 800e314:	4298      	cmp	r0, r3
 800e316:	dc0a      	bgt.n	800e32e <scalbnf+0x82>
 800e318:	ed9f 8a15 	vldr	s16, [pc, #84]	; 800e370 <scalbnf+0xc4>
 800e31c:	eef0 0a40 	vmov.f32	s1, s0
 800e320:	eeb0 0a48 	vmov.f32	s0, s16
 800e324:	f000 f82a 	bl	800e37c <copysignf>
 800e328:	ee20 0a08 	vmul.f32	s0, s0, s16
 800e32c:	e7d8      	b.n	800e2e0 <scalbnf+0x34>
 800e32e:	ed9f 8a11 	vldr	s16, [pc, #68]	; 800e374 <scalbnf+0xc8>
 800e332:	eef0 0a40 	vmov.f32	s1, s0
 800e336:	eeb0 0a48 	vmov.f32	s0, s16
 800e33a:	f000 f81f 	bl	800e37c <copysignf>
 800e33e:	ee20 0a08 	vmul.f32	s0, s0, s16
 800e342:	e7cd      	b.n	800e2e0 <scalbnf+0x34>
 800e344:	eddf 0a0a 	vldr	s1, [pc, #40]	; 800e370 <scalbnf+0xc4>
 800e348:	ee20 0a20 	vmul.f32	s0, s0, s1
 800e34c:	e7c8      	b.n	800e2e0 <scalbnf+0x34>
 800e34e:	3219      	adds	r2, #25
 800e350:	f023 43ff 	bic.w	r3, r3, #2139095040	; 0x7f800000
 800e354:	ea43 53c2 	orr.w	r3, r3, r2, lsl #23
 800e358:	eddf 7a07 	vldr	s15, [pc, #28]	; 800e378 <scalbnf+0xcc>
 800e35c:	ee00 3a10 	vmov	s0, r3
 800e360:	ee20 0a27 	vmul.f32	s0, s0, s15
 800e364:	e7bc      	b.n	800e2e0 <scalbnf+0x34>
 800e366:	bf00      	nop
 800e368:	ffff3cb0 	.word	0xffff3cb0
 800e36c:	4c000000 	.word	0x4c000000
 800e370:	0da24260 	.word	0x0da24260
 800e374:	7149f2ca 	.word	0x7149f2ca
 800e378:	33000000 	.word	0x33000000

0800e37c <copysignf>:
copysignf():
 800e37c:	ee10 3a10 	vmov	r3, s0
 800e380:	f023 4200 	bic.w	r2, r3, #2147483648	; 0x80000000
 800e384:	ee10 3a90 	vmov	r3, s1
 800e388:	f003 4300 	and.w	r3, r3, #2147483648	; 0x80000000
 800e38c:	4313      	orrs	r3, r2
 800e38e:	ee00 3a10 	vmov	s0, r3
 800e392:	4770      	bx	lr

0800e394 <__libc_init_array>:
__libc_init_array():
 800e394:	b570      	push	{r4, r5, r6, lr}
 800e396:	4e0f      	ldr	r6, [pc, #60]	; (800e3d4 <__libc_init_array+0x40>)
 800e398:	4d0f      	ldr	r5, [pc, #60]	; (800e3d8 <__libc_init_array+0x44>)
 800e39a:	1b76      	subs	r6, r6, r5
 800e39c:	10b6      	asrs	r6, r6, #2
 800e39e:	bf18      	it	ne
 800e3a0:	2400      	movne	r4, #0
 800e3a2:	d005      	beq.n	800e3b0 <__libc_init_array+0x1c>
 800e3a4:	3401      	adds	r4, #1
 800e3a6:	f855 3b04 	ldr.w	r3, [r5], #4
 800e3aa:	4798      	blx	r3
 800e3ac:	42a6      	cmp	r6, r4
 800e3ae:	d1f9      	bne.n	800e3a4 <__libc_init_array+0x10>
 800e3b0:	4e0a      	ldr	r6, [pc, #40]	; (800e3dc <__libc_init_array+0x48>)
 800e3b2:	4d0b      	ldr	r5, [pc, #44]	; (800e3e0 <__libc_init_array+0x4c>)
 800e3b4:	1b76      	subs	r6, r6, r5
 800e3b6:	f000 fced 	bl	800ed94 <_init>
 800e3ba:	10b6      	asrs	r6, r6, #2
 800e3bc:	bf18      	it	ne
 800e3be:	2400      	movne	r4, #0
 800e3c0:	d006      	beq.n	800e3d0 <__libc_init_array+0x3c>
 800e3c2:	3401      	adds	r4, #1
 800e3c4:	f855 3b04 	ldr.w	r3, [r5], #4
 800e3c8:	4798      	blx	r3
 800e3ca:	42a6      	cmp	r6, r4
 800e3cc:	d1f9      	bne.n	800e3c2 <__libc_init_array+0x2e>
 800e3ce:	bd70      	pop	{r4, r5, r6, pc}
 800e3d0:	bd70      	pop	{r4, r5, r6, pc}
 800e3d2:	bf00      	nop
 800e3d4:	0801db58 	.word	0x0801db58
 800e3d8:	0801db58 	.word	0x0801db58
 800e3dc:	0801db60 	.word	0x0801db60
 800e3e0:	0801db58 	.word	0x0801db58

0800e3e4 <malloc>:
malloc():
 800e3e4:	4b02      	ldr	r3, [pc, #8]	; (800e3f0 <malloc+0xc>)
 800e3e6:	4601      	mov	r1, r0
 800e3e8:	6818      	ldr	r0, [r3, #0]
 800e3ea:	f000 b80b 	b.w	800e404 <_malloc_r>
 800e3ee:	bf00      	nop
 800e3f0:	200004b0 	.word	0x200004b0

0800e3f4 <free>:
free():
 800e3f4:	4b02      	ldr	r3, [pc, #8]	; (800e400 <free+0xc>)
 800e3f6:	4601      	mov	r1, r0
 800e3f8:	6818      	ldr	r0, [r3, #0]
 800e3fa:	f000 bb93 	b.w	800eb24 <_free_r>
 800e3fe:	bf00      	nop
 800e400:	200004b0 	.word	0x200004b0

0800e404 <_malloc_r>:
_malloc_r():
 800e404:	e92d 4ff0 	stmdb	sp!, {r4, r5, r6, r7, r8, r9, sl, fp, lr}
 800e408:	f101 050b 	add.w	r5, r1, #11
 800e40c:	2d16      	cmp	r5, #22
 800e40e:	b083      	sub	sp, #12
 800e410:	4606      	mov	r6, r0
 800e412:	d927      	bls.n	800e464 <_malloc_r+0x60>
 800e414:	f035 0507 	bics.w	r5, r5, #7
 800e418:	f100 80b6 	bmi.w	800e588 <_malloc_r+0x184>
 800e41c:	42a9      	cmp	r1, r5
 800e41e:	f200 80b3 	bhi.w	800e588 <_malloc_r+0x184>
 800e422:	f000 facb 	bl	800e9bc <__malloc_lock>
 800e426:	f5b5 7ffc 	cmp.w	r5, #504	; 0x1f8
 800e42a:	d222      	bcs.n	800e472 <_malloc_r+0x6e>
 800e42c:	4fc2      	ldr	r7, [pc, #776]	; (800e738 <_malloc_r+0x334>)
 800e42e:	08e8      	lsrs	r0, r5, #3
 800e430:	eb07 03c0 	add.w	r3, r7, r0, lsl #3
 800e434:	68dc      	ldr	r4, [r3, #12]
 800e436:	429c      	cmp	r4, r3
 800e438:	f000 81c9 	beq.w	800e7ce <_malloc_r+0x3ca>
 800e43c:	6863      	ldr	r3, [r4, #4]
 800e43e:	68e1      	ldr	r1, [r4, #12]
 800e440:	68a5      	ldr	r5, [r4, #8]
 800e442:	f023 0303 	bic.w	r3, r3, #3
 800e446:	4423      	add	r3, r4
 800e448:	4630      	mov	r0, r6
 800e44a:	685a      	ldr	r2, [r3, #4]
 800e44c:	60e9      	str	r1, [r5, #12]
 800e44e:	f042 0201 	orr.w	r2, r2, #1
 800e452:	608d      	str	r5, [r1, #8]
 800e454:	605a      	str	r2, [r3, #4]
 800e456:	f000 fab3 	bl	800e9c0 <__malloc_unlock>
 800e45a:	3408      	adds	r4, #8
 800e45c:	4620      	mov	r0, r4
 800e45e:	b003      	add	sp, #12
 800e460:	e8bd 8ff0 	ldmia.w	sp!, {r4, r5, r6, r7, r8, r9, sl, fp, pc}
 800e464:	2910      	cmp	r1, #16
 800e466:	f200 808f 	bhi.w	800e588 <_malloc_r+0x184>
 800e46a:	f000 faa7 	bl	800e9bc <__malloc_lock>
 800e46e:	2510      	movs	r5, #16
 800e470:	e7dc      	b.n	800e42c <_malloc_r+0x28>
 800e472:	0a68      	lsrs	r0, r5, #9
 800e474:	f000 808f 	beq.w	800e596 <_malloc_r+0x192>
 800e478:	2804      	cmp	r0, #4
 800e47a:	f200 8154 	bhi.w	800e726 <_malloc_r+0x322>
 800e47e:	09a8      	lsrs	r0, r5, #6
 800e480:	3038      	adds	r0, #56	; 0x38
 800e482:	0041      	lsls	r1, r0, #1
 800e484:	4fac      	ldr	r7, [pc, #688]	; (800e738 <_malloc_r+0x334>)
 800e486:	eb07 0181 	add.w	r1, r7, r1, lsl #2
 800e48a:	68cc      	ldr	r4, [r1, #12]
 800e48c:	42a1      	cmp	r1, r4
 800e48e:	d106      	bne.n	800e49e <_malloc_r+0x9a>
 800e490:	e00c      	b.n	800e4ac <_malloc_r+0xa8>
 800e492:	2a00      	cmp	r2, #0
 800e494:	f280 8082 	bge.w	800e59c <_malloc_r+0x198>
 800e498:	68e4      	ldr	r4, [r4, #12]
 800e49a:	42a1      	cmp	r1, r4
 800e49c:	d006      	beq.n	800e4ac <_malloc_r+0xa8>
 800e49e:	6863      	ldr	r3, [r4, #4]
 800e4a0:	f023 0303 	bic.w	r3, r3, #3
 800e4a4:	1b5a      	subs	r2, r3, r5
 800e4a6:	2a0f      	cmp	r2, #15
 800e4a8:	ddf3      	ble.n	800e492 <_malloc_r+0x8e>
 800e4aa:	3801      	subs	r0, #1
 800e4ac:	3001      	adds	r0, #1
 800e4ae:	49a2      	ldr	r1, [pc, #648]	; (800e738 <_malloc_r+0x334>)
 800e4b0:	693c      	ldr	r4, [r7, #16]
 800e4b2:	f101 0e08 	add.w	lr, r1, #8
 800e4b6:	4574      	cmp	r4, lr
 800e4b8:	f000 817e 	beq.w	800e7b8 <_malloc_r+0x3b4>
 800e4bc:	6863      	ldr	r3, [r4, #4]
 800e4be:	f023 0303 	bic.w	r3, r3, #3
 800e4c2:	1b5a      	subs	r2, r3, r5
 800e4c4:	2a0f      	cmp	r2, #15
 800e4c6:	f300 8164 	bgt.w	800e792 <_malloc_r+0x38e>
 800e4ca:	2a00      	cmp	r2, #0
 800e4cc:	f8c1 e014 	str.w	lr, [r1, #20]
 800e4d0:	f8c1 e010 	str.w	lr, [r1, #16]
 800e4d4:	da73      	bge.n	800e5be <_malloc_r+0x1ba>
 800e4d6:	f5b3 7f00 	cmp.w	r3, #512	; 0x200
 800e4da:	f080 8139 	bcs.w	800e750 <_malloc_r+0x34c>
 800e4de:	08db      	lsrs	r3, r3, #3
 800e4e0:	eb01 08c3 	add.w	r8, r1, r3, lsl #3
 800e4e4:	ea4f 0ca3 	mov.w	ip, r3, asr #2
 800e4e8:	684a      	ldr	r2, [r1, #4]
 800e4ea:	f8d8 9008 	ldr.w	r9, [r8, #8]
 800e4ee:	f8c4 9008 	str.w	r9, [r4, #8]
 800e4f2:	2301      	movs	r3, #1
 800e4f4:	fa03 f30c 	lsl.w	r3, r3, ip
 800e4f8:	4313      	orrs	r3, r2
 800e4fa:	f8c4 800c 	str.w	r8, [r4, #12]
 800e4fe:	604b      	str	r3, [r1, #4]
 800e500:	f8c8 4008 	str.w	r4, [r8, #8]
 800e504:	f8c9 400c 	str.w	r4, [r9, #12]
 800e508:	1082      	asrs	r2, r0, #2
 800e50a:	2401      	movs	r4, #1
 800e50c:	4094      	lsls	r4, r2
 800e50e:	429c      	cmp	r4, r3
 800e510:	d862      	bhi.n	800e5d8 <_malloc_r+0x1d4>
 800e512:	4223      	tst	r3, r4
 800e514:	d106      	bne.n	800e524 <_malloc_r+0x120>
 800e516:	f020 0003 	bic.w	r0, r0, #3
 800e51a:	0064      	lsls	r4, r4, #1
 800e51c:	4223      	tst	r3, r4
 800e51e:	f100 0004 	add.w	r0, r0, #4
 800e522:	d0fa      	beq.n	800e51a <_malloc_r+0x116>
 800e524:	eb07 08c0 	add.w	r8, r7, r0, lsl #3
 800e528:	46c4      	mov	ip, r8
 800e52a:	4681      	mov	r9, r0
 800e52c:	f8dc 300c 	ldr.w	r3, [ip, #12]
 800e530:	459c      	cmp	ip, r3
 800e532:	d107      	bne.n	800e544 <_malloc_r+0x140>
 800e534:	e142      	b.n	800e7bc <_malloc_r+0x3b8>
 800e536:	2900      	cmp	r1, #0
 800e538:	f280 8152 	bge.w	800e7e0 <_malloc_r+0x3dc>
 800e53c:	68db      	ldr	r3, [r3, #12]
 800e53e:	459c      	cmp	ip, r3
 800e540:	f000 813c 	beq.w	800e7bc <_malloc_r+0x3b8>
 800e544:	685a      	ldr	r2, [r3, #4]
 800e546:	f022 0203 	bic.w	r2, r2, #3
 800e54a:	1b51      	subs	r1, r2, r5
 800e54c:	290f      	cmp	r1, #15
 800e54e:	ddf2      	ble.n	800e536 <_malloc_r+0x132>
 800e550:	461c      	mov	r4, r3
 800e552:	f8d3 c00c 	ldr.w	ip, [r3, #12]
 800e556:	f854 8f08 	ldr.w	r8, [r4, #8]!
 800e55a:	195a      	adds	r2, r3, r5
 800e55c:	f045 0901 	orr.w	r9, r5, #1
 800e560:	f041 0501 	orr.w	r5, r1, #1
 800e564:	f8c3 9004 	str.w	r9, [r3, #4]
 800e568:	4630      	mov	r0, r6
 800e56a:	f8c8 c00c 	str.w	ip, [r8, #12]
 800e56e:	f8cc 8008 	str.w	r8, [ip, #8]
 800e572:	617a      	str	r2, [r7, #20]
 800e574:	613a      	str	r2, [r7, #16]
 800e576:	f8c2 e00c 	str.w	lr, [r2, #12]
 800e57a:	f8c2 e008 	str.w	lr, [r2, #8]
 800e57e:	6055      	str	r5, [r2, #4]
 800e580:	5051      	str	r1, [r2, r1]
 800e582:	f000 fa1d 	bl	800e9c0 <__malloc_unlock>
 800e586:	e769      	b.n	800e45c <_malloc_r+0x58>
 800e588:	2400      	movs	r4, #0
 800e58a:	230c      	movs	r3, #12
 800e58c:	4620      	mov	r0, r4
 800e58e:	6033      	str	r3, [r6, #0]
 800e590:	b003      	add	sp, #12
 800e592:	e8bd 8ff0 	ldmia.w	sp!, {r4, r5, r6, r7, r8, r9, sl, fp, pc}
 800e596:	217e      	movs	r1, #126	; 0x7e
 800e598:	203f      	movs	r0, #63	; 0x3f
 800e59a:	e773      	b.n	800e484 <_malloc_r+0x80>
 800e59c:	4423      	add	r3, r4
 800e59e:	68e1      	ldr	r1, [r4, #12]
 800e5a0:	685a      	ldr	r2, [r3, #4]
 800e5a2:	68a5      	ldr	r5, [r4, #8]
 800e5a4:	f042 0201 	orr.w	r2, r2, #1
 800e5a8:	60e9      	str	r1, [r5, #12]
 800e5aa:	4630      	mov	r0, r6
 800e5ac:	608d      	str	r5, [r1, #8]
 800e5ae:	605a      	str	r2, [r3, #4]
 800e5b0:	f000 fa06 	bl	800e9c0 <__malloc_unlock>
 800e5b4:	3408      	adds	r4, #8
 800e5b6:	4620      	mov	r0, r4
 800e5b8:	b003      	add	sp, #12
 800e5ba:	e8bd 8ff0 	ldmia.w	sp!, {r4, r5, r6, r7, r8, r9, sl, fp, pc}
 800e5be:	4423      	add	r3, r4
 800e5c0:	4630      	mov	r0, r6
 800e5c2:	685a      	ldr	r2, [r3, #4]
 800e5c4:	f042 0201 	orr.w	r2, r2, #1
 800e5c8:	605a      	str	r2, [r3, #4]
 800e5ca:	f000 f9f9 	bl	800e9c0 <__malloc_unlock>
 800e5ce:	3408      	adds	r4, #8
 800e5d0:	4620      	mov	r0, r4
 800e5d2:	b003      	add	sp, #12
 800e5d4:	e8bd 8ff0 	ldmia.w	sp!, {r4, r5, r6, r7, r8, r9, sl, fp, pc}
 800e5d8:	68bc      	ldr	r4, [r7, #8]
 800e5da:	6863      	ldr	r3, [r4, #4]
 800e5dc:	f023 0803 	bic.w	r8, r3, #3
 800e5e0:	4545      	cmp	r5, r8
 800e5e2:	d804      	bhi.n	800e5ee <_malloc_r+0x1ea>
 800e5e4:	ebc5 0308 	rsb	r3, r5, r8
 800e5e8:	2b0f      	cmp	r3, #15
 800e5ea:	f300 808c 	bgt.w	800e706 <_malloc_r+0x302>
 800e5ee:	4b53      	ldr	r3, [pc, #332]	; (800e73c <_malloc_r+0x338>)
 800e5f0:	f8df a158 	ldr.w	sl, [pc, #344]	; 800e74c <_malloc_r+0x348>
 800e5f4:	681a      	ldr	r2, [r3, #0]
 800e5f6:	f8da 3000 	ldr.w	r3, [sl]
 800e5fa:	3301      	adds	r3, #1
 800e5fc:	442a      	add	r2, r5
 800e5fe:	eb04 0b08 	add.w	fp, r4, r8
 800e602:	f000 8150 	beq.w	800e8a6 <_malloc_r+0x4a2>
 800e606:	f502 5280 	add.w	r2, r2, #4096	; 0x1000
 800e60a:	320f      	adds	r2, #15
 800e60c:	f422 627f 	bic.w	r2, r2, #4080	; 0xff0
 800e610:	f022 020f 	bic.w	r2, r2, #15
 800e614:	4611      	mov	r1, r2
 800e616:	4630      	mov	r0, r6
 800e618:	9201      	str	r2, [sp, #4]
 800e61a:	f000 f9fd 	bl	800ea18 <_sbrk_r>
 800e61e:	f1b0 3fff 	cmp.w	r0, #4294967295
 800e622:	4681      	mov	r9, r0
 800e624:	9a01      	ldr	r2, [sp, #4]
 800e626:	f000 80f5 	beq.w	800e814 <_malloc_r+0x410>
 800e62a:	4583      	cmp	fp, r0
 800e62c:	f200 80ef 	bhi.w	800e80e <_malloc_r+0x40a>
 800e630:	4b43      	ldr	r3, [pc, #268]	; (800e740 <_malloc_r+0x33c>)
 800e632:	6819      	ldr	r1, [r3, #0]
 800e634:	45cb      	cmp	fp, r9
 800e636:	4411      	add	r1, r2
 800e638:	6019      	str	r1, [r3, #0]
 800e63a:	f000 813d 	beq.w	800e8b8 <_malloc_r+0x4b4>
 800e63e:	f8da 0000 	ldr.w	r0, [sl]
 800e642:	f8df e108 	ldr.w	lr, [pc, #264]	; 800e74c <_malloc_r+0x348>
 800e646:	3001      	adds	r0, #1
 800e648:	bf1b      	ittet	ne
 800e64a:	ebcb 0b09 	rsbne	fp, fp, r9
 800e64e:	4459      	addne	r1, fp
 800e650:	f8ce 9000 	streq.w	r9, [lr]
 800e654:	6019      	strne	r1, [r3, #0]
 800e656:	f019 0107 	ands.w	r1, r9, #7
 800e65a:	f000 8107 	beq.w	800e86c <_malloc_r+0x468>
 800e65e:	f1c1 0008 	rsb	r0, r1, #8
 800e662:	f5c1 5180 	rsb	r1, r1, #4096	; 0x1000
 800e666:	4481      	add	r9, r0
 800e668:	3108      	adds	r1, #8
 800e66a:	444a      	add	r2, r9
 800e66c:	f3c2 020b 	ubfx	r2, r2, #0, #12
 800e670:	ebc2 0a01 	rsb	sl, r2, r1
 800e674:	4651      	mov	r1, sl
 800e676:	4630      	mov	r0, r6
 800e678:	9301      	str	r3, [sp, #4]
 800e67a:	f000 f9cd 	bl	800ea18 <_sbrk_r>
 800e67e:	1c43      	adds	r3, r0, #1
 800e680:	9b01      	ldr	r3, [sp, #4]
 800e682:	f000 8127 	beq.w	800e8d4 <_malloc_r+0x4d0>
 800e686:	ebc9 0200 	rsb	r2, r9, r0
 800e68a:	4452      	add	r2, sl
 800e68c:	f042 0201 	orr.w	r2, r2, #1
 800e690:	6819      	ldr	r1, [r3, #0]
 800e692:	f8c7 9008 	str.w	r9, [r7, #8]
 800e696:	4451      	add	r1, sl
 800e698:	42bc      	cmp	r4, r7
 800e69a:	f8c9 2004 	str.w	r2, [r9, #4]
 800e69e:	6019      	str	r1, [r3, #0]
 800e6a0:	f8df a09c 	ldr.w	sl, [pc, #156]	; 800e740 <_malloc_r+0x33c>
 800e6a4:	d016      	beq.n	800e6d4 <_malloc_r+0x2d0>
 800e6a6:	f1b8 0f0f 	cmp.w	r8, #15
 800e6aa:	f240 80e2 	bls.w	800e872 <_malloc_r+0x46e>
 800e6ae:	6862      	ldr	r2, [r4, #4]
 800e6b0:	f1a8 030c 	sub.w	r3, r8, #12
 800e6b4:	f023 0307 	bic.w	r3, r3, #7
 800e6b8:	18e0      	adds	r0, r4, r3
 800e6ba:	f002 0201 	and.w	r2, r2, #1
 800e6be:	f04f 0e05 	mov.w	lr, #5
 800e6c2:	431a      	orrs	r2, r3
 800e6c4:	2b0f      	cmp	r3, #15
 800e6c6:	6062      	str	r2, [r4, #4]
 800e6c8:	f8c0 e004 	str.w	lr, [r0, #4]
 800e6cc:	f8c0 e008 	str.w	lr, [r0, #8]
 800e6d0:	f200 8104 	bhi.w	800e8dc <_malloc_r+0x4d8>
 800e6d4:	4b1b      	ldr	r3, [pc, #108]	; (800e744 <_malloc_r+0x340>)
 800e6d6:	68bc      	ldr	r4, [r7, #8]
 800e6d8:	681a      	ldr	r2, [r3, #0]
 800e6da:	4291      	cmp	r1, r2
 800e6dc:	bf88      	it	hi
 800e6de:	6019      	strhi	r1, [r3, #0]
 800e6e0:	4b19      	ldr	r3, [pc, #100]	; (800e748 <_malloc_r+0x344>)
 800e6e2:	681a      	ldr	r2, [r3, #0]
 800e6e4:	4291      	cmp	r1, r2
 800e6e6:	6862      	ldr	r2, [r4, #4]
 800e6e8:	bf88      	it	hi
 800e6ea:	6019      	strhi	r1, [r3, #0]
 800e6ec:	f022 0203 	bic.w	r2, r2, #3
 800e6f0:	4295      	cmp	r5, r2
 800e6f2:	eba2 0305 	sub.w	r3, r2, r5
 800e6f6:	d801      	bhi.n	800e6fc <_malloc_r+0x2f8>
 800e6f8:	2b0f      	cmp	r3, #15
 800e6fa:	dc04      	bgt.n	800e706 <_malloc_r+0x302>
 800e6fc:	4630      	mov	r0, r6
 800e6fe:	f000 f95f 	bl	800e9c0 <__malloc_unlock>
 800e702:	2400      	movs	r4, #0
 800e704:	e6aa      	b.n	800e45c <_malloc_r+0x58>
 800e706:	1962      	adds	r2, r4, r5
 800e708:	f043 0301 	orr.w	r3, r3, #1
 800e70c:	f045 0501 	orr.w	r5, r5, #1
 800e710:	6065      	str	r5, [r4, #4]
 800e712:	4630      	mov	r0, r6
 800e714:	60ba      	str	r2, [r7, #8]
 800e716:	6053      	str	r3, [r2, #4]
 800e718:	f000 f952 	bl	800e9c0 <__malloc_unlock>
 800e71c:	3408      	adds	r4, #8
 800e71e:	4620      	mov	r0, r4
 800e720:	b003      	add	sp, #12
 800e722:	e8bd 8ff0 	ldmia.w	sp!, {r4, r5, r6, r7, r8, r9, sl, fp, pc}
 800e726:	2814      	cmp	r0, #20
 800e728:	d969      	bls.n	800e7fe <_malloc_r+0x3fa>
 800e72a:	2854      	cmp	r0, #84	; 0x54
 800e72c:	f200 8097 	bhi.w	800e85e <_malloc_r+0x45a>
 800e730:	0b28      	lsrs	r0, r5, #12
 800e732:	306e      	adds	r0, #110	; 0x6e
 800e734:	0041      	lsls	r1, r0, #1
 800e736:	e6a5      	b.n	800e484 <_malloc_r+0x80>
 800e738:	200004b4 	.word	0x200004b4
 800e73c:	2001deac 	.word	0x2001deac
 800e740:	2001deb0 	.word	0x2001deb0
 800e744:	2001dea8 	.word	0x2001dea8
 800e748:	2001dea4 	.word	0x2001dea4
 800e74c:	200008c0 	.word	0x200008c0
 800e750:	0a5a      	lsrs	r2, r3, #9
 800e752:	2a04      	cmp	r2, #4
 800e754:	d956      	bls.n	800e804 <_malloc_r+0x400>
 800e756:	2a14      	cmp	r2, #20
 800e758:	f200 80a7 	bhi.w	800e8aa <_malloc_r+0x4a6>
 800e75c:	325b      	adds	r2, #91	; 0x5b
 800e75e:	ea4f 0c42 	mov.w	ip, r2, lsl #1
 800e762:	eb07 0c8c 	add.w	ip, r7, ip, lsl #2
 800e766:	f8df 81b4 	ldr.w	r8, [pc, #436]	; 800e91c <_malloc_r+0x518>
 800e76a:	f8dc 1008 	ldr.w	r1, [ip, #8]
 800e76e:	4561      	cmp	r1, ip
 800e770:	f000 8085 	beq.w	800e87e <_malloc_r+0x47a>
 800e774:	684a      	ldr	r2, [r1, #4]
 800e776:	f022 0203 	bic.w	r2, r2, #3
 800e77a:	4293      	cmp	r3, r2
 800e77c:	d202      	bcs.n	800e784 <_malloc_r+0x380>
 800e77e:	6889      	ldr	r1, [r1, #8]
 800e780:	458c      	cmp	ip, r1
 800e782:	d1f7      	bne.n	800e774 <_malloc_r+0x370>
 800e784:	68ca      	ldr	r2, [r1, #12]
 800e786:	687b      	ldr	r3, [r7, #4]
 800e788:	60e2      	str	r2, [r4, #12]
 800e78a:	60a1      	str	r1, [r4, #8]
 800e78c:	6094      	str	r4, [r2, #8]
 800e78e:	60cc      	str	r4, [r1, #12]
 800e790:	e6ba      	b.n	800e508 <_malloc_r+0x104>
 800e792:	1963      	adds	r3, r4, r5
 800e794:	f042 0701 	orr.w	r7, r2, #1
 800e798:	f045 0501 	orr.w	r5, r5, #1
 800e79c:	6065      	str	r5, [r4, #4]
 800e79e:	4630      	mov	r0, r6
 800e7a0:	614b      	str	r3, [r1, #20]
 800e7a2:	610b      	str	r3, [r1, #16]
 800e7a4:	f8c3 e00c 	str.w	lr, [r3, #12]
 800e7a8:	f8c3 e008 	str.w	lr, [r3, #8]
 800e7ac:	605f      	str	r7, [r3, #4]
 800e7ae:	509a      	str	r2, [r3, r2]
 800e7b0:	3408      	adds	r4, #8
 800e7b2:	f000 f905 	bl	800e9c0 <__malloc_unlock>
 800e7b6:	e651      	b.n	800e45c <_malloc_r+0x58>
 800e7b8:	684b      	ldr	r3, [r1, #4]
 800e7ba:	e6a5      	b.n	800e508 <_malloc_r+0x104>
 800e7bc:	f109 0901 	add.w	r9, r9, #1
 800e7c0:	f019 0f03 	tst.w	r9, #3
 800e7c4:	f10c 0c08 	add.w	ip, ip, #8
 800e7c8:	f47f aeb0 	bne.w	800e52c <_malloc_r+0x128>
 800e7cc:	e02b      	b.n	800e826 <_malloc_r+0x422>
 800e7ce:	f104 0308 	add.w	r3, r4, #8
 800e7d2:	6964      	ldr	r4, [r4, #20]
 800e7d4:	42a3      	cmp	r3, r4
 800e7d6:	bf08      	it	eq
 800e7d8:	3002      	addeq	r0, #2
 800e7da:	f43f ae68 	beq.w	800e4ae <_malloc_r+0xaa>
 800e7de:	e62d      	b.n	800e43c <_malloc_r+0x38>
 800e7e0:	441a      	add	r2, r3
 800e7e2:	461c      	mov	r4, r3
 800e7e4:	6851      	ldr	r1, [r2, #4]
 800e7e6:	68db      	ldr	r3, [r3, #12]
 800e7e8:	f854 5f08 	ldr.w	r5, [r4, #8]!
 800e7ec:	f041 0101 	orr.w	r1, r1, #1
 800e7f0:	6051      	str	r1, [r2, #4]
 800e7f2:	4630      	mov	r0, r6
 800e7f4:	60eb      	str	r3, [r5, #12]
 800e7f6:	609d      	str	r5, [r3, #8]
 800e7f8:	f000 f8e2 	bl	800e9c0 <__malloc_unlock>
 800e7fc:	e62e      	b.n	800e45c <_malloc_r+0x58>
 800e7fe:	305b      	adds	r0, #91	; 0x5b
 800e800:	0041      	lsls	r1, r0, #1
 800e802:	e63f      	b.n	800e484 <_malloc_r+0x80>
 800e804:	099a      	lsrs	r2, r3, #6
 800e806:	3238      	adds	r2, #56	; 0x38
 800e808:	ea4f 0c42 	mov.w	ip, r2, lsl #1
 800e80c:	e7a9      	b.n	800e762 <_malloc_r+0x35e>
 800e80e:	42bc      	cmp	r4, r7
 800e810:	f43f af0e 	beq.w	800e630 <_malloc_r+0x22c>
 800e814:	68bc      	ldr	r4, [r7, #8]
 800e816:	6862      	ldr	r2, [r4, #4]
 800e818:	f022 0203 	bic.w	r2, r2, #3
 800e81c:	e768      	b.n	800e6f0 <_malloc_r+0x2ec>
 800e81e:	f8d8 8000 	ldr.w	r8, [r8]
 800e822:	4598      	cmp	r8, r3
 800e824:	d177      	bne.n	800e916 <_malloc_r+0x512>
 800e826:	f010 0f03 	tst.w	r0, #3
 800e82a:	f1a8 0308 	sub.w	r3, r8, #8
 800e82e:	f100 30ff 	add.w	r0, r0, #4294967295
 800e832:	d1f4      	bne.n	800e81e <_malloc_r+0x41a>
 800e834:	687b      	ldr	r3, [r7, #4]
 800e836:	ea23 0304 	bic.w	r3, r3, r4
 800e83a:	607b      	str	r3, [r7, #4]
 800e83c:	0064      	lsls	r4, r4, #1
 800e83e:	429c      	cmp	r4, r3
 800e840:	f63f aeca 	bhi.w	800e5d8 <_malloc_r+0x1d4>
 800e844:	2c00      	cmp	r4, #0
 800e846:	f43f aec7 	beq.w	800e5d8 <_malloc_r+0x1d4>
 800e84a:	4223      	tst	r3, r4
 800e84c:	4648      	mov	r0, r9
 800e84e:	f47f ae69 	bne.w	800e524 <_malloc_r+0x120>
 800e852:	0064      	lsls	r4, r4, #1
 800e854:	4223      	tst	r3, r4
 800e856:	f100 0004 	add.w	r0, r0, #4
 800e85a:	d0fa      	beq.n	800e852 <_malloc_r+0x44e>
 800e85c:	e662      	b.n	800e524 <_malloc_r+0x120>
 800e85e:	f5b0 7faa 	cmp.w	r0, #340	; 0x154
 800e862:	d818      	bhi.n	800e896 <_malloc_r+0x492>
 800e864:	0be8      	lsrs	r0, r5, #15
 800e866:	3077      	adds	r0, #119	; 0x77
 800e868:	0041      	lsls	r1, r0, #1
 800e86a:	e60b      	b.n	800e484 <_malloc_r+0x80>
 800e86c:	f44f 5180 	mov.w	r1, #4096	; 0x1000
 800e870:	e6fb      	b.n	800e66a <_malloc_r+0x266>
 800e872:	2301      	movs	r3, #1
 800e874:	f8c9 3004 	str.w	r3, [r9, #4]
 800e878:	464c      	mov	r4, r9
 800e87a:	2200      	movs	r2, #0
 800e87c:	e738      	b.n	800e6f0 <_malloc_r+0x2ec>
 800e87e:	f8d8 3004 	ldr.w	r3, [r8, #4]
 800e882:	1092      	asrs	r2, r2, #2
 800e884:	f04f 0c01 	mov.w	ip, #1
 800e888:	fa0c f202 	lsl.w	r2, ip, r2
 800e88c:	4313      	orrs	r3, r2
 800e88e:	f8c8 3004 	str.w	r3, [r8, #4]
 800e892:	460a      	mov	r2, r1
 800e894:	e778      	b.n	800e788 <_malloc_r+0x384>
 800e896:	f240 5354 	movw	r3, #1364	; 0x554
 800e89a:	4298      	cmp	r0, r3
 800e89c:	d817      	bhi.n	800e8ce <_malloc_r+0x4ca>
 800e89e:	0ca8      	lsrs	r0, r5, #18
 800e8a0:	307c      	adds	r0, #124	; 0x7c
 800e8a2:	0041      	lsls	r1, r0, #1
 800e8a4:	e5ee      	b.n	800e484 <_malloc_r+0x80>
 800e8a6:	3210      	adds	r2, #16
 800e8a8:	e6b4      	b.n	800e614 <_malloc_r+0x210>
 800e8aa:	2a54      	cmp	r2, #84	; 0x54
 800e8ac:	d81e      	bhi.n	800e8ec <_malloc_r+0x4e8>
 800e8ae:	0b1a      	lsrs	r2, r3, #12
 800e8b0:	326e      	adds	r2, #110	; 0x6e
 800e8b2:	ea4f 0c42 	mov.w	ip, r2, lsl #1
 800e8b6:	e754      	b.n	800e762 <_malloc_r+0x35e>
 800e8b8:	f3cb 000b 	ubfx	r0, fp, #0, #12
 800e8bc:	2800      	cmp	r0, #0
 800e8be:	f47f aebe 	bne.w	800e63e <_malloc_r+0x23a>
 800e8c2:	4442      	add	r2, r8
 800e8c4:	68bb      	ldr	r3, [r7, #8]
 800e8c6:	f042 0201 	orr.w	r2, r2, #1
 800e8ca:	605a      	str	r2, [r3, #4]
 800e8cc:	e702      	b.n	800e6d4 <_malloc_r+0x2d0>
 800e8ce:	21fc      	movs	r1, #252	; 0xfc
 800e8d0:	207e      	movs	r0, #126	; 0x7e
 800e8d2:	e5d7      	b.n	800e484 <_malloc_r+0x80>
 800e8d4:	2201      	movs	r2, #1
 800e8d6:	f04f 0a00 	mov.w	sl, #0
 800e8da:	e6d9      	b.n	800e690 <_malloc_r+0x28c>
 800e8dc:	f104 0108 	add.w	r1, r4, #8
 800e8e0:	4630      	mov	r0, r6
 800e8e2:	f000 f91f 	bl	800eb24 <_free_r>
 800e8e6:	f8da 1000 	ldr.w	r1, [sl]
 800e8ea:	e6f3      	b.n	800e6d4 <_malloc_r+0x2d0>
 800e8ec:	f5b2 7faa 	cmp.w	r2, #340	; 0x154
 800e8f0:	d804      	bhi.n	800e8fc <_malloc_r+0x4f8>
 800e8f2:	0bda      	lsrs	r2, r3, #15
 800e8f4:	3277      	adds	r2, #119	; 0x77
 800e8f6:	ea4f 0c42 	mov.w	ip, r2, lsl #1
 800e8fa:	e732      	b.n	800e762 <_malloc_r+0x35e>
 800e8fc:	f240 5154 	movw	r1, #1364	; 0x554
 800e900:	428a      	cmp	r2, r1
 800e902:	d804      	bhi.n	800e90e <_malloc_r+0x50a>
 800e904:	0c9a      	lsrs	r2, r3, #18
 800e906:	327c      	adds	r2, #124	; 0x7c
 800e908:	ea4f 0c42 	mov.w	ip, r2, lsl #1
 800e90c:	e729      	b.n	800e762 <_malloc_r+0x35e>
 800e90e:	f04f 0cfc 	mov.w	ip, #252	; 0xfc
 800e912:	227e      	movs	r2, #126	; 0x7e
 800e914:	e725      	b.n	800e762 <_malloc_r+0x35e>
 800e916:	687b      	ldr	r3, [r7, #4]
 800e918:	e790      	b.n	800e83c <_malloc_r+0x438>
 800e91a:	bf00      	nop
 800e91c:	200004b4 	.word	0x200004b4

0800e920 <memset>:
memset():
 800e920:	b470      	push	{r4, r5, r6}
 800e922:	0784      	lsls	r4, r0, #30
 800e924:	d046      	beq.n	800e9b4 <memset+0x94>
 800e926:	1e54      	subs	r4, r2, #1
 800e928:	2a00      	cmp	r2, #0
 800e92a:	d041      	beq.n	800e9b0 <memset+0x90>
 800e92c:	b2cd      	uxtb	r5, r1
 800e92e:	4603      	mov	r3, r0
 800e930:	e002      	b.n	800e938 <memset+0x18>
 800e932:	1e62      	subs	r2, r4, #1
 800e934:	b3e4      	cbz	r4, 800e9b0 <memset+0x90>
 800e936:	4614      	mov	r4, r2
 800e938:	f803 5b01 	strb.w	r5, [r3], #1
 800e93c:	079a      	lsls	r2, r3, #30
 800e93e:	d1f8      	bne.n	800e932 <memset+0x12>
 800e940:	2c03      	cmp	r4, #3
 800e942:	d92e      	bls.n	800e9a2 <memset+0x82>
 800e944:	b2cd      	uxtb	r5, r1
 800e946:	ea45 2505 	orr.w	r5, r5, r5, lsl #8
 800e94a:	2c0f      	cmp	r4, #15
 800e94c:	ea45 4505 	orr.w	r5, r5, r5, lsl #16
 800e950:	d919      	bls.n	800e986 <memset+0x66>
 800e952:	f103 0210 	add.w	r2, r3, #16
 800e956:	4626      	mov	r6, r4
 800e958:	3e10      	subs	r6, #16
 800e95a:	2e0f      	cmp	r6, #15
 800e95c:	f842 5c10 	str.w	r5, [r2, #-16]
 800e960:	f842 5c0c 	str.w	r5, [r2, #-12]
 800e964:	f842 5c08 	str.w	r5, [r2, #-8]
 800e968:	f842 5c04 	str.w	r5, [r2, #-4]
 800e96c:	f102 0210 	add.w	r2, r2, #16
 800e970:	d8f2      	bhi.n	800e958 <memset+0x38>
 800e972:	f1a4 0210 	sub.w	r2, r4, #16
 800e976:	f022 020f 	bic.w	r2, r2, #15
 800e97a:	f004 040f 	and.w	r4, r4, #15
 800e97e:	3210      	adds	r2, #16
 800e980:	2c03      	cmp	r4, #3
 800e982:	4413      	add	r3, r2
 800e984:	d90d      	bls.n	800e9a2 <memset+0x82>
 800e986:	461e      	mov	r6, r3
 800e988:	4622      	mov	r2, r4
 800e98a:	3a04      	subs	r2, #4
 800e98c:	2a03      	cmp	r2, #3
 800e98e:	f846 5b04 	str.w	r5, [r6], #4
 800e992:	d8fa      	bhi.n	800e98a <memset+0x6a>
 800e994:	1f22      	subs	r2, r4, #4
 800e996:	f022 0203 	bic.w	r2, r2, #3
 800e99a:	3204      	adds	r2, #4
 800e99c:	4413      	add	r3, r2
 800e99e:	f004 0403 	and.w	r4, r4, #3
 800e9a2:	b12c      	cbz	r4, 800e9b0 <memset+0x90>
 800e9a4:	b2c9      	uxtb	r1, r1
 800e9a6:	441c      	add	r4, r3
 800e9a8:	f803 1b01 	strb.w	r1, [r3], #1
 800e9ac:	42a3      	cmp	r3, r4
 800e9ae:	d1fb      	bne.n	800e9a8 <memset+0x88>
 800e9b0:	bc70      	pop	{r4, r5, r6}
 800e9b2:	4770      	bx	lr
 800e9b4:	4614      	mov	r4, r2
 800e9b6:	4603      	mov	r3, r0
 800e9b8:	e7c2      	b.n	800e940 <memset+0x20>
 800e9ba:	bf00      	nop

0800e9bc <__malloc_lock>:
__malloc_lock():
 800e9bc:	4770      	bx	lr
 800e9be:	bf00      	nop

0800e9c0 <__malloc_unlock>:
__malloc_unlock():
 800e9c0:	4770      	bx	lr
 800e9c2:	bf00      	nop

0800e9c4 <srand>:
srand():
 800e9c4:	4b03      	ldr	r3, [pc, #12]	; (800e9d4 <srand+0x10>)
 800e9c6:	681b      	ldr	r3, [r3, #0]
 800e9c8:	2200      	movs	r2, #0
 800e9ca:	f8c3 00a8 	str.w	r0, [r3, #168]	; 0xa8
 800e9ce:	f8c3 20ac 	str.w	r2, [r3, #172]	; 0xac
 800e9d2:	4770      	bx	lr
 800e9d4:	200004b0 	.word	0x200004b0

0800e9d8 <rand>:
rand():
 800e9d8:	b410      	push	{r4}
 800e9da:	4b0c      	ldr	r3, [pc, #48]	; (800ea0c <rand+0x34>)
 800e9dc:	4c0c      	ldr	r4, [pc, #48]	; (800ea10 <rand+0x38>)
 800e9de:	6819      	ldr	r1, [r3, #0]
 800e9e0:	4a0c      	ldr	r2, [pc, #48]	; (800ea14 <rand+0x3c>)
 800e9e2:	f8d1 30a8 	ldr.w	r3, [r1, #168]	; 0xa8
 800e9e6:	f8d1 00ac 	ldr.w	r0, [r1, #172]	; 0xac
 800e9ea:	fb04 f403 	mul.w	r4, r4, r3
 800e9ee:	fb02 4000 	mla	r0, r2, r0, r4
 800e9f2:	fba3 2302 	umull	r2, r3, r3, r2
 800e9f6:	4403      	add	r3, r0
 800e9f8:	3201      	adds	r2, #1
 800e9fa:	f143 0300 	adc.w	r3, r3, #0
 800e9fe:	e9c1 232a 	strd	r2, r3, [r1, #168]	; 0xa8
 800ea02:	f023 4000 	bic.w	r0, r3, #2147483648	; 0x80000000
 800ea06:	f85d 4b04 	ldr.w	r4, [sp], #4
 800ea0a:	4770      	bx	lr
 800ea0c:	200004b0 	.word	0x200004b0
 800ea10:	5851f42d 	.word	0x5851f42d
 800ea14:	4c957f2d 	.word	0x4c957f2d

0800ea18 <_sbrk_r>:
_sbrk_r():
 800ea18:	b538      	push	{r3, r4, r5, lr}
 800ea1a:	4c07      	ldr	r4, [pc, #28]	; (800ea38 <_sbrk_r+0x20>)
 800ea1c:	2300      	movs	r3, #0
 800ea1e:	4605      	mov	r5, r0
 800ea20:	4608      	mov	r0, r1
 800ea22:	6023      	str	r3, [r4, #0]
 800ea24:	f000 f9a8 	bl	800ed78 <_sbrk>
 800ea28:	1c43      	adds	r3, r0, #1
 800ea2a:	d000      	beq.n	800ea2e <_sbrk_r+0x16>
 800ea2c:	bd38      	pop	{r3, r4, r5, pc}
 800ea2e:	6823      	ldr	r3, [r4, #0]
 800ea30:	2b00      	cmp	r3, #0
 800ea32:	d0fb      	beq.n	800ea2c <_sbrk_r+0x14>
 800ea34:	602b      	str	r3, [r5, #0]
 800ea36:	bd38      	pop	{r3, r4, r5, pc}
 800ea38:	2001f834 	.word	0x2001f834

0800ea3c <register_fini>:
register_fini():
 800ea3c:	4b02      	ldr	r3, [pc, #8]	; (800ea48 <register_fini+0xc>)
 800ea3e:	b113      	cbz	r3, 800ea46 <register_fini+0xa>
 800ea40:	4802      	ldr	r0, [pc, #8]	; (800ea4c <register_fini+0x10>)
 800ea42:	f000 b805 	b.w	800ea50 <atexit>
 800ea46:	4770      	bx	lr
 800ea48:	00000000 	.word	0x00000000
 800ea4c:	0800ea5d 	.word	0x0800ea5d

0800ea50 <atexit>:
atexit():
 800ea50:	4601      	mov	r1, r0
 800ea52:	2000      	movs	r0, #0
 800ea54:	4602      	mov	r2, r0
 800ea56:	4603      	mov	r3, r0
 800ea58:	f000 b93c 	b.w	800ecd4 <__register_exitproc>

0800ea5c <__libc_fini_array>:
__libc_fini_array():
 800ea5c:	b538      	push	{r3, r4, r5, lr}
 800ea5e:	4b08      	ldr	r3, [pc, #32]	; (800ea80 <__libc_fini_array+0x24>)
 800ea60:	4d08      	ldr	r5, [pc, #32]	; (800ea84 <__libc_fini_array+0x28>)
 800ea62:	1aed      	subs	r5, r5, r3
 800ea64:	10ac      	asrs	r4, r5, #2
 800ea66:	bf18      	it	ne
 800ea68:	18ed      	addne	r5, r5, r3
 800ea6a:	d005      	beq.n	800ea78 <__libc_fini_array+0x1c>
 800ea6c:	3c01      	subs	r4, #1
 800ea6e:	f855 3d04 	ldr.w	r3, [r5, #-4]!
 800ea72:	4798      	blx	r3
 800ea74:	2c00      	cmp	r4, #0
 800ea76:	d1f9      	bne.n	800ea6c <__libc_fini_array+0x10>
 800ea78:	e8bd 4038 	ldmia.w	sp!, {r3, r4, r5, lr}
 800ea7c:	f000 b990 	b.w	800eda0 <_fini>
 800ea80:	0801db60 	.word	0x0801db60
 800ea84:	0801db64 	.word	0x0801db64

0800ea88 <_malloc_trim_r>:
_malloc_trim_r():
 800ea88:	b5f8      	push	{r3, r4, r5, r6, r7, lr}
 800ea8a:	4f23      	ldr	r7, [pc, #140]	; (800eb18 <_malloc_trim_r+0x90>)
 800ea8c:	460c      	mov	r4, r1
 800ea8e:	4606      	mov	r6, r0
 800ea90:	f7ff ff94 	bl	800e9bc <__malloc_lock>
 800ea94:	68bb      	ldr	r3, [r7, #8]
 800ea96:	685d      	ldr	r5, [r3, #4]
 800ea98:	f025 0503 	bic.w	r5, r5, #3
 800ea9c:	1b29      	subs	r1, r5, r4
 800ea9e:	f601 71ef 	addw	r1, r1, #4079	; 0xfef
 800eaa2:	f421 617f 	bic.w	r1, r1, #4080	; 0xff0
 800eaa6:	f021 010f 	bic.w	r1, r1, #15
 800eaaa:	f5a1 5480 	sub.w	r4, r1, #4096	; 0x1000
 800eaae:	f5b4 5f80 	cmp.w	r4, #4096	; 0x1000
 800eab2:	db07      	blt.n	800eac4 <_malloc_trim_r+0x3c>
 800eab4:	4630      	mov	r0, r6
 800eab6:	2100      	movs	r1, #0
 800eab8:	f7ff ffae 	bl	800ea18 <_sbrk_r>
 800eabc:	68bb      	ldr	r3, [r7, #8]
 800eabe:	442b      	add	r3, r5
 800eac0:	4298      	cmp	r0, r3
 800eac2:	d004      	beq.n	800eace <_malloc_trim_r+0x46>
 800eac4:	4630      	mov	r0, r6
 800eac6:	f7ff ff7b 	bl	800e9c0 <__malloc_unlock>
 800eaca:	2000      	movs	r0, #0
 800eacc:	bdf8      	pop	{r3, r4, r5, r6, r7, pc}
 800eace:	4630      	mov	r0, r6
 800ead0:	4261      	negs	r1, r4
 800ead2:	f7ff ffa1 	bl	800ea18 <_sbrk_r>
 800ead6:	3001      	adds	r0, #1
 800ead8:	d00d      	beq.n	800eaf6 <_malloc_trim_r+0x6e>
 800eada:	4b10      	ldr	r3, [pc, #64]	; (800eb1c <_malloc_trim_r+0x94>)
 800eadc:	68ba      	ldr	r2, [r7, #8]
 800eade:	6819      	ldr	r1, [r3, #0]
 800eae0:	1b2d      	subs	r5, r5, r4
 800eae2:	f045 0501 	orr.w	r5, r5, #1
 800eae6:	4630      	mov	r0, r6
 800eae8:	1b09      	subs	r1, r1, r4
 800eaea:	6055      	str	r5, [r2, #4]
 800eaec:	6019      	str	r1, [r3, #0]
 800eaee:	f7ff ff67 	bl	800e9c0 <__malloc_unlock>
 800eaf2:	2001      	movs	r0, #1
 800eaf4:	bdf8      	pop	{r3, r4, r5, r6, r7, pc}
 800eaf6:	4630      	mov	r0, r6
 800eaf8:	2100      	movs	r1, #0
 800eafa:	f7ff ff8d 	bl	800ea18 <_sbrk_r>
 800eafe:	68ba      	ldr	r2, [r7, #8]
 800eb00:	1a83      	subs	r3, r0, r2
 800eb02:	2b0f      	cmp	r3, #15
 800eb04:	ddde      	ble.n	800eac4 <_malloc_trim_r+0x3c>
 800eb06:	4c06      	ldr	r4, [pc, #24]	; (800eb20 <_malloc_trim_r+0x98>)
 800eb08:	4904      	ldr	r1, [pc, #16]	; (800eb1c <_malloc_trim_r+0x94>)
 800eb0a:	6824      	ldr	r4, [r4, #0]
 800eb0c:	f043 0301 	orr.w	r3, r3, #1
 800eb10:	1b00      	subs	r0, r0, r4
 800eb12:	6053      	str	r3, [r2, #4]
 800eb14:	6008      	str	r0, [r1, #0]
 800eb16:	e7d5      	b.n	800eac4 <_malloc_trim_r+0x3c>
 800eb18:	200004b4 	.word	0x200004b4
 800eb1c:	2001deb0 	.word	0x2001deb0
 800eb20:	200008c0 	.word	0x200008c0

0800eb24 <_free_r>:
_free_r():
 800eb24:	2900      	cmp	r1, #0
 800eb26:	d04e      	beq.n	800ebc6 <_free_r+0xa2>
 800eb28:	e92d 41f0 	stmdb	sp!, {r4, r5, r6, r7, r8, lr}
 800eb2c:	460c      	mov	r4, r1
 800eb2e:	4680      	mov	r8, r0
 800eb30:	f7ff ff44 	bl	800e9bc <__malloc_lock>
 800eb34:	f854 7c04 	ldr.w	r7, [r4, #-4]
 800eb38:	4962      	ldr	r1, [pc, #392]	; (800ecc4 <_free_r+0x1a0>)
 800eb3a:	f027 0201 	bic.w	r2, r7, #1
 800eb3e:	f1a4 0508 	sub.w	r5, r4, #8
 800eb42:	18ab      	adds	r3, r5, r2
 800eb44:	688e      	ldr	r6, [r1, #8]
 800eb46:	6858      	ldr	r0, [r3, #4]
 800eb48:	429e      	cmp	r6, r3
 800eb4a:	f020 0003 	bic.w	r0, r0, #3
 800eb4e:	d05a      	beq.n	800ec06 <_free_r+0xe2>
 800eb50:	07fe      	lsls	r6, r7, #31
 800eb52:	6058      	str	r0, [r3, #4]
 800eb54:	d40b      	bmi.n	800eb6e <_free_r+0x4a>
 800eb56:	f854 7c08 	ldr.w	r7, [r4, #-8]
 800eb5a:	1bed      	subs	r5, r5, r7
 800eb5c:	f101 0e08 	add.w	lr, r1, #8
 800eb60:	68ac      	ldr	r4, [r5, #8]
 800eb62:	4574      	cmp	r4, lr
 800eb64:	443a      	add	r2, r7
 800eb66:	d067      	beq.n	800ec38 <_free_r+0x114>
 800eb68:	68ef      	ldr	r7, [r5, #12]
 800eb6a:	60e7      	str	r7, [r4, #12]
 800eb6c:	60bc      	str	r4, [r7, #8]
 800eb6e:	181c      	adds	r4, r3, r0
 800eb70:	6864      	ldr	r4, [r4, #4]
 800eb72:	07e4      	lsls	r4, r4, #31
 800eb74:	d40c      	bmi.n	800eb90 <_free_r+0x6c>
 800eb76:	4f54      	ldr	r7, [pc, #336]	; (800ecc8 <_free_r+0x1a4>)
 800eb78:	689c      	ldr	r4, [r3, #8]
 800eb7a:	42bc      	cmp	r4, r7
 800eb7c:	4402      	add	r2, r0
 800eb7e:	d07c      	beq.n	800ec7a <_free_r+0x156>
 800eb80:	68d8      	ldr	r0, [r3, #12]
 800eb82:	60e0      	str	r0, [r4, #12]
 800eb84:	f042 0301 	orr.w	r3, r2, #1
 800eb88:	6084      	str	r4, [r0, #8]
 800eb8a:	606b      	str	r3, [r5, #4]
 800eb8c:	50aa      	str	r2, [r5, r2]
 800eb8e:	e003      	b.n	800eb98 <_free_r+0x74>
 800eb90:	f042 0301 	orr.w	r3, r2, #1
 800eb94:	606b      	str	r3, [r5, #4]
 800eb96:	50aa      	str	r2, [r5, r2]
 800eb98:	f5b2 7f00 	cmp.w	r2, #512	; 0x200
 800eb9c:	d214      	bcs.n	800ebc8 <_free_r+0xa4>
 800eb9e:	08d2      	lsrs	r2, r2, #3
 800eba0:	eb01 03c2 	add.w	r3, r1, r2, lsl #3
 800eba4:	6848      	ldr	r0, [r1, #4]
 800eba6:	689f      	ldr	r7, [r3, #8]
 800eba8:	60af      	str	r7, [r5, #8]
 800ebaa:	1092      	asrs	r2, r2, #2
 800ebac:	2401      	movs	r4, #1
 800ebae:	fa04 f202 	lsl.w	r2, r4, r2
 800ebb2:	4310      	orrs	r0, r2
 800ebb4:	60eb      	str	r3, [r5, #12]
 800ebb6:	6048      	str	r0, [r1, #4]
 800ebb8:	609d      	str	r5, [r3, #8]
 800ebba:	60fd      	str	r5, [r7, #12]
 800ebbc:	4640      	mov	r0, r8
 800ebbe:	e8bd 41f0 	ldmia.w	sp!, {r4, r5, r6, r7, r8, lr}
 800ebc2:	f7ff befd 	b.w	800e9c0 <__malloc_unlock>
 800ebc6:	4770      	bx	lr
 800ebc8:	0a53      	lsrs	r3, r2, #9
 800ebca:	2b04      	cmp	r3, #4
 800ebcc:	d847      	bhi.n	800ec5e <_free_r+0x13a>
 800ebce:	0993      	lsrs	r3, r2, #6
 800ebd0:	f103 0438 	add.w	r4, r3, #56	; 0x38
 800ebd4:	0060      	lsls	r0, r4, #1
 800ebd6:	eb01 0080 	add.w	r0, r1, r0, lsl #2
 800ebda:	493a      	ldr	r1, [pc, #232]	; (800ecc4 <_free_r+0x1a0>)
 800ebdc:	6883      	ldr	r3, [r0, #8]
 800ebde:	4283      	cmp	r3, r0
 800ebe0:	d043      	beq.n	800ec6a <_free_r+0x146>
 800ebe2:	6859      	ldr	r1, [r3, #4]
 800ebe4:	f021 0103 	bic.w	r1, r1, #3
 800ebe8:	4291      	cmp	r1, r2
 800ebea:	d902      	bls.n	800ebf2 <_free_r+0xce>
 800ebec:	689b      	ldr	r3, [r3, #8]
 800ebee:	4298      	cmp	r0, r3
 800ebf0:	d1f7      	bne.n	800ebe2 <_free_r+0xbe>
 800ebf2:	68da      	ldr	r2, [r3, #12]
 800ebf4:	60ea      	str	r2, [r5, #12]
 800ebf6:	60ab      	str	r3, [r5, #8]
 800ebf8:	4640      	mov	r0, r8
 800ebfa:	6095      	str	r5, [r2, #8]
 800ebfc:	60dd      	str	r5, [r3, #12]
 800ebfe:	e8bd 41f0 	ldmia.w	sp!, {r4, r5, r6, r7, r8, lr}
 800ec02:	f7ff bedd 	b.w	800e9c0 <__malloc_unlock>
 800ec06:	07ff      	lsls	r7, r7, #31
 800ec08:	4402      	add	r2, r0
 800ec0a:	d407      	bmi.n	800ec1c <_free_r+0xf8>
 800ec0c:	f854 3c08 	ldr.w	r3, [r4, #-8]
 800ec10:	1aed      	subs	r5, r5, r3
 800ec12:	441a      	add	r2, r3
 800ec14:	68a8      	ldr	r0, [r5, #8]
 800ec16:	68eb      	ldr	r3, [r5, #12]
 800ec18:	60c3      	str	r3, [r0, #12]
 800ec1a:	6098      	str	r0, [r3, #8]
 800ec1c:	4b2b      	ldr	r3, [pc, #172]	; (800eccc <_free_r+0x1a8>)
 800ec1e:	681b      	ldr	r3, [r3, #0]
 800ec20:	f042 0001 	orr.w	r0, r2, #1
 800ec24:	429a      	cmp	r2, r3
 800ec26:	6068      	str	r0, [r5, #4]
 800ec28:	608d      	str	r5, [r1, #8]
 800ec2a:	d3c7      	bcc.n	800ebbc <_free_r+0x98>
 800ec2c:	4b28      	ldr	r3, [pc, #160]	; (800ecd0 <_free_r+0x1ac>)
 800ec2e:	4640      	mov	r0, r8
 800ec30:	6819      	ldr	r1, [r3, #0]
 800ec32:	f7ff ff29 	bl	800ea88 <_malloc_trim_r>
 800ec36:	e7c1      	b.n	800ebbc <_free_r+0x98>
 800ec38:	1819      	adds	r1, r3, r0
 800ec3a:	6849      	ldr	r1, [r1, #4]
 800ec3c:	07c9      	lsls	r1, r1, #31
 800ec3e:	d409      	bmi.n	800ec54 <_free_r+0x130>
 800ec40:	68d9      	ldr	r1, [r3, #12]
 800ec42:	689b      	ldr	r3, [r3, #8]
 800ec44:	4402      	add	r2, r0
 800ec46:	f042 0001 	orr.w	r0, r2, #1
 800ec4a:	60d9      	str	r1, [r3, #12]
 800ec4c:	608b      	str	r3, [r1, #8]
 800ec4e:	6068      	str	r0, [r5, #4]
 800ec50:	50aa      	str	r2, [r5, r2]
 800ec52:	e7b3      	b.n	800ebbc <_free_r+0x98>
 800ec54:	f042 0301 	orr.w	r3, r2, #1
 800ec58:	606b      	str	r3, [r5, #4]
 800ec5a:	50aa      	str	r2, [r5, r2]
 800ec5c:	e7ae      	b.n	800ebbc <_free_r+0x98>
 800ec5e:	2b14      	cmp	r3, #20
 800ec60:	d814      	bhi.n	800ec8c <_free_r+0x168>
 800ec62:	f103 045b 	add.w	r4, r3, #91	; 0x5b
 800ec66:	0060      	lsls	r0, r4, #1
 800ec68:	e7b5      	b.n	800ebd6 <_free_r+0xb2>
 800ec6a:	684a      	ldr	r2, [r1, #4]
 800ec6c:	10a4      	asrs	r4, r4, #2
 800ec6e:	2001      	movs	r0, #1
 800ec70:	40a0      	lsls	r0, r4
 800ec72:	4302      	orrs	r2, r0
 800ec74:	604a      	str	r2, [r1, #4]
 800ec76:	461a      	mov	r2, r3
 800ec78:	e7bc      	b.n	800ebf4 <_free_r+0xd0>
 800ec7a:	f042 0301 	orr.w	r3, r2, #1
 800ec7e:	614d      	str	r5, [r1, #20]
 800ec80:	610d      	str	r5, [r1, #16]
 800ec82:	60ec      	str	r4, [r5, #12]
 800ec84:	60ac      	str	r4, [r5, #8]
 800ec86:	606b      	str	r3, [r5, #4]
 800ec88:	50aa      	str	r2, [r5, r2]
 800ec8a:	e797      	b.n	800ebbc <_free_r+0x98>
 800ec8c:	2b54      	cmp	r3, #84	; 0x54
 800ec8e:	d804      	bhi.n	800ec9a <_free_r+0x176>
 800ec90:	0b13      	lsrs	r3, r2, #12
 800ec92:	f103 046e 	add.w	r4, r3, #110	; 0x6e
 800ec96:	0060      	lsls	r0, r4, #1
 800ec98:	e79d      	b.n	800ebd6 <_free_r+0xb2>
 800ec9a:	f5b3 7faa 	cmp.w	r3, #340	; 0x154
 800ec9e:	d804      	bhi.n	800ecaa <_free_r+0x186>
 800eca0:	0bd3      	lsrs	r3, r2, #15
 800eca2:	f103 0477 	add.w	r4, r3, #119	; 0x77
 800eca6:	0060      	lsls	r0, r4, #1
 800eca8:	e795      	b.n	800ebd6 <_free_r+0xb2>
 800ecaa:	f240 5054 	movw	r0, #1364	; 0x554
 800ecae:	4283      	cmp	r3, r0
 800ecb0:	d804      	bhi.n	800ecbc <_free_r+0x198>
 800ecb2:	0c93      	lsrs	r3, r2, #18
 800ecb4:	f103 047c 	add.w	r4, r3, #124	; 0x7c
 800ecb8:	0060      	lsls	r0, r4, #1
 800ecba:	e78c      	b.n	800ebd6 <_free_r+0xb2>
 800ecbc:	20fc      	movs	r0, #252	; 0xfc
 800ecbe:	247e      	movs	r4, #126	; 0x7e
 800ecc0:	e789      	b.n	800ebd6 <_free_r+0xb2>
 800ecc2:	bf00      	nop
 800ecc4:	200004b4 	.word	0x200004b4
 800ecc8:	200004bc 	.word	0x200004bc
 800eccc:	200008bc 	.word	0x200008bc
 800ecd0:	2001deac 	.word	0x2001deac

0800ecd4 <__register_exitproc>:
__register_exitproc():
 800ecd4:	e92d 47f0 	stmdb	sp!, {r4, r5, r6, r7, r8, r9, sl, lr}
 800ecd8:	4c25      	ldr	r4, [pc, #148]	; (800ed70 <__register_exitproc+0x9c>)
 800ecda:	6825      	ldr	r5, [r4, #0]
 800ecdc:	f8d5 4148 	ldr.w	r4, [r5, #328]	; 0x148
 800ece0:	4606      	mov	r6, r0
 800ece2:	4688      	mov	r8, r1
 800ece4:	4692      	mov	sl, r2
 800ece6:	4699      	mov	r9, r3
 800ece8:	b3cc      	cbz	r4, 800ed5e <__register_exitproc+0x8a>
 800ecea:	6860      	ldr	r0, [r4, #4]
 800ecec:	281f      	cmp	r0, #31
 800ecee:	dc18      	bgt.n	800ed22 <__register_exitproc+0x4e>
 800ecf0:	1c43      	adds	r3, r0, #1
 800ecf2:	b17e      	cbz	r6, 800ed14 <__register_exitproc+0x40>
 800ecf4:	eb04 0580 	add.w	r5, r4, r0, lsl #2
 800ecf8:	2101      	movs	r1, #1
 800ecfa:	f8c5 a088 	str.w	sl, [r5, #136]	; 0x88
 800ecfe:	f8d4 7188 	ldr.w	r7, [r4, #392]	; 0x188
 800ed02:	fa01 f200 	lsl.w	r2, r1, r0
 800ed06:	4317      	orrs	r7, r2
 800ed08:	2e02      	cmp	r6, #2
 800ed0a:	f8c4 7188 	str.w	r7, [r4, #392]	; 0x188
 800ed0e:	f8c5 9108 	str.w	r9, [r5, #264]	; 0x108
 800ed12:	d01e      	beq.n	800ed52 <__register_exitproc+0x7e>
 800ed14:	3002      	adds	r0, #2
 800ed16:	6063      	str	r3, [r4, #4]
 800ed18:	f844 8020 	str.w	r8, [r4, r0, lsl #2]
 800ed1c:	2000      	movs	r0, #0
 800ed1e:	e8bd 87f0 	ldmia.w	sp!, {r4, r5, r6, r7, r8, r9, sl, pc}
 800ed22:	4b14      	ldr	r3, [pc, #80]	; (800ed74 <__register_exitproc+0xa0>)
 800ed24:	b303      	cbz	r3, 800ed68 <__register_exitproc+0x94>
 800ed26:	f44f 70c8 	mov.w	r0, #400	; 0x190
 800ed2a:	f7ff fb5b 	bl	800e3e4 <malloc>
 800ed2e:	4604      	mov	r4, r0
 800ed30:	b1d0      	cbz	r0, 800ed68 <__register_exitproc+0x94>
 800ed32:	f8d5 3148 	ldr.w	r3, [r5, #328]	; 0x148
 800ed36:	2700      	movs	r7, #0
 800ed38:	e880 0088 	stmia.w	r0, {r3, r7}
 800ed3c:	f8c5 4148 	str.w	r4, [r5, #328]	; 0x148
 800ed40:	4638      	mov	r0, r7
 800ed42:	2301      	movs	r3, #1
 800ed44:	f8c4 7188 	str.w	r7, [r4, #392]	; 0x188
 800ed48:	f8c4 718c 	str.w	r7, [r4, #396]	; 0x18c
 800ed4c:	2e00      	cmp	r6, #0
 800ed4e:	d0e1      	beq.n	800ed14 <__register_exitproc+0x40>
 800ed50:	e7d0      	b.n	800ecf4 <__register_exitproc+0x20>
 800ed52:	f8d4 118c 	ldr.w	r1, [r4, #396]	; 0x18c
 800ed56:	430a      	orrs	r2, r1
 800ed58:	f8c4 218c 	str.w	r2, [r4, #396]	; 0x18c
 800ed5c:	e7da      	b.n	800ed14 <__register_exitproc+0x40>
 800ed5e:	f505 74a6 	add.w	r4, r5, #332	; 0x14c
 800ed62:	f8c5 4148 	str.w	r4, [r5, #328]	; 0x148
 800ed66:	e7c0      	b.n	800ecea <__register_exitproc+0x16>
 800ed68:	f04f 30ff 	mov.w	r0, #4294967295
 800ed6c:	e8bd 87f0 	ldmia.w	sp!, {r4, r5, r6, r7, r8, r9, sl, pc}
 800ed70:	0801db54 	.word	0x0801db54
 800ed74:	0800e3e5 	.word	0x0800e3e5

0800ed78 <_sbrk>:
_sbrk():
 800ed78:	4a04      	ldr	r2, [pc, #16]	; (800ed8c <_sbrk+0x14>)
 800ed7a:	4905      	ldr	r1, [pc, #20]	; (800ed90 <_sbrk+0x18>)
 800ed7c:	6813      	ldr	r3, [r2, #0]
 800ed7e:	2b00      	cmp	r3, #0
 800ed80:	bf08      	it	eq
 800ed82:	460b      	moveq	r3, r1
 800ed84:	4418      	add	r0, r3
 800ed86:	6010      	str	r0, [r2, #0]
 800ed88:	4618      	mov	r0, r3
 800ed8a:	4770      	bx	lr
 800ed8c:	2001ded8 	.word	0x2001ded8
 800ed90:	10003eac 	.word	0x10003eac

0800ed94 <_init>:
$t():
 800ed94:	b5f8      	push	{r3, r4, r5, r6, r7, lr}
 800ed96:	bf00      	nop
 800ed98:	bcf8      	pop	{r3, r4, r5, r6, r7}
 800ed9a:	bc08      	pop	{r3}
 800ed9c:	469e      	mov	lr, r3
 800ed9e:	4770      	bx	lr

0800eda0 <_fini>:
 800eda0:	b5f8      	push	{r3, r4, r5, r6, r7, lr}
 800eda2:	bf00      	nop
 800eda4:	bcf8      	pop	{r3, r4, r5, r6, r7}
 800eda6:	bc08      	pop	{r3}
 800eda8:	469e      	mov	lr, r3
 800edaa:	4770      	bx	lr
 800edac:	0000      	movs	r0, r0
	...

0800edb0 <____errno_veneer>:
____errno_veneer():
 800edb0:	b401      	push	{r0}
 800edb2:	4802      	ldr	r0, [pc, #8]	; (800edbc <____errno_veneer+0xc>)
 800edb4:	4684      	mov	ip, r0
 800edb6:	bc01      	pop	{r0}
 800edb8:	4760      	bx	ip
 800edba:	bf00      	nop
 800edbc:	2001f825 	.word	0x2001f825
